ARM GAS  C:\Users\skey\AppData\Local\Temp\ccIkOQKS.s 			page 1


   1              		.cpu cortex-m3
   2              		.eabi_attribute 20, 1	@ Tag_ABI_FP_denormal
   3              		.eabi_attribute 21, 1	@ Tag_ABI_FP_exceptions
   4              		.eabi_attribute 23, 3	@ Tag_ABI_FP_number_model
   5              		.eabi_attribute 24, 1	@ Tag_ABI_align8_needed
   6              		.eabi_attribute 25, 1	@ Tag_ABI_align8_preserved
   7              		.eabi_attribute 26, 1	@ Tag_ABI_enum_size
   8              		.eabi_attribute 30, 4	@ Tag_ABI_optimization_goals
   9              		.eabi_attribute 34, 1	@ Tag_CPU_unaligned_access
  10              		.eabi_attribute 18, 4	@ Tag_ABI_PCS_wchar_t
  11              		.file	"stm32f10x_adc.c"
  12              	@ GNU C17 (GNU Tools for Arm Embedded Processors 9-2019-q4-major) version 9.2.1 20191025 (release) 
  13              	@	compiled by GNU C version 5.3.1 20160211, GMP version 6.1.0, MPFR version 3.1.4, MPC version 1.0.
  14              	
  15              	@ GGC heuristics: --param ggc-min-expand=100 --param ggc-min-heapsize=131072
  16              	@ options passed:  -I . -I .\usr_inc -I .\task_inc
  17              	@ -I .\stlib\CMSIS\CM3\CoreSupport
  18              	@ -I .\stlib\CMSIS\CM3\DeviceSupport\ST\STM32F10x
  19              	@ -I .\stlib\STM32F10x_StdPeriph_Driver\inc
  20              	@ -I .\stlib\STM32F10x_StdPeriph_Driver -I .\freertos\include
  21              	@ -I .\freertos\portable\GCC\ARM_CM3 -imultilib thumb/v7-m/nofp
  22              	@ -iprefix c:\program files (x86)\gnu tools arm embedded\9 2019-q4-major\bin\../lib/gcc/arm-none-ea
  23              	@ -isysroot c:\program files (x86)\gnu tools arm embedded\9 2019-q4-major\bin\../arm-none-eabi
  24              	@ -D__USES_INITFINI__ -D STM32F10X_HD -D USE_STDPERIPH_DRIVER
  25              	@ -D HSE_VALUE=8000000 -D RUN_FROM_FLASH=1
  26              	@ .\stlib\STM32F10x_StdPeriph_Driver\src\stm32f10x_adc.c -mcpu=cortex-m3
  27              	@ -mthumb -mfloat-abi=soft -march=armv7-m
  28              	@ -auxbase-strip .\stlib\STM32F10x_StdPeriph_Driver\src\stm32f10x_adc.o -g
  29              	@ -gdwarf-2 -Os -Wall -fomit-frame-pointer -fverbose-asm
  30              	@ options enabled:  -faggressive-loop-optimizations -fassume-phsa
  31              	@ -fauto-inc-dec -fbranch-count-reg -fcaller-saves -fcode-hoisting
  32              	@ -fcombine-stack-adjustments -fcommon -fcompare-elim -fcprop-registers
  33              	@ -fcrossjumping -fcse-follow-jumps -fdefer-pop
  34              	@ -fdelete-null-pointer-checks -fdevirtualize -fdevirtualize-speculatively
  35              	@ -fdwarf2-cfi-asm -fearly-inlining -feliminate-unused-debug-types
  36              	@ -fexpensive-optimizations -fforward-propagate -ffp-int-builtin-inexact
  37              	@ -ffunction-cse -fgcse -fgcse-lm -fgnu-runtime -fgnu-unique
  38              	@ -fguess-branch-probability -fhoist-adjacent-loads -fident -fif-conversion
  39              	@ -fif-conversion2 -findirect-inlining -finline -finline-atomics
  40              	@ -finline-functions -finline-functions-called-once
  41              	@ -finline-small-functions -fipa-bit-cp -fipa-cp -fipa-icf
  42              	@ -fipa-icf-functions -fipa-icf-variables -fipa-profile -fipa-pure-const
  43              	@ -fipa-ra -fipa-reference -fipa-reference-addressable -fipa-sra
  44              	@ -fipa-stack-alignment -fipa-vrp -fira-hoist-pressure
  45              	@ -fira-share-save-slots -fira-share-spill-slots
  46              	@ -fisolate-erroneous-paths-dereference -fivopts -fkeep-static-consts
  47              	@ -fleading-underscore -flifetime-dse -flra-remat -flto-odr-type-merging
  48              	@ -fmath-errno -fmerge-constants -fmerge-debug-strings
  49              	@ -fmove-loop-invariants -fomit-frame-pointer -foptimize-sibling-calls
  50              	@ -fpartial-inlining -fpeephole -fpeephole2 -fplt -fprefetch-loop-arrays
  51              	@ -freg-struct-return -freorder-blocks -freorder-functions
  52              	@ -frerun-cse-after-loop -fsched-critical-path-heuristic
  53              	@ -fsched-dep-count-heuristic -fsched-group-heuristic -fsched-interblock
  54              	@ -fsched-last-insn-heuristic -fsched-pressure -fsched-rank-heuristic
  55              	@ -fsched-spec -fsched-spec-insn-heuristic -fsched-stalled-insns-dep
  56              	@ -fschedule-insns2 -fsection-anchors -fsemantic-interposition
  57              	@ -fshow-column -fshrink-wrap-separate -fsigned-zeros
ARM GAS  C:\Users\skey\AppData\Local\Temp\ccIkOQKS.s 			page 2


  58              	@ -fsplit-ivs-in-unroller -fsplit-wide-types -fssa-backprop -fssa-phiopt
  59              	@ -fstdarg-opt -fstore-merging -fstrict-aliasing
  60              	@ -fstrict-volatile-bitfields -fsync-libcalls -fthread-jumps
  61              	@ -ftoplevel-reorder -ftrapping-math -ftree-bit-ccp -ftree-builtin-call-dce
  62              	@ -ftree-ccp -ftree-ch -ftree-coalesce-vars -ftree-copy-prop -ftree-cselim
  63              	@ -ftree-dce -ftree-dominator-opts -ftree-dse -ftree-forwprop -ftree-fre
  64              	@ -ftree-loop-if-convert -ftree-loop-im -ftree-loop-ivcanon
  65              	@ -ftree-loop-optimize -ftree-parallelize-loops= -ftree-phiprop -ftree-pre
  66              	@ -ftree-pta -ftree-reassoc -ftree-scev-cprop -ftree-sink -ftree-slsr
  67              	@ -ftree-sra -ftree-switch-conversion -ftree-tail-merge -ftree-ter
  68              	@ -ftree-vrp -funit-at-a-time -fvar-tracking -fvar-tracking-assignments
  69              	@ -fverbose-asm -fzero-initialized-in-bss -masm-syntax-unified -mbe32
  70              	@ -mfix-cortex-m3-ldrd -mlittle-endian -mpic-data-is-text-relative
  71              	@ -msched-prolog -mthumb -munaligned-access -mvectorize-with-neon-quad
  72              	
  73              		.text
  74              	.Ltext0:
  75              		.cfi_sections	.debug_frame
  76              		.align	1
  77              		.global	ADC_DeInit
  78              		.arch armv7-m
  79              		.syntax unified
  80              		.thumb
  81              		.thumb_func
  82              		.fpu softvfp
  83              		.type	ADC_DeInit, %function
  84              	ADC_DeInit:
  85              	.LVL0:
  86              	.LFB29:
  87              		.file 1 ".\\stlib\\STM32F10x_StdPeriph_Driver\\src\\stm32f10x_adc.c"
   1:.\stlib\STM32F10x_StdPeriph_Driver\src/stm32f10x_adc.c **** /**
   2:.\stlib\STM32F10x_StdPeriph_Driver\src/stm32f10x_adc.c ****   ******************************************************************************
   3:.\stlib\STM32F10x_StdPeriph_Driver\src/stm32f10x_adc.c ****   * @file    stm32f10x_adc.c
   4:.\stlib\STM32F10x_StdPeriph_Driver\src/stm32f10x_adc.c ****   * @author  MCD Application Team
   5:.\stlib\STM32F10x_StdPeriph_Driver\src/stm32f10x_adc.c ****   * @version V3.5.0
   6:.\stlib\STM32F10x_StdPeriph_Driver\src/stm32f10x_adc.c ****   * @date    11-March-2011
   7:.\stlib\STM32F10x_StdPeriph_Driver\src/stm32f10x_adc.c ****   * @brief   This file provides all the ADC firmware functions.
   8:.\stlib\STM32F10x_StdPeriph_Driver\src/stm32f10x_adc.c ****   ******************************************************************************
   9:.\stlib\STM32F10x_StdPeriph_Driver\src/stm32f10x_adc.c ****   * @attention
  10:.\stlib\STM32F10x_StdPeriph_Driver\src/stm32f10x_adc.c ****   *
  11:.\stlib\STM32F10x_StdPeriph_Driver\src/stm32f10x_adc.c ****   * THE PRESENT FIRMWARE WHICH IS FOR GUIDANCE ONLY AIMS AT PROVIDING CUSTOMERS
  12:.\stlib\STM32F10x_StdPeriph_Driver\src/stm32f10x_adc.c ****   * WITH CODING INFORMATION REGARDING THEIR PRODUCTS IN ORDER FOR THEM TO SAVE
  13:.\stlib\STM32F10x_StdPeriph_Driver\src/stm32f10x_adc.c ****   * TIME. AS A RESULT, STMICROELECTRONICS SHALL NOT BE HELD LIABLE FOR ANY
  14:.\stlib\STM32F10x_StdPeriph_Driver\src/stm32f10x_adc.c ****   * DIRECT, INDIRECT OR CONSEQUENTIAL DAMAGES WITH RESPECT TO ANY CLAIMS ARISING
  15:.\stlib\STM32F10x_StdPeriph_Driver\src/stm32f10x_adc.c ****   * FROM THE CONTENT OF SUCH FIRMWARE AND/OR THE USE MADE BY CUSTOMERS OF THE
  16:.\stlib\STM32F10x_StdPeriph_Driver\src/stm32f10x_adc.c ****   * CODING INFORMATION CONTAINED HEREIN IN CONNECTION WITH THEIR PRODUCTS.
  17:.\stlib\STM32F10x_StdPeriph_Driver\src/stm32f10x_adc.c ****   *
  18:.\stlib\STM32F10x_StdPeriph_Driver\src/stm32f10x_adc.c ****   * <h2><center>&copy; COPYRIGHT 2011 STMicroelectronics</center></h2>
  19:.\stlib\STM32F10x_StdPeriph_Driver\src/stm32f10x_adc.c ****   ******************************************************************************
  20:.\stlib\STM32F10x_StdPeriph_Driver\src/stm32f10x_adc.c ****   */
  21:.\stlib\STM32F10x_StdPeriph_Driver\src/stm32f10x_adc.c **** 
  22:.\stlib\STM32F10x_StdPeriph_Driver\src/stm32f10x_adc.c **** /* Includes ------------------------------------------------------------------*/
  23:.\stlib\STM32F10x_StdPeriph_Driver\src/stm32f10x_adc.c **** #include "stm32f10x_adc.h"
  24:.\stlib\STM32F10x_StdPeriph_Driver\src/stm32f10x_adc.c **** #include "stm32f10x_rcc.h"
  25:.\stlib\STM32F10x_StdPeriph_Driver\src/stm32f10x_adc.c **** 
  26:.\stlib\STM32F10x_StdPeriph_Driver\src/stm32f10x_adc.c **** /** @addtogroup STM32F10x_StdPeriph_Driver
  27:.\stlib\STM32F10x_StdPeriph_Driver\src/stm32f10x_adc.c ****   * @{
ARM GAS  C:\Users\skey\AppData\Local\Temp\ccIkOQKS.s 			page 3


  28:.\stlib\STM32F10x_StdPeriph_Driver\src/stm32f10x_adc.c ****   */
  29:.\stlib\STM32F10x_StdPeriph_Driver\src/stm32f10x_adc.c **** 
  30:.\stlib\STM32F10x_StdPeriph_Driver\src/stm32f10x_adc.c **** /** @defgroup ADC 
  31:.\stlib\STM32F10x_StdPeriph_Driver\src/stm32f10x_adc.c ****   * @brief ADC driver modules
  32:.\stlib\STM32F10x_StdPeriph_Driver\src/stm32f10x_adc.c ****   * @{
  33:.\stlib\STM32F10x_StdPeriph_Driver\src/stm32f10x_adc.c ****   */
  34:.\stlib\STM32F10x_StdPeriph_Driver\src/stm32f10x_adc.c **** 
  35:.\stlib\STM32F10x_StdPeriph_Driver\src/stm32f10x_adc.c **** /** @defgroup ADC_Private_TypesDefinitions
  36:.\stlib\STM32F10x_StdPeriph_Driver\src/stm32f10x_adc.c ****   * @{
  37:.\stlib\STM32F10x_StdPeriph_Driver\src/stm32f10x_adc.c ****   */
  38:.\stlib\STM32F10x_StdPeriph_Driver\src/stm32f10x_adc.c **** 
  39:.\stlib\STM32F10x_StdPeriph_Driver\src/stm32f10x_adc.c **** /**
  40:.\stlib\STM32F10x_StdPeriph_Driver\src/stm32f10x_adc.c ****   * @}
  41:.\stlib\STM32F10x_StdPeriph_Driver\src/stm32f10x_adc.c ****   */
  42:.\stlib\STM32F10x_StdPeriph_Driver\src/stm32f10x_adc.c **** 
  43:.\stlib\STM32F10x_StdPeriph_Driver\src/stm32f10x_adc.c **** /** @defgroup ADC_Private_Defines
  44:.\stlib\STM32F10x_StdPeriph_Driver\src/stm32f10x_adc.c ****   * @{
  45:.\stlib\STM32F10x_StdPeriph_Driver\src/stm32f10x_adc.c ****   */
  46:.\stlib\STM32F10x_StdPeriph_Driver\src/stm32f10x_adc.c **** 
  47:.\stlib\STM32F10x_StdPeriph_Driver\src/stm32f10x_adc.c **** /* ADC DISCNUM mask */
  48:.\stlib\STM32F10x_StdPeriph_Driver\src/stm32f10x_adc.c **** #define CR1_DISCNUM_Reset           ((uint32_t)0xFFFF1FFF)
  49:.\stlib\STM32F10x_StdPeriph_Driver\src/stm32f10x_adc.c **** 
  50:.\stlib\STM32F10x_StdPeriph_Driver\src/stm32f10x_adc.c **** /* ADC DISCEN mask */
  51:.\stlib\STM32F10x_StdPeriph_Driver\src/stm32f10x_adc.c **** #define CR1_DISCEN_Set              ((uint32_t)0x00000800)
  52:.\stlib\STM32F10x_StdPeriph_Driver\src/stm32f10x_adc.c **** #define CR1_DISCEN_Reset            ((uint32_t)0xFFFFF7FF)
  53:.\stlib\STM32F10x_StdPeriph_Driver\src/stm32f10x_adc.c **** 
  54:.\stlib\STM32F10x_StdPeriph_Driver\src/stm32f10x_adc.c **** /* ADC JAUTO mask */
  55:.\stlib\STM32F10x_StdPeriph_Driver\src/stm32f10x_adc.c **** #define CR1_JAUTO_Set               ((uint32_t)0x00000400)
  56:.\stlib\STM32F10x_StdPeriph_Driver\src/stm32f10x_adc.c **** #define CR1_JAUTO_Reset             ((uint32_t)0xFFFFFBFF)
  57:.\stlib\STM32F10x_StdPeriph_Driver\src/stm32f10x_adc.c **** 
  58:.\stlib\STM32F10x_StdPeriph_Driver\src/stm32f10x_adc.c **** /* ADC JDISCEN mask */
  59:.\stlib\STM32F10x_StdPeriph_Driver\src/stm32f10x_adc.c **** #define CR1_JDISCEN_Set             ((uint32_t)0x00001000)
  60:.\stlib\STM32F10x_StdPeriph_Driver\src/stm32f10x_adc.c **** #define CR1_JDISCEN_Reset           ((uint32_t)0xFFFFEFFF)
  61:.\stlib\STM32F10x_StdPeriph_Driver\src/stm32f10x_adc.c **** 
  62:.\stlib\STM32F10x_StdPeriph_Driver\src/stm32f10x_adc.c **** /* ADC AWDCH mask */
  63:.\stlib\STM32F10x_StdPeriph_Driver\src/stm32f10x_adc.c **** #define CR1_AWDCH_Reset             ((uint32_t)0xFFFFFFE0)
  64:.\stlib\STM32F10x_StdPeriph_Driver\src/stm32f10x_adc.c **** 
  65:.\stlib\STM32F10x_StdPeriph_Driver\src/stm32f10x_adc.c **** /* ADC Analog watchdog enable mode mask */
  66:.\stlib\STM32F10x_StdPeriph_Driver\src/stm32f10x_adc.c **** #define CR1_AWDMode_Reset           ((uint32_t)0xFF3FFDFF)
  67:.\stlib\STM32F10x_StdPeriph_Driver\src/stm32f10x_adc.c **** 
  68:.\stlib\STM32F10x_StdPeriph_Driver\src/stm32f10x_adc.c **** /* CR1 register Mask */
  69:.\stlib\STM32F10x_StdPeriph_Driver\src/stm32f10x_adc.c **** #define CR1_CLEAR_Mask              ((uint32_t)0xFFF0FEFF)
  70:.\stlib\STM32F10x_StdPeriph_Driver\src/stm32f10x_adc.c **** 
  71:.\stlib\STM32F10x_StdPeriph_Driver\src/stm32f10x_adc.c **** /* ADC ADON mask */
  72:.\stlib\STM32F10x_StdPeriph_Driver\src/stm32f10x_adc.c **** #define CR2_ADON_Set                ((uint32_t)0x00000001)
  73:.\stlib\STM32F10x_StdPeriph_Driver\src/stm32f10x_adc.c **** #define CR2_ADON_Reset              ((uint32_t)0xFFFFFFFE)
  74:.\stlib\STM32F10x_StdPeriph_Driver\src/stm32f10x_adc.c **** 
  75:.\stlib\STM32F10x_StdPeriph_Driver\src/stm32f10x_adc.c **** /* ADC DMA mask */
  76:.\stlib\STM32F10x_StdPeriph_Driver\src/stm32f10x_adc.c **** #define CR2_DMA_Set                 ((uint32_t)0x00000100)
  77:.\stlib\STM32F10x_StdPeriph_Driver\src/stm32f10x_adc.c **** #define CR2_DMA_Reset               ((uint32_t)0xFFFFFEFF)
  78:.\stlib\STM32F10x_StdPeriph_Driver\src/stm32f10x_adc.c **** 
  79:.\stlib\STM32F10x_StdPeriph_Driver\src/stm32f10x_adc.c **** /* ADC RSTCAL mask */
  80:.\stlib\STM32F10x_StdPeriph_Driver\src/stm32f10x_adc.c **** #define CR2_RSTCAL_Set              ((uint32_t)0x00000008)
  81:.\stlib\STM32F10x_StdPeriph_Driver\src/stm32f10x_adc.c **** 
  82:.\stlib\STM32F10x_StdPeriph_Driver\src/stm32f10x_adc.c **** /* ADC CAL mask */
  83:.\stlib\STM32F10x_StdPeriph_Driver\src/stm32f10x_adc.c **** #define CR2_CAL_Set                 ((uint32_t)0x00000004)
  84:.\stlib\STM32F10x_StdPeriph_Driver\src/stm32f10x_adc.c **** 
ARM GAS  C:\Users\skey\AppData\Local\Temp\ccIkOQKS.s 			page 4


  85:.\stlib\STM32F10x_StdPeriph_Driver\src/stm32f10x_adc.c **** /* ADC SWSTART mask */
  86:.\stlib\STM32F10x_StdPeriph_Driver\src/stm32f10x_adc.c **** #define CR2_SWSTART_Set             ((uint32_t)0x00400000)
  87:.\stlib\STM32F10x_StdPeriph_Driver\src/stm32f10x_adc.c **** 
  88:.\stlib\STM32F10x_StdPeriph_Driver\src/stm32f10x_adc.c **** /* ADC EXTTRIG mask */
  89:.\stlib\STM32F10x_StdPeriph_Driver\src/stm32f10x_adc.c **** #define CR2_EXTTRIG_Set             ((uint32_t)0x00100000)
  90:.\stlib\STM32F10x_StdPeriph_Driver\src/stm32f10x_adc.c **** #define CR2_EXTTRIG_Reset           ((uint32_t)0xFFEFFFFF)
  91:.\stlib\STM32F10x_StdPeriph_Driver\src/stm32f10x_adc.c **** 
  92:.\stlib\STM32F10x_StdPeriph_Driver\src/stm32f10x_adc.c **** /* ADC Software start mask */
  93:.\stlib\STM32F10x_StdPeriph_Driver\src/stm32f10x_adc.c **** #define CR2_EXTTRIG_SWSTART_Set     ((uint32_t)0x00500000)
  94:.\stlib\STM32F10x_StdPeriph_Driver\src/stm32f10x_adc.c **** #define CR2_EXTTRIG_SWSTART_Reset   ((uint32_t)0xFFAFFFFF)
  95:.\stlib\STM32F10x_StdPeriph_Driver\src/stm32f10x_adc.c **** 
  96:.\stlib\STM32F10x_StdPeriph_Driver\src/stm32f10x_adc.c **** /* ADC JEXTSEL mask */
  97:.\stlib\STM32F10x_StdPeriph_Driver\src/stm32f10x_adc.c **** #define CR2_JEXTSEL_Reset           ((uint32_t)0xFFFF8FFF)
  98:.\stlib\STM32F10x_StdPeriph_Driver\src/stm32f10x_adc.c **** 
  99:.\stlib\STM32F10x_StdPeriph_Driver\src/stm32f10x_adc.c **** /* ADC JEXTTRIG mask */
 100:.\stlib\STM32F10x_StdPeriph_Driver\src/stm32f10x_adc.c **** #define CR2_JEXTTRIG_Set            ((uint32_t)0x00008000)
 101:.\stlib\STM32F10x_StdPeriph_Driver\src/stm32f10x_adc.c **** #define CR2_JEXTTRIG_Reset          ((uint32_t)0xFFFF7FFF)
 102:.\stlib\STM32F10x_StdPeriph_Driver\src/stm32f10x_adc.c **** 
 103:.\stlib\STM32F10x_StdPeriph_Driver\src/stm32f10x_adc.c **** /* ADC JSWSTART mask */
 104:.\stlib\STM32F10x_StdPeriph_Driver\src/stm32f10x_adc.c **** #define CR2_JSWSTART_Set            ((uint32_t)0x00200000)
 105:.\stlib\STM32F10x_StdPeriph_Driver\src/stm32f10x_adc.c **** 
 106:.\stlib\STM32F10x_StdPeriph_Driver\src/stm32f10x_adc.c **** /* ADC injected software start mask */
 107:.\stlib\STM32F10x_StdPeriph_Driver\src/stm32f10x_adc.c **** #define CR2_JEXTTRIG_JSWSTART_Set   ((uint32_t)0x00208000)
 108:.\stlib\STM32F10x_StdPeriph_Driver\src/stm32f10x_adc.c **** #define CR2_JEXTTRIG_JSWSTART_Reset ((uint32_t)0xFFDF7FFF)
 109:.\stlib\STM32F10x_StdPeriph_Driver\src/stm32f10x_adc.c **** 
 110:.\stlib\STM32F10x_StdPeriph_Driver\src/stm32f10x_adc.c **** /* ADC TSPD mask */
 111:.\stlib\STM32F10x_StdPeriph_Driver\src/stm32f10x_adc.c **** #define CR2_TSVREFE_Set             ((uint32_t)0x00800000)
 112:.\stlib\STM32F10x_StdPeriph_Driver\src/stm32f10x_adc.c **** #define CR2_TSVREFE_Reset           ((uint32_t)0xFF7FFFFF)
 113:.\stlib\STM32F10x_StdPeriph_Driver\src/stm32f10x_adc.c **** 
 114:.\stlib\STM32F10x_StdPeriph_Driver\src/stm32f10x_adc.c **** /* CR2 register Mask */
 115:.\stlib\STM32F10x_StdPeriph_Driver\src/stm32f10x_adc.c **** #define CR2_CLEAR_Mask              ((uint32_t)0xFFF1F7FD)
 116:.\stlib\STM32F10x_StdPeriph_Driver\src/stm32f10x_adc.c **** 
 117:.\stlib\STM32F10x_StdPeriph_Driver\src/stm32f10x_adc.c **** /* ADC SQx mask */
 118:.\stlib\STM32F10x_StdPeriph_Driver\src/stm32f10x_adc.c **** #define SQR3_SQ_Set                 ((uint32_t)0x0000001F)
 119:.\stlib\STM32F10x_StdPeriph_Driver\src/stm32f10x_adc.c **** #define SQR2_SQ_Set                 ((uint32_t)0x0000001F)
 120:.\stlib\STM32F10x_StdPeriph_Driver\src/stm32f10x_adc.c **** #define SQR1_SQ_Set                 ((uint32_t)0x0000001F)
 121:.\stlib\STM32F10x_StdPeriph_Driver\src/stm32f10x_adc.c **** 
 122:.\stlib\STM32F10x_StdPeriph_Driver\src/stm32f10x_adc.c **** /* SQR1 register Mask */
 123:.\stlib\STM32F10x_StdPeriph_Driver\src/stm32f10x_adc.c **** #define SQR1_CLEAR_Mask             ((uint32_t)0xFF0FFFFF)
 124:.\stlib\STM32F10x_StdPeriph_Driver\src/stm32f10x_adc.c **** 
 125:.\stlib\STM32F10x_StdPeriph_Driver\src/stm32f10x_adc.c **** /* ADC JSQx mask */
 126:.\stlib\STM32F10x_StdPeriph_Driver\src/stm32f10x_adc.c **** #define JSQR_JSQ_Set                ((uint32_t)0x0000001F)
 127:.\stlib\STM32F10x_StdPeriph_Driver\src/stm32f10x_adc.c **** 
 128:.\stlib\STM32F10x_StdPeriph_Driver\src/stm32f10x_adc.c **** /* ADC JL mask */
 129:.\stlib\STM32F10x_StdPeriph_Driver\src/stm32f10x_adc.c **** #define JSQR_JL_Set                 ((uint32_t)0x00300000)
 130:.\stlib\STM32F10x_StdPeriph_Driver\src/stm32f10x_adc.c **** #define JSQR_JL_Reset               ((uint32_t)0xFFCFFFFF)
 131:.\stlib\STM32F10x_StdPeriph_Driver\src/stm32f10x_adc.c **** 
 132:.\stlib\STM32F10x_StdPeriph_Driver\src/stm32f10x_adc.c **** /* ADC SMPx mask */
 133:.\stlib\STM32F10x_StdPeriph_Driver\src/stm32f10x_adc.c **** #define SMPR1_SMP_Set               ((uint32_t)0x00000007)
 134:.\stlib\STM32F10x_StdPeriph_Driver\src/stm32f10x_adc.c **** #define SMPR2_SMP_Set               ((uint32_t)0x00000007)
 135:.\stlib\STM32F10x_StdPeriph_Driver\src/stm32f10x_adc.c **** 
 136:.\stlib\STM32F10x_StdPeriph_Driver\src/stm32f10x_adc.c **** /* ADC JDRx registers offset */
 137:.\stlib\STM32F10x_StdPeriph_Driver\src/stm32f10x_adc.c **** #define JDR_Offset                  ((uint8_t)0x28)
 138:.\stlib\STM32F10x_StdPeriph_Driver\src/stm32f10x_adc.c **** 
 139:.\stlib\STM32F10x_StdPeriph_Driver\src/stm32f10x_adc.c **** /* ADC1 DR register base address */
 140:.\stlib\STM32F10x_StdPeriph_Driver\src/stm32f10x_adc.c **** #define DR_ADDRESS                  ((uint32_t)0x4001244C)
 141:.\stlib\STM32F10x_StdPeriph_Driver\src/stm32f10x_adc.c **** 
ARM GAS  C:\Users\skey\AppData\Local\Temp\ccIkOQKS.s 			page 5


 142:.\stlib\STM32F10x_StdPeriph_Driver\src/stm32f10x_adc.c **** /**
 143:.\stlib\STM32F10x_StdPeriph_Driver\src/stm32f10x_adc.c ****   * @}
 144:.\stlib\STM32F10x_StdPeriph_Driver\src/stm32f10x_adc.c ****   */
 145:.\stlib\STM32F10x_StdPeriph_Driver\src/stm32f10x_adc.c **** 
 146:.\stlib\STM32F10x_StdPeriph_Driver\src/stm32f10x_adc.c **** /** @defgroup ADC_Private_Macros
 147:.\stlib\STM32F10x_StdPeriph_Driver\src/stm32f10x_adc.c ****   * @{
 148:.\stlib\STM32F10x_StdPeriph_Driver\src/stm32f10x_adc.c ****   */
 149:.\stlib\STM32F10x_StdPeriph_Driver\src/stm32f10x_adc.c **** 
 150:.\stlib\STM32F10x_StdPeriph_Driver\src/stm32f10x_adc.c **** /**
 151:.\stlib\STM32F10x_StdPeriph_Driver\src/stm32f10x_adc.c ****   * @}
 152:.\stlib\STM32F10x_StdPeriph_Driver\src/stm32f10x_adc.c ****   */
 153:.\stlib\STM32F10x_StdPeriph_Driver\src/stm32f10x_adc.c **** 
 154:.\stlib\STM32F10x_StdPeriph_Driver\src/stm32f10x_adc.c **** /** @defgroup ADC_Private_Variables
 155:.\stlib\STM32F10x_StdPeriph_Driver\src/stm32f10x_adc.c ****   * @{
 156:.\stlib\STM32F10x_StdPeriph_Driver\src/stm32f10x_adc.c ****   */
 157:.\stlib\STM32F10x_StdPeriph_Driver\src/stm32f10x_adc.c **** 
 158:.\stlib\STM32F10x_StdPeriph_Driver\src/stm32f10x_adc.c **** /**
 159:.\stlib\STM32F10x_StdPeriph_Driver\src/stm32f10x_adc.c ****   * @}
 160:.\stlib\STM32F10x_StdPeriph_Driver\src/stm32f10x_adc.c ****   */
 161:.\stlib\STM32F10x_StdPeriph_Driver\src/stm32f10x_adc.c **** 
 162:.\stlib\STM32F10x_StdPeriph_Driver\src/stm32f10x_adc.c **** /** @defgroup ADC_Private_FunctionPrototypes
 163:.\stlib\STM32F10x_StdPeriph_Driver\src/stm32f10x_adc.c ****   * @{
 164:.\stlib\STM32F10x_StdPeriph_Driver\src/stm32f10x_adc.c ****   */
 165:.\stlib\STM32F10x_StdPeriph_Driver\src/stm32f10x_adc.c **** 
 166:.\stlib\STM32F10x_StdPeriph_Driver\src/stm32f10x_adc.c **** /**
 167:.\stlib\STM32F10x_StdPeriph_Driver\src/stm32f10x_adc.c ****   * @}
 168:.\stlib\STM32F10x_StdPeriph_Driver\src/stm32f10x_adc.c ****   */
 169:.\stlib\STM32F10x_StdPeriph_Driver\src/stm32f10x_adc.c **** 
 170:.\stlib\STM32F10x_StdPeriph_Driver\src/stm32f10x_adc.c **** /** @defgroup ADC_Private_Functions
 171:.\stlib\STM32F10x_StdPeriph_Driver\src/stm32f10x_adc.c ****   * @{
 172:.\stlib\STM32F10x_StdPeriph_Driver\src/stm32f10x_adc.c ****   */
 173:.\stlib\STM32F10x_StdPeriph_Driver\src/stm32f10x_adc.c **** 
 174:.\stlib\STM32F10x_StdPeriph_Driver\src/stm32f10x_adc.c **** /**
 175:.\stlib\STM32F10x_StdPeriph_Driver\src/stm32f10x_adc.c ****   * @brief  Deinitializes the ADCx peripheral registers to their default reset values.
 176:.\stlib\STM32F10x_StdPeriph_Driver\src/stm32f10x_adc.c ****   * @param  ADCx: where x can be 1, 2 or 3 to select the ADC peripheral.
 177:.\stlib\STM32F10x_StdPeriph_Driver\src/stm32f10x_adc.c ****   * @retval None
 178:.\stlib\STM32F10x_StdPeriph_Driver\src/stm32f10x_adc.c ****   */
 179:.\stlib\STM32F10x_StdPeriph_Driver\src/stm32f10x_adc.c **** void ADC_DeInit(ADC_TypeDef* ADCx)
 180:.\stlib\STM32F10x_StdPeriph_Driver\src/stm32f10x_adc.c **** {
  88              		.loc 1 180 1 view -0
  89              		.cfi_startproc
  90              		@ args = 0, pretend = 0, frame = 0
  91              		@ frame_needed = 0, uses_anonymous_args = 0
 181:.\stlib\STM32F10x_StdPeriph_Driver\src/stm32f10x_adc.c ****   /* Check the parameters */
 182:.\stlib\STM32F10x_StdPeriph_Driver\src/stm32f10x_adc.c ****   assert_param(IS_ADC_ALL_PERIPH(ADCx));
  92              		.loc 1 182 3 view .LVU1
 183:.\stlib\STM32F10x_StdPeriph_Driver\src/stm32f10x_adc.c ****   
 184:.\stlib\STM32F10x_StdPeriph_Driver\src/stm32f10x_adc.c ****   if (ADCx == ADC1)
  93              		.loc 1 184 3 view .LVU2
  94              	@ .\stlib\STM32F10x_StdPeriph_Driver\src\stm32f10x_adc.c:180: {
 180:.\stlib\STM32F10x_StdPeriph_Driver\src/stm32f10x_adc.c ****   /* Check the parameters */
  95              		.loc 1 180 1 is_stmt 0 view .LVU3
  96 0000 08B5     		push	{r3, lr}	@
  97              	.LCFI0:
  98              		.cfi_def_cfa_offset 8
  99              		.cfi_offset 3, -8
 100              		.cfi_offset 14, -4
ARM GAS  C:\Users\skey\AppData\Local\Temp\ccIkOQKS.s 			page 6


 101              	@ .\stlib\STM32F10x_StdPeriph_Driver\src\stm32f10x_adc.c:184:   if (ADCx == ADC1)
 102              		.loc 1 184 6 view .LVU4
 103 0002 144B     		ldr	r3, .L6	@ tmp111,
 104 0004 9842     		cmp	r0, r3	@ ADCx, tmp111
 105 0006 0BD1     		bne	.L2		@,
 185:.\stlib\STM32F10x_StdPeriph_Driver\src/stm32f10x_adc.c ****   {
 186:.\stlib\STM32F10x_StdPeriph_Driver\src/stm32f10x_adc.c ****     /* Enable ADC1 reset state */
 187:.\stlib\STM32F10x_StdPeriph_Driver\src/stm32f10x_adc.c ****     RCC_APB2PeriphResetCmd(RCC_APB2Periph_ADC1, ENABLE);
 106              		.loc 1 187 5 is_stmt 1 view .LVU5
 107 0008 0121     		movs	r1, #1	@,
 108 000a 4FF40070 		mov	r0, #512	@,
 109              	.LVL1:
 110              		.loc 1 187 5 is_stmt 0 view .LVU6
 111 000e FFF7FEFF 		bl	RCC_APB2PeriphResetCmd		@
 112              	.LVL2:
 188:.\stlib\STM32F10x_StdPeriph_Driver\src/stm32f10x_adc.c ****     /* Release ADC1 from reset state */
 189:.\stlib\STM32F10x_StdPeriph_Driver\src/stm32f10x_adc.c ****     RCC_APB2PeriphResetCmd(RCC_APB2Periph_ADC1, DISABLE);
 113              		.loc 1 189 5 is_stmt 1 view .LVU7
 114 0012 0021     		movs	r1, #0	@,
 115 0014 4FF40070 		mov	r0, #512	@,
 116              	.L5:
 117              	@ .\stlib\STM32F10x_StdPeriph_Driver\src\stm32f10x_adc.c:208: }
 190:.\stlib\STM32F10x_StdPeriph_Driver\src/stm32f10x_adc.c ****   }
 191:.\stlib\STM32F10x_StdPeriph_Driver\src/stm32f10x_adc.c ****   else if (ADCx == ADC2)
 192:.\stlib\STM32F10x_StdPeriph_Driver\src/stm32f10x_adc.c ****   {
 193:.\stlib\STM32F10x_StdPeriph_Driver\src/stm32f10x_adc.c ****     /* Enable ADC2 reset state */
 194:.\stlib\STM32F10x_StdPeriph_Driver\src/stm32f10x_adc.c ****     RCC_APB2PeriphResetCmd(RCC_APB2Periph_ADC2, ENABLE);
 195:.\stlib\STM32F10x_StdPeriph_Driver\src/stm32f10x_adc.c ****     /* Release ADC2 from reset state */
 196:.\stlib\STM32F10x_StdPeriph_Driver\src/stm32f10x_adc.c ****     RCC_APB2PeriphResetCmd(RCC_APB2Periph_ADC2, DISABLE);
 197:.\stlib\STM32F10x_StdPeriph_Driver\src/stm32f10x_adc.c ****   }
 198:.\stlib\STM32F10x_StdPeriph_Driver\src/stm32f10x_adc.c ****   else
 199:.\stlib\STM32F10x_StdPeriph_Driver\src/stm32f10x_adc.c ****   {
 200:.\stlib\STM32F10x_StdPeriph_Driver\src/stm32f10x_adc.c ****     if (ADCx == ADC3)
 201:.\stlib\STM32F10x_StdPeriph_Driver\src/stm32f10x_adc.c ****     {
 202:.\stlib\STM32F10x_StdPeriph_Driver\src/stm32f10x_adc.c ****       /* Enable ADC3 reset state */
 203:.\stlib\STM32F10x_StdPeriph_Driver\src/stm32f10x_adc.c ****       RCC_APB2PeriphResetCmd(RCC_APB2Periph_ADC3, ENABLE);
 204:.\stlib\STM32F10x_StdPeriph_Driver\src/stm32f10x_adc.c ****       /* Release ADC3 from reset state */
 205:.\stlib\STM32F10x_StdPeriph_Driver\src/stm32f10x_adc.c ****       RCC_APB2PeriphResetCmd(RCC_APB2Periph_ADC3, DISABLE);
 206:.\stlib\STM32F10x_StdPeriph_Driver\src/stm32f10x_adc.c ****     }
 207:.\stlib\STM32F10x_StdPeriph_Driver\src/stm32f10x_adc.c ****   }
 208:.\stlib\STM32F10x_StdPeriph_Driver\src/stm32f10x_adc.c **** }
 118              		.loc 1 208 1 is_stmt 0 view .LVU8
 119 0018 BDE80840 		pop	{r3, lr}	@
 120              	.LCFI1:
 121              		.cfi_remember_state
 122              		.cfi_restore 14
 123              		.cfi_restore 3
 124              		.cfi_def_cfa_offset 0
 125              	@ .\stlib\STM32F10x_StdPeriph_Driver\src\stm32f10x_adc.c:205:       RCC_APB2PeriphResetCmd(RCC_APB2
 205:.\stlib\STM32F10x_StdPeriph_Driver\src/stm32f10x_adc.c ****     }
 126              		.loc 1 205 7 view .LVU9
 127 001c FFF7FEBF 		b	RCC_APB2PeriphResetCmd		@
 128              	.LVL3:
 129              	.L2:
 130              	.LCFI2:
 131              		.cfi_restore_state
 191:.\stlib\STM32F10x_StdPeriph_Driver\src/stm32f10x_adc.c ****   {
ARM GAS  C:\Users\skey\AppData\Local\Temp\ccIkOQKS.s 			page 7


 132              		.loc 1 191 8 is_stmt 1 view .LVU10
 133              	@ .\stlib\STM32F10x_StdPeriph_Driver\src\stm32f10x_adc.c:191:   else if (ADCx == ADC2)
 191:.\stlib\STM32F10x_StdPeriph_Driver\src/stm32f10x_adc.c ****   {
 134              		.loc 1 191 11 is_stmt 0 view .LVU11
 135 0020 0D4B     		ldr	r3, .L6+4	@ tmp112,
 136 0022 9842     		cmp	r0, r3	@ ADCx, tmp112
 137 0024 08D1     		bne	.L3		@,
 194:.\stlib\STM32F10x_StdPeriph_Driver\src/stm32f10x_adc.c ****     /* Release ADC2 from reset state */
 138              		.loc 1 194 5 is_stmt 1 view .LVU12
 139 0026 0121     		movs	r1, #1	@,
 140 0028 4FF48060 		mov	r0, #1024	@,
 141              	.LVL4:
 194:.\stlib\STM32F10x_StdPeriph_Driver\src/stm32f10x_adc.c ****     /* Release ADC2 from reset state */
 142              		.loc 1 194 5 is_stmt 0 view .LVU13
 143 002c FFF7FEFF 		bl	RCC_APB2PeriphResetCmd		@
 144              	.LVL5:
 196:.\stlib\STM32F10x_StdPeriph_Driver\src/stm32f10x_adc.c ****   }
 145              		.loc 1 196 5 is_stmt 1 view .LVU14
 146 0030 0021     		movs	r1, #0	@,
 147 0032 4FF48060 		mov	r0, #1024	@,
 148 0036 EFE7     		b	.L5		@
 149              	.LVL6:
 150              	.L3:
 200:.\stlib\STM32F10x_StdPeriph_Driver\src/stm32f10x_adc.c ****     {
 151              		.loc 1 200 5 view .LVU15
 152              	@ .\stlib\STM32F10x_StdPeriph_Driver\src\stm32f10x_adc.c:200:     if (ADCx == ADC3)
 200:.\stlib\STM32F10x_StdPeriph_Driver\src/stm32f10x_adc.c ****     {
 153              		.loc 1 200 8 is_stmt 0 view .LVU16
 154 0038 084B     		ldr	r3, .L6+8	@ tmp113,
 155 003a 9842     		cmp	r0, r3	@ ADCx, tmp113
 156 003c 08D1     		bne	.L1		@,
 203:.\stlib\STM32F10x_StdPeriph_Driver\src/stm32f10x_adc.c ****       /* Release ADC3 from reset state */
 157              		.loc 1 203 7 is_stmt 1 view .LVU17
 158 003e 0121     		movs	r1, #1	@,
 159 0040 4FF40040 		mov	r0, #32768	@,
 160              	.LVL7:
 203:.\stlib\STM32F10x_StdPeriph_Driver\src/stm32f10x_adc.c ****       /* Release ADC3 from reset state */
 161              		.loc 1 203 7 is_stmt 0 view .LVU18
 162 0044 FFF7FEFF 		bl	RCC_APB2PeriphResetCmd		@
 163              	.LVL8:
 205:.\stlib\STM32F10x_StdPeriph_Driver\src/stm32f10x_adc.c ****     }
 164              		.loc 1 205 7 is_stmt 1 view .LVU19
 165 0048 0021     		movs	r1, #0	@,
 166 004a 4FF40040 		mov	r0, #32768	@,
 167 004e E3E7     		b	.L5		@
 168              	.LVL9:
 169              	.L1:
 170              	@ .\stlib\STM32F10x_StdPeriph_Driver\src\stm32f10x_adc.c:208: }
 171              		.loc 1 208 1 is_stmt 0 view .LVU20
 172 0050 08BD     		pop	{r3, pc}	@
 173              	.L7:
 174 0052 00BF     		.align	2
 175              	.L6:
 176 0054 00240140 		.word	1073816576
 177 0058 00280140 		.word	1073817600
 178 005c 003C0140 		.word	1073822720
 179              		.cfi_endproc
ARM GAS  C:\Users\skey\AppData\Local\Temp\ccIkOQKS.s 			page 8


 180              	.LFE29:
 181              		.size	ADC_DeInit, .-ADC_DeInit
 182              		.align	1
 183              		.global	ADC_Init
 184              		.syntax unified
 185              		.thumb
 186              		.thumb_func
 187              		.fpu softvfp
 188              		.type	ADC_Init, %function
 189              	ADC_Init:
 190              	.LVL10:
 191              	.LFB30:
 209:.\stlib\STM32F10x_StdPeriph_Driver\src/stm32f10x_adc.c **** 
 210:.\stlib\STM32F10x_StdPeriph_Driver\src/stm32f10x_adc.c **** /**
 211:.\stlib\STM32F10x_StdPeriph_Driver\src/stm32f10x_adc.c ****   * @brief  Initializes the ADCx peripheral according to the specified parameters
 212:.\stlib\STM32F10x_StdPeriph_Driver\src/stm32f10x_adc.c ****   *         in the ADC_InitStruct.
 213:.\stlib\STM32F10x_StdPeriph_Driver\src/stm32f10x_adc.c ****   * @param  ADCx: where x can be 1, 2 or 3 to select the ADC peripheral.
 214:.\stlib\STM32F10x_StdPeriph_Driver\src/stm32f10x_adc.c ****   * @param  ADC_InitStruct: pointer to an ADC_InitTypeDef structure that contains
 215:.\stlib\STM32F10x_StdPeriph_Driver\src/stm32f10x_adc.c ****   *         the configuration information for the specified ADC peripheral.
 216:.\stlib\STM32F10x_StdPeriph_Driver\src/stm32f10x_adc.c ****   * @retval None
 217:.\stlib\STM32F10x_StdPeriph_Driver\src/stm32f10x_adc.c ****   */
 218:.\stlib\STM32F10x_StdPeriph_Driver\src/stm32f10x_adc.c **** void ADC_Init(ADC_TypeDef* ADCx, ADC_InitTypeDef* ADC_InitStruct)
 219:.\stlib\STM32F10x_StdPeriph_Driver\src/stm32f10x_adc.c **** {
 192              		.loc 1 219 1 is_stmt 1 view -0
 193              		.cfi_startproc
 194              		@ args = 0, pretend = 0, frame = 0
 195              		@ frame_needed = 0, uses_anonymous_args = 0
 220:.\stlib\STM32F10x_StdPeriph_Driver\src/stm32f10x_adc.c ****   uint32_t tmpreg1 = 0;
 196              		.loc 1 220 3 view .LVU22
 221:.\stlib\STM32F10x_StdPeriph_Driver\src/stm32f10x_adc.c ****   uint8_t tmpreg2 = 0;
 197              		.loc 1 221 3 view .LVU23
 222:.\stlib\STM32F10x_StdPeriph_Driver\src/stm32f10x_adc.c ****   /* Check the parameters */
 223:.\stlib\STM32F10x_StdPeriph_Driver\src/stm32f10x_adc.c ****   assert_param(IS_ADC_ALL_PERIPH(ADCx));
 198              		.loc 1 223 3 view .LVU24
 224:.\stlib\STM32F10x_StdPeriph_Driver\src/stm32f10x_adc.c ****   assert_param(IS_ADC_MODE(ADC_InitStruct->ADC_Mode));
 199              		.loc 1 224 3 view .LVU25
 225:.\stlib\STM32F10x_StdPeriph_Driver\src/stm32f10x_adc.c ****   assert_param(IS_FUNCTIONAL_STATE(ADC_InitStruct->ADC_ScanConvMode));
 200              		.loc 1 225 3 view .LVU26
 226:.\stlib\STM32F10x_StdPeriph_Driver\src/stm32f10x_adc.c ****   assert_param(IS_FUNCTIONAL_STATE(ADC_InitStruct->ADC_ContinuousConvMode));
 201              		.loc 1 226 3 view .LVU27
 227:.\stlib\STM32F10x_StdPeriph_Driver\src/stm32f10x_adc.c ****   assert_param(IS_ADC_EXT_TRIG(ADC_InitStruct->ADC_ExternalTrigConv));   
 202              		.loc 1 227 3 view .LVU28
 228:.\stlib\STM32F10x_StdPeriph_Driver\src/stm32f10x_adc.c ****   assert_param(IS_ADC_DATA_ALIGN(ADC_InitStruct->ADC_DataAlign)); 
 203              		.loc 1 228 3 view .LVU29
 229:.\stlib\STM32F10x_StdPeriph_Driver\src/stm32f10x_adc.c ****   assert_param(IS_ADC_REGULAR_LENGTH(ADC_InitStruct->ADC_NbrOfChannel));
 204              		.loc 1 229 3 view .LVU30
 230:.\stlib\STM32F10x_StdPeriph_Driver\src/stm32f10x_adc.c **** 
 231:.\stlib\STM32F10x_StdPeriph_Driver\src/stm32f10x_adc.c ****   /*---------------------------- ADCx CR1 Configuration -----------------*/
 232:.\stlib\STM32F10x_StdPeriph_Driver\src/stm32f10x_adc.c ****   /* Get the ADCx CR1 value */
 233:.\stlib\STM32F10x_StdPeriph_Driver\src/stm32f10x_adc.c ****   tmpreg1 = ADCx->CR1;
 205              		.loc 1 233 3 view .LVU31
 206              	@ .\stlib\STM32F10x_StdPeriph_Driver\src\stm32f10x_adc.c:233:   tmpreg1 = ADCx->CR1;
 207              		.loc 1 233 11 is_stmt 0 view .LVU32
 208 0060 4368     		ldr	r3, [r0, #4]	@ tmpreg1, ADCx_18(D)->CR1
 209              	.LVL11:
 234:.\stlib\STM32F10x_StdPeriph_Driver\src/stm32f10x_adc.c ****   /* Clear DUALMOD and SCAN bits */
 235:.\stlib\STM32F10x_StdPeriph_Driver\src/stm32f10x_adc.c ****   tmpreg1 &= CR1_CLEAR_Mask;
ARM GAS  C:\Users\skey\AppData\Local\Temp\ccIkOQKS.s 			page 9


 210              		.loc 1 235 3 is_stmt 1 view .LVU33
 236:.\stlib\STM32F10x_StdPeriph_Driver\src/stm32f10x_adc.c ****   /* Configure ADCx: Dual mode and scan conversion mode */
 237:.\stlib\STM32F10x_StdPeriph_Driver\src/stm32f10x_adc.c ****   /* Set DUALMOD bits according to ADC_Mode value */
 238:.\stlib\STM32F10x_StdPeriph_Driver\src/stm32f10x_adc.c ****   /* Set SCAN bit according to ADC_ScanConvMode value */
 239:.\stlib\STM32F10x_StdPeriph_Driver\src/stm32f10x_adc.c ****   tmpreg1 |= (uint32_t)(ADC_InitStruct->ADC_Mode | ((uint32_t)ADC_InitStruct->ADC_ScanConvMode << 8
 211              		.loc 1 239 3 view .LVU34
 212              	@ .\stlib\STM32F10x_StdPeriph_Driver\src\stm32f10x_adc.c:239:   tmpreg1 |= (uint32_t)(ADC_InitStruc
 213              		.loc 1 239 53 is_stmt 0 view .LVU35
 214 0062 0A79     		ldrb	r2, [r1, #4]	@ zero_extendqisi2	@ ADC_InitStruct_21(D)->ADC_ScanConvMode, ADC_InitStruct_21(D
 215              	@ .\stlib\STM32F10x_StdPeriph_Driver\src\stm32f10x_adc.c:235:   tmpreg1 &= CR1_CLEAR_Mask;
 235:.\stlib\STM32F10x_StdPeriph_Driver\src/stm32f10x_adc.c ****   /* Configure ADCx: Dual mode and scan conversion mode */
 216              		.loc 1 235 11 view .LVU36
 217 0064 23F47023 		bic	r3, r3, #983040	@ tmpreg1, tmpreg1,
 218              	.LVL12:
 235:.\stlib\STM32F10x_StdPeriph_Driver\src/stm32f10x_adc.c ****   /* Configure ADCx: Dual mode and scan conversion mode */
 219              		.loc 1 235 11 view .LVU37
 220 0068 23F48073 		bic	r3, r3, #256	@ tmpreg1, tmpreg1,
 221 006c 43EA0223 		orr	r3, r3, r2, lsl #8	@ _34, tmpreg1, ADC_InitStruct_21(D)->ADC_ScanConvMode,
 222              	@ .\stlib\STM32F10x_StdPeriph_Driver\src\stm32f10x_adc.c:239:   tmpreg1 |= (uint32_t)(ADC_InitStruc
 223              		.loc 1 239 11 view .LVU38
 224 0070 0A68     		ldr	r2, [r1]	@ ADC_InitStruct_21(D)->ADC_Mode, ADC_InitStruct_21(D)->ADC_Mode
 225              	@ .\stlib\STM32F10x_StdPeriph_Driver\src\stm32f10x_adc.c:219: {
 219:.\stlib\STM32F10x_StdPeriph_Driver\src/stm32f10x_adc.c ****   uint32_t tmpreg1 = 0;
 226              		.loc 1 219 1 view .LVU39
 227 0072 10B5     		push	{r4, lr}	@
 228              	.LCFI3:
 229              		.cfi_def_cfa_offset 8
 230              		.cfi_offset 4, -8
 231              		.cfi_offset 14, -4
 232              	@ .\stlib\STM32F10x_StdPeriph_Driver\src\stm32f10x_adc.c:239:   tmpreg1 |= (uint32_t)(ADC_InitStruc
 233              		.loc 1 239 11 view .LVU40
 234 0074 1343     		orrs	r3, r3, r2	@, tmpreg1, _34, ADC_InitStruct_21(D)->ADC_Mode
 235              	.LVL13:
 240:.\stlib\STM32F10x_StdPeriph_Driver\src/stm32f10x_adc.c ****   /* Write to ADCx CR1 */
 241:.\stlib\STM32F10x_StdPeriph_Driver\src/stm32f10x_adc.c ****   ADCx->CR1 = tmpreg1;
 236              		.loc 1 241 3 is_stmt 1 view .LVU41
 237              	@ .\stlib\STM32F10x_StdPeriph_Driver\src\stm32f10x_adc.c:241:   ADCx->CR1 = tmpreg1;
 238              		.loc 1 241 13 is_stmt 0 view .LVU42
 239 0076 4360     		str	r3, [r0, #4]	@ tmpreg1, ADCx_18(D)->CR1
 242:.\stlib\STM32F10x_StdPeriph_Driver\src/stm32f10x_adc.c **** 
 243:.\stlib\STM32F10x_StdPeriph_Driver\src/stm32f10x_adc.c ****   /*---------------------------- ADCx CR2 Configuration -----------------*/
 244:.\stlib\STM32F10x_StdPeriph_Driver\src/stm32f10x_adc.c ****   /* Get the ADCx CR2 value */
 245:.\stlib\STM32F10x_StdPeriph_Driver\src/stm32f10x_adc.c ****   tmpreg1 = ADCx->CR2;
 240              		.loc 1 245 3 is_stmt 1 view .LVU43
 241              	@ .\stlib\STM32F10x_StdPeriph_Driver\src\stm32f10x_adc.c:245:   tmpreg1 = ADCx->CR2;
 242              		.loc 1 245 11 is_stmt 0 view .LVU44
 243 0078 8468     		ldr	r4, [r0, #8]	@ tmpreg1, ADCx_18(D)->CR2
 244              	.LVL14:
 246:.\stlib\STM32F10x_StdPeriph_Driver\src/stm32f10x_adc.c ****   /* Clear CONT, ALIGN and EXTSEL bits */
 247:.\stlib\STM32F10x_StdPeriph_Driver\src/stm32f10x_adc.c ****   tmpreg1 &= CR2_CLEAR_Mask;
 245              		.loc 1 247 3 is_stmt 1 view .LVU45
 248:.\stlib\STM32F10x_StdPeriph_Driver\src/stm32f10x_adc.c ****   /* Configure ADCx: external trigger event and continuous conversion mode */
 249:.\stlib\STM32F10x_StdPeriph_Driver\src/stm32f10x_adc.c ****   /* Set ALIGN bit according to ADC_DataAlign value */
 250:.\stlib\STM32F10x_StdPeriph_Driver\src/stm32f10x_adc.c ****   /* Set EXTSEL bits according to ADC_ExternalTrigConv value */
 251:.\stlib\STM32F10x_StdPeriph_Driver\src/stm32f10x_adc.c ****   /* Set CONT bit according to ADC_ContinuousConvMode value */
 252:.\stlib\STM32F10x_StdPeriph_Driver\src/stm32f10x_adc.c ****   tmpreg1 |= (uint32_t)(ADC_InitStruct->ADC_DataAlign | ADC_InitStruct->ADC_ExternalTrigConv |
 246              		.loc 1 252 3 view .LVU46
ARM GAS  C:\Users\skey\AppData\Local\Temp\ccIkOQKS.s 			page 10


 247 007a D1E90223 		ldrd	r2, r3, [r1, #8]	@ ADC_InitStruct_21(D)->ADC_ExternalTrigConv, ADC_InitStruct_21(D)->ADC_Data
 248 007e 1343     		orrs	r3, r3, r2	@, tmp142, ADC_InitStruct_21(D)->ADC_DataAlign, ADC_InitStruct_21(D)->ADC_External
 249              	@ .\stlib\STM32F10x_StdPeriph_Driver\src\stm32f10x_adc.c:247:   tmpreg1 &= CR2_CLEAR_Mask;
 247:.\stlib\STM32F10x_StdPeriph_Driver\src/stm32f10x_adc.c ****   /* Configure ADCx: external trigger event and continuous conversion mode */
 250              		.loc 1 247 11 is_stmt 0 view .LVU47
 251 0080 084A     		ldr	r2, .L9	@ tmpreg1,
 252 0082 2240     		ands	r2, r2, r4	@, tmpreg1, tmpreg1, tmpreg1
 253              	.LVL15:
 247:.\stlib\STM32F10x_StdPeriph_Driver\src/stm32f10x_adc.c ****   /* Configure ADCx: external trigger event and continuous conversion mode */
 254              		.loc 1 247 11 view .LVU48
 255 0084 1343     		orrs	r3, r3, r2	@, _32, tmp142, tmpreg1
 256              	@ .\stlib\STM32F10x_StdPeriph_Driver\src\stm32f10x_adc.c:253:             ((uint32_t)ADC_InitStruct
 253:.\stlib\STM32F10x_StdPeriph_Driver\src/stm32f10x_adc.c ****             ((uint32_t)ADC_InitStruct->ADC_ContinuousConvMode << 1));
 257              		.loc 1 253 14 view .LVU49
 258 0086 4A79     		ldrb	r2, [r1, #5]	@ zero_extendqisi2	@ ADC_InitStruct_21(D)->ADC_ContinuousConvMode, ADC_InitStruc
 259              	.LVL16:
 260              	@ .\stlib\STM32F10x_StdPeriph_Driver\src\stm32f10x_adc.c:252:   tmpreg1 |= (uint32_t)(ADC_InitStruc
 252:.\stlib\STM32F10x_StdPeriph_Driver\src/stm32f10x_adc.c ****             ((uint32_t)ADC_InitStruct->ADC_ContinuousConvMode << 1));
 261              		.loc 1 252 11 view .LVU50
 262 0088 43EA4203 		orr	r3, r3, r2, lsl #1	@ tmpreg1, _32, ADC_InitStruct_21(D)->ADC_ContinuousConvMode,
 263              	.LVL17:
 254:.\stlib\STM32F10x_StdPeriph_Driver\src/stm32f10x_adc.c ****   /* Write to ADCx CR2 */
 255:.\stlib\STM32F10x_StdPeriph_Driver\src/stm32f10x_adc.c ****   ADCx->CR2 = tmpreg1;
 264              		.loc 1 255 3 is_stmt 1 view .LVU51
 265              	@ .\stlib\STM32F10x_StdPeriph_Driver\src\stm32f10x_adc.c:255:   ADCx->CR2 = tmpreg1;
 266              		.loc 1 255 13 is_stmt 0 view .LVU52
 267 008c 8360     		str	r3, [r0, #8]	@ tmpreg1, ADCx_18(D)->CR2
 256:.\stlib\STM32F10x_StdPeriph_Driver\src/stm32f10x_adc.c **** 
 257:.\stlib\STM32F10x_StdPeriph_Driver\src/stm32f10x_adc.c ****   /*---------------------------- ADCx SQR1 Configuration -----------------*/
 258:.\stlib\STM32F10x_StdPeriph_Driver\src/stm32f10x_adc.c ****   /* Get the ADCx SQR1 value */
 259:.\stlib\STM32F10x_StdPeriph_Driver\src/stm32f10x_adc.c ****   tmpreg1 = ADCx->SQR1;
 268              		.loc 1 259 3 is_stmt 1 view .LVU53
 269              	@ .\stlib\STM32F10x_StdPeriph_Driver\src\stm32f10x_adc.c:264:   tmpreg2 |= (uint8_t) (ADC_InitStruc
 260:.\stlib\STM32F10x_StdPeriph_Driver\src/stm32f10x_adc.c ****   /* Clear L bits */
 261:.\stlib\STM32F10x_StdPeriph_Driver\src/stm32f10x_adc.c ****   tmpreg1 &= SQR1_CLEAR_Mask;
 262:.\stlib\STM32F10x_StdPeriph_Driver\src/stm32f10x_adc.c ****   /* Configure ADCx: regular channel sequence length */
 263:.\stlib\STM32F10x_StdPeriph_Driver\src/stm32f10x_adc.c ****   /* Set L bits according to ADC_NbrOfChannel value */
 264:.\stlib\STM32F10x_StdPeriph_Driver\src/stm32f10x_adc.c ****   tmpreg2 |= (uint8_t) (ADC_InitStruct->ADC_NbrOfChannel - (uint8_t)1);
 270              		.loc 1 264 14 is_stmt 0 view .LVU54
 271 008e 0A7C     		ldrb	r2, [r1, #16]	@ zero_extendqisi2	@ ADC_InitStruct_21(D)->ADC_NbrOfChannel, ADC_InitStruct_21(
 272              	@ .\stlib\STM32F10x_StdPeriph_Driver\src\stm32f10x_adc.c:259:   tmpreg1 = ADCx->SQR1;
 259:.\stlib\STM32F10x_StdPeriph_Driver\src/stm32f10x_adc.c ****   /* Clear L bits */
 273              		.loc 1 259 11 view .LVU55
 274 0090 C36A     		ldr	r3, [r0, #44]	@ tmpreg1, ADCx_18(D)->SQR1
 275              	.LVL18:
 261:.\stlib\STM32F10x_StdPeriph_Driver\src/stm32f10x_adc.c ****   /* Configure ADCx: regular channel sequence length */
 276              		.loc 1 261 3 is_stmt 1 view .LVU56
 277              	@ .\stlib\STM32F10x_StdPeriph_Driver\src\stm32f10x_adc.c:264:   tmpreg2 |= (uint8_t) (ADC_InitStruc
 278              		.loc 1 264 14 is_stmt 0 view .LVU57
 279 0092 013A     		subs	r2, r2, #1	@ tmp151, ADC_InitStruct_21(D)->ADC_NbrOfChannel,
 280              	@ .\stlib\STM32F10x_StdPeriph_Driver\src\stm32f10x_adc.c:261:   tmpreg1 &= SQR1_CLEAR_Mask;
 261:.\stlib\STM32F10x_StdPeriph_Driver\src/stm32f10x_adc.c ****   /* Configure ADCx: regular channel sequence length */
 281              		.loc 1 261 11 view .LVU58
 282 0094 23F47003 		bic	r3, r3, #15728640	@ tmpreg1, tmpreg1,
 283              	.LVL19:
 284              		.loc 1 264 3 is_stmt 1 view .LVU59
 265:.\stlib\STM32F10x_StdPeriph_Driver\src/stm32f10x_adc.c ****   tmpreg1 |= (uint32_t)tmpreg2 << 20;
ARM GAS  C:\Users\skey\AppData\Local\Temp\ccIkOQKS.s 			page 11


 285              		.loc 1 265 3 view .LVU60
 286              	@ .\stlib\STM32F10x_StdPeriph_Driver\src\stm32f10x_adc.c:265:   tmpreg1 |= (uint32_t)tmpreg2 << 20;
 287              		.loc 1 265 14 is_stmt 0 view .LVU61
 288 0098 D2B2     		uxtb	r2, r2	@ tmp152, tmp151
 289              	@ .\stlib\STM32F10x_StdPeriph_Driver\src\stm32f10x_adc.c:265:   tmpreg1 |= (uint32_t)tmpreg2 << 20;
 290              		.loc 1 265 11 view .LVU62
 291 009a 43EA0253 		orr	r3, r3, r2, lsl #20	@ tmpreg1, tmpreg1, tmp152,
 292              	.LVL20:
 266:.\stlib\STM32F10x_StdPeriph_Driver\src/stm32f10x_adc.c ****   /* Write to ADCx SQR1 */
 267:.\stlib\STM32F10x_StdPeriph_Driver\src/stm32f10x_adc.c ****   ADCx->SQR1 = tmpreg1;
 293              		.loc 1 267 3 is_stmt 1 view .LVU63
 294              	@ .\stlib\STM32F10x_StdPeriph_Driver\src\stm32f10x_adc.c:267:   ADCx->SQR1 = tmpreg1;
 295              		.loc 1 267 14 is_stmt 0 view .LVU64
 296 009e C362     		str	r3, [r0, #44]	@ tmpreg1, ADCx_18(D)->SQR1
 297              	.LVL21:
 298              	@ .\stlib\STM32F10x_StdPeriph_Driver\src\stm32f10x_adc.c:268: }
 268:.\stlib\STM32F10x_StdPeriph_Driver\src/stm32f10x_adc.c **** }
 299              		.loc 1 268 1 view .LVU65
 300 00a0 10BD     		pop	{r4, pc}	@
 301              	.L10:
 302 00a2 00BF     		.align	2
 303              	.L9:
 304 00a4 FDF7F1FF 		.word	-919555
 305              		.cfi_endproc
 306              	.LFE30:
 307              		.size	ADC_Init, .-ADC_Init
 308              		.align	1
 309              		.global	ADC_StructInit
 310              		.syntax unified
 311              		.thumb
 312              		.thumb_func
 313              		.fpu softvfp
 314              		.type	ADC_StructInit, %function
 315              	ADC_StructInit:
 316              	.LVL22:
 317              	.LFB31:
 269:.\stlib\STM32F10x_StdPeriph_Driver\src/stm32f10x_adc.c **** 
 270:.\stlib\STM32F10x_StdPeriph_Driver\src/stm32f10x_adc.c **** /**
 271:.\stlib\STM32F10x_StdPeriph_Driver\src/stm32f10x_adc.c ****   * @brief  Fills each ADC_InitStruct member with its default value.
 272:.\stlib\STM32F10x_StdPeriph_Driver\src/stm32f10x_adc.c ****   * @param  ADC_InitStruct : pointer to an ADC_InitTypeDef structure which will be initialized.
 273:.\stlib\STM32F10x_StdPeriph_Driver\src/stm32f10x_adc.c ****   * @retval None
 274:.\stlib\STM32F10x_StdPeriph_Driver\src/stm32f10x_adc.c ****   */
 275:.\stlib\STM32F10x_StdPeriph_Driver\src/stm32f10x_adc.c **** void ADC_StructInit(ADC_InitTypeDef* ADC_InitStruct)
 276:.\stlib\STM32F10x_StdPeriph_Driver\src/stm32f10x_adc.c **** {
 318              		.loc 1 276 1 is_stmt 1 view -0
 319              		.cfi_startproc
 320              		@ args = 0, pretend = 0, frame = 0
 321              		@ frame_needed = 0, uses_anonymous_args = 0
 322              		@ link register save eliminated.
 277:.\stlib\STM32F10x_StdPeriph_Driver\src/stm32f10x_adc.c ****   /* Reset ADC init structure parameters values */
 278:.\stlib\STM32F10x_StdPeriph_Driver\src/stm32f10x_adc.c ****   /* Initialize the ADC_Mode member */
 279:.\stlib\STM32F10x_StdPeriph_Driver\src/stm32f10x_adc.c ****   ADC_InitStruct->ADC_Mode = ADC_Mode_Independent;
 323              		.loc 1 279 3 view .LVU67
 280:.\stlib\STM32F10x_StdPeriph_Driver\src/stm32f10x_adc.c ****   /* initialize the ADC_ScanConvMode member */
 281:.\stlib\STM32F10x_StdPeriph_Driver\src/stm32f10x_adc.c ****   ADC_InitStruct->ADC_ScanConvMode = DISABLE;
 324              		.loc 1 281 3 view .LVU68
 282:.\stlib\STM32F10x_StdPeriph_Driver\src/stm32f10x_adc.c ****   /* Initialize the ADC_ContinuousConvMode member */
ARM GAS  C:\Users\skey\AppData\Local\Temp\ccIkOQKS.s 			page 12


 283:.\stlib\STM32F10x_StdPeriph_Driver\src/stm32f10x_adc.c ****   ADC_InitStruct->ADC_ContinuousConvMode = DISABLE;
 325              		.loc 1 283 3 view .LVU69
 326              	@ .\stlib\STM32F10x_StdPeriph_Driver\src\stm32f10x_adc.c:279:   ADC_InitStruct->ADC_Mode = ADC_Mode
 279:.\stlib\STM32F10x_StdPeriph_Driver\src/stm32f10x_adc.c ****   /* initialize the ADC_ScanConvMode member */
 327              		.loc 1 279 28 is_stmt 0 view .LVU70
 328 00a8 0023     		movs	r3, #0	@ tmp111,
 329              	@ .\stlib\STM32F10x_StdPeriph_Driver\src\stm32f10x_adc.c:287:   ADC_InitStruct->ADC_DataAlign = ADC
 284:.\stlib\STM32F10x_StdPeriph_Driver\src/stm32f10x_adc.c ****   /* Initialize the ADC_ExternalTrigConv member */
 285:.\stlib\STM32F10x_StdPeriph_Driver\src/stm32f10x_adc.c ****   ADC_InitStruct->ADC_ExternalTrigConv = ADC_ExternalTrigConv_T1_CC1;
 286:.\stlib\STM32F10x_StdPeriph_Driver\src/stm32f10x_adc.c ****   /* Initialize the ADC_DataAlign member */
 287:.\stlib\STM32F10x_StdPeriph_Driver\src/stm32f10x_adc.c ****   ADC_InitStruct->ADC_DataAlign = ADC_DataAlign_Right;
 330              		.loc 1 287 33 view .LVU71
 331 00aa C0E90233 		strd	r3, r3, [r0, #8]	@ tmp111, tmp111, ADC_InitStruct,
 332              	@ .\stlib\STM32F10x_StdPeriph_Driver\src\stm32f10x_adc.c:279:   ADC_InitStruct->ADC_Mode = ADC_Mode
 279:.\stlib\STM32F10x_StdPeriph_Driver\src/stm32f10x_adc.c ****   /* initialize the ADC_ScanConvMode member */
 333              		.loc 1 279 28 view .LVU72
 334 00ae 0360     		str	r3, [r0]	@ tmp111, ADC_InitStruct_2(D)->ADC_Mode
 335              	@ .\stlib\STM32F10x_StdPeriph_Driver\src\stm32f10x_adc.c:281:   ADC_InitStruct->ADC_ScanConvMode = 
 281:.\stlib\STM32F10x_StdPeriph_Driver\src/stm32f10x_adc.c ****   /* Initialize the ADC_ContinuousConvMode member */
 336              		.loc 1 281 36 view .LVU73
 337 00b0 8380     		strh	r3, [r0, #4]	@ movhi	@ tmp111, MEM[(<unnamed type> *)ADC_InitStruct_2(D) + 4B]
 285:.\stlib\STM32F10x_StdPeriph_Driver\src/stm32f10x_adc.c ****   /* Initialize the ADC_DataAlign member */
 338              		.loc 1 285 3 is_stmt 1 view .LVU74
 288:.\stlib\STM32F10x_StdPeriph_Driver\src/stm32f10x_adc.c ****   /* Initialize the ADC_NbrOfChannel member */
 289:.\stlib\STM32F10x_StdPeriph_Driver\src/stm32f10x_adc.c ****   ADC_InitStruct->ADC_NbrOfChannel = 1;
 339              		.loc 1 289 3 view .LVU75
 340              	@ .\stlib\STM32F10x_StdPeriph_Driver\src\stm32f10x_adc.c:289:   ADC_InitStruct->ADC_NbrOfChannel = 
 341              		.loc 1 289 36 is_stmt 0 view .LVU76
 342 00b2 0123     		movs	r3, #1	@ tmp116,
 343 00b4 0374     		strb	r3, [r0, #16]	@ tmp116, ADC_InitStruct_2(D)->ADC_NbrOfChannel
 344              	@ .\stlib\STM32F10x_StdPeriph_Driver\src\stm32f10x_adc.c:290: }
 290:.\stlib\STM32F10x_StdPeriph_Driver\src/stm32f10x_adc.c **** }
 345              		.loc 1 290 1 view .LVU77
 346 00b6 7047     		bx	lr	@
 347              		.cfi_endproc
 348              	.LFE31:
 349              		.size	ADC_StructInit, .-ADC_StructInit
 350              		.align	1
 351              		.global	ADC_Cmd
 352              		.syntax unified
 353              		.thumb
 354              		.thumb_func
 355              		.fpu softvfp
 356              		.type	ADC_Cmd, %function
 357              	ADC_Cmd:
 358              	.LVL23:
 359              	.LFB32:
 291:.\stlib\STM32F10x_StdPeriph_Driver\src/stm32f10x_adc.c **** 
 292:.\stlib\STM32F10x_StdPeriph_Driver\src/stm32f10x_adc.c **** /**
 293:.\stlib\STM32F10x_StdPeriph_Driver\src/stm32f10x_adc.c ****   * @brief  Enables or disables the specified ADC peripheral.
 294:.\stlib\STM32F10x_StdPeriph_Driver\src/stm32f10x_adc.c ****   * @param  ADCx: where x can be 1, 2 or 3 to select the ADC peripheral.
 295:.\stlib\STM32F10x_StdPeriph_Driver\src/stm32f10x_adc.c ****   * @param  NewState: new state of the ADCx peripheral.
 296:.\stlib\STM32F10x_StdPeriph_Driver\src/stm32f10x_adc.c ****   *   This parameter can be: ENABLE or DISABLE.
 297:.\stlib\STM32F10x_StdPeriph_Driver\src/stm32f10x_adc.c ****   * @retval None
 298:.\stlib\STM32F10x_StdPeriph_Driver\src/stm32f10x_adc.c ****   */
 299:.\stlib\STM32F10x_StdPeriph_Driver\src/stm32f10x_adc.c **** void ADC_Cmd(ADC_TypeDef* ADCx, FunctionalState NewState)
 300:.\stlib\STM32F10x_StdPeriph_Driver\src/stm32f10x_adc.c **** {
ARM GAS  C:\Users\skey\AppData\Local\Temp\ccIkOQKS.s 			page 13


 360              		.loc 1 300 1 is_stmt 1 view -0
 361              		.cfi_startproc
 362              		@ args = 0, pretend = 0, frame = 0
 363              		@ frame_needed = 0, uses_anonymous_args = 0
 364              		@ link register save eliminated.
 301:.\stlib\STM32F10x_StdPeriph_Driver\src/stm32f10x_adc.c ****   /* Check the parameters */
 302:.\stlib\STM32F10x_StdPeriph_Driver\src/stm32f10x_adc.c ****   assert_param(IS_ADC_ALL_PERIPH(ADCx));
 365              		.loc 1 302 3 view .LVU79
 303:.\stlib\STM32F10x_StdPeriph_Driver\src/stm32f10x_adc.c ****   assert_param(IS_FUNCTIONAL_STATE(NewState));
 366              		.loc 1 303 3 view .LVU80
 304:.\stlib\STM32F10x_StdPeriph_Driver\src/stm32f10x_adc.c ****   if (NewState != DISABLE)
 367              		.loc 1 304 3 view .LVU81
 368              	@ .\stlib\STM32F10x_StdPeriph_Driver\src\stm32f10x_adc.c:307:     ADCx->CR2 |= CR2_ADON_Set;
 305:.\stlib\STM32F10x_StdPeriph_Driver\src/stm32f10x_adc.c ****   {
 306:.\stlib\STM32F10x_StdPeriph_Driver\src/stm32f10x_adc.c ****     /* Set the ADON bit to wake up the ADC from power down mode */
 307:.\stlib\STM32F10x_StdPeriph_Driver\src/stm32f10x_adc.c ****     ADCx->CR2 |= CR2_ADON_Set;
 369              		.loc 1 307 15 is_stmt 0 view .LVU82
 370 00b8 8368     		ldr	r3, [r0, #8]	@ _1,
 371              	@ .\stlib\STM32F10x_StdPeriph_Driver\src\stm32f10x_adc.c:304:   if (NewState != DISABLE)
 304:.\stlib\STM32F10x_StdPeriph_Driver\src/stm32f10x_adc.c ****   if (NewState != DISABLE)
 372              		.loc 1 304 6 view .LVU83
 373 00ba 19B1     		cbz	r1, .L13	@ tmp117,
 374              		.loc 1 307 5 is_stmt 1 view .LVU84
 375              	@ .\stlib\STM32F10x_StdPeriph_Driver\src\stm32f10x_adc.c:307:     ADCx->CR2 |= CR2_ADON_Set;
 376              		.loc 1 307 15 is_stmt 0 view .LVU85
 377 00bc 43F00103 		orr	r3, r3, #1	@ _2, _1,
 378              	.L15:
 379              	@ .\stlib\STM32F10x_StdPeriph_Driver\src\stm32f10x_adc.c:312:     ADCx->CR2 &= CR2_ADON_Reset;
 308:.\stlib\STM32F10x_StdPeriph_Driver\src/stm32f10x_adc.c ****   }
 309:.\stlib\STM32F10x_StdPeriph_Driver\src/stm32f10x_adc.c ****   else
 310:.\stlib\STM32F10x_StdPeriph_Driver\src/stm32f10x_adc.c ****   {
 311:.\stlib\STM32F10x_StdPeriph_Driver\src/stm32f10x_adc.c ****     /* Disable the selected ADC peripheral */
 312:.\stlib\STM32F10x_StdPeriph_Driver\src/stm32f10x_adc.c ****     ADCx->CR2 &= CR2_ADON_Reset;
 380              		.loc 1 312 15 view .LVU86
 381 00c0 8360     		str	r3, [r0, #8]	@ _4,
 382              	@ .\stlib\STM32F10x_StdPeriph_Driver\src\stm32f10x_adc.c:314: }
 313:.\stlib\STM32F10x_StdPeriph_Driver\src/stm32f10x_adc.c ****   }
 314:.\stlib\STM32F10x_StdPeriph_Driver\src/stm32f10x_adc.c **** }
 383              		.loc 1 314 1 view .LVU87
 384 00c2 7047     		bx	lr	@
 385              	.L13:
 312:.\stlib\STM32F10x_StdPeriph_Driver\src/stm32f10x_adc.c ****   }
 386              		.loc 1 312 5 is_stmt 1 view .LVU88
 387              	@ .\stlib\STM32F10x_StdPeriph_Driver\src\stm32f10x_adc.c:312:     ADCx->CR2 &= CR2_ADON_Reset;
 312:.\stlib\STM32F10x_StdPeriph_Driver\src/stm32f10x_adc.c ****   }
 388              		.loc 1 312 15 is_stmt 0 view .LVU89
 389 00c4 23F00103 		bic	r3, r3, #1	@ _4, _3,
 390 00c8 FAE7     		b	.L15		@
 391              		.cfi_endproc
 392              	.LFE32:
 393              		.size	ADC_Cmd, .-ADC_Cmd
 394              		.align	1
 395              		.global	ADC_DMACmd
 396              		.syntax unified
 397              		.thumb
 398              		.thumb_func
 399              		.fpu softvfp
ARM GAS  C:\Users\skey\AppData\Local\Temp\ccIkOQKS.s 			page 14


 400              		.type	ADC_DMACmd, %function
 401              	ADC_DMACmd:
 402              	.LVL24:
 403              	.LFB33:
 315:.\stlib\STM32F10x_StdPeriph_Driver\src/stm32f10x_adc.c **** 
 316:.\stlib\STM32F10x_StdPeriph_Driver\src/stm32f10x_adc.c **** /**
 317:.\stlib\STM32F10x_StdPeriph_Driver\src/stm32f10x_adc.c ****   * @brief  Enables or disables the specified ADC DMA request.
 318:.\stlib\STM32F10x_StdPeriph_Driver\src/stm32f10x_adc.c ****   * @param  ADCx: where x can be 1 or 3 to select the ADC peripheral.
 319:.\stlib\STM32F10x_StdPeriph_Driver\src/stm32f10x_adc.c ****   *   Note: ADC2 hasn't a DMA capability.
 320:.\stlib\STM32F10x_StdPeriph_Driver\src/stm32f10x_adc.c ****   * @param  NewState: new state of the selected ADC DMA transfer.
 321:.\stlib\STM32F10x_StdPeriph_Driver\src/stm32f10x_adc.c ****   *   This parameter can be: ENABLE or DISABLE.
 322:.\stlib\STM32F10x_StdPeriph_Driver\src/stm32f10x_adc.c ****   * @retval None
 323:.\stlib\STM32F10x_StdPeriph_Driver\src/stm32f10x_adc.c ****   */
 324:.\stlib\STM32F10x_StdPeriph_Driver\src/stm32f10x_adc.c **** void ADC_DMACmd(ADC_TypeDef* ADCx, FunctionalState NewState)
 325:.\stlib\STM32F10x_StdPeriph_Driver\src/stm32f10x_adc.c **** {
 404              		.loc 1 325 1 is_stmt 1 view -0
 405              		.cfi_startproc
 406              		@ args = 0, pretend = 0, frame = 0
 407              		@ frame_needed = 0, uses_anonymous_args = 0
 408              		@ link register save eliminated.
 326:.\stlib\STM32F10x_StdPeriph_Driver\src/stm32f10x_adc.c ****   /* Check the parameters */
 327:.\stlib\STM32F10x_StdPeriph_Driver\src/stm32f10x_adc.c ****   assert_param(IS_ADC_DMA_PERIPH(ADCx));
 409              		.loc 1 327 3 view .LVU91
 328:.\stlib\STM32F10x_StdPeriph_Driver\src/stm32f10x_adc.c ****   assert_param(IS_FUNCTIONAL_STATE(NewState));
 410              		.loc 1 328 3 view .LVU92
 329:.\stlib\STM32F10x_StdPeriph_Driver\src/stm32f10x_adc.c ****   if (NewState != DISABLE)
 411              		.loc 1 329 3 view .LVU93
 412              	@ .\stlib\STM32F10x_StdPeriph_Driver\src\stm32f10x_adc.c:332:     ADCx->CR2 |= CR2_DMA_Set;
 330:.\stlib\STM32F10x_StdPeriph_Driver\src/stm32f10x_adc.c ****   {
 331:.\stlib\STM32F10x_StdPeriph_Driver\src/stm32f10x_adc.c ****     /* Enable the selected ADC DMA request */
 332:.\stlib\STM32F10x_StdPeriph_Driver\src/stm32f10x_adc.c ****     ADCx->CR2 |= CR2_DMA_Set;
 413              		.loc 1 332 15 is_stmt 0 view .LVU94
 414 00ca 8368     		ldr	r3, [r0, #8]	@ _1,
 415              	@ .\stlib\STM32F10x_StdPeriph_Driver\src\stm32f10x_adc.c:329:   if (NewState != DISABLE)
 329:.\stlib\STM32F10x_StdPeriph_Driver\src/stm32f10x_adc.c ****   if (NewState != DISABLE)
 416              		.loc 1 329 6 view .LVU95
 417 00cc 19B1     		cbz	r1, .L17	@ tmp117,
 418              		.loc 1 332 5 is_stmt 1 view .LVU96
 419              	@ .\stlib\STM32F10x_StdPeriph_Driver\src\stm32f10x_adc.c:332:     ADCx->CR2 |= CR2_DMA_Set;
 420              		.loc 1 332 15 is_stmt 0 view .LVU97
 421 00ce 43F48073 		orr	r3, r3, #256	@ _2, _1,
 422              	.L19:
 423              	@ .\stlib\STM32F10x_StdPeriph_Driver\src\stm32f10x_adc.c:337:     ADCx->CR2 &= CR2_DMA_Reset;
 333:.\stlib\STM32F10x_StdPeriph_Driver\src/stm32f10x_adc.c ****   }
 334:.\stlib\STM32F10x_StdPeriph_Driver\src/stm32f10x_adc.c ****   else
 335:.\stlib\STM32F10x_StdPeriph_Driver\src/stm32f10x_adc.c ****   {
 336:.\stlib\STM32F10x_StdPeriph_Driver\src/stm32f10x_adc.c ****     /* Disable the selected ADC DMA request */
 337:.\stlib\STM32F10x_StdPeriph_Driver\src/stm32f10x_adc.c ****     ADCx->CR2 &= CR2_DMA_Reset;
 424              		.loc 1 337 15 view .LVU98
 425 00d2 8360     		str	r3, [r0, #8]	@ _4,
 426              	@ .\stlib\STM32F10x_StdPeriph_Driver\src\stm32f10x_adc.c:339: }
 338:.\stlib\STM32F10x_StdPeriph_Driver\src/stm32f10x_adc.c ****   }
 339:.\stlib\STM32F10x_StdPeriph_Driver\src/stm32f10x_adc.c **** }
 427              		.loc 1 339 1 view .LVU99
 428 00d4 7047     		bx	lr	@
 429              	.L17:
 337:.\stlib\STM32F10x_StdPeriph_Driver\src/stm32f10x_adc.c ****   }
ARM GAS  C:\Users\skey\AppData\Local\Temp\ccIkOQKS.s 			page 15


 430              		.loc 1 337 5 is_stmt 1 view .LVU100
 431              	@ .\stlib\STM32F10x_StdPeriph_Driver\src\stm32f10x_adc.c:337:     ADCx->CR2 &= CR2_DMA_Reset;
 337:.\stlib\STM32F10x_StdPeriph_Driver\src/stm32f10x_adc.c ****   }
 432              		.loc 1 337 15 is_stmt 0 view .LVU101
 433 00d6 23F48073 		bic	r3, r3, #256	@ _4, _3,
 434 00da FAE7     		b	.L19		@
 435              		.cfi_endproc
 436              	.LFE33:
 437              		.size	ADC_DMACmd, .-ADC_DMACmd
 438              		.align	1
 439              		.global	ADC_ITConfig
 440              		.syntax unified
 441              		.thumb
 442              		.thumb_func
 443              		.fpu softvfp
 444              		.type	ADC_ITConfig, %function
 445              	ADC_ITConfig:
 446              	.LVL25:
 447              	.LFB34:
 340:.\stlib\STM32F10x_StdPeriph_Driver\src/stm32f10x_adc.c **** 
 341:.\stlib\STM32F10x_StdPeriph_Driver\src/stm32f10x_adc.c **** /**
 342:.\stlib\STM32F10x_StdPeriph_Driver\src/stm32f10x_adc.c ****   * @brief  Enables or disables the specified ADC interrupts.
 343:.\stlib\STM32F10x_StdPeriph_Driver\src/stm32f10x_adc.c ****   * @param  ADCx: where x can be 1, 2 or 3 to select the ADC peripheral.
 344:.\stlib\STM32F10x_StdPeriph_Driver\src/stm32f10x_adc.c ****   * @param  ADC_IT: specifies the ADC interrupt sources to be enabled or disabled. 
 345:.\stlib\STM32F10x_StdPeriph_Driver\src/stm32f10x_adc.c ****   *   This parameter can be any combination of the following values:
 346:.\stlib\STM32F10x_StdPeriph_Driver\src/stm32f10x_adc.c ****   *     @arg ADC_IT_EOC: End of conversion interrupt mask
 347:.\stlib\STM32F10x_StdPeriph_Driver\src/stm32f10x_adc.c ****   *     @arg ADC_IT_AWD: Analog watchdog interrupt mask
 348:.\stlib\STM32F10x_StdPeriph_Driver\src/stm32f10x_adc.c ****   *     @arg ADC_IT_JEOC: End of injected conversion interrupt mask
 349:.\stlib\STM32F10x_StdPeriph_Driver\src/stm32f10x_adc.c ****   * @param  NewState: new state of the specified ADC interrupts.
 350:.\stlib\STM32F10x_StdPeriph_Driver\src/stm32f10x_adc.c ****   *   This parameter can be: ENABLE or DISABLE.
 351:.\stlib\STM32F10x_StdPeriph_Driver\src/stm32f10x_adc.c ****   * @retval None
 352:.\stlib\STM32F10x_StdPeriph_Driver\src/stm32f10x_adc.c ****   */
 353:.\stlib\STM32F10x_StdPeriph_Driver\src/stm32f10x_adc.c **** void ADC_ITConfig(ADC_TypeDef* ADCx, uint16_t ADC_IT, FunctionalState NewState)
 354:.\stlib\STM32F10x_StdPeriph_Driver\src/stm32f10x_adc.c **** {
 448              		.loc 1 354 1 is_stmt 1 view -0
 449              		.cfi_startproc
 450              		@ args = 0, pretend = 0, frame = 0
 451              		@ frame_needed = 0, uses_anonymous_args = 0
 452              		@ link register save eliminated.
 355:.\stlib\STM32F10x_StdPeriph_Driver\src/stm32f10x_adc.c ****   uint8_t itmask = 0;
 453              		.loc 1 355 3 view .LVU103
 356:.\stlib\STM32F10x_StdPeriph_Driver\src/stm32f10x_adc.c ****   /* Check the parameters */
 357:.\stlib\STM32F10x_StdPeriph_Driver\src/stm32f10x_adc.c ****   assert_param(IS_ADC_ALL_PERIPH(ADCx));
 454              		.loc 1 357 3 view .LVU104
 358:.\stlib\STM32F10x_StdPeriph_Driver\src/stm32f10x_adc.c ****   assert_param(IS_FUNCTIONAL_STATE(NewState));
 455              		.loc 1 358 3 view .LVU105
 359:.\stlib\STM32F10x_StdPeriph_Driver\src/stm32f10x_adc.c ****   assert_param(IS_ADC_IT(ADC_IT));
 456              		.loc 1 359 3 view .LVU106
 360:.\stlib\STM32F10x_StdPeriph_Driver\src/stm32f10x_adc.c ****   /* Get the ADC IT index */
 361:.\stlib\STM32F10x_StdPeriph_Driver\src/stm32f10x_adc.c ****   itmask = (uint8_t)ADC_IT;
 457              		.loc 1 361 3 view .LVU107
 362:.\stlib\STM32F10x_StdPeriph_Driver\src/stm32f10x_adc.c ****   if (NewState != DISABLE)
 458              		.loc 1 362 3 view .LVU108
 459              	@ .\stlib\STM32F10x_StdPeriph_Driver\src\stm32f10x_adc.c:365:     ADCx->CR1 |= itmask;
 363:.\stlib\STM32F10x_StdPeriph_Driver\src/stm32f10x_adc.c ****   {
 364:.\stlib\STM32F10x_StdPeriph_Driver\src/stm32f10x_adc.c ****     /* Enable the selected ADC interrupts */
 365:.\stlib\STM32F10x_StdPeriph_Driver\src/stm32f10x_adc.c ****     ADCx->CR1 |= itmask;
ARM GAS  C:\Users\skey\AppData\Local\Temp\ccIkOQKS.s 			page 16


 460              		.loc 1 365 15 is_stmt 0 view .LVU109
 461 00dc 4368     		ldr	r3, [r0, #4]	@ _1,
 462 00de C9B2     		uxtb	r1, r1	@ _17, tmp122
 463              	.LVL26:
 464              	@ .\stlib\STM32F10x_StdPeriph_Driver\src\stm32f10x_adc.c:362:   if (NewState != DISABLE)
 362:.\stlib\STM32F10x_StdPeriph_Driver\src/stm32f10x_adc.c ****   if (NewState != DISABLE)
 465              		.loc 1 362 6 view .LVU110
 466 00e0 12B1     		cbz	r2, .L21	@ tmp123,
 467              		.loc 1 365 5 is_stmt 1 view .LVU111
 468              	@ .\stlib\STM32F10x_StdPeriph_Driver\src\stm32f10x_adc.c:365:     ADCx->CR1 |= itmask;
 469              		.loc 1 365 15 is_stmt 0 view .LVU112
 470 00e2 1943     		orrs	r1, r1, r3	@, _3, _17, _1
 471              	.LVL27:
 472              	.L23:
 473              	@ .\stlib\STM32F10x_StdPeriph_Driver\src\stm32f10x_adc.c:370:     ADCx->CR1 &= (~(uint32_t)itmask);
 366:.\stlib\STM32F10x_StdPeriph_Driver\src/stm32f10x_adc.c ****   }
 367:.\stlib\STM32F10x_StdPeriph_Driver\src/stm32f10x_adc.c ****   else
 368:.\stlib\STM32F10x_StdPeriph_Driver\src/stm32f10x_adc.c ****   {
 369:.\stlib\STM32F10x_StdPeriph_Driver\src/stm32f10x_adc.c ****     /* Disable the selected ADC interrupts */
 370:.\stlib\STM32F10x_StdPeriph_Driver\src/stm32f10x_adc.c ****     ADCx->CR1 &= (~(uint32_t)itmask);
 474              		.loc 1 370 15 view .LVU113
 475 00e4 4160     		str	r1, [r0, #4]	@ _7,
 476              	@ .\stlib\STM32F10x_StdPeriph_Driver\src\stm32f10x_adc.c:372: }
 371:.\stlib\STM32F10x_StdPeriph_Driver\src/stm32f10x_adc.c ****   }
 372:.\stlib\STM32F10x_StdPeriph_Driver\src/stm32f10x_adc.c **** }
 477              		.loc 1 372 1 view .LVU114
 478 00e6 7047     		bx	lr	@
 479              	.L21:
 370:.\stlib\STM32F10x_StdPeriph_Driver\src/stm32f10x_adc.c ****   }
 480              		.loc 1 370 5 is_stmt 1 view .LVU115
 481              	@ .\stlib\STM32F10x_StdPeriph_Driver\src\stm32f10x_adc.c:370:     ADCx->CR1 &= (~(uint32_t)itmask);
 370:.\stlib\STM32F10x_StdPeriph_Driver\src/stm32f10x_adc.c ****   }
 482              		.loc 1 370 15 is_stmt 0 view .LVU116
 483 00e8 23EA0101 		bic	r1, r3, r1	@ _7, _4, _17
 484 00ec FAE7     		b	.L23		@
 485              		.cfi_endproc
 486              	.LFE34:
 487              		.size	ADC_ITConfig, .-ADC_ITConfig
 488              		.align	1
 489              		.global	ADC_ResetCalibration
 490              		.syntax unified
 491              		.thumb
 492              		.thumb_func
 493              		.fpu softvfp
 494              		.type	ADC_ResetCalibration, %function
 495              	ADC_ResetCalibration:
 496              	.LVL28:
 497              	.LFB35:
 373:.\stlib\STM32F10x_StdPeriph_Driver\src/stm32f10x_adc.c **** 
 374:.\stlib\STM32F10x_StdPeriph_Driver\src/stm32f10x_adc.c **** /**
 375:.\stlib\STM32F10x_StdPeriph_Driver\src/stm32f10x_adc.c ****   * @brief  Resets the selected ADC calibration registers.
 376:.\stlib\STM32F10x_StdPeriph_Driver\src/stm32f10x_adc.c ****   * @param  ADCx: where x can be 1, 2 or 3 to select the ADC peripheral.
 377:.\stlib\STM32F10x_StdPeriph_Driver\src/stm32f10x_adc.c ****   * @retval None
 378:.\stlib\STM32F10x_StdPeriph_Driver\src/stm32f10x_adc.c ****   */
 379:.\stlib\STM32F10x_StdPeriph_Driver\src/stm32f10x_adc.c **** void ADC_ResetCalibration(ADC_TypeDef* ADCx)
 380:.\stlib\STM32F10x_StdPeriph_Driver\src/stm32f10x_adc.c **** {
 498              		.loc 1 380 1 is_stmt 1 view -0
ARM GAS  C:\Users\skey\AppData\Local\Temp\ccIkOQKS.s 			page 17


 499              		.cfi_startproc
 500              		@ args = 0, pretend = 0, frame = 0
 501              		@ frame_needed = 0, uses_anonymous_args = 0
 502              		@ link register save eliminated.
 381:.\stlib\STM32F10x_StdPeriph_Driver\src/stm32f10x_adc.c ****   /* Check the parameters */
 382:.\stlib\STM32F10x_StdPeriph_Driver\src/stm32f10x_adc.c ****   assert_param(IS_ADC_ALL_PERIPH(ADCx));
 503              		.loc 1 382 3 view .LVU118
 383:.\stlib\STM32F10x_StdPeriph_Driver\src/stm32f10x_adc.c ****   /* Resets the selected ADC calibration registers */  
 384:.\stlib\STM32F10x_StdPeriph_Driver\src/stm32f10x_adc.c ****   ADCx->CR2 |= CR2_RSTCAL_Set;
 504              		.loc 1 384 3 view .LVU119
 505              	@ .\stlib\STM32F10x_StdPeriph_Driver\src\stm32f10x_adc.c:384:   ADCx->CR2 |= CR2_RSTCAL_Set;
 506              		.loc 1 384 13 is_stmt 0 view .LVU120
 507 00ee 8368     		ldr	r3, [r0, #8]	@ _1, ADCx_4(D)->CR2
 508 00f0 43F00803 		orr	r3, r3, #8	@ _2, _1,
 509 00f4 8360     		str	r3, [r0, #8]	@ _2, ADCx_4(D)->CR2
 510              	@ .\stlib\STM32F10x_StdPeriph_Driver\src\stm32f10x_adc.c:385: }
 385:.\stlib\STM32F10x_StdPeriph_Driver\src/stm32f10x_adc.c **** }
 511              		.loc 1 385 1 view .LVU121
 512 00f6 7047     		bx	lr	@
 513              		.cfi_endproc
 514              	.LFE35:
 515              		.size	ADC_ResetCalibration, .-ADC_ResetCalibration
 516              		.align	1
 517              		.global	ADC_GetResetCalibrationStatus
 518              		.syntax unified
 519              		.thumb
 520              		.thumb_func
 521              		.fpu softvfp
 522              		.type	ADC_GetResetCalibrationStatus, %function
 523              	ADC_GetResetCalibrationStatus:
 524              	.LVL29:
 525              	.LFB36:
 386:.\stlib\STM32F10x_StdPeriph_Driver\src/stm32f10x_adc.c **** 
 387:.\stlib\STM32F10x_StdPeriph_Driver\src/stm32f10x_adc.c **** /**
 388:.\stlib\STM32F10x_StdPeriph_Driver\src/stm32f10x_adc.c ****   * @brief  Gets the selected ADC reset calibration registers status.
 389:.\stlib\STM32F10x_StdPeriph_Driver\src/stm32f10x_adc.c ****   * @param  ADCx: where x can be 1, 2 or 3 to select the ADC peripheral.
 390:.\stlib\STM32F10x_StdPeriph_Driver\src/stm32f10x_adc.c ****   * @retval The new state of ADC reset calibration registers (SET or RESET).
 391:.\stlib\STM32F10x_StdPeriph_Driver\src/stm32f10x_adc.c ****   */
 392:.\stlib\STM32F10x_StdPeriph_Driver\src/stm32f10x_adc.c **** FlagStatus ADC_GetResetCalibrationStatus(ADC_TypeDef* ADCx)
 393:.\stlib\STM32F10x_StdPeriph_Driver\src/stm32f10x_adc.c **** {
 526              		.loc 1 393 1 is_stmt 1 view -0
 527              		.cfi_startproc
 528              		@ args = 0, pretend = 0, frame = 0
 529              		@ frame_needed = 0, uses_anonymous_args = 0
 530              		@ link register save eliminated.
 394:.\stlib\STM32F10x_StdPeriph_Driver\src/stm32f10x_adc.c ****   FlagStatus bitstatus = RESET;
 531              		.loc 1 394 3 view .LVU123
 395:.\stlib\STM32F10x_StdPeriph_Driver\src/stm32f10x_adc.c ****   /* Check the parameters */
 396:.\stlib\STM32F10x_StdPeriph_Driver\src/stm32f10x_adc.c ****   assert_param(IS_ADC_ALL_PERIPH(ADCx));
 532              		.loc 1 396 3 view .LVU124
 397:.\stlib\STM32F10x_StdPeriph_Driver\src/stm32f10x_adc.c ****   /* Check the status of RSTCAL bit */
 398:.\stlib\STM32F10x_StdPeriph_Driver\src/stm32f10x_adc.c ****   if ((ADCx->CR2 & CR2_RSTCAL_Set) != (uint32_t)RESET)
 533              		.loc 1 398 3 view .LVU125
 534              	@ .\stlib\STM32F10x_StdPeriph_Driver\src\stm32f10x_adc.c:398:   if ((ADCx->CR2 & CR2_RSTCAL_Set) !=
 535              		.loc 1 398 12 is_stmt 0 view .LVU126
 536 00f8 8068     		ldr	r0, [r0, #8]	@ _1, ADCx_5(D)->CR2
 537              	.LVL30:
ARM GAS  C:\Users\skey\AppData\Local\Temp\ccIkOQKS.s 			page 18


 399:.\stlib\STM32F10x_StdPeriph_Driver\src/stm32f10x_adc.c ****   {
 400:.\stlib\STM32F10x_StdPeriph_Driver\src/stm32f10x_adc.c ****     /* RSTCAL bit is set */
 401:.\stlib\STM32F10x_StdPeriph_Driver\src/stm32f10x_adc.c ****     bitstatus = SET;
 402:.\stlib\STM32F10x_StdPeriph_Driver\src/stm32f10x_adc.c ****   }
 403:.\stlib\STM32F10x_StdPeriph_Driver\src/stm32f10x_adc.c ****   else
 404:.\stlib\STM32F10x_StdPeriph_Driver\src/stm32f10x_adc.c ****   {
 405:.\stlib\STM32F10x_StdPeriph_Driver\src/stm32f10x_adc.c ****     /* RSTCAL bit is reset */
 406:.\stlib\STM32F10x_StdPeriph_Driver\src/stm32f10x_adc.c ****     bitstatus = RESET;
 407:.\stlib\STM32F10x_StdPeriph_Driver\src/stm32f10x_adc.c ****   }
 408:.\stlib\STM32F10x_StdPeriph_Driver\src/stm32f10x_adc.c ****   /* Return the RSTCAL bit status */
 409:.\stlib\STM32F10x_StdPeriph_Driver\src/stm32f10x_adc.c ****   return  bitstatus;
 538              		.loc 1 409 3 is_stmt 1 view .LVU127
 539              	@ .\stlib\STM32F10x_StdPeriph_Driver\src\stm32f10x_adc.c:410: }
 410:.\stlib\STM32F10x_StdPeriph_Driver\src/stm32f10x_adc.c **** }
 540              		.loc 1 410 1 is_stmt 0 view .LVU128
 541 00fa C0F3C000 		ubfx	r0, r0, #3, #1	@, _1,,
 542              	.LVL31:
 543              		.loc 1 410 1 view .LVU129
 544 00fe 7047     		bx	lr	@
 545              		.cfi_endproc
 546              	.LFE36:
 547              		.size	ADC_GetResetCalibrationStatus, .-ADC_GetResetCalibrationStatus
 548              		.align	1
 549              		.global	ADC_StartCalibration
 550              		.syntax unified
 551              		.thumb
 552              		.thumb_func
 553              		.fpu softvfp
 554              		.type	ADC_StartCalibration, %function
 555              	ADC_StartCalibration:
 556              	.LVL32:
 557              	.LFB37:
 411:.\stlib\STM32F10x_StdPeriph_Driver\src/stm32f10x_adc.c **** 
 412:.\stlib\STM32F10x_StdPeriph_Driver\src/stm32f10x_adc.c **** /**
 413:.\stlib\STM32F10x_StdPeriph_Driver\src/stm32f10x_adc.c ****   * @brief  Starts the selected ADC calibration process.
 414:.\stlib\STM32F10x_StdPeriph_Driver\src/stm32f10x_adc.c ****   * @param  ADCx: where x can be 1, 2 or 3 to select the ADC peripheral.
 415:.\stlib\STM32F10x_StdPeriph_Driver\src/stm32f10x_adc.c ****   * @retval None
 416:.\stlib\STM32F10x_StdPeriph_Driver\src/stm32f10x_adc.c ****   */
 417:.\stlib\STM32F10x_StdPeriph_Driver\src/stm32f10x_adc.c **** void ADC_StartCalibration(ADC_TypeDef* ADCx)
 418:.\stlib\STM32F10x_StdPeriph_Driver\src/stm32f10x_adc.c **** {
 558              		.loc 1 418 1 is_stmt 1 view -0
 559              		.cfi_startproc
 560              		@ args = 0, pretend = 0, frame = 0
 561              		@ frame_needed = 0, uses_anonymous_args = 0
 562              		@ link register save eliminated.
 419:.\stlib\STM32F10x_StdPeriph_Driver\src/stm32f10x_adc.c ****   /* Check the parameters */
 420:.\stlib\STM32F10x_StdPeriph_Driver\src/stm32f10x_adc.c ****   assert_param(IS_ADC_ALL_PERIPH(ADCx));
 563              		.loc 1 420 3 view .LVU131
 421:.\stlib\STM32F10x_StdPeriph_Driver\src/stm32f10x_adc.c ****   /* Enable the selected ADC calibration process */  
 422:.\stlib\STM32F10x_StdPeriph_Driver\src/stm32f10x_adc.c ****   ADCx->CR2 |= CR2_CAL_Set;
 564              		.loc 1 422 3 view .LVU132
 565              	@ .\stlib\STM32F10x_StdPeriph_Driver\src\stm32f10x_adc.c:422:   ADCx->CR2 |= CR2_CAL_Set;
 566              		.loc 1 422 13 is_stmt 0 view .LVU133
 567 0100 8368     		ldr	r3, [r0, #8]	@ _1, ADCx_4(D)->CR2
 568 0102 43F00403 		orr	r3, r3, #4	@ _2, _1,
 569 0106 8360     		str	r3, [r0, #8]	@ _2, ADCx_4(D)->CR2
 570              	@ .\stlib\STM32F10x_StdPeriph_Driver\src\stm32f10x_adc.c:423: }
ARM GAS  C:\Users\skey\AppData\Local\Temp\ccIkOQKS.s 			page 19


 423:.\stlib\STM32F10x_StdPeriph_Driver\src/stm32f10x_adc.c **** }
 571              		.loc 1 423 1 view .LVU134
 572 0108 7047     		bx	lr	@
 573              		.cfi_endproc
 574              	.LFE37:
 575              		.size	ADC_StartCalibration, .-ADC_StartCalibration
 576              		.align	1
 577              		.global	ADC_GetCalibrationStatus
 578              		.syntax unified
 579              		.thumb
 580              		.thumb_func
 581              		.fpu softvfp
 582              		.type	ADC_GetCalibrationStatus, %function
 583              	ADC_GetCalibrationStatus:
 584              	.LVL33:
 585              	.LFB38:
 424:.\stlib\STM32F10x_StdPeriph_Driver\src/stm32f10x_adc.c **** 
 425:.\stlib\STM32F10x_StdPeriph_Driver\src/stm32f10x_adc.c **** /**
 426:.\stlib\STM32F10x_StdPeriph_Driver\src/stm32f10x_adc.c ****   * @brief  Gets the selected ADC calibration status.
 427:.\stlib\STM32F10x_StdPeriph_Driver\src/stm32f10x_adc.c ****   * @param  ADCx: where x can be 1, 2 or 3 to select the ADC peripheral.
 428:.\stlib\STM32F10x_StdPeriph_Driver\src/stm32f10x_adc.c ****   * @retval The new state of ADC calibration (SET or RESET).
 429:.\stlib\STM32F10x_StdPeriph_Driver\src/stm32f10x_adc.c ****   */
 430:.\stlib\STM32F10x_StdPeriph_Driver\src/stm32f10x_adc.c **** FlagStatus ADC_GetCalibrationStatus(ADC_TypeDef* ADCx)
 431:.\stlib\STM32F10x_StdPeriph_Driver\src/stm32f10x_adc.c **** {
 586              		.loc 1 431 1 is_stmt 1 view -0
 587              		.cfi_startproc
 588              		@ args = 0, pretend = 0, frame = 0
 589              		@ frame_needed = 0, uses_anonymous_args = 0
 590              		@ link register save eliminated.
 432:.\stlib\STM32F10x_StdPeriph_Driver\src/stm32f10x_adc.c ****   FlagStatus bitstatus = RESET;
 591              		.loc 1 432 3 view .LVU136
 433:.\stlib\STM32F10x_StdPeriph_Driver\src/stm32f10x_adc.c ****   /* Check the parameters */
 434:.\stlib\STM32F10x_StdPeriph_Driver\src/stm32f10x_adc.c ****   assert_param(IS_ADC_ALL_PERIPH(ADCx));
 592              		.loc 1 434 3 view .LVU137
 435:.\stlib\STM32F10x_StdPeriph_Driver\src/stm32f10x_adc.c ****   /* Check the status of CAL bit */
 436:.\stlib\STM32F10x_StdPeriph_Driver\src/stm32f10x_adc.c ****   if ((ADCx->CR2 & CR2_CAL_Set) != (uint32_t)RESET)
 593              		.loc 1 436 3 view .LVU138
 594              	@ .\stlib\STM32F10x_StdPeriph_Driver\src\stm32f10x_adc.c:436:   if ((ADCx->CR2 & CR2_CAL_Set) != (u
 595              		.loc 1 436 12 is_stmt 0 view .LVU139
 596 010a 8068     		ldr	r0, [r0, #8]	@ _1, ADCx_5(D)->CR2
 597              	.LVL34:
 437:.\stlib\STM32F10x_StdPeriph_Driver\src/stm32f10x_adc.c ****   {
 438:.\stlib\STM32F10x_StdPeriph_Driver\src/stm32f10x_adc.c ****     /* CAL bit is set: calibration on going */
 439:.\stlib\STM32F10x_StdPeriph_Driver\src/stm32f10x_adc.c ****     bitstatus = SET;
 440:.\stlib\STM32F10x_StdPeriph_Driver\src/stm32f10x_adc.c ****   }
 441:.\stlib\STM32F10x_StdPeriph_Driver\src/stm32f10x_adc.c ****   else
 442:.\stlib\STM32F10x_StdPeriph_Driver\src/stm32f10x_adc.c ****   {
 443:.\stlib\STM32F10x_StdPeriph_Driver\src/stm32f10x_adc.c ****     /* CAL bit is reset: end of calibration */
 444:.\stlib\STM32F10x_StdPeriph_Driver\src/stm32f10x_adc.c ****     bitstatus = RESET;
 445:.\stlib\STM32F10x_StdPeriph_Driver\src/stm32f10x_adc.c ****   }
 446:.\stlib\STM32F10x_StdPeriph_Driver\src/stm32f10x_adc.c ****   /* Return the CAL bit status */
 447:.\stlib\STM32F10x_StdPeriph_Driver\src/stm32f10x_adc.c ****   return  bitstatus;
 598              		.loc 1 447 3 is_stmt 1 view .LVU140
 599              	@ .\stlib\STM32F10x_StdPeriph_Driver\src\stm32f10x_adc.c:448: }
 448:.\stlib\STM32F10x_StdPeriph_Driver\src/stm32f10x_adc.c **** }
 600              		.loc 1 448 1 is_stmt 0 view .LVU141
 601 010c C0F38000 		ubfx	r0, r0, #2, #1	@, _1,,
ARM GAS  C:\Users\skey\AppData\Local\Temp\ccIkOQKS.s 			page 20


 602              	.LVL35:
 603              		.loc 1 448 1 view .LVU142
 604 0110 7047     		bx	lr	@
 605              		.cfi_endproc
 606              	.LFE38:
 607              		.size	ADC_GetCalibrationStatus, .-ADC_GetCalibrationStatus
 608              		.align	1
 609              		.global	ADC_SoftwareStartConvCmd
 610              		.syntax unified
 611              		.thumb
 612              		.thumb_func
 613              		.fpu softvfp
 614              		.type	ADC_SoftwareStartConvCmd, %function
 615              	ADC_SoftwareStartConvCmd:
 616              	.LVL36:
 617              	.LFB39:
 449:.\stlib\STM32F10x_StdPeriph_Driver\src/stm32f10x_adc.c **** 
 450:.\stlib\STM32F10x_StdPeriph_Driver\src/stm32f10x_adc.c **** /**
 451:.\stlib\STM32F10x_StdPeriph_Driver\src/stm32f10x_adc.c ****   * @brief  Enables or disables the selected ADC software start conversion .
 452:.\stlib\STM32F10x_StdPeriph_Driver\src/stm32f10x_adc.c ****   * @param  ADCx: where x can be 1, 2 or 3 to select the ADC peripheral.
 453:.\stlib\STM32F10x_StdPeriph_Driver\src/stm32f10x_adc.c ****   * @param  NewState: new state of the selected ADC software start conversion.
 454:.\stlib\STM32F10x_StdPeriph_Driver\src/stm32f10x_adc.c ****   *   This parameter can be: ENABLE or DISABLE.
 455:.\stlib\STM32F10x_StdPeriph_Driver\src/stm32f10x_adc.c ****   * @retval None
 456:.\stlib\STM32F10x_StdPeriph_Driver\src/stm32f10x_adc.c ****   */
 457:.\stlib\STM32F10x_StdPeriph_Driver\src/stm32f10x_adc.c **** void ADC_SoftwareStartConvCmd(ADC_TypeDef* ADCx, FunctionalState NewState)
 458:.\stlib\STM32F10x_StdPeriph_Driver\src/stm32f10x_adc.c **** {
 618              		.loc 1 458 1 is_stmt 1 view -0
 619              		.cfi_startproc
 620              		@ args = 0, pretend = 0, frame = 0
 621              		@ frame_needed = 0, uses_anonymous_args = 0
 622              		@ link register save eliminated.
 459:.\stlib\STM32F10x_StdPeriph_Driver\src/stm32f10x_adc.c ****   /* Check the parameters */
 460:.\stlib\STM32F10x_StdPeriph_Driver\src/stm32f10x_adc.c ****   assert_param(IS_ADC_ALL_PERIPH(ADCx));
 623              		.loc 1 460 3 view .LVU144
 461:.\stlib\STM32F10x_StdPeriph_Driver\src/stm32f10x_adc.c ****   assert_param(IS_FUNCTIONAL_STATE(NewState));
 624              		.loc 1 461 3 view .LVU145
 462:.\stlib\STM32F10x_StdPeriph_Driver\src/stm32f10x_adc.c ****   if (NewState != DISABLE)
 625              		.loc 1 462 3 view .LVU146
 626              	@ .\stlib\STM32F10x_StdPeriph_Driver\src\stm32f10x_adc.c:466:     ADCx->CR2 |= CR2_EXTTRIG_SWSTART_
 463:.\stlib\STM32F10x_StdPeriph_Driver\src/stm32f10x_adc.c ****   {
 464:.\stlib\STM32F10x_StdPeriph_Driver\src/stm32f10x_adc.c ****     /* Enable the selected ADC conversion on external event and start the selected
 465:.\stlib\STM32F10x_StdPeriph_Driver\src/stm32f10x_adc.c ****        ADC conversion */
 466:.\stlib\STM32F10x_StdPeriph_Driver\src/stm32f10x_adc.c ****     ADCx->CR2 |= CR2_EXTTRIG_SWSTART_Set;
 627              		.loc 1 466 15 is_stmt 0 view .LVU147
 628 0112 8368     		ldr	r3, [r0, #8]	@ _1,
 629              	@ .\stlib\STM32F10x_StdPeriph_Driver\src\stm32f10x_adc.c:462:   if (NewState != DISABLE)
 462:.\stlib\STM32F10x_StdPeriph_Driver\src/stm32f10x_adc.c ****   if (NewState != DISABLE)
 630              		.loc 1 462 6 view .LVU148
 631 0114 19B1     		cbz	r1, .L29	@ tmp117,
 632              		.loc 1 466 5 is_stmt 1 view .LVU149
 633              	@ .\stlib\STM32F10x_StdPeriph_Driver\src\stm32f10x_adc.c:466:     ADCx->CR2 |= CR2_EXTTRIG_SWSTART_
 634              		.loc 1 466 15 is_stmt 0 view .LVU150
 635 0116 43F4A003 		orr	r3, r3, #5242880	@ _2, _1,
 636              	.L31:
 637              	@ .\stlib\STM32F10x_StdPeriph_Driver\src\stm32f10x_adc.c:472:     ADCx->CR2 &= CR2_EXTTRIG_SWSTART_
 467:.\stlib\STM32F10x_StdPeriph_Driver\src/stm32f10x_adc.c ****   }
 468:.\stlib\STM32F10x_StdPeriph_Driver\src/stm32f10x_adc.c ****   else
ARM GAS  C:\Users\skey\AppData\Local\Temp\ccIkOQKS.s 			page 21


 469:.\stlib\STM32F10x_StdPeriph_Driver\src/stm32f10x_adc.c ****   {
 470:.\stlib\STM32F10x_StdPeriph_Driver\src/stm32f10x_adc.c ****     /* Disable the selected ADC conversion on external event and stop the selected
 471:.\stlib\STM32F10x_StdPeriph_Driver\src/stm32f10x_adc.c ****        ADC conversion */
 472:.\stlib\STM32F10x_StdPeriph_Driver\src/stm32f10x_adc.c ****     ADCx->CR2 &= CR2_EXTTRIG_SWSTART_Reset;
 638              		.loc 1 472 15 view .LVU151
 639 011a 8360     		str	r3, [r0, #8]	@ _4,
 640              	@ .\stlib\STM32F10x_StdPeriph_Driver\src\stm32f10x_adc.c:474: }
 473:.\stlib\STM32F10x_StdPeriph_Driver\src/stm32f10x_adc.c ****   }
 474:.\stlib\STM32F10x_StdPeriph_Driver\src/stm32f10x_adc.c **** }
 641              		.loc 1 474 1 view .LVU152
 642 011c 7047     		bx	lr	@
 643              	.L29:
 472:.\stlib\STM32F10x_StdPeriph_Driver\src/stm32f10x_adc.c ****   }
 644              		.loc 1 472 5 is_stmt 1 view .LVU153
 645              	@ .\stlib\STM32F10x_StdPeriph_Driver\src\stm32f10x_adc.c:472:     ADCx->CR2 &= CR2_EXTTRIG_SWSTART_
 472:.\stlib\STM32F10x_StdPeriph_Driver\src/stm32f10x_adc.c ****   }
 646              		.loc 1 472 15 is_stmt 0 view .LVU154
 647 011e 23F4A003 		bic	r3, r3, #5242880	@ _4, _3,
 648 0122 FAE7     		b	.L31		@
 649              		.cfi_endproc
 650              	.LFE39:
 651              		.size	ADC_SoftwareStartConvCmd, .-ADC_SoftwareStartConvCmd
 652              		.align	1
 653              		.global	ADC_GetSoftwareStartConvStatus
 654              		.syntax unified
 655              		.thumb
 656              		.thumb_func
 657              		.fpu softvfp
 658              		.type	ADC_GetSoftwareStartConvStatus, %function
 659              	ADC_GetSoftwareStartConvStatus:
 660              	.LVL37:
 661              	.LFB40:
 475:.\stlib\STM32F10x_StdPeriph_Driver\src/stm32f10x_adc.c **** 
 476:.\stlib\STM32F10x_StdPeriph_Driver\src/stm32f10x_adc.c **** /**
 477:.\stlib\STM32F10x_StdPeriph_Driver\src/stm32f10x_adc.c ****   * @brief  Gets the selected ADC Software start conversion Status.
 478:.\stlib\STM32F10x_StdPeriph_Driver\src/stm32f10x_adc.c ****   * @param  ADCx: where x can be 1, 2 or 3 to select the ADC peripheral.
 479:.\stlib\STM32F10x_StdPeriph_Driver\src/stm32f10x_adc.c ****   * @retval The new state of ADC software start conversion (SET or RESET).
 480:.\stlib\STM32F10x_StdPeriph_Driver\src/stm32f10x_adc.c ****   */
 481:.\stlib\STM32F10x_StdPeriph_Driver\src/stm32f10x_adc.c **** FlagStatus ADC_GetSoftwareStartConvStatus(ADC_TypeDef* ADCx)
 482:.\stlib\STM32F10x_StdPeriph_Driver\src/stm32f10x_adc.c **** {
 662              		.loc 1 482 1 is_stmt 1 view -0
 663              		.cfi_startproc
 664              		@ args = 0, pretend = 0, frame = 0
 665              		@ frame_needed = 0, uses_anonymous_args = 0
 666              		@ link register save eliminated.
 483:.\stlib\STM32F10x_StdPeriph_Driver\src/stm32f10x_adc.c ****   FlagStatus bitstatus = RESET;
 667              		.loc 1 483 3 view .LVU156
 484:.\stlib\STM32F10x_StdPeriph_Driver\src/stm32f10x_adc.c ****   /* Check the parameters */
 485:.\stlib\STM32F10x_StdPeriph_Driver\src/stm32f10x_adc.c ****   assert_param(IS_ADC_ALL_PERIPH(ADCx));
 668              		.loc 1 485 3 view .LVU157
 486:.\stlib\STM32F10x_StdPeriph_Driver\src/stm32f10x_adc.c ****   /* Check the status of SWSTART bit */
 487:.\stlib\STM32F10x_StdPeriph_Driver\src/stm32f10x_adc.c ****   if ((ADCx->CR2 & CR2_SWSTART_Set) != (uint32_t)RESET)
 669              		.loc 1 487 3 view .LVU158
 670              	@ .\stlib\STM32F10x_StdPeriph_Driver\src\stm32f10x_adc.c:487:   if ((ADCx->CR2 & CR2_SWSTART_Set) !
 671              		.loc 1 487 12 is_stmt 0 view .LVU159
 672 0124 8068     		ldr	r0, [r0, #8]	@ _1, ADCx_5(D)->CR2
 673              	.LVL38:
ARM GAS  C:\Users\skey\AppData\Local\Temp\ccIkOQKS.s 			page 22


 488:.\stlib\STM32F10x_StdPeriph_Driver\src/stm32f10x_adc.c ****   {
 489:.\stlib\STM32F10x_StdPeriph_Driver\src/stm32f10x_adc.c ****     /* SWSTART bit is set */
 490:.\stlib\STM32F10x_StdPeriph_Driver\src/stm32f10x_adc.c ****     bitstatus = SET;
 491:.\stlib\STM32F10x_StdPeriph_Driver\src/stm32f10x_adc.c ****   }
 492:.\stlib\STM32F10x_StdPeriph_Driver\src/stm32f10x_adc.c ****   else
 493:.\stlib\STM32F10x_StdPeriph_Driver\src/stm32f10x_adc.c ****   {
 494:.\stlib\STM32F10x_StdPeriph_Driver\src/stm32f10x_adc.c ****     /* SWSTART bit is reset */
 495:.\stlib\STM32F10x_StdPeriph_Driver\src/stm32f10x_adc.c ****     bitstatus = RESET;
 496:.\stlib\STM32F10x_StdPeriph_Driver\src/stm32f10x_adc.c ****   }
 497:.\stlib\STM32F10x_StdPeriph_Driver\src/stm32f10x_adc.c ****   /* Return the SWSTART bit status */
 498:.\stlib\STM32F10x_StdPeriph_Driver\src/stm32f10x_adc.c ****   return  bitstatus;
 674              		.loc 1 498 3 is_stmt 1 view .LVU160
 675              	@ .\stlib\STM32F10x_StdPeriph_Driver\src\stm32f10x_adc.c:499: }
 499:.\stlib\STM32F10x_StdPeriph_Driver\src/stm32f10x_adc.c **** }
 676              		.loc 1 499 1 is_stmt 0 view .LVU161
 677 0126 C0F38050 		ubfx	r0, r0, #22, #1	@, _1,,
 678              	.LVL39:
 679              		.loc 1 499 1 view .LVU162
 680 012a 7047     		bx	lr	@
 681              		.cfi_endproc
 682              	.LFE40:
 683              		.size	ADC_GetSoftwareStartConvStatus, .-ADC_GetSoftwareStartConvStatus
 684              		.align	1
 685              		.global	ADC_DiscModeChannelCountConfig
 686              		.syntax unified
 687              		.thumb
 688              		.thumb_func
 689              		.fpu softvfp
 690              		.type	ADC_DiscModeChannelCountConfig, %function
 691              	ADC_DiscModeChannelCountConfig:
 692              	.LVL40:
 693              	.LFB41:
 500:.\stlib\STM32F10x_StdPeriph_Driver\src/stm32f10x_adc.c **** 
 501:.\stlib\STM32F10x_StdPeriph_Driver\src/stm32f10x_adc.c **** /**
 502:.\stlib\STM32F10x_StdPeriph_Driver\src/stm32f10x_adc.c ****   * @brief  Configures the discontinuous mode for the selected ADC regular
 503:.\stlib\STM32F10x_StdPeriph_Driver\src/stm32f10x_adc.c ****   *         group channel.
 504:.\stlib\STM32F10x_StdPeriph_Driver\src/stm32f10x_adc.c ****   * @param  ADCx: where x can be 1, 2 or 3 to select the ADC peripheral.
 505:.\stlib\STM32F10x_StdPeriph_Driver\src/stm32f10x_adc.c ****   * @param  Number: specifies the discontinuous mode regular channel
 506:.\stlib\STM32F10x_StdPeriph_Driver\src/stm32f10x_adc.c ****   *         count value. This number must be between 1 and 8.
 507:.\stlib\STM32F10x_StdPeriph_Driver\src/stm32f10x_adc.c ****   * @retval None
 508:.\stlib\STM32F10x_StdPeriph_Driver\src/stm32f10x_adc.c ****   */
 509:.\stlib\STM32F10x_StdPeriph_Driver\src/stm32f10x_adc.c **** void ADC_DiscModeChannelCountConfig(ADC_TypeDef* ADCx, uint8_t Number)
 510:.\stlib\STM32F10x_StdPeriph_Driver\src/stm32f10x_adc.c **** {
 694              		.loc 1 510 1 is_stmt 1 view -0
 695              		.cfi_startproc
 696              		@ args = 0, pretend = 0, frame = 0
 697              		@ frame_needed = 0, uses_anonymous_args = 0
 698              		@ link register save eliminated.
 511:.\stlib\STM32F10x_StdPeriph_Driver\src/stm32f10x_adc.c ****   uint32_t tmpreg1 = 0;
 699              		.loc 1 511 3 view .LVU164
 512:.\stlib\STM32F10x_StdPeriph_Driver\src/stm32f10x_adc.c ****   uint32_t tmpreg2 = 0;
 700              		.loc 1 512 3 view .LVU165
 513:.\stlib\STM32F10x_StdPeriph_Driver\src/stm32f10x_adc.c ****   /* Check the parameters */
 514:.\stlib\STM32F10x_StdPeriph_Driver\src/stm32f10x_adc.c ****   assert_param(IS_ADC_ALL_PERIPH(ADCx));
 701              		.loc 1 514 3 view .LVU166
 515:.\stlib\STM32F10x_StdPeriph_Driver\src/stm32f10x_adc.c ****   assert_param(IS_ADC_REGULAR_DISC_NUMBER(Number));
 702              		.loc 1 515 3 view .LVU167
ARM GAS  C:\Users\skey\AppData\Local\Temp\ccIkOQKS.s 			page 23


 516:.\stlib\STM32F10x_StdPeriph_Driver\src/stm32f10x_adc.c ****   /* Get the old register value */
 517:.\stlib\STM32F10x_StdPeriph_Driver\src/stm32f10x_adc.c ****   tmpreg1 = ADCx->CR1;
 703              		.loc 1 517 3 view .LVU168
 704              	@ .\stlib\STM32F10x_StdPeriph_Driver\src\stm32f10x_adc.c:517:   tmpreg1 = ADCx->CR1;
 705              		.loc 1 517 11 is_stmt 0 view .LVU169
 706 012c 4368     		ldr	r3, [r0, #4]	@ tmpreg1, ADCx_5(D)->CR1
 707              	.LVL41:
 518:.\stlib\STM32F10x_StdPeriph_Driver\src/stm32f10x_adc.c ****   /* Clear the old discontinuous mode channel count */
 519:.\stlib\STM32F10x_StdPeriph_Driver\src/stm32f10x_adc.c ****   tmpreg1 &= CR1_DISCNUM_Reset;
 708              		.loc 1 519 3 is_stmt 1 view .LVU170
 709              	@ .\stlib\STM32F10x_StdPeriph_Driver\src\stm32f10x_adc.c:521:   tmpreg2 = Number - 1;
 520:.\stlib\STM32F10x_StdPeriph_Driver\src/stm32f10x_adc.c ****   /* Set the discontinuous mode channel count */
 521:.\stlib\STM32F10x_StdPeriph_Driver\src/stm32f10x_adc.c ****   tmpreg2 = Number - 1;
 710              		.loc 1 521 20 is_stmt 0 view .LVU171
 711 012e 0139     		subs	r1, r1, #1	@ tmpreg2, tmp122,
 712              	.LVL42:
 713              	@ .\stlib\STM32F10x_StdPeriph_Driver\src\stm32f10x_adc.c:519:   tmpreg1 &= CR1_DISCNUM_Reset;
 519:.\stlib\STM32F10x_StdPeriph_Driver\src/stm32f10x_adc.c ****   /* Set the discontinuous mode channel count */
 714              		.loc 1 519 11 view .LVU172
 715 0130 23F46043 		bic	r3, r3, #57344	@ tmpreg1, tmpreg1,
 716              	.LVL43:
 717              		.loc 1 521 3 is_stmt 1 view .LVU173
 522:.\stlib\STM32F10x_StdPeriph_Driver\src/stm32f10x_adc.c ****   tmpreg1 |= tmpreg2 << 13;
 718              		.loc 1 522 3 view .LVU174
 719              	@ .\stlib\STM32F10x_StdPeriph_Driver\src\stm32f10x_adc.c:522:   tmpreg1 |= tmpreg2 << 13;
 720              		.loc 1 522 11 is_stmt 0 view .LVU175
 721 0134 43EA4133 		orr	r3, r3, r1, lsl #13	@ tmpreg1, tmpreg1, tmpreg2,
 722              	.LVL44:
 523:.\stlib\STM32F10x_StdPeriph_Driver\src/stm32f10x_adc.c ****   /* Store the new register value */
 524:.\stlib\STM32F10x_StdPeriph_Driver\src/stm32f10x_adc.c ****   ADCx->CR1 = tmpreg1;
 723              		.loc 1 524 3 is_stmt 1 view .LVU176
 724              	@ .\stlib\STM32F10x_StdPeriph_Driver\src\stm32f10x_adc.c:524:   ADCx->CR1 = tmpreg1;
 725              		.loc 1 524 13 is_stmt 0 view .LVU177
 726 0138 4360     		str	r3, [r0, #4]	@ tmpreg1, ADCx_5(D)->CR1
 727              	@ .\stlib\STM32F10x_StdPeriph_Driver\src\stm32f10x_adc.c:525: }
 525:.\stlib\STM32F10x_StdPeriph_Driver\src/stm32f10x_adc.c **** }
 728              		.loc 1 525 1 view .LVU178
 729 013a 7047     		bx	lr	@
 730              		.cfi_endproc
 731              	.LFE41:
 732              		.size	ADC_DiscModeChannelCountConfig, .-ADC_DiscModeChannelCountConfig
 733              		.align	1
 734              		.global	ADC_DiscModeCmd
 735              		.syntax unified
 736              		.thumb
 737              		.thumb_func
 738              		.fpu softvfp
 739              		.type	ADC_DiscModeCmd, %function
 740              	ADC_DiscModeCmd:
 741              	.LVL45:
 742              	.LFB42:
 526:.\stlib\STM32F10x_StdPeriph_Driver\src/stm32f10x_adc.c **** 
 527:.\stlib\STM32F10x_StdPeriph_Driver\src/stm32f10x_adc.c **** /**
 528:.\stlib\STM32F10x_StdPeriph_Driver\src/stm32f10x_adc.c ****   * @brief  Enables or disables the discontinuous mode on regular group
 529:.\stlib\STM32F10x_StdPeriph_Driver\src/stm32f10x_adc.c ****   *         channel for the specified ADC
 530:.\stlib\STM32F10x_StdPeriph_Driver\src/stm32f10x_adc.c ****   * @param  ADCx: where x can be 1, 2 or 3 to select the ADC peripheral.
 531:.\stlib\STM32F10x_StdPeriph_Driver\src/stm32f10x_adc.c ****   * @param  NewState: new state of the selected ADC discontinuous mode
ARM GAS  C:\Users\skey\AppData\Local\Temp\ccIkOQKS.s 			page 24


 532:.\stlib\STM32F10x_StdPeriph_Driver\src/stm32f10x_adc.c ****   *         on regular group channel.
 533:.\stlib\STM32F10x_StdPeriph_Driver\src/stm32f10x_adc.c ****   *         This parameter can be: ENABLE or DISABLE.
 534:.\stlib\STM32F10x_StdPeriph_Driver\src/stm32f10x_adc.c ****   * @retval None
 535:.\stlib\STM32F10x_StdPeriph_Driver\src/stm32f10x_adc.c ****   */
 536:.\stlib\STM32F10x_StdPeriph_Driver\src/stm32f10x_adc.c **** void ADC_DiscModeCmd(ADC_TypeDef* ADCx, FunctionalState NewState)
 537:.\stlib\STM32F10x_StdPeriph_Driver\src/stm32f10x_adc.c **** {
 743              		.loc 1 537 1 is_stmt 1 view -0
 744              		.cfi_startproc
 745              		@ args = 0, pretend = 0, frame = 0
 746              		@ frame_needed = 0, uses_anonymous_args = 0
 747              		@ link register save eliminated.
 538:.\stlib\STM32F10x_StdPeriph_Driver\src/stm32f10x_adc.c ****   /* Check the parameters */
 539:.\stlib\STM32F10x_StdPeriph_Driver\src/stm32f10x_adc.c ****   assert_param(IS_ADC_ALL_PERIPH(ADCx));
 748              		.loc 1 539 3 view .LVU180
 540:.\stlib\STM32F10x_StdPeriph_Driver\src/stm32f10x_adc.c ****   assert_param(IS_FUNCTIONAL_STATE(NewState));
 749              		.loc 1 540 3 view .LVU181
 541:.\stlib\STM32F10x_StdPeriph_Driver\src/stm32f10x_adc.c ****   if (NewState != DISABLE)
 750              		.loc 1 541 3 view .LVU182
 751              	@ .\stlib\STM32F10x_StdPeriph_Driver\src\stm32f10x_adc.c:544:     ADCx->CR1 |= CR1_DISCEN_Set;
 542:.\stlib\STM32F10x_StdPeriph_Driver\src/stm32f10x_adc.c ****   {
 543:.\stlib\STM32F10x_StdPeriph_Driver\src/stm32f10x_adc.c ****     /* Enable the selected ADC regular discontinuous mode */
 544:.\stlib\STM32F10x_StdPeriph_Driver\src/stm32f10x_adc.c ****     ADCx->CR1 |= CR1_DISCEN_Set;
 752              		.loc 1 544 15 is_stmt 0 view .LVU183
 753 013c 4368     		ldr	r3, [r0, #4]	@ _1,
 754              	@ .\stlib\STM32F10x_StdPeriph_Driver\src\stm32f10x_adc.c:541:   if (NewState != DISABLE)
 541:.\stlib\STM32F10x_StdPeriph_Driver\src/stm32f10x_adc.c ****   if (NewState != DISABLE)
 755              		.loc 1 541 6 view .LVU184
 756 013e 19B1     		cbz	r1, .L35	@ tmp117,
 757              		.loc 1 544 5 is_stmt 1 view .LVU185
 758              	@ .\stlib\STM32F10x_StdPeriph_Driver\src\stm32f10x_adc.c:544:     ADCx->CR1 |= CR1_DISCEN_Set;
 759              		.loc 1 544 15 is_stmt 0 view .LVU186
 760 0140 43F40063 		orr	r3, r3, #2048	@ _2, _1,
 761              	.L37:
 762              	@ .\stlib\STM32F10x_StdPeriph_Driver\src\stm32f10x_adc.c:549:     ADCx->CR1 &= CR1_DISCEN_Reset;
 545:.\stlib\STM32F10x_StdPeriph_Driver\src/stm32f10x_adc.c ****   }
 546:.\stlib\STM32F10x_StdPeriph_Driver\src/stm32f10x_adc.c ****   else
 547:.\stlib\STM32F10x_StdPeriph_Driver\src/stm32f10x_adc.c ****   {
 548:.\stlib\STM32F10x_StdPeriph_Driver\src/stm32f10x_adc.c ****     /* Disable the selected ADC regular discontinuous mode */
 549:.\stlib\STM32F10x_StdPeriph_Driver\src/stm32f10x_adc.c ****     ADCx->CR1 &= CR1_DISCEN_Reset;
 763              		.loc 1 549 15 view .LVU187
 764 0144 4360     		str	r3, [r0, #4]	@ _4,
 765              	@ .\stlib\STM32F10x_StdPeriph_Driver\src\stm32f10x_adc.c:551: }
 550:.\stlib\STM32F10x_StdPeriph_Driver\src/stm32f10x_adc.c ****   }
 551:.\stlib\STM32F10x_StdPeriph_Driver\src/stm32f10x_adc.c **** }
 766              		.loc 1 551 1 view .LVU188
 767 0146 7047     		bx	lr	@
 768              	.L35:
 549:.\stlib\STM32F10x_StdPeriph_Driver\src/stm32f10x_adc.c ****   }
 769              		.loc 1 549 5 is_stmt 1 view .LVU189
 770              	@ .\stlib\STM32F10x_StdPeriph_Driver\src\stm32f10x_adc.c:549:     ADCx->CR1 &= CR1_DISCEN_Reset;
 549:.\stlib\STM32F10x_StdPeriph_Driver\src/stm32f10x_adc.c ****   }
 771              		.loc 1 549 15 is_stmt 0 view .LVU190
 772 0148 23F40063 		bic	r3, r3, #2048	@ _4, _3,
 773 014c FAE7     		b	.L37		@
 774              		.cfi_endproc
 775              	.LFE42:
 776              		.size	ADC_DiscModeCmd, .-ADC_DiscModeCmd
ARM GAS  C:\Users\skey\AppData\Local\Temp\ccIkOQKS.s 			page 25


 777              		.align	1
 778              		.global	ADC_RegularChannelConfig
 779              		.syntax unified
 780              		.thumb
 781              		.thumb_func
 782              		.fpu softvfp
 783              		.type	ADC_RegularChannelConfig, %function
 784              	ADC_RegularChannelConfig:
 785              	.LVL46:
 786              	.LFB43:
 552:.\stlib\STM32F10x_StdPeriph_Driver\src/stm32f10x_adc.c **** 
 553:.\stlib\STM32F10x_StdPeriph_Driver\src/stm32f10x_adc.c **** /**
 554:.\stlib\STM32F10x_StdPeriph_Driver\src/stm32f10x_adc.c ****   * @brief  Configures for the selected ADC regular channel its corresponding
 555:.\stlib\STM32F10x_StdPeriph_Driver\src/stm32f10x_adc.c ****   *         rank in the sequencer and its sample time.
 556:.\stlib\STM32F10x_StdPeriph_Driver\src/stm32f10x_adc.c ****   * @param  ADCx: where x can be 1, 2 or 3 to select the ADC peripheral.
 557:.\stlib\STM32F10x_StdPeriph_Driver\src/stm32f10x_adc.c ****   * @param  ADC_Channel: the ADC channel to configure. 
 558:.\stlib\STM32F10x_StdPeriph_Driver\src/stm32f10x_adc.c ****   *   This parameter can be one of the following values:
 559:.\stlib\STM32F10x_StdPeriph_Driver\src/stm32f10x_adc.c ****   *     @arg ADC_Channel_0: ADC Channel0 selected
 560:.\stlib\STM32F10x_StdPeriph_Driver\src/stm32f10x_adc.c ****   *     @arg ADC_Channel_1: ADC Channel1 selected
 561:.\stlib\STM32F10x_StdPeriph_Driver\src/stm32f10x_adc.c ****   *     @arg ADC_Channel_2: ADC Channel2 selected
 562:.\stlib\STM32F10x_StdPeriph_Driver\src/stm32f10x_adc.c ****   *     @arg ADC_Channel_3: ADC Channel3 selected
 563:.\stlib\STM32F10x_StdPeriph_Driver\src/stm32f10x_adc.c ****   *     @arg ADC_Channel_4: ADC Channel4 selected
 564:.\stlib\STM32F10x_StdPeriph_Driver\src/stm32f10x_adc.c ****   *     @arg ADC_Channel_5: ADC Channel5 selected
 565:.\stlib\STM32F10x_StdPeriph_Driver\src/stm32f10x_adc.c ****   *     @arg ADC_Channel_6: ADC Channel6 selected
 566:.\stlib\STM32F10x_StdPeriph_Driver\src/stm32f10x_adc.c ****   *     @arg ADC_Channel_7: ADC Channel7 selected
 567:.\stlib\STM32F10x_StdPeriph_Driver\src/stm32f10x_adc.c ****   *     @arg ADC_Channel_8: ADC Channel8 selected
 568:.\stlib\STM32F10x_StdPeriph_Driver\src/stm32f10x_adc.c ****   *     @arg ADC_Channel_9: ADC Channel9 selected
 569:.\stlib\STM32F10x_StdPeriph_Driver\src/stm32f10x_adc.c ****   *     @arg ADC_Channel_10: ADC Channel10 selected
 570:.\stlib\STM32F10x_StdPeriph_Driver\src/stm32f10x_adc.c ****   *     @arg ADC_Channel_11: ADC Channel11 selected
 571:.\stlib\STM32F10x_StdPeriph_Driver\src/stm32f10x_adc.c ****   *     @arg ADC_Channel_12: ADC Channel12 selected
 572:.\stlib\STM32F10x_StdPeriph_Driver\src/stm32f10x_adc.c ****   *     @arg ADC_Channel_13: ADC Channel13 selected
 573:.\stlib\STM32F10x_StdPeriph_Driver\src/stm32f10x_adc.c ****   *     @arg ADC_Channel_14: ADC Channel14 selected
 574:.\stlib\STM32F10x_StdPeriph_Driver\src/stm32f10x_adc.c ****   *     @arg ADC_Channel_15: ADC Channel15 selected
 575:.\stlib\STM32F10x_StdPeriph_Driver\src/stm32f10x_adc.c ****   *     @arg ADC_Channel_16: ADC Channel16 selected
 576:.\stlib\STM32F10x_StdPeriph_Driver\src/stm32f10x_adc.c ****   *     @arg ADC_Channel_17: ADC Channel17 selected
 577:.\stlib\STM32F10x_StdPeriph_Driver\src/stm32f10x_adc.c ****   * @param  Rank: The rank in the regular group sequencer. This parameter must be between 1 to 16.
 578:.\stlib\STM32F10x_StdPeriph_Driver\src/stm32f10x_adc.c ****   * @param  ADC_SampleTime: The sample time value to be set for the selected channel. 
 579:.\stlib\STM32F10x_StdPeriph_Driver\src/stm32f10x_adc.c ****   *   This parameter can be one of the following values:
 580:.\stlib\STM32F10x_StdPeriph_Driver\src/stm32f10x_adc.c ****   *     @arg ADC_SampleTime_1Cycles5: Sample time equal to 1.5 cycles
 581:.\stlib\STM32F10x_StdPeriph_Driver\src/stm32f10x_adc.c ****   *     @arg ADC_SampleTime_7Cycles5: Sample time equal to 7.5 cycles
 582:.\stlib\STM32F10x_StdPeriph_Driver\src/stm32f10x_adc.c ****   *     @arg ADC_SampleTime_13Cycles5: Sample time equal to 13.5 cycles
 583:.\stlib\STM32F10x_StdPeriph_Driver\src/stm32f10x_adc.c ****   *     @arg ADC_SampleTime_28Cycles5: Sample time equal to 28.5 cycles	
 584:.\stlib\STM32F10x_StdPeriph_Driver\src/stm32f10x_adc.c ****   *     @arg ADC_SampleTime_41Cycles5: Sample time equal to 41.5 cycles	
 585:.\stlib\STM32F10x_StdPeriph_Driver\src/stm32f10x_adc.c ****   *     @arg ADC_SampleTime_55Cycles5: Sample time equal to 55.5 cycles	
 586:.\stlib\STM32F10x_StdPeriph_Driver\src/stm32f10x_adc.c ****   *     @arg ADC_SampleTime_71Cycles5: Sample time equal to 71.5 cycles	
 587:.\stlib\STM32F10x_StdPeriph_Driver\src/stm32f10x_adc.c ****   *     @arg ADC_SampleTime_239Cycles5: Sample time equal to 239.5 cycles	
 588:.\stlib\STM32F10x_StdPeriph_Driver\src/stm32f10x_adc.c ****   * @retval None
 589:.\stlib\STM32F10x_StdPeriph_Driver\src/stm32f10x_adc.c ****   */
 590:.\stlib\STM32F10x_StdPeriph_Driver\src/stm32f10x_adc.c **** void ADC_RegularChannelConfig(ADC_TypeDef* ADCx, uint8_t ADC_Channel, uint8_t Rank, uint8_t ADC_Sam
 591:.\stlib\STM32F10x_StdPeriph_Driver\src/stm32f10x_adc.c **** {
 787              		.loc 1 591 1 is_stmt 1 view -0
 788              		.cfi_startproc
 789              		@ args = 0, pretend = 0, frame = 0
 790              		@ frame_needed = 0, uses_anonymous_args = 0
 592:.\stlib\STM32F10x_StdPeriph_Driver\src/stm32f10x_adc.c ****   uint32_t tmpreg1 = 0, tmpreg2 = 0;
 791              		.loc 1 592 3 view .LVU192
 593:.\stlib\STM32F10x_StdPeriph_Driver\src/stm32f10x_adc.c ****   /* Check the parameters */
ARM GAS  C:\Users\skey\AppData\Local\Temp\ccIkOQKS.s 			page 26


 594:.\stlib\STM32F10x_StdPeriph_Driver\src/stm32f10x_adc.c ****   assert_param(IS_ADC_ALL_PERIPH(ADCx));
 792              		.loc 1 594 3 view .LVU193
 595:.\stlib\STM32F10x_StdPeriph_Driver\src/stm32f10x_adc.c ****   assert_param(IS_ADC_CHANNEL(ADC_Channel));
 793              		.loc 1 595 3 view .LVU194
 596:.\stlib\STM32F10x_StdPeriph_Driver\src/stm32f10x_adc.c ****   assert_param(IS_ADC_REGULAR_RANK(Rank));
 794              		.loc 1 596 3 view .LVU195
 597:.\stlib\STM32F10x_StdPeriph_Driver\src/stm32f10x_adc.c ****   assert_param(IS_ADC_SAMPLE_TIME(ADC_SampleTime));
 795              		.loc 1 597 3 view .LVU196
 598:.\stlib\STM32F10x_StdPeriph_Driver\src/stm32f10x_adc.c ****   /* if ADC_Channel_10 ... ADC_Channel_17 is selected */
 599:.\stlib\STM32F10x_StdPeriph_Driver\src/stm32f10x_adc.c ****   if (ADC_Channel > ADC_Channel_9)
 796              		.loc 1 599 3 view .LVU197
 797              	@ .\stlib\STM32F10x_StdPeriph_Driver\src\stm32f10x_adc.c:599:   if (ADC_Channel > ADC_Channel_9)
 798              		.loc 1 599 6 is_stmt 0 view .LVU198
 799 014e 0929     		cmp	r1, #9	@ ADC_Channel,
 800              	@ .\stlib\STM32F10x_StdPeriph_Driver\src\stm32f10x_adc.c:591: {
 591:.\stlib\STM32F10x_StdPeriph_Driver\src/stm32f10x_adc.c ****   uint32_t tmpreg1 = 0, tmpreg2 = 0;
 801              		.loc 1 591 1 view .LVU199
 802 0150 70B5     		push	{r4, r5, r6, lr}	@
 803              	.LCFI4:
 804              		.cfi_def_cfa_offset 16
 805              		.cfi_offset 4, -16
 806              		.cfi_offset 5, -12
 807              		.cfi_offset 6, -8
 808              		.cfi_offset 14, -4
 809              	@ .\stlib\STM32F10x_StdPeriph_Driver\src\stm32f10x_adc.c:599:   if (ADC_Channel > ADC_Channel_9)
 810              		.loc 1 599 6 view .LVU200
 811 0152 1BD9     		bls	.L39		@,
 600:.\stlib\STM32F10x_StdPeriph_Driver\src/stm32f10x_adc.c ****   {
 601:.\stlib\STM32F10x_StdPeriph_Driver\src/stm32f10x_adc.c ****     /* Get the old register value */
 602:.\stlib\STM32F10x_StdPeriph_Driver\src/stm32f10x_adc.c ****     tmpreg1 = ADCx->SMPR1;
 812              		.loc 1 602 5 is_stmt 1 view .LVU201
 813              	@ .\stlib\STM32F10x_StdPeriph_Driver\src\stm32f10x_adc.c:604:     tmpreg2 = SMPR1_SMP_Set << (3 * (
 603:.\stlib\STM32F10x_StdPeriph_Driver\src/stm32f10x_adc.c ****     /* Calculate the mask to clear */
 604:.\stlib\STM32F10x_StdPeriph_Driver\src/stm32f10x_adc.c ****     tmpreg2 = SMPR1_SMP_Set << (3 * (ADC_Channel - 10));
 814              		.loc 1 604 13 is_stmt 0 view .LVU202
 815 0154 0726     		movs	r6, #7	@ tmp164,
 816              	@ .\stlib\STM32F10x_StdPeriph_Driver\src\stm32f10x_adc.c:604:     tmpreg2 = SMPR1_SMP_Set << (3 * (
 817              		.loc 1 604 50 view .LVU203
 818 0156 A1F10A04 		sub	r4, r1, #10	@ tmp159, ADC_Channel,
 819              	@ .\stlib\STM32F10x_StdPeriph_Driver\src\stm32f10x_adc.c:602:     tmpreg1 = ADCx->SMPR1;
 602:.\stlib\STM32F10x_StdPeriph_Driver\src/stm32f10x_adc.c ****     /* Calculate the mask to clear */
 820              		.loc 1 602 13 view .LVU204
 821 015a C568     		ldr	r5, [r0, #12]	@ tmpreg1, ADCx_29(D)->SMPR1
 822              	.LVL47:
 823              		.loc 1 604 5 is_stmt 1 view .LVU205
 824              	@ .\stlib\STM32F10x_StdPeriph_Driver\src\stm32f10x_adc.c:604:     tmpreg2 = SMPR1_SMP_Set << (3 * (
 825              		.loc 1 604 35 is_stmt 0 view .LVU206
 826 015c 04EB4404 		add	r4, r4, r4, lsl #1	@ tmp162, tmp159, tmp159,
 827              	.LVL48:
 605:.\stlib\STM32F10x_StdPeriph_Driver\src/stm32f10x_adc.c ****     /* Clear the old channel sample time */
 606:.\stlib\STM32F10x_StdPeriph_Driver\src/stm32f10x_adc.c ****     tmpreg1 &= ~tmpreg2;
 828              		.loc 1 606 5 is_stmt 1 view .LVU207
 829              	@ .\stlib\STM32F10x_StdPeriph_Driver\src\stm32f10x_adc.c:604:     tmpreg2 = SMPR1_SMP_Set << (3 * (
 604:.\stlib\STM32F10x_StdPeriph_Driver\src/stm32f10x_adc.c ****     /* Clear the old channel sample time */
 830              		.loc 1 604 13 is_stmt 0 view .LVU208
 831 0160 A640     		lsls	r6, r6, r4	@ tmpreg2, tmp164, tmp162
 832              	.LVL49:
ARM GAS  C:\Users\skey\AppData\Local\Temp\ccIkOQKS.s 			page 27


 833              	@ .\stlib\STM32F10x_StdPeriph_Driver\src\stm32f10x_adc.c:606:     tmpreg1 &= ~tmpreg2;
 834              		.loc 1 606 13 view .LVU209
 835 0162 25EA0605 		bic	r5, r5, r6	@ tmpreg1, tmpreg1, tmpreg2
 836              	.LVL50:
 607:.\stlib\STM32F10x_StdPeriph_Driver\src/stm32f10x_adc.c ****     /* Calculate the mask to set */
 608:.\stlib\STM32F10x_StdPeriph_Driver\src/stm32f10x_adc.c ****     tmpreg2 = (uint32_t)ADC_SampleTime << (3 * (ADC_Channel - 10));
 837              		.loc 1 608 5 is_stmt 1 view .LVU210
 609:.\stlib\STM32F10x_StdPeriph_Driver\src/stm32f10x_adc.c ****     /* Set the new channel sample time */
 610:.\stlib\STM32F10x_StdPeriph_Driver\src/stm32f10x_adc.c ****     tmpreg1 |= tmpreg2;
 838              		.loc 1 610 5 view .LVU211
 839              	@ .\stlib\STM32F10x_StdPeriph_Driver\src\stm32f10x_adc.c:608:     tmpreg2 = (uint32_t)ADC_SampleTim
 608:.\stlib\STM32F10x_StdPeriph_Driver\src/stm32f10x_adc.c ****     /* Set the new channel sample time */
 840              		.loc 1 608 13 is_stmt 0 view .LVU212
 841 0166 03FA04F4 		lsl	r4, r3, r4	@ tmpreg2, ADC_SampleTime, tmp162
 842              	.LVL51:
 843              	@ .\stlib\STM32F10x_StdPeriph_Driver\src\stm32f10x_adc.c:610:     tmpreg1 |= tmpreg2;
 844              		.loc 1 610 13 view .LVU213
 845 016a 2C43     		orrs	r4, r4, r5	@, tmpreg1, tmpreg2, tmpreg1
 846              	.LVL52:
 611:.\stlib\STM32F10x_StdPeriph_Driver\src/stm32f10x_adc.c ****     /* Store the new register value */
 612:.\stlib\STM32F10x_StdPeriph_Driver\src/stm32f10x_adc.c ****     ADCx->SMPR1 = tmpreg1;
 847              		.loc 1 612 5 is_stmt 1 view .LVU214
 848              	@ .\stlib\STM32F10x_StdPeriph_Driver\src\stm32f10x_adc.c:612:     ADCx->SMPR1 = tmpreg1;
 849              		.loc 1 612 17 is_stmt 0 view .LVU215
 850 016c C460     		str	r4, [r0, #12]	@ tmpreg1, ADCx_29(D)->SMPR1
 851              	.LVL53:
 852              	.L40:
 613:.\stlib\STM32F10x_StdPeriph_Driver\src/stm32f10x_adc.c ****   }
 614:.\stlib\STM32F10x_StdPeriph_Driver\src/stm32f10x_adc.c ****   else /* ADC_Channel include in ADC_Channel_[0..9] */
 615:.\stlib\STM32F10x_StdPeriph_Driver\src/stm32f10x_adc.c ****   {
 616:.\stlib\STM32F10x_StdPeriph_Driver\src/stm32f10x_adc.c ****     /* Get the old register value */
 617:.\stlib\STM32F10x_StdPeriph_Driver\src/stm32f10x_adc.c ****     tmpreg1 = ADCx->SMPR2;
 618:.\stlib\STM32F10x_StdPeriph_Driver\src/stm32f10x_adc.c ****     /* Calculate the mask to clear */
 619:.\stlib\STM32F10x_StdPeriph_Driver\src/stm32f10x_adc.c ****     tmpreg2 = SMPR2_SMP_Set << (3 * ADC_Channel);
 620:.\stlib\STM32F10x_StdPeriph_Driver\src/stm32f10x_adc.c ****     /* Clear the old channel sample time */
 621:.\stlib\STM32F10x_StdPeriph_Driver\src/stm32f10x_adc.c ****     tmpreg1 &= ~tmpreg2;
 622:.\stlib\STM32F10x_StdPeriph_Driver\src/stm32f10x_adc.c ****     /* Calculate the mask to set */
 623:.\stlib\STM32F10x_StdPeriph_Driver\src/stm32f10x_adc.c ****     tmpreg2 = (uint32_t)ADC_SampleTime << (3 * ADC_Channel);
 624:.\stlib\STM32F10x_StdPeriph_Driver\src/stm32f10x_adc.c ****     /* Set the new channel sample time */
 625:.\stlib\STM32F10x_StdPeriph_Driver\src/stm32f10x_adc.c ****     tmpreg1 |= tmpreg2;
 626:.\stlib\STM32F10x_StdPeriph_Driver\src/stm32f10x_adc.c ****     /* Store the new register value */
 627:.\stlib\STM32F10x_StdPeriph_Driver\src/stm32f10x_adc.c ****     ADCx->SMPR2 = tmpreg1;
 628:.\stlib\STM32F10x_StdPeriph_Driver\src/stm32f10x_adc.c ****   }
 629:.\stlib\STM32F10x_StdPeriph_Driver\src/stm32f10x_adc.c ****   /* For Rank 1 to 6 */
 630:.\stlib\STM32F10x_StdPeriph_Driver\src/stm32f10x_adc.c ****   if (Rank < 7)
 853              		.loc 1 630 3 is_stmt 1 view .LVU216
 854              	@ .\stlib\STM32F10x_StdPeriph_Driver\src\stm32f10x_adc.c:630:   if (Rank < 7)
 855              		.loc 1 630 6 is_stmt 0 view .LVU217
 856 016e 062A     		cmp	r2, #6	@ Rank,
 857 0170 18D8     		bhi	.L41		@,
 631:.\stlib\STM32F10x_StdPeriph_Driver\src/stm32f10x_adc.c ****   {
 632:.\stlib\STM32F10x_StdPeriph_Driver\src/stm32f10x_adc.c ****     /* Get the old register value */
 633:.\stlib\STM32F10x_StdPeriph_Driver\src/stm32f10x_adc.c ****     tmpreg1 = ADCx->SQR3;
 858              		.loc 1 633 5 is_stmt 1 view .LVU218
 859              	@ .\stlib\STM32F10x_StdPeriph_Driver\src\stm32f10x_adc.c:635:     tmpreg2 = SQR3_SQ_Set << (5 * (Ra
 634:.\stlib\STM32F10x_StdPeriph_Driver\src/stm32f10x_adc.c ****     /* Calculate the mask to clear */
 635:.\stlib\STM32F10x_StdPeriph_Driver\src/stm32f10x_adc.c ****     tmpreg2 = SQR3_SQ_Set << (5 * (Rank - 1));
ARM GAS  C:\Users\skey\AppData\Local\Temp\ccIkOQKS.s 			page 28


 860              		.loc 1 635 41 is_stmt 0 view .LVU219
 861 0172 531E     		subs	r3, r2, #1	@ tmp176, Rank,
 862              	.LVL54:
 863              	@ .\stlib\STM32F10x_StdPeriph_Driver\src\stm32f10x_adc.c:635:     tmpreg2 = SQR3_SQ_Set << (5 * (Ra
 864              		.loc 1 635 13 view .LVU220
 865 0174 1F22     		movs	r2, #31	@ tmp181,
 866              	.LVL55:
 867              	@ .\stlib\STM32F10x_StdPeriph_Driver\src\stm32f10x_adc.c:633:     tmpreg1 = ADCx->SQR3;
 633:.\stlib\STM32F10x_StdPeriph_Driver\src/stm32f10x_adc.c ****     /* Calculate the mask to clear */
 868              		.loc 1 633 13 view .LVU221
 869 0176 446B     		ldr	r4, [r0, #52]	@ tmpreg1, ADCx_29(D)->SQR3
 870              	.LVL56:
 871              		.loc 1 635 5 is_stmt 1 view .LVU222
 872              	@ .\stlib\STM32F10x_StdPeriph_Driver\src\stm32f10x_adc.c:635:     tmpreg2 = SQR3_SQ_Set << (5 * (Ra
 873              		.loc 1 635 33 is_stmt 0 view .LVU223
 874 0178 03EB8303 		add	r3, r3, r3, lsl #2	@ tmp179, tmp176, tmp176,
 875              	.LVL57:
 636:.\stlib\STM32F10x_StdPeriph_Driver\src/stm32f10x_adc.c ****     /* Clear the old SQx bits for the selected rank */
 637:.\stlib\STM32F10x_StdPeriph_Driver\src/stm32f10x_adc.c ****     tmpreg1 &= ~tmpreg2;
 876              		.loc 1 637 5 is_stmt 1 view .LVU224
 877              	@ .\stlib\STM32F10x_StdPeriph_Driver\src\stm32f10x_adc.c:635:     tmpreg2 = SQR3_SQ_Set << (5 * (Ra
 635:.\stlib\STM32F10x_StdPeriph_Driver\src/stm32f10x_adc.c ****     /* Clear the old SQx bits for the selected rank */
 878              		.loc 1 635 13 is_stmt 0 view .LVU225
 879 017c 9A40     		lsls	r2, r2, r3	@ tmpreg2, tmp181, tmp179
 880              	.LVL58:
 881              	@ .\stlib\STM32F10x_StdPeriph_Driver\src\stm32f10x_adc.c:637:     tmpreg1 &= ~tmpreg2;
 882              		.loc 1 637 13 view .LVU226
 883 017e 24EA0204 		bic	r4, r4, r2	@ tmpreg1, tmpreg1, tmpreg2
 884              	.LVL59:
 638:.\stlib\STM32F10x_StdPeriph_Driver\src/stm32f10x_adc.c ****     /* Calculate the mask to set */
 639:.\stlib\STM32F10x_StdPeriph_Driver\src/stm32f10x_adc.c ****     tmpreg2 = (uint32_t)ADC_Channel << (5 * (Rank - 1));
 885              		.loc 1 639 5 is_stmt 1 view .LVU227
 640:.\stlib\STM32F10x_StdPeriph_Driver\src/stm32f10x_adc.c ****     /* Set the SQx bits for the selected rank */
 641:.\stlib\STM32F10x_StdPeriph_Driver\src/stm32f10x_adc.c ****     tmpreg1 |= tmpreg2;
 886              		.loc 1 641 5 view .LVU228
 887              	@ .\stlib\STM32F10x_StdPeriph_Driver\src\stm32f10x_adc.c:639:     tmpreg2 = (uint32_t)ADC_Channel <
 639:.\stlib\STM32F10x_StdPeriph_Driver\src/stm32f10x_adc.c ****     /* Set the SQx bits for the selected rank */
 888              		.loc 1 639 13 is_stmt 0 view .LVU229
 889 0182 01FA03F2 		lsl	r2, r1, r3	@ tmpreg2, ADC_Channel, tmp179
 890              	.LVL60:
 891              	@ .\stlib\STM32F10x_StdPeriph_Driver\src\stm32f10x_adc.c:641:     tmpreg1 |= tmpreg2;
 892              		.loc 1 641 13 view .LVU230
 893 0186 2243     		orrs	r2, r2, r4	@, tmpreg1, tmpreg2, tmpreg1
 894              	.LVL61:
 642:.\stlib\STM32F10x_StdPeriph_Driver\src/stm32f10x_adc.c ****     /* Store the new register value */
 643:.\stlib\STM32F10x_StdPeriph_Driver\src/stm32f10x_adc.c ****     ADCx->SQR3 = tmpreg1;
 895              		.loc 1 643 5 is_stmt 1 view .LVU231
 896              	@ .\stlib\STM32F10x_StdPeriph_Driver\src\stm32f10x_adc.c:643:     ADCx->SQR3 = tmpreg1;
 897              		.loc 1 643 16 is_stmt 0 view .LVU232
 898 0188 4263     		str	r2, [r0, #52]	@ tmpreg1, ADCx_29(D)->SQR3
 899              	.LVL62:
 900              	.L38:
 901              	@ .\stlib\STM32F10x_StdPeriph_Driver\src\stm32f10x_adc.c:677: }
 644:.\stlib\STM32F10x_StdPeriph_Driver\src/stm32f10x_adc.c ****   }
 645:.\stlib\STM32F10x_StdPeriph_Driver\src/stm32f10x_adc.c ****   /* For Rank 7 to 12 */
 646:.\stlib\STM32F10x_StdPeriph_Driver\src/stm32f10x_adc.c ****   else if (Rank < 13)
 647:.\stlib\STM32F10x_StdPeriph_Driver\src/stm32f10x_adc.c ****   {
ARM GAS  C:\Users\skey\AppData\Local\Temp\ccIkOQKS.s 			page 29


 648:.\stlib\STM32F10x_StdPeriph_Driver\src/stm32f10x_adc.c ****     /* Get the old register value */
 649:.\stlib\STM32F10x_StdPeriph_Driver\src/stm32f10x_adc.c ****     tmpreg1 = ADCx->SQR2;
 650:.\stlib\STM32F10x_StdPeriph_Driver\src/stm32f10x_adc.c ****     /* Calculate the mask to clear */
 651:.\stlib\STM32F10x_StdPeriph_Driver\src/stm32f10x_adc.c ****     tmpreg2 = SQR2_SQ_Set << (5 * (Rank - 7));
 652:.\stlib\STM32F10x_StdPeriph_Driver\src/stm32f10x_adc.c ****     /* Clear the old SQx bits for the selected rank */
 653:.\stlib\STM32F10x_StdPeriph_Driver\src/stm32f10x_adc.c ****     tmpreg1 &= ~tmpreg2;
 654:.\stlib\STM32F10x_StdPeriph_Driver\src/stm32f10x_adc.c ****     /* Calculate the mask to set */
 655:.\stlib\STM32F10x_StdPeriph_Driver\src/stm32f10x_adc.c ****     tmpreg2 = (uint32_t)ADC_Channel << (5 * (Rank - 7));
 656:.\stlib\STM32F10x_StdPeriph_Driver\src/stm32f10x_adc.c ****     /* Set the SQx bits for the selected rank */
 657:.\stlib\STM32F10x_StdPeriph_Driver\src/stm32f10x_adc.c ****     tmpreg1 |= tmpreg2;
 658:.\stlib\STM32F10x_StdPeriph_Driver\src/stm32f10x_adc.c ****     /* Store the new register value */
 659:.\stlib\STM32F10x_StdPeriph_Driver\src/stm32f10x_adc.c ****     ADCx->SQR2 = tmpreg1;
 660:.\stlib\STM32F10x_StdPeriph_Driver\src/stm32f10x_adc.c ****   }
 661:.\stlib\STM32F10x_StdPeriph_Driver\src/stm32f10x_adc.c ****   /* For Rank 13 to 16 */
 662:.\stlib\STM32F10x_StdPeriph_Driver\src/stm32f10x_adc.c ****   else
 663:.\stlib\STM32F10x_StdPeriph_Driver\src/stm32f10x_adc.c ****   {
 664:.\stlib\STM32F10x_StdPeriph_Driver\src/stm32f10x_adc.c ****     /* Get the old register value */
 665:.\stlib\STM32F10x_StdPeriph_Driver\src/stm32f10x_adc.c ****     tmpreg1 = ADCx->SQR1;
 666:.\stlib\STM32F10x_StdPeriph_Driver\src/stm32f10x_adc.c ****     /* Calculate the mask to clear */
 667:.\stlib\STM32F10x_StdPeriph_Driver\src/stm32f10x_adc.c ****     tmpreg2 = SQR1_SQ_Set << (5 * (Rank - 13));
 668:.\stlib\STM32F10x_StdPeriph_Driver\src/stm32f10x_adc.c ****     /* Clear the old SQx bits for the selected rank */
 669:.\stlib\STM32F10x_StdPeriph_Driver\src/stm32f10x_adc.c ****     tmpreg1 &= ~tmpreg2;
 670:.\stlib\STM32F10x_StdPeriph_Driver\src/stm32f10x_adc.c ****     /* Calculate the mask to set */
 671:.\stlib\STM32F10x_StdPeriph_Driver\src/stm32f10x_adc.c ****     tmpreg2 = (uint32_t)ADC_Channel << (5 * (Rank - 13));
 672:.\stlib\STM32F10x_StdPeriph_Driver\src/stm32f10x_adc.c ****     /* Set the SQx bits for the selected rank */
 673:.\stlib\STM32F10x_StdPeriph_Driver\src/stm32f10x_adc.c ****     tmpreg1 |= tmpreg2;
 674:.\stlib\STM32F10x_StdPeriph_Driver\src/stm32f10x_adc.c ****     /* Store the new register value */
 675:.\stlib\STM32F10x_StdPeriph_Driver\src/stm32f10x_adc.c ****     ADCx->SQR1 = tmpreg1;
 676:.\stlib\STM32F10x_StdPeriph_Driver\src/stm32f10x_adc.c ****   }
 677:.\stlib\STM32F10x_StdPeriph_Driver\src/stm32f10x_adc.c **** }
 902              		.loc 1 677 1 view .LVU233
 903 018a 70BD     		pop	{r4, r5, r6, pc}	@
 904              	.LVL63:
 905              	.L39:
 617:.\stlib\STM32F10x_StdPeriph_Driver\src/stm32f10x_adc.c ****     /* Calculate the mask to clear */
 906              		.loc 1 617 5 is_stmt 1 view .LVU234
 907              	@ .\stlib\STM32F10x_StdPeriph_Driver\src\stm32f10x_adc.c:619:     tmpreg2 = SMPR2_SMP_Set << (3 * A
 619:.\stlib\STM32F10x_StdPeriph_Driver\src/stm32f10x_adc.c ****     /* Clear the old channel sample time */
 908              		.loc 1 619 13 is_stmt 0 view .LVU235
 909 018c 0724     		movs	r4, #7	@ tmp171,
 910              	@ .\stlib\STM32F10x_StdPeriph_Driver\src\stm32f10x_adc.c:617:     tmpreg1 = ADCx->SMPR2;
 617:.\stlib\STM32F10x_StdPeriph_Driver\src/stm32f10x_adc.c ****     /* Calculate the mask to clear */
 911              		.loc 1 617 13 view .LVU236
 912 018e 0569     		ldr	r5, [r0, #16]	@ tmpreg1, ADCx_29(D)->SMPR2
 913              	.LVL64:
 619:.\stlib\STM32F10x_StdPeriph_Driver\src/stm32f10x_adc.c ****     /* Clear the old channel sample time */
 914              		.loc 1 619 5 is_stmt 1 view .LVU237
 915              	@ .\stlib\STM32F10x_StdPeriph_Driver\src\stm32f10x_adc.c:619:     tmpreg2 = SMPR2_SMP_Set << (3 * A
 619:.\stlib\STM32F10x_StdPeriph_Driver\src/stm32f10x_adc.c ****     /* Clear the old channel sample time */
 916              		.loc 1 619 35 is_stmt 0 view .LVU238
 917 0190 01EB4106 		add	r6, r1, r1, lsl #1	@ tmp169, ADC_Channel, ADC_Channel,
 918              	.LVL65:
 621:.\stlib\STM32F10x_StdPeriph_Driver\src/stm32f10x_adc.c ****     /* Calculate the mask to set */
 919              		.loc 1 621 5 is_stmt 1 view .LVU239
 920              	@ .\stlib\STM32F10x_StdPeriph_Driver\src\stm32f10x_adc.c:619:     tmpreg2 = SMPR2_SMP_Set << (3 * A
 619:.\stlib\STM32F10x_StdPeriph_Driver\src/stm32f10x_adc.c ****     /* Clear the old channel sample time */
 921              		.loc 1 619 13 is_stmt 0 view .LVU240
ARM GAS  C:\Users\skey\AppData\Local\Temp\ccIkOQKS.s 			page 30


 922 0194 B440     		lsls	r4, r4, r6	@ tmpreg2, tmp171, tmp169
 923              	.LVL66:
 924              	@ .\stlib\STM32F10x_StdPeriph_Driver\src\stm32f10x_adc.c:621:     tmpreg1 &= ~tmpreg2;
 621:.\stlib\STM32F10x_StdPeriph_Driver\src/stm32f10x_adc.c ****     /* Calculate the mask to set */
 925              		.loc 1 621 13 view .LVU241
 926 0196 25EA0405 		bic	r5, r5, r4	@ tmpreg1, tmpreg1, tmpreg2
 927              	.LVL67:
 623:.\stlib\STM32F10x_StdPeriph_Driver\src/stm32f10x_adc.c ****     /* Set the new channel sample time */
 928              		.loc 1 623 5 is_stmt 1 view .LVU242
 625:.\stlib\STM32F10x_StdPeriph_Driver\src/stm32f10x_adc.c ****     /* Store the new register value */
 929              		.loc 1 625 5 view .LVU243
 930              	@ .\stlib\STM32F10x_StdPeriph_Driver\src\stm32f10x_adc.c:623:     tmpreg2 = (uint32_t)ADC_SampleTim
 623:.\stlib\STM32F10x_StdPeriph_Driver\src/stm32f10x_adc.c ****     /* Set the new channel sample time */
 931              		.loc 1 623 13 is_stmt 0 view .LVU244
 932 019a 03FA06F4 		lsl	r4, r3, r6	@ tmpreg2, ADC_SampleTime, tmp169
 933              	.LVL68:
 934              	@ .\stlib\STM32F10x_StdPeriph_Driver\src\stm32f10x_adc.c:625:     tmpreg1 |= tmpreg2;
 625:.\stlib\STM32F10x_StdPeriph_Driver\src/stm32f10x_adc.c ****     /* Store the new register value */
 935              		.loc 1 625 13 view .LVU245
 936 019e 2C43     		orrs	r4, r4, r5	@, tmpreg1, tmpreg2, tmpreg1
 937              	.LVL69:
 627:.\stlib\STM32F10x_StdPeriph_Driver\src/stm32f10x_adc.c ****   }
 938              		.loc 1 627 5 is_stmt 1 view .LVU246
 939              	@ .\stlib\STM32F10x_StdPeriph_Driver\src\stm32f10x_adc.c:627:     ADCx->SMPR2 = tmpreg1;
 627:.\stlib\STM32F10x_StdPeriph_Driver\src/stm32f10x_adc.c ****   }
 940              		.loc 1 627 17 is_stmt 0 view .LVU247
 941 01a0 0461     		str	r4, [r0, #16]	@ tmpreg1, ADCx_29(D)->SMPR2
 942 01a2 E4E7     		b	.L40		@
 943              	.LVL70:
 944              	.L41:
 646:.\stlib\STM32F10x_StdPeriph_Driver\src/stm32f10x_adc.c ****   {
 945              		.loc 1 646 8 is_stmt 1 view .LVU248
 946              	@ .\stlib\STM32F10x_StdPeriph_Driver\src\stm32f10x_adc.c:646:   else if (Rank < 13)
 646:.\stlib\STM32F10x_StdPeriph_Driver\src/stm32f10x_adc.c ****   {
 947              		.loc 1 646 11 is_stmt 0 view .LVU249
 948 01a4 0C2A     		cmp	r2, #12	@ Rank,
 949 01a6 0CD8     		bhi	.L43		@,
 649:.\stlib\STM32F10x_StdPeriph_Driver\src/stm32f10x_adc.c ****     /* Calculate the mask to clear */
 950              		.loc 1 649 5 is_stmt 1 view .LVU250
 951              	@ .\stlib\STM32F10x_StdPeriph_Driver\src\stm32f10x_adc.c:651:     tmpreg2 = SQR2_SQ_Set << (5 * (Ra
 651:.\stlib\STM32F10x_StdPeriph_Driver\src/stm32f10x_adc.c ****     /* Clear the old SQx bits for the selected rank */
 952              		.loc 1 651 13 is_stmt 0 view .LVU251
 953 01a8 1F24     		movs	r4, #31	@ tmp191,
 954              	.LVL71:
 955              	@ .\stlib\STM32F10x_StdPeriph_Driver\src\stm32f10x_adc.c:651:     tmpreg2 = SQR2_SQ_Set << (5 * (Ra
 651:.\stlib\STM32F10x_StdPeriph_Driver\src/stm32f10x_adc.c ****     /* Clear the old SQx bits for the selected rank */
 956              		.loc 1 651 41 view .LVU252
 957 01aa 073A     		subs	r2, r2, #7	@ tmp186, Rank,
 958              	.LVL72:
 959              	@ .\stlib\STM32F10x_StdPeriph_Driver\src\stm32f10x_adc.c:649:     tmpreg1 = ADCx->SQR2;
 649:.\stlib\STM32F10x_StdPeriph_Driver\src/stm32f10x_adc.c ****     /* Calculate the mask to clear */
 960              		.loc 1 649 13 view .LVU253
 961 01ac 036B     		ldr	r3, [r0, #48]	@ tmpreg1, ADCx_29(D)->SQR2
 962              	.LVL73:
 651:.\stlib\STM32F10x_StdPeriph_Driver\src/stm32f10x_adc.c ****     /* Clear the old SQx bits for the selected rank */
 963              		.loc 1 651 5 is_stmt 1 view .LVU254
 964              	@ .\stlib\STM32F10x_StdPeriph_Driver\src\stm32f10x_adc.c:651:     tmpreg2 = SQR2_SQ_Set << (5 * (Ra
ARM GAS  C:\Users\skey\AppData\Local\Temp\ccIkOQKS.s 			page 31


 651:.\stlib\STM32F10x_StdPeriph_Driver\src/stm32f10x_adc.c ****     /* Clear the old SQx bits for the selected rank */
 965              		.loc 1 651 33 is_stmt 0 view .LVU255
 966 01ae 02EB8202 		add	r2, r2, r2, lsl #2	@ tmp189, tmp186, tmp186,
 967              	.LVL74:
 653:.\stlib\STM32F10x_StdPeriph_Driver\src/stm32f10x_adc.c ****     /* Calculate the mask to set */
 968              		.loc 1 653 5 is_stmt 1 view .LVU256
 969              	@ .\stlib\STM32F10x_StdPeriph_Driver\src\stm32f10x_adc.c:651:     tmpreg2 = SQR2_SQ_Set << (5 * (Ra
 651:.\stlib\STM32F10x_StdPeriph_Driver\src/stm32f10x_adc.c ****     /* Clear the old SQx bits for the selected rank */
 970              		.loc 1 651 13 is_stmt 0 view .LVU257
 971 01b2 9440     		lsls	r4, r4, r2	@ tmpreg2, tmp191, tmp189
 972              	.LVL75:
 973              	@ .\stlib\STM32F10x_StdPeriph_Driver\src\stm32f10x_adc.c:653:     tmpreg1 &= ~tmpreg2;
 653:.\stlib\STM32F10x_StdPeriph_Driver\src/stm32f10x_adc.c ****     /* Calculate the mask to set */
 974              		.loc 1 653 13 view .LVU258
 975 01b4 23EA0403 		bic	r3, r3, r4	@ tmpreg1, tmpreg1, tmpreg2
 976              	.LVL76:
 655:.\stlib\STM32F10x_StdPeriph_Driver\src/stm32f10x_adc.c ****     /* Set the SQx bits for the selected rank */
 977              		.loc 1 655 5 is_stmt 1 view .LVU259
 657:.\stlib\STM32F10x_StdPeriph_Driver\src/stm32f10x_adc.c ****     /* Store the new register value */
 978              		.loc 1 657 5 view .LVU260
 979              	@ .\stlib\STM32F10x_StdPeriph_Driver\src\stm32f10x_adc.c:655:     tmpreg2 = (uint32_t)ADC_Channel <
 655:.\stlib\STM32F10x_StdPeriph_Driver\src/stm32f10x_adc.c ****     /* Set the SQx bits for the selected rank */
 980              		.loc 1 655 13 is_stmt 0 view .LVU261
 981 01b8 01FA02F2 		lsl	r2, r1, r2	@ tmpreg2, ADC_Channel, tmp189
 982              	.LVL77:
 983              	@ .\stlib\STM32F10x_StdPeriph_Driver\src\stm32f10x_adc.c:657:     tmpreg1 |= tmpreg2;
 657:.\stlib\STM32F10x_StdPeriph_Driver\src/stm32f10x_adc.c ****     /* Store the new register value */
 984              		.loc 1 657 13 view .LVU262
 985 01bc 1A43     		orrs	r2, r2, r3	@, tmpreg1, tmpreg2, tmpreg1
 986              	.LVL78:
 659:.\stlib\STM32F10x_StdPeriph_Driver\src/stm32f10x_adc.c ****   }
 987              		.loc 1 659 5 is_stmt 1 view .LVU263
 988              	@ .\stlib\STM32F10x_StdPeriph_Driver\src\stm32f10x_adc.c:659:     ADCx->SQR2 = tmpreg1;
 659:.\stlib\STM32F10x_StdPeriph_Driver\src/stm32f10x_adc.c ****   }
 989              		.loc 1 659 16 is_stmt 0 view .LVU264
 990 01be 0263     		str	r2, [r0, #48]	@ tmpreg1, ADCx_29(D)->SQR2
 991 01c0 E3E7     		b	.L38		@
 992              	.LVL79:
 993              	.L43:
 665:.\stlib\STM32F10x_StdPeriph_Driver\src/stm32f10x_adc.c ****     /* Calculate the mask to clear */
 994              		.loc 1 665 5 is_stmt 1 view .LVU265
 995              	@ .\stlib\STM32F10x_StdPeriph_Driver\src\stm32f10x_adc.c:667:     tmpreg2 = SQR1_SQ_Set << (5 * (Ra
 667:.\stlib\STM32F10x_StdPeriph_Driver\src/stm32f10x_adc.c ****     /* Clear the old SQx bits for the selected rank */
 996              		.loc 1 667 13 is_stmt 0 view .LVU266
 997 01c2 1F24     		movs	r4, #31	@ tmp199,
 998              	.LVL80:
 999              	@ .\stlib\STM32F10x_StdPeriph_Driver\src\stm32f10x_adc.c:667:     tmpreg2 = SQR1_SQ_Set << (5 * (Ra
 667:.\stlib\STM32F10x_StdPeriph_Driver\src/stm32f10x_adc.c ****     /* Clear the old SQx bits for the selected rank */
 1000              		.loc 1 667 41 view .LVU267
 1001 01c4 0D3A     		subs	r2, r2, #13	@ tmp194, Rank,
 1002              	.LVL81:
 1003              	@ .\stlib\STM32F10x_StdPeriph_Driver\src\stm32f10x_adc.c:665:     tmpreg1 = ADCx->SQR1;
 665:.\stlib\STM32F10x_StdPeriph_Driver\src/stm32f10x_adc.c ****     /* Calculate the mask to clear */
 1004              		.loc 1 665 13 view .LVU268
 1005 01c6 C36A     		ldr	r3, [r0, #44]	@ tmpreg1, ADCx_29(D)->SQR1
 1006              	.LVL82:
 667:.\stlib\STM32F10x_StdPeriph_Driver\src/stm32f10x_adc.c ****     /* Clear the old SQx bits for the selected rank */
ARM GAS  C:\Users\skey\AppData\Local\Temp\ccIkOQKS.s 			page 32


 1007              		.loc 1 667 5 is_stmt 1 view .LVU269
 1008              	@ .\stlib\STM32F10x_StdPeriph_Driver\src\stm32f10x_adc.c:667:     tmpreg2 = SQR1_SQ_Set << (5 * (Ra
 667:.\stlib\STM32F10x_StdPeriph_Driver\src/stm32f10x_adc.c ****     /* Clear the old SQx bits for the selected rank */
 1009              		.loc 1 667 33 is_stmt 0 view .LVU270
 1010 01c8 02EB8202 		add	r2, r2, r2, lsl #2	@ tmp197, tmp194, tmp194,
 1011              	.LVL83:
 669:.\stlib\STM32F10x_StdPeriph_Driver\src/stm32f10x_adc.c ****     /* Calculate the mask to set */
 1012              		.loc 1 669 5 is_stmt 1 view .LVU271
 1013              	@ .\stlib\STM32F10x_StdPeriph_Driver\src\stm32f10x_adc.c:667:     tmpreg2 = SQR1_SQ_Set << (5 * (Ra
 667:.\stlib\STM32F10x_StdPeriph_Driver\src/stm32f10x_adc.c ****     /* Clear the old SQx bits for the selected rank */
 1014              		.loc 1 667 13 is_stmt 0 view .LVU272
 1015 01cc 9440     		lsls	r4, r4, r2	@ tmpreg2, tmp199, tmp197
 1016              	.LVL84:
 1017              	@ .\stlib\STM32F10x_StdPeriph_Driver\src\stm32f10x_adc.c:669:     tmpreg1 &= ~tmpreg2;
 669:.\stlib\STM32F10x_StdPeriph_Driver\src/stm32f10x_adc.c ****     /* Calculate the mask to set */
 1018              		.loc 1 669 13 view .LVU273
 1019 01ce 23EA0403 		bic	r3, r3, r4	@ tmpreg1, tmpreg1, tmpreg2
 1020              	.LVL85:
 671:.\stlib\STM32F10x_StdPeriph_Driver\src/stm32f10x_adc.c ****     /* Set the SQx bits for the selected rank */
 1021              		.loc 1 671 5 is_stmt 1 view .LVU274
 673:.\stlib\STM32F10x_StdPeriph_Driver\src/stm32f10x_adc.c ****     /* Store the new register value */
 1022              		.loc 1 673 5 view .LVU275
 1023              	@ .\stlib\STM32F10x_StdPeriph_Driver\src\stm32f10x_adc.c:671:     tmpreg2 = (uint32_t)ADC_Channel <
 671:.\stlib\STM32F10x_StdPeriph_Driver\src/stm32f10x_adc.c ****     /* Set the SQx bits for the selected rank */
 1024              		.loc 1 671 13 is_stmt 0 view .LVU276
 1025 01d2 01FA02F2 		lsl	r2, r1, r2	@ tmpreg2, ADC_Channel, tmp197
 1026              	.LVL86:
 1027              	@ .\stlib\STM32F10x_StdPeriph_Driver\src\stm32f10x_adc.c:673:     tmpreg1 |= tmpreg2;
 673:.\stlib\STM32F10x_StdPeriph_Driver\src/stm32f10x_adc.c ****     /* Store the new register value */
 1028              		.loc 1 673 13 view .LVU277
 1029 01d6 1A43     		orrs	r2, r2, r3	@, tmpreg1, tmpreg2, tmpreg1
 1030              	.LVL87:
 675:.\stlib\STM32F10x_StdPeriph_Driver\src/stm32f10x_adc.c ****   }
 1031              		.loc 1 675 5 is_stmt 1 view .LVU278
 1032              	@ .\stlib\STM32F10x_StdPeriph_Driver\src\stm32f10x_adc.c:675:     ADCx->SQR1 = tmpreg1;
 675:.\stlib\STM32F10x_StdPeriph_Driver\src/stm32f10x_adc.c ****   }
 1033              		.loc 1 675 16 is_stmt 0 view .LVU279
 1034 01d8 C262     		str	r2, [r0, #44]	@ tmpreg1, ADCx_29(D)->SQR1
 1035              	@ .\stlib\STM32F10x_StdPeriph_Driver\src\stm32f10x_adc.c:677: }
 1036              		.loc 1 677 1 view .LVU280
 1037 01da D6E7     		b	.L38		@
 1038              		.cfi_endproc
 1039              	.LFE43:
 1040              		.size	ADC_RegularChannelConfig, .-ADC_RegularChannelConfig
 1041              		.align	1
 1042              		.global	ADC_ExternalTrigConvCmd
 1043              		.syntax unified
 1044              		.thumb
 1045              		.thumb_func
 1046              		.fpu softvfp
 1047              		.type	ADC_ExternalTrigConvCmd, %function
 1048              	ADC_ExternalTrigConvCmd:
 1049              	.LVL88:
 1050              	.LFB44:
 678:.\stlib\STM32F10x_StdPeriph_Driver\src/stm32f10x_adc.c **** 
 679:.\stlib\STM32F10x_StdPeriph_Driver\src/stm32f10x_adc.c **** /**
 680:.\stlib\STM32F10x_StdPeriph_Driver\src/stm32f10x_adc.c ****   * @brief  Enables or disables the ADCx conversion through external trigger.
ARM GAS  C:\Users\skey\AppData\Local\Temp\ccIkOQKS.s 			page 33


 681:.\stlib\STM32F10x_StdPeriph_Driver\src/stm32f10x_adc.c ****   * @param  ADCx: where x can be 1, 2 or 3 to select the ADC peripheral.
 682:.\stlib\STM32F10x_StdPeriph_Driver\src/stm32f10x_adc.c ****   * @param  NewState: new state of the selected ADC external trigger start of conversion.
 683:.\stlib\STM32F10x_StdPeriph_Driver\src/stm32f10x_adc.c ****   *   This parameter can be: ENABLE or DISABLE.
 684:.\stlib\STM32F10x_StdPeriph_Driver\src/stm32f10x_adc.c ****   * @retval None
 685:.\stlib\STM32F10x_StdPeriph_Driver\src/stm32f10x_adc.c ****   */
 686:.\stlib\STM32F10x_StdPeriph_Driver\src/stm32f10x_adc.c **** void ADC_ExternalTrigConvCmd(ADC_TypeDef* ADCx, FunctionalState NewState)
 687:.\stlib\STM32F10x_StdPeriph_Driver\src/stm32f10x_adc.c **** {
 1051              		.loc 1 687 1 is_stmt 1 view -0
 1052              		.cfi_startproc
 1053              		@ args = 0, pretend = 0, frame = 0
 1054              		@ frame_needed = 0, uses_anonymous_args = 0
 1055              		@ link register save eliminated.
 688:.\stlib\STM32F10x_StdPeriph_Driver\src/stm32f10x_adc.c ****   /* Check the parameters */
 689:.\stlib\STM32F10x_StdPeriph_Driver\src/stm32f10x_adc.c ****   assert_param(IS_ADC_ALL_PERIPH(ADCx));
 1056              		.loc 1 689 3 view .LVU282
 690:.\stlib\STM32F10x_StdPeriph_Driver\src/stm32f10x_adc.c ****   assert_param(IS_FUNCTIONAL_STATE(NewState));
 1057              		.loc 1 690 3 view .LVU283
 691:.\stlib\STM32F10x_StdPeriph_Driver\src/stm32f10x_adc.c ****   if (NewState != DISABLE)
 1058              		.loc 1 691 3 view .LVU284
 1059              	@ .\stlib\STM32F10x_StdPeriph_Driver\src\stm32f10x_adc.c:694:     ADCx->CR2 |= CR2_EXTTRIG_Set;
 692:.\stlib\STM32F10x_StdPeriph_Driver\src/stm32f10x_adc.c ****   {
 693:.\stlib\STM32F10x_StdPeriph_Driver\src/stm32f10x_adc.c ****     /* Enable the selected ADC conversion on external event */
 694:.\stlib\STM32F10x_StdPeriph_Driver\src/stm32f10x_adc.c ****     ADCx->CR2 |= CR2_EXTTRIG_Set;
 1060              		.loc 1 694 15 is_stmt 0 view .LVU285
 1061 01dc 8368     		ldr	r3, [r0, #8]	@ _1,
 1062              	@ .\stlib\STM32F10x_StdPeriph_Driver\src\stm32f10x_adc.c:691:   if (NewState != DISABLE)
 691:.\stlib\STM32F10x_StdPeriph_Driver\src/stm32f10x_adc.c ****   if (NewState != DISABLE)
 1063              		.loc 1 691 6 view .LVU286
 1064 01de 19B1     		cbz	r1, .L45	@ tmp117,
 1065              		.loc 1 694 5 is_stmt 1 view .LVU287
 1066              	@ .\stlib\STM32F10x_StdPeriph_Driver\src\stm32f10x_adc.c:694:     ADCx->CR2 |= CR2_EXTTRIG_Set;
 1067              		.loc 1 694 15 is_stmt 0 view .LVU288
 1068 01e0 43F48013 		orr	r3, r3, #1048576	@ _2, _1,
 1069              	.L47:
 1070              	@ .\stlib\STM32F10x_StdPeriph_Driver\src\stm32f10x_adc.c:699:     ADCx->CR2 &= CR2_EXTTRIG_Reset;
 695:.\stlib\STM32F10x_StdPeriph_Driver\src/stm32f10x_adc.c ****   }
 696:.\stlib\STM32F10x_StdPeriph_Driver\src/stm32f10x_adc.c ****   else
 697:.\stlib\STM32F10x_StdPeriph_Driver\src/stm32f10x_adc.c ****   {
 698:.\stlib\STM32F10x_StdPeriph_Driver\src/stm32f10x_adc.c ****     /* Disable the selected ADC conversion on external event */
 699:.\stlib\STM32F10x_StdPeriph_Driver\src/stm32f10x_adc.c ****     ADCx->CR2 &= CR2_EXTTRIG_Reset;
 1071              		.loc 1 699 15 view .LVU289
 1072 01e4 8360     		str	r3, [r0, #8]	@ _4,
 1073              	@ .\stlib\STM32F10x_StdPeriph_Driver\src\stm32f10x_adc.c:701: }
 700:.\stlib\STM32F10x_StdPeriph_Driver\src/stm32f10x_adc.c ****   }
 701:.\stlib\STM32F10x_StdPeriph_Driver\src/stm32f10x_adc.c **** }
 1074              		.loc 1 701 1 view .LVU290
 1075 01e6 7047     		bx	lr	@
 1076              	.L45:
 699:.\stlib\STM32F10x_StdPeriph_Driver\src/stm32f10x_adc.c ****   }
 1077              		.loc 1 699 5 is_stmt 1 view .LVU291
 1078              	@ .\stlib\STM32F10x_StdPeriph_Driver\src\stm32f10x_adc.c:699:     ADCx->CR2 &= CR2_EXTTRIG_Reset;
 699:.\stlib\STM32F10x_StdPeriph_Driver\src/stm32f10x_adc.c ****   }
 1079              		.loc 1 699 15 is_stmt 0 view .LVU292
 1080 01e8 23F48013 		bic	r3, r3, #1048576	@ _4, _3,
 1081 01ec FAE7     		b	.L47		@
 1082              		.cfi_endproc
 1083              	.LFE44:
ARM GAS  C:\Users\skey\AppData\Local\Temp\ccIkOQKS.s 			page 34


 1084              		.size	ADC_ExternalTrigConvCmd, .-ADC_ExternalTrigConvCmd
 1085              		.align	1
 1086              		.global	ADC_GetConversionValue
 1087              		.syntax unified
 1088              		.thumb
 1089              		.thumb_func
 1090              		.fpu softvfp
 1091              		.type	ADC_GetConversionValue, %function
 1092              	ADC_GetConversionValue:
 1093              	.LVL89:
 1094              	.LFB45:
 702:.\stlib\STM32F10x_StdPeriph_Driver\src/stm32f10x_adc.c **** 
 703:.\stlib\STM32F10x_StdPeriph_Driver\src/stm32f10x_adc.c **** /**
 704:.\stlib\STM32F10x_StdPeriph_Driver\src/stm32f10x_adc.c ****   * @brief  Returns the last ADCx conversion result data for regular channel.
 705:.\stlib\STM32F10x_StdPeriph_Driver\src/stm32f10x_adc.c ****   * @param  ADCx: where x can be 1, 2 or 3 to select the ADC peripheral.
 706:.\stlib\STM32F10x_StdPeriph_Driver\src/stm32f10x_adc.c ****   * @retval The Data conversion value.
 707:.\stlib\STM32F10x_StdPeriph_Driver\src/stm32f10x_adc.c ****   */
 708:.\stlib\STM32F10x_StdPeriph_Driver\src/stm32f10x_adc.c **** uint16_t ADC_GetConversionValue(ADC_TypeDef* ADCx)
 709:.\stlib\STM32F10x_StdPeriph_Driver\src/stm32f10x_adc.c **** {
 1095              		.loc 1 709 1 is_stmt 1 view -0
 1096              		.cfi_startproc
 1097              		@ args = 0, pretend = 0, frame = 0
 1098              		@ frame_needed = 0, uses_anonymous_args = 0
 1099              		@ link register save eliminated.
 710:.\stlib\STM32F10x_StdPeriph_Driver\src/stm32f10x_adc.c ****   /* Check the parameters */
 711:.\stlib\STM32F10x_StdPeriph_Driver\src/stm32f10x_adc.c ****   assert_param(IS_ADC_ALL_PERIPH(ADCx));
 1100              		.loc 1 711 3 view .LVU294
 712:.\stlib\STM32F10x_StdPeriph_Driver\src/stm32f10x_adc.c ****   /* Return the selected ADC conversion value */
 713:.\stlib\STM32F10x_StdPeriph_Driver\src/stm32f10x_adc.c ****   return (uint16_t) ADCx->DR;
 1101              		.loc 1 713 3 view .LVU295
 1102              	@ .\stlib\STM32F10x_StdPeriph_Driver\src\stm32f10x_adc.c:713:   return (uint16_t) ADCx->DR;
 1103              		.loc 1 713 25 is_stmt 0 view .LVU296
 1104 01ee C06C     		ldr	r0, [r0, #76]	@ _1, ADCx_3(D)->DR
 1105              	.LVL90:
 1106              	@ .\stlib\STM32F10x_StdPeriph_Driver\src\stm32f10x_adc.c:714: }
 714:.\stlib\STM32F10x_StdPeriph_Driver\src/stm32f10x_adc.c **** }
 1107              		.loc 1 714 1 view .LVU297
 1108 01f0 80B2     		uxth	r0, r0	@, _1
 1109 01f2 7047     		bx	lr	@
 1110              		.cfi_endproc
 1111              	.LFE45:
 1112              		.size	ADC_GetConversionValue, .-ADC_GetConversionValue
 1113              		.align	1
 1114              		.global	ADC_GetDualModeConversionValue
 1115              		.syntax unified
 1116              		.thumb
 1117              		.thumb_func
 1118              		.fpu softvfp
 1119              		.type	ADC_GetDualModeConversionValue, %function
 1120              	ADC_GetDualModeConversionValue:
 1121              	.LFB46:
 715:.\stlib\STM32F10x_StdPeriph_Driver\src/stm32f10x_adc.c **** 
 716:.\stlib\STM32F10x_StdPeriph_Driver\src/stm32f10x_adc.c **** /**
 717:.\stlib\STM32F10x_StdPeriph_Driver\src/stm32f10x_adc.c ****   * @brief  Returns the last ADC1 and ADC2 conversion result data in dual mode.
 718:.\stlib\STM32F10x_StdPeriph_Driver\src/stm32f10x_adc.c ****   * @retval The Data conversion value.
 719:.\stlib\STM32F10x_StdPeriph_Driver\src/stm32f10x_adc.c ****   */
 720:.\stlib\STM32F10x_StdPeriph_Driver\src/stm32f10x_adc.c **** uint32_t ADC_GetDualModeConversionValue(void)
ARM GAS  C:\Users\skey\AppData\Local\Temp\ccIkOQKS.s 			page 35


 721:.\stlib\STM32F10x_StdPeriph_Driver\src/stm32f10x_adc.c **** {
 1122              		.loc 1 721 1 is_stmt 1 view -0
 1123              		.cfi_startproc
 1124              		@ args = 0, pretend = 0, frame = 0
 1125              		@ frame_needed = 0, uses_anonymous_args = 0
 1126              		@ link register save eliminated.
 722:.\stlib\STM32F10x_StdPeriph_Driver\src/stm32f10x_adc.c ****   /* Return the dual mode conversion value */
 723:.\stlib\STM32F10x_StdPeriph_Driver\src/stm32f10x_adc.c ****   return (*(__IO uint32_t *) DR_ADDRESS);
 1127              		.loc 1 723 3 view .LVU299
 1128              	@ .\stlib\STM32F10x_StdPeriph_Driver\src\stm32f10x_adc.c:723:   return (*(__IO uint32_t *) DR_ADDRE
 1129              		.loc 1 723 11 is_stmt 0 view .LVU300
 1130 01f4 014B     		ldr	r3, .L50	@ tmp111,
 1131 01f6 1868     		ldr	r0, [r3]	@ <retval>, MEM[(volatile uint32_t *)1073816652B]
 1132              	@ .\stlib\STM32F10x_StdPeriph_Driver\src\stm32f10x_adc.c:724: }
 724:.\stlib\STM32F10x_StdPeriph_Driver\src/stm32f10x_adc.c **** }
 1133              		.loc 1 724 1 view .LVU301
 1134 01f8 7047     		bx	lr	@
 1135              	.L51:
 1136 01fa 00BF     		.align	2
 1137              	.L50:
 1138 01fc 4C240140 		.word	1073816652
 1139              		.cfi_endproc
 1140              	.LFE46:
 1141              		.size	ADC_GetDualModeConversionValue, .-ADC_GetDualModeConversionValue
 1142              		.align	1
 1143              		.global	ADC_AutoInjectedConvCmd
 1144              		.syntax unified
 1145              		.thumb
 1146              		.thumb_func
 1147              		.fpu softvfp
 1148              		.type	ADC_AutoInjectedConvCmd, %function
 1149              	ADC_AutoInjectedConvCmd:
 1150              	.LVL91:
 1151              	.LFB47:
 725:.\stlib\STM32F10x_StdPeriph_Driver\src/stm32f10x_adc.c **** 
 726:.\stlib\STM32F10x_StdPeriph_Driver\src/stm32f10x_adc.c **** /**
 727:.\stlib\STM32F10x_StdPeriph_Driver\src/stm32f10x_adc.c ****   * @brief  Enables or disables the selected ADC automatic injected group
 728:.\stlib\STM32F10x_StdPeriph_Driver\src/stm32f10x_adc.c ****   *         conversion after regular one.
 729:.\stlib\STM32F10x_StdPeriph_Driver\src/stm32f10x_adc.c ****   * @param  ADCx: where x can be 1, 2 or 3 to select the ADC peripheral.
 730:.\stlib\STM32F10x_StdPeriph_Driver\src/stm32f10x_adc.c ****   * @param  NewState: new state of the selected ADC auto injected conversion
 731:.\stlib\STM32F10x_StdPeriph_Driver\src/stm32f10x_adc.c ****   *   This parameter can be: ENABLE or DISABLE.
 732:.\stlib\STM32F10x_StdPeriph_Driver\src/stm32f10x_adc.c ****   * @retval None
 733:.\stlib\STM32F10x_StdPeriph_Driver\src/stm32f10x_adc.c ****   */
 734:.\stlib\STM32F10x_StdPeriph_Driver\src/stm32f10x_adc.c **** void ADC_AutoInjectedConvCmd(ADC_TypeDef* ADCx, FunctionalState NewState)
 735:.\stlib\STM32F10x_StdPeriph_Driver\src/stm32f10x_adc.c **** {
 1152              		.loc 1 735 1 is_stmt 1 view -0
 1153              		.cfi_startproc
 1154              		@ args = 0, pretend = 0, frame = 0
 1155              		@ frame_needed = 0, uses_anonymous_args = 0
 1156              		@ link register save eliminated.
 736:.\stlib\STM32F10x_StdPeriph_Driver\src/stm32f10x_adc.c ****   /* Check the parameters */
 737:.\stlib\STM32F10x_StdPeriph_Driver\src/stm32f10x_adc.c ****   assert_param(IS_ADC_ALL_PERIPH(ADCx));
 1157              		.loc 1 737 3 view .LVU303
 738:.\stlib\STM32F10x_StdPeriph_Driver\src/stm32f10x_adc.c ****   assert_param(IS_FUNCTIONAL_STATE(NewState));
 1158              		.loc 1 738 3 view .LVU304
 739:.\stlib\STM32F10x_StdPeriph_Driver\src/stm32f10x_adc.c ****   if (NewState != DISABLE)
 1159              		.loc 1 739 3 view .LVU305
ARM GAS  C:\Users\skey\AppData\Local\Temp\ccIkOQKS.s 			page 36


 1160              	@ .\stlib\STM32F10x_StdPeriph_Driver\src\stm32f10x_adc.c:742:     ADCx->CR1 |= CR1_JAUTO_Set;
 740:.\stlib\STM32F10x_StdPeriph_Driver\src/stm32f10x_adc.c ****   {
 741:.\stlib\STM32F10x_StdPeriph_Driver\src/stm32f10x_adc.c ****     /* Enable the selected ADC automatic injected group conversion */
 742:.\stlib\STM32F10x_StdPeriph_Driver\src/stm32f10x_adc.c ****     ADCx->CR1 |= CR1_JAUTO_Set;
 1161              		.loc 1 742 15 is_stmt 0 view .LVU306
 1162 0200 4368     		ldr	r3, [r0, #4]	@ _1,
 1163              	@ .\stlib\STM32F10x_StdPeriph_Driver\src\stm32f10x_adc.c:739:   if (NewState != DISABLE)
 739:.\stlib\STM32F10x_StdPeriph_Driver\src/stm32f10x_adc.c ****   if (NewState != DISABLE)
 1164              		.loc 1 739 6 view .LVU307
 1165 0202 19B1     		cbz	r1, .L53	@ tmp117,
 1166              		.loc 1 742 5 is_stmt 1 view .LVU308
 1167              	@ .\stlib\STM32F10x_StdPeriph_Driver\src\stm32f10x_adc.c:742:     ADCx->CR1 |= CR1_JAUTO_Set;
 1168              		.loc 1 742 15 is_stmt 0 view .LVU309
 1169 0204 43F48063 		orr	r3, r3, #1024	@ _2, _1,
 1170              	.L55:
 1171              	@ .\stlib\STM32F10x_StdPeriph_Driver\src\stm32f10x_adc.c:747:     ADCx->CR1 &= CR1_JAUTO_Reset;
 743:.\stlib\STM32F10x_StdPeriph_Driver\src/stm32f10x_adc.c ****   }
 744:.\stlib\STM32F10x_StdPeriph_Driver\src/stm32f10x_adc.c ****   else
 745:.\stlib\STM32F10x_StdPeriph_Driver\src/stm32f10x_adc.c ****   {
 746:.\stlib\STM32F10x_StdPeriph_Driver\src/stm32f10x_adc.c ****     /* Disable the selected ADC automatic injected group conversion */
 747:.\stlib\STM32F10x_StdPeriph_Driver\src/stm32f10x_adc.c ****     ADCx->CR1 &= CR1_JAUTO_Reset;
 1172              		.loc 1 747 15 view .LVU310
 1173 0208 4360     		str	r3, [r0, #4]	@ _4,
 1174              	@ .\stlib\STM32F10x_StdPeriph_Driver\src\stm32f10x_adc.c:749: }
 748:.\stlib\STM32F10x_StdPeriph_Driver\src/stm32f10x_adc.c ****   }
 749:.\stlib\STM32F10x_StdPeriph_Driver\src/stm32f10x_adc.c **** }
 1175              		.loc 1 749 1 view .LVU311
 1176 020a 7047     		bx	lr	@
 1177              	.L53:
 747:.\stlib\STM32F10x_StdPeriph_Driver\src/stm32f10x_adc.c ****   }
 1178              		.loc 1 747 5 is_stmt 1 view .LVU312
 1179              	@ .\stlib\STM32F10x_StdPeriph_Driver\src\stm32f10x_adc.c:747:     ADCx->CR1 &= CR1_JAUTO_Reset;
 747:.\stlib\STM32F10x_StdPeriph_Driver\src/stm32f10x_adc.c ****   }
 1180              		.loc 1 747 15 is_stmt 0 view .LVU313
 1181 020c 23F48063 		bic	r3, r3, #1024	@ _4, _3,
 1182 0210 FAE7     		b	.L55		@
 1183              		.cfi_endproc
 1184              	.LFE47:
 1185              		.size	ADC_AutoInjectedConvCmd, .-ADC_AutoInjectedConvCmd
 1186              		.align	1
 1187              		.global	ADC_InjectedDiscModeCmd
 1188              		.syntax unified
 1189              		.thumb
 1190              		.thumb_func
 1191              		.fpu softvfp
 1192              		.type	ADC_InjectedDiscModeCmd, %function
 1193              	ADC_InjectedDiscModeCmd:
 1194              	.LVL92:
 1195              	.LFB48:
 750:.\stlib\STM32F10x_StdPeriph_Driver\src/stm32f10x_adc.c **** 
 751:.\stlib\STM32F10x_StdPeriph_Driver\src/stm32f10x_adc.c **** /**
 752:.\stlib\STM32F10x_StdPeriph_Driver\src/stm32f10x_adc.c ****   * @brief  Enables or disables the discontinuous mode for injected group
 753:.\stlib\STM32F10x_StdPeriph_Driver\src/stm32f10x_adc.c ****   *         channel for the specified ADC
 754:.\stlib\STM32F10x_StdPeriph_Driver\src/stm32f10x_adc.c ****   * @param  ADCx: where x can be 1, 2 or 3 to select the ADC peripheral.
 755:.\stlib\STM32F10x_StdPeriph_Driver\src/stm32f10x_adc.c ****   * @param  NewState: new state of the selected ADC discontinuous mode
 756:.\stlib\STM32F10x_StdPeriph_Driver\src/stm32f10x_adc.c ****   *         on injected group channel.
 757:.\stlib\STM32F10x_StdPeriph_Driver\src/stm32f10x_adc.c ****   *   This parameter can be: ENABLE or DISABLE.
ARM GAS  C:\Users\skey\AppData\Local\Temp\ccIkOQKS.s 			page 37


 758:.\stlib\STM32F10x_StdPeriph_Driver\src/stm32f10x_adc.c ****   * @retval None
 759:.\stlib\STM32F10x_StdPeriph_Driver\src/stm32f10x_adc.c ****   */
 760:.\stlib\STM32F10x_StdPeriph_Driver\src/stm32f10x_adc.c **** void ADC_InjectedDiscModeCmd(ADC_TypeDef* ADCx, FunctionalState NewState)
 761:.\stlib\STM32F10x_StdPeriph_Driver\src/stm32f10x_adc.c **** {
 1196              		.loc 1 761 1 is_stmt 1 view -0
 1197              		.cfi_startproc
 1198              		@ args = 0, pretend = 0, frame = 0
 1199              		@ frame_needed = 0, uses_anonymous_args = 0
 1200              		@ link register save eliminated.
 762:.\stlib\STM32F10x_StdPeriph_Driver\src/stm32f10x_adc.c ****   /* Check the parameters */
 763:.\stlib\STM32F10x_StdPeriph_Driver\src/stm32f10x_adc.c ****   assert_param(IS_ADC_ALL_PERIPH(ADCx));
 1201              		.loc 1 763 3 view .LVU315
 764:.\stlib\STM32F10x_StdPeriph_Driver\src/stm32f10x_adc.c ****   assert_param(IS_FUNCTIONAL_STATE(NewState));
 1202              		.loc 1 764 3 view .LVU316
 765:.\stlib\STM32F10x_StdPeriph_Driver\src/stm32f10x_adc.c ****   if (NewState != DISABLE)
 1203              		.loc 1 765 3 view .LVU317
 1204              	@ .\stlib\STM32F10x_StdPeriph_Driver\src\stm32f10x_adc.c:768:     ADCx->CR1 |= CR1_JDISCEN_Set;
 766:.\stlib\STM32F10x_StdPeriph_Driver\src/stm32f10x_adc.c ****   {
 767:.\stlib\STM32F10x_StdPeriph_Driver\src/stm32f10x_adc.c ****     /* Enable the selected ADC injected discontinuous mode */
 768:.\stlib\STM32F10x_StdPeriph_Driver\src/stm32f10x_adc.c ****     ADCx->CR1 |= CR1_JDISCEN_Set;
 1205              		.loc 1 768 15 is_stmt 0 view .LVU318
 1206 0212 4368     		ldr	r3, [r0, #4]	@ _1,
 1207              	@ .\stlib\STM32F10x_StdPeriph_Driver\src\stm32f10x_adc.c:765:   if (NewState != DISABLE)
 765:.\stlib\STM32F10x_StdPeriph_Driver\src/stm32f10x_adc.c ****   if (NewState != DISABLE)
 1208              		.loc 1 765 6 view .LVU319
 1209 0214 19B1     		cbz	r1, .L57	@ tmp117,
 1210              		.loc 1 768 5 is_stmt 1 view .LVU320
 1211              	@ .\stlib\STM32F10x_StdPeriph_Driver\src\stm32f10x_adc.c:768:     ADCx->CR1 |= CR1_JDISCEN_Set;
 1212              		.loc 1 768 15 is_stmt 0 view .LVU321
 1213 0216 43F48053 		orr	r3, r3, #4096	@ _2, _1,
 1214              	.L59:
 1215              	@ .\stlib\STM32F10x_StdPeriph_Driver\src\stm32f10x_adc.c:773:     ADCx->CR1 &= CR1_JDISCEN_Reset;
 769:.\stlib\STM32F10x_StdPeriph_Driver\src/stm32f10x_adc.c ****   }
 770:.\stlib\STM32F10x_StdPeriph_Driver\src/stm32f10x_adc.c ****   else
 771:.\stlib\STM32F10x_StdPeriph_Driver\src/stm32f10x_adc.c ****   {
 772:.\stlib\STM32F10x_StdPeriph_Driver\src/stm32f10x_adc.c ****     /* Disable the selected ADC injected discontinuous mode */
 773:.\stlib\STM32F10x_StdPeriph_Driver\src/stm32f10x_adc.c ****     ADCx->CR1 &= CR1_JDISCEN_Reset;
 1216              		.loc 1 773 15 view .LVU322
 1217 021a 4360     		str	r3, [r0, #4]	@ _4,
 1218              	@ .\stlib\STM32F10x_StdPeriph_Driver\src\stm32f10x_adc.c:775: }
 774:.\stlib\STM32F10x_StdPeriph_Driver\src/stm32f10x_adc.c ****   }
 775:.\stlib\STM32F10x_StdPeriph_Driver\src/stm32f10x_adc.c **** }
 1219              		.loc 1 775 1 view .LVU323
 1220 021c 7047     		bx	lr	@
 1221              	.L57:
 773:.\stlib\STM32F10x_StdPeriph_Driver\src/stm32f10x_adc.c ****   }
 1222              		.loc 1 773 5 is_stmt 1 view .LVU324
 1223              	@ .\stlib\STM32F10x_StdPeriph_Driver\src\stm32f10x_adc.c:773:     ADCx->CR1 &= CR1_JDISCEN_Reset;
 773:.\stlib\STM32F10x_StdPeriph_Driver\src/stm32f10x_adc.c ****   }
 1224              		.loc 1 773 15 is_stmt 0 view .LVU325
 1225 021e 23F48053 		bic	r3, r3, #4096	@ _4, _3,
 1226 0222 FAE7     		b	.L59		@
 1227              		.cfi_endproc
 1228              	.LFE48:
 1229              		.size	ADC_InjectedDiscModeCmd, .-ADC_InjectedDiscModeCmd
 1230              		.align	1
 1231              		.global	ADC_ExternalTrigInjectedConvConfig
ARM GAS  C:\Users\skey\AppData\Local\Temp\ccIkOQKS.s 			page 38


 1232              		.syntax unified
 1233              		.thumb
 1234              		.thumb_func
 1235              		.fpu softvfp
 1236              		.type	ADC_ExternalTrigInjectedConvConfig, %function
 1237              	ADC_ExternalTrigInjectedConvConfig:
 1238              	.LVL93:
 1239              	.LFB49:
 776:.\stlib\STM32F10x_StdPeriph_Driver\src/stm32f10x_adc.c **** 
 777:.\stlib\STM32F10x_StdPeriph_Driver\src/stm32f10x_adc.c **** /**
 778:.\stlib\STM32F10x_StdPeriph_Driver\src/stm32f10x_adc.c ****   * @brief  Configures the ADCx external trigger for injected channels conversion.
 779:.\stlib\STM32F10x_StdPeriph_Driver\src/stm32f10x_adc.c ****   * @param  ADCx: where x can be 1, 2 or 3 to select the ADC peripheral.
 780:.\stlib\STM32F10x_StdPeriph_Driver\src/stm32f10x_adc.c ****   * @param  ADC_ExternalTrigInjecConv: specifies the ADC trigger to start injected conversion. 
 781:.\stlib\STM32F10x_StdPeriph_Driver\src/stm32f10x_adc.c ****   *   This parameter can be one of the following values:
 782:.\stlib\STM32F10x_StdPeriph_Driver\src/stm32f10x_adc.c ****   *     @arg ADC_ExternalTrigInjecConv_T1_TRGO: Timer1 TRGO event selected (for ADC1, ADC2 and ADC3
 783:.\stlib\STM32F10x_StdPeriph_Driver\src/stm32f10x_adc.c ****   *     @arg ADC_ExternalTrigInjecConv_T1_CC4: Timer1 capture compare4 selected (for ADC1, ADC2 and
 784:.\stlib\STM32F10x_StdPeriph_Driver\src/stm32f10x_adc.c ****   *     @arg ADC_ExternalTrigInjecConv_T2_TRGO: Timer2 TRGO event selected (for ADC1 and ADC2)
 785:.\stlib\STM32F10x_StdPeriph_Driver\src/stm32f10x_adc.c ****   *     @arg ADC_ExternalTrigInjecConv_T2_CC1: Timer2 capture compare1 selected (for ADC1 and ADC2)
 786:.\stlib\STM32F10x_StdPeriph_Driver\src/stm32f10x_adc.c ****   *     @arg ADC_ExternalTrigInjecConv_T3_CC4: Timer3 capture compare4 selected (for ADC1 and ADC2)
 787:.\stlib\STM32F10x_StdPeriph_Driver\src/stm32f10x_adc.c ****   *     @arg ADC_ExternalTrigInjecConv_T4_TRGO: Timer4 TRGO event selected (for ADC1 and ADC2)
 788:.\stlib\STM32F10x_StdPeriph_Driver\src/stm32f10x_adc.c ****   *     @arg ADC_ExternalTrigInjecConv_Ext_IT15_TIM8_CC4: External interrupt line 15 or Timer8
 789:.\stlib\STM32F10x_StdPeriph_Driver\src/stm32f10x_adc.c ****   *                                                       capture compare4 event selected (for ADC1
 790:.\stlib\STM32F10x_StdPeriph_Driver\src/stm32f10x_adc.c ****   *     @arg ADC_ExternalTrigInjecConv_T4_CC3: Timer4 capture compare3 selected (for ADC3 only)
 791:.\stlib\STM32F10x_StdPeriph_Driver\src/stm32f10x_adc.c ****   *     @arg ADC_ExternalTrigInjecConv_T8_CC2: Timer8 capture compare2 selected (for ADC3 only)    
 792:.\stlib\STM32F10x_StdPeriph_Driver\src/stm32f10x_adc.c ****   *     @arg ADC_ExternalTrigInjecConv_T8_CC4: Timer8 capture compare4 selected (for ADC3 only)
 793:.\stlib\STM32F10x_StdPeriph_Driver\src/stm32f10x_adc.c ****   *     @arg ADC_ExternalTrigInjecConv_T5_TRGO: Timer5 TRGO event selected (for ADC3 only)         
 794:.\stlib\STM32F10x_StdPeriph_Driver\src/stm32f10x_adc.c ****   *     @arg ADC_ExternalTrigInjecConv_T5_CC4: Timer5 capture compare4 selected (for ADC3 only)    
 795:.\stlib\STM32F10x_StdPeriph_Driver\src/stm32f10x_adc.c ****   *     @arg ADC_ExternalTrigInjecConv_None: Injected conversion started by software and not
 796:.\stlib\STM32F10x_StdPeriph_Driver\src/stm32f10x_adc.c ****   *                                          by external trigger (for ADC1, ADC2 and ADC3)
 797:.\stlib\STM32F10x_StdPeriph_Driver\src/stm32f10x_adc.c ****   * @retval None
 798:.\stlib\STM32F10x_StdPeriph_Driver\src/stm32f10x_adc.c ****   */
 799:.\stlib\STM32F10x_StdPeriph_Driver\src/stm32f10x_adc.c **** void ADC_ExternalTrigInjectedConvConfig(ADC_TypeDef* ADCx, uint32_t ADC_ExternalTrigInjecConv)
 800:.\stlib\STM32F10x_StdPeriph_Driver\src/stm32f10x_adc.c **** {
 1240              		.loc 1 800 1 is_stmt 1 view -0
 1241              		.cfi_startproc
 1242              		@ args = 0, pretend = 0, frame = 0
 1243              		@ frame_needed = 0, uses_anonymous_args = 0
 1244              		@ link register save eliminated.
 801:.\stlib\STM32F10x_StdPeriph_Driver\src/stm32f10x_adc.c ****   uint32_t tmpreg = 0;
 1245              		.loc 1 801 3 view .LVU327
 802:.\stlib\STM32F10x_StdPeriph_Driver\src/stm32f10x_adc.c ****   /* Check the parameters */
 803:.\stlib\STM32F10x_StdPeriph_Driver\src/stm32f10x_adc.c ****   assert_param(IS_ADC_ALL_PERIPH(ADCx));
 1246              		.loc 1 803 3 view .LVU328
 804:.\stlib\STM32F10x_StdPeriph_Driver\src/stm32f10x_adc.c ****   assert_param(IS_ADC_EXT_INJEC_TRIG(ADC_ExternalTrigInjecConv));
 1247              		.loc 1 804 3 view .LVU329
 805:.\stlib\STM32F10x_StdPeriph_Driver\src/stm32f10x_adc.c ****   /* Get the old register value */
 806:.\stlib\STM32F10x_StdPeriph_Driver\src/stm32f10x_adc.c ****   tmpreg = ADCx->CR2;
 1248              		.loc 1 806 3 view .LVU330
 1249              	@ .\stlib\STM32F10x_StdPeriph_Driver\src\stm32f10x_adc.c:806:   tmpreg = ADCx->CR2;
 1250              		.loc 1 806 10 is_stmt 0 view .LVU331
 1251 0224 8368     		ldr	r3, [r0, #8]	@ tmpreg, ADCx_2(D)->CR2
 1252              	.LVL94:
 807:.\stlib\STM32F10x_StdPeriph_Driver\src/stm32f10x_adc.c ****   /* Clear the old external event selection for injected group */
 808:.\stlib\STM32F10x_StdPeriph_Driver\src/stm32f10x_adc.c ****   tmpreg &= CR2_JEXTSEL_Reset;
 1253              		.loc 1 808 3 is_stmt 1 view .LVU332
 1254              	@ .\stlib\STM32F10x_StdPeriph_Driver\src\stm32f10x_adc.c:808:   tmpreg &= CR2_JEXTSEL_Reset;
 1255              		.loc 1 808 10 is_stmt 0 view .LVU333
ARM GAS  C:\Users\skey\AppData\Local\Temp\ccIkOQKS.s 			page 39


 1256 0226 23F4E043 		bic	r3, r3, #28672	@ tmpreg, tmpreg,
 1257              	.LVL95:
 809:.\stlib\STM32F10x_StdPeriph_Driver\src/stm32f10x_adc.c ****   /* Set the external event selection for injected group */
 810:.\stlib\STM32F10x_StdPeriph_Driver\src/stm32f10x_adc.c ****   tmpreg |= ADC_ExternalTrigInjecConv;
 1258              		.loc 1 810 3 is_stmt 1 view .LVU334
 1259              	@ .\stlib\STM32F10x_StdPeriph_Driver\src\stm32f10x_adc.c:810:   tmpreg |= ADC_ExternalTrigInjecConv
 1260              		.loc 1 810 10 is_stmt 0 view .LVU335
 1261 022a 0B43     		orrs	r3, r3, r1	@, tmpreg, tmpreg, tmp116
 1262              	.LVL96:
 811:.\stlib\STM32F10x_StdPeriph_Driver\src/stm32f10x_adc.c ****   /* Store the new register value */
 812:.\stlib\STM32F10x_StdPeriph_Driver\src/stm32f10x_adc.c ****   ADCx->CR2 = tmpreg;
 1263              		.loc 1 812 3 is_stmt 1 view .LVU336
 1264              	@ .\stlib\STM32F10x_StdPeriph_Driver\src\stm32f10x_adc.c:812:   ADCx->CR2 = tmpreg;
 1265              		.loc 1 812 13 is_stmt 0 view .LVU337
 1266 022c 8360     		str	r3, [r0, #8]	@ tmpreg, ADCx_2(D)->CR2
 1267              	@ .\stlib\STM32F10x_StdPeriph_Driver\src\stm32f10x_adc.c:813: }
 813:.\stlib\STM32F10x_StdPeriph_Driver\src/stm32f10x_adc.c **** }
 1268              		.loc 1 813 1 view .LVU338
 1269 022e 7047     		bx	lr	@
 1270              		.cfi_endproc
 1271              	.LFE49:
 1272              		.size	ADC_ExternalTrigInjectedConvConfig, .-ADC_ExternalTrigInjectedConvConfig
 1273              		.align	1
 1274              		.global	ADC_ExternalTrigInjectedConvCmd
 1275              		.syntax unified
 1276              		.thumb
 1277              		.thumb_func
 1278              		.fpu softvfp
 1279              		.type	ADC_ExternalTrigInjectedConvCmd, %function
 1280              	ADC_ExternalTrigInjectedConvCmd:
 1281              	.LVL97:
 1282              	.LFB50:
 814:.\stlib\STM32F10x_StdPeriph_Driver\src/stm32f10x_adc.c **** 
 815:.\stlib\STM32F10x_StdPeriph_Driver\src/stm32f10x_adc.c **** /**
 816:.\stlib\STM32F10x_StdPeriph_Driver\src/stm32f10x_adc.c ****   * @brief  Enables or disables the ADCx injected channels conversion through
 817:.\stlib\STM32F10x_StdPeriph_Driver\src/stm32f10x_adc.c ****   *         external trigger
 818:.\stlib\STM32F10x_StdPeriph_Driver\src/stm32f10x_adc.c ****   * @param  ADCx: where x can be 1, 2 or 3 to select the ADC peripheral.
 819:.\stlib\STM32F10x_StdPeriph_Driver\src/stm32f10x_adc.c ****   * @param  NewState: new state of the selected ADC external trigger start of
 820:.\stlib\STM32F10x_StdPeriph_Driver\src/stm32f10x_adc.c ****   *         injected conversion.
 821:.\stlib\STM32F10x_StdPeriph_Driver\src/stm32f10x_adc.c ****   *   This parameter can be: ENABLE or DISABLE.
 822:.\stlib\STM32F10x_StdPeriph_Driver\src/stm32f10x_adc.c ****   * @retval None
 823:.\stlib\STM32F10x_StdPeriph_Driver\src/stm32f10x_adc.c ****   */
 824:.\stlib\STM32F10x_StdPeriph_Driver\src/stm32f10x_adc.c **** void ADC_ExternalTrigInjectedConvCmd(ADC_TypeDef* ADCx, FunctionalState NewState)
 825:.\stlib\STM32F10x_StdPeriph_Driver\src/stm32f10x_adc.c **** {
 1283              		.loc 1 825 1 is_stmt 1 view -0
 1284              		.cfi_startproc
 1285              		@ args = 0, pretend = 0, frame = 0
 1286              		@ frame_needed = 0, uses_anonymous_args = 0
 1287              		@ link register save eliminated.
 826:.\stlib\STM32F10x_StdPeriph_Driver\src/stm32f10x_adc.c ****   /* Check the parameters */
 827:.\stlib\STM32F10x_StdPeriph_Driver\src/stm32f10x_adc.c ****   assert_param(IS_ADC_ALL_PERIPH(ADCx));
 1288              		.loc 1 827 3 view .LVU340
 828:.\stlib\STM32F10x_StdPeriph_Driver\src/stm32f10x_adc.c ****   assert_param(IS_FUNCTIONAL_STATE(NewState));
 1289              		.loc 1 828 3 view .LVU341
 829:.\stlib\STM32F10x_StdPeriph_Driver\src/stm32f10x_adc.c ****   if (NewState != DISABLE)
 1290              		.loc 1 829 3 view .LVU342
 1291              	@ .\stlib\STM32F10x_StdPeriph_Driver\src\stm32f10x_adc.c:832:     ADCx->CR2 |= CR2_JEXTTRIG_Set;
ARM GAS  C:\Users\skey\AppData\Local\Temp\ccIkOQKS.s 			page 40


 830:.\stlib\STM32F10x_StdPeriph_Driver\src/stm32f10x_adc.c ****   {
 831:.\stlib\STM32F10x_StdPeriph_Driver\src/stm32f10x_adc.c ****     /* Enable the selected ADC external event selection for injected group */
 832:.\stlib\STM32F10x_StdPeriph_Driver\src/stm32f10x_adc.c ****     ADCx->CR2 |= CR2_JEXTTRIG_Set;
 1292              		.loc 1 832 15 is_stmt 0 view .LVU343
 1293 0230 8368     		ldr	r3, [r0, #8]	@ _1,
 1294              	@ .\stlib\STM32F10x_StdPeriph_Driver\src\stm32f10x_adc.c:829:   if (NewState != DISABLE)
 829:.\stlib\STM32F10x_StdPeriph_Driver\src/stm32f10x_adc.c ****   if (NewState != DISABLE)
 1295              		.loc 1 829 6 view .LVU344
 1296 0232 19B1     		cbz	r1, .L62	@ tmp117,
 1297              		.loc 1 832 5 is_stmt 1 view .LVU345
 1298              	@ .\stlib\STM32F10x_StdPeriph_Driver\src\stm32f10x_adc.c:832:     ADCx->CR2 |= CR2_JEXTTRIG_Set;
 1299              		.loc 1 832 15 is_stmt 0 view .LVU346
 1300 0234 43F40043 		orr	r3, r3, #32768	@ _2, _1,
 1301              	.L64:
 1302              	@ .\stlib\STM32F10x_StdPeriph_Driver\src\stm32f10x_adc.c:837:     ADCx->CR2 &= CR2_JEXTTRIG_Reset;
 833:.\stlib\STM32F10x_StdPeriph_Driver\src/stm32f10x_adc.c ****   }
 834:.\stlib\STM32F10x_StdPeriph_Driver\src/stm32f10x_adc.c ****   else
 835:.\stlib\STM32F10x_StdPeriph_Driver\src/stm32f10x_adc.c ****   {
 836:.\stlib\STM32F10x_StdPeriph_Driver\src/stm32f10x_adc.c ****     /* Disable the selected ADC external event selection for injected group */
 837:.\stlib\STM32F10x_StdPeriph_Driver\src/stm32f10x_adc.c ****     ADCx->CR2 &= CR2_JEXTTRIG_Reset;
 1303              		.loc 1 837 15 view .LVU347
 1304 0238 8360     		str	r3, [r0, #8]	@ _4,
 1305              	@ .\stlib\STM32F10x_StdPeriph_Driver\src\stm32f10x_adc.c:839: }
 838:.\stlib\STM32F10x_StdPeriph_Driver\src/stm32f10x_adc.c ****   }
 839:.\stlib\STM32F10x_StdPeriph_Driver\src/stm32f10x_adc.c **** }
 1306              		.loc 1 839 1 view .LVU348
 1307 023a 7047     		bx	lr	@
 1308              	.L62:
 837:.\stlib\STM32F10x_StdPeriph_Driver\src/stm32f10x_adc.c ****   }
 1309              		.loc 1 837 5 is_stmt 1 view .LVU349
 1310              	@ .\stlib\STM32F10x_StdPeriph_Driver\src\stm32f10x_adc.c:837:     ADCx->CR2 &= CR2_JEXTTRIG_Reset;
 837:.\stlib\STM32F10x_StdPeriph_Driver\src/stm32f10x_adc.c ****   }
 1311              		.loc 1 837 15 is_stmt 0 view .LVU350
 1312 023c 23F40043 		bic	r3, r3, #32768	@ _4, _3,
 1313 0240 FAE7     		b	.L64		@
 1314              		.cfi_endproc
 1315              	.LFE50:
 1316              		.size	ADC_ExternalTrigInjectedConvCmd, .-ADC_ExternalTrigInjectedConvCmd
 1317              		.align	1
 1318              		.global	ADC_SoftwareStartInjectedConvCmd
 1319              		.syntax unified
 1320              		.thumb
 1321              		.thumb_func
 1322              		.fpu softvfp
 1323              		.type	ADC_SoftwareStartInjectedConvCmd, %function
 1324              	ADC_SoftwareStartInjectedConvCmd:
 1325              	.LVL98:
 1326              	.LFB51:
 840:.\stlib\STM32F10x_StdPeriph_Driver\src/stm32f10x_adc.c **** 
 841:.\stlib\STM32F10x_StdPeriph_Driver\src/stm32f10x_adc.c **** /**
 842:.\stlib\STM32F10x_StdPeriph_Driver\src/stm32f10x_adc.c ****   * @brief  Enables or disables the selected ADC start of the injected 
 843:.\stlib\STM32F10x_StdPeriph_Driver\src/stm32f10x_adc.c ****   *         channels conversion.
 844:.\stlib\STM32F10x_StdPeriph_Driver\src/stm32f10x_adc.c ****   * @param  ADCx: where x can be 1, 2 or 3 to select the ADC peripheral.
 845:.\stlib\STM32F10x_StdPeriph_Driver\src/stm32f10x_adc.c ****   * @param  NewState: new state of the selected ADC software start injected conversion.
 846:.\stlib\STM32F10x_StdPeriph_Driver\src/stm32f10x_adc.c ****   *   This parameter can be: ENABLE or DISABLE.
 847:.\stlib\STM32F10x_StdPeriph_Driver\src/stm32f10x_adc.c ****   * @retval None
 848:.\stlib\STM32F10x_StdPeriph_Driver\src/stm32f10x_adc.c ****   */
ARM GAS  C:\Users\skey\AppData\Local\Temp\ccIkOQKS.s 			page 41


 849:.\stlib\STM32F10x_StdPeriph_Driver\src/stm32f10x_adc.c **** void ADC_SoftwareStartInjectedConvCmd(ADC_TypeDef* ADCx, FunctionalState NewState)
 850:.\stlib\STM32F10x_StdPeriph_Driver\src/stm32f10x_adc.c **** {
 1327              		.loc 1 850 1 is_stmt 1 view -0
 1328              		.cfi_startproc
 1329              		@ args = 0, pretend = 0, frame = 0
 1330              		@ frame_needed = 0, uses_anonymous_args = 0
 1331              		@ link register save eliminated.
 851:.\stlib\STM32F10x_StdPeriph_Driver\src/stm32f10x_adc.c ****   /* Check the parameters */
 852:.\stlib\STM32F10x_StdPeriph_Driver\src/stm32f10x_adc.c ****   assert_param(IS_ADC_ALL_PERIPH(ADCx));
 1332              		.loc 1 852 3 view .LVU352
 853:.\stlib\STM32F10x_StdPeriph_Driver\src/stm32f10x_adc.c ****   assert_param(IS_FUNCTIONAL_STATE(NewState));
 1333              		.loc 1 853 3 view .LVU353
 854:.\stlib\STM32F10x_StdPeriph_Driver\src/stm32f10x_adc.c ****   if (NewState != DISABLE)
 1334              		.loc 1 854 3 view .LVU354
 1335              	@ .\stlib\STM32F10x_StdPeriph_Driver\src\stm32f10x_adc.c:858:     ADCx->CR2 |= CR2_JEXTTRIG_JSWSTAR
 855:.\stlib\STM32F10x_StdPeriph_Driver\src/stm32f10x_adc.c ****   {
 856:.\stlib\STM32F10x_StdPeriph_Driver\src/stm32f10x_adc.c ****     /* Enable the selected ADC conversion for injected group on external event and start the select
 857:.\stlib\STM32F10x_StdPeriph_Driver\src/stm32f10x_adc.c ****        ADC injected conversion */
 858:.\stlib\STM32F10x_StdPeriph_Driver\src/stm32f10x_adc.c ****     ADCx->CR2 |= CR2_JEXTTRIG_JSWSTART_Set;
 1336              		.loc 1 858 15 is_stmt 0 view .LVU355
 1337 0242 8368     		ldr	r3, [r0, #8]	@ _1,
 1338              	@ .\stlib\STM32F10x_StdPeriph_Driver\src\stm32f10x_adc.c:854:   if (NewState != DISABLE)
 854:.\stlib\STM32F10x_StdPeriph_Driver\src/stm32f10x_adc.c ****   if (NewState != DISABLE)
 1339              		.loc 1 854 6 view .LVU356
 1340 0244 19B1     		cbz	r1, .L66	@ tmp117,
 1341              		.loc 1 858 5 is_stmt 1 view .LVU357
 1342              	@ .\stlib\STM32F10x_StdPeriph_Driver\src\stm32f10x_adc.c:858:     ADCx->CR2 |= CR2_JEXTTRIG_JSWSTAR
 1343              		.loc 1 858 15 is_stmt 0 view .LVU358
 1344 0246 43F40213 		orr	r3, r3, #2129920	@ _2, _1,
 1345              	.L68:
 1346              	@ .\stlib\STM32F10x_StdPeriph_Driver\src\stm32f10x_adc.c:864:     ADCx->CR2 &= CR2_JEXTTRIG_JSWSTAR
 859:.\stlib\STM32F10x_StdPeriph_Driver\src/stm32f10x_adc.c ****   }
 860:.\stlib\STM32F10x_StdPeriph_Driver\src/stm32f10x_adc.c ****   else
 861:.\stlib\STM32F10x_StdPeriph_Driver\src/stm32f10x_adc.c ****   {
 862:.\stlib\STM32F10x_StdPeriph_Driver\src/stm32f10x_adc.c ****     /* Disable the selected ADC conversion on external event for injected group and stop the select
 863:.\stlib\STM32F10x_StdPeriph_Driver\src/stm32f10x_adc.c ****        ADC injected conversion */
 864:.\stlib\STM32F10x_StdPeriph_Driver\src/stm32f10x_adc.c ****     ADCx->CR2 &= CR2_JEXTTRIG_JSWSTART_Reset;
 1347              		.loc 1 864 15 view .LVU359
 1348 024a 8360     		str	r3, [r0, #8]	@ _4,
 1349              	@ .\stlib\STM32F10x_StdPeriph_Driver\src\stm32f10x_adc.c:866: }
 865:.\stlib\STM32F10x_StdPeriph_Driver\src/stm32f10x_adc.c ****   }
 866:.\stlib\STM32F10x_StdPeriph_Driver\src/stm32f10x_adc.c **** }
 1350              		.loc 1 866 1 view .LVU360
 1351 024c 7047     		bx	lr	@
 1352              	.L66:
 864:.\stlib\STM32F10x_StdPeriph_Driver\src/stm32f10x_adc.c ****   }
 1353              		.loc 1 864 5 is_stmt 1 view .LVU361
 1354              	@ .\stlib\STM32F10x_StdPeriph_Driver\src\stm32f10x_adc.c:864:     ADCx->CR2 &= CR2_JEXTTRIG_JSWSTAR
 864:.\stlib\STM32F10x_StdPeriph_Driver\src/stm32f10x_adc.c ****   }
 1355              		.loc 1 864 15 is_stmt 0 view .LVU362
 1356 024e 23F40213 		bic	r3, r3, #2129920	@ _4, _3,
 1357 0252 FAE7     		b	.L68		@
 1358              		.cfi_endproc
 1359              	.LFE51:
 1360              		.size	ADC_SoftwareStartInjectedConvCmd, .-ADC_SoftwareStartInjectedConvCmd
 1361              		.align	1
 1362              		.global	ADC_GetSoftwareStartInjectedConvCmdStatus
ARM GAS  C:\Users\skey\AppData\Local\Temp\ccIkOQKS.s 			page 42


 1363              		.syntax unified
 1364              		.thumb
 1365              		.thumb_func
 1366              		.fpu softvfp
 1367              		.type	ADC_GetSoftwareStartInjectedConvCmdStatus, %function
 1368              	ADC_GetSoftwareStartInjectedConvCmdStatus:
 1369              	.LVL99:
 1370              	.LFB52:
 867:.\stlib\STM32F10x_StdPeriph_Driver\src/stm32f10x_adc.c **** 
 868:.\stlib\STM32F10x_StdPeriph_Driver\src/stm32f10x_adc.c **** /**
 869:.\stlib\STM32F10x_StdPeriph_Driver\src/stm32f10x_adc.c ****   * @brief  Gets the selected ADC Software start injected conversion Status.
 870:.\stlib\STM32F10x_StdPeriph_Driver\src/stm32f10x_adc.c ****   * @param  ADCx: where x can be 1, 2 or 3 to select the ADC peripheral.
 871:.\stlib\STM32F10x_StdPeriph_Driver\src/stm32f10x_adc.c ****   * @retval The new state of ADC software start injected conversion (SET or RESET).
 872:.\stlib\STM32F10x_StdPeriph_Driver\src/stm32f10x_adc.c ****   */
 873:.\stlib\STM32F10x_StdPeriph_Driver\src/stm32f10x_adc.c **** FlagStatus ADC_GetSoftwareStartInjectedConvCmdStatus(ADC_TypeDef* ADCx)
 874:.\stlib\STM32F10x_StdPeriph_Driver\src/stm32f10x_adc.c **** {
 1371              		.loc 1 874 1 is_stmt 1 view -0
 1372              		.cfi_startproc
 1373              		@ args = 0, pretend = 0, frame = 0
 1374              		@ frame_needed = 0, uses_anonymous_args = 0
 1375              		@ link register save eliminated.
 875:.\stlib\STM32F10x_StdPeriph_Driver\src/stm32f10x_adc.c ****   FlagStatus bitstatus = RESET;
 1376              		.loc 1 875 3 view .LVU364
 876:.\stlib\STM32F10x_StdPeriph_Driver\src/stm32f10x_adc.c ****   /* Check the parameters */
 877:.\stlib\STM32F10x_StdPeriph_Driver\src/stm32f10x_adc.c ****   assert_param(IS_ADC_ALL_PERIPH(ADCx));
 1377              		.loc 1 877 3 view .LVU365
 878:.\stlib\STM32F10x_StdPeriph_Driver\src/stm32f10x_adc.c ****   /* Check the status of JSWSTART bit */
 879:.\stlib\STM32F10x_StdPeriph_Driver\src/stm32f10x_adc.c ****   if ((ADCx->CR2 & CR2_JSWSTART_Set) != (uint32_t)RESET)
 1378              		.loc 1 879 3 view .LVU366
 1379              	@ .\stlib\STM32F10x_StdPeriph_Driver\src\stm32f10x_adc.c:879:   if ((ADCx->CR2 & CR2_JSWSTART_Set) 
 1380              		.loc 1 879 12 is_stmt 0 view .LVU367
 1381 0254 8068     		ldr	r0, [r0, #8]	@ _1, ADCx_5(D)->CR2
 1382              	.LVL100:
 880:.\stlib\STM32F10x_StdPeriph_Driver\src/stm32f10x_adc.c ****   {
 881:.\stlib\STM32F10x_StdPeriph_Driver\src/stm32f10x_adc.c ****     /* JSWSTART bit is set */
 882:.\stlib\STM32F10x_StdPeriph_Driver\src/stm32f10x_adc.c ****     bitstatus = SET;
 883:.\stlib\STM32F10x_StdPeriph_Driver\src/stm32f10x_adc.c ****   }
 884:.\stlib\STM32F10x_StdPeriph_Driver\src/stm32f10x_adc.c ****   else
 885:.\stlib\STM32F10x_StdPeriph_Driver\src/stm32f10x_adc.c ****   {
 886:.\stlib\STM32F10x_StdPeriph_Driver\src/stm32f10x_adc.c ****     /* JSWSTART bit is reset */
 887:.\stlib\STM32F10x_StdPeriph_Driver\src/stm32f10x_adc.c ****     bitstatus = RESET;
 888:.\stlib\STM32F10x_StdPeriph_Driver\src/stm32f10x_adc.c ****   }
 889:.\stlib\STM32F10x_StdPeriph_Driver\src/stm32f10x_adc.c ****   /* Return the JSWSTART bit status */
 890:.\stlib\STM32F10x_StdPeriph_Driver\src/stm32f10x_adc.c ****   return  bitstatus;
 1383              		.loc 1 890 3 is_stmt 1 view .LVU368
 1384              	@ .\stlib\STM32F10x_StdPeriph_Driver\src\stm32f10x_adc.c:891: }
 891:.\stlib\STM32F10x_StdPeriph_Driver\src/stm32f10x_adc.c **** }
 1385              		.loc 1 891 1 is_stmt 0 view .LVU369
 1386 0256 C0F34050 		ubfx	r0, r0, #21, #1	@, _1,,
 1387              	.LVL101:
 1388              		.loc 1 891 1 view .LVU370
 1389 025a 7047     		bx	lr	@
 1390              		.cfi_endproc
 1391              	.LFE52:
 1392              		.size	ADC_GetSoftwareStartInjectedConvCmdStatus, .-ADC_GetSoftwareStartInjectedConvCmdStatus
 1393              		.align	1
 1394              		.global	ADC_InjectedChannelConfig
ARM GAS  C:\Users\skey\AppData\Local\Temp\ccIkOQKS.s 			page 43


 1395              		.syntax unified
 1396              		.thumb
 1397              		.thumb_func
 1398              		.fpu softvfp
 1399              		.type	ADC_InjectedChannelConfig, %function
 1400              	ADC_InjectedChannelConfig:
 1401              	.LVL102:
 1402              	.LFB53:
 892:.\stlib\STM32F10x_StdPeriph_Driver\src/stm32f10x_adc.c **** 
 893:.\stlib\STM32F10x_StdPeriph_Driver\src/stm32f10x_adc.c **** /**
 894:.\stlib\STM32F10x_StdPeriph_Driver\src/stm32f10x_adc.c ****   * @brief  Configures for the selected ADC injected channel its corresponding
 895:.\stlib\STM32F10x_StdPeriph_Driver\src/stm32f10x_adc.c ****   *         rank in the sequencer and its sample time.
 896:.\stlib\STM32F10x_StdPeriph_Driver\src/stm32f10x_adc.c ****   * @param  ADCx: where x can be 1, 2 or 3 to select the ADC peripheral.
 897:.\stlib\STM32F10x_StdPeriph_Driver\src/stm32f10x_adc.c ****   * @param  ADC_Channel: the ADC channel to configure. 
 898:.\stlib\STM32F10x_StdPeriph_Driver\src/stm32f10x_adc.c ****   *   This parameter can be one of the following values:
 899:.\stlib\STM32F10x_StdPeriph_Driver\src/stm32f10x_adc.c ****   *     @arg ADC_Channel_0: ADC Channel0 selected
 900:.\stlib\STM32F10x_StdPeriph_Driver\src/stm32f10x_adc.c ****   *     @arg ADC_Channel_1: ADC Channel1 selected
 901:.\stlib\STM32F10x_StdPeriph_Driver\src/stm32f10x_adc.c ****   *     @arg ADC_Channel_2: ADC Channel2 selected
 902:.\stlib\STM32F10x_StdPeriph_Driver\src/stm32f10x_adc.c ****   *     @arg ADC_Channel_3: ADC Channel3 selected
 903:.\stlib\STM32F10x_StdPeriph_Driver\src/stm32f10x_adc.c ****   *     @arg ADC_Channel_4: ADC Channel4 selected
 904:.\stlib\STM32F10x_StdPeriph_Driver\src/stm32f10x_adc.c ****   *     @arg ADC_Channel_5: ADC Channel5 selected
 905:.\stlib\STM32F10x_StdPeriph_Driver\src/stm32f10x_adc.c ****   *     @arg ADC_Channel_6: ADC Channel6 selected
 906:.\stlib\STM32F10x_StdPeriph_Driver\src/stm32f10x_adc.c ****   *     @arg ADC_Channel_7: ADC Channel7 selected
 907:.\stlib\STM32F10x_StdPeriph_Driver\src/stm32f10x_adc.c ****   *     @arg ADC_Channel_8: ADC Channel8 selected
 908:.\stlib\STM32F10x_StdPeriph_Driver\src/stm32f10x_adc.c ****   *     @arg ADC_Channel_9: ADC Channel9 selected
 909:.\stlib\STM32F10x_StdPeriph_Driver\src/stm32f10x_adc.c ****   *     @arg ADC_Channel_10: ADC Channel10 selected
 910:.\stlib\STM32F10x_StdPeriph_Driver\src/stm32f10x_adc.c ****   *     @arg ADC_Channel_11: ADC Channel11 selected
 911:.\stlib\STM32F10x_StdPeriph_Driver\src/stm32f10x_adc.c ****   *     @arg ADC_Channel_12: ADC Channel12 selected
 912:.\stlib\STM32F10x_StdPeriph_Driver\src/stm32f10x_adc.c ****   *     @arg ADC_Channel_13: ADC Channel13 selected
 913:.\stlib\STM32F10x_StdPeriph_Driver\src/stm32f10x_adc.c ****   *     @arg ADC_Channel_14: ADC Channel14 selected
 914:.\stlib\STM32F10x_StdPeriph_Driver\src/stm32f10x_adc.c ****   *     @arg ADC_Channel_15: ADC Channel15 selected
 915:.\stlib\STM32F10x_StdPeriph_Driver\src/stm32f10x_adc.c ****   *     @arg ADC_Channel_16: ADC Channel16 selected
 916:.\stlib\STM32F10x_StdPeriph_Driver\src/stm32f10x_adc.c ****   *     @arg ADC_Channel_17: ADC Channel17 selected
 917:.\stlib\STM32F10x_StdPeriph_Driver\src/stm32f10x_adc.c ****   * @param  Rank: The rank in the injected group sequencer. This parameter must be between 1 and 4.
 918:.\stlib\STM32F10x_StdPeriph_Driver\src/stm32f10x_adc.c ****   * @param  ADC_SampleTime: The sample time value to be set for the selected channel. 
 919:.\stlib\STM32F10x_StdPeriph_Driver\src/stm32f10x_adc.c ****   *   This parameter can be one of the following values:
 920:.\stlib\STM32F10x_StdPeriph_Driver\src/stm32f10x_adc.c ****   *     @arg ADC_SampleTime_1Cycles5: Sample time equal to 1.5 cycles
 921:.\stlib\STM32F10x_StdPeriph_Driver\src/stm32f10x_adc.c ****   *     @arg ADC_SampleTime_7Cycles5: Sample time equal to 7.5 cycles
 922:.\stlib\STM32F10x_StdPeriph_Driver\src/stm32f10x_adc.c ****   *     @arg ADC_SampleTime_13Cycles5: Sample time equal to 13.5 cycles
 923:.\stlib\STM32F10x_StdPeriph_Driver\src/stm32f10x_adc.c ****   *     @arg ADC_SampleTime_28Cycles5: Sample time equal to 28.5 cycles	
 924:.\stlib\STM32F10x_StdPeriph_Driver\src/stm32f10x_adc.c ****   *     @arg ADC_SampleTime_41Cycles5: Sample time equal to 41.5 cycles	
 925:.\stlib\STM32F10x_StdPeriph_Driver\src/stm32f10x_adc.c ****   *     @arg ADC_SampleTime_55Cycles5: Sample time equal to 55.5 cycles	
 926:.\stlib\STM32F10x_StdPeriph_Driver\src/stm32f10x_adc.c ****   *     @arg ADC_SampleTime_71Cycles5: Sample time equal to 71.5 cycles	
 927:.\stlib\STM32F10x_StdPeriph_Driver\src/stm32f10x_adc.c ****   *     @arg ADC_SampleTime_239Cycles5: Sample time equal to 239.5 cycles	
 928:.\stlib\STM32F10x_StdPeriph_Driver\src/stm32f10x_adc.c ****   * @retval None
 929:.\stlib\STM32F10x_StdPeriph_Driver\src/stm32f10x_adc.c ****   */
 930:.\stlib\STM32F10x_StdPeriph_Driver\src/stm32f10x_adc.c **** void ADC_InjectedChannelConfig(ADC_TypeDef* ADCx, uint8_t ADC_Channel, uint8_t Rank, uint8_t ADC_Sa
 931:.\stlib\STM32F10x_StdPeriph_Driver\src/stm32f10x_adc.c **** {
 1403              		.loc 1 931 1 is_stmt 1 view -0
 1404              		.cfi_startproc
 1405              		@ args = 0, pretend = 0, frame = 0
 1406              		@ frame_needed = 0, uses_anonymous_args = 0
 932:.\stlib\STM32F10x_StdPeriph_Driver\src/stm32f10x_adc.c ****   uint32_t tmpreg1 = 0, tmpreg2 = 0, tmpreg3 = 0;
 1407              		.loc 1 932 3 view .LVU372
 933:.\stlib\STM32F10x_StdPeriph_Driver\src/stm32f10x_adc.c ****   /* Check the parameters */
 934:.\stlib\STM32F10x_StdPeriph_Driver\src/stm32f10x_adc.c ****   assert_param(IS_ADC_ALL_PERIPH(ADCx));
 1408              		.loc 1 934 3 view .LVU373
ARM GAS  C:\Users\skey\AppData\Local\Temp\ccIkOQKS.s 			page 44


 935:.\stlib\STM32F10x_StdPeriph_Driver\src/stm32f10x_adc.c ****   assert_param(IS_ADC_CHANNEL(ADC_Channel));
 1409              		.loc 1 935 3 view .LVU374
 936:.\stlib\STM32F10x_StdPeriph_Driver\src/stm32f10x_adc.c ****   assert_param(IS_ADC_INJECTED_RANK(Rank));
 1410              		.loc 1 936 3 view .LVU375
 937:.\stlib\STM32F10x_StdPeriph_Driver\src/stm32f10x_adc.c ****   assert_param(IS_ADC_SAMPLE_TIME(ADC_SampleTime));
 1411              		.loc 1 937 3 view .LVU376
 938:.\stlib\STM32F10x_StdPeriph_Driver\src/stm32f10x_adc.c ****   /* if ADC_Channel_10 ... ADC_Channel_17 is selected */
 939:.\stlib\STM32F10x_StdPeriph_Driver\src/stm32f10x_adc.c ****   if (ADC_Channel > ADC_Channel_9)
 1412              		.loc 1 939 3 view .LVU377
 1413              	@ .\stlib\STM32F10x_StdPeriph_Driver\src\stm32f10x_adc.c:939:   if (ADC_Channel > ADC_Channel_9)
 1414              		.loc 1 939 6 is_stmt 0 view .LVU378
 1415 025c 0929     		cmp	r1, #9	@ ADC_Channel,
 1416              	@ .\stlib\STM32F10x_StdPeriph_Driver\src\stm32f10x_adc.c:931: {
 931:.\stlib\STM32F10x_StdPeriph_Driver\src/stm32f10x_adc.c ****   uint32_t tmpreg1 = 0, tmpreg2 = 0, tmpreg3 = 0;
 1417              		.loc 1 931 1 view .LVU379
 1418 025e 70B5     		push	{r4, r5, r6, lr}	@
 1419              	.LCFI5:
 1420              		.cfi_def_cfa_offset 16
 1421              		.cfi_offset 4, -16
 1422              		.cfi_offset 5, -12
 1423              		.cfi_offset 6, -8
 1424              		.cfi_offset 14, -4
 1425              	@ .\stlib\STM32F10x_StdPeriph_Driver\src\stm32f10x_adc.c:939:   if (ADC_Channel > ADC_Channel_9)
 1426              		.loc 1 939 6 view .LVU380
 1427 0260 1DD9     		bls	.L71		@,
 940:.\stlib\STM32F10x_StdPeriph_Driver\src/stm32f10x_adc.c ****   {
 941:.\stlib\STM32F10x_StdPeriph_Driver\src/stm32f10x_adc.c ****     /* Get the old register value */
 942:.\stlib\STM32F10x_StdPeriph_Driver\src/stm32f10x_adc.c ****     tmpreg1 = ADCx->SMPR1;
 1428              		.loc 1 942 5 is_stmt 1 view .LVU381
 1429              	@ .\stlib\STM32F10x_StdPeriph_Driver\src\stm32f10x_adc.c:944:     tmpreg2 = SMPR1_SMP_Set << (3*(AD
 943:.\stlib\STM32F10x_StdPeriph_Driver\src/stm32f10x_adc.c ****     /* Calculate the mask to clear */
 944:.\stlib\STM32F10x_StdPeriph_Driver\src/stm32f10x_adc.c ****     tmpreg2 = SMPR1_SMP_Set << (3*(ADC_Channel - 10));
 1430              		.loc 1 944 13 is_stmt 0 view .LVU382
 1431 0262 0726     		movs	r6, #7	@ tmp152,
 1432              	@ .\stlib\STM32F10x_StdPeriph_Driver\src\stm32f10x_adc.c:944:     tmpreg2 = SMPR1_SMP_Set << (3*(AD
 1433              		.loc 1 944 48 view .LVU383
 1434 0264 A1F10A04 		sub	r4, r1, #10	@ tmp147, ADC_Channel,
 1435              	@ .\stlib\STM32F10x_StdPeriph_Driver\src\stm32f10x_adc.c:942:     tmpreg1 = ADCx->SMPR1;
 942:.\stlib\STM32F10x_StdPeriph_Driver\src/stm32f10x_adc.c ****     /* Calculate the mask to clear */
 1436              		.loc 1 942 13 view .LVU384
 1437 0268 C568     		ldr	r5, [r0, #12]	@ tmpreg1, ADCx_21(D)->SMPR1
 1438              	.LVL103:
 1439              		.loc 1 944 5 is_stmt 1 view .LVU385
 1440              	@ .\stlib\STM32F10x_StdPeriph_Driver\src\stm32f10x_adc.c:944:     tmpreg2 = SMPR1_SMP_Set << (3*(AD
 1441              		.loc 1 944 34 is_stmt 0 view .LVU386
 1442 026a 04EB4404 		add	r4, r4, r4, lsl #1	@ tmp150, tmp147, tmp147,
 1443              	.LVL104:
 945:.\stlib\STM32F10x_StdPeriph_Driver\src/stm32f10x_adc.c ****     /* Clear the old channel sample time */
 946:.\stlib\STM32F10x_StdPeriph_Driver\src/stm32f10x_adc.c ****     tmpreg1 &= ~tmpreg2;
 1444              		.loc 1 946 5 is_stmt 1 view .LVU387
 1445              	@ .\stlib\STM32F10x_StdPeriph_Driver\src\stm32f10x_adc.c:944:     tmpreg2 = SMPR1_SMP_Set << (3*(AD
 944:.\stlib\STM32F10x_StdPeriph_Driver\src/stm32f10x_adc.c ****     /* Clear the old channel sample time */
 1446              		.loc 1 944 13 is_stmt 0 view .LVU388
 1447 026e A640     		lsls	r6, r6, r4	@ tmpreg2, tmp152, tmp150
 1448              	.LVL105:
 1449              	@ .\stlib\STM32F10x_StdPeriph_Driver\src\stm32f10x_adc.c:946:     tmpreg1 &= ~tmpreg2;
 1450              		.loc 1 946 13 view .LVU389
ARM GAS  C:\Users\skey\AppData\Local\Temp\ccIkOQKS.s 			page 45


 1451 0270 25EA0605 		bic	r5, r5, r6	@ tmpreg1, tmpreg1, tmpreg2
 1452              	.LVL106:
 947:.\stlib\STM32F10x_StdPeriph_Driver\src/stm32f10x_adc.c ****     /* Calculate the mask to set */
 948:.\stlib\STM32F10x_StdPeriph_Driver\src/stm32f10x_adc.c ****     tmpreg2 = (uint32_t)ADC_SampleTime << (3*(ADC_Channel - 10));
 1453              		.loc 1 948 5 is_stmt 1 view .LVU390
 949:.\stlib\STM32F10x_StdPeriph_Driver\src/stm32f10x_adc.c ****     /* Set the new channel sample time */
 950:.\stlib\STM32F10x_StdPeriph_Driver\src/stm32f10x_adc.c ****     tmpreg1 |= tmpreg2;
 1454              		.loc 1 950 5 view .LVU391
 1455              	@ .\stlib\STM32F10x_StdPeriph_Driver\src\stm32f10x_adc.c:948:     tmpreg2 = (uint32_t)ADC_SampleTim
 948:.\stlib\STM32F10x_StdPeriph_Driver\src/stm32f10x_adc.c ****     /* Set the new channel sample time */
 1456              		.loc 1 948 13 is_stmt 0 view .LVU392
 1457 0274 03FA04F4 		lsl	r4, r3, r4	@ tmpreg2, ADC_SampleTime, tmp150
 1458              	.LVL107:
 1459              	@ .\stlib\STM32F10x_StdPeriph_Driver\src\stm32f10x_adc.c:950:     tmpreg1 |= tmpreg2;
 1460              		.loc 1 950 13 view .LVU393
 1461 0278 2C43     		orrs	r4, r4, r5	@, tmpreg1, tmpreg2, tmpreg1
 1462              	.LVL108:
 951:.\stlib\STM32F10x_StdPeriph_Driver\src/stm32f10x_adc.c ****     /* Store the new register value */
 952:.\stlib\STM32F10x_StdPeriph_Driver\src/stm32f10x_adc.c ****     ADCx->SMPR1 = tmpreg1;
 1463              		.loc 1 952 5 is_stmt 1 view .LVU394
 1464              	@ .\stlib\STM32F10x_StdPeriph_Driver\src\stm32f10x_adc.c:952:     ADCx->SMPR1 = tmpreg1;
 1465              		.loc 1 952 17 is_stmt 0 view .LVU395
 1466 027a C460     		str	r4, [r0, #12]	@ tmpreg1, ADCx_21(D)->SMPR1
 1467              	.LVL109:
 1468              	.L72:
 953:.\stlib\STM32F10x_StdPeriph_Driver\src/stm32f10x_adc.c ****   }
 954:.\stlib\STM32F10x_StdPeriph_Driver\src/stm32f10x_adc.c ****   else /* ADC_Channel include in ADC_Channel_[0..9] */
 955:.\stlib\STM32F10x_StdPeriph_Driver\src/stm32f10x_adc.c ****   {
 956:.\stlib\STM32F10x_StdPeriph_Driver\src/stm32f10x_adc.c ****     /* Get the old register value */
 957:.\stlib\STM32F10x_StdPeriph_Driver\src/stm32f10x_adc.c ****     tmpreg1 = ADCx->SMPR2;
 958:.\stlib\STM32F10x_StdPeriph_Driver\src/stm32f10x_adc.c ****     /* Calculate the mask to clear */
 959:.\stlib\STM32F10x_StdPeriph_Driver\src/stm32f10x_adc.c ****     tmpreg2 = SMPR2_SMP_Set << (3 * ADC_Channel);
 960:.\stlib\STM32F10x_StdPeriph_Driver\src/stm32f10x_adc.c ****     /* Clear the old channel sample time */
 961:.\stlib\STM32F10x_StdPeriph_Driver\src/stm32f10x_adc.c ****     tmpreg1 &= ~tmpreg2;
 962:.\stlib\STM32F10x_StdPeriph_Driver\src/stm32f10x_adc.c ****     /* Calculate the mask to set */
 963:.\stlib\STM32F10x_StdPeriph_Driver\src/stm32f10x_adc.c ****     tmpreg2 = (uint32_t)ADC_SampleTime << (3 * ADC_Channel);
 964:.\stlib\STM32F10x_StdPeriph_Driver\src/stm32f10x_adc.c ****     /* Set the new channel sample time */
 965:.\stlib\STM32F10x_StdPeriph_Driver\src/stm32f10x_adc.c ****     tmpreg1 |= tmpreg2;
 966:.\stlib\STM32F10x_StdPeriph_Driver\src/stm32f10x_adc.c ****     /* Store the new register value */
 967:.\stlib\STM32F10x_StdPeriph_Driver\src/stm32f10x_adc.c ****     ADCx->SMPR2 = tmpreg1;
 968:.\stlib\STM32F10x_StdPeriph_Driver\src/stm32f10x_adc.c ****   }
 969:.\stlib\STM32F10x_StdPeriph_Driver\src/stm32f10x_adc.c ****   /* Rank configuration */
 970:.\stlib\STM32F10x_StdPeriph_Driver\src/stm32f10x_adc.c ****   /* Get the old register value */
 971:.\stlib\STM32F10x_StdPeriph_Driver\src/stm32f10x_adc.c ****   tmpreg1 = ADCx->JSQR;
 1469              		.loc 1 971 3 is_stmt 1 view .LVU396
 1470              	@ .\stlib\STM32F10x_StdPeriph_Driver\src\stm32f10x_adc.c:971:   tmpreg1 = ADCx->JSQR;
 1471              		.loc 1 971 11 is_stmt 0 view .LVU397
 1472 027c 846B     		ldr	r4, [r0, #56]	@ tmpreg1, ADCx_21(D)->JSQR
 1473              	.LVL110:
 972:.\stlib\STM32F10x_StdPeriph_Driver\src/stm32f10x_adc.c ****   /* Get JL value: Number = JL+1 */
 973:.\stlib\STM32F10x_StdPeriph_Driver\src/stm32f10x_adc.c ****   tmpreg3 =  (tmpreg1 & JSQR_JL_Set)>> 20;
 1474              		.loc 1 973 3 is_stmt 1 view .LVU398
 974:.\stlib\STM32F10x_StdPeriph_Driver\src/stm32f10x_adc.c ****   /* Calculate the mask to clear: ((Rank-1)+(4-JL-1)) */
 975:.\stlib\STM32F10x_StdPeriph_Driver\src/stm32f10x_adc.c ****   tmpreg2 = JSQR_JSQ_Set << (5 * (uint8_t)((Rank + 3) - (tmpreg3 + 1)));
 1475              		.loc 1 975 3 view .LVU399
 1476              	@ .\stlib\STM32F10x_StdPeriph_Driver\src\stm32f10x_adc.c:975:   tmpreg2 = JSQR_JSQ_Set << (5 * (uin
 1477              		.loc 1 975 34 is_stmt 0 view .LVU400
ARM GAS  C:\Users\skey\AppData\Local\Temp\ccIkOQKS.s 			page 46


 1478 027e 931C     		adds	r3, r2, #2	@ tmp162, Rank,
 1479              	.LVL111:
 1480              	@ .\stlib\STM32F10x_StdPeriph_Driver\src\stm32f10x_adc.c:973:   tmpreg3 =  (tmpreg1 & JSQR_JL_Set)>
 973:.\stlib\STM32F10x_StdPeriph_Driver\src/stm32f10x_adc.c ****   /* Calculate the mask to clear: ((Rank-1)+(4-JL-1)) */
 1481              		.loc 1 973 11 view .LVU401
 1482 0280 C4F30152 		ubfx	r2, r4, #20, #2	@ tmpreg3, tmpreg1,,
 1483              	.LVL112:
 1484              	@ .\stlib\STM32F10x_StdPeriph_Driver\src\stm32f10x_adc.c:975:   tmpreg2 = JSQR_JSQ_Set << (5 * (uin
 1485              		.loc 1 975 34 view .LVU402
 1486 0284 9B1A     		subs	r3, r3, r2	@ tmp167, tmp162, tmpreg3
 1487              	@ .\stlib\STM32F10x_StdPeriph_Driver\src\stm32f10x_adc.c:975:   tmpreg2 = JSQR_JSQ_Set << (5 * (uin
 1488              		.loc 1 975 11 view .LVU403
 1489 0286 1F22     		movs	r2, #31	@ tmp173,
 1490              	@ .\stlib\STM32F10x_StdPeriph_Driver\src\stm32f10x_adc.c:975:   tmpreg2 = JSQR_JSQ_Set << (5 * (uin
 1491              		.loc 1 975 34 view .LVU404
 1492 0288 DBB2     		uxtb	r3, r3	@ tmp168, tmp167
 1493              	@ .\stlib\STM32F10x_StdPeriph_Driver\src\stm32f10x_adc.c:975:   tmpreg2 = JSQR_JSQ_Set << (5 * (uin
 1494              		.loc 1 975 32 view .LVU405
 1495 028a 03EB8303 		add	r3, r3, r3, lsl #2	@ tmp171, tmp168, tmp168,
 1496              	.LVL113:
 976:.\stlib\STM32F10x_StdPeriph_Driver\src/stm32f10x_adc.c ****   /* Clear the old JSQx bits for the selected rank */
 977:.\stlib\STM32F10x_StdPeriph_Driver\src/stm32f10x_adc.c ****   tmpreg1 &= ~tmpreg2;
 1497              		.loc 1 977 3 is_stmt 1 view .LVU406
 1498              	@ .\stlib\STM32F10x_StdPeriph_Driver\src\stm32f10x_adc.c:975:   tmpreg2 = JSQR_JSQ_Set << (5 * (uin
 975:.\stlib\STM32F10x_StdPeriph_Driver\src/stm32f10x_adc.c ****   /* Clear the old JSQx bits for the selected rank */
 1499              		.loc 1 975 11 is_stmt 0 view .LVU407
 1500 028e 9A40     		lsls	r2, r2, r3	@ tmpreg2, tmp173, tmp171
 1501              	.LVL114:
 1502              	@ .\stlib\STM32F10x_StdPeriph_Driver\src\stm32f10x_adc.c:977:   tmpreg1 &= ~tmpreg2;
 1503              		.loc 1 977 11 view .LVU408
 1504 0290 24EA0204 		bic	r4, r4, r2	@ tmpreg1, tmpreg1, tmpreg2
 1505              	.LVL115:
 978:.\stlib\STM32F10x_StdPeriph_Driver\src/stm32f10x_adc.c ****   /* Calculate the mask to set: ((Rank-1)+(4-JL-1)) */
 979:.\stlib\STM32F10x_StdPeriph_Driver\src/stm32f10x_adc.c ****   tmpreg2 = (uint32_t)ADC_Channel << (5 * (uint8_t)((Rank + 3) - (tmpreg3 + 1)));
 1506              		.loc 1 979 3 is_stmt 1 view .LVU409
 980:.\stlib\STM32F10x_StdPeriph_Driver\src/stm32f10x_adc.c ****   /* Set the JSQx bits for the selected rank */
 981:.\stlib\STM32F10x_StdPeriph_Driver\src/stm32f10x_adc.c ****   tmpreg1 |= tmpreg2;
 1507              		.loc 1 981 3 view .LVU410
 1508              	@ .\stlib\STM32F10x_StdPeriph_Driver\src\stm32f10x_adc.c:979:   tmpreg2 = (uint32_t)ADC_Channel << 
 979:.\stlib\STM32F10x_StdPeriph_Driver\src/stm32f10x_adc.c ****   /* Set the JSQx bits for the selected rank */
 1509              		.loc 1 979 11 is_stmt 0 view .LVU411
 1510 0294 01FA03F3 		lsl	r3, r1, r3	@ tmpreg2, ADC_Channel, tmp171
 1511              	.LVL116:
 1512              	@ .\stlib\STM32F10x_StdPeriph_Driver\src\stm32f10x_adc.c:981:   tmpreg1 |= tmpreg2;
 1513              		.loc 1 981 11 view .LVU412
 1514 0298 2343     		orrs	r3, r3, r4	@, tmpreg1, tmpreg2, tmpreg1
 1515              	.LVL117:
 982:.\stlib\STM32F10x_StdPeriph_Driver\src/stm32f10x_adc.c ****   /* Store the new register value */
 983:.\stlib\STM32F10x_StdPeriph_Driver\src/stm32f10x_adc.c ****   ADCx->JSQR = tmpreg1;
 1516              		.loc 1 983 3 is_stmt 1 view .LVU413
 1517              	@ .\stlib\STM32F10x_StdPeriph_Driver\src\stm32f10x_adc.c:983:   ADCx->JSQR = tmpreg1;
 1518              		.loc 1 983 14 is_stmt 0 view .LVU414
 1519 029a 8363     		str	r3, [r0, #56]	@ tmpreg1, ADCx_21(D)->JSQR
 1520              	@ .\stlib\STM32F10x_StdPeriph_Driver\src\stm32f10x_adc.c:984: }
 984:.\stlib\STM32F10x_StdPeriph_Driver\src/stm32f10x_adc.c **** }
 1521              		.loc 1 984 1 view .LVU415
 1522 029c 70BD     		pop	{r4, r5, r6, pc}	@
ARM GAS  C:\Users\skey\AppData\Local\Temp\ccIkOQKS.s 			page 47


 1523              	.LVL118:
 1524              	.L71:
 957:.\stlib\STM32F10x_StdPeriph_Driver\src/stm32f10x_adc.c ****     /* Calculate the mask to clear */
 1525              		.loc 1 957 5 is_stmt 1 view .LVU416
 1526              	@ .\stlib\STM32F10x_StdPeriph_Driver\src\stm32f10x_adc.c:959:     tmpreg2 = SMPR2_SMP_Set << (3 * A
 959:.\stlib\STM32F10x_StdPeriph_Driver\src/stm32f10x_adc.c ****     /* Clear the old channel sample time */
 1527              		.loc 1 959 13 is_stmt 0 view .LVU417
 1528 029e 0724     		movs	r4, #7	@ tmp159,
 1529              	@ .\stlib\STM32F10x_StdPeriph_Driver\src\stm32f10x_adc.c:957:     tmpreg1 = ADCx->SMPR2;
 957:.\stlib\STM32F10x_StdPeriph_Driver\src/stm32f10x_adc.c ****     /* Calculate the mask to clear */
 1530              		.loc 1 957 13 view .LVU418
 1531 02a0 0569     		ldr	r5, [r0, #16]	@ tmpreg1, ADCx_21(D)->SMPR2
 1532              	.LVL119:
 959:.\stlib\STM32F10x_StdPeriph_Driver\src/stm32f10x_adc.c ****     /* Clear the old channel sample time */
 1533              		.loc 1 959 5 is_stmt 1 view .LVU419
 1534              	@ .\stlib\STM32F10x_StdPeriph_Driver\src\stm32f10x_adc.c:959:     tmpreg2 = SMPR2_SMP_Set << (3 * A
 959:.\stlib\STM32F10x_StdPeriph_Driver\src/stm32f10x_adc.c ****     /* Clear the old channel sample time */
 1535              		.loc 1 959 35 is_stmt 0 view .LVU420
 1536 02a2 01EB4106 		add	r6, r1, r1, lsl #1	@ tmp157, ADC_Channel, ADC_Channel,
 1537              	.LVL120:
 961:.\stlib\STM32F10x_StdPeriph_Driver\src/stm32f10x_adc.c ****     /* Calculate the mask to set */
 1538              		.loc 1 961 5 is_stmt 1 view .LVU421
 1539              	@ .\stlib\STM32F10x_StdPeriph_Driver\src\stm32f10x_adc.c:959:     tmpreg2 = SMPR2_SMP_Set << (3 * A
 959:.\stlib\STM32F10x_StdPeriph_Driver\src/stm32f10x_adc.c ****     /* Clear the old channel sample time */
 1540              		.loc 1 959 13 is_stmt 0 view .LVU422
 1541 02a6 B440     		lsls	r4, r4, r6	@ tmpreg2, tmp159, tmp157
 1542              	.LVL121:
 1543              	@ .\stlib\STM32F10x_StdPeriph_Driver\src\stm32f10x_adc.c:961:     tmpreg1 &= ~tmpreg2;
 961:.\stlib\STM32F10x_StdPeriph_Driver\src/stm32f10x_adc.c ****     /* Calculate the mask to set */
 1544              		.loc 1 961 13 view .LVU423
 1545 02a8 25EA0405 		bic	r5, r5, r4	@ tmpreg1, tmpreg1, tmpreg2
 1546              	.LVL122:
 963:.\stlib\STM32F10x_StdPeriph_Driver\src/stm32f10x_adc.c ****     /* Set the new channel sample time */
 1547              		.loc 1 963 5 is_stmt 1 view .LVU424
 965:.\stlib\STM32F10x_StdPeriph_Driver\src/stm32f10x_adc.c ****     /* Store the new register value */
 1548              		.loc 1 965 5 view .LVU425
 1549              	@ .\stlib\STM32F10x_StdPeriph_Driver\src\stm32f10x_adc.c:963:     tmpreg2 = (uint32_t)ADC_SampleTim
 963:.\stlib\STM32F10x_StdPeriph_Driver\src/stm32f10x_adc.c ****     /* Set the new channel sample time */
 1550              		.loc 1 963 13 is_stmt 0 view .LVU426
 1551 02ac 03FA06F4 		lsl	r4, r3, r6	@ tmpreg2, ADC_SampleTime, tmp157
 1552              	.LVL123:
 1553              	@ .\stlib\STM32F10x_StdPeriph_Driver\src\stm32f10x_adc.c:965:     tmpreg1 |= tmpreg2;
 965:.\stlib\STM32F10x_StdPeriph_Driver\src/stm32f10x_adc.c ****     /* Store the new register value */
 1554              		.loc 1 965 13 view .LVU427
 1555 02b0 2C43     		orrs	r4, r4, r5	@, tmpreg1, tmpreg2, tmpreg1
 1556              	.LVL124:
 967:.\stlib\STM32F10x_StdPeriph_Driver\src/stm32f10x_adc.c ****   }
 1557              		.loc 1 967 5 is_stmt 1 view .LVU428
 1558              	@ .\stlib\STM32F10x_StdPeriph_Driver\src\stm32f10x_adc.c:967:     ADCx->SMPR2 = tmpreg1;
 967:.\stlib\STM32F10x_StdPeriph_Driver\src/stm32f10x_adc.c ****   }
 1559              		.loc 1 967 17 is_stmt 0 view .LVU429
 1560 02b2 0461     		str	r4, [r0, #16]	@ tmpreg1, ADCx_21(D)->SMPR2
 1561 02b4 E2E7     		b	.L72		@
 1562              		.cfi_endproc
 1563              	.LFE53:
 1564              		.size	ADC_InjectedChannelConfig, .-ADC_InjectedChannelConfig
 1565              		.align	1
ARM GAS  C:\Users\skey\AppData\Local\Temp\ccIkOQKS.s 			page 48


 1566              		.global	ADC_InjectedSequencerLengthConfig
 1567              		.syntax unified
 1568              		.thumb
 1569              		.thumb_func
 1570              		.fpu softvfp
 1571              		.type	ADC_InjectedSequencerLengthConfig, %function
 1572              	ADC_InjectedSequencerLengthConfig:
 1573              	.LVL125:
 1574              	.LFB54:
 985:.\stlib\STM32F10x_StdPeriph_Driver\src/stm32f10x_adc.c **** 
 986:.\stlib\STM32F10x_StdPeriph_Driver\src/stm32f10x_adc.c **** /**
 987:.\stlib\STM32F10x_StdPeriph_Driver\src/stm32f10x_adc.c ****   * @brief  Configures the sequencer length for injected channels
 988:.\stlib\STM32F10x_StdPeriph_Driver\src/stm32f10x_adc.c ****   * @param  ADCx: where x can be 1, 2 or 3 to select the ADC peripheral.
 989:.\stlib\STM32F10x_StdPeriph_Driver\src/stm32f10x_adc.c ****   * @param  Length: The sequencer length. 
 990:.\stlib\STM32F10x_StdPeriph_Driver\src/stm32f10x_adc.c ****   *   This parameter must be a number between 1 to 4.
 991:.\stlib\STM32F10x_StdPeriph_Driver\src/stm32f10x_adc.c ****   * @retval None
 992:.\stlib\STM32F10x_StdPeriph_Driver\src/stm32f10x_adc.c ****   */
 993:.\stlib\STM32F10x_StdPeriph_Driver\src/stm32f10x_adc.c **** void ADC_InjectedSequencerLengthConfig(ADC_TypeDef* ADCx, uint8_t Length)
 994:.\stlib\STM32F10x_StdPeriph_Driver\src/stm32f10x_adc.c **** {
 1575              		.loc 1 994 1 is_stmt 1 view -0
 1576              		.cfi_startproc
 1577              		@ args = 0, pretend = 0, frame = 0
 1578              		@ frame_needed = 0, uses_anonymous_args = 0
 1579              		@ link register save eliminated.
 995:.\stlib\STM32F10x_StdPeriph_Driver\src/stm32f10x_adc.c ****   uint32_t tmpreg1 = 0;
 1580              		.loc 1 995 3 view .LVU431
 996:.\stlib\STM32F10x_StdPeriph_Driver\src/stm32f10x_adc.c ****   uint32_t tmpreg2 = 0;
 1581              		.loc 1 996 3 view .LVU432
 997:.\stlib\STM32F10x_StdPeriph_Driver\src/stm32f10x_adc.c ****   /* Check the parameters */
 998:.\stlib\STM32F10x_StdPeriph_Driver\src/stm32f10x_adc.c ****   assert_param(IS_ADC_ALL_PERIPH(ADCx));
 1582              		.loc 1 998 3 view .LVU433
 999:.\stlib\STM32F10x_StdPeriph_Driver\src/stm32f10x_adc.c ****   assert_param(IS_ADC_INJECTED_LENGTH(Length));
 1583              		.loc 1 999 3 view .LVU434
1000:.\stlib\STM32F10x_StdPeriph_Driver\src/stm32f10x_adc.c ****   
1001:.\stlib\STM32F10x_StdPeriph_Driver\src/stm32f10x_adc.c ****   /* Get the old register value */
1002:.\stlib\STM32F10x_StdPeriph_Driver\src/stm32f10x_adc.c ****   tmpreg1 = ADCx->JSQR;
 1584              		.loc 1 1002 3 view .LVU435
 1585              	@ .\stlib\STM32F10x_StdPeriph_Driver\src\stm32f10x_adc.c:1002:   tmpreg1 = ADCx->JSQR;
 1586              		.loc 1 1002 11 is_stmt 0 view .LVU436
 1587 02b6 836B     		ldr	r3, [r0, #56]	@ tmpreg1, ADCx_5(D)->JSQR
 1588              	.LVL126:
1003:.\stlib\STM32F10x_StdPeriph_Driver\src/stm32f10x_adc.c ****   /* Clear the old injected sequnence lenght JL bits */
1004:.\stlib\STM32F10x_StdPeriph_Driver\src/stm32f10x_adc.c ****   tmpreg1 &= JSQR_JL_Reset;
 1589              		.loc 1 1004 3 is_stmt 1 view .LVU437
 1590              	@ .\stlib\STM32F10x_StdPeriph_Driver\src\stm32f10x_adc.c:1006:   tmpreg2 = Length - 1; 
1005:.\stlib\STM32F10x_StdPeriph_Driver\src/stm32f10x_adc.c ****   /* Set the injected sequnence lenght JL bits */
1006:.\stlib\STM32F10x_StdPeriph_Driver\src/stm32f10x_adc.c ****   tmpreg2 = Length - 1; 
 1591              		.loc 1 1006 20 is_stmt 0 view .LVU438
 1592 02b8 0139     		subs	r1, r1, #1	@ tmpreg2, tmp122,
 1593              	.LVL127:
 1594              	@ .\stlib\STM32F10x_StdPeriph_Driver\src\stm32f10x_adc.c:1004:   tmpreg1 &= JSQR_JL_Reset;
1004:.\stlib\STM32F10x_StdPeriph_Driver\src/stm32f10x_adc.c ****   /* Set the injected sequnence lenght JL bits */
 1595              		.loc 1 1004 11 view .LVU439
 1596 02ba 23F44013 		bic	r3, r3, #3145728	@ tmpreg1, tmpreg1,
 1597              	.LVL128:
 1598              		.loc 1 1006 3 is_stmt 1 view .LVU440
1007:.\stlib\STM32F10x_StdPeriph_Driver\src/stm32f10x_adc.c ****   tmpreg1 |= tmpreg2 << 20;
ARM GAS  C:\Users\skey\AppData\Local\Temp\ccIkOQKS.s 			page 49


 1599              		.loc 1 1007 3 view .LVU441
 1600              	@ .\stlib\STM32F10x_StdPeriph_Driver\src\stm32f10x_adc.c:1007:   tmpreg1 |= tmpreg2 << 20;
 1601              		.loc 1 1007 11 is_stmt 0 view .LVU442
 1602 02be 43EA0153 		orr	r3, r3, r1, lsl #20	@ tmpreg1, tmpreg1, tmpreg2,
 1603              	.LVL129:
1008:.\stlib\STM32F10x_StdPeriph_Driver\src/stm32f10x_adc.c ****   /* Store the new register value */
1009:.\stlib\STM32F10x_StdPeriph_Driver\src/stm32f10x_adc.c ****   ADCx->JSQR = tmpreg1;
 1604              		.loc 1 1009 3 is_stmt 1 view .LVU443
 1605              	@ .\stlib\STM32F10x_StdPeriph_Driver\src\stm32f10x_adc.c:1009:   ADCx->JSQR = tmpreg1;
 1606              		.loc 1 1009 14 is_stmt 0 view .LVU444
 1607 02c2 8363     		str	r3, [r0, #56]	@ tmpreg1, ADCx_5(D)->JSQR
 1608              	@ .\stlib\STM32F10x_StdPeriph_Driver\src\stm32f10x_adc.c:1010: }
1010:.\stlib\STM32F10x_StdPeriph_Driver\src/stm32f10x_adc.c **** }
 1609              		.loc 1 1010 1 view .LVU445
 1610 02c4 7047     		bx	lr	@
 1611              		.cfi_endproc
 1612              	.LFE54:
 1613              		.size	ADC_InjectedSequencerLengthConfig, .-ADC_InjectedSequencerLengthConfig
 1614              		.align	1
 1615              		.global	ADC_SetInjectedOffset
 1616              		.syntax unified
 1617              		.thumb
 1618              		.thumb_func
 1619              		.fpu softvfp
 1620              		.type	ADC_SetInjectedOffset, %function
 1621              	ADC_SetInjectedOffset:
 1622              	.LVL130:
 1623              	.LFB55:
1011:.\stlib\STM32F10x_StdPeriph_Driver\src/stm32f10x_adc.c **** 
1012:.\stlib\STM32F10x_StdPeriph_Driver\src/stm32f10x_adc.c **** /**
1013:.\stlib\STM32F10x_StdPeriph_Driver\src/stm32f10x_adc.c ****   * @brief  Set the injected channels conversion value offset
1014:.\stlib\STM32F10x_StdPeriph_Driver\src/stm32f10x_adc.c ****   * @param  ADCx: where x can be 1, 2 or 3 to select the ADC peripheral.
1015:.\stlib\STM32F10x_StdPeriph_Driver\src/stm32f10x_adc.c ****   * @param  ADC_InjectedChannel: the ADC injected channel to set its offset. 
1016:.\stlib\STM32F10x_StdPeriph_Driver\src/stm32f10x_adc.c ****   *   This parameter can be one of the following values:
1017:.\stlib\STM32F10x_StdPeriph_Driver\src/stm32f10x_adc.c ****   *     @arg ADC_InjectedChannel_1: Injected Channel1 selected
1018:.\stlib\STM32F10x_StdPeriph_Driver\src/stm32f10x_adc.c ****   *     @arg ADC_InjectedChannel_2: Injected Channel2 selected
1019:.\stlib\STM32F10x_StdPeriph_Driver\src/stm32f10x_adc.c ****   *     @arg ADC_InjectedChannel_3: Injected Channel3 selected
1020:.\stlib\STM32F10x_StdPeriph_Driver\src/stm32f10x_adc.c ****   *     @arg ADC_InjectedChannel_4: Injected Channel4 selected
1021:.\stlib\STM32F10x_StdPeriph_Driver\src/stm32f10x_adc.c ****   * @param  Offset: the offset value for the selected ADC injected channel
1022:.\stlib\STM32F10x_StdPeriph_Driver\src/stm32f10x_adc.c ****   *   This parameter must be a 12bit value.
1023:.\stlib\STM32F10x_StdPeriph_Driver\src/stm32f10x_adc.c ****   * @retval None
1024:.\stlib\STM32F10x_StdPeriph_Driver\src/stm32f10x_adc.c ****   */
1025:.\stlib\STM32F10x_StdPeriph_Driver\src/stm32f10x_adc.c **** void ADC_SetInjectedOffset(ADC_TypeDef* ADCx, uint8_t ADC_InjectedChannel, uint16_t Offset)
1026:.\stlib\STM32F10x_StdPeriph_Driver\src/stm32f10x_adc.c **** {
 1624              		.loc 1 1026 1 is_stmt 1 view -0
 1625              		.cfi_startproc
 1626              		@ args = 0, pretend = 0, frame = 8
 1627              		@ frame_needed = 0, uses_anonymous_args = 0
 1628              		@ link register save eliminated.
1027:.\stlib\STM32F10x_StdPeriph_Driver\src/stm32f10x_adc.c ****   __IO uint32_t tmp = 0;
 1629              		.loc 1 1027 3 view .LVU447
 1630              	@ .\stlib\STM32F10x_StdPeriph_Driver\src\stm32f10x_adc.c:1027:   __IO uint32_t tmp = 0;
 1631              		.loc 1 1027 17 is_stmt 0 view .LVU448
 1632 02c6 0023     		movs	r3, #0	@ tmp120,
 1633              	@ .\stlib\STM32F10x_StdPeriph_Driver\src\stm32f10x_adc.c:1026: {
1026:.\stlib\STM32F10x_StdPeriph_Driver\src/stm32f10x_adc.c ****   __IO uint32_t tmp = 0;
 1634              		.loc 1 1026 1 view .LVU449
ARM GAS  C:\Users\skey\AppData\Local\Temp\ccIkOQKS.s 			page 50


 1635 02c8 82B0     		sub	sp, sp, #8	@,,
 1636              	.LCFI6:
 1637              		.cfi_def_cfa_offset 8
 1638              	@ .\stlib\STM32F10x_StdPeriph_Driver\src\stm32f10x_adc.c:1027:   __IO uint32_t tmp = 0;
 1639              		.loc 1 1027 17 view .LVU450
 1640 02ca 0193     		str	r3, [sp, #4]	@ tmp120, tmp
1028:.\stlib\STM32F10x_StdPeriph_Driver\src/stm32f10x_adc.c ****   
1029:.\stlib\STM32F10x_StdPeriph_Driver\src/stm32f10x_adc.c ****   /* Check the parameters */
1030:.\stlib\STM32F10x_StdPeriph_Driver\src/stm32f10x_adc.c ****   assert_param(IS_ADC_ALL_PERIPH(ADCx));
 1641              		.loc 1 1030 3 is_stmt 1 view .LVU451
1031:.\stlib\STM32F10x_StdPeriph_Driver\src/stm32f10x_adc.c ****   assert_param(IS_ADC_INJECTED_CHANNEL(ADC_InjectedChannel));
 1642              		.loc 1 1031 3 view .LVU452
1032:.\stlib\STM32F10x_StdPeriph_Driver\src/stm32f10x_adc.c ****   assert_param(IS_ADC_OFFSET(Offset));  
 1643              		.loc 1 1032 3 view .LVU453
1033:.\stlib\STM32F10x_StdPeriph_Driver\src/stm32f10x_adc.c ****   
1034:.\stlib\STM32F10x_StdPeriph_Driver\src/stm32f10x_adc.c ****   tmp = (uint32_t)ADCx;
 1644              		.loc 1 1034 3 view .LVU454
 1645              	@ .\stlib\STM32F10x_StdPeriph_Driver\src\stm32f10x_adc.c:1034:   tmp = (uint32_t)ADCx;
 1646              		.loc 1 1034 7 is_stmt 0 view .LVU455
 1647 02cc 0190     		str	r0, [sp, #4]	@ ADCx, tmp
1035:.\stlib\STM32F10x_StdPeriph_Driver\src/stm32f10x_adc.c ****   tmp += ADC_InjectedChannel;
 1648              		.loc 1 1035 3 is_stmt 1 view .LVU456
 1649              	@ .\stlib\STM32F10x_StdPeriph_Driver\src\stm32f10x_adc.c:1035:   tmp += ADC_InjectedChannel;
 1650              		.loc 1 1035 7 is_stmt 0 view .LVU457
 1651 02ce 019B     		ldr	r3, [sp, #4]	@ tmp.1_3, tmp
 1652 02d0 1944     		add	r1, r1, r3	@ _4, tmp.1_3
 1653              	.LVL131:
 1654              		.loc 1 1035 7 view .LVU458
 1655 02d2 0191     		str	r1, [sp, #4]	@ _4, tmp
1036:.\stlib\STM32F10x_StdPeriph_Driver\src/stm32f10x_adc.c ****   
1037:.\stlib\STM32F10x_StdPeriph_Driver\src/stm32f10x_adc.c ****   /* Set the selected injected channel data offset */
1038:.\stlib\STM32F10x_StdPeriph_Driver\src/stm32f10x_adc.c ****   *(__IO uint32_t *) tmp = (uint32_t)Offset;
 1656              		.loc 1 1038 3 is_stmt 1 view .LVU459
 1657              	@ .\stlib\STM32F10x_StdPeriph_Driver\src\stm32f10x_adc.c:1038:   *(__IO uint32_t *) tmp = (uint32_t
 1658              		.loc 1 1038 4 is_stmt 0 view .LVU460
 1659 02d4 019B     		ldr	r3, [sp, #4]	@ tmp.2_5, tmp
 1660              	@ .\stlib\STM32F10x_StdPeriph_Driver\src\stm32f10x_adc.c:1038:   *(__IO uint32_t *) tmp = (uint32_t
 1661              		.loc 1 1038 26 view .LVU461
 1662 02d6 1A60     		str	r2, [r3]	@ Offset, *tmp.3_6
 1663              	@ .\stlib\STM32F10x_StdPeriph_Driver\src\stm32f10x_adc.c:1039: }
1039:.\stlib\STM32F10x_StdPeriph_Driver\src/stm32f10x_adc.c **** }
 1664              		.loc 1 1039 1 view .LVU462
 1665 02d8 02B0     		add	sp, sp, #8	@,,
 1666              	.LCFI7:
 1667              		.cfi_def_cfa_offset 0
 1668              		@ sp needed	@
 1669 02da 7047     		bx	lr	@
 1670              		.cfi_endproc
 1671              	.LFE55:
 1672              		.size	ADC_SetInjectedOffset, .-ADC_SetInjectedOffset
 1673              		.align	1
 1674              		.global	ADC_GetInjectedConversionValue
 1675              		.syntax unified
 1676              		.thumb
 1677              		.thumb_func
 1678              		.fpu softvfp
 1679              		.type	ADC_GetInjectedConversionValue, %function
ARM GAS  C:\Users\skey\AppData\Local\Temp\ccIkOQKS.s 			page 51


 1680              	ADC_GetInjectedConversionValue:
 1681              	.LVL132:
 1682              	.LFB56:
1040:.\stlib\STM32F10x_StdPeriph_Driver\src/stm32f10x_adc.c **** 
1041:.\stlib\STM32F10x_StdPeriph_Driver\src/stm32f10x_adc.c **** /**
1042:.\stlib\STM32F10x_StdPeriph_Driver\src/stm32f10x_adc.c ****   * @brief  Returns the ADC injected channel conversion result
1043:.\stlib\STM32F10x_StdPeriph_Driver\src/stm32f10x_adc.c ****   * @param  ADCx: where x can be 1, 2 or 3 to select the ADC peripheral.
1044:.\stlib\STM32F10x_StdPeriph_Driver\src/stm32f10x_adc.c ****   * @param  ADC_InjectedChannel: the converted ADC injected channel.
1045:.\stlib\STM32F10x_StdPeriph_Driver\src/stm32f10x_adc.c ****   *   This parameter can be one of the following values:
1046:.\stlib\STM32F10x_StdPeriph_Driver\src/stm32f10x_adc.c ****   *     @arg ADC_InjectedChannel_1: Injected Channel1 selected
1047:.\stlib\STM32F10x_StdPeriph_Driver\src/stm32f10x_adc.c ****   *     @arg ADC_InjectedChannel_2: Injected Channel2 selected
1048:.\stlib\STM32F10x_StdPeriph_Driver\src/stm32f10x_adc.c ****   *     @arg ADC_InjectedChannel_3: Injected Channel3 selected
1049:.\stlib\STM32F10x_StdPeriph_Driver\src/stm32f10x_adc.c ****   *     @arg ADC_InjectedChannel_4: Injected Channel4 selected
1050:.\stlib\STM32F10x_StdPeriph_Driver\src/stm32f10x_adc.c ****   * @retval The Data conversion value.
1051:.\stlib\STM32F10x_StdPeriph_Driver\src/stm32f10x_adc.c ****   */
1052:.\stlib\STM32F10x_StdPeriph_Driver\src/stm32f10x_adc.c **** uint16_t ADC_GetInjectedConversionValue(ADC_TypeDef* ADCx, uint8_t ADC_InjectedChannel)
1053:.\stlib\STM32F10x_StdPeriph_Driver\src/stm32f10x_adc.c **** {
 1683              		.loc 1 1053 1 is_stmt 1 view -0
 1684              		.cfi_startproc
 1685              		@ args = 0, pretend = 0, frame = 8
 1686              		@ frame_needed = 0, uses_anonymous_args = 0
 1687              		@ link register save eliminated.
1054:.\stlib\STM32F10x_StdPeriph_Driver\src/stm32f10x_adc.c ****   __IO uint32_t tmp = 0;
 1688              		.loc 1 1054 3 view .LVU464
 1689              	@ .\stlib\STM32F10x_StdPeriph_Driver\src\stm32f10x_adc.c:1054:   __IO uint32_t tmp = 0;
 1690              		.loc 1 1054 17 is_stmt 0 view .LVU465
 1691 02dc 0023     		movs	r3, #0	@ tmp121,
 1692              	@ .\stlib\STM32F10x_StdPeriph_Driver\src\stm32f10x_adc.c:1053: {
1053:.\stlib\STM32F10x_StdPeriph_Driver\src/stm32f10x_adc.c ****   __IO uint32_t tmp = 0;
 1693              		.loc 1 1053 1 view .LVU466
 1694 02de 82B0     		sub	sp, sp, #8	@,,
 1695              	.LCFI8:
 1696              		.cfi_def_cfa_offset 8
 1697              	@ .\stlib\STM32F10x_StdPeriph_Driver\src\stm32f10x_adc.c:1054:   __IO uint32_t tmp = 0;
 1698              		.loc 1 1054 17 view .LVU467
 1699 02e0 0193     		str	r3, [sp, #4]	@ tmp121, tmp
1055:.\stlib\STM32F10x_StdPeriph_Driver\src/stm32f10x_adc.c ****   
1056:.\stlib\STM32F10x_StdPeriph_Driver\src/stm32f10x_adc.c ****   /* Check the parameters */
1057:.\stlib\STM32F10x_StdPeriph_Driver\src/stm32f10x_adc.c ****   assert_param(IS_ADC_ALL_PERIPH(ADCx));
 1700              		.loc 1 1057 3 is_stmt 1 view .LVU468
1058:.\stlib\STM32F10x_StdPeriph_Driver\src/stm32f10x_adc.c ****   assert_param(IS_ADC_INJECTED_CHANNEL(ADC_InjectedChannel));
 1701              		.loc 1 1058 3 view .LVU469
1059:.\stlib\STM32F10x_StdPeriph_Driver\src/stm32f10x_adc.c **** 
1060:.\stlib\STM32F10x_StdPeriph_Driver\src/stm32f10x_adc.c ****   tmp = (uint32_t)ADCx;
 1702              		.loc 1 1060 3 view .LVU470
 1703              	@ .\stlib\STM32F10x_StdPeriph_Driver\src\stm32f10x_adc.c:1060:   tmp = (uint32_t)ADCx;
 1704              		.loc 1 1060 7 is_stmt 0 view .LVU471
 1705 02e2 0190     		str	r0, [sp, #4]	@ ADCx, tmp
1061:.\stlib\STM32F10x_StdPeriph_Driver\src/stm32f10x_adc.c ****   tmp += ADC_InjectedChannel + JDR_Offset;
 1706              		.loc 1 1061 3 is_stmt 1 view .LVU472
 1707              	@ .\stlib\STM32F10x_StdPeriph_Driver\src\stm32f10x_adc.c:1061:   tmp += ADC_InjectedChannel + JDR_O
 1708              		.loc 1 1061 7 is_stmt 0 view .LVU473
 1709 02e4 019B     		ldr	r3, [sp, #4]	@ tmp.5_3, tmp
 1710 02e6 2833     		adds	r3, r3, #40	@ tmp122, tmp.5_3,
 1711 02e8 0B44     		add	r3, r3, r1	@ _5, tmp126
 1712 02ea 0193     		str	r3, [sp, #4]	@ _5, tmp
1062:.\stlib\STM32F10x_StdPeriph_Driver\src/stm32f10x_adc.c ****   
ARM GAS  C:\Users\skey\AppData\Local\Temp\ccIkOQKS.s 			page 52


1063:.\stlib\STM32F10x_StdPeriph_Driver\src/stm32f10x_adc.c ****   /* Returns the selected injected channel conversion data value */
1064:.\stlib\STM32F10x_StdPeriph_Driver\src/stm32f10x_adc.c ****   return (uint16_t) (*(__IO uint32_t*)  tmp);   
 1713              		.loc 1 1064 3 is_stmt 1 view .LVU474
 1714              	@ .\stlib\STM32F10x_StdPeriph_Driver\src\stm32f10x_adc.c:1064:   return (uint16_t) (*(__IO uint32_t
 1715              		.loc 1 1064 23 is_stmt 0 view .LVU475
 1716 02ec 019B     		ldr	r3, [sp, #4]	@ tmp.6_6, tmp
 1717              	@ .\stlib\STM32F10x_StdPeriph_Driver\src\stm32f10x_adc.c:1064:   return (uint16_t) (*(__IO uint32_t
 1718              		.loc 1 1064 22 view .LVU476
 1719 02ee 1868     		ldr	r0, [r3]	@ _8, *tmp.7_7
 1720              	.LVL133:
 1721              	@ .\stlib\STM32F10x_StdPeriph_Driver\src\stm32f10x_adc.c:1065: }
1065:.\stlib\STM32F10x_StdPeriph_Driver\src/stm32f10x_adc.c **** }
 1722              		.loc 1 1065 1 view .LVU477
 1723 02f0 80B2     		uxth	r0, r0	@, _8
 1724 02f2 02B0     		add	sp, sp, #8	@,,
 1725              	.LCFI9:
 1726              		.cfi_def_cfa_offset 0
 1727              		@ sp needed	@
 1728 02f4 7047     		bx	lr	@
 1729              		.cfi_endproc
 1730              	.LFE56:
 1731              		.size	ADC_GetInjectedConversionValue, .-ADC_GetInjectedConversionValue
 1732              		.align	1
 1733              		.global	ADC_AnalogWatchdogCmd
 1734              		.syntax unified
 1735              		.thumb
 1736              		.thumb_func
 1737              		.fpu softvfp
 1738              		.type	ADC_AnalogWatchdogCmd, %function
 1739              	ADC_AnalogWatchdogCmd:
 1740              	.LVL134:
 1741              	.LFB57:
1066:.\stlib\STM32F10x_StdPeriph_Driver\src/stm32f10x_adc.c **** 
1067:.\stlib\STM32F10x_StdPeriph_Driver\src/stm32f10x_adc.c **** /**
1068:.\stlib\STM32F10x_StdPeriph_Driver\src/stm32f10x_adc.c ****   * @brief  Enables or disables the analog watchdog on single/all regular
1069:.\stlib\STM32F10x_StdPeriph_Driver\src/stm32f10x_adc.c ****   *         or injected channels
1070:.\stlib\STM32F10x_StdPeriph_Driver\src/stm32f10x_adc.c ****   * @param  ADCx: where x can be 1, 2 or 3 to select the ADC peripheral.
1071:.\stlib\STM32F10x_StdPeriph_Driver\src/stm32f10x_adc.c ****   * @param  ADC_AnalogWatchdog: the ADC analog watchdog configuration.
1072:.\stlib\STM32F10x_StdPeriph_Driver\src/stm32f10x_adc.c ****   *   This parameter can be one of the following values:
1073:.\stlib\STM32F10x_StdPeriph_Driver\src/stm32f10x_adc.c ****   *     @arg ADC_AnalogWatchdog_SingleRegEnable: Analog watchdog on a single regular channel
1074:.\stlib\STM32F10x_StdPeriph_Driver\src/stm32f10x_adc.c ****   *     @arg ADC_AnalogWatchdog_SingleInjecEnable: Analog watchdog on a single injected channel
1075:.\stlib\STM32F10x_StdPeriph_Driver\src/stm32f10x_adc.c ****   *     @arg ADC_AnalogWatchdog_SingleRegOrInjecEnable: Analog watchdog on a single regular or inje
1076:.\stlib\STM32F10x_StdPeriph_Driver\src/stm32f10x_adc.c ****   *     @arg ADC_AnalogWatchdog_AllRegEnable: Analog watchdog on  all regular channel
1077:.\stlib\STM32F10x_StdPeriph_Driver\src/stm32f10x_adc.c ****   *     @arg ADC_AnalogWatchdog_AllInjecEnable: Analog watchdog on  all injected channel
1078:.\stlib\STM32F10x_StdPeriph_Driver\src/stm32f10x_adc.c ****   *     @arg ADC_AnalogWatchdog_AllRegAllInjecEnable: Analog watchdog on all regular and injected c
1079:.\stlib\STM32F10x_StdPeriph_Driver\src/stm32f10x_adc.c ****   *     @arg ADC_AnalogWatchdog_None: No channel guarded by the analog watchdog
1080:.\stlib\STM32F10x_StdPeriph_Driver\src/stm32f10x_adc.c ****   * @retval None	  
1081:.\stlib\STM32F10x_StdPeriph_Driver\src/stm32f10x_adc.c ****   */
1082:.\stlib\STM32F10x_StdPeriph_Driver\src/stm32f10x_adc.c **** void ADC_AnalogWatchdogCmd(ADC_TypeDef* ADCx, uint32_t ADC_AnalogWatchdog)
1083:.\stlib\STM32F10x_StdPeriph_Driver\src/stm32f10x_adc.c **** {
 1742              		.loc 1 1083 1 is_stmt 1 view -0
 1743              		.cfi_startproc
 1744              		@ args = 0, pretend = 0, frame = 0
 1745              		@ frame_needed = 0, uses_anonymous_args = 0
 1746              		@ link register save eliminated.
1084:.\stlib\STM32F10x_StdPeriph_Driver\src/stm32f10x_adc.c ****   uint32_t tmpreg = 0;
 1747              		.loc 1 1084 3 view .LVU479
ARM GAS  C:\Users\skey\AppData\Local\Temp\ccIkOQKS.s 			page 53


1085:.\stlib\STM32F10x_StdPeriph_Driver\src/stm32f10x_adc.c ****   /* Check the parameters */
1086:.\stlib\STM32F10x_StdPeriph_Driver\src/stm32f10x_adc.c ****   assert_param(IS_ADC_ALL_PERIPH(ADCx));
 1748              		.loc 1 1086 3 view .LVU480
1087:.\stlib\STM32F10x_StdPeriph_Driver\src/stm32f10x_adc.c ****   assert_param(IS_ADC_ANALOG_WATCHDOG(ADC_AnalogWatchdog));
 1749              		.loc 1 1087 3 view .LVU481
1088:.\stlib\STM32F10x_StdPeriph_Driver\src/stm32f10x_adc.c ****   /* Get the old register value */
1089:.\stlib\STM32F10x_StdPeriph_Driver\src/stm32f10x_adc.c ****   tmpreg = ADCx->CR1;
 1750              		.loc 1 1089 3 view .LVU482
 1751              	@ .\stlib\STM32F10x_StdPeriph_Driver\src\stm32f10x_adc.c:1089:   tmpreg = ADCx->CR1;
 1752              		.loc 1 1089 10 is_stmt 0 view .LVU483
 1753 02f6 4368     		ldr	r3, [r0, #4]	@ tmpreg, ADCx_2(D)->CR1
 1754              	.LVL135:
1090:.\stlib\STM32F10x_StdPeriph_Driver\src/stm32f10x_adc.c ****   /* Clear AWDEN, AWDENJ and AWDSGL bits */
1091:.\stlib\STM32F10x_StdPeriph_Driver\src/stm32f10x_adc.c ****   tmpreg &= CR1_AWDMode_Reset;
 1755              		.loc 1 1091 3 is_stmt 1 view .LVU484
 1756              	@ .\stlib\STM32F10x_StdPeriph_Driver\src\stm32f10x_adc.c:1091:   tmpreg &= CR1_AWDMode_Reset;
 1757              		.loc 1 1091 10 is_stmt 0 view .LVU485
 1758 02f8 23F44003 		bic	r3, r3, #12582912	@ tmpreg, tmpreg,
 1759              	.LVL136:
 1760              		.loc 1 1091 10 view .LVU486
 1761 02fc 23F40073 		bic	r3, r3, #512	@ tmpreg, tmpreg,
 1762              	.LVL137:
1092:.\stlib\STM32F10x_StdPeriph_Driver\src/stm32f10x_adc.c ****   /* Set the analog watchdog enable mode */
1093:.\stlib\STM32F10x_StdPeriph_Driver\src/stm32f10x_adc.c ****   tmpreg |= ADC_AnalogWatchdog;
 1763              		.loc 1 1093 3 is_stmt 1 view .LVU487
 1764              	@ .\stlib\STM32F10x_StdPeriph_Driver\src\stm32f10x_adc.c:1093:   tmpreg |= ADC_AnalogWatchdog;
 1765              		.loc 1 1093 10 is_stmt 0 view .LVU488
 1766 0300 0B43     		orrs	r3, r3, r1	@, tmpreg, tmpreg, tmp117
 1767              	.LVL138:
1094:.\stlib\STM32F10x_StdPeriph_Driver\src/stm32f10x_adc.c ****   /* Store the new register value */
1095:.\stlib\STM32F10x_StdPeriph_Driver\src/stm32f10x_adc.c ****   ADCx->CR1 = tmpreg;
 1768              		.loc 1 1095 3 is_stmt 1 view .LVU489
 1769              	@ .\stlib\STM32F10x_StdPeriph_Driver\src\stm32f10x_adc.c:1095:   ADCx->CR1 = tmpreg;
 1770              		.loc 1 1095 13 is_stmt 0 view .LVU490
 1771 0302 4360     		str	r3, [r0, #4]	@ tmpreg, ADCx_2(D)->CR1
 1772              	@ .\stlib\STM32F10x_StdPeriph_Driver\src\stm32f10x_adc.c:1096: }
1096:.\stlib\STM32F10x_StdPeriph_Driver\src/stm32f10x_adc.c **** }
 1773              		.loc 1 1096 1 view .LVU491
 1774 0304 7047     		bx	lr	@
 1775              		.cfi_endproc
 1776              	.LFE57:
 1777              		.size	ADC_AnalogWatchdogCmd, .-ADC_AnalogWatchdogCmd
 1778              		.align	1
 1779              		.global	ADC_AnalogWatchdogThresholdsConfig
 1780              		.syntax unified
 1781              		.thumb
 1782              		.thumb_func
 1783              		.fpu softvfp
 1784              		.type	ADC_AnalogWatchdogThresholdsConfig, %function
 1785              	ADC_AnalogWatchdogThresholdsConfig:
 1786              	.LVL139:
 1787              	.LFB58:
1097:.\stlib\STM32F10x_StdPeriph_Driver\src/stm32f10x_adc.c **** 
1098:.\stlib\STM32F10x_StdPeriph_Driver\src/stm32f10x_adc.c **** /**
1099:.\stlib\STM32F10x_StdPeriph_Driver\src/stm32f10x_adc.c ****   * @brief  Configures the high and low thresholds of the analog watchdog.
1100:.\stlib\STM32F10x_StdPeriph_Driver\src/stm32f10x_adc.c ****   * @param  ADCx: where x can be 1, 2 or 3 to select the ADC peripheral.
1101:.\stlib\STM32F10x_StdPeriph_Driver\src/stm32f10x_adc.c ****   * @param  HighThreshold: the ADC analog watchdog High threshold value.
ARM GAS  C:\Users\skey\AppData\Local\Temp\ccIkOQKS.s 			page 54


1102:.\stlib\STM32F10x_StdPeriph_Driver\src/stm32f10x_adc.c ****   *   This parameter must be a 12bit value.
1103:.\stlib\STM32F10x_StdPeriph_Driver\src/stm32f10x_adc.c ****   * @param  LowThreshold: the ADC analog watchdog Low threshold value.
1104:.\stlib\STM32F10x_StdPeriph_Driver\src/stm32f10x_adc.c ****   *   This parameter must be a 12bit value.
1105:.\stlib\STM32F10x_StdPeriph_Driver\src/stm32f10x_adc.c ****   * @retval None
1106:.\stlib\STM32F10x_StdPeriph_Driver\src/stm32f10x_adc.c ****   */
1107:.\stlib\STM32F10x_StdPeriph_Driver\src/stm32f10x_adc.c **** void ADC_AnalogWatchdogThresholdsConfig(ADC_TypeDef* ADCx, uint16_t HighThreshold,
1108:.\stlib\STM32F10x_StdPeriph_Driver\src/stm32f10x_adc.c ****                                         uint16_t LowThreshold)
1109:.\stlib\STM32F10x_StdPeriph_Driver\src/stm32f10x_adc.c **** {
 1788              		.loc 1 1109 1 is_stmt 1 view -0
 1789              		.cfi_startproc
 1790              		@ args = 0, pretend = 0, frame = 0
 1791              		@ frame_needed = 0, uses_anonymous_args = 0
 1792              		@ link register save eliminated.
1110:.\stlib\STM32F10x_StdPeriph_Driver\src/stm32f10x_adc.c ****   /* Check the parameters */
1111:.\stlib\STM32F10x_StdPeriph_Driver\src/stm32f10x_adc.c ****   assert_param(IS_ADC_ALL_PERIPH(ADCx));
 1793              		.loc 1 1111 3 view .LVU493
1112:.\stlib\STM32F10x_StdPeriph_Driver\src/stm32f10x_adc.c ****   assert_param(IS_ADC_THRESHOLD(HighThreshold));
 1794              		.loc 1 1112 3 view .LVU494
1113:.\stlib\STM32F10x_StdPeriph_Driver\src/stm32f10x_adc.c ****   assert_param(IS_ADC_THRESHOLD(LowThreshold));
 1795              		.loc 1 1113 3 view .LVU495
1114:.\stlib\STM32F10x_StdPeriph_Driver\src/stm32f10x_adc.c ****   /* Set the ADCx high threshold */
1115:.\stlib\STM32F10x_StdPeriph_Driver\src/stm32f10x_adc.c ****   ADCx->HTR = HighThreshold;
 1796              		.loc 1 1115 3 view .LVU496
 1797              	@ .\stlib\STM32F10x_StdPeriph_Driver\src\stm32f10x_adc.c:1115:   ADCx->HTR = HighThreshold;
 1798              		.loc 1 1115 13 is_stmt 0 view .LVU497
 1799 0306 4162     		str	r1, [r0, #36]	@ HighThreshold, ADCx_5(D)->HTR
1116:.\stlib\STM32F10x_StdPeriph_Driver\src/stm32f10x_adc.c ****   /* Set the ADCx low threshold */
1117:.\stlib\STM32F10x_StdPeriph_Driver\src/stm32f10x_adc.c ****   ADCx->LTR = LowThreshold;
 1800              		.loc 1 1117 3 is_stmt 1 view .LVU498
 1801              	@ .\stlib\STM32F10x_StdPeriph_Driver\src\stm32f10x_adc.c:1117:   ADCx->LTR = LowThreshold;
 1802              		.loc 1 1117 13 is_stmt 0 view .LVU499
 1803 0308 8262     		str	r2, [r0, #40]	@ LowThreshold, ADCx_5(D)->LTR
 1804              	@ .\stlib\STM32F10x_StdPeriph_Driver\src\stm32f10x_adc.c:1118: }
1118:.\stlib\STM32F10x_StdPeriph_Driver\src/stm32f10x_adc.c **** }
 1805              		.loc 1 1118 1 view .LVU500
 1806 030a 7047     		bx	lr	@
 1807              		.cfi_endproc
 1808              	.LFE58:
 1809              		.size	ADC_AnalogWatchdogThresholdsConfig, .-ADC_AnalogWatchdogThresholdsConfig
 1810              		.align	1
 1811              		.global	ADC_AnalogWatchdogSingleChannelConfig
 1812              		.syntax unified
 1813              		.thumb
 1814              		.thumb_func
 1815              		.fpu softvfp
 1816              		.type	ADC_AnalogWatchdogSingleChannelConfig, %function
 1817              	ADC_AnalogWatchdogSingleChannelConfig:
 1818              	.LVL140:
 1819              	.LFB59:
1119:.\stlib\STM32F10x_StdPeriph_Driver\src/stm32f10x_adc.c **** 
1120:.\stlib\STM32F10x_StdPeriph_Driver\src/stm32f10x_adc.c **** /**
1121:.\stlib\STM32F10x_StdPeriph_Driver\src/stm32f10x_adc.c ****   * @brief  Configures the analog watchdog guarded single channel
1122:.\stlib\STM32F10x_StdPeriph_Driver\src/stm32f10x_adc.c ****   * @param  ADCx: where x can be 1, 2 or 3 to select the ADC peripheral.
1123:.\stlib\STM32F10x_StdPeriph_Driver\src/stm32f10x_adc.c ****   * @param  ADC_Channel: the ADC channel to configure for the analog watchdog. 
1124:.\stlib\STM32F10x_StdPeriph_Driver\src/stm32f10x_adc.c ****   *   This parameter can be one of the following values:
1125:.\stlib\STM32F10x_StdPeriph_Driver\src/stm32f10x_adc.c ****   *     @arg ADC_Channel_0: ADC Channel0 selected
1126:.\stlib\STM32F10x_StdPeriph_Driver\src/stm32f10x_adc.c ****   *     @arg ADC_Channel_1: ADC Channel1 selected
ARM GAS  C:\Users\skey\AppData\Local\Temp\ccIkOQKS.s 			page 55


1127:.\stlib\STM32F10x_StdPeriph_Driver\src/stm32f10x_adc.c ****   *     @arg ADC_Channel_2: ADC Channel2 selected
1128:.\stlib\STM32F10x_StdPeriph_Driver\src/stm32f10x_adc.c ****   *     @arg ADC_Channel_3: ADC Channel3 selected
1129:.\stlib\STM32F10x_StdPeriph_Driver\src/stm32f10x_adc.c ****   *     @arg ADC_Channel_4: ADC Channel4 selected
1130:.\stlib\STM32F10x_StdPeriph_Driver\src/stm32f10x_adc.c ****   *     @arg ADC_Channel_5: ADC Channel5 selected
1131:.\stlib\STM32F10x_StdPeriph_Driver\src/stm32f10x_adc.c ****   *     @arg ADC_Channel_6: ADC Channel6 selected
1132:.\stlib\STM32F10x_StdPeriph_Driver\src/stm32f10x_adc.c ****   *     @arg ADC_Channel_7: ADC Channel7 selected
1133:.\stlib\STM32F10x_StdPeriph_Driver\src/stm32f10x_adc.c ****   *     @arg ADC_Channel_8: ADC Channel8 selected
1134:.\stlib\STM32F10x_StdPeriph_Driver\src/stm32f10x_adc.c ****   *     @arg ADC_Channel_9: ADC Channel9 selected
1135:.\stlib\STM32F10x_StdPeriph_Driver\src/stm32f10x_adc.c ****   *     @arg ADC_Channel_10: ADC Channel10 selected
1136:.\stlib\STM32F10x_StdPeriph_Driver\src/stm32f10x_adc.c ****   *     @arg ADC_Channel_11: ADC Channel11 selected
1137:.\stlib\STM32F10x_StdPeriph_Driver\src/stm32f10x_adc.c ****   *     @arg ADC_Channel_12: ADC Channel12 selected
1138:.\stlib\STM32F10x_StdPeriph_Driver\src/stm32f10x_adc.c ****   *     @arg ADC_Channel_13: ADC Channel13 selected
1139:.\stlib\STM32F10x_StdPeriph_Driver\src/stm32f10x_adc.c ****   *     @arg ADC_Channel_14: ADC Channel14 selected
1140:.\stlib\STM32F10x_StdPeriph_Driver\src/stm32f10x_adc.c ****   *     @arg ADC_Channel_15: ADC Channel15 selected
1141:.\stlib\STM32F10x_StdPeriph_Driver\src/stm32f10x_adc.c ****   *     @arg ADC_Channel_16: ADC Channel16 selected
1142:.\stlib\STM32F10x_StdPeriph_Driver\src/stm32f10x_adc.c ****   *     @arg ADC_Channel_17: ADC Channel17 selected
1143:.\stlib\STM32F10x_StdPeriph_Driver\src/stm32f10x_adc.c ****   * @retval None
1144:.\stlib\STM32F10x_StdPeriph_Driver\src/stm32f10x_adc.c ****   */
1145:.\stlib\STM32F10x_StdPeriph_Driver\src/stm32f10x_adc.c **** void ADC_AnalogWatchdogSingleChannelConfig(ADC_TypeDef* ADCx, uint8_t ADC_Channel)
1146:.\stlib\STM32F10x_StdPeriph_Driver\src/stm32f10x_adc.c **** {
 1820              		.loc 1 1146 1 is_stmt 1 view -0
 1821              		.cfi_startproc
 1822              		@ args = 0, pretend = 0, frame = 0
 1823              		@ frame_needed = 0, uses_anonymous_args = 0
 1824              		@ link register save eliminated.
1147:.\stlib\STM32F10x_StdPeriph_Driver\src/stm32f10x_adc.c ****   uint32_t tmpreg = 0;
 1825              		.loc 1 1147 3 view .LVU502
1148:.\stlib\STM32F10x_StdPeriph_Driver\src/stm32f10x_adc.c ****   /* Check the parameters */
1149:.\stlib\STM32F10x_StdPeriph_Driver\src/stm32f10x_adc.c ****   assert_param(IS_ADC_ALL_PERIPH(ADCx));
 1826              		.loc 1 1149 3 view .LVU503
1150:.\stlib\STM32F10x_StdPeriph_Driver\src/stm32f10x_adc.c ****   assert_param(IS_ADC_CHANNEL(ADC_Channel));
 1827              		.loc 1 1150 3 view .LVU504
1151:.\stlib\STM32F10x_StdPeriph_Driver\src/stm32f10x_adc.c ****   /* Get the old register value */
1152:.\stlib\STM32F10x_StdPeriph_Driver\src/stm32f10x_adc.c ****   tmpreg = ADCx->CR1;
 1828              		.loc 1 1152 3 view .LVU505
 1829              	@ .\stlib\STM32F10x_StdPeriph_Driver\src\stm32f10x_adc.c:1152:   tmpreg = ADCx->CR1;
 1830              		.loc 1 1152 10 is_stmt 0 view .LVU506
 1831 030c 4368     		ldr	r3, [r0, #4]	@ tmpreg, ADCx_3(D)->CR1
 1832              	.LVL141:
1153:.\stlib\STM32F10x_StdPeriph_Driver\src/stm32f10x_adc.c ****   /* Clear the Analog watchdog channel select bits */
1154:.\stlib\STM32F10x_StdPeriph_Driver\src/stm32f10x_adc.c ****   tmpreg &= CR1_AWDCH_Reset;
 1833              		.loc 1 1154 3 is_stmt 1 view .LVU507
 1834              	@ .\stlib\STM32F10x_StdPeriph_Driver\src\stm32f10x_adc.c:1154:   tmpreg &= CR1_AWDCH_Reset;
 1835              		.loc 1 1154 10 is_stmt 0 view .LVU508
 1836 030e 23F01F03 		bic	r3, r3, #31	@ tmpreg, tmpreg,
 1837              	.LVL142:
1155:.\stlib\STM32F10x_StdPeriph_Driver\src/stm32f10x_adc.c ****   /* Set the Analog watchdog channel */
1156:.\stlib\STM32F10x_StdPeriph_Driver\src/stm32f10x_adc.c ****   tmpreg |= ADC_Channel;
 1838              		.loc 1 1156 3 is_stmt 1 view .LVU509
 1839              	@ .\stlib\STM32F10x_StdPeriph_Driver\src\stm32f10x_adc.c:1156:   tmpreg |= ADC_Channel;
 1840              		.loc 1 1156 10 is_stmt 0 view .LVU510
 1841 0312 1943     		orrs	r1, r1, r3	@, tmpreg, tmp117, tmpreg
 1842              	.LVL143:
1157:.\stlib\STM32F10x_StdPeriph_Driver\src/stm32f10x_adc.c ****   /* Store the new register value */
1158:.\stlib\STM32F10x_StdPeriph_Driver\src/stm32f10x_adc.c ****   ADCx->CR1 = tmpreg;
 1843              		.loc 1 1158 3 is_stmt 1 view .LVU511
 1844              	@ .\stlib\STM32F10x_StdPeriph_Driver\src\stm32f10x_adc.c:1158:   ADCx->CR1 = tmpreg;
ARM GAS  C:\Users\skey\AppData\Local\Temp\ccIkOQKS.s 			page 56


 1845              		.loc 1 1158 13 is_stmt 0 view .LVU512
 1846 0314 4160     		str	r1, [r0, #4]	@ tmpreg, ADCx_3(D)->CR1
 1847              	@ .\stlib\STM32F10x_StdPeriph_Driver\src\stm32f10x_adc.c:1159: }
1159:.\stlib\STM32F10x_StdPeriph_Driver\src/stm32f10x_adc.c **** }
 1848              		.loc 1 1159 1 view .LVU513
 1849 0316 7047     		bx	lr	@
 1850              		.cfi_endproc
 1851              	.LFE59:
 1852              		.size	ADC_AnalogWatchdogSingleChannelConfig, .-ADC_AnalogWatchdogSingleChannelConfig
 1853              		.align	1
 1854              		.global	ADC_TempSensorVrefintCmd
 1855              		.syntax unified
 1856              		.thumb
 1857              		.thumb_func
 1858              		.fpu softvfp
 1859              		.type	ADC_TempSensorVrefintCmd, %function
 1860              	ADC_TempSensorVrefintCmd:
 1861              	.LVL144:
 1862              	.LFB60:
1160:.\stlib\STM32F10x_StdPeriph_Driver\src/stm32f10x_adc.c **** 
1161:.\stlib\STM32F10x_StdPeriph_Driver\src/stm32f10x_adc.c **** /**
1162:.\stlib\STM32F10x_StdPeriph_Driver\src/stm32f10x_adc.c ****   * @brief  Enables or disables the temperature sensor and Vrefint channel.
1163:.\stlib\STM32F10x_StdPeriph_Driver\src/stm32f10x_adc.c ****   * @param  NewState: new state of the temperature sensor.
1164:.\stlib\STM32F10x_StdPeriph_Driver\src/stm32f10x_adc.c ****   *   This parameter can be: ENABLE or DISABLE.
1165:.\stlib\STM32F10x_StdPeriph_Driver\src/stm32f10x_adc.c ****   * @retval None
1166:.\stlib\STM32F10x_StdPeriph_Driver\src/stm32f10x_adc.c ****   */
1167:.\stlib\STM32F10x_StdPeriph_Driver\src/stm32f10x_adc.c **** void ADC_TempSensorVrefintCmd(FunctionalState NewState)
1168:.\stlib\STM32F10x_StdPeriph_Driver\src/stm32f10x_adc.c **** {
 1863              		.loc 1 1168 1 is_stmt 1 view -0
 1864              		.cfi_startproc
 1865              		@ args = 0, pretend = 0, frame = 0
 1866              		@ frame_needed = 0, uses_anonymous_args = 0
 1867              		@ link register save eliminated.
1169:.\stlib\STM32F10x_StdPeriph_Driver\src/stm32f10x_adc.c ****   /* Check the parameters */
1170:.\stlib\STM32F10x_StdPeriph_Driver\src/stm32f10x_adc.c ****   assert_param(IS_FUNCTIONAL_STATE(NewState));
 1868              		.loc 1 1170 3 view .LVU515
1171:.\stlib\STM32F10x_StdPeriph_Driver\src/stm32f10x_adc.c ****   if (NewState != DISABLE)
 1869              		.loc 1 1171 3 view .LVU516
 1870 0318 044B     		ldr	r3, .L83	@ tmp119,
 1871              	@ .\stlib\STM32F10x_StdPeriph_Driver\src\stm32f10x_adc.c:1174:     ADC1->CR2 |= CR2_TSVREFE_Set;
1172:.\stlib\STM32F10x_StdPeriph_Driver\src/stm32f10x_adc.c ****   {
1173:.\stlib\STM32F10x_StdPeriph_Driver\src/stm32f10x_adc.c ****     /* Enable the temperature sensor and Vrefint channel*/
1174:.\stlib\STM32F10x_StdPeriph_Driver\src/stm32f10x_adc.c ****     ADC1->CR2 |= CR2_TSVREFE_Set;
 1872              		.loc 1 1174 15 is_stmt 0 view .LVU517
 1873 031a 9A68     		ldr	r2, [r3, #8]	@ _1,
 1874              	@ .\stlib\STM32F10x_StdPeriph_Driver\src\stm32f10x_adc.c:1171:   if (NewState != DISABLE)
1171:.\stlib\STM32F10x_StdPeriph_Driver\src/stm32f10x_adc.c ****   if (NewState != DISABLE)
 1875              		.loc 1 1171 6 view .LVU518
 1876 031c 18B1     		cbz	r0, .L80	@ tmp120,
 1877              		.loc 1 1174 5 is_stmt 1 view .LVU519
 1878              	@ .\stlib\STM32F10x_StdPeriph_Driver\src\stm32f10x_adc.c:1174:     ADC1->CR2 |= CR2_TSVREFE_Set;
 1879              		.loc 1 1174 15 is_stmt 0 view .LVU520
 1880 031e 42F40002 		orr	r2, r2, #8388608	@ _2, _1,
 1881              	.L82:
 1882              	@ .\stlib\STM32F10x_StdPeriph_Driver\src\stm32f10x_adc.c:1179:     ADC1->CR2 &= CR2_TSVREFE_Reset;
1175:.\stlib\STM32F10x_StdPeriph_Driver\src/stm32f10x_adc.c ****   }
1176:.\stlib\STM32F10x_StdPeriph_Driver\src/stm32f10x_adc.c ****   else
ARM GAS  C:\Users\skey\AppData\Local\Temp\ccIkOQKS.s 			page 57


1177:.\stlib\STM32F10x_StdPeriph_Driver\src/stm32f10x_adc.c ****   {
1178:.\stlib\STM32F10x_StdPeriph_Driver\src/stm32f10x_adc.c ****     /* Disable the temperature sensor and Vrefint channel*/
1179:.\stlib\STM32F10x_StdPeriph_Driver\src/stm32f10x_adc.c ****     ADC1->CR2 &= CR2_TSVREFE_Reset;
 1883              		.loc 1 1179 15 view .LVU521
 1884 0322 9A60     		str	r2, [r3, #8]	@ _4,
 1885              	@ .\stlib\STM32F10x_StdPeriph_Driver\src\stm32f10x_adc.c:1181: }
1180:.\stlib\STM32F10x_StdPeriph_Driver\src/stm32f10x_adc.c ****   }
1181:.\stlib\STM32F10x_StdPeriph_Driver\src/stm32f10x_adc.c **** }
 1886              		.loc 1 1181 1 view .LVU522
 1887 0324 7047     		bx	lr	@
 1888              	.L80:
1179:.\stlib\STM32F10x_StdPeriph_Driver\src/stm32f10x_adc.c ****   }
 1889              		.loc 1 1179 5 is_stmt 1 view .LVU523
 1890              	@ .\stlib\STM32F10x_StdPeriph_Driver\src\stm32f10x_adc.c:1179:     ADC1->CR2 &= CR2_TSVREFE_Reset;
1179:.\stlib\STM32F10x_StdPeriph_Driver\src/stm32f10x_adc.c ****   }
 1891              		.loc 1 1179 15 is_stmt 0 view .LVU524
 1892 0326 22F40002 		bic	r2, r2, #8388608	@ _4, _3,
 1893 032a FAE7     		b	.L82		@
 1894              	.L84:
 1895              		.align	2
 1896              	.L83:
 1897 032c 00240140 		.word	1073816576
 1898              		.cfi_endproc
 1899              	.LFE60:
 1900              		.size	ADC_TempSensorVrefintCmd, .-ADC_TempSensorVrefintCmd
 1901              		.align	1
 1902              		.global	ADC_GetFlagStatus
 1903              		.syntax unified
 1904              		.thumb
 1905              		.thumb_func
 1906              		.fpu softvfp
 1907              		.type	ADC_GetFlagStatus, %function
 1908              	ADC_GetFlagStatus:
 1909              	.LVL145:
 1910              	.LFB61:
1182:.\stlib\STM32F10x_StdPeriph_Driver\src/stm32f10x_adc.c **** 
1183:.\stlib\STM32F10x_StdPeriph_Driver\src/stm32f10x_adc.c **** /**
1184:.\stlib\STM32F10x_StdPeriph_Driver\src/stm32f10x_adc.c ****   * @brief  Checks whether the specified ADC flag is set or not.
1185:.\stlib\STM32F10x_StdPeriph_Driver\src/stm32f10x_adc.c ****   * @param  ADCx: where x can be 1, 2 or 3 to select the ADC peripheral.
1186:.\stlib\STM32F10x_StdPeriph_Driver\src/stm32f10x_adc.c ****   * @param  ADC_FLAG: specifies the flag to check. 
1187:.\stlib\STM32F10x_StdPeriph_Driver\src/stm32f10x_adc.c ****   *   This parameter can be one of the following values:
1188:.\stlib\STM32F10x_StdPeriph_Driver\src/stm32f10x_adc.c ****   *     @arg ADC_FLAG_AWD: Analog watchdog flag
1189:.\stlib\STM32F10x_StdPeriph_Driver\src/stm32f10x_adc.c ****   *     @arg ADC_FLAG_EOC: End of conversion flag
1190:.\stlib\STM32F10x_StdPeriph_Driver\src/stm32f10x_adc.c ****   *     @arg ADC_FLAG_JEOC: End of injected group conversion flag
1191:.\stlib\STM32F10x_StdPeriph_Driver\src/stm32f10x_adc.c ****   *     @arg ADC_FLAG_JSTRT: Start of injected group conversion flag
1192:.\stlib\STM32F10x_StdPeriph_Driver\src/stm32f10x_adc.c ****   *     @arg ADC_FLAG_STRT: Start of regular group conversion flag
1193:.\stlib\STM32F10x_StdPeriph_Driver\src/stm32f10x_adc.c ****   * @retval The new state of ADC_FLAG (SET or RESET).
1194:.\stlib\STM32F10x_StdPeriph_Driver\src/stm32f10x_adc.c ****   */
1195:.\stlib\STM32F10x_StdPeriph_Driver\src/stm32f10x_adc.c **** FlagStatus ADC_GetFlagStatus(ADC_TypeDef* ADCx, uint8_t ADC_FLAG)
1196:.\stlib\STM32F10x_StdPeriph_Driver\src/stm32f10x_adc.c **** {
 1911              		.loc 1 1196 1 is_stmt 1 view -0
 1912              		.cfi_startproc
 1913              		@ args = 0, pretend = 0, frame = 0
 1914              		@ frame_needed = 0, uses_anonymous_args = 0
 1915              		@ link register save eliminated.
1197:.\stlib\STM32F10x_StdPeriph_Driver\src/stm32f10x_adc.c ****   FlagStatus bitstatus = RESET;
 1916              		.loc 1 1197 3 view .LVU526
ARM GAS  C:\Users\skey\AppData\Local\Temp\ccIkOQKS.s 			page 58


1198:.\stlib\STM32F10x_StdPeriph_Driver\src/stm32f10x_adc.c ****   /* Check the parameters */
1199:.\stlib\STM32F10x_StdPeriph_Driver\src/stm32f10x_adc.c ****   assert_param(IS_ADC_ALL_PERIPH(ADCx));
 1917              		.loc 1 1199 3 view .LVU527
1200:.\stlib\STM32F10x_StdPeriph_Driver\src/stm32f10x_adc.c ****   assert_param(IS_ADC_GET_FLAG(ADC_FLAG));
 1918              		.loc 1 1200 3 view .LVU528
1201:.\stlib\STM32F10x_StdPeriph_Driver\src/stm32f10x_adc.c ****   /* Check the status of the specified ADC flag */
1202:.\stlib\STM32F10x_StdPeriph_Driver\src/stm32f10x_adc.c ****   if ((ADCx->SR & ADC_FLAG) != (uint8_t)RESET)
 1919              		.loc 1 1202 3 view .LVU529
 1920              	@ .\stlib\STM32F10x_StdPeriph_Driver\src\stm32f10x_adc.c:1202:   if ((ADCx->SR & ADC_FLAG) != (uint
 1921              		.loc 1 1202 12 is_stmt 0 view .LVU530
 1922 0330 0368     		ldr	r3, [r0]	@ _1, ADCx_6(D)->SR
 1923              	.LVL146:
1203:.\stlib\STM32F10x_StdPeriph_Driver\src/stm32f10x_adc.c ****   {
1204:.\stlib\STM32F10x_StdPeriph_Driver\src/stm32f10x_adc.c ****     /* ADC_FLAG is set */
1205:.\stlib\STM32F10x_StdPeriph_Driver\src/stm32f10x_adc.c ****     bitstatus = SET;
1206:.\stlib\STM32F10x_StdPeriph_Driver\src/stm32f10x_adc.c ****   }
1207:.\stlib\STM32F10x_StdPeriph_Driver\src/stm32f10x_adc.c ****   else
1208:.\stlib\STM32F10x_StdPeriph_Driver\src/stm32f10x_adc.c ****   {
1209:.\stlib\STM32F10x_StdPeriph_Driver\src/stm32f10x_adc.c ****     /* ADC_FLAG is reset */
1210:.\stlib\STM32F10x_StdPeriph_Driver\src/stm32f10x_adc.c ****     bitstatus = RESET;
1211:.\stlib\STM32F10x_StdPeriph_Driver\src/stm32f10x_adc.c ****   }
1212:.\stlib\STM32F10x_StdPeriph_Driver\src/stm32f10x_adc.c ****   /* Return the ADC_FLAG status */
1213:.\stlib\STM32F10x_StdPeriph_Driver\src/stm32f10x_adc.c ****   return  bitstatus;
 1924              		.loc 1 1213 3 is_stmt 1 view .LVU531
 1925              	@ .\stlib\STM32F10x_StdPeriph_Driver\src\stm32f10x_adc.c:1202:   if ((ADCx->SR & ADC_FLAG) != (uint
1202:.\stlib\STM32F10x_StdPeriph_Driver\src/stm32f10x_adc.c ****   {
 1926              		.loc 1 1202 6 is_stmt 0 view .LVU532
 1927 0332 1942     		tst	r1, r3	@ tmp122, _1
 1928              	@ .\stlib\STM32F10x_StdPeriph_Driver\src\stm32f10x_adc.c:1214: }
1214:.\stlib\STM32F10x_StdPeriph_Driver\src/stm32f10x_adc.c **** }
 1929              		.loc 1 1214 1 view .LVU533
 1930 0334 14BF     		ite	ne
 1931 0336 0120     		movne	r0, #1	@,
 1932              	.LVL147:
 1933              		.loc 1 1214 1 view .LVU534
 1934 0338 0020     		moveq	r0, #0	@,
 1935 033a 7047     		bx	lr	@
 1936              		.cfi_endproc
 1937              	.LFE61:
 1938              		.size	ADC_GetFlagStatus, .-ADC_GetFlagStatus
 1939              		.align	1
 1940              		.global	ADC_ClearFlag
 1941              		.syntax unified
 1942              		.thumb
 1943              		.thumb_func
 1944              		.fpu softvfp
 1945              		.type	ADC_ClearFlag, %function
 1946              	ADC_ClearFlag:
 1947              	.LVL148:
 1948              	.LFB62:
1215:.\stlib\STM32F10x_StdPeriph_Driver\src/stm32f10x_adc.c **** 
1216:.\stlib\STM32F10x_StdPeriph_Driver\src/stm32f10x_adc.c **** /**
1217:.\stlib\STM32F10x_StdPeriph_Driver\src/stm32f10x_adc.c ****   * @brief  Clears the ADCx's pending flags.
1218:.\stlib\STM32F10x_StdPeriph_Driver\src/stm32f10x_adc.c ****   * @param  ADCx: where x can be 1, 2 or 3 to select the ADC peripheral.
1219:.\stlib\STM32F10x_StdPeriph_Driver\src/stm32f10x_adc.c ****   * @param  ADC_FLAG: specifies the flag to clear. 
1220:.\stlib\STM32F10x_StdPeriph_Driver\src/stm32f10x_adc.c ****   *   This parameter can be any combination of the following values:
1221:.\stlib\STM32F10x_StdPeriph_Driver\src/stm32f10x_adc.c ****   *     @arg ADC_FLAG_AWD: Analog watchdog flag
ARM GAS  C:\Users\skey\AppData\Local\Temp\ccIkOQKS.s 			page 59


1222:.\stlib\STM32F10x_StdPeriph_Driver\src/stm32f10x_adc.c ****   *     @arg ADC_FLAG_EOC: End of conversion flag
1223:.\stlib\STM32F10x_StdPeriph_Driver\src/stm32f10x_adc.c ****   *     @arg ADC_FLAG_JEOC: End of injected group conversion flag
1224:.\stlib\STM32F10x_StdPeriph_Driver\src/stm32f10x_adc.c ****   *     @arg ADC_FLAG_JSTRT: Start of injected group conversion flag
1225:.\stlib\STM32F10x_StdPeriph_Driver\src/stm32f10x_adc.c ****   *     @arg ADC_FLAG_STRT: Start of regular group conversion flag
1226:.\stlib\STM32F10x_StdPeriph_Driver\src/stm32f10x_adc.c ****   * @retval None
1227:.\stlib\STM32F10x_StdPeriph_Driver\src/stm32f10x_adc.c ****   */
1228:.\stlib\STM32F10x_StdPeriph_Driver\src/stm32f10x_adc.c **** void ADC_ClearFlag(ADC_TypeDef* ADCx, uint8_t ADC_FLAG)
1229:.\stlib\STM32F10x_StdPeriph_Driver\src/stm32f10x_adc.c **** {
 1949              		.loc 1 1229 1 is_stmt 1 view -0
 1950              		.cfi_startproc
 1951              		@ args = 0, pretend = 0, frame = 0
 1952              		@ frame_needed = 0, uses_anonymous_args = 0
 1953              		@ link register save eliminated.
1230:.\stlib\STM32F10x_StdPeriph_Driver\src/stm32f10x_adc.c ****   /* Check the parameters */
1231:.\stlib\STM32F10x_StdPeriph_Driver\src/stm32f10x_adc.c ****   assert_param(IS_ADC_ALL_PERIPH(ADCx));
 1954              		.loc 1 1231 3 view .LVU536
1232:.\stlib\STM32F10x_StdPeriph_Driver\src/stm32f10x_adc.c ****   assert_param(IS_ADC_CLEAR_FLAG(ADC_FLAG));
 1955              		.loc 1 1232 3 view .LVU537
1233:.\stlib\STM32F10x_StdPeriph_Driver\src/stm32f10x_adc.c ****   /* Clear the selected ADC flags */
1234:.\stlib\STM32F10x_StdPeriph_Driver\src/stm32f10x_adc.c ****   ADCx->SR = ~(uint32_t)ADC_FLAG;
 1956              		.loc 1 1234 3 view .LVU538
 1957              	@ .\stlib\STM32F10x_StdPeriph_Driver\src\stm32f10x_adc.c:1234:   ADCx->SR = ~(uint32_t)ADC_FLAG;
 1958              		.loc 1 1234 14 is_stmt 0 view .LVU539
 1959 033c C943     		mvns	r1, r1	@ _2, tmp115
 1960              	.LVL149:
 1961              	@ .\stlib\STM32F10x_StdPeriph_Driver\src\stm32f10x_adc.c:1234:   ADCx->SR = ~(uint32_t)ADC_FLAG;
 1962              		.loc 1 1234 12 view .LVU540
 1963 033e 0160     		str	r1, [r0]	@ _2, ADCx_5(D)->SR
 1964              	@ .\stlib\STM32F10x_StdPeriph_Driver\src\stm32f10x_adc.c:1235: }
1235:.\stlib\STM32F10x_StdPeriph_Driver\src/stm32f10x_adc.c **** }
 1965              		.loc 1 1235 1 view .LVU541
 1966 0340 7047     		bx	lr	@
 1967              		.cfi_endproc
 1968              	.LFE62:
 1969              		.size	ADC_ClearFlag, .-ADC_ClearFlag
 1970              		.align	1
 1971              		.global	ADC_GetITStatus
 1972              		.syntax unified
 1973              		.thumb
 1974              		.thumb_func
 1975              		.fpu softvfp
 1976              		.type	ADC_GetITStatus, %function
 1977              	ADC_GetITStatus:
 1978              	.LVL150:
 1979              	.LFB63:
1236:.\stlib\STM32F10x_StdPeriph_Driver\src/stm32f10x_adc.c **** 
1237:.\stlib\STM32F10x_StdPeriph_Driver\src/stm32f10x_adc.c **** /**
