ARM GAS  C:\Users\skey\AppData\Local\Temp\ccv9NfrL.s 			page 1


   1              		.cpu cortex-m3
   2              		.eabi_attribute 20, 1	@ Tag_ABI_FP_denormal
   3              		.eabi_attribute 21, 1	@ Tag_ABI_FP_exceptions
   4              		.eabi_attribute 23, 3	@ Tag_ABI_FP_number_model
   5              		.eabi_attribute 24, 1	@ Tag_ABI_align8_needed
   6              		.eabi_attribute 25, 1	@ Tag_ABI_align8_preserved
   7              		.eabi_attribute 26, 1	@ Tag_ABI_enum_size
   8              		.eabi_attribute 30, 4	@ Tag_ABI_optimization_goals
   9              		.eabi_attribute 34, 1	@ Tag_CPU_unaligned_access
  10              		.eabi_attribute 18, 4	@ Tag_ABI_PCS_wchar_t
  11              		.file	"stm32f10x_can.c"
  12              	@ GNU C17 (GNU Tools for Arm Embedded Processors 9-2019-q4-major) version 9.2.1 20191025 (release) 
  13              	@	compiled by GNU C version 5.3.1 20160211, GMP version 6.1.0, MPFR version 3.1.4, MPC version 1.0.
  14              	
  15              	@ GGC heuristics: --param ggc-min-expand=100 --param ggc-min-heapsize=131072
  16              	@ options passed:  -I . -I .\usr_inc -I .\task_inc
  17              	@ -I .\stlib\CMSIS\CM3\CoreSupport
  18              	@ -I .\stlib\CMSIS\CM3\DeviceSupport\ST\STM32F10x
  19              	@ -I .\stlib\STM32F10x_StdPeriph_Driver\inc
  20              	@ -I .\stlib\STM32F10x_StdPeriph_Driver -I .\freertos\include
  21              	@ -I .\freertos\portable\GCC\ARM_CM3 -imultilib thumb/v7-m/nofp
  22              	@ -iprefix c:\program files (x86)\gnu tools arm embedded\9 2019-q4-major\bin\../lib/gcc/arm-none-ea
  23              	@ -isysroot c:\program files (x86)\gnu tools arm embedded\9 2019-q4-major\bin\../arm-none-eabi
  24              	@ -D__USES_INITFINI__ -D STM32F10X_HD -D USE_STDPERIPH_DRIVER
  25              	@ -D HSE_VALUE=8000000 -D RUN_FROM_FLASH=1
  26              	@ .\stlib\STM32F10x_StdPeriph_Driver\src\stm32f10x_can.c -mcpu=cortex-m3
  27              	@ -mthumb -mfloat-abi=soft -march=armv7-m
  28              	@ -auxbase-strip .\stlib\STM32F10x_StdPeriph_Driver\src\stm32f10x_can.o -g
  29              	@ -gdwarf-2 -Os -Wall -fomit-frame-pointer -fverbose-asm
  30              	@ options enabled:  -faggressive-loop-optimizations -fassume-phsa
  31              	@ -fauto-inc-dec -fbranch-count-reg -fcaller-saves -fcode-hoisting
  32              	@ -fcombine-stack-adjustments -fcommon -fcompare-elim -fcprop-registers
  33              	@ -fcrossjumping -fcse-follow-jumps -fdefer-pop
  34              	@ -fdelete-null-pointer-checks -fdevirtualize -fdevirtualize-speculatively
  35              	@ -fdwarf2-cfi-asm -fearly-inlining -feliminate-unused-debug-types
  36              	@ -fexpensive-optimizations -fforward-propagate -ffp-int-builtin-inexact
  37              	@ -ffunction-cse -fgcse -fgcse-lm -fgnu-runtime -fgnu-unique
  38              	@ -fguess-branch-probability -fhoist-adjacent-loads -fident -fif-conversion
  39              	@ -fif-conversion2 -findirect-inlining -finline -finline-atomics
  40              	@ -finline-functions -finline-functions-called-once
  41              	@ -finline-small-functions -fipa-bit-cp -fipa-cp -fipa-icf
  42              	@ -fipa-icf-functions -fipa-icf-variables -fipa-profile -fipa-pure-const
  43              	@ -fipa-ra -fipa-reference -fipa-reference-addressable -fipa-sra
  44              	@ -fipa-stack-alignment -fipa-vrp -fira-hoist-pressure
  45              	@ -fira-share-save-slots -fira-share-spill-slots
  46              	@ -fisolate-erroneous-paths-dereference -fivopts -fkeep-static-consts
  47              	@ -fleading-underscore -flifetime-dse -flra-remat -flto-odr-type-merging
  48              	@ -fmath-errno -fmerge-constants -fmerge-debug-strings
  49              	@ -fmove-loop-invariants -fomit-frame-pointer -foptimize-sibling-calls
  50              	@ -fpartial-inlining -fpeephole -fpeephole2 -fplt -fprefetch-loop-arrays
  51              	@ -freg-struct-return -freorder-blocks -freorder-functions
  52              	@ -frerun-cse-after-loop -fsched-critical-path-heuristic
  53              	@ -fsched-dep-count-heuristic -fsched-group-heuristic -fsched-interblock
  54              	@ -fsched-last-insn-heuristic -fsched-pressure -fsched-rank-heuristic
  55              	@ -fsched-spec -fsched-spec-insn-heuristic -fsched-stalled-insns-dep
  56              	@ -fschedule-insns2 -fsection-anchors -fsemantic-interposition
  57              	@ -fshow-column -fshrink-wrap-separate -fsigned-zeros
ARM GAS  C:\Users\skey\AppData\Local\Temp\ccv9NfrL.s 			page 2


  58              	@ -fsplit-ivs-in-unroller -fsplit-wide-types -fssa-backprop -fssa-phiopt
  59              	@ -fstdarg-opt -fstore-merging -fstrict-aliasing
  60              	@ -fstrict-volatile-bitfields -fsync-libcalls -fthread-jumps
  61              	@ -ftoplevel-reorder -ftrapping-math -ftree-bit-ccp -ftree-builtin-call-dce
  62              	@ -ftree-ccp -ftree-ch -ftree-coalesce-vars -ftree-copy-prop -ftree-cselim
  63              	@ -ftree-dce -ftree-dominator-opts -ftree-dse -ftree-forwprop -ftree-fre
  64              	@ -ftree-loop-if-convert -ftree-loop-im -ftree-loop-ivcanon
  65              	@ -ftree-loop-optimize -ftree-parallelize-loops= -ftree-phiprop -ftree-pre
  66              	@ -ftree-pta -ftree-reassoc -ftree-scev-cprop -ftree-sink -ftree-slsr
  67              	@ -ftree-sra -ftree-switch-conversion -ftree-tail-merge -ftree-ter
  68              	@ -ftree-vrp -funit-at-a-time -fvar-tracking -fvar-tracking-assignments
  69              	@ -fverbose-asm -fzero-initialized-in-bss -masm-syntax-unified -mbe32
  70              	@ -mfix-cortex-m3-ldrd -mlittle-endian -mpic-data-is-text-relative
  71              	@ -msched-prolog -mthumb -munaligned-access -mvectorize-with-neon-quad
  72              	
  73              		.text
  74              	.Ltext0:
  75              		.cfi_sections	.debug_frame
  76              		.align	1
  77              		.global	CAN_DeInit
  78              		.arch armv7-m
  79              		.syntax unified
  80              		.thumb
  81              		.thumb_func
  82              		.fpu softvfp
  83              		.type	CAN_DeInit, %function
  84              	CAN_DeInit:
  85              	.LVL0:
  86              	.LFB29:
  87              		.file 1 ".\\stlib\\STM32F10x_StdPeriph_Driver\\src\\stm32f10x_can.c"
   1:.\stlib\STM32F10x_StdPeriph_Driver\src/stm32f10x_can.c **** /**
   2:.\stlib\STM32F10x_StdPeriph_Driver\src/stm32f10x_can.c ****   ******************************************************************************
   3:.\stlib\STM32F10x_StdPeriph_Driver\src/stm32f10x_can.c ****   * @file    stm32f10x_can.c
   4:.\stlib\STM32F10x_StdPeriph_Driver\src/stm32f10x_can.c ****   * @author  MCD Application Team
   5:.\stlib\STM32F10x_StdPeriph_Driver\src/stm32f10x_can.c ****   * @version V3.5.0
   6:.\stlib\STM32F10x_StdPeriph_Driver\src/stm32f10x_can.c ****   * @date    11-March-2011
   7:.\stlib\STM32F10x_StdPeriph_Driver\src/stm32f10x_can.c ****   * @brief   This file provides all the CAN firmware functions.
   8:.\stlib\STM32F10x_StdPeriph_Driver\src/stm32f10x_can.c ****   ******************************************************************************
   9:.\stlib\STM32F10x_StdPeriph_Driver\src/stm32f10x_can.c ****   * @attention
  10:.\stlib\STM32F10x_StdPeriph_Driver\src/stm32f10x_can.c ****   *
  11:.\stlib\STM32F10x_StdPeriph_Driver\src/stm32f10x_can.c ****   * THE PRESENT FIRMWARE WHICH IS FOR GUIDANCE ONLY AIMS AT PROVIDING CUSTOMERS
  12:.\stlib\STM32F10x_StdPeriph_Driver\src/stm32f10x_can.c ****   * WITH CODING INFORMATION REGARDING THEIR PRODUCTS IN ORDER FOR THEM TO SAVE
  13:.\stlib\STM32F10x_StdPeriph_Driver\src/stm32f10x_can.c ****   * TIME. AS A RESULT, STMICROELECTRONICS SHALL NOT BE HELD LIABLE FOR ANY
  14:.\stlib\STM32F10x_StdPeriph_Driver\src/stm32f10x_can.c ****   * DIRECT, INDIRECT OR CONSEQUENTIAL DAMAGES WITH RESPECT TO ANY CLAIMS ARISING
  15:.\stlib\STM32F10x_StdPeriph_Driver\src/stm32f10x_can.c ****   * FROM THE CONTENT OF SUCH FIRMWARE AND/OR THE USE MADE BY CUSTOMERS OF THE
  16:.\stlib\STM32F10x_StdPeriph_Driver\src/stm32f10x_can.c ****   * CODING INFORMATION CONTAINED HEREIN IN CONNECTION WITH THEIR PRODUCTS.
  17:.\stlib\STM32F10x_StdPeriph_Driver\src/stm32f10x_can.c ****   *
  18:.\stlib\STM32F10x_StdPeriph_Driver\src/stm32f10x_can.c ****   * <h2><center>&copy; COPYRIGHT 2011 STMicroelectronics</center></h2>
  19:.\stlib\STM32F10x_StdPeriph_Driver\src/stm32f10x_can.c ****   ******************************************************************************
  20:.\stlib\STM32F10x_StdPeriph_Driver\src/stm32f10x_can.c ****   */
  21:.\stlib\STM32F10x_StdPeriph_Driver\src/stm32f10x_can.c **** 
  22:.\stlib\STM32F10x_StdPeriph_Driver\src/stm32f10x_can.c **** /* Includes ------------------------------------------------------------------*/
  23:.\stlib\STM32F10x_StdPeriph_Driver\src/stm32f10x_can.c **** #include "stm32f10x_can.h"
  24:.\stlib\STM32F10x_StdPeriph_Driver\src/stm32f10x_can.c **** #include "stm32f10x_rcc.h"
  25:.\stlib\STM32F10x_StdPeriph_Driver\src/stm32f10x_can.c **** 
  26:.\stlib\STM32F10x_StdPeriph_Driver\src/stm32f10x_can.c **** /** @addtogroup STM32F10x_StdPeriph_Driver
  27:.\stlib\STM32F10x_StdPeriph_Driver\src/stm32f10x_can.c ****   * @{
ARM GAS  C:\Users\skey\AppData\Local\Temp\ccv9NfrL.s 			page 3


  28:.\stlib\STM32F10x_StdPeriph_Driver\src/stm32f10x_can.c ****   */
  29:.\stlib\STM32F10x_StdPeriph_Driver\src/stm32f10x_can.c **** 
  30:.\stlib\STM32F10x_StdPeriph_Driver\src/stm32f10x_can.c **** /** @defgroup CAN 
  31:.\stlib\STM32F10x_StdPeriph_Driver\src/stm32f10x_can.c ****   * @brief CAN driver modules
  32:.\stlib\STM32F10x_StdPeriph_Driver\src/stm32f10x_can.c ****   * @{
  33:.\stlib\STM32F10x_StdPeriph_Driver\src/stm32f10x_can.c ****   */ 
  34:.\stlib\STM32F10x_StdPeriph_Driver\src/stm32f10x_can.c **** 
  35:.\stlib\STM32F10x_StdPeriph_Driver\src/stm32f10x_can.c **** /** @defgroup CAN_Private_TypesDefinitions
  36:.\stlib\STM32F10x_StdPeriph_Driver\src/stm32f10x_can.c ****   * @{
  37:.\stlib\STM32F10x_StdPeriph_Driver\src/stm32f10x_can.c ****   */
  38:.\stlib\STM32F10x_StdPeriph_Driver\src/stm32f10x_can.c **** 
  39:.\stlib\STM32F10x_StdPeriph_Driver\src/stm32f10x_can.c **** /**
  40:.\stlib\STM32F10x_StdPeriph_Driver\src/stm32f10x_can.c ****   * @}
  41:.\stlib\STM32F10x_StdPeriph_Driver\src/stm32f10x_can.c ****   */
  42:.\stlib\STM32F10x_StdPeriph_Driver\src/stm32f10x_can.c **** 
  43:.\stlib\STM32F10x_StdPeriph_Driver\src/stm32f10x_can.c **** /** @defgroup CAN_Private_Defines
  44:.\stlib\STM32F10x_StdPeriph_Driver\src/stm32f10x_can.c ****   * @{
  45:.\stlib\STM32F10x_StdPeriph_Driver\src/stm32f10x_can.c ****   */
  46:.\stlib\STM32F10x_StdPeriph_Driver\src/stm32f10x_can.c **** 
  47:.\stlib\STM32F10x_StdPeriph_Driver\src/stm32f10x_can.c **** /* CAN Master Control Register bits */
  48:.\stlib\STM32F10x_StdPeriph_Driver\src/stm32f10x_can.c **** 
  49:.\stlib\STM32F10x_StdPeriph_Driver\src/stm32f10x_can.c **** #define MCR_DBF      ((uint32_t)0x00010000) /* software master reset */
  50:.\stlib\STM32F10x_StdPeriph_Driver\src/stm32f10x_can.c **** 
  51:.\stlib\STM32F10x_StdPeriph_Driver\src/stm32f10x_can.c **** /* CAN Mailbox Transmit Request */
  52:.\stlib\STM32F10x_StdPeriph_Driver\src/stm32f10x_can.c **** #define TMIDxR_TXRQ  ((uint32_t)0x00000001) /* Transmit mailbox request */
  53:.\stlib\STM32F10x_StdPeriph_Driver\src/stm32f10x_can.c **** 
  54:.\stlib\STM32F10x_StdPeriph_Driver\src/stm32f10x_can.c **** /* CAN Filter Master Register bits */
  55:.\stlib\STM32F10x_StdPeriph_Driver\src/stm32f10x_can.c **** #define FMR_FINIT    ((uint32_t)0x00000001) /* Filter init mode */
  56:.\stlib\STM32F10x_StdPeriph_Driver\src/stm32f10x_can.c **** 
  57:.\stlib\STM32F10x_StdPeriph_Driver\src/stm32f10x_can.c **** /* Time out for INAK bit */
  58:.\stlib\STM32F10x_StdPeriph_Driver\src/stm32f10x_can.c **** #define INAK_TIMEOUT        ((uint32_t)0x0000FFFF)
  59:.\stlib\STM32F10x_StdPeriph_Driver\src/stm32f10x_can.c **** /* Time out for SLAK bit */
  60:.\stlib\STM32F10x_StdPeriph_Driver\src/stm32f10x_can.c **** #define SLAK_TIMEOUT        ((uint32_t)0x0000FFFF)
  61:.\stlib\STM32F10x_StdPeriph_Driver\src/stm32f10x_can.c **** 
  62:.\stlib\STM32F10x_StdPeriph_Driver\src/stm32f10x_can.c **** 
  63:.\stlib\STM32F10x_StdPeriph_Driver\src/stm32f10x_can.c **** 
  64:.\stlib\STM32F10x_StdPeriph_Driver\src/stm32f10x_can.c **** /* Flags in TSR register */
  65:.\stlib\STM32F10x_StdPeriph_Driver\src/stm32f10x_can.c **** #define CAN_FLAGS_TSR              ((uint32_t)0x08000000) 
  66:.\stlib\STM32F10x_StdPeriph_Driver\src/stm32f10x_can.c **** /* Flags in RF1R register */
  67:.\stlib\STM32F10x_StdPeriph_Driver\src/stm32f10x_can.c **** #define CAN_FLAGS_RF1R             ((uint32_t)0x04000000) 
  68:.\stlib\STM32F10x_StdPeriph_Driver\src/stm32f10x_can.c **** /* Flags in RF0R register */
  69:.\stlib\STM32F10x_StdPeriph_Driver\src/stm32f10x_can.c **** #define CAN_FLAGS_RF0R             ((uint32_t)0x02000000) 
  70:.\stlib\STM32F10x_StdPeriph_Driver\src/stm32f10x_can.c **** /* Flags in MSR register */
  71:.\stlib\STM32F10x_StdPeriph_Driver\src/stm32f10x_can.c **** #define CAN_FLAGS_MSR              ((uint32_t)0x01000000) 
  72:.\stlib\STM32F10x_StdPeriph_Driver\src/stm32f10x_can.c **** /* Flags in ESR register */
  73:.\stlib\STM32F10x_StdPeriph_Driver\src/stm32f10x_can.c **** #define CAN_FLAGS_ESR              ((uint32_t)0x00F00000) 
  74:.\stlib\STM32F10x_StdPeriph_Driver\src/stm32f10x_can.c **** 
  75:.\stlib\STM32F10x_StdPeriph_Driver\src/stm32f10x_can.c **** /* Mailboxes definition */
  76:.\stlib\STM32F10x_StdPeriph_Driver\src/stm32f10x_can.c **** #define CAN_TXMAILBOX_0                   ((uint8_t)0x00)
  77:.\stlib\STM32F10x_StdPeriph_Driver\src/stm32f10x_can.c **** #define CAN_TXMAILBOX_1                   ((uint8_t)0x01)
  78:.\stlib\STM32F10x_StdPeriph_Driver\src/stm32f10x_can.c **** #define CAN_TXMAILBOX_2                   ((uint8_t)0x02) 
  79:.\stlib\STM32F10x_StdPeriph_Driver\src/stm32f10x_can.c **** 
  80:.\stlib\STM32F10x_StdPeriph_Driver\src/stm32f10x_can.c **** 
  81:.\stlib\STM32F10x_StdPeriph_Driver\src/stm32f10x_can.c **** 
  82:.\stlib\STM32F10x_StdPeriph_Driver\src/stm32f10x_can.c **** #define CAN_MODE_MASK              ((uint32_t) 0x00000003)
  83:.\stlib\STM32F10x_StdPeriph_Driver\src/stm32f10x_can.c **** /**
  84:.\stlib\STM32F10x_StdPeriph_Driver\src/stm32f10x_can.c ****   * @}
ARM GAS  C:\Users\skey\AppData\Local\Temp\ccv9NfrL.s 			page 4


  85:.\stlib\STM32F10x_StdPeriph_Driver\src/stm32f10x_can.c ****   */
  86:.\stlib\STM32F10x_StdPeriph_Driver\src/stm32f10x_can.c **** 
  87:.\stlib\STM32F10x_StdPeriph_Driver\src/stm32f10x_can.c **** /** @defgroup CAN_Private_Macros
  88:.\stlib\STM32F10x_StdPeriph_Driver\src/stm32f10x_can.c ****   * @{
  89:.\stlib\STM32F10x_StdPeriph_Driver\src/stm32f10x_can.c ****   */
  90:.\stlib\STM32F10x_StdPeriph_Driver\src/stm32f10x_can.c **** 
  91:.\stlib\STM32F10x_StdPeriph_Driver\src/stm32f10x_can.c **** /**
  92:.\stlib\STM32F10x_StdPeriph_Driver\src/stm32f10x_can.c ****   * @}
  93:.\stlib\STM32F10x_StdPeriph_Driver\src/stm32f10x_can.c ****   */
  94:.\stlib\STM32F10x_StdPeriph_Driver\src/stm32f10x_can.c **** 
  95:.\stlib\STM32F10x_StdPeriph_Driver\src/stm32f10x_can.c **** /** @defgroup CAN_Private_Variables
  96:.\stlib\STM32F10x_StdPeriph_Driver\src/stm32f10x_can.c ****   * @{
  97:.\stlib\STM32F10x_StdPeriph_Driver\src/stm32f10x_can.c ****   */
  98:.\stlib\STM32F10x_StdPeriph_Driver\src/stm32f10x_can.c **** 
  99:.\stlib\STM32F10x_StdPeriph_Driver\src/stm32f10x_can.c **** /**
 100:.\stlib\STM32F10x_StdPeriph_Driver\src/stm32f10x_can.c ****   * @}
 101:.\stlib\STM32F10x_StdPeriph_Driver\src/stm32f10x_can.c ****   */
 102:.\stlib\STM32F10x_StdPeriph_Driver\src/stm32f10x_can.c **** 
 103:.\stlib\STM32F10x_StdPeriph_Driver\src/stm32f10x_can.c **** /** @defgroup CAN_Private_FunctionPrototypes
 104:.\stlib\STM32F10x_StdPeriph_Driver\src/stm32f10x_can.c ****   * @{
 105:.\stlib\STM32F10x_StdPeriph_Driver\src/stm32f10x_can.c ****   */
 106:.\stlib\STM32F10x_StdPeriph_Driver\src/stm32f10x_can.c **** 
 107:.\stlib\STM32F10x_StdPeriph_Driver\src/stm32f10x_can.c **** static ITStatus CheckITStatus(uint32_t CAN_Reg, uint32_t It_Bit);
 108:.\stlib\STM32F10x_StdPeriph_Driver\src/stm32f10x_can.c **** 
 109:.\stlib\STM32F10x_StdPeriph_Driver\src/stm32f10x_can.c **** /**
 110:.\stlib\STM32F10x_StdPeriph_Driver\src/stm32f10x_can.c ****   * @}
 111:.\stlib\STM32F10x_StdPeriph_Driver\src/stm32f10x_can.c ****   */
 112:.\stlib\STM32F10x_StdPeriph_Driver\src/stm32f10x_can.c **** 
 113:.\stlib\STM32F10x_StdPeriph_Driver\src/stm32f10x_can.c **** /** @defgroup CAN_Private_Functions
 114:.\stlib\STM32F10x_StdPeriph_Driver\src/stm32f10x_can.c ****   * @{
 115:.\stlib\STM32F10x_StdPeriph_Driver\src/stm32f10x_can.c ****   */
 116:.\stlib\STM32F10x_StdPeriph_Driver\src/stm32f10x_can.c **** 
 117:.\stlib\STM32F10x_StdPeriph_Driver\src/stm32f10x_can.c **** /**
 118:.\stlib\STM32F10x_StdPeriph_Driver\src/stm32f10x_can.c ****   * @brief  Deinitializes the CAN peripheral registers to their default reset values.
 119:.\stlib\STM32F10x_StdPeriph_Driver\src/stm32f10x_can.c ****   * @param  CANx: where x can be 1 or 2 to select the CAN peripheral.
 120:.\stlib\STM32F10x_StdPeriph_Driver\src/stm32f10x_can.c ****   * @retval None.
 121:.\stlib\STM32F10x_StdPeriph_Driver\src/stm32f10x_can.c ****   */
 122:.\stlib\STM32F10x_StdPeriph_Driver\src/stm32f10x_can.c **** void CAN_DeInit(CAN_TypeDef* CANx)
 123:.\stlib\STM32F10x_StdPeriph_Driver\src/stm32f10x_can.c **** {
  88              		.loc 1 123 1 view -0
  89              		.cfi_startproc
  90              		@ args = 0, pretend = 0, frame = 0
  91              		@ frame_needed = 0, uses_anonymous_args = 0
 124:.\stlib\STM32F10x_StdPeriph_Driver\src/stm32f10x_can.c ****   /* Check the parameters */
 125:.\stlib\STM32F10x_StdPeriph_Driver\src/stm32f10x_can.c ****   assert_param(IS_CAN_ALL_PERIPH(CANx));
  92              		.loc 1 125 3 view .LVU1
 126:.\stlib\STM32F10x_StdPeriph_Driver\src/stm32f10x_can.c ****  
 127:.\stlib\STM32F10x_StdPeriph_Driver\src/stm32f10x_can.c ****   if (CANx == CAN1)
  93              		.loc 1 127 3 view .LVU2
  94              	@ .\stlib\STM32F10x_StdPeriph_Driver\src\stm32f10x_can.c:123: {
 123:.\stlib\STM32F10x_StdPeriph_Driver\src/stm32f10x_can.c ****   /* Check the parameters */
  95              		.loc 1 123 1 is_stmt 0 view .LVU3
  96 0000 08B5     		push	{r3, lr}	@
  97              	.LCFI0:
  98              		.cfi_def_cfa_offset 8
  99              		.cfi_offset 3, -8
 100              		.cfi_offset 14, -4
ARM GAS  C:\Users\skey\AppData\Local\Temp\ccv9NfrL.s 			page 5


 101              	@ .\stlib\STM32F10x_StdPeriph_Driver\src\stm32f10x_can.c:127:   if (CANx == CAN1)
 102              		.loc 1 127 6 view .LVU4
 103 0002 0B4B     		ldr	r3, .L4	@ tmp111,
 104              	@ .\stlib\STM32F10x_StdPeriph_Driver\src\stm32f10x_can.c:130:     RCC_APB1PeriphResetCmd(RCC_APB1Pe
 128:.\stlib\STM32F10x_StdPeriph_Driver\src/stm32f10x_can.c ****   {
 129:.\stlib\STM32F10x_StdPeriph_Driver\src/stm32f10x_can.c ****     /* Enable CAN1 reset state */
 130:.\stlib\STM32F10x_StdPeriph_Driver\src/stm32f10x_can.c ****     RCC_APB1PeriphResetCmd(RCC_APB1Periph_CAN1, ENABLE);
 105              		.loc 1 130 5 view .LVU5
 106 0004 0121     		movs	r1, #1	@,
 107              	@ .\stlib\STM32F10x_StdPeriph_Driver\src\stm32f10x_can.c:127:   if (CANx == CAN1)
 127:.\stlib\STM32F10x_StdPeriph_Driver\src/stm32f10x_can.c ****   {
 108              		.loc 1 127 6 view .LVU6
 109 0006 9842     		cmp	r0, r3	@ tmp112, tmp111
 110 0008 0AD1     		bne	.L2		@,
 111              		.loc 1 130 5 is_stmt 1 view .LVU7
 112 000a 4FF00070 		mov	r0, #33554432	@,
 113              	.LVL1:
 114              		.loc 1 130 5 is_stmt 0 view .LVU8
 115 000e FFF7FEFF 		bl	RCC_APB1PeriphResetCmd		@
 116              	.LVL2:
 131:.\stlib\STM32F10x_StdPeriph_Driver\src/stm32f10x_can.c ****     /* Release CAN1 from reset state */
 132:.\stlib\STM32F10x_StdPeriph_Driver\src/stm32f10x_can.c ****     RCC_APB1PeriphResetCmd(RCC_APB1Periph_CAN1, DISABLE);
 117              		.loc 1 132 5 is_stmt 1 view .LVU9
 118 0012 0021     		movs	r1, #0	@,
 119 0014 4FF00070 		mov	r0, #33554432	@,
 120              	.L3:
 121              	@ .\stlib\STM32F10x_StdPeriph_Driver\src\stm32f10x_can.c:141: }
 133:.\stlib\STM32F10x_StdPeriph_Driver\src/stm32f10x_can.c ****   }
 134:.\stlib\STM32F10x_StdPeriph_Driver\src/stm32f10x_can.c ****   else
 135:.\stlib\STM32F10x_StdPeriph_Driver\src/stm32f10x_can.c ****   {  
 136:.\stlib\STM32F10x_StdPeriph_Driver\src/stm32f10x_can.c ****     /* Enable CAN2 reset state */
 137:.\stlib\STM32F10x_StdPeriph_Driver\src/stm32f10x_can.c ****     RCC_APB1PeriphResetCmd(RCC_APB1Periph_CAN2, ENABLE);
 138:.\stlib\STM32F10x_StdPeriph_Driver\src/stm32f10x_can.c ****     /* Release CAN2 from reset state */
 139:.\stlib\STM32F10x_StdPeriph_Driver\src/stm32f10x_can.c ****     RCC_APB1PeriphResetCmd(RCC_APB1Periph_CAN2, DISABLE);
 140:.\stlib\STM32F10x_StdPeriph_Driver\src/stm32f10x_can.c ****   }
 141:.\stlib\STM32F10x_StdPeriph_Driver\src/stm32f10x_can.c **** }
 122              		.loc 1 141 1 is_stmt 0 view .LVU10
 123 0018 BDE80840 		pop	{r3, lr}	@
 124              	.LCFI1:
 125              		.cfi_remember_state
 126              		.cfi_restore 14
 127              		.cfi_restore 3
 128              		.cfi_def_cfa_offset 0
 129              	@ .\stlib\STM32F10x_StdPeriph_Driver\src\stm32f10x_can.c:139:     RCC_APB1PeriphResetCmd(RCC_APB1Pe
 139:.\stlib\STM32F10x_StdPeriph_Driver\src/stm32f10x_can.c ****   }
 130              		.loc 1 139 5 view .LVU11
 131 001c FFF7FEBF 		b	RCC_APB1PeriphResetCmd		@
 132              	.LVL3:
 133              	.L2:
 134              	.LCFI2:
 135              		.cfi_restore_state
 137:.\stlib\STM32F10x_StdPeriph_Driver\src/stm32f10x_can.c ****     /* Release CAN2 from reset state */
 136              		.loc 1 137 5 is_stmt 1 view .LVU12
 137 0020 4FF08060 		mov	r0, #67108864	@,
 138              	.LVL4:
 137:.\stlib\STM32F10x_StdPeriph_Driver\src/stm32f10x_can.c ****     /* Release CAN2 from reset state */
 139              		.loc 1 137 5 is_stmt 0 view .LVU13
ARM GAS  C:\Users\skey\AppData\Local\Temp\ccv9NfrL.s 			page 6


 140 0024 FFF7FEFF 		bl	RCC_APB1PeriphResetCmd		@
 141              	.LVL5:
 139:.\stlib\STM32F10x_StdPeriph_Driver\src/stm32f10x_can.c ****   }
 142              		.loc 1 139 5 is_stmt 1 view .LVU14
 143 0028 0021     		movs	r1, #0	@,
 144 002a 4FF08060 		mov	r0, #67108864	@,
 145 002e F3E7     		b	.L3		@
 146              	.L5:
 147              		.align	2
 148              	.L4:
 149 0030 00640040 		.word	1073767424
 150              		.cfi_endproc
 151              	.LFE29:
 152              		.size	CAN_DeInit, .-CAN_DeInit
 153              		.align	1
 154              		.global	CAN_Init
 155              		.syntax unified
 156              		.thumb
 157              		.thumb_func
 158              		.fpu softvfp
 159              		.type	CAN_Init, %function
 160              	CAN_Init:
 161              	.LVL6:
 162              	.LFB30:
 142:.\stlib\STM32F10x_StdPeriph_Driver\src/stm32f10x_can.c **** 
 143:.\stlib\STM32F10x_StdPeriph_Driver\src/stm32f10x_can.c **** /**
 144:.\stlib\STM32F10x_StdPeriph_Driver\src/stm32f10x_can.c ****   * @brief  Initializes the CAN peripheral according to the specified
 145:.\stlib\STM32F10x_StdPeriph_Driver\src/stm32f10x_can.c ****   *         parameters in the CAN_InitStruct.
 146:.\stlib\STM32F10x_StdPeriph_Driver\src/stm32f10x_can.c ****   * @param  CANx:           where x can be 1 or 2 to to select the CAN 
 147:.\stlib\STM32F10x_StdPeriph_Driver\src/stm32f10x_can.c ****   *                         peripheral.
 148:.\stlib\STM32F10x_StdPeriph_Driver\src/stm32f10x_can.c ****   * @param  CAN_InitStruct: pointer to a CAN_InitTypeDef structure that
 149:.\stlib\STM32F10x_StdPeriph_Driver\src/stm32f10x_can.c ****   *                         contains the configuration information for the 
 150:.\stlib\STM32F10x_StdPeriph_Driver\src/stm32f10x_can.c ****   *                         CAN peripheral.
 151:.\stlib\STM32F10x_StdPeriph_Driver\src/stm32f10x_can.c ****   * @retval Constant indicates initialization succeed which will be 
 152:.\stlib\STM32F10x_StdPeriph_Driver\src/stm32f10x_can.c ****   *         CAN_InitStatus_Failed or CAN_InitStatus_Success.
 153:.\stlib\STM32F10x_StdPeriph_Driver\src/stm32f10x_can.c ****   */
 154:.\stlib\STM32F10x_StdPeriph_Driver\src/stm32f10x_can.c **** uint8_t CAN_Init(CAN_TypeDef* CANx, CAN_InitTypeDef* CAN_InitStruct)
 155:.\stlib\STM32F10x_StdPeriph_Driver\src/stm32f10x_can.c **** {
 163              		.loc 1 155 1 view -0
 164              		.cfi_startproc
 165              		@ args = 0, pretend = 0, frame = 0
 166              		@ frame_needed = 0, uses_anonymous_args = 0
 167              		@ link register save eliminated.
 156:.\stlib\STM32F10x_StdPeriph_Driver\src/stm32f10x_can.c ****   uint8_t InitStatus = CAN_InitStatus_Failed;
 168              		.loc 1 156 3 view .LVU16
 157:.\stlib\STM32F10x_StdPeriph_Driver\src/stm32f10x_can.c ****   uint32_t wait_ack = 0x00000000;
 169              		.loc 1 157 3 view .LVU17
 158:.\stlib\STM32F10x_StdPeriph_Driver\src/stm32f10x_can.c ****   /* Check the parameters */
 159:.\stlib\STM32F10x_StdPeriph_Driver\src/stm32f10x_can.c ****   assert_param(IS_CAN_ALL_PERIPH(CANx));
 170              		.loc 1 159 3 view .LVU18
 160:.\stlib\STM32F10x_StdPeriph_Driver\src/stm32f10x_can.c ****   assert_param(IS_FUNCTIONAL_STATE(CAN_InitStruct->CAN_TTCM));
 171              		.loc 1 160 3 view .LVU19
 161:.\stlib\STM32F10x_StdPeriph_Driver\src/stm32f10x_can.c ****   assert_param(IS_FUNCTIONAL_STATE(CAN_InitStruct->CAN_ABOM));
 172              		.loc 1 161 3 view .LVU20
 162:.\stlib\STM32F10x_StdPeriph_Driver\src/stm32f10x_can.c ****   assert_param(IS_FUNCTIONAL_STATE(CAN_InitStruct->CAN_AWUM));
 173              		.loc 1 162 3 view .LVU21
 163:.\stlib\STM32F10x_StdPeriph_Driver\src/stm32f10x_can.c ****   assert_param(IS_FUNCTIONAL_STATE(CAN_InitStruct->CAN_NART));
ARM GAS  C:\Users\skey\AppData\Local\Temp\ccv9NfrL.s 			page 7


 174              		.loc 1 163 3 view .LVU22
 164:.\stlib\STM32F10x_StdPeriph_Driver\src/stm32f10x_can.c ****   assert_param(IS_FUNCTIONAL_STATE(CAN_InitStruct->CAN_RFLM));
 175              		.loc 1 164 3 view .LVU23
 165:.\stlib\STM32F10x_StdPeriph_Driver\src/stm32f10x_can.c ****   assert_param(IS_FUNCTIONAL_STATE(CAN_InitStruct->CAN_TXFP));
 176              		.loc 1 165 3 view .LVU24
 166:.\stlib\STM32F10x_StdPeriph_Driver\src/stm32f10x_can.c ****   assert_param(IS_CAN_MODE(CAN_InitStruct->CAN_Mode));
 177              		.loc 1 166 3 view .LVU25
 167:.\stlib\STM32F10x_StdPeriph_Driver\src/stm32f10x_can.c ****   assert_param(IS_CAN_SJW(CAN_InitStruct->CAN_SJW));
 178              		.loc 1 167 3 view .LVU26
 168:.\stlib\STM32F10x_StdPeriph_Driver\src/stm32f10x_can.c ****   assert_param(IS_CAN_BS1(CAN_InitStruct->CAN_BS1));
 179              		.loc 1 168 3 view .LVU27
 169:.\stlib\STM32F10x_StdPeriph_Driver\src/stm32f10x_can.c ****   assert_param(IS_CAN_BS2(CAN_InitStruct->CAN_BS2));
 180              		.loc 1 169 3 view .LVU28
 170:.\stlib\STM32F10x_StdPeriph_Driver\src/stm32f10x_can.c ****   assert_param(IS_CAN_PRESCALER(CAN_InitStruct->CAN_Prescaler));
 181              		.loc 1 170 3 view .LVU29
 171:.\stlib\STM32F10x_StdPeriph_Driver\src/stm32f10x_can.c **** 
 172:.\stlib\STM32F10x_StdPeriph_Driver\src/stm32f10x_can.c ****   /* Exit from sleep mode */
 173:.\stlib\STM32F10x_StdPeriph_Driver\src/stm32f10x_can.c ****   CANx->MCR &= (~(uint32_t)CAN_MCR_SLEEP);
 182              		.loc 1 173 3 view .LVU30
 183              	@ .\stlib\STM32F10x_StdPeriph_Driver\src\stm32f10x_can.c:173:   CANx->MCR &= (~(uint32_t)CAN_MCR_SL
 184              		.loc 1 173 13 is_stmt 0 view .LVU31
 185 0034 0368     		ldr	r3, [r0]	@ _1, CANx_76(D)->MCR
 186 0036 23F00203 		bic	r3, r3, #2	@ _2, _1,
 187 003a 0360     		str	r3, [r0]	@ _2, CANx_76(D)->MCR
 174:.\stlib\STM32F10x_StdPeriph_Driver\src/stm32f10x_can.c **** 
 175:.\stlib\STM32F10x_StdPeriph_Driver\src/stm32f10x_can.c ****   /* Request initialisation */
 176:.\stlib\STM32F10x_StdPeriph_Driver\src/stm32f10x_can.c ****   CANx->MCR |= CAN_MCR_INRQ ;
 188              		.loc 1 176 3 is_stmt 1 view .LVU32
 189              	@ .\stlib\STM32F10x_StdPeriph_Driver\src\stm32f10x_can.c:176:   CANx->MCR |= CAN_MCR_INRQ ;
 190              		.loc 1 176 13 is_stmt 0 view .LVU33
 191 003c 0368     		ldr	r3, [r0]	@ _3, CANx_76(D)->MCR
 192 003e 43F00103 		orr	r3, r3, #1	@ _4, _3,
 193 0042 0360     		str	r3, [r0]	@ _4, CANx_76(D)->MCR
 177:.\stlib\STM32F10x_StdPeriph_Driver\src/stm32f10x_can.c **** 
 178:.\stlib\STM32F10x_StdPeriph_Driver\src/stm32f10x_can.c ****   /* Wait the acknowledge */
 179:.\stlib\STM32F10x_StdPeriph_Driver\src/stm32f10x_can.c ****   while (((CANx->MSR & CAN_MSR_INAK) != CAN_MSR_INAK) && (wait_ack != INAK_TIMEOUT))
 194              		.loc 1 179 3 is_stmt 1 view .LVU34
 195              	@ .\stlib\STM32F10x_StdPeriph_Driver\src\stm32f10x_can.c:179:   while (((CANx->MSR & CAN_MSR_INAK) 
 196              		.loc 1 179 9 is_stmt 0 view .LVU35
 197 0044 4FF48033 		mov	r3, #65536	@ ivtmp_111,
 198              	.LVL7:
 199              	.L8:
 200              		.loc 1 179 9 is_stmt 1 view .LVU36
 201              	@ .\stlib\STM32F10x_StdPeriph_Driver\src\stm32f10x_can.c:179:   while (((CANx->MSR & CAN_MSR_INAK) 
 202              		.loc 1 179 16 is_stmt 0 view .LVU37
 203 0048 4268     		ldr	r2, [r0, #4]	@ _5, CANx_76(D)->MSR
 204              	@ .\stlib\STM32F10x_StdPeriph_Driver\src\stm32f10x_can.c:179:   while (((CANx->MSR & CAN_MSR_INAK) 
 205              		.loc 1 179 9 view .LVU38
 206 004a D207     		lsls	r2, r2, #31	@, _5,
 207 004c 01D4     		bmi	.L7		@,
 208              	@ .\stlib\STM32F10x_StdPeriph_Driver\src\stm32f10x_can.c:179:   while (((CANx->MSR & CAN_MSR_INAK) 
 209              		.loc 1 179 55 discriminator 1 view .LVU39
 210 004e 013B     		subs	r3, r3, #1	@ ivtmp_111, ivtmp_111,
 211              	.LVL8:
 212              		.loc 1 179 55 discriminator 1 view .LVU40
 213 0050 FAD1     		bne	.L8		@,
 214              	.LVL9:
ARM GAS  C:\Users\skey\AppData\Local\Temp\ccv9NfrL.s 			page 8


 215              	.L7:
 180:.\stlib\STM32F10x_StdPeriph_Driver\src/stm32f10x_can.c ****   {
 181:.\stlib\STM32F10x_StdPeriph_Driver\src/stm32f10x_can.c ****     wait_ack++;
 182:.\stlib\STM32F10x_StdPeriph_Driver\src/stm32f10x_can.c ****   }
 183:.\stlib\STM32F10x_StdPeriph_Driver\src/stm32f10x_can.c **** 
 184:.\stlib\STM32F10x_StdPeriph_Driver\src/stm32f10x_can.c ****   /* Check acknowledge */
 185:.\stlib\STM32F10x_StdPeriph_Driver\src/stm32f10x_can.c ****   if ((CANx->MSR & CAN_MSR_INAK) != CAN_MSR_INAK)
 216              		.loc 1 185 3 is_stmt 1 view .LVU41
 217              	@ .\stlib\STM32F10x_StdPeriph_Driver\src\stm32f10x_can.c:185:   if ((CANx->MSR & CAN_MSR_INAK) != C
 218              		.loc 1 185 12 is_stmt 0 view .LVU42
 219 0052 4368     		ldr	r3, [r0, #4]	@ _7, CANx_76(D)->MSR
 220              	@ .\stlib\STM32F10x_StdPeriph_Driver\src\stm32f10x_can.c:185:   if ((CANx->MSR & CAN_MSR_INAK) != C
 221              		.loc 1 185 6 view .LVU43
 222 0054 13F00103 		ands	r3, r3, #1	@ tmp180, _7,
 223 0058 54D0     		beq	.L24		@,
 186:.\stlib\STM32F10x_StdPeriph_Driver\src/stm32f10x_can.c ****   {
 187:.\stlib\STM32F10x_StdPeriph_Driver\src/stm32f10x_can.c ****     InitStatus = CAN_InitStatus_Failed;
 188:.\stlib\STM32F10x_StdPeriph_Driver\src/stm32f10x_can.c ****   }
 189:.\stlib\STM32F10x_StdPeriph_Driver\src/stm32f10x_can.c ****   else 
 190:.\stlib\STM32F10x_StdPeriph_Driver\src/stm32f10x_can.c ****   {
 191:.\stlib\STM32F10x_StdPeriph_Driver\src/stm32f10x_can.c ****     /* Set the time triggered communication mode */
 192:.\stlib\STM32F10x_StdPeriph_Driver\src/stm32f10x_can.c ****     if (CAN_InitStruct->CAN_TTCM == ENABLE)
 224              		.loc 1 192 5 is_stmt 1 view .LVU44
 225              	@ .\stlib\STM32F10x_StdPeriph_Driver\src\stm32f10x_can.c:192:     if (CAN_InitStruct->CAN_TTCM == E
 226              		.loc 1 192 8 is_stmt 0 view .LVU45
 227 005a 8B79     		ldrb	r3, [r1, #6]	@ zero_extendqisi2	@ CAN_InitStruct_80(D)->CAN_TTCM, CAN_InitStruct_80(D)->CAN_T
 228 005c 012B     		cmp	r3, #1	@ CAN_InitStruct_80(D)->CAN_TTCM,
 229              	@ .\stlib\STM32F10x_StdPeriph_Driver\src\stm32f10x_can.c:194:       CANx->MCR |= CAN_MCR_TTCM;
 193:.\stlib\STM32F10x_StdPeriph_Driver\src/stm32f10x_can.c ****     {
 194:.\stlib\STM32F10x_StdPeriph_Driver\src/stm32f10x_can.c ****       CANx->MCR |= CAN_MCR_TTCM;
 230              		.loc 1 194 17 view .LVU46
 231 005e 0368     		ldr	r3, [r0]	@ _10,* CANx
 232              		.loc 1 194 7 is_stmt 1 view .LVU47
 233              	@ .\stlib\STM32F10x_StdPeriph_Driver\src\stm32f10x_can.c:194:       CANx->MCR |= CAN_MCR_TTCM;
 234              		.loc 1 194 17 is_stmt 0 view .LVU48
 235 0060 0CBF     		ite	eq
 236 0062 43F08003 		orreq	r3, r3, #128	@ _11, _10,
 195:.\stlib\STM32F10x_StdPeriph_Driver\src/stm32f10x_can.c ****     }
 196:.\stlib\STM32F10x_StdPeriph_Driver\src/stm32f10x_can.c ****     else
 197:.\stlib\STM32F10x_StdPeriph_Driver\src/stm32f10x_can.c ****     {
 198:.\stlib\STM32F10x_StdPeriph_Driver\src/stm32f10x_can.c ****       CANx->MCR &= ~(uint32_t)CAN_MCR_TTCM;
 237              		.loc 1 198 7 is_stmt 1 view .LVU49
 238              	@ .\stlib\STM32F10x_StdPeriph_Driver\src\stm32f10x_can.c:198:       CANx->MCR &= ~(uint32_t)CAN_MCR
 239              		.loc 1 198 17 is_stmt 0 view .LVU50
 240 0066 23F08003 		bicne	r3, r3, #128	@ _13, _12,
 241 006a 0360     		str	r3, [r0]	@ _13,* CANx
 199:.\stlib\STM32F10x_StdPeriph_Driver\src/stm32f10x_can.c ****     }
 200:.\stlib\STM32F10x_StdPeriph_Driver\src/stm32f10x_can.c **** 
 201:.\stlib\STM32F10x_StdPeriph_Driver\src/stm32f10x_can.c ****     /* Set the automatic bus-off management */
 202:.\stlib\STM32F10x_StdPeriph_Driver\src/stm32f10x_can.c ****     if (CAN_InitStruct->CAN_ABOM == ENABLE)
 242              		.loc 1 202 5 is_stmt 1 view .LVU51
 243              	@ .\stlib\STM32F10x_StdPeriph_Driver\src\stm32f10x_can.c:202:     if (CAN_InitStruct->CAN_ABOM == E
 244              		.loc 1 202 8 is_stmt 0 view .LVU52
 245 006c CB79     		ldrb	r3, [r1, #7]	@ zero_extendqisi2	@ CAN_InitStruct_80(D)->CAN_ABOM, CAN_InitStruct_80(D)->CAN_A
 246 006e 012B     		cmp	r3, #1	@ CAN_InitStruct_80(D)->CAN_ABOM,
 247              	@ .\stlib\STM32F10x_StdPeriph_Driver\src\stm32f10x_can.c:204:       CANx->MCR |= CAN_MCR_ABOM;
 203:.\stlib\STM32F10x_StdPeriph_Driver\src/stm32f10x_can.c ****     {
ARM GAS  C:\Users\skey\AppData\Local\Temp\ccv9NfrL.s 			page 9


 204:.\stlib\STM32F10x_StdPeriph_Driver\src/stm32f10x_can.c ****       CANx->MCR |= CAN_MCR_ABOM;
 248              		.loc 1 204 17 view .LVU53
 249 0070 0368     		ldr	r3, [r0]	@ _15,* CANx
 250              		.loc 1 204 7 is_stmt 1 view .LVU54
 251              	@ .\stlib\STM32F10x_StdPeriph_Driver\src\stm32f10x_can.c:204:       CANx->MCR |= CAN_MCR_ABOM;
 252              		.loc 1 204 17 is_stmt 0 view .LVU55
 253 0072 0CBF     		ite	eq
 254 0074 43F04003 		orreq	r3, r3, #64	@ _16, _15,
 205:.\stlib\STM32F10x_StdPeriph_Driver\src/stm32f10x_can.c ****     }
 206:.\stlib\STM32F10x_StdPeriph_Driver\src/stm32f10x_can.c ****     else
 207:.\stlib\STM32F10x_StdPeriph_Driver\src/stm32f10x_can.c ****     {
 208:.\stlib\STM32F10x_StdPeriph_Driver\src/stm32f10x_can.c ****       CANx->MCR &= ~(uint32_t)CAN_MCR_ABOM;
 255              		.loc 1 208 7 is_stmt 1 view .LVU56
 256              	@ .\stlib\STM32F10x_StdPeriph_Driver\src\stm32f10x_can.c:208:       CANx->MCR &= ~(uint32_t)CAN_MCR
 257              		.loc 1 208 17 is_stmt 0 view .LVU57
 258 0078 23F04003 		bicne	r3, r3, #64	@ _18, _17,
 259 007c 0360     		str	r3, [r0]	@ _18,* CANx
 209:.\stlib\STM32F10x_StdPeriph_Driver\src/stm32f10x_can.c ****     }
 210:.\stlib\STM32F10x_StdPeriph_Driver\src/stm32f10x_can.c **** 
 211:.\stlib\STM32F10x_StdPeriph_Driver\src/stm32f10x_can.c ****     /* Set the automatic wake-up mode */
 212:.\stlib\STM32F10x_StdPeriph_Driver\src/stm32f10x_can.c ****     if (CAN_InitStruct->CAN_AWUM == ENABLE)
 260              		.loc 1 212 5 is_stmt 1 view .LVU58
 261              	@ .\stlib\STM32F10x_StdPeriph_Driver\src\stm32f10x_can.c:212:     if (CAN_InitStruct->CAN_AWUM == E
 262              		.loc 1 212 8 is_stmt 0 view .LVU59
 263 007e 0B7A     		ldrb	r3, [r1, #8]	@ zero_extendqisi2	@ CAN_InitStruct_80(D)->CAN_AWUM, CAN_InitStruct_80(D)->CAN_A
 264 0080 012B     		cmp	r3, #1	@ CAN_InitStruct_80(D)->CAN_AWUM,
 265              	@ .\stlib\STM32F10x_StdPeriph_Driver\src\stm32f10x_can.c:214:       CANx->MCR |= CAN_MCR_AWUM;
 213:.\stlib\STM32F10x_StdPeriph_Driver\src/stm32f10x_can.c ****     {
 214:.\stlib\STM32F10x_StdPeriph_Driver\src/stm32f10x_can.c ****       CANx->MCR |= CAN_MCR_AWUM;
 266              		.loc 1 214 17 view .LVU60
 267 0082 0368     		ldr	r3, [r0]	@ _20,* CANx
 268              		.loc 1 214 7 is_stmt 1 view .LVU61
 269              	@ .\stlib\STM32F10x_StdPeriph_Driver\src\stm32f10x_can.c:214:       CANx->MCR |= CAN_MCR_AWUM;
 270              		.loc 1 214 17 is_stmt 0 view .LVU62
 271 0084 0CBF     		ite	eq
 272 0086 43F02003 		orreq	r3, r3, #32	@ _21, _20,
 215:.\stlib\STM32F10x_StdPeriph_Driver\src/stm32f10x_can.c ****     }
 216:.\stlib\STM32F10x_StdPeriph_Driver\src/stm32f10x_can.c ****     else
 217:.\stlib\STM32F10x_StdPeriph_Driver\src/stm32f10x_can.c ****     {
 218:.\stlib\STM32F10x_StdPeriph_Driver\src/stm32f10x_can.c ****       CANx->MCR &= ~(uint32_t)CAN_MCR_AWUM;
 273              		.loc 1 218 7 is_stmt 1 view .LVU63
 274              	@ .\stlib\STM32F10x_StdPeriph_Driver\src\stm32f10x_can.c:218:       CANx->MCR &= ~(uint32_t)CAN_MCR
 275              		.loc 1 218 17 is_stmt 0 view .LVU64
 276 008a 23F02003 		bicne	r3, r3, #32	@ _23, _22,
 277 008e 0360     		str	r3, [r0]	@ _23,* CANx
 219:.\stlib\STM32F10x_StdPeriph_Driver\src/stm32f10x_can.c ****     }
 220:.\stlib\STM32F10x_StdPeriph_Driver\src/stm32f10x_can.c **** 
 221:.\stlib\STM32F10x_StdPeriph_Driver\src/stm32f10x_can.c ****     /* Set the no automatic retransmission */
 222:.\stlib\STM32F10x_StdPeriph_Driver\src/stm32f10x_can.c ****     if (CAN_InitStruct->CAN_NART == ENABLE)
 278              		.loc 1 222 5 is_stmt 1 view .LVU65
 279              	@ .\stlib\STM32F10x_StdPeriph_Driver\src\stm32f10x_can.c:222:     if (CAN_InitStruct->CAN_NART == E
 280              		.loc 1 222 8 is_stmt 0 view .LVU66
 281 0090 4B7A     		ldrb	r3, [r1, #9]	@ zero_extendqisi2	@ CAN_InitStruct_80(D)->CAN_NART, CAN_InitStruct_80(D)->CAN_N
 282 0092 012B     		cmp	r3, #1	@ CAN_InitStruct_80(D)->CAN_NART,
 283              	@ .\stlib\STM32F10x_StdPeriph_Driver\src\stm32f10x_can.c:224:       CANx->MCR |= CAN_MCR_NART;
 223:.\stlib\STM32F10x_StdPeriph_Driver\src/stm32f10x_can.c ****     {
 224:.\stlib\STM32F10x_StdPeriph_Driver\src/stm32f10x_can.c ****       CANx->MCR |= CAN_MCR_NART;
ARM GAS  C:\Users\skey\AppData\Local\Temp\ccv9NfrL.s 			page 10


 284              		.loc 1 224 17 view .LVU67
 285 0094 0368     		ldr	r3, [r0]	@ _25,* CANx
 286              		.loc 1 224 7 is_stmt 1 view .LVU68
 287              	@ .\stlib\STM32F10x_StdPeriph_Driver\src\stm32f10x_can.c:224:       CANx->MCR |= CAN_MCR_NART;
 288              		.loc 1 224 17 is_stmt 0 view .LVU69
 289 0096 0CBF     		ite	eq
 290 0098 43F01003 		orreq	r3, r3, #16	@ _26, _25,
 225:.\stlib\STM32F10x_StdPeriph_Driver\src/stm32f10x_can.c ****     }
 226:.\stlib\STM32F10x_StdPeriph_Driver\src/stm32f10x_can.c ****     else
 227:.\stlib\STM32F10x_StdPeriph_Driver\src/stm32f10x_can.c ****     {
 228:.\stlib\STM32F10x_StdPeriph_Driver\src/stm32f10x_can.c ****       CANx->MCR &= ~(uint32_t)CAN_MCR_NART;
 291              		.loc 1 228 7 is_stmt 1 view .LVU70
 292              	@ .\stlib\STM32F10x_StdPeriph_Driver\src\stm32f10x_can.c:228:       CANx->MCR &= ~(uint32_t)CAN_MCR
 293              		.loc 1 228 17 is_stmt 0 view .LVU71
 294 009c 23F01003 		bicne	r3, r3, #16	@ _28, _27,
 295 00a0 0360     		str	r3, [r0]	@ _28,* CANx
 229:.\stlib\STM32F10x_StdPeriph_Driver\src/stm32f10x_can.c ****     }
 230:.\stlib\STM32F10x_StdPeriph_Driver\src/stm32f10x_can.c **** 
 231:.\stlib\STM32F10x_StdPeriph_Driver\src/stm32f10x_can.c ****     /* Set the receive FIFO locked mode */
 232:.\stlib\STM32F10x_StdPeriph_Driver\src/stm32f10x_can.c ****     if (CAN_InitStruct->CAN_RFLM == ENABLE)
 296              		.loc 1 232 5 is_stmt 1 view .LVU72
 297              	@ .\stlib\STM32F10x_StdPeriph_Driver\src\stm32f10x_can.c:232:     if (CAN_InitStruct->CAN_RFLM == E
 298              		.loc 1 232 8 is_stmt 0 view .LVU73
 299 00a2 8B7A     		ldrb	r3, [r1, #10]	@ zero_extendqisi2	@ CAN_InitStruct_80(D)->CAN_RFLM, CAN_InitStruct_80(D)->CAN_
 300 00a4 012B     		cmp	r3, #1	@ CAN_InitStruct_80(D)->CAN_RFLM,
 301              	@ .\stlib\STM32F10x_StdPeriph_Driver\src\stm32f10x_can.c:234:       CANx->MCR |= CAN_MCR_RFLM;
 233:.\stlib\STM32F10x_StdPeriph_Driver\src/stm32f10x_can.c ****     {
 234:.\stlib\STM32F10x_StdPeriph_Driver\src/stm32f10x_can.c ****       CANx->MCR |= CAN_MCR_RFLM;
 302              		.loc 1 234 17 view .LVU74
 303 00a6 0368     		ldr	r3, [r0]	@ _30,* CANx
 304              		.loc 1 234 7 is_stmt 1 view .LVU75
 305              	@ .\stlib\STM32F10x_StdPeriph_Driver\src\stm32f10x_can.c:234:       CANx->MCR |= CAN_MCR_RFLM;
 306              		.loc 1 234 17 is_stmt 0 view .LVU76
 307 00a8 0CBF     		ite	eq
 308 00aa 43F00803 		orreq	r3, r3, #8	@ _31, _30,
 235:.\stlib\STM32F10x_StdPeriph_Driver\src/stm32f10x_can.c ****     }
 236:.\stlib\STM32F10x_StdPeriph_Driver\src/stm32f10x_can.c ****     else
 237:.\stlib\STM32F10x_StdPeriph_Driver\src/stm32f10x_can.c ****     {
 238:.\stlib\STM32F10x_StdPeriph_Driver\src/stm32f10x_can.c ****       CANx->MCR &= ~(uint32_t)CAN_MCR_RFLM;
 309              		.loc 1 238 7 is_stmt 1 view .LVU77
 310              	@ .\stlib\STM32F10x_StdPeriph_Driver\src\stm32f10x_can.c:238:       CANx->MCR &= ~(uint32_t)CAN_MCR
 311              		.loc 1 238 17 is_stmt 0 view .LVU78
 312 00ae 23F00803 		bicne	r3, r3, #8	@ _33, _32,
 313 00b2 0360     		str	r3, [r0]	@ _33,* CANx
 239:.\stlib\STM32F10x_StdPeriph_Driver\src/stm32f10x_can.c ****     }
 240:.\stlib\STM32F10x_StdPeriph_Driver\src/stm32f10x_can.c **** 
 241:.\stlib\STM32F10x_StdPeriph_Driver\src/stm32f10x_can.c ****     /* Set the transmit FIFO priority */
 242:.\stlib\STM32F10x_StdPeriph_Driver\src/stm32f10x_can.c ****     if (CAN_InitStruct->CAN_TXFP == ENABLE)
 314              		.loc 1 242 5 is_stmt 1 view .LVU79
 315              	@ .\stlib\STM32F10x_StdPeriph_Driver\src\stm32f10x_can.c:242:     if (CAN_InitStruct->CAN_TXFP == E
 316              		.loc 1 242 8 is_stmt 0 view .LVU80
 317 00b4 CB7A     		ldrb	r3, [r1, #11]	@ zero_extendqisi2	@ CAN_InitStruct_80(D)->CAN_TXFP, CAN_InitStruct_80(D)->CAN_
 318 00b6 012B     		cmp	r3, #1	@ CAN_InitStruct_80(D)->CAN_TXFP,
 319              	@ .\stlib\STM32F10x_StdPeriph_Driver\src\stm32f10x_can.c:244:       CANx->MCR |= CAN_MCR_TXFP;
 243:.\stlib\STM32F10x_StdPeriph_Driver\src/stm32f10x_can.c ****     {
 244:.\stlib\STM32F10x_StdPeriph_Driver\src/stm32f10x_can.c ****       CANx->MCR |= CAN_MCR_TXFP;
 320              		.loc 1 244 17 view .LVU81
ARM GAS  C:\Users\skey\AppData\Local\Temp\ccv9NfrL.s 			page 11


 321 00b8 0368     		ldr	r3, [r0]	@ _35,* CANx
 322              		.loc 1 244 7 is_stmt 1 view .LVU82
 323              	@ .\stlib\STM32F10x_StdPeriph_Driver\src\stm32f10x_can.c:244:       CANx->MCR |= CAN_MCR_TXFP;
 324              		.loc 1 244 17 is_stmt 0 view .LVU83
 325 00ba 0CBF     		ite	eq
 326 00bc 43F00403 		orreq	r3, r3, #4	@ _36, _35,
 245:.\stlib\STM32F10x_StdPeriph_Driver\src/stm32f10x_can.c ****     }
 246:.\stlib\STM32F10x_StdPeriph_Driver\src/stm32f10x_can.c ****     else
 247:.\stlib\STM32F10x_StdPeriph_Driver\src/stm32f10x_can.c ****     {
 248:.\stlib\STM32F10x_StdPeriph_Driver\src/stm32f10x_can.c ****       CANx->MCR &= ~(uint32_t)CAN_MCR_TXFP;
 327              		.loc 1 248 7 is_stmt 1 view .LVU84
 328              	@ .\stlib\STM32F10x_StdPeriph_Driver\src\stm32f10x_can.c:248:       CANx->MCR &= ~(uint32_t)CAN_MCR
 329              		.loc 1 248 17 is_stmt 0 view .LVU85
 330 00c0 23F00403 		bicne	r3, r3, #4	@ _38, _37,
 331 00c4 0360     		str	r3, [r0]	@ _38,* CANx
 249:.\stlib\STM32F10x_StdPeriph_Driver\src/stm32f10x_can.c ****     }
 250:.\stlib\STM32F10x_StdPeriph_Driver\src/stm32f10x_can.c **** 
 251:.\stlib\STM32F10x_StdPeriph_Driver\src/stm32f10x_can.c ****     /* Set the bit timing register */
 252:.\stlib\STM32F10x_StdPeriph_Driver\src/stm32f10x_can.c ****     CANx->BTR = (uint32_t)((uint32_t)CAN_InitStruct->CAN_Mode << 30) | \
 332              		.loc 1 252 5 is_stmt 1 view .LVU86
 333              	@ .\stlib\STM32F10x_StdPeriph_Driver\src\stm32f10x_can.c:253:                 ((uint32_t)CAN_InitSt
 253:.\stlib\STM32F10x_StdPeriph_Driver\src/stm32f10x_can.c ****                 ((uint32_t)CAN_InitStruct->CAN_SJW << 24) | \
 334              		.loc 1 253 18 is_stmt 0 view .LVU87
 335 00c6 CB78     		ldrb	r3, [r1, #3]	@ zero_extendqisi2	@ CAN_InitStruct_80(D)->CAN_SJW, CAN_InitStruct_80(D)->CAN_SJ
 336              	@ .\stlib\STM32F10x_StdPeriph_Driver\src\stm32f10x_can.c:252:     CANx->BTR = (uint32_t)((uint32_t)
 252:.\stlib\STM32F10x_StdPeriph_Driver\src/stm32f10x_can.c ****                 ((uint32_t)CAN_InitStruct->CAN_SJW << 24) | \
 337              		.loc 1 252 28 view .LVU88
 338 00c8 8A78     		ldrb	r2, [r1, #2]	@ zero_extendqisi2	@ CAN_InitStruct_80(D)->CAN_Mode, CAN_InitStruct_80(D)->CAN_M
 339              	@ .\stlib\STM32F10x_StdPeriph_Driver\src\stm32f10x_can.c:253:                 ((uint32_t)CAN_InitSt
 340              		.loc 1 253 52 view .LVU89
 341 00ca 1B06     		lsls	r3, r3, #24	@ tmp190, CAN_InitStruct_80(D)->CAN_SJW,
 342              	@ .\stlib\STM32F10x_StdPeriph_Driver\src\stm32f10x_can.c:252:     CANx->BTR = (uint32_t)((uint32_t)
 252:.\stlib\STM32F10x_StdPeriph_Driver\src/stm32f10x_can.c ****                 ((uint32_t)CAN_InitStruct->CAN_SJW << 24) | \
 343              		.loc 1 252 70 view .LVU90
 344 00cc 43EA8273 		orr	r3, r3, r2, lsl #30	@ tmp191, tmp190, CAN_InitStruct_80(D)->CAN_Mode,
 345              	@ .\stlib\STM32F10x_StdPeriph_Driver\src\stm32f10x_can.c:254:                 ((uint32_t)CAN_InitSt
 254:.\stlib\STM32F10x_StdPeriph_Driver\src/stm32f10x_can.c ****                 ((uint32_t)CAN_InitStruct->CAN_BS1 << 16) | \
 346              		.loc 1 254 18 view .LVU91
 347 00d0 0A79     		ldrb	r2, [r1, #4]	@ zero_extendqisi2	@ CAN_InitStruct_80(D)->CAN_BS1, CAN_InitStruct_80(D)->CAN_BS
 348              	@ .\stlib\STM32F10x_StdPeriph_Driver\src\stm32f10x_can.c:253:                 ((uint32_t)CAN_InitSt
 253:.\stlib\STM32F10x_StdPeriph_Driver\src/stm32f10x_can.c ****                 ((uint32_t)CAN_InitStruct->CAN_SJW << 24) | \
 349              		.loc 1 253 59 view .LVU92
 350 00d2 43EA0243 		orr	r3, r3, r2, lsl #16	@ tmp194, tmp191, CAN_InitStruct_80(D)->CAN_BS1,
 351              	@ .\stlib\STM32F10x_StdPeriph_Driver\src\stm32f10x_can.c:255:                 ((uint32_t)CAN_InitSt
 255:.\stlib\STM32F10x_StdPeriph_Driver\src/stm32f10x_can.c ****                 ((uint32_t)CAN_InitStruct->CAN_BS2 << 20) | \
 352              		.loc 1 255 18 view .LVU93
 353 00d6 4A79     		ldrb	r2, [r1, #5]	@ zero_extendqisi2	@ CAN_InitStruct_80(D)->CAN_BS2, CAN_InitStruct_80(D)->CAN_BS
 354              	@ .\stlib\STM32F10x_StdPeriph_Driver\src\stm32f10x_can.c:254:                 ((uint32_t)CAN_InitSt
 254:.\stlib\STM32F10x_StdPeriph_Driver\src/stm32f10x_can.c ****                 ((uint32_t)CAN_InitStruct->CAN_BS1 << 16) | \
 355              		.loc 1 254 59 view .LVU94
 356 00d8 43EA0253 		orr	r3, r3, r2, lsl #20	@ tmp197, tmp194, CAN_InitStruct_80(D)->CAN_BS2,
 357              	@ .\stlib\STM32F10x_StdPeriph_Driver\src\stm32f10x_can.c:256:                ((uint32_t)CAN_InitStr
 256:.\stlib\STM32F10x_StdPeriph_Driver\src/stm32f10x_can.c ****                ((uint32_t)CAN_InitStruct->CAN_Prescaler - 1);
 358              		.loc 1 256 17 view .LVU95
 359 00dc 0A88     		ldrh	r2, [r1]	@ CAN_InitStruct_80(D)->CAN_Prescaler, CAN_InitStruct_80(D)->CAN_Prescaler
 360              	@ .\stlib\STM32F10x_StdPeriph_Driver\src\stm32f10x_can.c:256:                ((uint32_t)CAN_InitStr
 361              		.loc 1 256 57 view .LVU96
ARM GAS  C:\Users\skey\AppData\Local\Temp\ccv9NfrL.s 			page 12


 362 00de 013A     		subs	r2, r2, #1	@ tmp199, CAN_InitStruct_80(D)->CAN_Prescaler,
 363              	@ .\stlib\STM32F10x_StdPeriph_Driver\src\stm32f10x_can.c:255:                 ((uint32_t)CAN_InitSt
 255:.\stlib\STM32F10x_StdPeriph_Driver\src/stm32f10x_can.c ****                 ((uint32_t)CAN_InitStruct->CAN_BS2 << 20) | \
 364              		.loc 1 255 59 view .LVU97
 365 00e0 1343     		orrs	r3, r3, r2	@, _57, tmp197, tmp199
 366              	@ .\stlib\STM32F10x_StdPeriph_Driver\src\stm32f10x_can.c:252:     CANx->BTR = (uint32_t)((uint32_t)
 252:.\stlib\STM32F10x_StdPeriph_Driver\src/stm32f10x_can.c ****                 ((uint32_t)CAN_InitStruct->CAN_SJW << 24) | \
 367              		.loc 1 252 15 view .LVU98
 368 00e2 C361     		str	r3, [r0, #28]	@ _57, CANx_76(D)->BTR
 257:.\stlib\STM32F10x_StdPeriph_Driver\src/stm32f10x_can.c **** 
 258:.\stlib\STM32F10x_StdPeriph_Driver\src/stm32f10x_can.c ****     /* Request leave initialisation */
 259:.\stlib\STM32F10x_StdPeriph_Driver\src/stm32f10x_can.c ****     CANx->MCR &= ~(uint32_t)CAN_MCR_INRQ;
 369              		.loc 1 259 5 is_stmt 1 view .LVU99
 370              	@ .\stlib\STM32F10x_StdPeriph_Driver\src\stm32f10x_can.c:259:     CANx->MCR &= ~(uint32_t)CAN_MCR_I
 371              		.loc 1 259 15 is_stmt 0 view .LVU100
 372 00e4 0368     		ldr	r3, [r0]	@ _58, CANx_76(D)->MCR
 373 00e6 23F00103 		bic	r3, r3, #1	@ _59, _58,
 374 00ea 0360     		str	r3, [r0]	@ _59, CANx_76(D)->MCR
 260:.\stlib\STM32F10x_StdPeriph_Driver\src/stm32f10x_can.c **** 
 261:.\stlib\STM32F10x_StdPeriph_Driver\src/stm32f10x_can.c ****    /* Wait the acknowledge */
 262:.\stlib\STM32F10x_StdPeriph_Driver\src/stm32f10x_can.c ****    wait_ack = 0;
 375              		.loc 1 262 4 is_stmt 1 view .LVU101
 376              	.LVL10:
 263:.\stlib\STM32F10x_StdPeriph_Driver\src/stm32f10x_can.c **** 
 264:.\stlib\STM32F10x_StdPeriph_Driver\src/stm32f10x_can.c ****    while (((CANx->MSR & CAN_MSR_INAK) == CAN_MSR_INAK) && (wait_ack != INAK_TIMEOUT))
 377              		.loc 1 264 4 view .LVU102
 378              	@ .\stlib\STM32F10x_StdPeriph_Driver\src\stm32f10x_can.c:264:    while (((CANx->MSR & CAN_MSR_INAK)
 379              		.loc 1 264 10 is_stmt 0 view .LVU103
 380 00ec 4FF48033 		mov	r3, #65536	@ ivtmp_63,
 381              	.LVL11:
 382              	.L23:
 383              		.loc 1 264 10 is_stmt 1 view .LVU104
 384              	@ .\stlib\STM32F10x_StdPeriph_Driver\src\stm32f10x_can.c:264:    while (((CANx->MSR & CAN_MSR_INAK)
 385              		.loc 1 264 17 is_stmt 0 view .LVU105
 386 00f0 4268     		ldr	r2, [r0, #4]	@ _60, CANx_76(D)->MSR
 387              	@ .\stlib\STM32F10x_StdPeriph_Driver\src\stm32f10x_can.c:264:    while (((CANx->MSR & CAN_MSR_INAK)
 388              		.loc 1 264 10 view .LVU106
 389 00f2 D207     		lsls	r2, r2, #31	@, _60,
 390 00f4 01D5     		bpl	.L22		@,
 391              	@ .\stlib\STM32F10x_StdPeriph_Driver\src\stm32f10x_can.c:264:    while (((CANx->MSR & CAN_MSR_INAK)
 392              		.loc 1 264 56 discriminator 1 view .LVU107
 393 00f6 013B     		subs	r3, r3, #1	@ ivtmp_63, ivtmp_63,
 394              	.LVL12:
 395              		.loc 1 264 56 discriminator 1 view .LVU108
 396 00f8 FAD1     		bne	.L23		@,
 397              	.LVL13:
 398              	.L22:
 265:.\stlib\STM32F10x_StdPeriph_Driver\src/stm32f10x_can.c ****    {
 266:.\stlib\STM32F10x_StdPeriph_Driver\src/stm32f10x_can.c ****      wait_ack++;
 267:.\stlib\STM32F10x_StdPeriph_Driver\src/stm32f10x_can.c ****    }
 268:.\stlib\STM32F10x_StdPeriph_Driver\src/stm32f10x_can.c **** 
 269:.\stlib\STM32F10x_StdPeriph_Driver\src/stm32f10x_can.c ****     /* ...and check acknowledged */
 270:.\stlib\STM32F10x_StdPeriph_Driver\src/stm32f10x_can.c ****     if ((CANx->MSR & CAN_MSR_INAK) == CAN_MSR_INAK)
 399              		.loc 1 270 5 is_stmt 1 view .LVU109
 400              	@ .\stlib\STM32F10x_StdPeriph_Driver\src\stm32f10x_can.c:270:     if ((CANx->MSR & CAN_MSR_INAK) ==
 401              		.loc 1 270 14 is_stmt 0 view .LVU110
 402 00fa 4068     		ldr	r0, [r0, #4]	@ _62, CANx_76(D)->MSR
ARM GAS  C:\Users\skey\AppData\Local\Temp\ccv9NfrL.s 			page 13


 403              	.LVL14:
 404              	@ .\stlib\STM32F10x_StdPeriph_Driver\src\stm32f10x_can.c:270:     if ((CANx->MSR & CAN_MSR_INAK) ==
 405              		.loc 1 270 8 view .LVU111
 406 00fc C043     		mvns	r0, r0	@ tmp201, _62
 407 00fe 00F00100 		and	r0, r0, #1	@ <retval>, tmp201,
 408 0102 7047     		bx	lr	@
 409              	.LVL15:
 410              	.L24:
 411              	@ .\stlib\STM32F10x_StdPeriph_Driver\src\stm32f10x_can.c:187:     InitStatus = CAN_InitStatus_Faile
 187:.\stlib\STM32F10x_StdPeriph_Driver\src/stm32f10x_can.c ****   }
 412              		.loc 1 187 16 view .LVU112
 413 0104 1846     		mov	r0, r3	@ <retval>, tmp180
 414              	.LVL16:
 271:.\stlib\STM32F10x_StdPeriph_Driver\src/stm32f10x_can.c ****     {
 272:.\stlib\STM32F10x_StdPeriph_Driver\src/stm32f10x_can.c ****       InitStatus = CAN_InitStatus_Failed;
 273:.\stlib\STM32F10x_StdPeriph_Driver\src/stm32f10x_can.c ****     }
 274:.\stlib\STM32F10x_StdPeriph_Driver\src/stm32f10x_can.c ****     else
 275:.\stlib\STM32F10x_StdPeriph_Driver\src/stm32f10x_can.c ****     {
 276:.\stlib\STM32F10x_StdPeriph_Driver\src/stm32f10x_can.c ****       InitStatus = CAN_InitStatus_Success ;
 277:.\stlib\STM32F10x_StdPeriph_Driver\src/stm32f10x_can.c ****     }
 278:.\stlib\STM32F10x_StdPeriph_Driver\src/stm32f10x_can.c ****   }
 279:.\stlib\STM32F10x_StdPeriph_Driver\src/stm32f10x_can.c **** 
 280:.\stlib\STM32F10x_StdPeriph_Driver\src/stm32f10x_can.c ****   /* At this step, return the status of initialization */
 281:.\stlib\STM32F10x_StdPeriph_Driver\src/stm32f10x_can.c ****   return InitStatus;
 415              		.loc 1 281 3 is_stmt 1 view .LVU113
 416              	@ .\stlib\STM32F10x_StdPeriph_Driver\src\stm32f10x_can.c:282: }
 282:.\stlib\STM32F10x_StdPeriph_Driver\src/stm32f10x_can.c **** }
 417              		.loc 1 282 1 is_stmt 0 view .LVU114
 418 0106 7047     		bx	lr	@
 419              		.cfi_endproc
 420              	.LFE30:
 421              		.size	CAN_Init, .-CAN_Init
 422              		.align	1
 423              		.global	CAN_FilterInit
 424              		.syntax unified
 425              		.thumb
 426              		.thumb_func
 427              		.fpu softvfp
 428              		.type	CAN_FilterInit, %function
 429              	CAN_FilterInit:
 430              	.LVL17:
 431              	.LFB31:
 283:.\stlib\STM32F10x_StdPeriph_Driver\src/stm32f10x_can.c **** 
 284:.\stlib\STM32F10x_StdPeriph_Driver\src/stm32f10x_can.c **** /**
 285:.\stlib\STM32F10x_StdPeriph_Driver\src/stm32f10x_can.c ****   * @brief  Initializes the CAN peripheral according to the specified
 286:.\stlib\STM32F10x_StdPeriph_Driver\src/stm32f10x_can.c ****   *         parameters in the CAN_FilterInitStruct.
 287:.\stlib\STM32F10x_StdPeriph_Driver\src/stm32f10x_can.c ****   * @param  CAN_FilterInitStruct: pointer to a CAN_FilterInitTypeDef
 288:.\stlib\STM32F10x_StdPeriph_Driver\src/stm32f10x_can.c ****   *                               structure that contains the configuration 
 289:.\stlib\STM32F10x_StdPeriph_Driver\src/stm32f10x_can.c ****   *                               information.
 290:.\stlib\STM32F10x_StdPeriph_Driver\src/stm32f10x_can.c ****   * @retval None.
 291:.\stlib\STM32F10x_StdPeriph_Driver\src/stm32f10x_can.c ****   */
 292:.\stlib\STM32F10x_StdPeriph_Driver\src/stm32f10x_can.c **** void CAN_FilterInit(CAN_FilterInitTypeDef* CAN_FilterInitStruct)
 293:.\stlib\STM32F10x_StdPeriph_Driver\src/stm32f10x_can.c **** {
 432              		.loc 1 293 1 is_stmt 1 view -0
 433              		.cfi_startproc
 434              		@ args = 0, pretend = 0, frame = 0
 435              		@ frame_needed = 0, uses_anonymous_args = 0
ARM GAS  C:\Users\skey\AppData\Local\Temp\ccv9NfrL.s 			page 14


 294:.\stlib\STM32F10x_StdPeriph_Driver\src/stm32f10x_can.c ****   uint32_t filter_number_bit_pos = 0;
 436              		.loc 1 294 3 view .LVU116
 295:.\stlib\STM32F10x_StdPeriph_Driver\src/stm32f10x_can.c ****   /* Check the parameters */
 296:.\stlib\STM32F10x_StdPeriph_Driver\src/stm32f10x_can.c ****   assert_param(IS_CAN_FILTER_NUMBER(CAN_FilterInitStruct->CAN_FilterNumber));
 437              		.loc 1 296 3 view .LVU117
 297:.\stlib\STM32F10x_StdPeriph_Driver\src/stm32f10x_can.c ****   assert_param(IS_CAN_FILTER_MODE(CAN_FilterInitStruct->CAN_FilterMode));
 438              		.loc 1 297 3 view .LVU118
 298:.\stlib\STM32F10x_StdPeriph_Driver\src/stm32f10x_can.c ****   assert_param(IS_CAN_FILTER_SCALE(CAN_FilterInitStruct->CAN_FilterScale));
 439              		.loc 1 298 3 view .LVU119
 299:.\stlib\STM32F10x_StdPeriph_Driver\src/stm32f10x_can.c ****   assert_param(IS_CAN_FILTER_FIFO(CAN_FilterInitStruct->CAN_FilterFIFOAssignment));
 440              		.loc 1 299 3 view .LVU120
 300:.\stlib\STM32F10x_StdPeriph_Driver\src/stm32f10x_can.c ****   assert_param(IS_FUNCTIONAL_STATE(CAN_FilterInitStruct->CAN_FilterActivation));
 441              		.loc 1 300 3 view .LVU121
 301:.\stlib\STM32F10x_StdPeriph_Driver\src/stm32f10x_can.c **** 
 302:.\stlib\STM32F10x_StdPeriph_Driver\src/stm32f10x_can.c ****   filter_number_bit_pos = ((uint32_t)1) << CAN_FilterInitStruct->CAN_FilterNumber;
 442              		.loc 1 302 3 view .LVU122
 443              	@ .\stlib\STM32F10x_StdPeriph_Driver\src\stm32f10x_can.c:302:   filter_number_bit_pos = ((uint32_t)
 444              		.loc 1 302 25 is_stmt 0 view .LVU123
 445 0108 0121     		movs	r1, #1	@ tmp169,
 446              	@ .\stlib\STM32F10x_StdPeriph_Driver\src\stm32f10x_can.c:305:   CAN1->FMR |= FMR_FINIT;
 303:.\stlib\STM32F10x_StdPeriph_Driver\src/stm32f10x_can.c **** 
 304:.\stlib\STM32F10x_StdPeriph_Driver\src/stm32f10x_can.c ****   /* Initialisation mode for the filter */
 305:.\stlib\STM32F10x_StdPeriph_Driver\src/stm32f10x_can.c ****   CAN1->FMR |= FMR_FINIT;
 447              		.loc 1 305 13 view .LVU124
 448 010a 354A     		ldr	r2, .L46	@ tmp170,
 449              	@ .\stlib\STM32F10x_StdPeriph_Driver\src\stm32f10x_can.c:293: {
 293:.\stlib\STM32F10x_StdPeriph_Driver\src/stm32f10x_can.c ****   uint32_t filter_number_bit_pos = 0;
 450              		.loc 1 293 1 view .LVU125
 451 010c 30B5     		push	{r4, r5, lr}	@
 452              	.LCFI3:
 453              		.cfi_def_cfa_offset 12
 454              		.cfi_offset 4, -12
 455              		.cfi_offset 5, -8
 456              		.cfi_offset 14, -4
 457              	@ .\stlib\STM32F10x_StdPeriph_Driver\src\stm32f10x_can.c:305:   CAN1->FMR |= FMR_FINIT;
 458              		.loc 1 305 13 view .LVU126
 459 010e D2F80042 		ldr	r4, [r2, #512]	@ _3, MEM[(struct CAN_TypeDef *)1073767424B].FMR
 460              	@ .\stlib\STM32F10x_StdPeriph_Driver\src\stm32f10x_can.c:302:   filter_number_bit_pos = ((uint32_t)
 302:.\stlib\STM32F10x_StdPeriph_Driver\src/stm32f10x_can.c **** 
 461              		.loc 1 302 64 view .LVU127
 462 0112 837A     		ldrb	r3, [r0, #10]	@ zero_extendqisi2	@ _1, CAN_FilterInitStruct_59(D)->CAN_FilterNumber
 463              	@ .\stlib\STM32F10x_StdPeriph_Driver\src\stm32f10x_can.c:305:   CAN1->FMR |= FMR_FINIT;
 464              		.loc 1 305 13 view .LVU128
 465 0114 44F00104 		orr	r4, r4, #1	@ _4, _3,
 466 0118 C2F80042 		str	r4, [r2, #512]	@ _4, MEM[(struct CAN_TypeDef *)1073767424B].FMR
 467              	@ .\stlib\STM32F10x_StdPeriph_Driver\src\stm32f10x_can.c:308:   CAN1->FA1R &= ~(uint32_t)filter_num
 306:.\stlib\STM32F10x_StdPeriph_Driver\src/stm32f10x_can.c **** 
 307:.\stlib\STM32F10x_StdPeriph_Driver\src/stm32f10x_can.c ****   /* Filter Deactivation */
 308:.\stlib\STM32F10x_StdPeriph_Driver\src/stm32f10x_can.c ****   CAN1->FA1R &= ~(uint32_t)filter_number_bit_pos;
 468              		.loc 1 308 14 view .LVU129
 469 011c D2F81C52 		ldr	r5, [r2, #540]	@ _5, MEM[(struct CAN_TypeDef *)1073767424B].FA1R
 470              	@ .\stlib\STM32F10x_StdPeriph_Driver\src\stm32f10x_can.c:302:   filter_number_bit_pos = ((uint32_t)
 302:.\stlib\STM32F10x_StdPeriph_Driver\src/stm32f10x_can.c **** 
 471              		.loc 1 302 25 view .LVU130
 472 0120 9940     		lsls	r1, r1, r3	@ filter_number_bit_pos, tmp169, _1
 473              	.LVL18:
 305:.\stlib\STM32F10x_StdPeriph_Driver\src/stm32f10x_can.c **** 
ARM GAS  C:\Users\skey\AppData\Local\Temp\ccv9NfrL.s 			page 15


 474              		.loc 1 305 3 is_stmt 1 view .LVU131
 475              		.loc 1 308 3 view .LVU132
 476              	@ .\stlib\STM32F10x_StdPeriph_Driver\src\stm32f10x_can.c:308:   CAN1->FA1R &= ~(uint32_t)filter_num
 477              		.loc 1 308 14 is_stmt 0 view .LVU133
 478 0122 25EA0105 		bic	r5, r5, r1	@ _7, _5, filter_number_bit_pos
 479 0126 C2F81C52 		str	r5, [r2, #540]	@ _7, MEM[(struct CAN_TypeDef *)1073767424B].FA1R
 309:.\stlib\STM32F10x_StdPeriph_Driver\src/stm32f10x_can.c **** 
 310:.\stlib\STM32F10x_StdPeriph_Driver\src/stm32f10x_can.c ****   /* Filter Scale */
 311:.\stlib\STM32F10x_StdPeriph_Driver\src/stm32f10x_can.c ****   if (CAN_FilterInitStruct->CAN_FilterScale == CAN_FilterScale_16bit)
 480              		.loc 1 311 3 is_stmt 1 view .LVU134
 481              	@ .\stlib\STM32F10x_StdPeriph_Driver\src\stm32f10x_can.c:311:   if (CAN_FilterInitStruct->CAN_Filte
 482              		.loc 1 311 27 is_stmt 0 view .LVU135
 483 012a 057B     		ldrb	r5, [r0, #12]	@ zero_extendqisi2	@ _8, CAN_FilterInitStruct_59(D)->CAN_FilterScale
 484              	@ .\stlib\STM32F10x_StdPeriph_Driver\src\stm32f10x_can.c:308:   CAN1->FA1R &= ~(uint32_t)filter_num
 308:.\stlib\STM32F10x_StdPeriph_Driver\src/stm32f10x_can.c **** 
 485              		.loc 1 308 17 view .LVU136
 486 012c CC43     		mvns	r4, r1	@ _6, filter_number_bit_pos
 487              	@ .\stlib\STM32F10x_StdPeriph_Driver\src\stm32f10x_can.c:311:   if (CAN_FilterInitStruct->CAN_Filte
 488              		.loc 1 311 6 view .LVU137
 489 012e 002D     		cmp	r5, #0	@ _8
 490 0130 34D1     		bne	.L37	@
 312:.\stlib\STM32F10x_StdPeriph_Driver\src/stm32f10x_can.c ****   {
 313:.\stlib\STM32F10x_StdPeriph_Driver\src/stm32f10x_can.c ****     /* 16-bit scale for the filter */
 314:.\stlib\STM32F10x_StdPeriph_Driver\src/stm32f10x_can.c ****     CAN1->FS1R &= ~(uint32_t)filter_number_bit_pos;
 491              		.loc 1 314 5 is_stmt 1 view .LVU138
 492              	@ .\stlib\STM32F10x_StdPeriph_Driver\src\stm32f10x_can.c:314:     CAN1->FS1R &= ~(uint32_t)filter_n
 493              		.loc 1 314 16 is_stmt 0 view .LVU139
 494 0132 D2F80C52 		ldr	r5, [r2, #524]	@ _9, MEM[(struct CAN_TypeDef *)1073767424B].FS1R
 495 0136 DB00     		lsls	r3, r3, #3	@ tmp179, _1,
 496 0138 2540     		ands	r5, r5, r4	@, _10, _9, _6
 497 013a C2F80C52 		str	r5, [r2, #524]	@ _10, MEM[(struct CAN_TypeDef *)1073767424B].FS1R
 315:.\stlib\STM32F10x_StdPeriph_Driver\src/stm32f10x_can.c **** 
 316:.\stlib\STM32F10x_StdPeriph_Driver\src/stm32f10x_can.c ****     /* First 16-bit identifier and First 16-bit mask */
 317:.\stlib\STM32F10x_StdPeriph_Driver\src/stm32f10x_can.c ****     /* Or First 16-bit identifier and Second 16-bit identifier */
 318:.\stlib\STM32F10x_StdPeriph_Driver\src/stm32f10x_can.c ****     CAN1->sFilterRegister[CAN_FilterInitStruct->CAN_FilterNumber].FR1 = 
 498              		.loc 1 318 5 is_stmt 1 view .LVU140
 499              	@ .\stlib\STM32F10x_StdPeriph_Driver\src\stm32f10x_can.c:319:     ((0x0000FFFF & (uint32_t)CAN_Filt
 319:.\stlib\STM32F10x_StdPeriph_Driver\src/stm32f10x_can.c ****     ((0x0000FFFF & (uint32_t)CAN_FilterInitStruct->CAN_FilterMaskIdLow) << 16) |
 500              		.loc 1 319 18 is_stmt 0 view .LVU141
 501 013e C588     		ldrh	r5, [r0, #6]	@ CAN_FilterInitStruct_59(D)->CAN_FilterMaskIdLow, CAN_FilterInitStruct_59(D)->C
 502              	@ .\stlib\STM32F10x_StdPeriph_Driver\src\stm32f10x_can.c:320:         (0x0000FFFF & (uint32_t)CAN_F
 320:.\stlib\STM32F10x_StdPeriph_Driver\src/stm32f10x_can.c ****         (0x0000FFFF & (uint32_t)CAN_FilterInitStruct->CAN_FilterIdLow);
 503              		.loc 1 320 21 view .LVU142
 504 0140 4288     		ldrh	r2, [r0, #2]	@ CAN_FilterInitStruct_59(D)->CAN_FilterIdLow, CAN_FilterInitStruct_59(D)->CAN_F
 505 0142 03F18043 		add	r3, r3, #1073741824	@ _75, tmp179,
 506              	@ .\stlib\STM32F10x_StdPeriph_Driver\src\stm32f10x_can.c:319:     ((0x0000FFFF & (uint32_t)CAN_Filt
 319:.\stlib\STM32F10x_StdPeriph_Driver\src/stm32f10x_can.c ****     ((0x0000FFFF & (uint32_t)CAN_FilterInitStruct->CAN_FilterMaskIdLow) << 16) |
 507              		.loc 1 319 80 view .LVU143
 508 0146 42EA0542 		orr	r2, r2, r5, lsl #16	@ _16, CAN_FilterInitStruct_59(D)->CAN_FilterIdLow, CAN_FilterInitStruct_5
 509 014a 03F5C843 		add	r3, r3, #25600	@ _75, _75,
 510              	@ .\stlib\STM32F10x_StdPeriph_Driver\src\stm32f10x_can.c:318:     CAN1->sFilterRegister[CAN_FilterI
 318:.\stlib\STM32F10x_StdPeriph_Driver\src/stm32f10x_can.c ****     ((0x0000FFFF & (uint32_t)CAN_FilterInitStruct->CAN_FilterMaskIdLow) << 16) |
 511              		.loc 1 318 71 view .LVU144
 512 014e C3F84022 		str	r2, [r3, #576]	@ _16, MEM[(struct CAN_TypeDef *)_75 + 576B]
 321:.\stlib\STM32F10x_StdPeriph_Driver\src/stm32f10x_can.c **** 
 322:.\stlib\STM32F10x_StdPeriph_Driver\src/stm32f10x_can.c ****     /* Second 16-bit identifier and Second 16-bit mask */
 323:.\stlib\STM32F10x_StdPeriph_Driver\src/stm32f10x_can.c ****     /* Or Third 16-bit identifier and Fourth 16-bit identifier */
ARM GAS  C:\Users\skey\AppData\Local\Temp\ccv9NfrL.s 			page 16


 324:.\stlib\STM32F10x_StdPeriph_Driver\src/stm32f10x_can.c ****     CAN1->sFilterRegister[CAN_FilterInitStruct->CAN_FilterNumber].FR2 = 
 513              		.loc 1 324 5 is_stmt 1 view .LVU145
 514              	@ .\stlib\STM32F10x_StdPeriph_Driver\src\stm32f10x_can.c:325:     ((0x0000FFFF & (uint32_t)CAN_Filt
 325:.\stlib\STM32F10x_StdPeriph_Driver\src/stm32f10x_can.c ****     ((0x0000FFFF & (uint32_t)CAN_FilterInitStruct->CAN_FilterMaskIdHigh) << 16) |
 515              		.loc 1 325 18 is_stmt 0 view .LVU146
 516 0152 8588     		ldrh	r5, [r0, #4]	@ CAN_FilterInitStruct_59(D)->CAN_FilterMaskIdHigh, CAN_FilterInitStruct_59(D)->
 517              	@ .\stlib\STM32F10x_StdPeriph_Driver\src\stm32f10x_can.c:326:         (0x0000FFFF & (uint32_t)CAN_F
 326:.\stlib\STM32F10x_StdPeriph_Driver\src/stm32f10x_can.c ****         (0x0000FFFF & (uint32_t)CAN_FilterInitStruct->CAN_FilterIdHigh);
 518              		.loc 1 326 21 view .LVU147
 519 0154 0288     		ldrh	r2, [r0]	@ CAN_FilterInitStruct_59(D)->CAN_FilterIdHigh, CAN_FilterInitStruct_59(D)->CAN_Filt
 520              	.L44:
 521              	@ .\stlib\STM32F10x_StdPeriph_Driver\src\stm32f10x_can.c:339:     ((0x0000FFFF & (uint32_t)CAN_Filt
 327:.\stlib\STM32F10x_StdPeriph_Driver\src/stm32f10x_can.c ****   }
 328:.\stlib\STM32F10x_StdPeriph_Driver\src/stm32f10x_can.c **** 
 329:.\stlib\STM32F10x_StdPeriph_Driver\src/stm32f10x_can.c ****   if (CAN_FilterInitStruct->CAN_FilterScale == CAN_FilterScale_32bit)
 330:.\stlib\STM32F10x_StdPeriph_Driver\src/stm32f10x_can.c ****   {
 331:.\stlib\STM32F10x_StdPeriph_Driver\src/stm32f10x_can.c ****     /* 32-bit scale for the filter */
 332:.\stlib\STM32F10x_StdPeriph_Driver\src/stm32f10x_can.c ****     CAN1->FS1R |= filter_number_bit_pos;
 333:.\stlib\STM32F10x_StdPeriph_Driver\src/stm32f10x_can.c ****     /* 32-bit identifier or First 32-bit identifier */
 334:.\stlib\STM32F10x_StdPeriph_Driver\src/stm32f10x_can.c ****     CAN1->sFilterRegister[CAN_FilterInitStruct->CAN_FilterNumber].FR1 = 
 335:.\stlib\STM32F10x_StdPeriph_Driver\src/stm32f10x_can.c ****     ((0x0000FFFF & (uint32_t)CAN_FilterInitStruct->CAN_FilterIdHigh) << 16) |
 336:.\stlib\STM32F10x_StdPeriph_Driver\src/stm32f10x_can.c ****         (0x0000FFFF & (uint32_t)CAN_FilterInitStruct->CAN_FilterIdLow);
 337:.\stlib\STM32F10x_StdPeriph_Driver\src/stm32f10x_can.c ****     /* 32-bit mask or Second 32-bit identifier */
 338:.\stlib\STM32F10x_StdPeriph_Driver\src/stm32f10x_can.c ****     CAN1->sFilterRegister[CAN_FilterInitStruct->CAN_FilterNumber].FR2 = 
 339:.\stlib\STM32F10x_StdPeriph_Driver\src/stm32f10x_can.c ****     ((0x0000FFFF & (uint32_t)CAN_FilterInitStruct->CAN_FilterMaskIdHigh) << 16) |
 522              		.loc 1 339 81 view .LVU148
 523 0156 42EA0542 		orr	r2, r2, r5, lsl #16	@ _36, CAN_FilterInitStruct_59(D)->CAN_FilterMaskIdLow, CAN_FilterInitStru
 524              	@ .\stlib\STM32F10x_StdPeriph_Driver\src\stm32f10x_can.c:338:     CAN1->sFilterRegister[CAN_FilterI
 338:.\stlib\STM32F10x_StdPeriph_Driver\src/stm32f10x_can.c ****     ((0x0000FFFF & (uint32_t)CAN_FilterInitStruct->CAN_FilterMaskIdHigh) << 16) |
 525              		.loc 1 338 71 view .LVU149
 526 015a C3F84422 		str	r2, [r3, #580]	@ _36,
 527              	.L38:
 340:.\stlib\STM32F10x_StdPeriph_Driver\src/stm32f10x_can.c ****         (0x0000FFFF & (uint32_t)CAN_FilterInitStruct->CAN_FilterMaskIdLow);
 341:.\stlib\STM32F10x_StdPeriph_Driver\src/stm32f10x_can.c ****   }
 342:.\stlib\STM32F10x_StdPeriph_Driver\src/stm32f10x_can.c **** 
 343:.\stlib\STM32F10x_StdPeriph_Driver\src/stm32f10x_can.c ****   /* Filter Mode */
 344:.\stlib\STM32F10x_StdPeriph_Driver\src/stm32f10x_can.c ****   if (CAN_FilterInitStruct->CAN_FilterMode == CAN_FilterMode_IdMask)
 528              		.loc 1 344 3 is_stmt 1 view .LVU150
 529              	@ .\stlib\STM32F10x_StdPeriph_Driver\src\stm32f10x_can.c:344:   if (CAN_FilterInitStruct->CAN_Filte
 530              		.loc 1 344 6 is_stmt 0 view .LVU151
 531 015e C27A     		ldrb	r2, [r0, #11]	@ zero_extendqisi2	@ CAN_FilterInitStruct_59(D)->CAN_FilterMode, CAN_FilterInit
 532 0160 1F4B     		ldr	r3, .L46	@ tmp208,
 533 0162 82BB     		cbnz	r2, .L39	@ CAN_FilterInitStruct_59(D)->CAN_FilterMode,
 345:.\stlib\STM32F10x_StdPeriph_Driver\src/stm32f10x_can.c ****   {
 346:.\stlib\STM32F10x_StdPeriph_Driver\src/stm32f10x_can.c ****     /*Id/Mask mode for the filter*/
 347:.\stlib\STM32F10x_StdPeriph_Driver\src/stm32f10x_can.c ****     CAN1->FM1R &= ~(uint32_t)filter_number_bit_pos;
 534              		.loc 1 347 5 is_stmt 1 view .LVU152
 535              	@ .\stlib\STM32F10x_StdPeriph_Driver\src\stm32f10x_can.c:347:     CAN1->FM1R &= ~(uint32_t)filter_n
 536              		.loc 1 347 16 is_stmt 0 view .LVU153
 537 0164 D3F80422 		ldr	r2, [r3, #516]	@ _38,
 538 0168 2240     		ands	r2, r2, r4	@, _39, _38, _6
 539              	.L45:
 540              	@ .\stlib\STM32F10x_StdPeriph_Driver\src\stm32f10x_can.c:352:     CAN1->FM1R |= (uint32_t)filter_nu
 348:.\stlib\STM32F10x_StdPeriph_Driver\src/stm32f10x_can.c ****   }
 349:.\stlib\STM32F10x_StdPeriph_Driver\src/stm32f10x_can.c ****   else /* CAN_FilterInitStruct->CAN_FilterMode == CAN_FilterMode_IdList */
 350:.\stlib\STM32F10x_StdPeriph_Driver\src/stm32f10x_can.c ****   {
 351:.\stlib\STM32F10x_StdPeriph_Driver\src/stm32f10x_can.c ****     /*Identifier list mode for the filter*/
ARM GAS  C:\Users\skey\AppData\Local\Temp\ccv9NfrL.s 			page 17


 352:.\stlib\STM32F10x_StdPeriph_Driver\src/stm32f10x_can.c ****     CAN1->FM1R |= (uint32_t)filter_number_bit_pos;
 541              		.loc 1 352 16 view .LVU154
 542 016a C3F80422 		str	r2, [r3, #516]	@ _41,
 353:.\stlib\STM32F10x_StdPeriph_Driver\src/stm32f10x_can.c ****   }
 354:.\stlib\STM32F10x_StdPeriph_Driver\src/stm32f10x_can.c **** 
 355:.\stlib\STM32F10x_StdPeriph_Driver\src/stm32f10x_can.c ****   /* Filter FIFO assignment */
 356:.\stlib\STM32F10x_StdPeriph_Driver\src/stm32f10x_can.c ****   if (CAN_FilterInitStruct->CAN_FilterFIFOAssignment == CAN_Filter_FIFO0)
 543              		.loc 1 356 3 is_stmt 1 view .LVU155
 544              	@ .\stlib\STM32F10x_StdPeriph_Driver\src\stm32f10x_can.c:356:   if (CAN_FilterInitStruct->CAN_Filte
 545              		.loc 1 356 27 is_stmt 0 view .LVU156
 546 016e 0289     		ldrh	r2, [r0, #8]	@ _42, CAN_FilterInitStruct_59(D)->CAN_FilterFIFOAssignment
 547              	@ .\stlib\STM32F10x_StdPeriph_Driver\src\stm32f10x_can.c:356:   if (CAN_FilterInitStruct->CAN_Filte
 548              		.loc 1 356 6 view .LVU157
 549 0170 6ABB     		cbnz	r2, .L41	@ _42,
 357:.\stlib\STM32F10x_StdPeriph_Driver\src/stm32f10x_can.c ****   {
 358:.\stlib\STM32F10x_StdPeriph_Driver\src/stm32f10x_can.c ****     /* FIFO 0 assignation for the filter */
 359:.\stlib\STM32F10x_StdPeriph_Driver\src/stm32f10x_can.c ****     CAN1->FFA1R &= ~(uint32_t)filter_number_bit_pos;
 550              		.loc 1 359 5 is_stmt 1 view .LVU158
 551              	@ .\stlib\STM32F10x_StdPeriph_Driver\src\stm32f10x_can.c:359:     CAN1->FFA1R &= ~(uint32_t)filter_
 552              		.loc 1 359 17 is_stmt 0 view .LVU159
 553 0172 D3F81422 		ldr	r2, [r3, #532]	@ _43, MEM[(struct CAN_TypeDef *)1073767424B].FFA1R
 554 0176 1440     		ands	r4, r4, r2	@, _44, _6, _43
 555 0178 C3F81442 		str	r4, [r3, #532]	@ _44, MEM[(struct CAN_TypeDef *)1073767424B].FFA1R
 360:.\stlib\STM32F10x_StdPeriph_Driver\src/stm32f10x_can.c ****   }
 361:.\stlib\STM32F10x_StdPeriph_Driver\src/stm32f10x_can.c **** 
 362:.\stlib\STM32F10x_StdPeriph_Driver\src/stm32f10x_can.c ****   if (CAN_FilterInitStruct->CAN_FilterFIFOAssignment == CAN_Filter_FIFO1)
 556              		.loc 1 362 3 is_stmt 1 view .LVU160
 557              	.L42:
 363:.\stlib\STM32F10x_StdPeriph_Driver\src/stm32f10x_can.c ****   {
 364:.\stlib\STM32F10x_StdPeriph_Driver\src/stm32f10x_can.c ****     /* FIFO 1 assignation for the filter */
 365:.\stlib\STM32F10x_StdPeriph_Driver\src/stm32f10x_can.c ****     CAN1->FFA1R |= (uint32_t)filter_number_bit_pos;
 366:.\stlib\STM32F10x_StdPeriph_Driver\src/stm32f10x_can.c ****   }
 367:.\stlib\STM32F10x_StdPeriph_Driver\src/stm32f10x_can.c ****   
 368:.\stlib\STM32F10x_StdPeriph_Driver\src/stm32f10x_can.c ****   /* Filter activation */
 369:.\stlib\STM32F10x_StdPeriph_Driver\src/stm32f10x_can.c ****   if (CAN_FilterInitStruct->CAN_FilterActivation == ENABLE)
 558              		.loc 1 369 3 view .LVU161
 559              	@ .\stlib\STM32F10x_StdPeriph_Driver\src\stm32f10x_can.c:369:   if (CAN_FilterInitStruct->CAN_Filte
 560              		.loc 1 369 6 is_stmt 0 view .LVU162
 561 017c 437B     		ldrb	r3, [r0, #13]	@ zero_extendqisi2	@ CAN_FilterInitStruct_59(D)->CAN_FilterActivation, CAN_Filt
 562 017e 012B     		cmp	r3, #1	@ CAN_FilterInitStruct_59(D)->CAN_FilterActivation,
 563 0180 174B     		ldr	r3, .L46	@ tmp209,
 370:.\stlib\STM32F10x_StdPeriph_Driver\src/stm32f10x_can.c ****   {
 371:.\stlib\STM32F10x_StdPeriph_Driver\src/stm32f10x_can.c ****     CAN1->FA1R |= filter_number_bit_pos;
 564              		.loc 1 371 5 is_stmt 1 view .LVU163
 565              	@ .\stlib\STM32F10x_StdPeriph_Driver\src\stm32f10x_can.c:371:     CAN1->FA1R |= filter_number_bit_p
 566              		.loc 1 371 16 is_stmt 0 view .LVU164
 567 0182 02BF     		ittt	eq
 568 0184 D3F81C22 		ldreq	r2, [r3, #540]	@ _48, MEM[(struct CAN_TypeDef *)1073767424B].FA1R
 569 0188 1143     		orreq	r1, r1, r2	@ _49, filter_number_bit_pos, _48
 570              	.LVL19:
 571              		.loc 1 371 16 view .LVU165
 572 018a C3F81C12 		streq	r1, [r3, #540]	@ _49, MEM[(struct CAN_TypeDef *)1073767424B].FA1R
 372:.\stlib\STM32F10x_StdPeriph_Driver\src/stm32f10x_can.c ****   }
 373:.\stlib\STM32F10x_StdPeriph_Driver\src/stm32f10x_can.c **** 
 374:.\stlib\STM32F10x_StdPeriph_Driver\src/stm32f10x_can.c ****   /* Leave the initialisation mode for the filter */
 375:.\stlib\STM32F10x_StdPeriph_Driver\src/stm32f10x_can.c ****   CAN1->FMR &= ~FMR_FINIT;
 573              		.loc 1 375 3 is_stmt 1 view .LVU166
ARM GAS  C:\Users\skey\AppData\Local\Temp\ccv9NfrL.s 			page 18


 574              	@ .\stlib\STM32F10x_StdPeriph_Driver\src\stm32f10x_can.c:375:   CAN1->FMR &= ~FMR_FINIT;
 575              		.loc 1 375 13 is_stmt 0 view .LVU167
 576 018e D3F80022 		ldr	r2, [r3, #512]	@ _50, MEM[(struct CAN_TypeDef *)1073767424B].FMR
 577 0192 22F00102 		bic	r2, r2, #1	@ _51, _50,
 578 0196 C3F80022 		str	r2, [r3, #512]	@ _51, MEM[(struct CAN_TypeDef *)1073767424B].FMR
 579              	@ .\stlib\STM32F10x_StdPeriph_Driver\src\stm32f10x_can.c:376: }
 376:.\stlib\STM32F10x_StdPeriph_Driver\src/stm32f10x_can.c **** }
 580              		.loc 1 376 1 view .LVU168
 581 019a 30BD     		pop	{r4, r5, pc}	@
 582              	.LVL20:
 583              	.L37:
 329:.\stlib\STM32F10x_StdPeriph_Driver\src/stm32f10x_can.c ****   {
 584              		.loc 1 329 3 is_stmt 1 view .LVU169
 585              	@ .\stlib\STM32F10x_StdPeriph_Driver\src\stm32f10x_can.c:329:   if (CAN_FilterInitStruct->CAN_Filte
 329:.\stlib\STM32F10x_StdPeriph_Driver\src/stm32f10x_can.c ****   {
 586              		.loc 1 329 6 is_stmt 0 view .LVU170
 587 019c 012D     		cmp	r5, #1	@ _8,
 588 019e DED1     		bne	.L38		@,
 332:.\stlib\STM32F10x_StdPeriph_Driver\src/stm32f10x_can.c ****     /* 32-bit identifier or First 32-bit identifier */
 589              		.loc 1 332 5 is_stmt 1 view .LVU171
 590              	@ .\stlib\STM32F10x_StdPeriph_Driver\src\stm32f10x_can.c:332:     CAN1->FS1R |= filter_number_bit_p
 332:.\stlib\STM32F10x_StdPeriph_Driver\src/stm32f10x_can.c ****     /* 32-bit identifier or First 32-bit identifier */
 591              		.loc 1 332 16 is_stmt 0 view .LVU172
 592 01a0 D2F80C52 		ldr	r5, [r2, #524]	@ _23, MEM[(struct CAN_TypeDef *)1073767424B].FS1R
 593 01a4 DB00     		lsls	r3, r3, #3	@ tmp189, _1,
 594 01a6 0D43     		orrs	r5, r5, r1	@, _24, _23, filter_number_bit_pos
 595 01a8 C2F80C52 		str	r5, [r2, #524]	@ _24, MEM[(struct CAN_TypeDef *)1073767424B].FS1R
 334:.\stlib\STM32F10x_StdPeriph_Driver\src/stm32f10x_can.c ****     ((0x0000FFFF & (uint32_t)CAN_FilterInitStruct->CAN_FilterIdHigh) << 16) |
 596              		.loc 1 334 5 is_stmt 1 view .LVU173
 597              	@ .\stlib\STM32F10x_StdPeriph_Driver\src\stm32f10x_can.c:335:     ((0x0000FFFF & (uint32_t)CAN_Filt
 335:.\stlib\STM32F10x_StdPeriph_Driver\src/stm32f10x_can.c ****         (0x0000FFFF & (uint32_t)CAN_FilterInitStruct->CAN_FilterIdLow);
 598              		.loc 1 335 18 is_stmt 0 view .LVU174
 599 01ac 0588     		ldrh	r5, [r0]	@ CAN_FilterInitStruct_59(D)->CAN_FilterIdHigh, CAN_FilterInitStruct_59(D)->CAN_Filt
 600              	@ .\stlib\STM32F10x_StdPeriph_Driver\src\stm32f10x_can.c:336:         (0x0000FFFF & (uint32_t)CAN_F
 336:.\stlib\STM32F10x_StdPeriph_Driver\src/stm32f10x_can.c ****     /* 32-bit mask or Second 32-bit identifier */
 601              		.loc 1 336 21 view .LVU175
 602 01ae 4288     		ldrh	r2, [r0, #2]	@ CAN_FilterInitStruct_59(D)->CAN_FilterIdLow, CAN_FilterInitStruct_59(D)->CAN_F
 603 01b0 03F18043 		add	r3, r3, #1073741824	@ _82, tmp189,
 604              	@ .\stlib\STM32F10x_StdPeriph_Driver\src\stm32f10x_can.c:335:     ((0x0000FFFF & (uint32_t)CAN_Filt
 335:.\stlib\STM32F10x_StdPeriph_Driver\src/stm32f10x_can.c ****         (0x0000FFFF & (uint32_t)CAN_FilterInitStruct->CAN_FilterIdLow);
 605              		.loc 1 335 77 view .LVU176
 606 01b4 42EA0542 		orr	r2, r2, r5, lsl #16	@ _30, CAN_FilterInitStruct_59(D)->CAN_FilterIdLow, CAN_FilterInitStruct_5
 607 01b8 03F5C843 		add	r3, r3, #25600	@ _82, _82,
 608              	@ .\stlib\STM32F10x_StdPeriph_Driver\src\stm32f10x_can.c:334:     CAN1->sFilterRegister[CAN_FilterI
 334:.\stlib\STM32F10x_StdPeriph_Driver\src/stm32f10x_can.c ****     ((0x0000FFFF & (uint32_t)CAN_FilterInitStruct->CAN_FilterIdHigh) << 16) |
 609              		.loc 1 334 71 view .LVU177
 610 01bc C3F84022 		str	r2, [r3, #576]	@ _30, MEM[(struct CAN_TypeDef *)_82 + 576B]
 338:.\stlib\STM32F10x_StdPeriph_Driver\src/stm32f10x_can.c ****     ((0x0000FFFF & (uint32_t)CAN_FilterInitStruct->CAN_FilterMaskIdHigh) << 16) |
 611              		.loc 1 338 5 is_stmt 1 view .LVU178
 612              	@ .\stlib\STM32F10x_StdPeriph_Driver\src\stm32f10x_can.c:339:     ((0x0000FFFF & (uint32_t)CAN_Filt
 339:.\stlib\STM32F10x_StdPeriph_Driver\src/stm32f10x_can.c ****         (0x0000FFFF & (uint32_t)CAN_FilterInitStruct->CAN_FilterMaskIdLow);
 613              		.loc 1 339 18 is_stmt 0 view .LVU179
 614 01c0 8588     		ldrh	r5, [r0, #4]	@ CAN_FilterInitStruct_59(D)->CAN_FilterMaskIdHigh, CAN_FilterInitStruct_59(D)->
 615              	@ .\stlib\STM32F10x_StdPeriph_Driver\src\stm32f10x_can.c:340:         (0x0000FFFF & (uint32_t)CAN_F
 340:.\stlib\STM32F10x_StdPeriph_Driver\src/stm32f10x_can.c ****   }
 616              		.loc 1 340 21 view .LVU180
 617 01c2 C288     		ldrh	r2, [r0, #6]	@ CAN_FilterInitStruct_59(D)->CAN_FilterMaskIdLow, CAN_FilterInitStruct_59(D)->C
ARM GAS  C:\Users\skey\AppData\Local\Temp\ccv9NfrL.s 			page 19


 618 01c4 C7E7     		b	.L44		@
 619              	.L39:
 352:.\stlib\STM32F10x_StdPeriph_Driver\src/stm32f10x_can.c ****   }
 620              		.loc 1 352 5 is_stmt 1 view .LVU181
 621              	@ .\stlib\STM32F10x_StdPeriph_Driver\src\stm32f10x_can.c:352:     CAN1->FM1R |= (uint32_t)filter_nu
 352:.\stlib\STM32F10x_StdPeriph_Driver\src/stm32f10x_can.c ****   }
 622              		.loc 1 352 16 is_stmt 0 view .LVU182
 623 01c6 D3F80422 		ldr	r2, [r3, #516]	@ _40,
 624 01ca 0A43     		orrs	r2, r2, r1	@, _41, _40, filter_number_bit_pos
 625 01cc CDE7     		b	.L45		@
 626              	.L41:
 362:.\stlib\STM32F10x_StdPeriph_Driver\src/stm32f10x_can.c ****   {
 627              		.loc 1 362 3 is_stmt 1 view .LVU183
 628              	@ .\stlib\STM32F10x_StdPeriph_Driver\src\stm32f10x_can.c:362:   if (CAN_FilterInitStruct->CAN_Filte
 362:.\stlib\STM32F10x_StdPeriph_Driver\src/stm32f10x_can.c ****   {
 629              		.loc 1 362 6 is_stmt 0 view .LVU184
 630 01ce 012A     		cmp	r2, #1	@ _42,
 365:.\stlib\STM32F10x_StdPeriph_Driver\src/stm32f10x_can.c ****   }
 631              		.loc 1 365 5 is_stmt 1 view .LVU185
 632              	@ .\stlib\STM32F10x_StdPeriph_Driver\src\stm32f10x_can.c:365:     CAN1->FFA1R |= (uint32_t)filter_n
 365:.\stlib\STM32F10x_StdPeriph_Driver\src/stm32f10x_can.c ****   }
 633              		.loc 1 365 17 is_stmt 0 view .LVU186
 634 01d0 01BF     		itttt	eq
 635 01d2 034A     		ldreq	r2, .L46	@ tmp201,
 636 01d4 D2F81432 		ldreq	r3, [r2, #532]	@ _45, MEM[(struct CAN_TypeDef *)1073767424B].FFA1R
 637 01d8 0B43     		orreq	r3, r3, r1	@ _46, _45, filter_number_bit_pos
 638 01da C2F81432 		streq	r3, [r2, #532]	@ _46, MEM[(struct CAN_TypeDef *)1073767424B].FFA1R
 639 01de CDE7     		b	.L42		@
 640              	.L47:
 641              		.align	2
 642              	.L46:
 643 01e0 00640040 		.word	1073767424
 644              		.cfi_endproc
 645              	.LFE31:
 646              		.size	CAN_FilterInit, .-CAN_FilterInit
 647              		.align	1
 648              		.global	CAN_StructInit
 649              		.syntax unified
 650              		.thumb
 651              		.thumb_func
 652              		.fpu softvfp
 653              		.type	CAN_StructInit, %function
 654              	CAN_StructInit:
 655              	.LVL21:
 656              	.LFB32:
 377:.\stlib\STM32F10x_StdPeriph_Driver\src/stm32f10x_can.c **** 
 378:.\stlib\STM32F10x_StdPeriph_Driver\src/stm32f10x_can.c **** /**
 379:.\stlib\STM32F10x_StdPeriph_Driver\src/stm32f10x_can.c ****   * @brief  Fills each CAN_InitStruct member with its default value.
 380:.\stlib\STM32F10x_StdPeriph_Driver\src/stm32f10x_can.c ****   * @param  CAN_InitStruct: pointer to a CAN_InitTypeDef structure which
 381:.\stlib\STM32F10x_StdPeriph_Driver\src/stm32f10x_can.c ****   *                         will be initialized.
 382:.\stlib\STM32F10x_StdPeriph_Driver\src/stm32f10x_can.c ****   * @retval None.
 383:.\stlib\STM32F10x_StdPeriph_Driver\src/stm32f10x_can.c ****   */
 384:.\stlib\STM32F10x_StdPeriph_Driver\src/stm32f10x_can.c **** void CAN_StructInit(CAN_InitTypeDef* CAN_InitStruct)
 385:.\stlib\STM32F10x_StdPeriph_Driver\src/stm32f10x_can.c **** {
 657              		.loc 1 385 1 is_stmt 1 view -0
 658              		.cfi_startproc
 659              		@ args = 0, pretend = 0, frame = 0
ARM GAS  C:\Users\skey\AppData\Local\Temp\ccv9NfrL.s 			page 20


 660              		@ frame_needed = 0, uses_anonymous_args = 0
 661              		@ link register save eliminated.
 386:.\stlib\STM32F10x_StdPeriph_Driver\src/stm32f10x_can.c ****   /* Reset CAN init structure parameters values */
 387:.\stlib\STM32F10x_StdPeriph_Driver\src/stm32f10x_can.c ****   
 388:.\stlib\STM32F10x_StdPeriph_Driver\src/stm32f10x_can.c ****   /* Initialize the time triggered communication mode */
 389:.\stlib\STM32F10x_StdPeriph_Driver\src/stm32f10x_can.c ****   CAN_InitStruct->CAN_TTCM = DISABLE;
 662              		.loc 1 389 3 view .LVU188
 390:.\stlib\STM32F10x_StdPeriph_Driver\src/stm32f10x_can.c ****   
 391:.\stlib\STM32F10x_StdPeriph_Driver\src/stm32f10x_can.c ****   /* Initialize the automatic bus-off management */
 392:.\stlib\STM32F10x_StdPeriph_Driver\src/stm32f10x_can.c ****   CAN_InitStruct->CAN_ABOM = DISABLE;
 663              		.loc 1 392 3 view .LVU189
 393:.\stlib\STM32F10x_StdPeriph_Driver\src/stm32f10x_can.c ****   
 394:.\stlib\STM32F10x_StdPeriph_Driver\src/stm32f10x_can.c ****   /* Initialize the automatic wake-up mode */
 395:.\stlib\STM32F10x_StdPeriph_Driver\src/stm32f10x_can.c ****   CAN_InitStruct->CAN_AWUM = DISABLE;
 664              		.loc 1 395 3 view .LVU190
 396:.\stlib\STM32F10x_StdPeriph_Driver\src/stm32f10x_can.c ****   
 397:.\stlib\STM32F10x_StdPeriph_Driver\src/stm32f10x_can.c ****   /* Initialize the no automatic retransmission */
 398:.\stlib\STM32F10x_StdPeriph_Driver\src/stm32f10x_can.c ****   CAN_InitStruct->CAN_NART = DISABLE;
 665              		.loc 1 398 3 view .LVU191
 399:.\stlib\STM32F10x_StdPeriph_Driver\src/stm32f10x_can.c ****   
 400:.\stlib\STM32F10x_StdPeriph_Driver\src/stm32f10x_can.c ****   /* Initialize the receive FIFO locked mode */
 401:.\stlib\STM32F10x_StdPeriph_Driver\src/stm32f10x_can.c ****   CAN_InitStruct->CAN_RFLM = DISABLE;
 666              		.loc 1 401 3 view .LVU192
 402:.\stlib\STM32F10x_StdPeriph_Driver\src/stm32f10x_can.c ****   
 403:.\stlib\STM32F10x_StdPeriph_Driver\src/stm32f10x_can.c ****   /* Initialize the transmit FIFO priority */
 404:.\stlib\STM32F10x_StdPeriph_Driver\src/stm32f10x_can.c ****   CAN_InitStruct->CAN_TXFP = DISABLE;
 667              		.loc 1 404 3 view .LVU193
 405:.\stlib\STM32F10x_StdPeriph_Driver\src/stm32f10x_can.c ****   
 406:.\stlib\STM32F10x_StdPeriph_Driver\src/stm32f10x_can.c ****   /* Initialize the CAN_Mode member */
 407:.\stlib\STM32F10x_StdPeriph_Driver\src/stm32f10x_can.c ****   CAN_InitStruct->CAN_Mode = CAN_Mode_Normal;
 668              		.loc 1 407 3 view .LVU194
 408:.\stlib\STM32F10x_StdPeriph_Driver\src/stm32f10x_can.c ****   
 409:.\stlib\STM32F10x_StdPeriph_Driver\src/stm32f10x_can.c ****   /* Initialize the CAN_SJW member */
 410:.\stlib\STM32F10x_StdPeriph_Driver\src/stm32f10x_can.c ****   CAN_InitStruct->CAN_SJW = CAN_SJW_1tq;
 669              		.loc 1 410 3 view .LVU195
 411:.\stlib\STM32F10x_StdPeriph_Driver\src/stm32f10x_can.c ****   
 412:.\stlib\STM32F10x_StdPeriph_Driver\src/stm32f10x_can.c ****   /* Initialize the CAN_BS1 member */
 413:.\stlib\STM32F10x_StdPeriph_Driver\src/stm32f10x_can.c ****   CAN_InitStruct->CAN_BS1 = CAN_BS1_4tq;
 670              		.loc 1 413 3 view .LVU196
 414:.\stlib\STM32F10x_StdPeriph_Driver\src/stm32f10x_can.c ****   
 415:.\stlib\STM32F10x_StdPeriph_Driver\src/stm32f10x_can.c ****   /* Initialize the CAN_BS2 member */
 416:.\stlib\STM32F10x_StdPeriph_Driver\src/stm32f10x_can.c ****   CAN_InitStruct->CAN_BS2 = CAN_BS2_3tq;
 671              		.loc 1 416 3 view .LVU197
 417:.\stlib\STM32F10x_StdPeriph_Driver\src/stm32f10x_can.c ****   
 418:.\stlib\STM32F10x_StdPeriph_Driver\src/stm32f10x_can.c ****   /* Initialize the CAN_Prescaler member */
 419:.\stlib\STM32F10x_StdPeriph_Driver\src/stm32f10x_can.c ****   CAN_InitStruct->CAN_Prescaler = 1;
 672              		.loc 1 419 3 view .LVU198
 673              	@ .\stlib\STM32F10x_StdPeriph_Driver\src\stm32f10x_can.c:419:   CAN_InitStruct->CAN_Prescaler = 1;
 674              		.loc 1 419 33 is_stmt 0 view .LVU199
 675 01e4 0123     		movs	r3, #1	@ tmp112,
 676              	@ .\stlib\STM32F10x_StdPeriph_Driver\src\stm32f10x_can.c:413:   CAN_InitStruct->CAN_BS1 = CAN_BS1_4
 413:.\stlib\STM32F10x_StdPeriph_Driver\src/stm32f10x_can.c ****   
 677              		.loc 1 413 27 view .LVU200
 678 01e6 40F20322 		movw	r2, #515	@ tmp116,
 679              	@ .\stlib\STM32F10x_StdPeriph_Driver\src\stm32f10x_can.c:419:   CAN_InitStruct->CAN_Prescaler = 1;
 680              		.loc 1 419 33 view .LVU201
 681 01ea 0380     		strh	r3, [r0]	@ movhi	@ tmp112, CAN_InitStruct_2(D)->CAN_Prescaler
ARM GAS  C:\Users\skey\AppData\Local\Temp\ccv9NfrL.s 			page 21


 682              	@ .\stlib\STM32F10x_StdPeriph_Driver\src\stm32f10x_can.c:407:   CAN_InitStruct->CAN_Mode = CAN_Mode
 407:.\stlib\STM32F10x_StdPeriph_Driver\src/stm32f10x_can.c ****   
 683              		.loc 1 407 28 view .LVU202
 684 01ec 0023     		movs	r3, #0	@ tmp114,
 685              	@ .\stlib\STM32F10x_StdPeriph_Driver\src\stm32f10x_can.c:413:   CAN_InitStruct->CAN_BS1 = CAN_BS1_4
 413:.\stlib\STM32F10x_StdPeriph_Driver\src/stm32f10x_can.c ****   
 686              		.loc 1 413 27 view .LVU203
 687 01ee 8280     		strh	r2, [r0, #4]	@ movhi	@ tmp116, MEM[(unsigned char *)CAN_InitStruct_2(D) + 4B]
 688              	@ .\stlib\STM32F10x_StdPeriph_Driver\src\stm32f10x_can.c:407:   CAN_InitStruct->CAN_Mode = CAN_Mode
 407:.\stlib\STM32F10x_StdPeriph_Driver\src/stm32f10x_can.c ****   
 689              		.loc 1 407 28 view .LVU204
 690 01f0 4380     		strh	r3, [r0, #2]	@ movhi	@ tmp114, MEM[(unsigned char *)CAN_InitStruct_2(D) + 2B]
 691              	@ .\stlib\STM32F10x_StdPeriph_Driver\src\stm32f10x_can.c:389:   CAN_InitStruct->CAN_TTCM = DISABLE;
 389:.\stlib\STM32F10x_StdPeriph_Driver\src/stm32f10x_can.c ****   
 692              		.loc 1 389 28 view .LVU205
 693 01f2 C380     		strh	r3, [r0, #6]	@ movhi	@ tmp114, MEM[(<unnamed type> *)CAN_InitStruct_2(D) + 6B]
 694              	@ .\stlib\STM32F10x_StdPeriph_Driver\src\stm32f10x_can.c:395:   CAN_InitStruct->CAN_AWUM = DISABLE;
 395:.\stlib\STM32F10x_StdPeriph_Driver\src/stm32f10x_can.c ****   
 695              		.loc 1 395 28 view .LVU206
 696 01f4 0381     		strh	r3, [r0, #8]	@ movhi	@ tmp114, MEM[(<unnamed type> *)CAN_InitStruct_2(D) + 8B]
 697              	@ .\stlib\STM32F10x_StdPeriph_Driver\src\stm32f10x_can.c:401:   CAN_InitStruct->CAN_RFLM = DISABLE;
 401:.\stlib\STM32F10x_StdPeriph_Driver\src/stm32f10x_can.c ****   
 698              		.loc 1 401 28 view .LVU207
 699 01f6 4381     		strh	r3, [r0, #10]	@ movhi	@ tmp114, MEM[(<unnamed type> *)CAN_InitStruct_2(D) + 10B]
 700              	@ .\stlib\STM32F10x_StdPeriph_Driver\src\stm32f10x_can.c:420: }
 420:.\stlib\STM32F10x_StdPeriph_Driver\src/stm32f10x_can.c **** }
 701              		.loc 1 420 1 view .LVU208
 702 01f8 7047     		bx	lr	@
 703              		.cfi_endproc
 704              	.LFE32:
 705              		.size	CAN_StructInit, .-CAN_StructInit
 706              		.align	1
 707              		.global	CAN_SlaveStartBank
 708              		.syntax unified
 709              		.thumb
 710              		.thumb_func
 711              		.fpu softvfp
 712              		.type	CAN_SlaveStartBank, %function
 713              	CAN_SlaveStartBank:
 714              	.LVL22:
 715              	.LFB33:
 421:.\stlib\STM32F10x_StdPeriph_Driver\src/stm32f10x_can.c **** 
 422:.\stlib\STM32F10x_StdPeriph_Driver\src/stm32f10x_can.c **** /**
 423:.\stlib\STM32F10x_StdPeriph_Driver\src/stm32f10x_can.c ****   * @brief  Select the start bank filter for slave CAN.
 424:.\stlib\STM32F10x_StdPeriph_Driver\src/stm32f10x_can.c ****   * @note   This function applies only to STM32 Connectivity line devices.
 425:.\stlib\STM32F10x_StdPeriph_Driver\src/stm32f10x_can.c ****   * @param  CAN_BankNumber: Select the start slave bank filter from 1..27.
 426:.\stlib\STM32F10x_StdPeriph_Driver\src/stm32f10x_can.c ****   * @retval None.
 427:.\stlib\STM32F10x_StdPeriph_Driver\src/stm32f10x_can.c ****   */
 428:.\stlib\STM32F10x_StdPeriph_Driver\src/stm32f10x_can.c **** void CAN_SlaveStartBank(uint8_t CAN_BankNumber) 
 429:.\stlib\STM32F10x_StdPeriph_Driver\src/stm32f10x_can.c **** {
 716              		.loc 1 429 1 is_stmt 1 view -0
 717              		.cfi_startproc
 718              		@ args = 0, pretend = 0, frame = 0
 719              		@ frame_needed = 0, uses_anonymous_args = 0
 720              		@ link register save eliminated.
 430:.\stlib\STM32F10x_StdPeriph_Driver\src/stm32f10x_can.c ****   /* Check the parameters */
 431:.\stlib\STM32F10x_StdPeriph_Driver\src/stm32f10x_can.c ****   assert_param(IS_CAN_BANKNUMBER(CAN_BankNumber));
ARM GAS  C:\Users\skey\AppData\Local\Temp\ccv9NfrL.s 			page 22


 721              		.loc 1 431 3 view .LVU210
 432:.\stlib\STM32F10x_StdPeriph_Driver\src/stm32f10x_can.c ****   
 433:.\stlib\STM32F10x_StdPeriph_Driver\src/stm32f10x_can.c ****   /* Enter Initialisation mode for the filter */
 434:.\stlib\STM32F10x_StdPeriph_Driver\src/stm32f10x_can.c ****   CAN1->FMR |= FMR_FINIT;
 722              		.loc 1 434 3 view .LVU211
 723              	@ .\stlib\STM32F10x_StdPeriph_Driver\src\stm32f10x_can.c:434:   CAN1->FMR |= FMR_FINIT;
 724              		.loc 1 434 13 is_stmt 0 view .LVU212
 725 01fa 0E4B     		ldr	r3, .L50	@ tmp121,
 726 01fc D3F80012 		ldr	r1, [r3, #512]	@ _1, MEM[(struct CAN_TypeDef *)1073767424B].FMR
 727 0200 41F00101 		orr	r1, r1, #1	@ _2, _1,
 728 0204 C3F80012 		str	r1, [r3, #512]	@ _2, MEM[(struct CAN_TypeDef *)1073767424B].FMR
 435:.\stlib\STM32F10x_StdPeriph_Driver\src/stm32f10x_can.c ****   
 436:.\stlib\STM32F10x_StdPeriph_Driver\src/stm32f10x_can.c ****   /* Select the start slave bank */
 437:.\stlib\STM32F10x_StdPeriph_Driver\src/stm32f10x_can.c ****   CAN1->FMR &= (uint32_t)0xFFFFC0F1 ;
 729              		.loc 1 437 3 is_stmt 1 view .LVU213
 730              	@ .\stlib\STM32F10x_StdPeriph_Driver\src\stm32f10x_can.c:437:   CAN1->FMR &= (uint32_t)0xFFFFC0F1 ;
 731              		.loc 1 437 13 is_stmt 0 view .LVU214
 732 0208 D3F80022 		ldr	r2, [r3, #512]	@ _3, MEM[(struct CAN_TypeDef *)1073767424B].FMR
 733 020c 22F47C52 		bic	r2, r2, #16128	@ _4, _3,
 734 0210 22F00E02 		bic	r2, r2, #14	@ _4, _4,
 735 0214 C3F80022 		str	r2, [r3, #512]	@ _4, MEM[(struct CAN_TypeDef *)1073767424B].FMR
 438:.\stlib\STM32F10x_StdPeriph_Driver\src/stm32f10x_can.c ****   CAN1->FMR |= (uint32_t)(CAN_BankNumber)<<8;
 736              		.loc 1 438 3 is_stmt 1 view .LVU215
 737              	@ .\stlib\STM32F10x_StdPeriph_Driver\src\stm32f10x_can.c:438:   CAN1->FMR |= (uint32_t)(CAN_BankNum
 738              		.loc 1 438 13 is_stmt 0 view .LVU216
 739 0218 D3F80022 		ldr	r2, [r3, #512]	@ _5, MEM[(struct CAN_TypeDef *)1073767424B].FMR
 740 021c 42EA0022 		orr	r2, r2, r0, lsl #8	@ _8, _5, tmp131,
 741 0220 C3F80022 		str	r2, [r3, #512]	@ _8, MEM[(struct CAN_TypeDef *)1073767424B].FMR
 439:.\stlib\STM32F10x_StdPeriph_Driver\src/stm32f10x_can.c ****   
 440:.\stlib\STM32F10x_StdPeriph_Driver\src/stm32f10x_can.c ****   /* Leave Initialisation mode for the filter */
 441:.\stlib\STM32F10x_StdPeriph_Driver\src/stm32f10x_can.c ****   CAN1->FMR &= ~FMR_FINIT;
 742              		.loc 1 441 3 is_stmt 1 view .LVU217
 743              	@ .\stlib\STM32F10x_StdPeriph_Driver\src\stm32f10x_can.c:441:   CAN1->FMR &= ~FMR_FINIT;
 744              		.loc 1 441 13 is_stmt 0 view .LVU218
 745 0224 D3F80022 		ldr	r2, [r3, #512]	@ _9, MEM[(struct CAN_TypeDef *)1073767424B].FMR
 746 0228 22F00102 		bic	r2, r2, #1	@ _10, _9,
 747 022c C3F80022 		str	r2, [r3, #512]	@ _10, MEM[(struct CAN_TypeDef *)1073767424B].FMR
 748              	@ .\stlib\STM32F10x_StdPeriph_Driver\src\stm32f10x_can.c:442: }
 442:.\stlib\STM32F10x_StdPeriph_Driver\src/stm32f10x_can.c **** }
 749              		.loc 1 442 1 view .LVU219
 750 0230 7047     		bx	lr	@
 751              	.L51:
 752 0232 00BF     		.align	2
 753              	.L50:
 754 0234 00640040 		.word	1073767424
 755              		.cfi_endproc
 756              	.LFE33:
 757              		.size	CAN_SlaveStartBank, .-CAN_SlaveStartBank
 758              		.align	1
 759              		.global	CAN_DBGFreeze
 760              		.syntax unified
 761              		.thumb
 762              		.thumb_func
 763              		.fpu softvfp
 764              		.type	CAN_DBGFreeze, %function
 765              	CAN_DBGFreeze:
 766              	.LVL23:
ARM GAS  C:\Users\skey\AppData\Local\Temp\ccv9NfrL.s 			page 23


 767              	.LFB34:
 443:.\stlib\STM32F10x_StdPeriph_Driver\src/stm32f10x_can.c **** 
 444:.\stlib\STM32F10x_StdPeriph_Driver\src/stm32f10x_can.c **** /**
 445:.\stlib\STM32F10x_StdPeriph_Driver\src/stm32f10x_can.c ****   * @brief  Enables or disables the DBG Freeze for CAN.
 446:.\stlib\STM32F10x_StdPeriph_Driver\src/stm32f10x_can.c ****   * @param  CANx:     where x can be 1 or 2 to to select the CAN peripheral.
 447:.\stlib\STM32F10x_StdPeriph_Driver\src/stm32f10x_can.c ****   * @param  NewState: new state of the CAN peripheral. This parameter can 
 448:.\stlib\STM32F10x_StdPeriph_Driver\src/stm32f10x_can.c ****   *                   be: ENABLE or DISABLE.
 449:.\stlib\STM32F10x_StdPeriph_Driver\src/stm32f10x_can.c ****   * @retval None.
 450:.\stlib\STM32F10x_StdPeriph_Driver\src/stm32f10x_can.c ****   */
 451:.\stlib\STM32F10x_StdPeriph_Driver\src/stm32f10x_can.c **** void CAN_DBGFreeze(CAN_TypeDef* CANx, FunctionalState NewState)
 452:.\stlib\STM32F10x_StdPeriph_Driver\src/stm32f10x_can.c **** {
 768              		.loc 1 452 1 is_stmt 1 view -0
 769              		.cfi_startproc
 770              		@ args = 0, pretend = 0, frame = 0
 771              		@ frame_needed = 0, uses_anonymous_args = 0
 772              		@ link register save eliminated.
 453:.\stlib\STM32F10x_StdPeriph_Driver\src/stm32f10x_can.c ****   /* Check the parameters */
 454:.\stlib\STM32F10x_StdPeriph_Driver\src/stm32f10x_can.c ****   assert_param(IS_CAN_ALL_PERIPH(CANx));
 773              		.loc 1 454 3 view .LVU221
 455:.\stlib\STM32F10x_StdPeriph_Driver\src/stm32f10x_can.c ****   assert_param(IS_FUNCTIONAL_STATE(NewState));
 774              		.loc 1 455 3 view .LVU222
 456:.\stlib\STM32F10x_StdPeriph_Driver\src/stm32f10x_can.c ****   
 457:.\stlib\STM32F10x_StdPeriph_Driver\src/stm32f10x_can.c ****   if (NewState != DISABLE)
 775              		.loc 1 457 3 view .LVU223
 776              	@ .\stlib\STM32F10x_StdPeriph_Driver\src\stm32f10x_can.c:460:     CANx->MCR |= MCR_DBF;
 458:.\stlib\STM32F10x_StdPeriph_Driver\src/stm32f10x_can.c ****   {
 459:.\stlib\STM32F10x_StdPeriph_Driver\src/stm32f10x_can.c ****     /* Enable Debug Freeze  */
 460:.\stlib\STM32F10x_StdPeriph_Driver\src/stm32f10x_can.c ****     CANx->MCR |= MCR_DBF;
 777              		.loc 1 460 15 is_stmt 0 view .LVU224
 778 0238 0368     		ldr	r3, [r0]	@ _1,* CANx
 779              	@ .\stlib\STM32F10x_StdPeriph_Driver\src\stm32f10x_can.c:457:   if (NewState != DISABLE)
 457:.\stlib\STM32F10x_StdPeriph_Driver\src/stm32f10x_can.c ****   {
 780              		.loc 1 457 6 view .LVU225
 781 023a 19B1     		cbz	r1, .L53	@ tmp117,
 782              		.loc 1 460 5 is_stmt 1 view .LVU226
 783              	@ .\stlib\STM32F10x_StdPeriph_Driver\src\stm32f10x_can.c:460:     CANx->MCR |= MCR_DBF;
 784              		.loc 1 460 15 is_stmt 0 view .LVU227
 785 023c 43F48033 		orr	r3, r3, #65536	@ _2, _1,
 786              	.L55:
 787              	@ .\stlib\STM32F10x_StdPeriph_Driver\src\stm32f10x_can.c:465:     CANx->MCR &= ~MCR_DBF;
 461:.\stlib\STM32F10x_StdPeriph_Driver\src/stm32f10x_can.c ****   }
 462:.\stlib\STM32F10x_StdPeriph_Driver\src/stm32f10x_can.c ****   else
 463:.\stlib\STM32F10x_StdPeriph_Driver\src/stm32f10x_can.c ****   {
 464:.\stlib\STM32F10x_StdPeriph_Driver\src/stm32f10x_can.c ****     /* Disable Debug Freeze */
 465:.\stlib\STM32F10x_StdPeriph_Driver\src/stm32f10x_can.c ****     CANx->MCR &= ~MCR_DBF;
 788              		.loc 1 465 15 view .LVU228
 789 0240 0360     		str	r3, [r0]	@ _4,* CANx
 790              	@ .\stlib\STM32F10x_StdPeriph_Driver\src\stm32f10x_can.c:467: }
 466:.\stlib\STM32F10x_StdPeriph_Driver\src/stm32f10x_can.c ****   }
 467:.\stlib\STM32F10x_StdPeriph_Driver\src/stm32f10x_can.c **** }
 791              		.loc 1 467 1 view .LVU229
 792 0242 7047     		bx	lr	@
 793              	.L53:
 465:.\stlib\STM32F10x_StdPeriph_Driver\src/stm32f10x_can.c ****   }
 794              		.loc 1 465 5 is_stmt 1 view .LVU230
 795              	@ .\stlib\STM32F10x_StdPeriph_Driver\src\stm32f10x_can.c:465:     CANx->MCR &= ~MCR_DBF;
 465:.\stlib\STM32F10x_StdPeriph_Driver\src/stm32f10x_can.c ****   }
ARM GAS  C:\Users\skey\AppData\Local\Temp\ccv9NfrL.s 			page 24


 796              		.loc 1 465 15 is_stmt 0 view .LVU231
 797 0244 23F48033 		bic	r3, r3, #65536	@ _4, _3,
 798 0248 FAE7     		b	.L55		@
 799              		.cfi_endproc
 800              	.LFE34:
 801              		.size	CAN_DBGFreeze, .-CAN_DBGFreeze
 802              		.align	1
 803              		.global	CAN_TTComModeCmd
 804              		.syntax unified
 805              		.thumb
 806              		.thumb_func
 807              		.fpu softvfp
 808              		.type	CAN_TTComModeCmd, %function
 809              	CAN_TTComModeCmd:
 810              	.LVL24:
 811              	.LFB35:
 468:.\stlib\STM32F10x_StdPeriph_Driver\src/stm32f10x_can.c **** 
 469:.\stlib\STM32F10x_StdPeriph_Driver\src/stm32f10x_can.c **** 
 470:.\stlib\STM32F10x_StdPeriph_Driver\src/stm32f10x_can.c **** /**
 471:.\stlib\STM32F10x_StdPeriph_Driver\src/stm32f10x_can.c ****   * @brief  Enables or disabes the CAN Time TriggerOperation communication mode.
 472:.\stlib\STM32F10x_StdPeriph_Driver\src/stm32f10x_can.c ****   * @param  CANx:      where x can be 1 or 2 to to select the CAN peripheral.
 473:.\stlib\STM32F10x_StdPeriph_Driver\src/stm32f10x_can.c ****   * @param  NewState : Mode new state , can be one of @ref FunctionalState.
 474:.\stlib\STM32F10x_StdPeriph_Driver\src/stm32f10x_can.c ****   * @note   when enabled, Time stamp (TIME[15:0]) value is sent in the last 
 475:.\stlib\STM32F10x_StdPeriph_Driver\src/stm32f10x_can.c ****   *         two data bytes of the 8-byte message: TIME[7:0] in data byte 6 
 476:.\stlib\STM32F10x_StdPeriph_Driver\src/stm32f10x_can.c ****   *         and TIME[15:8] in data byte 7 
 477:.\stlib\STM32F10x_StdPeriph_Driver\src/stm32f10x_can.c ****   * @note   DLC must be programmed as 8 in order Time Stamp (2 bytes) to be 
 478:.\stlib\STM32F10x_StdPeriph_Driver\src/stm32f10x_can.c ****   *         sent over the CAN bus.  
 479:.\stlib\STM32F10x_StdPeriph_Driver\src/stm32f10x_can.c ****   * @retval None
 480:.\stlib\STM32F10x_StdPeriph_Driver\src/stm32f10x_can.c ****   */
 481:.\stlib\STM32F10x_StdPeriph_Driver\src/stm32f10x_can.c **** void CAN_TTComModeCmd(CAN_TypeDef* CANx, FunctionalState NewState)
 482:.\stlib\STM32F10x_StdPeriph_Driver\src/stm32f10x_can.c **** {
 812              		.loc 1 482 1 is_stmt 1 view -0
 813              		.cfi_startproc
 814              		@ args = 0, pretend = 0, frame = 0
 815              		@ frame_needed = 0, uses_anonymous_args = 0
 816              		@ link register save eliminated.
 483:.\stlib\STM32F10x_StdPeriph_Driver\src/stm32f10x_can.c ****   /* Check the parameters */
 484:.\stlib\STM32F10x_StdPeriph_Driver\src/stm32f10x_can.c ****   assert_param(IS_CAN_ALL_PERIPH(CANx));
 817              		.loc 1 484 3 view .LVU233
 485:.\stlib\STM32F10x_StdPeriph_Driver\src/stm32f10x_can.c ****   assert_param(IS_FUNCTIONAL_STATE(NewState));
 818              		.loc 1 485 3 view .LVU234
 486:.\stlib\STM32F10x_StdPeriph_Driver\src/stm32f10x_can.c ****   if (NewState != DISABLE)
 819              		.loc 1 486 3 view .LVU235
 820              	@ .\stlib\STM32F10x_StdPeriph_Driver\src\stm32f10x_can.c:489:     CANx->MCR |= CAN_MCR_TTCM;
 487:.\stlib\STM32F10x_StdPeriph_Driver\src/stm32f10x_can.c ****   {
 488:.\stlib\STM32F10x_StdPeriph_Driver\src/stm32f10x_can.c ****     /* Enable the TTCM mode */
 489:.\stlib\STM32F10x_StdPeriph_Driver\src/stm32f10x_can.c ****     CANx->MCR |= CAN_MCR_TTCM;
 821              		.loc 1 489 15 is_stmt 0 view .LVU236
 822 024a 0368     		ldr	r3, [r0]	@ _1,* CANx
 823              	@ .\stlib\STM32F10x_StdPeriph_Driver\src\stm32f10x_can.c:486:   if (NewState != DISABLE)
 486:.\stlib\STM32F10x_StdPeriph_Driver\src/stm32f10x_can.c ****   if (NewState != DISABLE)
 824              		.loc 1 486 6 view .LVU237
 825 024c A9B1     		cbz	r1, .L57	@ tmp129,
 826              		.loc 1 489 5 is_stmt 1 view .LVU238
 827              	@ .\stlib\STM32F10x_StdPeriph_Driver\src\stm32f10x_can.c:489:     CANx->MCR |= CAN_MCR_TTCM;
 828              		.loc 1 489 15 is_stmt 0 view .LVU239
 829 024e 43F08003 		orr	r3, r3, #128	@ _2, _1,
ARM GAS  C:\Users\skey\AppData\Local\Temp\ccv9NfrL.s 			page 25


 830 0252 0360     		str	r3, [r0]	@ _2, CANx_20(D)->MCR
 490:.\stlib\STM32F10x_StdPeriph_Driver\src/stm32f10x_can.c **** 
 491:.\stlib\STM32F10x_StdPeriph_Driver\src/stm32f10x_can.c ****     /* Set TGT bits */
 492:.\stlib\STM32F10x_StdPeriph_Driver\src/stm32f10x_can.c ****     CANx->sTxMailBox[0].TDTR |= ((uint32_t)CAN_TDT0R_TGT);
 831              		.loc 1 492 5 is_stmt 1 view .LVU240
 832              	@ .\stlib\STM32F10x_StdPeriph_Driver\src\stm32f10x_can.c:492:     CANx->sTxMailBox[0].TDTR |= ((uin
 833              		.loc 1 492 30 is_stmt 0 view .LVU241
 834 0254 D0F88431 		ldr	r3, [r0, #388]	@ _3, CANx_20(D)->sTxMailBox[0].TDTR
 835 0258 43F48073 		orr	r3, r3, #256	@ _4, _3,
 836 025c C0F88431 		str	r3, [r0, #388]	@ _4, CANx_20(D)->sTxMailBox[0].TDTR
 493:.\stlib\STM32F10x_StdPeriph_Driver\src/stm32f10x_can.c ****     CANx->sTxMailBox[1].TDTR |= ((uint32_t)CAN_TDT1R_TGT);
 837              		.loc 1 493 5 is_stmt 1 view .LVU242
 838              	@ .\stlib\STM32F10x_StdPeriph_Driver\src\stm32f10x_can.c:493:     CANx->sTxMailBox[1].TDTR |= ((uin
 839              		.loc 1 493 30 is_stmt 0 view .LVU243
 840 0260 D0F89431 		ldr	r3, [r0, #404]	@ _5, CANx_20(D)->sTxMailBox[1].TDTR
 841 0264 43F48073 		orr	r3, r3, #256	@ _6, _5,
 842 0268 C0F89431 		str	r3, [r0, #404]	@ _6, CANx_20(D)->sTxMailBox[1].TDTR
 494:.\stlib\STM32F10x_StdPeriph_Driver\src/stm32f10x_can.c ****     CANx->sTxMailBox[2].TDTR |= ((uint32_t)CAN_TDT2R_TGT);
 843              		.loc 1 494 5 is_stmt 1 view .LVU244
 844              	@ .\stlib\STM32F10x_StdPeriph_Driver\src\stm32f10x_can.c:494:     CANx->sTxMailBox[2].TDTR |= ((uin
 845              		.loc 1 494 30 is_stmt 0 view .LVU245
 846 026c D0F8A431 		ldr	r3, [r0, #420]	@ _7, CANx_20(D)->sTxMailBox[2].TDTR
 847 0270 43F48073 		orr	r3, r3, #256	@ _8, _7,
 848              	.L59:
 849              	@ .\stlib\STM32F10x_StdPeriph_Driver\src\stm32f10x_can.c:504:     CANx->sTxMailBox[2].TDTR &= ((uin
 495:.\stlib\STM32F10x_StdPeriph_Driver\src/stm32f10x_can.c ****   }
 496:.\stlib\STM32F10x_StdPeriph_Driver\src/stm32f10x_can.c ****   else
 497:.\stlib\STM32F10x_StdPeriph_Driver\src/stm32f10x_can.c ****   {
 498:.\stlib\STM32F10x_StdPeriph_Driver\src/stm32f10x_can.c ****     /* Disable the TTCM mode */
 499:.\stlib\STM32F10x_StdPeriph_Driver\src/stm32f10x_can.c ****     CANx->MCR &= (uint32_t)(~(uint32_t)CAN_MCR_TTCM);
 500:.\stlib\STM32F10x_StdPeriph_Driver\src/stm32f10x_can.c **** 
 501:.\stlib\STM32F10x_StdPeriph_Driver\src/stm32f10x_can.c ****     /* Reset TGT bits */
 502:.\stlib\STM32F10x_StdPeriph_Driver\src/stm32f10x_can.c ****     CANx->sTxMailBox[0].TDTR &= ((uint32_t)~CAN_TDT0R_TGT);
 503:.\stlib\STM32F10x_StdPeriph_Driver\src/stm32f10x_can.c ****     CANx->sTxMailBox[1].TDTR &= ((uint32_t)~CAN_TDT1R_TGT);
 504:.\stlib\STM32F10x_StdPeriph_Driver\src/stm32f10x_can.c ****     CANx->sTxMailBox[2].TDTR &= ((uint32_t)~CAN_TDT2R_TGT);
 850              		.loc 1 504 30 view .LVU246
 851 0274 C0F8A431 		str	r3, [r0, #420]	@ _16,
 852              	@ .\stlib\STM32F10x_StdPeriph_Driver\src\stm32f10x_can.c:506: }
 505:.\stlib\STM32F10x_StdPeriph_Driver\src/stm32f10x_can.c ****   }
 506:.\stlib\STM32F10x_StdPeriph_Driver\src/stm32f10x_can.c **** }
 853              		.loc 1 506 1 view .LVU247
 854 0278 7047     		bx	lr	@
 855              	.L57:
 499:.\stlib\STM32F10x_StdPeriph_Driver\src/stm32f10x_can.c **** 
 856              		.loc 1 499 5 is_stmt 1 view .LVU248
 857              	@ .\stlib\STM32F10x_StdPeriph_Driver\src\stm32f10x_can.c:499:     CANx->MCR &= (uint32_t)(~(uint32_
 499:.\stlib\STM32F10x_StdPeriph_Driver\src/stm32f10x_can.c **** 
 858              		.loc 1 499 15 is_stmt 0 view .LVU249
 859 027a 23F08003 		bic	r3, r3, #128	@ _10, _9,
 860 027e 0360     		str	r3, [r0]	@ _10, CANx_20(D)->MCR
 502:.\stlib\STM32F10x_StdPeriph_Driver\src/stm32f10x_can.c ****     CANx->sTxMailBox[1].TDTR &= ((uint32_t)~CAN_TDT1R_TGT);
 861              		.loc 1 502 5 is_stmt 1 view .LVU250
 862              	@ .\stlib\STM32F10x_StdPeriph_Driver\src\stm32f10x_can.c:502:     CANx->sTxMailBox[0].TDTR &= ((uin
 502:.\stlib\STM32F10x_StdPeriph_Driver\src/stm32f10x_can.c ****     CANx->sTxMailBox[1].TDTR &= ((uint32_t)~CAN_TDT1R_TGT);
 863              		.loc 1 502 30 is_stmt 0 view .LVU251
 864 0280 D0F88431 		ldr	r3, [r0, #388]	@ _11, CANx_20(D)->sTxMailBox[0].TDTR
 865 0284 23F48073 		bic	r3, r3, #256	@ _12, _11,
ARM GAS  C:\Users\skey\AppData\Local\Temp\ccv9NfrL.s 			page 26


 866 0288 C0F88431 		str	r3, [r0, #388]	@ _12, CANx_20(D)->sTxMailBox[0].TDTR
 503:.\stlib\STM32F10x_StdPeriph_Driver\src/stm32f10x_can.c ****     CANx->sTxMailBox[2].TDTR &= ((uint32_t)~CAN_TDT2R_TGT);
 867              		.loc 1 503 5 is_stmt 1 view .LVU252
 868              	@ .\stlib\STM32F10x_StdPeriph_Driver\src\stm32f10x_can.c:503:     CANx->sTxMailBox[1].TDTR &= ((uin
 503:.\stlib\STM32F10x_StdPeriph_Driver\src/stm32f10x_can.c ****     CANx->sTxMailBox[2].TDTR &= ((uint32_t)~CAN_TDT2R_TGT);
 869              		.loc 1 503 30 is_stmt 0 view .LVU253
 870 028c D0F89431 		ldr	r3, [r0, #404]	@ _13, CANx_20(D)->sTxMailBox[1].TDTR
 871 0290 23F48073 		bic	r3, r3, #256	@ _14, _13,
 872 0294 C0F89431 		str	r3, [r0, #404]	@ _14, CANx_20(D)->sTxMailBox[1].TDTR
 504:.\stlib\STM32F10x_StdPeriph_Driver\src/stm32f10x_can.c ****   }
 873              		.loc 1 504 5 is_stmt 1 view .LVU254
 874              	@ .\stlib\STM32F10x_StdPeriph_Driver\src\stm32f10x_can.c:504:     CANx->sTxMailBox[2].TDTR &= ((uin
 504:.\stlib\STM32F10x_StdPeriph_Driver\src/stm32f10x_can.c ****   }
 875              		.loc 1 504 30 is_stmt 0 view .LVU255
 876 0298 D0F8A431 		ldr	r3, [r0, #420]	@ _15, CANx_20(D)->sTxMailBox[2].TDTR
 877 029c 23F48073 		bic	r3, r3, #256	@ _16, _15,
 878 02a0 E8E7     		b	.L59		@
 879              		.cfi_endproc
 880              	.LFE35:
 881              		.size	CAN_TTComModeCmd, .-CAN_TTComModeCmd
 882              		.align	1
 883              		.global	CAN_Transmit
 884              		.syntax unified
 885              		.thumb
 886              		.thumb_func
 887              		.fpu softvfp
 888              		.type	CAN_Transmit, %function
 889              	CAN_Transmit:
 890              	.LVL25:
 891              	.LFB36:
 507:.\stlib\STM32F10x_StdPeriph_Driver\src/stm32f10x_can.c **** /**
 508:.\stlib\STM32F10x_StdPeriph_Driver\src/stm32f10x_can.c ****   * @brief  Initiates the transmission of a message.
 509:.\stlib\STM32F10x_StdPeriph_Driver\src/stm32f10x_can.c ****   * @param  CANx:      where x can be 1 or 2 to to select the CAN peripheral.
 510:.\stlib\STM32F10x_StdPeriph_Driver\src/stm32f10x_can.c ****   * @param  TxMessage: pointer to a structure which contains CAN Id, CAN
 511:.\stlib\STM32F10x_StdPeriph_Driver\src/stm32f10x_can.c ****   *                    DLC and CAN data.
 512:.\stlib\STM32F10x_StdPeriph_Driver\src/stm32f10x_can.c ****   * @retval The number of the mailbox that is used for transmission
 513:.\stlib\STM32F10x_StdPeriph_Driver\src/stm32f10x_can.c ****   *                    or CAN_TxStatus_NoMailBox if there is no empty mailbox.
 514:.\stlib\STM32F10x_StdPeriph_Driver\src/stm32f10x_can.c ****   */
 515:.\stlib\STM32F10x_StdPeriph_Driver\src/stm32f10x_can.c **** uint8_t CAN_Transmit(CAN_TypeDef* CANx, CanTxMsg* TxMessage)
 516:.\stlib\STM32F10x_StdPeriph_Driver\src/stm32f10x_can.c **** {
 892              		.loc 1 516 1 is_stmt 1 view -0
 893              		.cfi_startproc
 894              		@ args = 0, pretend = 0, frame = 0
 895              		@ frame_needed = 0, uses_anonymous_args = 0
 517:.\stlib\STM32F10x_StdPeriph_Driver\src/stm32f10x_can.c ****   uint8_t transmit_mailbox = 0;
 896              		.loc 1 517 3 view .LVU257
 518:.\stlib\STM32F10x_StdPeriph_Driver\src/stm32f10x_can.c ****   /* Check the parameters */
 519:.\stlib\STM32F10x_StdPeriph_Driver\src/stm32f10x_can.c ****   assert_param(IS_CAN_ALL_PERIPH(CANx));
 897              		.loc 1 519 3 view .LVU258
 520:.\stlib\STM32F10x_StdPeriph_Driver\src/stm32f10x_can.c ****   assert_param(IS_CAN_IDTYPE(TxMessage->IDE));
 898              		.loc 1 520 3 view .LVU259
 521:.\stlib\STM32F10x_StdPeriph_Driver\src/stm32f10x_can.c ****   assert_param(IS_CAN_RTR(TxMessage->RTR));
 899              		.loc 1 521 3 view .LVU260
 522:.\stlib\STM32F10x_StdPeriph_Driver\src/stm32f10x_can.c ****   assert_param(IS_CAN_DLC(TxMessage->DLC));
 900              		.loc 1 522 3 view .LVU261
 523:.\stlib\STM32F10x_StdPeriph_Driver\src/stm32f10x_can.c **** 
 524:.\stlib\STM32F10x_StdPeriph_Driver\src/stm32f10x_can.c ****   /* Select one empty transmit mailbox */
ARM GAS  C:\Users\skey\AppData\Local\Temp\ccv9NfrL.s 			page 27


 525:.\stlib\STM32F10x_StdPeriph_Driver\src/stm32f10x_can.c ****   if ((CANx->TSR&CAN_TSR_TME0) == CAN_TSR_TME0)
 901              		.loc 1 525 3 view .LVU262
 902              	@ .\stlib\STM32F10x_StdPeriph_Driver\src\stm32f10x_can.c:525:   if ((CANx->TSR&CAN_TSR_TME0) == CAN
 903              		.loc 1 525 12 is_stmt 0 view .LVU263
 904 02a2 8368     		ldr	r3, [r0, #8]	@ _1, CANx_67(D)->TSR
 905              	@ .\stlib\STM32F10x_StdPeriph_Driver\src\stm32f10x_can.c:516: {
 516:.\stlib\STM32F10x_StdPeriph_Driver\src/stm32f10x_can.c ****   uint8_t transmit_mailbox = 0;
 906              		.loc 1 516 1 view .LVU264
 907 02a4 F0B5     		push	{r4, r5, r6, r7, lr}	@
 908              	.LCFI4:
 909              		.cfi_def_cfa_offset 20
 910              		.cfi_offset 4, -20
 911              		.cfi_offset 5, -16
 912              		.cfi_offset 6, -12
 913              		.cfi_offset 7, -8
 914              		.cfi_offset 14, -4
 915              	@ .\stlib\STM32F10x_StdPeriph_Driver\src\stm32f10x_can.c:516: {
 516:.\stlib\STM32F10x_StdPeriph_Driver\src/stm32f10x_can.c ****   uint8_t transmit_mailbox = 0;
 916              		.loc 1 516 1 view .LVU265
 917 02a6 0446     		mov	r4, r0	@ CANx, tmp176
 918              	@ .\stlib\STM32F10x_StdPeriph_Driver\src\stm32f10x_can.c:525:   if ((CANx->TSR&CAN_TSR_TME0) == CAN
 919              		.loc 1 525 6 view .LVU266
 920 02a8 5801     		lsls	r0, r3, #5	@, _1,
 921              	.LVL26:
 922              		.loc 1 525 6 view .LVU267
 923 02aa 3AD4     		bmi	.L65		@,
 526:.\stlib\STM32F10x_StdPeriph_Driver\src/stm32f10x_can.c ****   {
 527:.\stlib\STM32F10x_StdPeriph_Driver\src/stm32f10x_can.c ****     transmit_mailbox = 0;
 528:.\stlib\STM32F10x_StdPeriph_Driver\src/stm32f10x_can.c ****   }
 529:.\stlib\STM32F10x_StdPeriph_Driver\src/stm32f10x_can.c ****   else if ((CANx->TSR&CAN_TSR_TME1) == CAN_TSR_TME1)
 924              		.loc 1 529 8 is_stmt 1 view .LVU268
 925              	@ .\stlib\STM32F10x_StdPeriph_Driver\src\stm32f10x_can.c:529:   else if ((CANx->TSR&CAN_TSR_TME1) =
 926              		.loc 1 529 17 is_stmt 0 view .LVU269
 927 02ac A368     		ldr	r3, [r4, #8]	@ _3, CANx_67(D)->TSR
 928              	@ .\stlib\STM32F10x_StdPeriph_Driver\src\stm32f10x_can.c:529:   else if ((CANx->TSR&CAN_TSR_TME1) =
 929              		.loc 1 529 11 view .LVU270
 930 02ae 1A01     		lsls	r2, r3, #4	@, _3,
 931 02b0 39D4     		bmi	.L66		@,
 530:.\stlib\STM32F10x_StdPeriph_Driver\src/stm32f10x_can.c ****   {
 531:.\stlib\STM32F10x_StdPeriph_Driver\src/stm32f10x_can.c ****     transmit_mailbox = 1;
 532:.\stlib\STM32F10x_StdPeriph_Driver\src/stm32f10x_can.c ****   }
 533:.\stlib\STM32F10x_StdPeriph_Driver\src/stm32f10x_can.c ****   else if ((CANx->TSR&CAN_TSR_TME2) == CAN_TSR_TME2)
 932              		.loc 1 533 8 is_stmt 1 view .LVU271
 933              	@ .\stlib\STM32F10x_StdPeriph_Driver\src\stm32f10x_can.c:533:   else if ((CANx->TSR&CAN_TSR_TME2) =
 934              		.loc 1 533 17 is_stmt 0 view .LVU272
 935 02b2 A368     		ldr	r3, [r4, #8]	@ _5, CANx_67(D)->TSR
 936              	@ .\stlib\STM32F10x_StdPeriph_Driver\src\stm32f10x_can.c:533:   else if ((CANx->TSR&CAN_TSR_TME2) =
 937              		.loc 1 533 11 view .LVU273
 938 02b4 DB00     		lsls	r3, r3, #3	@, _5,
 939 02b6 40D5     		bpl	.L67		@,
 940              	@ .\stlib\STM32F10x_StdPeriph_Driver\src\stm32f10x_can.c:535:     transmit_mailbox = 2;
 534:.\stlib\STM32F10x_StdPeriph_Driver\src/stm32f10x_can.c ****   {
 535:.\stlib\STM32F10x_StdPeriph_Driver\src/stm32f10x_can.c ****     transmit_mailbox = 2;
 941              		.loc 1 535 22 view .LVU274
 942 02b8 0220     		movs	r0, #2	@ <retval>,
 943              	.L61:
 944              	.LVL27:
ARM GAS  C:\Users\skey\AppData\Local\Temp\ccv9NfrL.s 			page 28


 536:.\stlib\STM32F10x_StdPeriph_Driver\src/stm32f10x_can.c ****   }
 537:.\stlib\STM32F10x_StdPeriph_Driver\src/stm32f10x_can.c ****   else
 538:.\stlib\STM32F10x_StdPeriph_Driver\src/stm32f10x_can.c ****   {
 539:.\stlib\STM32F10x_StdPeriph_Driver\src/stm32f10x_can.c ****     transmit_mailbox = CAN_TxStatus_NoMailBox;
 540:.\stlib\STM32F10x_StdPeriph_Driver\src/stm32f10x_can.c ****   }
 541:.\stlib\STM32F10x_StdPeriph_Driver\src/stm32f10x_can.c **** 
 542:.\stlib\STM32F10x_StdPeriph_Driver\src/stm32f10x_can.c ****   if (transmit_mailbox != CAN_TxStatus_NoMailBox)
 543:.\stlib\STM32F10x_StdPeriph_Driver\src/stm32f10x_can.c ****   {
 544:.\stlib\STM32F10x_StdPeriph_Driver\src/stm32f10x_can.c ****     /* Set up the Id */
 545:.\stlib\STM32F10x_StdPeriph_Driver\src/stm32f10x_can.c ****     CANx->sTxMailBox[transmit_mailbox].TIR &= TMIDxR_TXRQ;
 945              		.loc 1 545 5 is_stmt 1 view .LVU275
 946 02ba 04EB0013 		add	r3, r4, r0, lsl #4	@ _36, CANx, <retval>,
 947              	@ .\stlib\STM32F10x_StdPeriph_Driver\src\stm32f10x_can.c:545:     CANx->sTxMailBox[transmit_mailbox
 948              		.loc 1 545 44 is_stmt 0 view .LVU276
 949 02be D3F88021 		ldr	r2, [r3, #384]	@ _8, MEM[(struct CAN_TypeDef *)_36 + 384B]
 950 02c2 4FEA001C 		lsl	ip, r0, #4	@ tmp154, <retval>,
 951 02c6 02F00102 		and	r2, r2, #1	@ _9, _8,
 952 02ca C3F88021 		str	r2, [r3, #384]	@ _9, MEM[(struct CAN_TypeDef *)_36 + 384B]
 546:.\stlib\STM32F10x_StdPeriph_Driver\src/stm32f10x_can.c ****     if (TxMessage->IDE == CAN_Id_Standard)
 953              		.loc 1 546 5 is_stmt 1 view .LVU277
 954              	@ .\stlib\STM32F10x_StdPeriph_Driver\src\stm32f10x_can.c:546:     if (TxMessage->IDE == CAN_Id_Stan
 955              		.loc 1 546 18 is_stmt 0 view .LVU278
 956 02ce 0E7A     		ldrb	r6, [r1, #8]	@ zero_extendqisi2	@ _10, TxMessage_70(D)->IDE
 957 02d0 4A7A     		ldrb	r2, [r1, #9]	@ zero_extendqisi2	@ _58, TxMessage_70(D)->RTR
 958              	@ .\stlib\STM32F10x_StdPeriph_Driver\src\stm32f10x_can.c:546:     if (TxMessage->IDE == CAN_Id_Stan
 959              		.loc 1 546 8 view .LVU279
 960 02d2 56BB     		cbnz	r6, .L63	@ _10,
 547:.\stlib\STM32F10x_StdPeriph_Driver\src/stm32f10x_can.c ****     {
 548:.\stlib\STM32F10x_StdPeriph_Driver\src/stm32f10x_can.c ****       assert_param(IS_CAN_STDID(TxMessage->StdId));  
 961              		.loc 1 548 7 is_stmt 1 view .LVU280
 549:.\stlib\STM32F10x_StdPeriph_Driver\src/stm32f10x_can.c ****       CANx->sTxMailBox[transmit_mailbox].TIR |= ((TxMessage->StdId << 21) | \
 962              		.loc 1 549 7 view .LVU281
 963              	@ .\stlib\STM32F10x_StdPeriph_Driver\src\stm32f10x_can.c:549:       CANx->sTxMailBox[transmit_mailb
 964              		.loc 1 549 68 is_stmt 0 view .LVU282
 965 02d4 0F68     		ldr	r7, [r1]	@ TxMessage_70(D)->StdId, TxMessage_70(D)->StdId
 966              	@ .\stlib\STM32F10x_StdPeriph_Driver\src\stm32f10x_can.c:549:       CANx->sTxMailBox[transmit_mailb
 967              		.loc 1 549 46 view .LVU283
 968 02d6 D3F88061 		ldr	r6, [r3, #384]	@ _11, MEM[(struct CAN_TypeDef *)_36 + 384B]
 969              	@ .\stlib\STM32F10x_StdPeriph_Driver\src\stm32f10x_can.c:549:       CANx->sTxMailBox[transmit_mailb
 970              		.loc 1 549 75 view .LVU284
 971 02da 42EA4752 		orr	r2, r2, r7, lsl #21	@ tmp157, _58, TxMessage_70(D)->StdId,
 972              	@ .\stlib\STM32F10x_StdPeriph_Driver\src\stm32f10x_can.c:549:       CANx->sTxMailBox[transmit_mailb
 973              		.loc 1 549 46 view .LVU285
 974 02de 3243     		orrs	r2, r2, r6	@, _17, tmp157, _11
 975              	.L68:
 976              	@ .\stlib\STM32F10x_StdPeriph_Driver\src\stm32f10x_can.c:555:       CANx->sTxMailBox[transmit_mailb
 550:.\stlib\STM32F10x_StdPeriph_Driver\src/stm32f10x_can.c ****                                                   TxMessage->RTR);
 551:.\stlib\STM32F10x_StdPeriph_Driver\src/stm32f10x_can.c ****     }
 552:.\stlib\STM32F10x_StdPeriph_Driver\src/stm32f10x_can.c ****     else
 553:.\stlib\STM32F10x_StdPeriph_Driver\src/stm32f10x_can.c ****     {
 554:.\stlib\STM32F10x_StdPeriph_Driver\src/stm32f10x_can.c ****       assert_param(IS_CAN_EXTID(TxMessage->ExtId));
 555:.\stlib\STM32F10x_StdPeriph_Driver\src/stm32f10x_can.c ****       CANx->sTxMailBox[transmit_mailbox].TIR |= ((TxMessage->ExtId << 3) | \
 977              		.loc 1 555 46 view .LVU286
 978 02e0 C3F88021 		str	r2, [r3, #384]	@ _26,
 556:.\stlib\STM32F10x_StdPeriph_Driver\src/stm32f10x_can.c ****                                                   TxMessage->IDE | \
 557:.\stlib\STM32F10x_StdPeriph_Driver\src/stm32f10x_can.c ****                                                   TxMessage->RTR);
 558:.\stlib\STM32F10x_StdPeriph_Driver\src/stm32f10x_can.c ****     }
ARM GAS  C:\Users\skey\AppData\Local\Temp\ccv9NfrL.s 			page 29


 559:.\stlib\STM32F10x_StdPeriph_Driver\src/stm32f10x_can.c ****     
 560:.\stlib\STM32F10x_StdPeriph_Driver\src/stm32f10x_can.c ****     /* Set up the DLC */
 561:.\stlib\STM32F10x_StdPeriph_Driver\src/stm32f10x_can.c ****     TxMessage->DLC &= (uint8_t)0x0000000F;
 979              		.loc 1 561 5 is_stmt 1 view .LVU287
 980              	@ .\stlib\STM32F10x_StdPeriph_Driver\src\stm32f10x_can.c:561:     TxMessage->DLC &= (uint8_t)0x0000
 981              		.loc 1 561 20 is_stmt 0 view .LVU288
 982 02e4 8A7A     		ldrb	r2, [r1, #10]	@ zero_extendqisi2	@ TxMessage_70(D)->DLC, TxMessage_70(D)->DLC
 983              	@ .\stlib\STM32F10x_StdPeriph_Driver\src\stm32f10x_can.c:566:     CANx->sTxMailBox[transmit_mailbox
 562:.\stlib\STM32F10x_StdPeriph_Driver\src/stm32f10x_can.c ****     CANx->sTxMailBox[transmit_mailbox].TDTR &= (uint32_t)0xFFFFFFF0;
 563:.\stlib\STM32F10x_StdPeriph_Driver\src/stm32f10x_can.c ****     CANx->sTxMailBox[transmit_mailbox].TDTR |= TxMessage->DLC;
 564:.\stlib\STM32F10x_StdPeriph_Driver\src/stm32f10x_can.c **** 
 565:.\stlib\STM32F10x_StdPeriph_Driver\src/stm32f10x_can.c ****     /* Set up the data field */
 566:.\stlib\STM32F10x_StdPeriph_Driver\src/stm32f10x_can.c ****     CANx->sTxMailBox[transmit_mailbox].TDLR = (((uint32_t)TxMessage->Data[3] << 24) | 
 984              		.loc 1 566 45 view .LVU289
 985 02e6 6444     		add	r4, r4, ip	@ tmp168, tmp154
 986              	.LVL28:
 987              	@ .\stlib\STM32F10x_StdPeriph_Driver\src\stm32f10x_can.c:561:     TxMessage->DLC &= (uint8_t)0x0000
 561:.\stlib\STM32F10x_StdPeriph_Driver\src/stm32f10x_can.c ****     CANx->sTxMailBox[transmit_mailbox].TDTR &= (uint32_t)0xFFFFFFF0;
 988              		.loc 1 561 20 view .LVU290
 989 02e8 02F00F02 		and	r2, r2, #15	@ _28, TxMessage_70(D)->DLC,
 990 02ec 8A72     		strb	r2, [r1, #10]	@ _28, TxMessage_70(D)->DLC
 562:.\stlib\STM32F10x_StdPeriph_Driver\src/stm32f10x_can.c ****     CANx->sTxMailBox[transmit_mailbox].TDTR &= (uint32_t)0xFFFFFFF0;
 991              		.loc 1 562 5 is_stmt 1 view .LVU291
 992              	@ .\stlib\STM32F10x_StdPeriph_Driver\src\stm32f10x_can.c:562:     CANx->sTxMailBox[transmit_mailbox
 562:.\stlib\STM32F10x_StdPeriph_Driver\src/stm32f10x_can.c ****     CANx->sTxMailBox[transmit_mailbox].TDTR &= (uint32_t)0xFFFFFFF0;
 993              		.loc 1 562 45 is_stmt 0 view .LVU292
 994 02ee D3F88461 		ldr	r6, [r3, #388]	@ _29, MEM[(struct CAN_TypeDef *)_36 + 388B]
 995 02f2 26F00F06 		bic	r6, r6, #15	@ _30, _29,
 996 02f6 C3F88461 		str	r6, [r3, #388]	@ _30, MEM[(struct CAN_TypeDef *)_36 + 388B]
 563:.\stlib\STM32F10x_StdPeriph_Driver\src/stm32f10x_can.c **** 
 997              		.loc 1 563 5 is_stmt 1 view .LVU293
 998              	@ .\stlib\STM32F10x_StdPeriph_Driver\src\stm32f10x_can.c:563:     CANx->sTxMailBox[transmit_mailbox
 563:.\stlib\STM32F10x_StdPeriph_Driver\src/stm32f10x_can.c **** 
 999              		.loc 1 563 45 is_stmt 0 view .LVU294
 1000 02fa D3F88461 		ldr	r6, [r3, #388]	@ _31, MEM[(struct CAN_TypeDef *)_36 + 388B]
 1001 02fe 3243     		orrs	r2, r2, r6	@, _33, _28, _31
 1002 0300 C3F88421 		str	r2, [r3, #388]	@ _33, MEM[(struct CAN_TypeDef *)_36 + 388B]
 1003              		.loc 1 566 5 is_stmt 1 view .LVU295
 1004              	@ .\stlib\STM32F10x_StdPeriph_Driver\src\stm32f10x_can.c:568:                                      
 567:.\stlib\STM32F10x_StdPeriph_Driver\src/stm32f10x_can.c ****                                              ((uint32_t)TxMessage->Data[2] << 16) |
 568:.\stlib\STM32F10x_StdPeriph_Driver\src/stm32f10x_can.c ****                                              ((uint32_t)TxMessage->Data[1] << 8) | 
 1005              		.loc 1 568 82 is_stmt 0 view .LVU296
 1006 0304 D1F80B20 		ldr	r2, [r1, #11]	@ unaligned	@ tmp166, MEM[(unsigned char *)TxMessage_70(D) + 11B]
 1007              	@ .\stlib\STM32F10x_StdPeriph_Driver\src\stm32f10x_can.c:566:     CANx->sTxMailBox[transmit_mailbox
 566:.\stlib\STM32F10x_StdPeriph_Driver\src/stm32f10x_can.c ****                                              ((uint32_t)TxMessage->Data[2] << 16) |
 1008              		.loc 1 566 45 view .LVU297
 1009 0308 C4F88821 		str	r2, [r4, #392]	@ tmp166, CANx_67(D)->sTxMailBox[_7].TDLR
 569:.\stlib\STM32F10x_StdPeriph_Driver\src/stm32f10x_can.c ****                                              ((uint32_t)TxMessage->Data[0]));
 570:.\stlib\STM32F10x_StdPeriph_Driver\src/stm32f10x_can.c ****     CANx->sTxMailBox[transmit_mailbox].TDHR = (((uint32_t)TxMessage->Data[7] << 24) | 
 1010              		.loc 1 570 5 is_stmt 1 view .LVU298
 1011              	@ .\stlib\STM32F10x_StdPeriph_Driver\src\stm32f10x_can.c:572:                                      
 571:.\stlib\STM32F10x_StdPeriph_Driver\src/stm32f10x_can.c ****                                              ((uint32_t)TxMessage->Data[6] << 16) |
 572:.\stlib\STM32F10x_StdPeriph_Driver\src/stm32f10x_can.c ****                                              ((uint32_t)TxMessage->Data[5] << 8) |
 1012              		.loc 1 572 82 is_stmt 0 view .LVU299
 1013 030c D1F80F20 		ldr	r2, [r1, #15]	@ unaligned	@ tmp170, MEM[(unsigned char *)TxMessage_70(D) + 15B]
 1014              	@ .\stlib\STM32F10x_StdPeriph_Driver\src\stm32f10x_can.c:570:     CANx->sTxMailBox[transmit_mailbox
 570:.\stlib\STM32F10x_StdPeriph_Driver\src/stm32f10x_can.c ****                                              ((uint32_t)TxMessage->Data[6] << 16) |
ARM GAS  C:\Users\skey\AppData\Local\Temp\ccv9NfrL.s 			page 30


 1015              		.loc 1 570 45 view .LVU300
 1016 0310 C4F88C21 		str	r2, [r4, #396]	@ tmp170, CANx_67(D)->sTxMailBox[_7].TDHR
 573:.\stlib\STM32F10x_StdPeriph_Driver\src/stm32f10x_can.c ****                                              ((uint32_t)TxMessage->Data[4]));
 574:.\stlib\STM32F10x_StdPeriph_Driver\src/stm32f10x_can.c ****     /* Request transmission */
 575:.\stlib\STM32F10x_StdPeriph_Driver\src/stm32f10x_can.c ****     CANx->sTxMailBox[transmit_mailbox].TIR |= TMIDxR_TXRQ;
 1017              		.loc 1 575 5 is_stmt 1 view .LVU301
 1018              	@ .\stlib\STM32F10x_StdPeriph_Driver\src\stm32f10x_can.c:575:     CANx->sTxMailBox[transmit_mailbox
 1019              		.loc 1 575 44 is_stmt 0 view .LVU302
 1020 0314 D3F88021 		ldr	r2, [r3, #384]	@ _62, MEM[(struct CAN_TypeDef *)_36 + 384B]
 1021 0318 42F00102 		orr	r2, r2, #1	@ _63, _62,
 1022 031c C3F88021 		str	r2, [r3, #384]	@ _63, MEM[(struct CAN_TypeDef *)_36 + 384B]
 1023              	.L62:
 576:.\stlib\STM32F10x_StdPeriph_Driver\src/stm32f10x_can.c ****   }
 577:.\stlib\STM32F10x_StdPeriph_Driver\src/stm32f10x_can.c ****   return transmit_mailbox;
 1024              		.loc 1 577 3 is_stmt 1 view .LVU303
 1025              	@ .\stlib\STM32F10x_StdPeriph_Driver\src\stm32f10x_can.c:578: }
 578:.\stlib\STM32F10x_StdPeriph_Driver\src/stm32f10x_can.c **** }
 1026              		.loc 1 578 1 is_stmt 0 view .LVU304
 1027 0320 F0BD     		pop	{r4, r5, r6, r7, pc}	@
 1028              	.LVL29:
 1029              	.L65:
 1030              	@ .\stlib\STM32F10x_StdPeriph_Driver\src\stm32f10x_can.c:527:     transmit_mailbox = 0;
 527:.\stlib\STM32F10x_StdPeriph_Driver\src/stm32f10x_can.c ****   }
 1031              		.loc 1 527 22 view .LVU305
 1032 0322 0020     		movs	r0, #0	@ <retval>,
 1033 0324 C9E7     		b	.L61		@
 1034              	.L66:
 1035              	@ .\stlib\STM32F10x_StdPeriph_Driver\src\stm32f10x_can.c:531:     transmit_mailbox = 1;
 531:.\stlib\STM32F10x_StdPeriph_Driver\src/stm32f10x_can.c ****   }
 1036              		.loc 1 531 22 view .LVU306
 1037 0326 0120     		movs	r0, #1	@ <retval>,
 1038 0328 C7E7     		b	.L61		@
 1039              	.LVL30:
 1040              	.L63:
 554:.\stlib\STM32F10x_StdPeriph_Driver\src/stm32f10x_can.c ****       CANx->sTxMailBox[transmit_mailbox].TIR |= ((TxMessage->ExtId << 3) | \
 1041              		.loc 1 554 7 is_stmt 1 view .LVU307
 555:.\stlib\STM32F10x_StdPeriph_Driver\src/stm32f10x_can.c ****                                                   TxMessage->IDE | \
 1042              		.loc 1 555 7 view .LVU308
 1043              	@ .\stlib\STM32F10x_StdPeriph_Driver\src\stm32f10x_can.c:556:                                      
 556:.\stlib\STM32F10x_StdPeriph_Driver\src/stm32f10x_can.c ****                                                   TxMessage->RTR);
 1044              		.loc 1 556 66 is_stmt 0 view .LVU309
 1045 032a 4D68     		ldr	r5, [r1, #4]	@ tmp178, TxMessage_70(D)->ExtId
 1046              	@ .\stlib\STM32F10x_StdPeriph_Driver\src\stm32f10x_can.c:555:       CANx->sTxMailBox[transmit_mailb
 555:.\stlib\STM32F10x_StdPeriph_Driver\src/stm32f10x_can.c ****                                                   TxMessage->IDE | \
 1047              		.loc 1 555 46 view .LVU310
 1048 032c D3F88071 		ldr	r7, [r3, #384]	@ _18, MEM[(struct CAN_TypeDef *)_36 + 384B]
 1049              	@ .\stlib\STM32F10x_StdPeriph_Driver\src\stm32f10x_can.c:556:                                      
 556:.\stlib\STM32F10x_StdPeriph_Driver\src/stm32f10x_can.c ****                                                   TxMessage->RTR);
 1050              		.loc 1 556 66 view .LVU311
 1051 0330 42EAC502 		orr	r2, r2, r5, lsl #3	@ tmp160, _58, tmp178,
 1052 0334 3243     		orrs	r2, r2, r6	@, tmp161, tmp160, _10
 1053              	@ .\stlib\STM32F10x_StdPeriph_Driver\src\stm32f10x_can.c:555:       CANx->sTxMailBox[transmit_mailb
 555:.\stlib\STM32F10x_StdPeriph_Driver\src/stm32f10x_can.c ****                                                   TxMessage->IDE | \
 1054              		.loc 1 555 46 view .LVU312
 1055 0336 3A43     		orrs	r2, r2, r7	@, _26, tmp161, _18
 1056 0338 D2E7     		b	.L68		@
 1057              	.LVL31:
ARM GAS  C:\Users\skey\AppData\Local\Temp\ccv9NfrL.s 			page 31


 1058              	.L67:
 1059              	@ .\stlib\STM32F10x_StdPeriph_Driver\src\stm32f10x_can.c:539:     transmit_mailbox = CAN_TxStatus_N
 539:.\stlib\STM32F10x_StdPeriph_Driver\src/stm32f10x_can.c ****   }
 1060              		.loc 1 539 22 view .LVU313
 1061 033a 0420     		movs	r0, #4	@ <retval>,
 1062 033c F0E7     		b	.L62		@
 1063              		.cfi_endproc
 1064              	.LFE36:
 1065              		.size	CAN_Transmit, .-CAN_Transmit
 1066              		.align	1
 1067              		.global	CAN_TransmitStatus
 1068              		.syntax unified
 1069              		.thumb
 1070              		.thumb_func
 1071              		.fpu softvfp
 1072              		.type	CAN_TransmitStatus, %function
 1073              	CAN_TransmitStatus:
 1074              	.LVL32:
 1075              	.LFB37:
 579:.\stlib\STM32F10x_StdPeriph_Driver\src/stm32f10x_can.c **** 
 580:.\stlib\STM32F10x_StdPeriph_Driver\src/stm32f10x_can.c **** /**
 581:.\stlib\STM32F10x_StdPeriph_Driver\src/stm32f10x_can.c ****   * @brief  Checks the transmission of a message.
 582:.\stlib\STM32F10x_StdPeriph_Driver\src/stm32f10x_can.c ****   * @param  CANx:            where x can be 1 or 2 to to select the 
 583:.\stlib\STM32F10x_StdPeriph_Driver\src/stm32f10x_can.c ****   *                          CAN peripheral.
 584:.\stlib\STM32F10x_StdPeriph_Driver\src/stm32f10x_can.c ****   * @param  TransmitMailbox: the number of the mailbox that is used for 
 585:.\stlib\STM32F10x_StdPeriph_Driver\src/stm32f10x_can.c ****   *                          transmission.
 586:.\stlib\STM32F10x_StdPeriph_Driver\src/stm32f10x_can.c ****   * @retval CAN_TxStatus_Ok if the CAN driver transmits the message, CAN_TxStatus_Failed 
 587:.\stlib\STM32F10x_StdPeriph_Driver\src/stm32f10x_can.c ****   *         in an other case.
 588:.\stlib\STM32F10x_StdPeriph_Driver\src/stm32f10x_can.c ****   */
 589:.\stlib\STM32F10x_StdPeriph_Driver\src/stm32f10x_can.c **** uint8_t CAN_TransmitStatus(CAN_TypeDef* CANx, uint8_t TransmitMailbox)
 590:.\stlib\STM32F10x_StdPeriph_Driver\src/stm32f10x_can.c **** {
 1076              		.loc 1 590 1 is_stmt 1 view -0
 1077              		.cfi_startproc
 1078              		@ args = 0, pretend = 0, frame = 0
 1079              		@ frame_needed = 0, uses_anonymous_args = 0
 1080              		@ link register save eliminated.
 591:.\stlib\STM32F10x_StdPeriph_Driver\src/stm32f10x_can.c ****   uint32_t state = 0;
 1081              		.loc 1 591 3 view .LVU315
 592:.\stlib\STM32F10x_StdPeriph_Driver\src/stm32f10x_can.c **** 
 593:.\stlib\STM32F10x_StdPeriph_Driver\src/stm32f10x_can.c ****   /* Check the parameters */
 594:.\stlib\STM32F10x_StdPeriph_Driver\src/stm32f10x_can.c ****   assert_param(IS_CAN_ALL_PERIPH(CANx));
 1082              		.loc 1 594 3 view .LVU316
 595:.\stlib\STM32F10x_StdPeriph_Driver\src/stm32f10x_can.c ****   assert_param(IS_CAN_TRANSMITMAILBOX(TransmitMailbox));
 1083              		.loc 1 595 3 view .LVU317
 596:.\stlib\STM32F10x_StdPeriph_Driver\src/stm32f10x_can.c ****  
 597:.\stlib\STM32F10x_StdPeriph_Driver\src/stm32f10x_can.c ****   switch (TransmitMailbox)
 1084              		.loc 1 597 3 view .LVU318
 1085 033e 0129     		cmp	r1, #1	@ TransmitMailbox,
 1086              	@ .\stlib\STM32F10x_StdPeriph_Driver\src\stm32f10x_can.c:590: {
 590:.\stlib\STM32F10x_StdPeriph_Driver\src/stm32f10x_can.c ****   uint32_t state = 0;
 1087              		.loc 1 590 1 is_stmt 0 view .LVU319
 1088 0340 0346     		mov	r3, r0	@ CANx, tmp133
 1089 0342 0846     		mov	r0, r1	@ TransmitMailbox, tmp134
 1090              	.LVL33:
 1091              	@ .\stlib\STM32F10x_StdPeriph_Driver\src\stm32f10x_can.c:597:   switch (TransmitMailbox)
 1092              		.loc 1 597 3 view .LVU320
 1093 0344 0ED0     		beq	.L70		@,
ARM GAS  C:\Users\skey\AppData\Local\Temp\ccv9NfrL.s 			page 32


 1094 0346 0229     		cmp	r1, #2	@ TransmitMailbox,
 1095 0348 13D0     		beq	.L71		@,
 1096 034a E1B9     		cbnz	r1, .L77	@ TransmitMailbox,
 598:.\stlib\STM32F10x_StdPeriph_Driver\src/stm32f10x_can.c ****   {
 599:.\stlib\STM32F10x_StdPeriph_Driver\src/stm32f10x_can.c ****     case (CAN_TXMAILBOX_0): 
 600:.\stlib\STM32F10x_StdPeriph_Driver\src/stm32f10x_can.c ****       state =   CANx->TSR &  (CAN_TSR_RQCP0 | CAN_TSR_TXOK0 | CAN_TSR_TME0);
 1097              		.loc 1 600 7 is_stmt 1 view .LVU321
 1098              	@ .\stlib\STM32F10x_StdPeriph_Driver\src\stm32f10x_can.c:600:       state =   CANx->TSR &  (CAN_TSR
 1099              		.loc 1 600 21 is_stmt 0 view .LVU322
 1100 034c 9968     		ldr	r1, [r3, #8]	@ _1, CANx_8(D)->TSR
 1101              	.LVL34:
 1102              	@ .\stlib\STM32F10x_StdPeriph_Driver\src\stm32f10x_can.c:600:       state =   CANx->TSR &  (CAN_TSR
 1103              		.loc 1 600 13 view .LVU323
 1104 034e 21F07B41 		bic	r1, r1, #-83886080	@ state, _1,
 1105 0352 21F47F01 		bic	r1, r1, #16711680	@ state, state,
 1106 0356 21F47F41 		bic	r1, r1, #65280	@ state, state,
 1107 035a 21F0FC01 		bic	r1, r1, #252	@ state, state,
 1108              	.LVL35:
 601:.\stlib\STM32F10x_StdPeriph_Driver\src/stm32f10x_can.c ****       break;
 1109              		.loc 1 601 7 is_stmt 1 view .LVU324
 602:.\stlib\STM32F10x_StdPeriph_Driver\src/stm32f10x_can.c ****     case (CAN_TXMAILBOX_1): 
 603:.\stlib\STM32F10x_StdPeriph_Driver\src/stm32f10x_can.c ****       state =   CANx->TSR &  (CAN_TSR_RQCP1 | CAN_TSR_TXOK1 | CAN_TSR_TME1);
 604:.\stlib\STM32F10x_StdPeriph_Driver\src/stm32f10x_can.c ****       break;
 605:.\stlib\STM32F10x_StdPeriph_Driver\src/stm32f10x_can.c ****     case (CAN_TXMAILBOX_2): 
 606:.\stlib\STM32F10x_StdPeriph_Driver\src/stm32f10x_can.c ****       state =   CANx->TSR &  (CAN_TSR_RQCP2 | CAN_TSR_TXOK2 | CAN_TSR_TME2);
 607:.\stlib\STM32F10x_StdPeriph_Driver\src/stm32f10x_can.c ****       break;
 608:.\stlib\STM32F10x_StdPeriph_Driver\src/stm32f10x_can.c ****     default:
 609:.\stlib\STM32F10x_StdPeriph_Driver\src/stm32f10x_can.c ****       state = CAN_TxStatus_Failed;
 610:.\stlib\STM32F10x_StdPeriph_Driver\src/stm32f10x_can.c ****       break;
 611:.\stlib\STM32F10x_StdPeriph_Driver\src/stm32f10x_can.c ****   }
 612:.\stlib\STM32F10x_StdPeriph_Driver\src/stm32f10x_can.c ****   switch (state)
 1110              		.loc 1 612 3 view .LVU325
 1111              	.L73:
 1112              		.loc 1 612 3 is_stmt 0 view .LVU326
 1113 035e 91B1     		cbz	r1, .L77	@ state,
 1114              		.loc 1 612 3 view .LVU327
 1115 0360 0A48     		ldr	r0, .L78	@ tmp127,
 1116 0362 0CE0     		b	.L74		@
 1117              	.LVL36:
 1118              	.L70:
 603:.\stlib\STM32F10x_StdPeriph_Driver\src/stm32f10x_can.c ****       break;
 1119              		.loc 1 603 7 is_stmt 1 view .LVU328
 1120              	@ .\stlib\STM32F10x_StdPeriph_Driver\src\stm32f10x_can.c:603:       state =   CANx->TSR &  (CAN_TSR
 603:.\stlib\STM32F10x_StdPeriph_Driver\src/stm32f10x_can.c ****       break;
 1121              		.loc 1 603 21 is_stmt 0 view .LVU329
 1122 0364 9A68     		ldr	r2, [r3, #8]	@ _2, CANx_8(D)->TSR
 1123              	@ .\stlib\STM32F10x_StdPeriph_Driver\src\stm32f10x_can.c:603:       state =   CANx->TSR &  (CAN_TSR
 603:.\stlib\STM32F10x_StdPeriph_Driver\src/stm32f10x_can.c ****       break;
 1124              		.loc 1 603 13 view .LVU330
 1125 0366 0A4B     		ldr	r3, .L78+4	@ tmp121,
 1126              	.LVL37:
 603:.\stlib\STM32F10x_StdPeriph_Driver\src/stm32f10x_can.c ****       break;
 1127              		.loc 1 603 13 view .LVU331
 1128 0368 02EA0301 		and	r1, r2, r3	@ state, _2, tmp121
 1129              	.LVL38:
 604:.\stlib\STM32F10x_StdPeriph_Driver\src/stm32f10x_can.c ****     case (CAN_TXMAILBOX_2): 
 1130              		.loc 1 604 7 is_stmt 1 view .LVU332
ARM GAS  C:\Users\skey\AppData\Local\Temp\ccv9NfrL.s 			page 33


 1131              		.loc 1 612 3 view .LVU333
 1132 036c 9343     		bics	r3, r3, r2	@ tmp135, tmp121, _2
 1133 036e F6D1     		bne	.L73		@,
 1134 0370 7047     		bx	lr	@
 1135              	.LVL39:
 1136              	.L71:
 606:.\stlib\STM32F10x_StdPeriph_Driver\src/stm32f10x_can.c ****       break;
 1137              		.loc 1 606 7 view .LVU334
 1138              	@ .\stlib\STM32F10x_StdPeriph_Driver\src\stm32f10x_can.c:606:       state =   CANx->TSR &  (CAN_TSR
 606:.\stlib\STM32F10x_StdPeriph_Driver\src/stm32f10x_can.c ****       break;
 1139              		.loc 1 606 21 is_stmt 0 view .LVU335
 1140 0372 9968     		ldr	r1, [r3, #8]	@ _3, CANx_8(D)->TSR
 1141              	.LVL40:
 1142              	@ .\stlib\STM32F10x_StdPeriph_Driver\src\stm32f10x_can.c:606:       state =   CANx->TSR &  (CAN_TSR
 606:.\stlib\STM32F10x_StdPeriph_Driver\src/stm32f10x_can.c ****       break;
 1143              		.loc 1 606 13 view .LVU336
 1144 0374 0748     		ldr	r0, .L78+8	@ tmp123,
 1145              	@ .\stlib\STM32F10x_StdPeriph_Driver\src\stm32f10x_can.c:612:   switch (state)
 1146              		.loc 1 612 3 view .LVU337
 1147 0376 064B     		ldr	r3, .L78+4	@ tmp124,
 1148              	.LVL41:
 1149              	@ .\stlib\STM32F10x_StdPeriph_Driver\src\stm32f10x_can.c:606:       state =   CANx->TSR &  (CAN_TSR
 606:.\stlib\STM32F10x_StdPeriph_Driver\src/stm32f10x_can.c ****       break;
 1150              		.loc 1 606 13 view .LVU338
 1151 0378 0140     		ands	r1, r1, r0	@, state, _3, tmp123
 1152              	.LVL42:
 607:.\stlib\STM32F10x_StdPeriph_Driver\src/stm32f10x_can.c ****     default:
 1153              		.loc 1 607 7 is_stmt 1 view .LVU339
 1154              		.loc 1 612 3 view .LVU340
 1155              		.loc 1 612 3 is_stmt 0 view .LVU341
 1156 037a 9942     		cmp	r1, r3	@ state, tmp124
 1157 037c EFD9     		bls	.L73		@,
 1158              	.L74:
 1159              		.loc 1 612 3 view .LVU342
 1160 037e 0B1A     		subs	r3, r1, r0	@, state, tmp123
 1161 0380 5842     		rsbs	r0, r3, #0	@ state,,
 1162 0382 5841     		adcs	r0, r0, r3	@ state, state,
 1163 0384 7047     		bx	lr	@
 1164              	.LVL43:
 1165              	.L77:
 1166              	@ .\stlib\STM32F10x_StdPeriph_Driver\src\stm32f10x_can.c:615:     case (0x0): state = CAN_TxStatus_
 613:.\stlib\STM32F10x_StdPeriph_Driver\src/stm32f10x_can.c ****   {
 614:.\stlib\STM32F10x_StdPeriph_Driver\src/stm32f10x_can.c ****       /* transmit pending  */
 615:.\stlib\STM32F10x_StdPeriph_Driver\src/stm32f10x_can.c ****     case (0x0): state = CAN_TxStatus_Pending;
 1167              		.loc 1 615 23 view .LVU343
 1168 0386 0220     		movs	r0, #2	@ state,
 1169              	.LVL44:
 616:.\stlib\STM32F10x_StdPeriph_Driver\src/stm32f10x_can.c ****       break;
 617:.\stlib\STM32F10x_StdPeriph_Driver\src/stm32f10x_can.c ****       /* transmit failed  */
 618:.\stlib\STM32F10x_StdPeriph_Driver\src/stm32f10x_can.c ****      case (CAN_TSR_RQCP0 | CAN_TSR_TME0): state = CAN_TxStatus_Failed;
 619:.\stlib\STM32F10x_StdPeriph_Driver\src/stm32f10x_can.c ****       break;
 620:.\stlib\STM32F10x_StdPeriph_Driver\src/stm32f10x_can.c ****      case (CAN_TSR_RQCP1 | CAN_TSR_TME1): state = CAN_TxStatus_Failed;
 621:.\stlib\STM32F10x_StdPeriph_Driver\src/stm32f10x_can.c ****       break;
 622:.\stlib\STM32F10x_StdPeriph_Driver\src/stm32f10x_can.c ****      case (CAN_TSR_RQCP2 | CAN_TSR_TME2): state = CAN_TxStatus_Failed;
 623:.\stlib\STM32F10x_StdPeriph_Driver\src/stm32f10x_can.c ****       break;
 624:.\stlib\STM32F10x_StdPeriph_Driver\src/stm32f10x_can.c ****       /* transmit succeeded  */
 625:.\stlib\STM32F10x_StdPeriph_Driver\src/stm32f10x_can.c ****     case (CAN_TSR_RQCP0 | CAN_TSR_TXOK0 | CAN_TSR_TME0):state = CAN_TxStatus_Ok;
ARM GAS  C:\Users\skey\AppData\Local\Temp\ccv9NfrL.s 			page 34


 626:.\stlib\STM32F10x_StdPeriph_Driver\src/stm32f10x_can.c ****       break;
 627:.\stlib\STM32F10x_StdPeriph_Driver\src/stm32f10x_can.c ****     case (CAN_TSR_RQCP1 | CAN_TSR_TXOK1 | CAN_TSR_TME1):state = CAN_TxStatus_Ok;
 628:.\stlib\STM32F10x_StdPeriph_Driver\src/stm32f10x_can.c ****       break;
 629:.\stlib\STM32F10x_StdPeriph_Driver\src/stm32f10x_can.c ****     case (CAN_TSR_RQCP2 | CAN_TSR_TXOK2 | CAN_TSR_TME2):state = CAN_TxStatus_Ok;
 630:.\stlib\STM32F10x_StdPeriph_Driver\src/stm32f10x_can.c ****       break;
 631:.\stlib\STM32F10x_StdPeriph_Driver\src/stm32f10x_can.c ****     default: state = CAN_TxStatus_Failed;
 632:.\stlib\STM32F10x_StdPeriph_Driver\src/stm32f10x_can.c ****       break;
 633:.\stlib\STM32F10x_StdPeriph_Driver\src/stm32f10x_can.c ****   }
 634:.\stlib\STM32F10x_StdPeriph_Driver\src/stm32f10x_can.c ****   return (uint8_t) state;
 1170              		.loc 1 634 3 is_stmt 1 view .LVU344
 1171              	@ .\stlib\STM32F10x_StdPeriph_Driver\src\stm32f10x_can.c:635: }
 635:.\stlib\STM32F10x_StdPeriph_Driver\src/stm32f10x_can.c **** }
 1172              		.loc 1 635 1 is_stmt 0 view .LVU345
 1173 0388 7047     		bx	lr	@
 1174              	.L79:
 1175 038a 00BF     		.align	2
 1176              	.L78:
 1177 038c 03000004 		.word	67108867
 1178 0390 00030008 		.word	134218496
 1179 0394 00000310 		.word	268632064
 1180              		.cfi_endproc
 1181              	.LFE37:
 1182              		.size	CAN_TransmitStatus, .-CAN_TransmitStatus
 1183              		.align	1
 1184              		.global	CAN_CancelTransmit
 1185              		.syntax unified
 1186              		.thumb
 1187              		.thumb_func
 1188              		.fpu softvfp
 1189              		.type	CAN_CancelTransmit, %function
 1190              	CAN_CancelTransmit:
 1191              	.LVL45:
 1192              	.LFB38:
 636:.\stlib\STM32F10x_StdPeriph_Driver\src/stm32f10x_can.c **** 
 637:.\stlib\STM32F10x_StdPeriph_Driver\src/stm32f10x_can.c **** /**
 638:.\stlib\STM32F10x_StdPeriph_Driver\src/stm32f10x_can.c ****   * @brief  Cancels a transmit request.
 639:.\stlib\STM32F10x_StdPeriph_Driver\src/stm32f10x_can.c ****   * @param  CANx:     where x can be 1 or 2 to to select the CAN peripheral. 
 640:.\stlib\STM32F10x_StdPeriph_Driver\src/stm32f10x_can.c ****   * @param  Mailbox:  Mailbox number.
 641:.\stlib\STM32F10x_StdPeriph_Driver\src/stm32f10x_can.c ****   * @retval None.
 642:.\stlib\STM32F10x_StdPeriph_Driver\src/stm32f10x_can.c ****   */
 643:.\stlib\STM32F10x_StdPeriph_Driver\src/stm32f10x_can.c **** void CAN_CancelTransmit(CAN_TypeDef* CANx, uint8_t Mailbox)
 644:.\stlib\STM32F10x_StdPeriph_Driver\src/stm32f10x_can.c **** {
 1193              		.loc 1 644 1 is_stmt 1 view -0
 1194              		.cfi_startproc
 1195              		@ args = 0, pretend = 0, frame = 0
 1196              		@ frame_needed = 0, uses_anonymous_args = 0
 1197              		@ link register save eliminated.
 645:.\stlib\STM32F10x_StdPeriph_Driver\src/stm32f10x_can.c ****   /* Check the parameters */
 646:.\stlib\STM32F10x_StdPeriph_Driver\src/stm32f10x_can.c ****   assert_param(IS_CAN_ALL_PERIPH(CANx));
 1198              		.loc 1 646 3 view .LVU347
 647:.\stlib\STM32F10x_StdPeriph_Driver\src/stm32f10x_can.c ****   assert_param(IS_CAN_TRANSMITMAILBOX(Mailbox));
 1199              		.loc 1 647 3 view .LVU348
 648:.\stlib\STM32F10x_StdPeriph_Driver\src/stm32f10x_can.c ****   /* abort transmission */
 649:.\stlib\STM32F10x_StdPeriph_Driver\src/stm32f10x_can.c ****   switch (Mailbox)
 1200              		.loc 1 649 3 view .LVU349
 1201 0398 0129     		cmp	r1, #1	@ Mailbox,
 1202 039a 07D0     		beq	.L81		@,
ARM GAS  C:\Users\skey\AppData\Local\Temp\ccv9NfrL.s 			page 35


 1203 039c 0229     		cmp	r1, #2	@ Mailbox,
 1204 039e 09D0     		beq	.L82		@,
 1205 03a0 19B9     		cbnz	r1, .L80	@ Mailbox,
 650:.\stlib\STM32F10x_StdPeriph_Driver\src/stm32f10x_can.c ****   {
 651:.\stlib\STM32F10x_StdPeriph_Driver\src/stm32f10x_can.c ****     case (CAN_TXMAILBOX_0): CANx->TSR |= CAN_TSR_ABRQ0;
 1206              		.loc 1 651 29 view .LVU350
 1207              	@ .\stlib\STM32F10x_StdPeriph_Driver\src\stm32f10x_can.c:651:     case (CAN_TXMAILBOX_0): CANx->TSR
 1208              		.loc 1 651 39 is_stmt 0 view .LVU351
 1209 03a2 8368     		ldr	r3, [r0, #8]	@ _1, CANx_10(D)->TSR
 1210 03a4 43F08003 		orr	r3, r3, #128	@ _2, _1,
 1211              	.L84:
 1212              	@ .\stlib\STM32F10x_StdPeriph_Driver\src\stm32f10x_can.c:655:     case (CAN_TXMAILBOX_2): CANx->TSR
 652:.\stlib\STM32F10x_StdPeriph_Driver\src/stm32f10x_can.c ****       break;
 653:.\stlib\STM32F10x_StdPeriph_Driver\src/stm32f10x_can.c ****     case (CAN_TXMAILBOX_1): CANx->TSR |= CAN_TSR_ABRQ1;
 654:.\stlib\STM32F10x_StdPeriph_Driver\src/stm32f10x_can.c ****       break;
 655:.\stlib\STM32F10x_StdPeriph_Driver\src/stm32f10x_can.c ****     case (CAN_TXMAILBOX_2): CANx->TSR |= CAN_TSR_ABRQ2;
 1213              		.loc 1 655 39 view .LVU352
 1214 03a8 8360     		str	r3, [r0, #8]	@ _6,
 656:.\stlib\STM32F10x_StdPeriph_Driver\src/stm32f10x_can.c ****       break;
 1215              		.loc 1 656 7 is_stmt 1 view .LVU353
 1216              	.L80:
 1217              	@ .\stlib\STM32F10x_StdPeriph_Driver\src\stm32f10x_can.c:660: }
 657:.\stlib\STM32F10x_StdPeriph_Driver\src/stm32f10x_can.c ****     default:
 658:.\stlib\STM32F10x_StdPeriph_Driver\src/stm32f10x_can.c ****       break;
 659:.\stlib\STM32F10x_StdPeriph_Driver\src/stm32f10x_can.c ****   }
 660:.\stlib\STM32F10x_StdPeriph_Driver\src/stm32f10x_can.c **** }
 1218              		.loc 1 660 1 is_stmt 0 view .LVU354
 1219 03aa 7047     		bx	lr	@
 1220              	.L81:
 653:.\stlib\STM32F10x_StdPeriph_Driver\src/stm32f10x_can.c ****       break;
 1221              		.loc 1 653 29 is_stmt 1 view .LVU355
 1222              	@ .\stlib\STM32F10x_StdPeriph_Driver\src\stm32f10x_can.c:653:     case (CAN_TXMAILBOX_1): CANx->TSR
 653:.\stlib\STM32F10x_StdPeriph_Driver\src/stm32f10x_can.c ****       break;
 1223              		.loc 1 653 39 is_stmt 0 view .LVU356
 1224 03ac 8368     		ldr	r3, [r0, #8]	@ _3, CANx_10(D)->TSR
 1225 03ae 43F40043 		orr	r3, r3, #32768	@ _4, _3,
 1226 03b2 F9E7     		b	.L84		@
 1227              	.L82:
 655:.\stlib\STM32F10x_StdPeriph_Driver\src/stm32f10x_can.c ****       break;
 1228              		.loc 1 655 29 is_stmt 1 view .LVU357
 1229              	@ .\stlib\STM32F10x_StdPeriph_Driver\src\stm32f10x_can.c:655:     case (CAN_TXMAILBOX_2): CANx->TSR
 655:.\stlib\STM32F10x_StdPeriph_Driver\src/stm32f10x_can.c ****       break;
 1230              		.loc 1 655 39 is_stmt 0 view .LVU358
 1231 03b4 8368     		ldr	r3, [r0, #8]	@ _5, CANx_10(D)->TSR
 1232 03b6 43F40003 		orr	r3, r3, #8388608	@ _6, _5,
 1233 03ba F5E7     		b	.L84		@
 1234              		.cfi_endproc
 1235              	.LFE38:
 1236              		.size	CAN_CancelTransmit, .-CAN_CancelTransmit
 1237              		.align	1
 1238              		.global	CAN_Receive
 1239              		.syntax unified
 1240              		.thumb
 1241              		.thumb_func
 1242              		.fpu softvfp
 1243              		.type	CAN_Receive, %function
 1244              	CAN_Receive:
ARM GAS  C:\Users\skey\AppData\Local\Temp\ccv9NfrL.s 			page 36


 1245              	.LVL46:
 1246              	.LFB39:
 661:.\stlib\STM32F10x_StdPeriph_Driver\src/stm32f10x_can.c **** 
 662:.\stlib\STM32F10x_StdPeriph_Driver\src/stm32f10x_can.c **** 
 663:.\stlib\STM32F10x_StdPeriph_Driver\src/stm32f10x_can.c **** /**
 664:.\stlib\STM32F10x_StdPeriph_Driver\src/stm32f10x_can.c ****   * @brief  Receives a message.
 665:.\stlib\STM32F10x_StdPeriph_Driver\src/stm32f10x_can.c ****   * @param  CANx:       where x can be 1 or 2 to to select the CAN peripheral.
 666:.\stlib\STM32F10x_StdPeriph_Driver\src/stm32f10x_can.c ****   * @param  FIFONumber: Receive FIFO number, CAN_FIFO0 or CAN_FIFO1.
 667:.\stlib\STM32F10x_StdPeriph_Driver\src/stm32f10x_can.c ****   * @param  RxMessage:  pointer to a structure receive message which contains 
 668:.\stlib\STM32F10x_StdPeriph_Driver\src/stm32f10x_can.c ****   *                     CAN Id, CAN DLC, CAN datas and FMI number.
 669:.\stlib\STM32F10x_StdPeriph_Driver\src/stm32f10x_can.c ****   * @retval None.
 670:.\stlib\STM32F10x_StdPeriph_Driver\src/stm32f10x_can.c ****   */
 671:.\stlib\STM32F10x_StdPeriph_Driver\src/stm32f10x_can.c **** void CAN_Receive(CAN_TypeDef* CANx, uint8_t FIFONumber, CanRxMsg* RxMessage)
 672:.\stlib\STM32F10x_StdPeriph_Driver\src/stm32f10x_can.c **** {
 1247              		.loc 1 672 1 is_stmt 1 view -0
 1248              		.cfi_startproc
 1249              		@ args = 0, pretend = 0, frame = 0
 1250              		@ frame_needed = 0, uses_anonymous_args = 0
 673:.\stlib\STM32F10x_StdPeriph_Driver\src/stm32f10x_can.c ****   /* Check the parameters */
 674:.\stlib\STM32F10x_StdPeriph_Driver\src/stm32f10x_can.c ****   assert_param(IS_CAN_ALL_PERIPH(CANx));
 1251              		.loc 1 674 3 view .LVU360
 675:.\stlib\STM32F10x_StdPeriph_Driver\src/stm32f10x_can.c ****   assert_param(IS_CAN_FIFO(FIFONumber));
 1252              		.loc 1 675 3 view .LVU361
 676:.\stlib\STM32F10x_StdPeriph_Driver\src/stm32f10x_can.c ****   /* Get the Id */
 677:.\stlib\STM32F10x_StdPeriph_Driver\src/stm32f10x_can.c ****   RxMessage->IDE = (uint8_t)0x04 & CANx->sFIFOMailBox[FIFONumber].RIR;
 1253              		.loc 1 677 3 view .LVU362
 1254              	@ .\stlib\STM32F10x_StdPeriph_Driver\src\stm32f10x_can.c:672: {
 672:.\stlib\STM32F10x_StdPeriph_Driver\src/stm32f10x_can.c ****   /* Check the parameters */
 1255              		.loc 1 672 1 is_stmt 0 view .LVU363
 1256 03bc 30B5     		push	{r4, r5, lr}	@
 1257              	.LCFI5:
 1258              		.cfi_def_cfa_offset 12
 1259              		.cfi_offset 4, -12
 1260              		.cfi_offset 5, -8
 1261              		.cfi_offset 14, -4
 1262 03be 00EB0114 		add	r4, r0, r1, lsl #4	@ _68, CANx, FIFONumber,
 1263              	@ .\stlib\STM32F10x_StdPeriph_Driver\src\stm32f10x_can.c:677:   RxMessage->IDE = (uint8_t)0x04 & CA
 1264              		.loc 1 677 66 view .LVU364
 1265 03c2 D4F8B051 		ldr	r5, [r4, #432]	@ _2, MEM[(struct CAN_TypeDef *)_68 + 432B]
 1266 03c6 0B01     		lsls	r3, r1, #4	@ tmp159, FIFONumber,
 1267              	@ .\stlib\STM32F10x_StdPeriph_Driver\src\stm32f10x_can.c:677:   RxMessage->IDE = (uint8_t)0x04 & CA
 1268              		.loc 1 677 34 view .LVU365
 1269 03c8 05F00405 		and	r5, r5, #4	@ _4, _2,
 1270              	@ .\stlib\STM32F10x_StdPeriph_Driver\src\stm32f10x_can.c:677:   RxMessage->IDE = (uint8_t)0x04 & CA
 1271              		.loc 1 677 18 view .LVU366
 1272 03cc 1572     		strb	r5, [r2, #8]	@ _4, RxMessage_49(D)->IDE
 678:.\stlib\STM32F10x_StdPeriph_Driver\src/stm32f10x_can.c ****   if (RxMessage->IDE == CAN_Id_Standard)
 1273              		.loc 1 678 3 is_stmt 1 view .LVU367
 1274              	@ .\stlib\STM32F10x_StdPeriph_Driver\src\stm32f10x_can.c:678:   if (RxMessage->IDE == CAN_Id_Standa
 1275              		.loc 1 678 6 is_stmt 0 view .LVU368
 1276 03ce B5BB     		cbnz	r5, .L86	@ _4,
 679:.\stlib\STM32F10x_StdPeriph_Driver\src/stm32f10x_can.c ****   {
 680:.\stlib\STM32F10x_StdPeriph_Driver\src/stm32f10x_can.c ****     RxMessage->StdId = (uint32_t)0x000007FF & (CANx->sFIFOMailBox[FIFONumber].RIR >> 21);
 1277              		.loc 1 680 5 is_stmt 1 view .LVU369
 1278              	@ .\stlib\STM32F10x_StdPeriph_Driver\src\stm32f10x_can.c:680:     RxMessage->StdId = (uint32_t)0x00
 1279              		.loc 1 680 78 is_stmt 0 view .LVU370
 1280 03d0 D4F8B051 		ldr	r5, [r4, #432]	@ _5,
ARM GAS  C:\Users\skey\AppData\Local\Temp\ccv9NfrL.s 			page 37


 1281              	@ .\stlib\STM32F10x_StdPeriph_Driver\src\stm32f10x_can.c:680:     RxMessage->StdId = (uint32_t)0x00
 1282              		.loc 1 680 83 view .LVU371
 1283 03d4 6D0D     		lsrs	r5, r5, #21	@ tmp163, _5,
 1284              	@ .\stlib\STM32F10x_StdPeriph_Driver\src\stm32f10x_can.c:680:     RxMessage->StdId = (uint32_t)0x00
 1285              		.loc 1 680 22 view .LVU372
 1286 03d6 1560     		str	r5, [r2]	@ tmp163, RxMessage_49(D)->StdId
 1287              	.L87:
 681:.\stlib\STM32F10x_StdPeriph_Driver\src/stm32f10x_can.c ****   }
 682:.\stlib\STM32F10x_StdPeriph_Driver\src/stm32f10x_can.c ****   else
 683:.\stlib\STM32F10x_StdPeriph_Driver\src/stm32f10x_can.c ****   {
 684:.\stlib\STM32F10x_StdPeriph_Driver\src/stm32f10x_can.c ****     RxMessage->ExtId = (uint32_t)0x1FFFFFFF & (CANx->sFIFOMailBox[FIFONumber].RIR >> 3);
 685:.\stlib\STM32F10x_StdPeriph_Driver\src/stm32f10x_can.c ****   }
 686:.\stlib\STM32F10x_StdPeriph_Driver\src/stm32f10x_can.c ****   
 687:.\stlib\STM32F10x_StdPeriph_Driver\src/stm32f10x_can.c ****   RxMessage->RTR = (uint8_t)0x02 & CANx->sFIFOMailBox[FIFONumber].RIR;
 1288              		.loc 1 687 3 is_stmt 1 view .LVU373
 1289              	@ .\stlib\STM32F10x_StdPeriph_Driver\src\stm32f10x_can.c:687:   RxMessage->RTR = (uint8_t)0x02 & CA
 1290              		.loc 1 687 66 is_stmt 0 view .LVU374
 1291 03d8 D4F8B051 		ldr	r5, [r4, #432]	@ _9, MEM[(struct CAN_TypeDef *)_68 + 432B]
 1292              	@ .\stlib\STM32F10x_StdPeriph_Driver\src\stm32f10x_can.c:693:   RxMessage->Data[0] = (uint8_t)0xFF 
 688:.\stlib\STM32F10x_StdPeriph_Driver\src/stm32f10x_can.c ****   /* Get the DLC */
 689:.\stlib\STM32F10x_StdPeriph_Driver\src/stm32f10x_can.c ****   RxMessage->DLC = (uint8_t)0x0F & CANx->sFIFOMailBox[FIFONumber].RDTR;
 690:.\stlib\STM32F10x_StdPeriph_Driver\src/stm32f10x_can.c ****   /* Get the FMI */
 691:.\stlib\STM32F10x_StdPeriph_Driver\src/stm32f10x_can.c ****   RxMessage->FMI = (uint8_t)0xFF & (CANx->sFIFOMailBox[FIFONumber].RDTR >> 8);
 692:.\stlib\STM32F10x_StdPeriph_Driver\src/stm32f10x_can.c ****   /* Get the data field */
 693:.\stlib\STM32F10x_StdPeriph_Driver\src/stm32f10x_can.c ****   RxMessage->Data[0] = (uint8_t)0xFF & CANx->sFIFOMailBox[FIFONumber].RDLR;
 1293              		.loc 1 693 70 view .LVU375
 1294 03dc 0344     		add	r3, r3, r0	@ tmp174, CANx
 1295              	@ .\stlib\STM32F10x_StdPeriph_Driver\src\stm32f10x_can.c:687:   RxMessage->RTR = (uint8_t)0x02 & CA
 687:.\stlib\STM32F10x_StdPeriph_Driver\src/stm32f10x_can.c ****   /* Get the DLC */
 1296              		.loc 1 687 34 view .LVU376
 1297 03de 05F00205 		and	r5, r5, #2	@ tmp166, _9,
 1298              	@ .\stlib\STM32F10x_StdPeriph_Driver\src\stm32f10x_can.c:687:   RxMessage->RTR = (uint8_t)0x02 & CA
 687:.\stlib\STM32F10x_StdPeriph_Driver\src/stm32f10x_can.c ****   /* Get the DLC */
 1299              		.loc 1 687 18 view .LVU377
 1300 03e2 5572     		strb	r5, [r2, #9]	@ tmp166, RxMessage_49(D)->RTR
 689:.\stlib\STM32F10x_StdPeriph_Driver\src/stm32f10x_can.c ****   /* Get the FMI */
 1301              		.loc 1 689 3 is_stmt 1 view .LVU378
 1302              	@ .\stlib\STM32F10x_StdPeriph_Driver\src\stm32f10x_can.c:689:   RxMessage->DLC = (uint8_t)0x0F & CA
 689:.\stlib\STM32F10x_StdPeriph_Driver\src/stm32f10x_can.c ****   /* Get the FMI */
 1303              		.loc 1 689 66 is_stmt 0 view .LVU379
 1304 03e4 D4F8B451 		ldr	r5, [r4, #436]	@ _12, MEM[(struct CAN_TypeDef *)_68 + 436B]
 1305              	@ .\stlib\STM32F10x_StdPeriph_Driver\src\stm32f10x_can.c:689:   RxMessage->DLC = (uint8_t)0x0F & CA
 689:.\stlib\STM32F10x_StdPeriph_Driver\src/stm32f10x_can.c ****   /* Get the FMI */
 1306              		.loc 1 689 34 view .LVU380
 1307 03e8 05F00F05 		and	r5, r5, #15	@ tmp169, _12,
 1308              	@ .\stlib\STM32F10x_StdPeriph_Driver\src\stm32f10x_can.c:689:   RxMessage->DLC = (uint8_t)0x0F & CA
 689:.\stlib\STM32F10x_StdPeriph_Driver\src/stm32f10x_can.c ****   /* Get the FMI */
 1309              		.loc 1 689 18 view .LVU381
 1310 03ec 9572     		strb	r5, [r2, #10]	@ tmp169, RxMessage_49(D)->DLC
 691:.\stlib\STM32F10x_StdPeriph_Driver\src/stm32f10x_can.c ****   /* Get the data field */
 1311              		.loc 1 691 3 is_stmt 1 view .LVU382
 1312              	@ .\stlib\STM32F10x_StdPeriph_Driver\src\stm32f10x_can.c:691:   RxMessage->FMI = (uint8_t)0xFF & (C
 691:.\stlib\STM32F10x_StdPeriph_Driver\src/stm32f10x_can.c ****   /* Get the data field */
 1313              		.loc 1 691 67 is_stmt 0 view .LVU383
 1314 03ee D4F8B441 		ldr	r4, [r4, #436]	@ _15, MEM[(struct CAN_TypeDef *)_68 + 436B]
 1315              	@ .\stlib\STM32F10x_StdPeriph_Driver\src\stm32f10x_can.c:691:   RxMessage->FMI = (uint8_t)0xFF & (C
 691:.\stlib\STM32F10x_StdPeriph_Driver\src/stm32f10x_can.c ****   /* Get the data field */
ARM GAS  C:\Users\skey\AppData\Local\Temp\ccv9NfrL.s 			page 38


 1316              		.loc 1 691 73 view .LVU384
 1317 03f2 240A     		lsrs	r4, r4, #8	@ tmp171, _15,
 1318              	@ .\stlib\STM32F10x_StdPeriph_Driver\src\stm32f10x_can.c:691:   RxMessage->FMI = (uint8_t)0xFF & (C
 691:.\stlib\STM32F10x_StdPeriph_Driver\src/stm32f10x_can.c ****   /* Get the data field */
 1319              		.loc 1 691 18 view .LVU385
 1320 03f4 D474     		strb	r4, [r2, #19]	@ tmp171, RxMessage_49(D)->FMI
 1321              		.loc 1 693 3 is_stmt 1 view .LVU386
 1322              	@ .\stlib\STM32F10x_StdPeriph_Driver\src\stm32f10x_can.c:693:   RxMessage->Data[0] = (uint8_t)0xFF 
 1323              		.loc 1 693 70 is_stmt 0 view .LVU387
 1324 03f6 D3F8B841 		ldr	r4, [r3, #440]	@ _18, CANx_48(D)->sFIFOMailBox[_1].RDLR
 1325              	@ .\stlib\STM32F10x_StdPeriph_Driver\src\stm32f10x_can.c:693:   RxMessage->Data[0] = (uint8_t)0xFF 
 1326              		.loc 1 693 22 view .LVU388
 1327 03fa D472     		strb	r4, [r2, #11]	@ _18, RxMessage_49(D)->Data
 694:.\stlib\STM32F10x_StdPeriph_Driver\src/stm32f10x_can.c ****   RxMessage->Data[1] = (uint8_t)0xFF & (CANx->sFIFOMailBox[FIFONumber].RDLR >> 8);
 1328              		.loc 1 694 3 is_stmt 1 view .LVU389
 1329              	@ .\stlib\STM32F10x_StdPeriph_Driver\src\stm32f10x_can.c:694:   RxMessage->Data[1] = (uint8_t)0xFF 
 1330              		.loc 1 694 71 is_stmt 0 view .LVU390
 1331 03fc D3F8B841 		ldr	r4, [r3, #440]	@ _20, CANx_48(D)->sFIFOMailBox[_1].RDLR
 1332              	@ .\stlib\STM32F10x_StdPeriph_Driver\src\stm32f10x_can.c:694:   RxMessage->Data[1] = (uint8_t)0xFF 
 1333              		.loc 1 694 77 view .LVU391
 1334 0400 240A     		lsrs	r4, r4, #8	@ tmp180, _20,
 1335              	@ .\stlib\STM32F10x_StdPeriph_Driver\src\stm32f10x_can.c:694:   RxMessage->Data[1] = (uint8_t)0xFF 
 1336              		.loc 1 694 22 view .LVU392
 1337 0402 1473     		strb	r4, [r2, #12]	@ tmp180, RxMessage_49(D)->Data
 695:.\stlib\STM32F10x_StdPeriph_Driver\src/stm32f10x_can.c ****   RxMessage->Data[2] = (uint8_t)0xFF & (CANx->sFIFOMailBox[FIFONumber].RDLR >> 16);
 1338              		.loc 1 695 3 is_stmt 1 view .LVU393
 1339              	@ .\stlib\STM32F10x_StdPeriph_Driver\src\stm32f10x_can.c:695:   RxMessage->Data[2] = (uint8_t)0xFF 
 1340              		.loc 1 695 71 is_stmt 0 view .LVU394
 1341 0404 D3F8B841 		ldr	r4, [r3, #440]	@ _23, CANx_48(D)->sFIFOMailBox[_1].RDLR
 1342              	@ .\stlib\STM32F10x_StdPeriph_Driver\src\stm32f10x_can.c:695:   RxMessage->Data[2] = (uint8_t)0xFF 
 1343              		.loc 1 695 77 view .LVU395
 1344 0408 240C     		lsrs	r4, r4, #16	@ tmp185, _23,
 1345              	@ .\stlib\STM32F10x_StdPeriph_Driver\src\stm32f10x_can.c:695:   RxMessage->Data[2] = (uint8_t)0xFF 
 1346              		.loc 1 695 22 view .LVU396
 1347 040a 5473     		strb	r4, [r2, #13]	@ tmp185, RxMessage_49(D)->Data
 696:.\stlib\STM32F10x_StdPeriph_Driver\src/stm32f10x_can.c ****   RxMessage->Data[3] = (uint8_t)0xFF & (CANx->sFIFOMailBox[FIFONumber].RDLR >> 24);
 1348              		.loc 1 696 3 is_stmt 1 view .LVU397
 1349              	@ .\stlib\STM32F10x_StdPeriph_Driver\src\stm32f10x_can.c:696:   RxMessage->Data[3] = (uint8_t)0xFF 
 1350              		.loc 1 696 71 is_stmt 0 view .LVU398
 1351 040c D3F8B841 		ldr	r4, [r3, #440]	@ _26, CANx_48(D)->sFIFOMailBox[_1].RDLR
 1352              	@ .\stlib\STM32F10x_StdPeriph_Driver\src\stm32f10x_can.c:696:   RxMessage->Data[3] = (uint8_t)0xFF 
 1353              		.loc 1 696 77 view .LVU399
 1354 0410 240E     		lsrs	r4, r4, #24	@ tmp190, _26,
 1355              	@ .\stlib\STM32F10x_StdPeriph_Driver\src\stm32f10x_can.c:696:   RxMessage->Data[3] = (uint8_t)0xFF 
 1356              		.loc 1 696 22 view .LVU400
 1357 0412 9473     		strb	r4, [r2, #14]	@ tmp190, RxMessage_49(D)->Data
 697:.\stlib\STM32F10x_StdPeriph_Driver\src/stm32f10x_can.c ****   RxMessage->Data[4] = (uint8_t)0xFF & CANx->sFIFOMailBox[FIFONumber].RDHR;
 1358              		.loc 1 697 3 is_stmt 1 view .LVU401
 1359              	@ .\stlib\STM32F10x_StdPeriph_Driver\src\stm32f10x_can.c:697:   RxMessage->Data[4] = (uint8_t)0xFF 
 1360              		.loc 1 697 70 is_stmt 0 view .LVU402
 1361 0414 D3F8BC41 		ldr	r4, [r3, #444]	@ _29, CANx_48(D)->sFIFOMailBox[_1].RDHR
 1362              	@ .\stlib\STM32F10x_StdPeriph_Driver\src\stm32f10x_can.c:697:   RxMessage->Data[4] = (uint8_t)0xFF 
 1363              		.loc 1 697 22 view .LVU403
 1364 0418 D473     		strb	r4, [r2, #15]	@ _29, RxMessage_49(D)->Data
 698:.\stlib\STM32F10x_StdPeriph_Driver\src/stm32f10x_can.c ****   RxMessage->Data[5] = (uint8_t)0xFF & (CANx->sFIFOMailBox[FIFONumber].RDHR >> 8);
 1365              		.loc 1 698 3 is_stmt 1 view .LVU404
 1366              	@ .\stlib\STM32F10x_StdPeriph_Driver\src\stm32f10x_can.c:698:   RxMessage->Data[5] = (uint8_t)0xFF 
ARM GAS  C:\Users\skey\AppData\Local\Temp\ccv9NfrL.s 			page 39


 1367              		.loc 1 698 71 is_stmt 0 view .LVU405
 1368 041a D3F8BC41 		ldr	r4, [r3, #444]	@ _31, CANx_48(D)->sFIFOMailBox[_1].RDHR
 1369              	@ .\stlib\STM32F10x_StdPeriph_Driver\src\stm32f10x_can.c:698:   RxMessage->Data[5] = (uint8_t)0xFF 
 1370              		.loc 1 698 77 view .LVU406
 1371 041e 240A     		lsrs	r4, r4, #8	@ tmp199, _31,
 1372              	@ .\stlib\STM32F10x_StdPeriph_Driver\src\stm32f10x_can.c:698:   RxMessage->Data[5] = (uint8_t)0xFF 
 1373              		.loc 1 698 22 view .LVU407
 1374 0420 1474     		strb	r4, [r2, #16]	@ tmp199, RxMessage_49(D)->Data
 699:.\stlib\STM32F10x_StdPeriph_Driver\src/stm32f10x_can.c ****   RxMessage->Data[6] = (uint8_t)0xFF & (CANx->sFIFOMailBox[FIFONumber].RDHR >> 16);
 1375              		.loc 1 699 3 is_stmt 1 view .LVU408
 1376              	@ .\stlib\STM32F10x_StdPeriph_Driver\src\stm32f10x_can.c:699:   RxMessage->Data[6] = (uint8_t)0xFF 
 1377              		.loc 1 699 71 is_stmt 0 view .LVU409
 1378 0422 D3F8BC41 		ldr	r4, [r3, #444]	@ _34, CANx_48(D)->sFIFOMailBox[_1].RDHR
 1379              	@ .\stlib\STM32F10x_StdPeriph_Driver\src\stm32f10x_can.c:699:   RxMessage->Data[6] = (uint8_t)0xFF 
 1380              		.loc 1 699 77 view .LVU410
 1381 0426 240C     		lsrs	r4, r4, #16	@ tmp204, _34,
 1382              	@ .\stlib\STM32F10x_StdPeriph_Driver\src\stm32f10x_can.c:699:   RxMessage->Data[6] = (uint8_t)0xFF 
 1383              		.loc 1 699 22 view .LVU411
 1384 0428 5474     		strb	r4, [r2, #17]	@ tmp204, RxMessage_49(D)->Data
 700:.\stlib\STM32F10x_StdPeriph_Driver\src/stm32f10x_can.c ****   RxMessage->Data[7] = (uint8_t)0xFF & (CANx->sFIFOMailBox[FIFONumber].RDHR >> 24);
 1385              		.loc 1 700 3 is_stmt 1 view .LVU412
 1386              	@ .\stlib\STM32F10x_StdPeriph_Driver\src\stm32f10x_can.c:700:   RxMessage->Data[7] = (uint8_t)0xFF 
 1387              		.loc 1 700 71 is_stmt 0 view .LVU413
 1388 042a D3F8BC31 		ldr	r3, [r3, #444]	@ _37, CANx_48(D)->sFIFOMailBox[_1].RDHR
 1389              	@ .\stlib\STM32F10x_StdPeriph_Driver\src\stm32f10x_can.c:700:   RxMessage->Data[7] = (uint8_t)0xFF 
 1390              		.loc 1 700 77 view .LVU414
 1391 042e 1B0E     		lsrs	r3, r3, #24	@ tmp209, _37,
 1392              	@ .\stlib\STM32F10x_StdPeriph_Driver\src\stm32f10x_can.c:700:   RxMessage->Data[7] = (uint8_t)0xFF 
 1393              		.loc 1 700 22 view .LVU415
 1394 0430 9374     		strb	r3, [r2, #18]	@ tmp209, RxMessage_49(D)->Data
 701:.\stlib\STM32F10x_StdPeriph_Driver\src/stm32f10x_can.c ****   /* Release the FIFO */
 702:.\stlib\STM32F10x_StdPeriph_Driver\src/stm32f10x_can.c ****   /* Release FIFO0 */
 703:.\stlib\STM32F10x_StdPeriph_Driver\src/stm32f10x_can.c ****   if (FIFONumber == CAN_FIFO0)
 1395              		.loc 1 703 3 is_stmt 1 view .LVU416
 1396              	@ .\stlib\STM32F10x_StdPeriph_Driver\src\stm32f10x_can.c:703:   if (FIFONumber == CAN_FIFO0)
 1397              		.loc 1 703 6 is_stmt 0 view .LVU417
 1398 0432 49B9     		cbnz	r1, .L88	@ FIFONumber,
 704:.\stlib\STM32F10x_StdPeriph_Driver\src/stm32f10x_can.c ****   {
 705:.\stlib\STM32F10x_StdPeriph_Driver\src/stm32f10x_can.c ****     CANx->RF0R |= CAN_RF0R_RFOM0;
 1399              		.loc 1 705 5 is_stmt 1 view .LVU418
 1400              	@ .\stlib\STM32F10x_StdPeriph_Driver\src\stm32f10x_can.c:705:     CANx->RF0R |= CAN_RF0R_RFOM0;
 1401              		.loc 1 705 16 is_stmt 0 view .LVU419
 1402 0434 C368     		ldr	r3, [r0, #12]	@ _40, CANx_48(D)->RF0R
 1403 0436 43F02003 		orr	r3, r3, #32	@ _41, _40,
 1404 043a C360     		str	r3, [r0, #12]	@ _41, CANx_48(D)->RF0R
 1405              	.L85:
 1406              	@ .\stlib\STM32F10x_StdPeriph_Driver\src\stm32f10x_can.c:712: }
 706:.\stlib\STM32F10x_StdPeriph_Driver\src/stm32f10x_can.c ****   }
 707:.\stlib\STM32F10x_StdPeriph_Driver\src/stm32f10x_can.c ****   /* Release FIFO1 */
 708:.\stlib\STM32F10x_StdPeriph_Driver\src/stm32f10x_can.c ****   else /* FIFONumber == CAN_FIFO1 */
 709:.\stlib\STM32F10x_StdPeriph_Driver\src/stm32f10x_can.c ****   {
 710:.\stlib\STM32F10x_StdPeriph_Driver\src/stm32f10x_can.c ****     CANx->RF1R |= CAN_RF1R_RFOM1;
 711:.\stlib\STM32F10x_StdPeriph_Driver\src/stm32f10x_can.c ****   }
 712:.\stlib\STM32F10x_StdPeriph_Driver\src/stm32f10x_can.c **** }
 1407              		.loc 1 712 1 view .LVU420
 1408 043c 30BD     		pop	{r4, r5, pc}	@
 1409              	.L86:
ARM GAS  C:\Users\skey\AppData\Local\Temp\ccv9NfrL.s 			page 40


 684:.\stlib\STM32F10x_StdPeriph_Driver\src/stm32f10x_can.c ****   }
 1410              		.loc 1 684 5 is_stmt 1 view .LVU421
 1411              	@ .\stlib\STM32F10x_StdPeriph_Driver\src\stm32f10x_can.c:684:     RxMessage->ExtId = (uint32_t)0x1F
 684:.\stlib\STM32F10x_StdPeriph_Driver\src/stm32f10x_can.c ****   }
 1412              		.loc 1 684 78 is_stmt 0 view .LVU422
 1413 043e D4F8B051 		ldr	r5, [r4, #432]	@ _7,
 1414              	@ .\stlib\STM32F10x_StdPeriph_Driver\src\stm32f10x_can.c:684:     RxMessage->ExtId = (uint32_t)0x1F
 684:.\stlib\STM32F10x_StdPeriph_Driver\src/stm32f10x_can.c ****   }
 1415              		.loc 1 684 83 view .LVU423
 1416 0442 ED08     		lsrs	r5, r5, #3	@ tmp164, _7,
 1417              	@ .\stlib\STM32F10x_StdPeriph_Driver\src\stm32f10x_can.c:684:     RxMessage->ExtId = (uint32_t)0x1F
 684:.\stlib\STM32F10x_StdPeriph_Driver\src/stm32f10x_can.c ****   }
 1418              		.loc 1 684 22 view .LVU424
 1419 0444 5560     		str	r5, [r2, #4]	@ tmp164, RxMessage_49(D)->ExtId
 1420 0446 C7E7     		b	.L87		@
 1421              	.L88:
 710:.\stlib\STM32F10x_StdPeriph_Driver\src/stm32f10x_can.c ****   }
 1422              		.loc 1 710 5 is_stmt 1 view .LVU425
 1423              	@ .\stlib\STM32F10x_StdPeriph_Driver\src\stm32f10x_can.c:710:     CANx->RF1R |= CAN_RF1R_RFOM1;
 710:.\stlib\STM32F10x_StdPeriph_Driver\src/stm32f10x_can.c ****   }
 1424              		.loc 1 710 16 is_stmt 0 view .LVU426
 1425 0448 0369     		ldr	r3, [r0, #16]	@ _42, CANx_48(D)->RF1R
 1426 044a 43F02003 		orr	r3, r3, #32	@ _43, _42,
 1427 044e 0361     		str	r3, [r0, #16]	@ _43, CANx_48(D)->RF1R
 1428              	@ .\stlib\STM32F10x_StdPeriph_Driver\src\stm32f10x_can.c:712: }
 1429              		.loc 1 712 1 view .LVU427
 1430 0450 F4E7     		b	.L85		@
 1431              		.cfi_endproc
 1432              	.LFE39:
 1433              		.size	CAN_Receive, .-CAN_Receive
 1434              		.align	1
 1435              		.global	CAN_FIFORelease
 1436              		.syntax unified
 1437              		.thumb
 1438              		.thumb_func
 1439              		.fpu softvfp
 1440              		.type	CAN_FIFORelease, %function
 1441              	CAN_FIFORelease:
 1442              	.LVL47:
 1443              	.LFB40:
 713:.\stlib\STM32F10x_StdPeriph_Driver\src/stm32f10x_can.c **** 
 714:.\stlib\STM32F10x_StdPeriph_Driver\src/stm32f10x_can.c **** /**
 715:.\stlib\STM32F10x_StdPeriph_Driver\src/stm32f10x_can.c ****   * @brief  Releases the specified FIFO.
 716:.\stlib\STM32F10x_StdPeriph_Driver\src/stm32f10x_can.c ****   * @param  CANx:       where x can be 1 or 2 to to select the CAN peripheral. 
 717:.\stlib\STM32F10x_StdPeriph_Driver\src/stm32f10x_can.c ****   * @param  FIFONumber: FIFO to release, CAN_FIFO0 or CAN_FIFO1.
 718:.\stlib\STM32F10x_StdPeriph_Driver\src/stm32f10x_can.c ****   * @retval None.
 719:.\stlib\STM32F10x_StdPeriph_Driver\src/stm32f10x_can.c ****   */
 720:.\stlib\STM32F10x_StdPeriph_Driver\src/stm32f10x_can.c **** void CAN_FIFORelease(CAN_TypeDef* CANx, uint8_t FIFONumber)
 721:.\stlib\STM32F10x_StdPeriph_Driver\src/stm32f10x_can.c **** {
 1444              		.loc 1 721 1 is_stmt 1 view -0
 1445              		.cfi_startproc
 1446              		@ args = 0, pretend = 0, frame = 0
 1447              		@ frame_needed = 0, uses_anonymous_args = 0
 1448              		@ link register save eliminated.
 722:.\stlib\STM32F10x_StdPeriph_Driver\src/stm32f10x_can.c ****   /* Check the parameters */
 723:.\stlib\STM32F10x_StdPeriph_Driver\src/stm32f10x_can.c ****   assert_param(IS_CAN_ALL_PERIPH(CANx));
 1449              		.loc 1 723 3 view .LVU429
ARM GAS  C:\Users\skey\AppData\Local\Temp\ccv9NfrL.s 			page 41


 724:.\stlib\STM32F10x_StdPeriph_Driver\src/stm32f10x_can.c ****   assert_param(IS_CAN_FIFO(FIFONumber));
 1450              		.loc 1 724 3 view .LVU430
 725:.\stlib\STM32F10x_StdPeriph_Driver\src/stm32f10x_can.c ****   /* Release FIFO0 */
 726:.\stlib\STM32F10x_StdPeriph_Driver\src/stm32f10x_can.c ****   if (FIFONumber == CAN_FIFO0)
 1451              		.loc 1 726 3 view .LVU431
 1452              	@ .\stlib\STM32F10x_StdPeriph_Driver\src\stm32f10x_can.c:726:   if (FIFONumber == CAN_FIFO0)
 1453              		.loc 1 726 6 is_stmt 0 view .LVU432
 1454 0452 21B9     		cbnz	r1, .L91	@ tmp117,
 727:.\stlib\STM32F10x_StdPeriph_Driver\src/stm32f10x_can.c ****   {
 728:.\stlib\STM32F10x_StdPeriph_Driver\src/stm32f10x_can.c ****     CANx->RF0R |= CAN_RF0R_RFOM0;
 1455              		.loc 1 728 5 is_stmt 1 view .LVU433
 1456              	@ .\stlib\STM32F10x_StdPeriph_Driver\src\stm32f10x_can.c:728:     CANx->RF0R |= CAN_RF0R_RFOM0;
 1457              		.loc 1 728 16 is_stmt 0 view .LVU434
 1458 0454 C368     		ldr	r3, [r0, #12]	@ _1, CANx_8(D)->RF0R
 1459 0456 43F02003 		orr	r3, r3, #32	@ _2, _1,
 1460 045a C360     		str	r3, [r0, #12]	@ _2, CANx_8(D)->RF0R
 1461 045c 7047     		bx	lr	@
 1462              	.L91:
 729:.\stlib\STM32F10x_StdPeriph_Driver\src/stm32f10x_can.c ****   }
 730:.\stlib\STM32F10x_StdPeriph_Driver\src/stm32f10x_can.c ****   /* Release FIFO1 */
 731:.\stlib\STM32F10x_StdPeriph_Driver\src/stm32f10x_can.c ****   else /* FIFONumber == CAN_FIFO1 */
 732:.\stlib\STM32F10x_StdPeriph_Driver\src/stm32f10x_can.c ****   {
 733:.\stlib\STM32F10x_StdPeriph_Driver\src/stm32f10x_can.c ****     CANx->RF1R |= CAN_RF1R_RFOM1;
 1463              		.loc 1 733 5 is_stmt 1 view .LVU435
 1464              	@ .\stlib\STM32F10x_StdPeriph_Driver\src\stm32f10x_can.c:733:     CANx->RF1R |= CAN_RF1R_RFOM1;
 1465              		.loc 1 733 16 is_stmt 0 view .LVU436
 1466 045e 0369     		ldr	r3, [r0, #16]	@ _3, CANx_8(D)->RF1R
 1467 0460 43F02003 		orr	r3, r3, #32	@ _4, _3,
 1468 0464 0361     		str	r3, [r0, #16]	@ _4, CANx_8(D)->RF1R
 1469              	@ .\stlib\STM32F10x_StdPeriph_Driver\src\stm32f10x_can.c:735: }
 734:.\stlib\STM32F10x_StdPeriph_Driver\src/stm32f10x_can.c ****   }
 735:.\stlib\STM32F10x_StdPeriph_Driver\src/stm32f10x_can.c **** }
 1470              		.loc 1 735 1 view .LVU437
 1471 0466 7047     		bx	lr	@
 1472              		.cfi_endproc
 1473              	.LFE40:
 1474              		.size	CAN_FIFORelease, .-CAN_FIFORelease
 1475              		.align	1
 1476              		.global	CAN_MessagePending
 1477              		.syntax unified
 1478              		.thumb
 1479              		.thumb_func
 1480              		.fpu softvfp
 1481              		.type	CAN_MessagePending, %function
 1482              	CAN_MessagePending:
 1483              	.LVL48:
 1484              	.LFB41:
 736:.\stlib\STM32F10x_StdPeriph_Driver\src/stm32f10x_can.c **** 
 737:.\stlib\STM32F10x_StdPeriph_Driver\src/stm32f10x_can.c **** /**
 738:.\stlib\STM32F10x_StdPeriph_Driver\src/stm32f10x_can.c ****   * @brief  Returns the number of pending messages.
 739:.\stlib\STM32F10x_StdPeriph_Driver\src/stm32f10x_can.c ****   * @param  CANx:       where x can be 1 or 2 to to select the CAN peripheral.
 740:.\stlib\STM32F10x_StdPeriph_Driver\src/stm32f10x_can.c ****   * @param  FIFONumber: Receive FIFO number, CAN_FIFO0 or CAN_FIFO1.
 741:.\stlib\STM32F10x_StdPeriph_Driver\src/stm32f10x_can.c ****   * @retval NbMessage : which is the number of pending message.
 742:.\stlib\STM32F10x_StdPeriph_Driver\src/stm32f10x_can.c ****   */
 743:.\stlib\STM32F10x_StdPeriph_Driver\src/stm32f10x_can.c **** uint8_t CAN_MessagePending(CAN_TypeDef* CANx, uint8_t FIFONumber)
 744:.\stlib\STM32F10x_StdPeriph_Driver\src/stm32f10x_can.c **** {
 1485              		.loc 1 744 1 is_stmt 1 view -0
ARM GAS  C:\Users\skey\AppData\Local\Temp\ccv9NfrL.s 			page 42


 1486              		.cfi_startproc
 1487              		@ args = 0, pretend = 0, frame = 0
 1488              		@ frame_needed = 0, uses_anonymous_args = 0
 1489              		@ link register save eliminated.
 745:.\stlib\STM32F10x_StdPeriph_Driver\src/stm32f10x_can.c ****   uint8_t message_pending=0;
 1490              		.loc 1 745 3 view .LVU439
 746:.\stlib\STM32F10x_StdPeriph_Driver\src/stm32f10x_can.c ****   /* Check the parameters */
 747:.\stlib\STM32F10x_StdPeriph_Driver\src/stm32f10x_can.c ****   assert_param(IS_CAN_ALL_PERIPH(CANx));
 1491              		.loc 1 747 3 view .LVU440
 748:.\stlib\STM32F10x_StdPeriph_Driver\src/stm32f10x_can.c ****   assert_param(IS_CAN_FIFO(FIFONumber));
 1492              		.loc 1 748 3 view .LVU441
 749:.\stlib\STM32F10x_StdPeriph_Driver\src/stm32f10x_can.c ****   if (FIFONumber == CAN_FIFO0)
 1493              		.loc 1 749 3 view .LVU442
 1494              	@ .\stlib\STM32F10x_StdPeriph_Driver\src\stm32f10x_can.c:749:   if (FIFONumber == CAN_FIFO0)
 1495              		.loc 1 749 6 is_stmt 0 view .LVU443
 1496 0468 19B9     		cbnz	r1, .L94	@ FIFONumber,
 750:.\stlib\STM32F10x_StdPeriph_Driver\src/stm32f10x_can.c ****   {
 751:.\stlib\STM32F10x_StdPeriph_Driver\src/stm32f10x_can.c ****     message_pending = (uint8_t)(CANx->RF0R&(uint32_t)0x03);
 1497              		.loc 1 751 5 is_stmt 1 view .LVU444
 1498              	@ .\stlib\STM32F10x_StdPeriph_Driver\src\stm32f10x_can.c:751:     message_pending = (uint8_t)(CANx-
 1499              		.loc 1 751 37 is_stmt 0 view .LVU445
 1500 046a C068     		ldr	r0, [r0, #12]	@ _1, CANx_8(D)->RF0R
 1501              	.LVL49:
 1502              	.L97:
 1503              	@ .\stlib\STM32F10x_StdPeriph_Driver\src\stm32f10x_can.c:755:     message_pending = (uint8_t)(CANx-
 752:.\stlib\STM32F10x_StdPeriph_Driver\src/stm32f10x_can.c ****   }
 753:.\stlib\STM32F10x_StdPeriph_Driver\src/stm32f10x_can.c ****   else if (FIFONumber == CAN_FIFO1)
 754:.\stlib\STM32F10x_StdPeriph_Driver\src/stm32f10x_can.c ****   {
 755:.\stlib\STM32F10x_StdPeriph_Driver\src/stm32f10x_can.c ****     message_pending = (uint8_t)(CANx->RF1R&(uint32_t)0x03);
 1504              		.loc 1 755 21 view .LVU446
 1505 046c 00F00300 		and	r0, r0, #3	@ <retval>, _3,
 1506              	.LVL50:
 1507              		.loc 1 755 21 view .LVU447
 1508 0470 7047     		bx	lr	@
 1509              	.LVL51:
 1510              	.L94:
 753:.\stlib\STM32F10x_StdPeriph_Driver\src/stm32f10x_can.c ****   {
 1511              		.loc 1 753 8 is_stmt 1 view .LVU448
 1512              	@ .\stlib\STM32F10x_StdPeriph_Driver\src\stm32f10x_can.c:753:   else if (FIFONumber == CAN_FIFO1)
 753:.\stlib\STM32F10x_StdPeriph_Driver\src/stm32f10x_can.c ****   {
 1513              		.loc 1 753 11 is_stmt 0 view .LVU449
 1514 0472 0129     		cmp	r1, #1	@ FIFONumber,
 1515 0474 01D1     		bne	.L96		@,
 1516              		.loc 1 755 5 is_stmt 1 view .LVU450
 1517              	@ .\stlib\STM32F10x_StdPeriph_Driver\src\stm32f10x_can.c:755:     message_pending = (uint8_t)(CANx-
 1518              		.loc 1 755 37 is_stmt 0 view .LVU451
 1519 0476 0069     		ldr	r0, [r0, #16]	@ _3, CANx_8(D)->RF1R
 1520              	.LVL52:
 1521              		.loc 1 755 37 view .LVU452
 1522 0478 F8E7     		b	.L97		@
 1523              	.LVL53:
 1524              	.L96:
 1525              	@ .\stlib\STM32F10x_StdPeriph_Driver\src\stm32f10x_can.c:759:     message_pending = 0;
 756:.\stlib\STM32F10x_StdPeriph_Driver\src/stm32f10x_can.c ****   }
 757:.\stlib\STM32F10x_StdPeriph_Driver\src/stm32f10x_can.c ****   else
 758:.\stlib\STM32F10x_StdPeriph_Driver\src/stm32f10x_can.c ****   {
 759:.\stlib\STM32F10x_StdPeriph_Driver\src/stm32f10x_can.c ****     message_pending = 0;
ARM GAS  C:\Users\skey\AppData\Local\Temp\ccv9NfrL.s 			page 43


 1526              		.loc 1 759 21 view .LVU453
 1527 047a 0020     		movs	r0, #0	@ <retval>,
 1528              	.LVL54:
 760:.\stlib\STM32F10x_StdPeriph_Driver\src/stm32f10x_can.c ****   }
 761:.\stlib\STM32F10x_StdPeriph_Driver\src/stm32f10x_can.c ****   return message_pending;
 1529              		.loc 1 761 3 is_stmt 1 view .LVU454
 1530              	@ .\stlib\STM32F10x_StdPeriph_Driver\src\stm32f10x_can.c:762: }
 762:.\stlib\STM32F10x_StdPeriph_Driver\src/stm32f10x_can.c **** }
 1531              		.loc 1 762 1 is_stmt 0 view .LVU455
 1532 047c 7047     		bx	lr	@
 1533              		.cfi_endproc
 1534              	.LFE41:
 1535              		.size	CAN_MessagePending, .-CAN_MessagePending
 1536              		.align	1
 1537              		.global	CAN_OperatingModeRequest
 1538              		.syntax unified
 1539              		.thumb
 1540              		.thumb_func
 1541              		.fpu softvfp
 1542              		.type	CAN_OperatingModeRequest, %function
 1543              	CAN_OperatingModeRequest:
 1544              	.LVL55:
 1545              	.LFB42:
 763:.\stlib\STM32F10x_StdPeriph_Driver\src/stm32f10x_can.c **** 
 764:.\stlib\STM32F10x_StdPeriph_Driver\src/stm32f10x_can.c **** 
 765:.\stlib\STM32F10x_StdPeriph_Driver\src/stm32f10x_can.c **** /**
 766:.\stlib\STM32F10x_StdPeriph_Driver\src/stm32f10x_can.c ****   * @brief   Select the CAN Operation mode.
 767:.\stlib\STM32F10x_StdPeriph_Driver\src/stm32f10x_can.c ****   * @param CAN_OperatingMode : CAN Operating Mode. This parameter can be one 
 768:.\stlib\STM32F10x_StdPeriph_Driver\src/stm32f10x_can.c ****   *                            of @ref CAN_OperatingMode_TypeDef enumeration.
 769:.\stlib\STM32F10x_StdPeriph_Driver\src/stm32f10x_can.c ****   * @retval status of the requested mode which can be 
 770:.\stlib\STM32F10x_StdPeriph_Driver\src/stm32f10x_can.c ****   *         - CAN_ModeStatus_Failed    CAN failed entering the specific mode 
 771:.\stlib\STM32F10x_StdPeriph_Driver\src/stm32f10x_can.c ****   *         - CAN_ModeStatus_Success   CAN Succeed entering the specific mode 
 772:.\stlib\STM32F10x_StdPeriph_Driver\src/stm32f10x_can.c **** 
 773:.\stlib\STM32F10x_StdPeriph_Driver\src/stm32f10x_can.c ****   */
 774:.\stlib\STM32F10x_StdPeriph_Driver\src/stm32f10x_can.c **** uint8_t CAN_OperatingModeRequest(CAN_TypeDef* CANx, uint8_t CAN_OperatingMode)
 775:.\stlib\STM32F10x_StdPeriph_Driver\src/stm32f10x_can.c **** {
 1546              		.loc 1 775 1 is_stmt 1 view -0
 1547              		.cfi_startproc
 1548              		@ args = 0, pretend = 0, frame = 0
 1549              		@ frame_needed = 0, uses_anonymous_args = 0
 1550              		@ link register save eliminated.
 776:.\stlib\STM32F10x_StdPeriph_Driver\src/stm32f10x_can.c ****   uint8_t status = CAN_ModeStatus_Failed;
 1551              		.loc 1 776 3 view .LVU457
 777:.\stlib\STM32F10x_StdPeriph_Driver\src/stm32f10x_can.c ****   
 778:.\stlib\STM32F10x_StdPeriph_Driver\src/stm32f10x_can.c ****   /* Timeout for INAK or also for SLAK bits*/
 779:.\stlib\STM32F10x_StdPeriph_Driver\src/stm32f10x_can.c ****   uint32_t timeout = INAK_TIMEOUT; 
 1552              		.loc 1 779 3 view .LVU458
 780:.\stlib\STM32F10x_StdPeriph_Driver\src/stm32f10x_can.c **** 
 781:.\stlib\STM32F10x_StdPeriph_Driver\src/stm32f10x_can.c ****   /* Check the parameters */
 782:.\stlib\STM32F10x_StdPeriph_Driver\src/stm32f10x_can.c ****   assert_param(IS_CAN_ALL_PERIPH(CANx));
 1553              		.loc 1 782 3 view .LVU459
 783:.\stlib\STM32F10x_StdPeriph_Driver\src/stm32f10x_can.c ****   assert_param(IS_CAN_OPERATING_MODE(CAN_OperatingMode));
 1554              		.loc 1 783 3 view .LVU460
 784:.\stlib\STM32F10x_StdPeriph_Driver\src/stm32f10x_can.c **** 
 785:.\stlib\STM32F10x_StdPeriph_Driver\src/stm32f10x_can.c ****   if (CAN_OperatingMode == CAN_OperatingMode_Initialization)
 1555              		.loc 1 785 3 view .LVU461
 1556              	@ .\stlib\STM32F10x_StdPeriph_Driver\src\stm32f10x_can.c:785:   if (CAN_OperatingMode == CAN_Operat
ARM GAS  C:\Users\skey\AppData\Local\Temp\ccv9NfrL.s 			page 44


 1557              		.loc 1 785 6 is_stmt 0 view .LVU462
 1558 047e B1B9     		cbnz	r1, .L99	@ CAN_OperatingMode,
 786:.\stlib\STM32F10x_StdPeriph_Driver\src/stm32f10x_can.c ****   {
 787:.\stlib\STM32F10x_StdPeriph_Driver\src/stm32f10x_can.c ****     /* Request initialisation */
 788:.\stlib\STM32F10x_StdPeriph_Driver\src/stm32f10x_can.c ****     CANx->MCR = (uint32_t)((CANx->MCR & (uint32_t)(~(uint32_t)CAN_MCR_SLEEP)) | CAN_MCR_INRQ);
 1559              		.loc 1 788 5 is_stmt 1 view .LVU463
 1560              	@ .\stlib\STM32F10x_StdPeriph_Driver\src\stm32f10x_can.c:788:     CANx->MCR = (uint32_t)((CANx->MCR
 1561              		.loc 1 788 33 is_stmt 0 view .LVU464
 1562 0480 0368     		ldr	r3, [r0]	@ _1, CANx_28(D)->MCR
 1563              	@ .\stlib\STM32F10x_StdPeriph_Driver\src\stm32f10x_can.c:788:     CANx->MCR = (uint32_t)((CANx->MCR
 1564              		.loc 1 788 17 view .LVU465
 1565 0482 23F00303 		bic	r3, r3, #3	@ tmp139, _1,
 1566 0486 43F00103 		orr	r3, r3, #1	@ _3, tmp139,
 1567              	@ .\stlib\STM32F10x_StdPeriph_Driver\src\stm32f10x_can.c:788:     CANx->MCR = (uint32_t)((CANx->MCR
 1568              		.loc 1 788 15 view .LVU466
 1569 048a 0360     		str	r3, [r0]	@ _3, CANx_28(D)->MCR
 789:.\stlib\STM32F10x_StdPeriph_Driver\src/stm32f10x_can.c **** 
 790:.\stlib\STM32F10x_StdPeriph_Driver\src/stm32f10x_can.c ****     /* Wait the acknowledge */
 791:.\stlib\STM32F10x_StdPeriph_Driver\src/stm32f10x_can.c ****     while (((CANx->MSR & CAN_MODE_MASK) != CAN_MSR_INAK) && (timeout != 0))
 1570              		.loc 1 791 5 is_stmt 1 view .LVU467
 1571              	@ .\stlib\STM32F10x_StdPeriph_Driver\src\stm32f10x_can.c:791:     while (((CANx->MSR & CAN_MODE_MAS
 1572              		.loc 1 791 11 is_stmt 0 view .LVU468
 1573 048c 4FF48033 		mov	r3, #65536	@ ivtmp_35,
 1574              	.LVL56:
 1575              	.L101:
 1576              		.loc 1 791 11 is_stmt 1 view .LVU469
 1577              	@ .\stlib\STM32F10x_StdPeriph_Driver\src\stm32f10x_can.c:791:     while (((CANx->MSR & CAN_MODE_MAS
 1578              		.loc 1 791 18 is_stmt 0 view .LVU470
 1579 0490 4268     		ldr	r2, [r0, #4]	@ _4, CANx_28(D)->MSR
 1580              	@ .\stlib\STM32F10x_StdPeriph_Driver\src\stm32f10x_can.c:791:     while (((CANx->MSR & CAN_MODE_MAS
 1581              		.loc 1 791 24 view .LVU471
 1582 0492 02F00302 		and	r2, r2, #3	@ tmp140, _4,
 1583              	@ .\stlib\STM32F10x_StdPeriph_Driver\src\stm32f10x_can.c:791:     while (((CANx->MSR & CAN_MODE_MAS
 1584              		.loc 1 791 11 view .LVU472
 1585 0496 012A     		cmp	r2, #1	@ tmp140,
 1586 0498 01D0     		beq	.L100		@,
 1587              	@ .\stlib\STM32F10x_StdPeriph_Driver\src\stm32f10x_can.c:791:     while (((CANx->MSR & CAN_MODE_MAS
 1588              		.loc 1 791 58 discriminator 1 view .LVU473
 1589 049a 013B     		subs	r3, r3, #1	@ ivtmp_35, ivtmp_35,
 1590              	.LVL57:
 1591              		.loc 1 791 58 discriminator 1 view .LVU474
 1592 049c F8D1     		bne	.L101		@,
 1593              	.LVL58:
 1594              	.L100:
 792:.\stlib\STM32F10x_StdPeriph_Driver\src/stm32f10x_can.c ****     {
 793:.\stlib\STM32F10x_StdPeriph_Driver\src/stm32f10x_can.c ****       timeout--;
 794:.\stlib\STM32F10x_StdPeriph_Driver\src/stm32f10x_can.c ****     }
 795:.\stlib\STM32F10x_StdPeriph_Driver\src/stm32f10x_can.c ****     if ((CANx->MSR & CAN_MODE_MASK) != CAN_MSR_INAK)
 1595              		.loc 1 795 5 is_stmt 1 view .LVU475
 1596              	@ .\stlib\STM32F10x_StdPeriph_Driver\src\stm32f10x_can.c:795:     if ((CANx->MSR & CAN_MODE_MASK) !
 1597              		.loc 1 795 14 is_stmt 0 view .LVU476
 1598 049e 4068     		ldr	r0, [r0, #4]	@ _6, CANx_28(D)->MSR
 1599              	.LVL59:
 1600              	@ .\stlib\STM32F10x_StdPeriph_Driver\src\stm32f10x_can.c:795:     if ((CANx->MSR & CAN_MODE_MASK) !
 1601              		.loc 1 795 20 view .LVU477
 1602 04a0 00F00300 		and	r0, r0, #3	@ tmp141, _6,
 1603              	@ .\stlib\STM32F10x_StdPeriph_Driver\src\stm32f10x_can.c:801:       status = CAN_ModeStatus_Success
ARM GAS  C:\Users\skey\AppData\Local\Temp\ccv9NfrL.s 			page 45


 796:.\stlib\STM32F10x_StdPeriph_Driver\src/stm32f10x_can.c ****     {
 797:.\stlib\STM32F10x_StdPeriph_Driver\src/stm32f10x_can.c ****       status = CAN_ModeStatus_Failed;
 798:.\stlib\STM32F10x_StdPeriph_Driver\src/stm32f10x_can.c ****     }
 799:.\stlib\STM32F10x_StdPeriph_Driver\src/stm32f10x_can.c ****     else
 800:.\stlib\STM32F10x_StdPeriph_Driver\src/stm32f10x_can.c ****     {
 801:.\stlib\STM32F10x_StdPeriph_Driver\src/stm32f10x_can.c ****       status = CAN_ModeStatus_Success;
 1604              		.loc 1 801 14 view .LVU478
 1605 04a4 0128     		cmp	r0, #1	@ tmp141,
 1606              	.L121:
 1607              		.loc 1 801 14 view .LVU479
 1608 04a6 14BF     		ite	ne
 1609 04a8 0020     		movne	r0, #0	@ <retval>,
 1610 04aa 0120     		moveq	r0, #1	@ <retval>,
 1611 04ac 7047     		bx	lr	@
 1612              	.LVL60:
 1613              	.L99:
 802:.\stlib\STM32F10x_StdPeriph_Driver\src/stm32f10x_can.c ****     }
 803:.\stlib\STM32F10x_StdPeriph_Driver\src/stm32f10x_can.c ****   }
 804:.\stlib\STM32F10x_StdPeriph_Driver\src/stm32f10x_can.c ****   else  if (CAN_OperatingMode == CAN_OperatingMode_Normal)
 1614              		.loc 1 804 9 is_stmt 1 view .LVU480
 1615              	@ .\stlib\STM32F10x_StdPeriph_Driver\src\stm32f10x_can.c:804:   else  if (CAN_OperatingMode == CAN_
 1616              		.loc 1 804 12 is_stmt 0 view .LVU481
 1617 04ae 0129     		cmp	r1, #1	@ CAN_OperatingMode,
 1618 04b0 11D1     		bne	.L103		@,
 805:.\stlib\STM32F10x_StdPeriph_Driver\src/stm32f10x_can.c ****   {
 806:.\stlib\STM32F10x_StdPeriph_Driver\src/stm32f10x_can.c ****     /* Request leave initialisation and sleep mode  and enter Normal mode */
 807:.\stlib\STM32F10x_StdPeriph_Driver\src/stm32f10x_can.c ****     CANx->MCR &= (uint32_t)(~(CAN_MCR_SLEEP|CAN_MCR_INRQ));
 1619              		.loc 1 807 5 is_stmt 1 view .LVU482
 1620              	@ .\stlib\STM32F10x_StdPeriph_Driver\src\stm32f10x_can.c:807:     CANx->MCR &= (uint32_t)(~(CAN_MCR
 1621              		.loc 1 807 15 is_stmt 0 view .LVU483
 1622 04b2 0368     		ldr	r3, [r0]	@ _8, CANx_28(D)->MCR
 1623 04b4 23F00303 		bic	r3, r3, #3	@ _9, _8,
 1624 04b8 0360     		str	r3, [r0]	@ _9, CANx_28(D)->MCR
 808:.\stlib\STM32F10x_StdPeriph_Driver\src/stm32f10x_can.c **** 
 809:.\stlib\STM32F10x_StdPeriph_Driver\src/stm32f10x_can.c ****     /* Wait the acknowledge */
 810:.\stlib\STM32F10x_StdPeriph_Driver\src/stm32f10x_can.c ****     while (((CANx->MSR & CAN_MODE_MASK) != 0) && (timeout!=0))
 1625              		.loc 1 810 5 is_stmt 1 view .LVU484
 1626              	@ .\stlib\STM32F10x_StdPeriph_Driver\src\stm32f10x_can.c:810:     while (((CANx->MSR & CAN_MODE_MAS
 1627              		.loc 1 810 11 is_stmt 0 view .LVU485
 1628 04ba 4FF48033 		mov	r3, #65536	@ ivtmp_43,
 1629              	.LVL61:
 1630              	.L105:
 1631              		.loc 1 810 11 is_stmt 1 view .LVU486
 1632              	@ .\stlib\STM32F10x_StdPeriph_Driver\src\stm32f10x_can.c:810:     while (((CANx->MSR & CAN_MODE_MAS
 1633              		.loc 1 810 18 is_stmt 0 view .LVU487
 1634 04be 4268     		ldr	r2, [r0, #4]	@ _10, CANx_28(D)->MSR
 1635              	@ .\stlib\STM32F10x_StdPeriph_Driver\src\stm32f10x_can.c:810:     while (((CANx->MSR & CAN_MODE_MAS
 1636              		.loc 1 810 11 view .LVU488
 1637 04c0 9207     		lsls	r2, r2, #30	@, _10,
 1638 04c2 01D0     		beq	.L104		@,
 1639              	@ .\stlib\STM32F10x_StdPeriph_Driver\src\stm32f10x_can.c:810:     while (((CANx->MSR & CAN_MODE_MAS
 1640              		.loc 1 810 47 discriminator 1 view .LVU489
 1641 04c4 013B     		subs	r3, r3, #1	@ ivtmp_43, ivtmp_43,
 1642              	.LVL62:
 1643              		.loc 1 810 47 discriminator 1 view .LVU490
 1644 04c6 FAD1     		bne	.L105		@,
 1645              	.LVL63:
ARM GAS  C:\Users\skey\AppData\Local\Temp\ccv9NfrL.s 			page 46


 1646              	.L104:
 811:.\stlib\STM32F10x_StdPeriph_Driver\src/stm32f10x_can.c ****     {
 812:.\stlib\STM32F10x_StdPeriph_Driver\src/stm32f10x_can.c ****       timeout--;
 813:.\stlib\STM32F10x_StdPeriph_Driver\src/stm32f10x_can.c ****     }
 814:.\stlib\STM32F10x_StdPeriph_Driver\src/stm32f10x_can.c ****     if ((CANx->MSR & CAN_MODE_MASK) != 0)
 1647              		.loc 1 814 5 is_stmt 1 view .LVU491
 1648              	@ .\stlib\STM32F10x_StdPeriph_Driver\src\stm32f10x_can.c:814:     if ((CANx->MSR & CAN_MODE_MASK) !
 1649              		.loc 1 814 14 is_stmt 0 view .LVU492
 1650 04c8 4368     		ldr	r3, [r0, #4]	@ _12, CANx_28(D)->MSR
 1651              	@ .\stlib\STM32F10x_StdPeriph_Driver\src\stm32f10x_can.c:814:     if ((CANx->MSR & CAN_MODE_MASK) !
 1652              		.loc 1 814 8 view .LVU493
 1653 04ca 13F0030F 		tst	r3, #3	@ _12,
 1654              	@ .\stlib\STM32F10x_StdPeriph_Driver\src\stm32f10x_can.c:801:       status = CAN_ModeStatus_Success
 801:.\stlib\STM32F10x_StdPeriph_Driver\src/stm32f10x_can.c ****     }
 1655              		.loc 1 801 14 view .LVU494
 1656 04ce 0CBF     		ite	eq
 1657 04d0 0120     		moveq	r0, #1	@ <retval>,
 1658              	.LVL64:
 801:.\stlib\STM32F10x_StdPeriph_Driver\src/stm32f10x_can.c ****     }
 1659              		.loc 1 801 14 view .LVU495
 1660 04d2 0020     		movne	r0, #0	@ <retval>,
 1661 04d4 7047     		bx	lr	@
 1662              	.LVL65:
 1663              	.L103:
 815:.\stlib\STM32F10x_StdPeriph_Driver\src/stm32f10x_can.c ****     {
 816:.\stlib\STM32F10x_StdPeriph_Driver\src/stm32f10x_can.c ****       status = CAN_ModeStatus_Failed;
 817:.\stlib\STM32F10x_StdPeriph_Driver\src/stm32f10x_can.c ****     }
 818:.\stlib\STM32F10x_StdPeriph_Driver\src/stm32f10x_can.c ****     else
 819:.\stlib\STM32F10x_StdPeriph_Driver\src/stm32f10x_can.c ****     {
 820:.\stlib\STM32F10x_StdPeriph_Driver\src/stm32f10x_can.c ****       status = CAN_ModeStatus_Success;
 821:.\stlib\STM32F10x_StdPeriph_Driver\src/stm32f10x_can.c ****     }
 822:.\stlib\STM32F10x_StdPeriph_Driver\src/stm32f10x_can.c ****   }
 823:.\stlib\STM32F10x_StdPeriph_Driver\src/stm32f10x_can.c ****   else  if (CAN_OperatingMode == CAN_OperatingMode_Sleep)
 1664              		.loc 1 823 9 is_stmt 1 view .LVU496
 1665              	@ .\stlib\STM32F10x_StdPeriph_Driver\src\stm32f10x_can.c:823:   else  if (CAN_OperatingMode == CAN_
 1666              		.loc 1 823 12 is_stmt 0 view .LVU497
 1667 04d6 0229     		cmp	r1, #2	@ CAN_OperatingMode,
 1668 04d8 13D1     		bne	.L108		@,
 824:.\stlib\STM32F10x_StdPeriph_Driver\src/stm32f10x_can.c ****   {
 825:.\stlib\STM32F10x_StdPeriph_Driver\src/stm32f10x_can.c ****     /* Request Sleep mode */
 826:.\stlib\STM32F10x_StdPeriph_Driver\src/stm32f10x_can.c ****     CANx->MCR = (uint32_t)((CANx->MCR & (uint32_t)(~(uint32_t)CAN_MCR_INRQ)) | CAN_MCR_SLEEP);
 1669              		.loc 1 826 5 is_stmt 1 view .LVU498
 1670              	@ .\stlib\STM32F10x_StdPeriph_Driver\src\stm32f10x_can.c:826:     CANx->MCR = (uint32_t)((CANx->MCR
 1671              		.loc 1 826 33 is_stmt 0 view .LVU499
 1672 04da 0368     		ldr	r3, [r0]	@ _14, CANx_28(D)->MCR
 1673              	@ .\stlib\STM32F10x_StdPeriph_Driver\src\stm32f10x_can.c:826:     CANx->MCR = (uint32_t)((CANx->MCR
 1674              		.loc 1 826 17 view .LVU500
 1675 04dc 23F00303 		bic	r3, r3, #3	@ tmp148, _14,
 1676 04e0 43F00203 		orr	r3, r3, #2	@ _16, tmp148,
 1677              	@ .\stlib\STM32F10x_StdPeriph_Driver\src\stm32f10x_can.c:826:     CANx->MCR = (uint32_t)((CANx->MCR
 1678              		.loc 1 826 15 view .LVU501
 1679 04e4 0360     		str	r3, [r0]	@ _16, CANx_28(D)->MCR
 827:.\stlib\STM32F10x_StdPeriph_Driver\src/stm32f10x_can.c **** 
 828:.\stlib\STM32F10x_StdPeriph_Driver\src/stm32f10x_can.c ****     /* Wait the acknowledge */
 829:.\stlib\STM32F10x_StdPeriph_Driver\src/stm32f10x_can.c ****     while (((CANx->MSR & CAN_MODE_MASK) != CAN_MSR_SLAK) && (timeout!=0))
 1680              		.loc 1 829 5 is_stmt 1 view .LVU502
 1681              	@ .\stlib\STM32F10x_StdPeriph_Driver\src\stm32f10x_can.c:829:     while (((CANx->MSR & CAN_MODE_MAS
ARM GAS  C:\Users\skey\AppData\Local\Temp\ccv9NfrL.s 			page 47


 1682              		.loc 1 829 11 is_stmt 0 view .LVU503
 1683 04e6 4FF48033 		mov	r3, #65536	@ ivtmp_45,
 1684              	.LVL66:
 1685              	.L107:
 1686              		.loc 1 829 11 is_stmt 1 view .LVU504
 1687              	@ .\stlib\STM32F10x_StdPeriph_Driver\src\stm32f10x_can.c:829:     while (((CANx->MSR & CAN_MODE_MAS
 1688              		.loc 1 829 18 is_stmt 0 view .LVU505
 1689 04ea 4268     		ldr	r2, [r0, #4]	@ _17, CANx_28(D)->MSR
 1690              	@ .\stlib\STM32F10x_StdPeriph_Driver\src\stm32f10x_can.c:829:     while (((CANx->MSR & CAN_MODE_MAS
 1691              		.loc 1 829 24 view .LVU506
 1692 04ec 02F00302 		and	r2, r2, #3	@ tmp149, _17,
 1693              	@ .\stlib\STM32F10x_StdPeriph_Driver\src\stm32f10x_can.c:829:     while (((CANx->MSR & CAN_MODE_MAS
 1694              		.loc 1 829 11 view .LVU507
 1695 04f0 022A     		cmp	r2, #2	@ tmp149,
 1696 04f2 01D0     		beq	.L106		@,
 1697              	@ .\stlib\STM32F10x_StdPeriph_Driver\src\stm32f10x_can.c:829:     while (((CANx->MSR & CAN_MODE_MAS
 1698              		.loc 1 829 58 discriminator 1 view .LVU508
 1699 04f4 013B     		subs	r3, r3, #1	@ ivtmp_45, ivtmp_45,
 1700              	.LVL67:
 1701              		.loc 1 829 58 discriminator 1 view .LVU509
 1702 04f6 F8D1     		bne	.L107		@,
 1703              	.LVL68:
 1704              	.L106:
 830:.\stlib\STM32F10x_StdPeriph_Driver\src/stm32f10x_can.c ****     {
 831:.\stlib\STM32F10x_StdPeriph_Driver\src/stm32f10x_can.c ****       timeout--;
 832:.\stlib\STM32F10x_StdPeriph_Driver\src/stm32f10x_can.c ****     }
 833:.\stlib\STM32F10x_StdPeriph_Driver\src/stm32f10x_can.c ****     if ((CANx->MSR & CAN_MODE_MASK) != CAN_MSR_SLAK)
 1705              		.loc 1 833 5 is_stmt 1 view .LVU510
 1706              	@ .\stlib\STM32F10x_StdPeriph_Driver\src\stm32f10x_can.c:833:     if ((CANx->MSR & CAN_MODE_MASK) !
 1707              		.loc 1 833 14 is_stmt 0 view .LVU511
 1708 04f8 4068     		ldr	r0, [r0, #4]	@ _19, CANx_28(D)->MSR
 1709              	.LVL69:
 1710              	@ .\stlib\STM32F10x_StdPeriph_Driver\src\stm32f10x_can.c:833:     if ((CANx->MSR & CAN_MODE_MASK) !
 1711              		.loc 1 833 20 view .LVU512
 1712 04fa 00F00300 		and	r0, r0, #3	@ tmp150, _19,
 1713              	@ .\stlib\STM32F10x_StdPeriph_Driver\src\stm32f10x_can.c:801:       status = CAN_ModeStatus_Success
 801:.\stlib\STM32F10x_StdPeriph_Driver\src/stm32f10x_can.c ****     }
 1714              		.loc 1 801 14 view .LVU513
 1715 04fe 0228     		cmp	r0, #2	@ tmp150,
 1716 0500 D1E7     		b	.L121		@
 1717              	.LVL70:
 1718              	.L108:
 1719              	@ .\stlib\STM32F10x_StdPeriph_Driver\src\stm32f10x_can.c:844:     status = CAN_ModeStatus_Failed;
 834:.\stlib\STM32F10x_StdPeriph_Driver\src/stm32f10x_can.c ****     {
 835:.\stlib\STM32F10x_StdPeriph_Driver\src/stm32f10x_can.c ****       status = CAN_ModeStatus_Failed;
 836:.\stlib\STM32F10x_StdPeriph_Driver\src/stm32f10x_can.c ****     }
 837:.\stlib\STM32F10x_StdPeriph_Driver\src/stm32f10x_can.c ****     else
 838:.\stlib\STM32F10x_StdPeriph_Driver\src/stm32f10x_can.c ****     {
 839:.\stlib\STM32F10x_StdPeriph_Driver\src/stm32f10x_can.c ****       status = CAN_ModeStatus_Success;
 840:.\stlib\STM32F10x_StdPeriph_Driver\src/stm32f10x_can.c ****     }
 841:.\stlib\STM32F10x_StdPeriph_Driver\src/stm32f10x_can.c ****   }
 842:.\stlib\STM32F10x_StdPeriph_Driver\src/stm32f10x_can.c ****   else
 843:.\stlib\STM32F10x_StdPeriph_Driver\src/stm32f10x_can.c ****   {
 844:.\stlib\STM32F10x_StdPeriph_Driver\src/stm32f10x_can.c ****     status = CAN_ModeStatus_Failed;
 1720              		.loc 1 844 12 view .LVU514
 1721 0502 0020     		movs	r0, #0	@ <retval>,
 1722              	.LVL71:
ARM GAS  C:\Users\skey\AppData\Local\Temp\ccv9NfrL.s 			page 48


 845:.\stlib\STM32F10x_StdPeriph_Driver\src/stm32f10x_can.c ****   }
 846:.\stlib\STM32F10x_StdPeriph_Driver\src/stm32f10x_can.c **** 
 847:.\stlib\STM32F10x_StdPeriph_Driver\src/stm32f10x_can.c ****   return  (uint8_t) status;
 1723              		.loc 1 847 3 is_stmt 1 view .LVU515
 1724              	@ .\stlib\STM32F10x_StdPeriph_Driver\src\stm32f10x_can.c:848: }
 848:.\stlib\STM32F10x_StdPeriph_Driver\src/stm32f10x_can.c **** }
 1725              		.loc 1 848 1 is_stmt 0 view .LVU516
 1726 0504 7047     		bx	lr	@
 1727              		.cfi_endproc
 1728              	.LFE42:
 1729              		.size	CAN_OperatingModeRequest, .-CAN_OperatingModeRequest
 1730              		.align	1
 1731              		.global	CAN_Sleep
 1732              		.syntax unified
 1733              		.thumb
 1734              		.thumb_func
 1735              		.fpu softvfp
 1736              		.type	CAN_Sleep, %function
 1737              	CAN_Sleep:
 1738              	.LVL72:
 1739              	.LFB43:
 849:.\stlib\STM32F10x_StdPeriph_Driver\src/stm32f10x_can.c **** 
 850:.\stlib\STM32F10x_StdPeriph_Driver\src/stm32f10x_can.c **** /**
 851:.\stlib\STM32F10x_StdPeriph_Driver\src/stm32f10x_can.c ****   * @brief  Enters the low power mode.
 852:.\stlib\STM32F10x_StdPeriph_Driver\src/stm32f10x_can.c ****   * @param  CANx:   where x can be 1 or 2 to to select the CAN peripheral.
 853:.\stlib\STM32F10x_StdPeriph_Driver\src/stm32f10x_can.c ****   * @retval status: CAN_Sleep_Ok if sleep entered, CAN_Sleep_Failed in an 
 854:.\stlib\STM32F10x_StdPeriph_Driver\src/stm32f10x_can.c ****   *                 other case.
 855:.\stlib\STM32F10x_StdPeriph_Driver\src/stm32f10x_can.c ****   */
 856:.\stlib\STM32F10x_StdPeriph_Driver\src/stm32f10x_can.c **** uint8_t CAN_Sleep(CAN_TypeDef* CANx)
 857:.\stlib\STM32F10x_StdPeriph_Driver\src/stm32f10x_can.c **** {
 1740              		.loc 1 857 1 is_stmt 1 view -0
 1741              		.cfi_startproc
 1742              		@ args = 0, pretend = 0, frame = 0
 1743              		@ frame_needed = 0, uses_anonymous_args = 0
 1744              		@ link register save eliminated.
 858:.\stlib\STM32F10x_StdPeriph_Driver\src/stm32f10x_can.c ****   uint8_t sleepstatus = CAN_Sleep_Failed;
 1745              		.loc 1 858 3 view .LVU518
 859:.\stlib\STM32F10x_StdPeriph_Driver\src/stm32f10x_can.c ****   
 860:.\stlib\STM32F10x_StdPeriph_Driver\src/stm32f10x_can.c ****   /* Check the parameters */
 861:.\stlib\STM32F10x_StdPeriph_Driver\src/stm32f10x_can.c ****   assert_param(IS_CAN_ALL_PERIPH(CANx));
 1746              		.loc 1 861 3 view .LVU519
 862:.\stlib\STM32F10x_StdPeriph_Driver\src/stm32f10x_can.c ****     
 863:.\stlib\STM32F10x_StdPeriph_Driver\src/stm32f10x_can.c ****   /* Request Sleep mode */
 864:.\stlib\STM32F10x_StdPeriph_Driver\src/stm32f10x_can.c ****    CANx->MCR = (((CANx->MCR) & (uint32_t)(~(uint32_t)CAN_MCR_INRQ)) | CAN_MCR_SLEEP);
 1747              		.loc 1 864 4 view .LVU520
 1748              	@ .\stlib\STM32F10x_StdPeriph_Driver\src\stm32f10x_can.c:864:    CANx->MCR = (((CANx->MCR) & (uint3
 1749              		.loc 1 864 23 is_stmt 0 view .LVU521
 1750 0506 0368     		ldr	r3, [r0]	@ _1, CANx_8(D)->MCR
 1751              	@ .\stlib\STM32F10x_StdPeriph_Driver\src\stm32f10x_can.c:864:    CANx->MCR = (((CANx->MCR) & (uint3
 1752              		.loc 1 864 69 view .LVU522
 1753 0508 23F00303 		bic	r3, r3, #3	@ tmp118, _1,
 1754 050c 43F00203 		orr	r3, r3, #2	@ _3, tmp118,
 1755              	@ .\stlib\STM32F10x_StdPeriph_Driver\src\stm32f10x_can.c:864:    CANx->MCR = (((CANx->MCR) & (uint3
 1756              		.loc 1 864 14 view .LVU523
 1757 0510 0360     		str	r3, [r0]	@ _3, CANx_8(D)->MCR
 865:.\stlib\STM32F10x_StdPeriph_Driver\src/stm32f10x_can.c ****    
 866:.\stlib\STM32F10x_StdPeriph_Driver\src/stm32f10x_can.c ****   /* Sleep mode status */
ARM GAS  C:\Users\skey\AppData\Local\Temp\ccv9NfrL.s 			page 49


 867:.\stlib\STM32F10x_StdPeriph_Driver\src/stm32f10x_can.c ****   if ((CANx->MSR & (CAN_MSR_SLAK|CAN_MSR_INAK)) == CAN_MSR_SLAK)
 1758              		.loc 1 867 3 is_stmt 1 view .LVU524
 1759              	@ .\stlib\STM32F10x_StdPeriph_Driver\src\stm32f10x_can.c:867:   if ((CANx->MSR & (CAN_MSR_SLAK|CAN_
 1760              		.loc 1 867 12 is_stmt 0 view .LVU525
 1761 0512 4068     		ldr	r0, [r0, #4]	@ _4, CANx_8(D)->MSR
 1762              	.LVL73:
 868:.\stlib\STM32F10x_StdPeriph_Driver\src/stm32f10x_can.c ****   {
 869:.\stlib\STM32F10x_StdPeriph_Driver\src/stm32f10x_can.c ****     /* Sleep mode not entered */
 870:.\stlib\STM32F10x_StdPeriph_Driver\src/stm32f10x_can.c ****     sleepstatus =  CAN_Sleep_Ok;
 871:.\stlib\STM32F10x_StdPeriph_Driver\src/stm32f10x_can.c ****   }
 872:.\stlib\STM32F10x_StdPeriph_Driver\src/stm32f10x_can.c ****   /* return sleep mode status */
 873:.\stlib\STM32F10x_StdPeriph_Driver\src/stm32f10x_can.c ****    return (uint8_t)sleepstatus;
 1763              		.loc 1 873 4 is_stmt 1 view .LVU526
 1764              	@ .\stlib\STM32F10x_StdPeriph_Driver\src\stm32f10x_can.c:867:   if ((CANx->MSR & (CAN_MSR_SLAK|CAN_
 867:.\stlib\STM32F10x_StdPeriph_Driver\src/stm32f10x_can.c ****   {
 1765              		.loc 1 867 18 is_stmt 0 view .LVU527
 1766 0514 00F00300 		and	r0, r0, #3	@ tmp120, _4,
 1767              	.LVL74:
 1768              	@ .\stlib\STM32F10x_StdPeriph_Driver\src\stm32f10x_can.c:874: }
 874:.\stlib\STM32F10x_StdPeriph_Driver\src/stm32f10x_can.c **** }
 1769              		.loc 1 874 1 view .LVU528
 1770 0518 831E     		subs	r3, r0, #2	@, tmp120,
 1771 051a 5842     		rsbs	r0, r3, #0	@,,
 1772 051c 5841     		adcs	r0, r0, r3	@,,
 1773 051e 7047     		bx	lr	@
 1774              		.cfi_endproc
 1775              	.LFE43:
 1776              		.size	CAN_Sleep, .-CAN_Sleep
 1777              		.align	1
 1778              		.global	CAN_WakeUp
 1779              		.syntax unified
 1780              		.thumb
 1781              		.thumb_func
 1782              		.fpu softvfp
 1783              		.type	CAN_WakeUp, %function
 1784              	CAN_WakeUp:
 1785              	.LVL75:
 1786              	.LFB44:
 875:.\stlib\STM32F10x_StdPeriph_Driver\src/stm32f10x_can.c **** 
 876:.\stlib\STM32F10x_StdPeriph_Driver\src/stm32f10x_can.c **** /**
 877:.\stlib\STM32F10x_StdPeriph_Driver\src/stm32f10x_can.c ****   * @brief  Wakes the CAN up.
 878:.\stlib\STM32F10x_StdPeriph_Driver\src/stm32f10x_can.c ****   * @param  CANx:    where x can be 1 or 2 to to select the CAN peripheral.
 879:.\stlib\STM32F10x_StdPeriph_Driver\src/stm32f10x_can.c ****   * @retval status:  CAN_WakeUp_Ok if sleep mode left, CAN_WakeUp_Failed in an 
 880:.\stlib\STM32F10x_StdPeriph_Driver\src/stm32f10x_can.c ****   *                  other case.
 881:.\stlib\STM32F10x_StdPeriph_Driver\src/stm32f10x_can.c ****   */
 882:.\stlib\STM32F10x_StdPeriph_Driver\src/stm32f10x_can.c **** uint8_t CAN_WakeUp(CAN_TypeDef* CANx)
 883:.\stlib\STM32F10x_StdPeriph_Driver\src/stm32f10x_can.c **** {
 1787              		.loc 1 883 1 is_stmt 1 view -0
 1788              		.cfi_startproc
 1789              		@ args = 0, pretend = 0, frame = 0
 1790              		@ frame_needed = 0, uses_anonymous_args = 0
 1791              		@ link register save eliminated.
 884:.\stlib\STM32F10x_StdPeriph_Driver\src/stm32f10x_can.c ****   uint32_t wait_slak = SLAK_TIMEOUT;
 1792              		.loc 1 884 3 view .LVU530
 885:.\stlib\STM32F10x_StdPeriph_Driver\src/stm32f10x_can.c ****   uint8_t wakeupstatus = CAN_WakeUp_Failed;
 1793              		.loc 1 885 3 view .LVU531
 886:.\stlib\STM32F10x_StdPeriph_Driver\src/stm32f10x_can.c ****   
ARM GAS  C:\Users\skey\AppData\Local\Temp\ccv9NfrL.s 			page 50


 887:.\stlib\STM32F10x_StdPeriph_Driver\src/stm32f10x_can.c ****   /* Check the parameters */
 888:.\stlib\STM32F10x_StdPeriph_Driver\src/stm32f10x_can.c ****   assert_param(IS_CAN_ALL_PERIPH(CANx));
 1794              		.loc 1 888 3 view .LVU532
 889:.\stlib\STM32F10x_StdPeriph_Driver\src/stm32f10x_can.c ****     
 890:.\stlib\STM32F10x_StdPeriph_Driver\src/stm32f10x_can.c ****   /* Wake up request */
 891:.\stlib\STM32F10x_StdPeriph_Driver\src/stm32f10x_can.c ****   CANx->MCR &= ~(uint32_t)CAN_MCR_SLEEP;
 1795              		.loc 1 891 3 view .LVU533
 1796              	@ .\stlib\STM32F10x_StdPeriph_Driver\src\stm32f10x_can.c:891:   CANx->MCR &= ~(uint32_t)CAN_MCR_SLE
 1797              		.loc 1 891 13 is_stmt 0 view .LVU534
 1798 0520 0368     		ldr	r3, [r0]	@ _1, CANx_10(D)->MCR
 1799 0522 23F00203 		bic	r3, r3, #2	@ _2, _1,
 1800 0526 0360     		str	r3, [r0]	@ _2, CANx_10(D)->MCR
 892:.\stlib\STM32F10x_StdPeriph_Driver\src/stm32f10x_can.c ****     
 893:.\stlib\STM32F10x_StdPeriph_Driver\src/stm32f10x_can.c ****   /* Sleep mode status */
 894:.\stlib\STM32F10x_StdPeriph_Driver\src/stm32f10x_can.c ****   while(((CANx->MSR & CAN_MSR_SLAK) == CAN_MSR_SLAK)&&(wait_slak!=0x00))
 1801              		.loc 1 894 3 is_stmt 1 view .LVU535
 1802              	@ .\stlib\STM32F10x_StdPeriph_Driver\src\stm32f10x_can.c:894:   while(((CANx->MSR & CAN_MSR_SLAK) =
 1803              		.loc 1 894 8 is_stmt 0 view .LVU536
 1804 0528 4FF48033 		mov	r3, #65536	@ ivtmp_8,
 1805              	.LVL76:
 1806              	.L125:
 1807              		.loc 1 894 8 is_stmt 1 view .LVU537
 1808              	@ .\stlib\STM32F10x_StdPeriph_Driver\src\stm32f10x_can.c:894:   while(((CANx->MSR & CAN_MSR_SLAK) =
 1809              		.loc 1 894 15 is_stmt 0 view .LVU538
 1810 052c 4268     		ldr	r2, [r0, #4]	@ _3, CANx_10(D)->MSR
 1811              	@ .\stlib\STM32F10x_StdPeriph_Driver\src\stm32f10x_can.c:894:   while(((CANx->MSR & CAN_MSR_SLAK) =
 1812              		.loc 1 894 8 view .LVU539
 1813 052e 9207     		lsls	r2, r2, #30	@, _3,
 1814 0530 01D5     		bpl	.L124		@,
 1815              	@ .\stlib\STM32F10x_StdPeriph_Driver\src\stm32f10x_can.c:894:   while(((CANx->MSR & CAN_MSR_SLAK) =
 1816              		.loc 1 894 53 discriminator 1 view .LVU540
 1817 0532 013B     		subs	r3, r3, #1	@ ivtmp_8, ivtmp_8,
 1818              	.LVL77:
 1819              		.loc 1 894 53 discriminator 1 view .LVU541
 1820 0534 FAD1     		bne	.L125		@,
 1821              	.LVL78:
 1822              	.L124:
 895:.\stlib\STM32F10x_StdPeriph_Driver\src/stm32f10x_can.c ****   {
 896:.\stlib\STM32F10x_StdPeriph_Driver\src/stm32f10x_can.c ****    wait_slak--;
 897:.\stlib\STM32F10x_StdPeriph_Driver\src/stm32f10x_can.c ****   }
 898:.\stlib\STM32F10x_StdPeriph_Driver\src/stm32f10x_can.c ****   if((CANx->MSR & CAN_MSR_SLAK) != CAN_MSR_SLAK)
 1823              		.loc 1 898 3 is_stmt 1 view .LVU542
 1824              	@ .\stlib\STM32F10x_StdPeriph_Driver\src\stm32f10x_can.c:898:   if((CANx->MSR & CAN_MSR_SLAK) != CA
 1825              		.loc 1 898 11 is_stmt 0 view .LVU543
 1826 0536 4068     		ldr	r0, [r0, #4]	@ _5, CANx_10(D)->MSR
 1827              	.LVL79:
 899:.\stlib\STM32F10x_StdPeriph_Driver\src/stm32f10x_can.c ****   {
 900:.\stlib\STM32F10x_StdPeriph_Driver\src/stm32f10x_can.c ****    /* wake up done : Sleep mode exited */
 901:.\stlib\STM32F10x_StdPeriph_Driver\src/stm32f10x_can.c ****     wakeupstatus = CAN_WakeUp_Ok;
 902:.\stlib\STM32F10x_StdPeriph_Driver\src/stm32f10x_can.c ****   }
 903:.\stlib\STM32F10x_StdPeriph_Driver\src/stm32f10x_can.c ****   /* return wakeup status */
 904:.\stlib\STM32F10x_StdPeriph_Driver\src/stm32f10x_can.c ****   return (uint8_t)wakeupstatus;
 1828              		.loc 1 904 3 is_stmt 1 view .LVU544
 1829              	@ .\stlib\STM32F10x_StdPeriph_Driver\src\stm32f10x_can.c:898:   if((CANx->MSR & CAN_MSR_SLAK) != CA
 898:.\stlib\STM32F10x_StdPeriph_Driver\src/stm32f10x_can.c ****   {
 1830              		.loc 1 898 5 is_stmt 0 view .LVU545
 1831 0538 80F00200 		eor	r0, r0, #2	@ tmp123, _5,
ARM GAS  C:\Users\skey\AppData\Local\Temp\ccv9NfrL.s 			page 51


 1832              	.LVL80:
 1833              	@ .\stlib\STM32F10x_StdPeriph_Driver\src\stm32f10x_can.c:905: }
 905:.\stlib\STM32F10x_StdPeriph_Driver\src/stm32f10x_can.c **** }
 1834              		.loc 1 905 1 view .LVU546
 1835 053c C0F34000 		ubfx	r0, r0, #1, #1	@, tmp123,,
 1836              	.LVL81:
 1837              		.loc 1 905 1 view .LVU547
 1838 0540 7047     		bx	lr	@
 1839              		.cfi_endproc
 1840              	.LFE44:
 1841              		.size	CAN_WakeUp, .-CAN_WakeUp
 1842              		.align	1
 1843              		.global	CAN_GetLastErrorCode
 1844              		.syntax unified
 1845              		.thumb
 1846              		.thumb_func
 1847              		.fpu softvfp
 1848              		.type	CAN_GetLastErrorCode, %function
 1849              	CAN_GetLastErrorCode:
 1850              	.LVL82:
 1851              	.LFB45:
 906:.\stlib\STM32F10x_StdPeriph_Driver\src/stm32f10x_can.c **** 
 907:.\stlib\STM32F10x_StdPeriph_Driver\src/stm32f10x_can.c **** 
 908:.\stlib\STM32F10x_StdPeriph_Driver\src/stm32f10x_can.c **** /**
 909:.\stlib\STM32F10x_StdPeriph_Driver\src/stm32f10x_can.c ****   * @brief  Returns the CANx's last error code (LEC).
 910:.\stlib\STM32F10x_StdPeriph_Driver\src/stm32f10x_can.c ****   * @param  CANx:          where x can be 1 or 2 to to select the CAN peripheral.  
 911:.\stlib\STM32F10x_StdPeriph_Driver\src/stm32f10x_can.c ****   * @retval CAN_ErrorCode: specifies the Error code : 
 912:.\stlib\STM32F10x_StdPeriph_Driver\src/stm32f10x_can.c ****   *                        - CAN_ERRORCODE_NoErr            No Error  
 913:.\stlib\STM32F10x_StdPeriph_Driver\src/stm32f10x_can.c ****   *                        - CAN_ERRORCODE_StuffErr         Stuff Error
 914:.\stlib\STM32F10x_StdPeriph_Driver\src/stm32f10x_can.c ****   *                        - CAN_ERRORCODE_FormErr          Form Error
 915:.\stlib\STM32F10x_StdPeriph_Driver\src/stm32f10x_can.c ****   *                        - CAN_ERRORCODE_ACKErr           Acknowledgment Error
 916:.\stlib\STM32F10x_StdPeriph_Driver\src/stm32f10x_can.c ****   *                        - CAN_ERRORCODE_BitRecessiveErr  Bit Recessive Error
 917:.\stlib\STM32F10x_StdPeriph_Driver\src/stm32f10x_can.c ****   *                        - CAN_ERRORCODE_BitDominantErr   Bit Dominant Error
 918:.\stlib\STM32F10x_StdPeriph_Driver\src/stm32f10x_can.c ****   *                        - CAN_ERRORCODE_CRCErr           CRC Error
 919:.\stlib\STM32F10x_StdPeriph_Driver\src/stm32f10x_can.c ****   *                        - CAN_ERRORCODE_SoftwareSetErr   Software Set Error  
 920:.\stlib\STM32F10x_StdPeriph_Driver\src/stm32f10x_can.c ****   */
 921:.\stlib\STM32F10x_StdPeriph_Driver\src/stm32f10x_can.c ****  
 922:.\stlib\STM32F10x_StdPeriph_Driver\src/stm32f10x_can.c **** uint8_t CAN_GetLastErrorCode(CAN_TypeDef* CANx)
 923:.\stlib\STM32F10x_StdPeriph_Driver\src/stm32f10x_can.c **** {
 1852              		.loc 1 923 1 is_stmt 1 view -0
 1853              		.cfi_startproc
 1854              		@ args = 0, pretend = 0, frame = 0
 1855              		@ frame_needed = 0, uses_anonymous_args = 0
 1856              		@ link register save eliminated.
 924:.\stlib\STM32F10x_StdPeriph_Driver\src/stm32f10x_can.c ****   uint8_t errorcode=0;
 1857              		.loc 1 924 3 view .LVU549
 925:.\stlib\STM32F10x_StdPeriph_Driver\src/stm32f10x_can.c ****   
 926:.\stlib\STM32F10x_StdPeriph_Driver\src/stm32f10x_can.c ****   /* Check the parameters */
 927:.\stlib\STM32F10x_StdPeriph_Driver\src/stm32f10x_can.c ****   assert_param(IS_CAN_ALL_PERIPH(CANx));
 1858              		.loc 1 927 3 view .LVU550
 928:.\stlib\STM32F10x_StdPeriph_Driver\src/stm32f10x_can.c ****   
 929:.\stlib\STM32F10x_StdPeriph_Driver\src/stm32f10x_can.c ****   /* Get the error code*/
 930:.\stlib\STM32F10x_StdPeriph_Driver\src/stm32f10x_can.c ****   errorcode = (((uint8_t)CANx->ESR) & (uint8_t)CAN_ESR_LEC);
 1859              		.loc 1 930 3 view .LVU551
 1860              	@ .\stlib\STM32F10x_StdPeriph_Driver\src\stm32f10x_can.c:930:   errorcode = (((uint8_t)CANx->ESR) &
 1861              		.loc 1 930 30 is_stmt 0 view .LVU552
 1862 0542 8069     		ldr	r0, [r0, #24]	@ _1, CANx_4(D)->ESR
ARM GAS  C:\Users\skey\AppData\Local\Temp\ccv9NfrL.s 			page 52


 1863              	.LVL83:
 931:.\stlib\STM32F10x_StdPeriph_Driver\src/stm32f10x_can.c ****   
 932:.\stlib\STM32F10x_StdPeriph_Driver\src/stm32f10x_can.c ****   /* Return the error code*/
 933:.\stlib\STM32F10x_StdPeriph_Driver\src/stm32f10x_can.c ****   return errorcode;
 1864              		.loc 1 933 3 is_stmt 1 view .LVU553
 1865              	@ .\stlib\STM32F10x_StdPeriph_Driver\src\stm32f10x_can.c:934: }
 934:.\stlib\STM32F10x_StdPeriph_Driver\src/stm32f10x_can.c **** }
 1866              		.loc 1 934 1 is_stmt 0 view .LVU554
 1867 0544 00F07000 		and	r0, r0, #112	@, _1,
 1868              	.LVL84:
 1869              		.loc 1 934 1 view .LVU555
 1870 0548 7047     		bx	lr	@
 1871              		.cfi_endproc
 1872              	.LFE45:
 1873              		.size	CAN_GetLastErrorCode, .-CAN_GetLastErrorCode
 1874              		.align	1
 1875              		.global	CAN_GetReceiveErrorCounter
 1876              		.syntax unified
 1877              		.thumb
 1878              		.thumb_func
 1879              		.fpu softvfp
 1880              		.type	CAN_GetReceiveErrorCounter, %function
 1881              	CAN_GetReceiveErrorCounter:
 1882              	.LVL85:
 1883              	.LFB46:
 935:.\stlib\STM32F10x_StdPeriph_Driver\src/stm32f10x_can.c **** /**
 936:.\stlib\STM32F10x_StdPeriph_Driver\src/stm32f10x_can.c ****   * @brief  Returns the CANx Receive Error Counter (REC).
 937:.\stlib\STM32F10x_StdPeriph_Driver\src/stm32f10x_can.c ****   * @note   In case of an error during reception, this counter is incremented 
 938:.\stlib\STM32F10x_StdPeriph_Driver\src/stm32f10x_can.c ****   *         by 1 or by 8 depending on the error condition as defined by the CAN 
 939:.\stlib\STM32F10x_StdPeriph_Driver\src/stm32f10x_can.c ****   *         standard. After every successful reception, the counter is 
 940:.\stlib\STM32F10x_StdPeriph_Driver\src/stm32f10x_can.c ****   *         decremented by 1 or reset to 120 if its value was higher than 128. 
 941:.\stlib\STM32F10x_StdPeriph_Driver\src/stm32f10x_can.c ****   *         When the counter value exceeds 127, the CAN controller enters the 
 942:.\stlib\STM32F10x_StdPeriph_Driver\src/stm32f10x_can.c ****   *         error passive state.  
 943:.\stlib\STM32F10x_StdPeriph_Driver\src/stm32f10x_can.c ****   * @param  CANx: where x can be 1 or 2 to to select the CAN peripheral.  
 944:.\stlib\STM32F10x_StdPeriph_Driver\src/stm32f10x_can.c ****   * @retval CAN Receive Error Counter. 
 945:.\stlib\STM32F10x_StdPeriph_Driver\src/stm32f10x_can.c ****   */
 946:.\stlib\STM32F10x_StdPeriph_Driver\src/stm32f10x_can.c **** uint8_t CAN_GetReceiveErrorCounter(CAN_TypeDef* CANx)
 947:.\stlib\STM32F10x_StdPeriph_Driver\src/stm32f10x_can.c **** {
 1884              		.loc 1 947 1 is_stmt 1 view -0
 1885              		.cfi_startproc
 1886              		@ args = 0, pretend = 0, frame = 0
 1887              		@ frame_needed = 0, uses_anonymous_args = 0
 1888              		@ link register save eliminated.
 948:.\stlib\STM32F10x_StdPeriph_Driver\src/stm32f10x_can.c ****   uint8_t counter=0;
 1889              		.loc 1 948 3 view .LVU557
 949:.\stlib\STM32F10x_StdPeriph_Driver\src/stm32f10x_can.c ****   
 950:.\stlib\STM32F10x_StdPeriph_Driver\src/stm32f10x_can.c ****   /* Check the parameters */
 951:.\stlib\STM32F10x_StdPeriph_Driver\src/stm32f10x_can.c ****   assert_param(IS_CAN_ALL_PERIPH(CANx));
 1890              		.loc 1 951 3 view .LVU558
 952:.\stlib\STM32F10x_StdPeriph_Driver\src/stm32f10x_can.c ****   
 953:.\stlib\STM32F10x_StdPeriph_Driver\src/stm32f10x_can.c ****   /* Get the Receive Error Counter*/
 954:.\stlib\STM32F10x_StdPeriph_Driver\src/stm32f10x_can.c ****   counter = (uint8_t)((CANx->ESR & CAN_ESR_REC)>> 24);
 1891              		.loc 1 954 3 view .LVU559
 1892              	@ .\stlib\STM32F10x_StdPeriph_Driver\src\stm32f10x_can.c:954:   counter = (uint8_t)((CANx->ESR & CA
 1893              		.loc 1 954 28 is_stmt 0 view .LVU560
 1894 054a 8069     		ldr	r0, [r0, #24]	@ _1, CANx_4(D)->ESR
 1895              	.LVL86:
ARM GAS  C:\Users\skey\AppData\Local\Temp\ccv9NfrL.s 			page 53


 955:.\stlib\STM32F10x_StdPeriph_Driver\src/stm32f10x_can.c ****   
 956:.\stlib\STM32F10x_StdPeriph_Driver\src/stm32f10x_can.c ****   /* Return the Receive Error Counter*/
 957:.\stlib\STM32F10x_StdPeriph_Driver\src/stm32f10x_can.c ****   return counter;
 1896              		.loc 1 957 3 is_stmt 1 view .LVU561
 1897              	@ .\stlib\STM32F10x_StdPeriph_Driver\src\stm32f10x_can.c:958: }
 958:.\stlib\STM32F10x_StdPeriph_Driver\src/stm32f10x_can.c **** }
 1898              		.loc 1 958 1 is_stmt 0 view .LVU562
 1899 054c 000E     		lsrs	r0, r0, #24	@, _1,
 1900              	.LVL87:
 1901              		.loc 1 958 1 view .LVU563
 1902 054e 7047     		bx	lr	@
 1903              		.cfi_endproc
 1904              	.LFE46:
 1905              		.size	CAN_GetReceiveErrorCounter, .-CAN_GetReceiveErrorCounter
 1906              		.align	1
 1907              		.global	CAN_GetLSBTransmitErrorCounter
 1908              		.syntax unified
 1909              		.thumb
 1910              		.thumb_func
 1911              		.fpu softvfp
 1912              		.type	CAN_GetLSBTransmitErrorCounter, %function
 1913              	CAN_GetLSBTransmitErrorCounter:
 1914              	.LVL88:
 1915              	.LFB47:
 959:.\stlib\STM32F10x_StdPeriph_Driver\src/stm32f10x_can.c **** 
 960:.\stlib\STM32F10x_StdPeriph_Driver\src/stm32f10x_can.c **** 
 961:.\stlib\STM32F10x_StdPeriph_Driver\src/stm32f10x_can.c **** /**
 962:.\stlib\STM32F10x_StdPeriph_Driver\src/stm32f10x_can.c ****   * @brief  Returns the LSB of the 9-bit CANx Transmit Error Counter(TEC).
 963:.\stlib\STM32F10x_StdPeriph_Driver\src/stm32f10x_can.c ****   * @param  CANx:   where x can be 1 or 2 to to select the CAN peripheral.  
 964:.\stlib\STM32F10x_StdPeriph_Driver\src/stm32f10x_can.c ****   * @retval LSB of the 9-bit CAN Transmit Error Counter. 
 965:.\stlib\STM32F10x_StdPeriph_Driver\src/stm32f10x_can.c ****   */
 966:.\stlib\STM32F10x_StdPeriph_Driver\src/stm32f10x_can.c **** uint8_t CAN_GetLSBTransmitErrorCounter(CAN_TypeDef* CANx)
 967:.\stlib\STM32F10x_StdPeriph_Driver\src/stm32f10x_can.c **** {
 1916              		.loc 1 967 1 is_stmt 1 view -0
 1917              		.cfi_startproc
 1918              		@ args = 0, pretend = 0, frame = 0
 1919              		@ frame_needed = 0, uses_anonymous_args = 0
 1920              		@ link register save eliminated.
 968:.\stlib\STM32F10x_StdPeriph_Driver\src/stm32f10x_can.c ****   uint8_t counter=0;
 1921              		.loc 1 968 3 view .LVU565
 969:.\stlib\STM32F10x_StdPeriph_Driver\src/stm32f10x_can.c ****   
 970:.\stlib\STM32F10x_StdPeriph_Driver\src/stm32f10x_can.c ****   /* Check the parameters */
 971:.\stlib\STM32F10x_StdPeriph_Driver\src/stm32f10x_can.c ****   assert_param(IS_CAN_ALL_PERIPH(CANx));
 1922              		.loc 1 971 3 view .LVU566
 972:.\stlib\STM32F10x_StdPeriph_Driver\src/stm32f10x_can.c ****   
 973:.\stlib\STM32F10x_StdPeriph_Driver\src/stm32f10x_can.c ****   /* Get the LSB of the 9-bit CANx Transmit Error Counter(TEC) */
 974:.\stlib\STM32F10x_StdPeriph_Driver\src/stm32f10x_can.c ****   counter = (uint8_t)((CANx->ESR & CAN_ESR_TEC)>> 16);
 1923              		.loc 1 974 3 view .LVU567
 1924              	@ .\stlib\STM32F10x_StdPeriph_Driver\src\stm32f10x_can.c:974:   counter = (uint8_t)((CANx->ESR & CA
 1925              		.loc 1 974 28 is_stmt 0 view .LVU568
 1926 0550 8069     		ldr	r0, [r0, #24]	@ _1, CANx_4(D)->ESR
 1927              	.LVL89:
 975:.\stlib\STM32F10x_StdPeriph_Driver\src/stm32f10x_can.c ****   
 976:.\stlib\STM32F10x_StdPeriph_Driver\src/stm32f10x_can.c ****   /* Return the LSB of the 9-bit CANx Transmit Error Counter(TEC) */
 977:.\stlib\STM32F10x_StdPeriph_Driver\src/stm32f10x_can.c ****   return counter;
 1928              		.loc 1 977 3 is_stmt 1 view .LVU569
 1929              	@ .\stlib\STM32F10x_StdPeriph_Driver\src\stm32f10x_can.c:978: }
ARM GAS  C:\Users\skey\AppData\Local\Temp\ccv9NfrL.s 			page 54


 978:.\stlib\STM32F10x_StdPeriph_Driver\src/stm32f10x_can.c **** }
 1930              		.loc 1 978 1 is_stmt 0 view .LVU570
 1931 0552 C0F30740 		ubfx	r0, r0, #16, #8	@, _1,,
 1932              	.LVL90:
 1933              		.loc 1 978 1 view .LVU571
 1934 0556 7047     		bx	lr	@
 1935              		.cfi_endproc
 1936              	.LFE47:
 1937              		.size	CAN_GetLSBTransmitErrorCounter, .-CAN_GetLSBTransmitErrorCounter
 1938              		.align	1
 1939              		.global	CAN_ITConfig
 1940              		.syntax unified
 1941              		.thumb
 1942              		.thumb_func
 1943              		.fpu softvfp
 1944              		.type	CAN_ITConfig, %function
 1945              	CAN_ITConfig:
 1946              	.LVL91:
 1947              	.LFB48:
 979:.\stlib\STM32F10x_StdPeriph_Driver\src/stm32f10x_can.c **** 
 980:.\stlib\STM32F10x_StdPeriph_Driver\src/stm32f10x_can.c **** 
 981:.\stlib\STM32F10x_StdPeriph_Driver\src/stm32f10x_can.c **** /**
 982:.\stlib\STM32F10x_StdPeriph_Driver\src/stm32f10x_can.c ****   * @brief  Enables or disables the specified CANx interrupts.
 983:.\stlib\STM32F10x_StdPeriph_Driver\src/stm32f10x_can.c ****   * @param  CANx:   where x can be 1 or 2 to to select the CAN peripheral.
 984:.\stlib\STM32F10x_StdPeriph_Driver\src/stm32f10x_can.c ****   * @param  CAN_IT: specifies the CAN interrupt sources to be enabled or disabled.
 985:.\stlib\STM32F10x_StdPeriph_Driver\src/stm32f10x_can.c ****   *                 This parameter can be: 
 986:.\stlib\STM32F10x_StdPeriph_Driver\src/stm32f10x_can.c ****   *                 - CAN_IT_TME, 
 987:.\stlib\STM32F10x_StdPeriph_Driver\src/stm32f10x_can.c ****   *                 - CAN_IT_FMP0, 
 988:.\stlib\STM32F10x_StdPeriph_Driver\src/stm32f10x_can.c ****   *                 - CAN_IT_FF0,
 989:.\stlib\STM32F10x_StdPeriph_Driver\src/stm32f10x_can.c ****   *                 - CAN_IT_FOV0, 
 990:.\stlib\STM32F10x_StdPeriph_Driver\src/stm32f10x_can.c ****   *                 - CAN_IT_FMP1, 
 991:.\stlib\STM32F10x_StdPeriph_Driver\src/stm32f10x_can.c ****   *                 - CAN_IT_FF1,
 992:.\stlib\STM32F10x_StdPeriph_Driver\src/stm32f10x_can.c ****   *                 - CAN_IT_FOV1, 
 993:.\stlib\STM32F10x_StdPeriph_Driver\src/stm32f10x_can.c ****   *                 - CAN_IT_EWG, 
 994:.\stlib\STM32F10x_StdPeriph_Driver\src/stm32f10x_can.c ****   *                 - CAN_IT_EPV,
 995:.\stlib\STM32F10x_StdPeriph_Driver\src/stm32f10x_can.c ****   *                 - CAN_IT_LEC, 
 996:.\stlib\STM32F10x_StdPeriph_Driver\src/stm32f10x_can.c ****   *                 - CAN_IT_ERR, 
 997:.\stlib\STM32F10x_StdPeriph_Driver\src/stm32f10x_can.c ****   *                 - CAN_IT_WKU or 
 998:.\stlib\STM32F10x_StdPeriph_Driver\src/stm32f10x_can.c ****   *                 - CAN_IT_SLK.
 999:.\stlib\STM32F10x_StdPeriph_Driver\src/stm32f10x_can.c ****   * @param  NewState: new state of the CAN interrupts.
1000:.\stlib\STM32F10x_StdPeriph_Driver\src/stm32f10x_can.c ****   *                   This parameter can be: ENABLE or DISABLE.
1001:.\stlib\STM32F10x_StdPeriph_Driver\src/stm32f10x_can.c ****   * @retval None.
1002:.\stlib\STM32F10x_StdPeriph_Driver\src/stm32f10x_can.c ****   */
1003:.\stlib\STM32F10x_StdPeriph_Driver\src/stm32f10x_can.c **** void CAN_ITConfig(CAN_TypeDef* CANx, uint32_t CAN_IT, FunctionalState NewState)
1004:.\stlib\STM32F10x_StdPeriph_Driver\src/stm32f10x_can.c **** {
 1948              		.loc 1 1004 1 is_stmt 1 view -0
 1949              		.cfi_startproc
 1950              		@ args = 0, pretend = 0, frame = 0
 1951              		@ frame_needed = 0, uses_anonymous_args = 0
 1952              		@ link register save eliminated.
1005:.\stlib\STM32F10x_StdPeriph_Driver\src/stm32f10x_can.c ****   /* Check the parameters */
1006:.\stlib\STM32F10x_StdPeriph_Driver\src/stm32f10x_can.c ****   assert_param(IS_CAN_ALL_PERIPH(CANx));
 1953              		.loc 1 1006 3 view .LVU573
1007:.\stlib\STM32F10x_StdPeriph_Driver\src/stm32f10x_can.c ****   assert_param(IS_CAN_IT(CAN_IT));
 1954              		.loc 1 1007 3 view .LVU574
1008:.\stlib\STM32F10x_StdPeriph_Driver\src/stm32f10x_can.c ****   assert_param(IS_FUNCTIONAL_STATE(NewState));
 1955              		.loc 1 1008 3 view .LVU575
ARM GAS  C:\Users\skey\AppData\Local\Temp\ccv9NfrL.s 			page 55


1009:.\stlib\STM32F10x_StdPeriph_Driver\src/stm32f10x_can.c **** 
1010:.\stlib\STM32F10x_StdPeriph_Driver\src/stm32f10x_can.c ****   if (NewState != DISABLE)
 1956              		.loc 1 1010 3 view .LVU576
 1957              	@ .\stlib\STM32F10x_StdPeriph_Driver\src\stm32f10x_can.c:1013:     CANx->IER |= CAN_IT;
1011:.\stlib\STM32F10x_StdPeriph_Driver\src/stm32f10x_can.c ****   {
1012:.\stlib\STM32F10x_StdPeriph_Driver\src/stm32f10x_can.c ****     /* Enable the selected CANx interrupt */
1013:.\stlib\STM32F10x_StdPeriph_Driver\src/stm32f10x_can.c ****     CANx->IER |= CAN_IT;
 1958              		.loc 1 1013 15 is_stmt 0 view .LVU577
 1959 0558 4369     		ldr	r3, [r0, #20]	@ _1,
 1960              	@ .\stlib\STM32F10x_StdPeriph_Driver\src\stm32f10x_can.c:1010:   if (NewState != DISABLE)
1010:.\stlib\STM32F10x_StdPeriph_Driver\src/stm32f10x_can.c ****   {
 1961              		.loc 1 1010 6 view .LVU578
 1962 055a 12B1     		cbz	r2, .L134	@ tmp121,
 1963              		.loc 1 1013 5 is_stmt 1 view .LVU579
 1964              	@ .\stlib\STM32F10x_StdPeriph_Driver\src\stm32f10x_can.c:1013:     CANx->IER |= CAN_IT;
 1965              		.loc 1 1013 15 is_stmt 0 view .LVU580
 1966 055c 1943     		orrs	r1, r1, r3	@, _2, CAN_IT, _1
 1967              	.LVL92:
 1968              	.L136:
 1969              	@ .\stlib\STM32F10x_StdPeriph_Driver\src\stm32f10x_can.c:1018:     CANx->IER &= ~CAN_IT;
1014:.\stlib\STM32F10x_StdPeriph_Driver\src/stm32f10x_can.c ****   }
1015:.\stlib\STM32F10x_StdPeriph_Driver\src/stm32f10x_can.c ****   else
1016:.\stlib\STM32F10x_StdPeriph_Driver\src/stm32f10x_can.c ****   {
1017:.\stlib\STM32F10x_StdPeriph_Driver\src/stm32f10x_can.c ****     /* Disable the selected CANx interrupt */
1018:.\stlib\STM32F10x_StdPeriph_Driver\src/stm32f10x_can.c ****     CANx->IER &= ~CAN_IT;
 1970              		.loc 1 1018 15 view .LVU581
 1971 055e 4161     		str	r1, [r0, #20]	@ _5,
 1972              	@ .\stlib\STM32F10x_StdPeriph_Driver\src\stm32f10x_can.c:1020: }
1019:.\stlib\STM32F10x_StdPeriph_Driver\src/stm32f10x_can.c ****   }
1020:.\stlib\STM32F10x_StdPeriph_Driver\src/stm32f10x_can.c **** }
 1973              		.loc 1 1020 1 view .LVU582
 1974 0560 7047     		bx	lr	@
 1975              	.LVL93:
 1976              	.L134:
1018:.\stlib\STM32F10x_StdPeriph_Driver\src/stm32f10x_can.c ****   }
 1977              		.loc 1 1018 5 is_stmt 1 view .LVU583
 1978              	@ .\stlib\STM32F10x_StdPeriph_Driver\src\stm32f10x_can.c:1018:     CANx->IER &= ~CAN_IT;
1018:.\stlib\STM32F10x_StdPeriph_Driver\src/stm32f10x_can.c ****   }
 1979              		.loc 1 1018 15 is_stmt 0 view .LVU584
 1980 0562 23EA0101 		bic	r1, r3, r1	@ _5, _3, CAN_IT
 1981              	.LVL94:
1018:.\stlib\STM32F10x_StdPeriph_Driver\src/stm32f10x_can.c ****   }
 1982              		.loc 1 1018 15 view .LVU585
 1983 0566 FAE7     		b	.L136		@
 1984              		.cfi_endproc
 1985              	.LFE48:
 1986              		.size	CAN_ITConfig, .-CAN_ITConfig
 1987              		.align	1
 1988              		.global	CAN_GetFlagStatus
 1989              		.syntax unified
 1990              		.thumb
 1991              		.thumb_func
 1992              		.fpu softvfp
 1993              		.type	CAN_GetFlagStatus, %function
 1994              	CAN_GetFlagStatus:
 1995              	.LVL95:
 1996              	.LFB49:
ARM GAS  C:\Users\skey\AppData\Local\Temp\ccv9NfrL.s 			page 56


1021:.\stlib\STM32F10x_StdPeriph_Driver\src/stm32f10x_can.c **** /**
1022:.\stlib\STM32F10x_StdPeriph_Driver\src/stm32f10x_can.c ****   * @brief  Checks whether the specified CAN flag is set or not.
1023:.\stlib\STM32F10x_StdPeriph_Driver\src/stm32f10x_can.c ****   * @param  CANx:     where x can be 1 or 2 to to select the CAN peripheral.
1024:.\stlib\STM32F10x_StdPeriph_Driver\src/stm32f10x_can.c ****   * @param  CAN_FLAG: specifies the flag to check.
1025:.\stlib\STM32F10x_StdPeriph_Driver\src/stm32f10x_can.c ****   *                   This parameter can be one of the following flags: 
1026:.\stlib\STM32F10x_StdPeriph_Driver\src/stm32f10x_can.c ****   *                  - CAN_FLAG_EWG
1027:.\stlib\STM32F10x_StdPeriph_Driver\src/stm32f10x_can.c ****   *                  - CAN_FLAG_EPV 
1028:.\stlib\STM32F10x_StdPeriph_Driver\src/stm32f10x_can.c ****   *                  - CAN_FLAG_BOF
1029:.\stlib\STM32F10x_StdPeriph_Driver\src/stm32f10x_can.c ****   *                  - CAN_FLAG_RQCP0
1030:.\stlib\STM32F10x_StdPeriph_Driver\src/stm32f10x_can.c ****   *                  - CAN_FLAG_RQCP1
1031:.\stlib\STM32F10x_StdPeriph_Driver\src/stm32f10x_can.c ****   *                  - CAN_FLAG_RQCP2
1032:.\stlib\STM32F10x_StdPeriph_Driver\src/stm32f10x_can.c ****   *                  - CAN_FLAG_FMP1   
1033:.\stlib\STM32F10x_StdPeriph_Driver\src/stm32f10x_can.c ****   *                  - CAN_FLAG_FF1       
1034:.\stlib\STM32F10x_StdPeriph_Driver\src/stm32f10x_can.c ****   *                  - CAN_FLAG_FOV1   
1035:.\stlib\STM32F10x_StdPeriph_Driver\src/stm32f10x_can.c ****   *                  - CAN_FLAG_FMP0   
1036:.\stlib\STM32F10x_StdPeriph_Driver\src/stm32f10x_can.c ****   *                  - CAN_FLAG_FF0       
1037:.\stlib\STM32F10x_StdPeriph_Driver\src/stm32f10x_can.c ****   *                  - CAN_FLAG_FOV0   
1038:.\stlib\STM32F10x_StdPeriph_Driver\src/stm32f10x_can.c ****   *                  - CAN_FLAG_WKU 
1039:.\stlib\STM32F10x_StdPeriph_Driver\src/stm32f10x_can.c ****   *                  - CAN_FLAG_SLAK  
1040:.\stlib\STM32F10x_StdPeriph_Driver\src/stm32f10x_can.c ****   *                  - CAN_FLAG_LEC       
1041:.\stlib\STM32F10x_StdPeriph_Driver\src/stm32f10x_can.c ****   * @retval The new state of CAN_FLAG (SET or RESET).
1042:.\stlib\STM32F10x_StdPeriph_Driver\src/stm32f10x_can.c ****   */
1043:.\stlib\STM32F10x_StdPeriph_Driver\src/stm32f10x_can.c **** FlagStatus CAN_GetFlagStatus(CAN_TypeDef* CANx, uint32_t CAN_FLAG)
1044:.\stlib\STM32F10x_StdPeriph_Driver\src/stm32f10x_can.c **** {
 1997              		.loc 1 1044 1 is_stmt 1 view -0
 1998              		.cfi_startproc
 1999              		@ args = 0, pretend = 0, frame = 0
 2000              		@ frame_needed = 0, uses_anonymous_args = 0
 2001              		@ link register save eliminated.
1045:.\stlib\STM32F10x_StdPeriph_Driver\src/stm32f10x_can.c ****   FlagStatus bitstatus = RESET;
 2002              		.loc 1 1045 3 view .LVU587
1046:.\stlib\STM32F10x_StdPeriph_Driver\src/stm32f10x_can.c ****   
1047:.\stlib\STM32F10x_StdPeriph_Driver\src/stm32f10x_can.c ****   /* Check the parameters */
1048:.\stlib\STM32F10x_StdPeriph_Driver\src/stm32f10x_can.c ****   assert_param(IS_CAN_ALL_PERIPH(CANx));
 2003              		.loc 1 1048 3 view .LVU588
1049:.\stlib\STM32F10x_StdPeriph_Driver\src/stm32f10x_can.c ****   assert_param(IS_CAN_GET_FLAG(CAN_FLAG));
 2004              		.loc 1 1049 3 view .LVU589
1050:.\stlib\STM32F10x_StdPeriph_Driver\src/stm32f10x_can.c ****   
1051:.\stlib\STM32F10x_StdPeriph_Driver\src/stm32f10x_can.c **** 
1052:.\stlib\STM32F10x_StdPeriph_Driver\src/stm32f10x_can.c ****   if((CAN_FLAG & CAN_FLAGS_ESR) != (uint32_t)RESET)
 2005              		.loc 1 1052 3 view .LVU590
 2006              	@ .\stlib\STM32F10x_StdPeriph_Driver\src\stm32f10x_can.c:1052:   if((CAN_FLAG & CAN_FLAGS_ESR) != (
 2007              		.loc 1 1052 5 is_stmt 0 view .LVU591
 2008 0568 11F4700F 		tst	r1, #15728640	@ CAN_FLAG,
 2009              	@ .\stlib\STM32F10x_StdPeriph_Driver\src\stm32f10x_can.c:1044: {
1044:.\stlib\STM32F10x_StdPeriph_Driver\src/stm32f10x_can.c ****   FlagStatus bitstatus = RESET;
 2010              		.loc 1 1044 1 view .LVU592
 2011 056c 0346     		mov	r3, r0	@ CANx, tmp167
 2012              	@ .\stlib\STM32F10x_StdPeriph_Driver\src\stm32f10x_can.c:1052:   if((CAN_FLAG & CAN_FLAGS_ESR) != (
 2013              		.loc 1 1052 5 view .LVU593
 2014 056e 07D0     		beq	.L138		@,
1053:.\stlib\STM32F10x_StdPeriph_Driver\src/stm32f10x_can.c ****   { 
1054:.\stlib\STM32F10x_StdPeriph_Driver\src/stm32f10x_can.c ****     /* Check the status of the specified CAN flag */
1055:.\stlib\STM32F10x_StdPeriph_Driver\src/stm32f10x_can.c ****     if ((CANx->ESR & (CAN_FLAG & 0x000FFFFF)) != (uint32_t)RESET)
 2015              		.loc 1 1055 5 is_stmt 1 view .LVU594
 2016              	@ .\stlib\STM32F10x_StdPeriph_Driver\src\stm32f10x_can.c:1055:     if ((CANx->ESR & (CAN_FLAG & 0x0
 2017              		.loc 1 1055 14 is_stmt 0 view .LVU595
ARM GAS  C:\Users\skey\AppData\Local\Temp\ccv9NfrL.s 			page 57


 2018 0570 8069     		ldr	r0, [r0, #24]	@ _2, CANx_23(D)->ESR
 2019              	.LVL96:
 2020              	.L143:
 2021              	@ .\stlib\STM32F10x_StdPeriph_Driver\src\stm32f10x_can.c:1111:     if ((uint32_t)(CANx->RF1R & (CAN
1056:.\stlib\STM32F10x_StdPeriph_Driver\src/stm32f10x_can.c ****     { 
1057:.\stlib\STM32F10x_StdPeriph_Driver\src/stm32f10x_can.c ****       /* CAN_FLAG is set */
1058:.\stlib\STM32F10x_StdPeriph_Driver\src/stm32f10x_can.c ****       bitstatus = SET;
1059:.\stlib\STM32F10x_StdPeriph_Driver\src/stm32f10x_can.c ****     }
1060:.\stlib\STM32F10x_StdPeriph_Driver\src/stm32f10x_can.c ****     else
1061:.\stlib\STM32F10x_StdPeriph_Driver\src/stm32f10x_can.c ****     { 
1062:.\stlib\STM32F10x_StdPeriph_Driver\src/stm32f10x_can.c ****       /* CAN_FLAG is reset */
1063:.\stlib\STM32F10x_StdPeriph_Driver\src/stm32f10x_can.c ****       bitstatus = RESET;
1064:.\stlib\STM32F10x_StdPeriph_Driver\src/stm32f10x_can.c ****     }
1065:.\stlib\STM32F10x_StdPeriph_Driver\src/stm32f10x_can.c ****   }
1066:.\stlib\STM32F10x_StdPeriph_Driver\src/stm32f10x_can.c ****   else if((CAN_FLAG & CAN_FLAGS_MSR) != (uint32_t)RESET)
1067:.\stlib\STM32F10x_StdPeriph_Driver\src/stm32f10x_can.c ****   { 
1068:.\stlib\STM32F10x_StdPeriph_Driver\src/stm32f10x_can.c ****     /* Check the status of the specified CAN flag */
1069:.\stlib\STM32F10x_StdPeriph_Driver\src/stm32f10x_can.c ****     if ((CANx->MSR & (CAN_FLAG & 0x000FFFFF)) != (uint32_t)RESET)
1070:.\stlib\STM32F10x_StdPeriph_Driver\src/stm32f10x_can.c ****     { 
1071:.\stlib\STM32F10x_StdPeriph_Driver\src/stm32f10x_can.c ****       /* CAN_FLAG is set */
1072:.\stlib\STM32F10x_StdPeriph_Driver\src/stm32f10x_can.c ****       bitstatus = SET;
1073:.\stlib\STM32F10x_StdPeriph_Driver\src/stm32f10x_can.c ****     }
1074:.\stlib\STM32F10x_StdPeriph_Driver\src/stm32f10x_can.c ****     else
1075:.\stlib\STM32F10x_StdPeriph_Driver\src/stm32f10x_can.c ****     { 
1076:.\stlib\STM32F10x_StdPeriph_Driver\src/stm32f10x_can.c ****       /* CAN_FLAG is reset */
1077:.\stlib\STM32F10x_StdPeriph_Driver\src/stm32f10x_can.c ****       bitstatus = RESET;
1078:.\stlib\STM32F10x_StdPeriph_Driver\src/stm32f10x_can.c ****     }
1079:.\stlib\STM32F10x_StdPeriph_Driver\src/stm32f10x_can.c ****   }
1080:.\stlib\STM32F10x_StdPeriph_Driver\src/stm32f10x_can.c ****   else if((CAN_FLAG & CAN_FLAGS_TSR) != (uint32_t)RESET)
1081:.\stlib\STM32F10x_StdPeriph_Driver\src/stm32f10x_can.c ****   { 
1082:.\stlib\STM32F10x_StdPeriph_Driver\src/stm32f10x_can.c ****     /* Check the status of the specified CAN flag */
1083:.\stlib\STM32F10x_StdPeriph_Driver\src/stm32f10x_can.c ****     if ((CANx->TSR & (CAN_FLAG & 0x000FFFFF)) != (uint32_t)RESET)
1084:.\stlib\STM32F10x_StdPeriph_Driver\src/stm32f10x_can.c ****     { 
1085:.\stlib\STM32F10x_StdPeriph_Driver\src/stm32f10x_can.c ****       /* CAN_FLAG is set */
1086:.\stlib\STM32F10x_StdPeriph_Driver\src/stm32f10x_can.c ****       bitstatus = SET;
1087:.\stlib\STM32F10x_StdPeriph_Driver\src/stm32f10x_can.c ****     }
1088:.\stlib\STM32F10x_StdPeriph_Driver\src/stm32f10x_can.c ****     else
1089:.\stlib\STM32F10x_StdPeriph_Driver\src/stm32f10x_can.c ****     { 
1090:.\stlib\STM32F10x_StdPeriph_Driver\src/stm32f10x_can.c ****       /* CAN_FLAG is reset */
1091:.\stlib\STM32F10x_StdPeriph_Driver\src/stm32f10x_can.c ****       bitstatus = RESET;
1092:.\stlib\STM32F10x_StdPeriph_Driver\src/stm32f10x_can.c ****     }
1093:.\stlib\STM32F10x_StdPeriph_Driver\src/stm32f10x_can.c ****   }
1094:.\stlib\STM32F10x_StdPeriph_Driver\src/stm32f10x_can.c ****   else if((CAN_FLAG & CAN_FLAGS_RF0R) != (uint32_t)RESET)
1095:.\stlib\STM32F10x_StdPeriph_Driver\src/stm32f10x_can.c ****   { 
1096:.\stlib\STM32F10x_StdPeriph_Driver\src/stm32f10x_can.c ****     /* Check the status of the specified CAN flag */
1097:.\stlib\STM32F10x_StdPeriph_Driver\src/stm32f10x_can.c ****     if ((CANx->RF0R & (CAN_FLAG & 0x000FFFFF)) != (uint32_t)RESET)
1098:.\stlib\STM32F10x_StdPeriph_Driver\src/stm32f10x_can.c ****     { 
1099:.\stlib\STM32F10x_StdPeriph_Driver\src/stm32f10x_can.c ****       /* CAN_FLAG is set */
1100:.\stlib\STM32F10x_StdPeriph_Driver\src/stm32f10x_can.c ****       bitstatus = SET;
1101:.\stlib\STM32F10x_StdPeriph_Driver\src/stm32f10x_can.c ****     }
1102:.\stlib\STM32F10x_StdPeriph_Driver\src/stm32f10x_can.c ****     else
1103:.\stlib\STM32F10x_StdPeriph_Driver\src/stm32f10x_can.c ****     { 
1104:.\stlib\STM32F10x_StdPeriph_Driver\src/stm32f10x_can.c ****       /* CAN_FLAG is reset */
1105:.\stlib\STM32F10x_StdPeriph_Driver\src/stm32f10x_can.c ****       bitstatus = RESET;
1106:.\stlib\STM32F10x_StdPeriph_Driver\src/stm32f10x_can.c ****     }
1107:.\stlib\STM32F10x_StdPeriph_Driver\src/stm32f10x_can.c ****   }
1108:.\stlib\STM32F10x_StdPeriph_Driver\src/stm32f10x_can.c ****   else /* If(CAN_FLAG & CAN_FLAGS_RF1R != (uint32_t)RESET) */
ARM GAS  C:\Users\skey\AppData\Local\Temp\ccv9NfrL.s 			page 58


1109:.\stlib\STM32F10x_StdPeriph_Driver\src/stm32f10x_can.c ****   { 
1110:.\stlib\STM32F10x_StdPeriph_Driver\src/stm32f10x_can.c ****     /* Check the status of the specified CAN flag */
1111:.\stlib\STM32F10x_StdPeriph_Driver\src/stm32f10x_can.c ****     if ((uint32_t)(CANx->RF1R & (CAN_FLAG & 0x000FFFFF)) != (uint32_t)RESET)
 2022              		.loc 1 1111 9 view .LVU596
 2023 0572 0840     		ands	r0, r0, r1	@, tmp161, _17, CAN_FLAG
 2024 0574 C0F31300 		ubfx	r0, r0, #0, #20	@ tmp162, tmp161,,
 2025              	@ .\stlib\STM32F10x_StdPeriph_Driver\src\stm32f10x_can.c:1063:       bitstatus = RESET;
1063:.\stlib\STM32F10x_StdPeriph_Driver\src/stm32f10x_can.c ****     }
 2026              		.loc 1 1063 17 view .LVU597
 2027 0578 0038     		subs	r0, r0, #0	@ <retval>, tmp162,
 2028 057a 18BF     		it	ne
 2029 057c 0120     		movne	r0, #1	@ <retval>,
 2030              	.LVL97:
1112:.\stlib\STM32F10x_StdPeriph_Driver\src/stm32f10x_can.c ****     { 
1113:.\stlib\STM32F10x_StdPeriph_Driver\src/stm32f10x_can.c ****       /* CAN_FLAG is set */
1114:.\stlib\STM32F10x_StdPeriph_Driver\src/stm32f10x_can.c ****       bitstatus = SET;
1115:.\stlib\STM32F10x_StdPeriph_Driver\src/stm32f10x_can.c ****     }
1116:.\stlib\STM32F10x_StdPeriph_Driver\src/stm32f10x_can.c ****     else
1117:.\stlib\STM32F10x_StdPeriph_Driver\src/stm32f10x_can.c ****     { 
1118:.\stlib\STM32F10x_StdPeriph_Driver\src/stm32f10x_can.c ****       /* CAN_FLAG is reset */
1119:.\stlib\STM32F10x_StdPeriph_Driver\src/stm32f10x_can.c ****       bitstatus = RESET;
1120:.\stlib\STM32F10x_StdPeriph_Driver\src/stm32f10x_can.c ****     }
1121:.\stlib\STM32F10x_StdPeriph_Driver\src/stm32f10x_can.c ****   }
1122:.\stlib\STM32F10x_StdPeriph_Driver\src/stm32f10x_can.c ****   /* Return the CAN_FLAG status */
1123:.\stlib\STM32F10x_StdPeriph_Driver\src/stm32f10x_can.c ****   return  bitstatus;
 2031              		.loc 1 1123 3 is_stmt 1 view .LVU598
 2032              	@ .\stlib\STM32F10x_StdPeriph_Driver\src\stm32f10x_can.c:1124: }
1124:.\stlib\STM32F10x_StdPeriph_Driver\src/stm32f10x_can.c **** }
 2033              		.loc 1 1124 1 is_stmt 0 view .LVU599
 2034 057e 7047     		bx	lr	@
 2035              	.LVL98:
 2036              	.L138:
1066:.\stlib\STM32F10x_StdPeriph_Driver\src/stm32f10x_can.c ****   { 
 2037              		.loc 1 1066 8 is_stmt 1 view .LVU600
 2038              	@ .\stlib\STM32F10x_StdPeriph_Driver\src\stm32f10x_can.c:1066:   else if((CAN_FLAG & CAN_FLAGS_MSR)
1066:.\stlib\STM32F10x_StdPeriph_Driver\src/stm32f10x_can.c ****   { 
 2039              		.loc 1 1066 10 is_stmt 0 view .LVU601
 2040 0580 CA01     		lsls	r2, r1, #7	@, CAN_FLAG,
 2041 0582 01D5     		bpl	.L140		@,
1069:.\stlib\STM32F10x_StdPeriph_Driver\src/stm32f10x_can.c ****     { 
 2042              		.loc 1 1069 5 is_stmt 1 view .LVU602
 2043              	@ .\stlib\STM32F10x_StdPeriph_Driver\src\stm32f10x_can.c:1069:     if ((CANx->MSR & (CAN_FLAG & 0x0
1069:.\stlib\STM32F10x_StdPeriph_Driver\src/stm32f10x_can.c ****     { 
 2044              		.loc 1 1069 14 is_stmt 0 view .LVU603
 2045 0584 4068     		ldr	r0, [r0, #4]	@ _6, CANx_23(D)->MSR
 2046              	.LVL99:
1069:.\stlib\STM32F10x_StdPeriph_Driver\src/stm32f10x_can.c ****     { 
 2047              		.loc 1 1069 14 view .LVU604
 2048 0586 F4E7     		b	.L143		@
 2049              	.LVL100:
 2050              	.L140:
1080:.\stlib\STM32F10x_StdPeriph_Driver\src/stm32f10x_can.c ****   { 
 2051              		.loc 1 1080 8 is_stmt 1 view .LVU605
 2052              	@ .\stlib\STM32F10x_StdPeriph_Driver\src\stm32f10x_can.c:1080:   else if((CAN_FLAG & CAN_FLAGS_TSR)
1080:.\stlib\STM32F10x_StdPeriph_Driver\src/stm32f10x_can.c ****   { 
 2053              		.loc 1 1080 10 is_stmt 0 view .LVU606
 2054 0588 0801     		lsls	r0, r1, #4	@, CAN_FLAG,
ARM GAS  C:\Users\skey\AppData\Local\Temp\ccv9NfrL.s 			page 59


 2055              	.LVL101:
1080:.\stlib\STM32F10x_StdPeriph_Driver\src/stm32f10x_can.c ****   { 
 2056              		.loc 1 1080 10 view .LVU607
 2057 058a 01D5     		bpl	.L141		@,
1083:.\stlib\STM32F10x_StdPeriph_Driver\src/stm32f10x_can.c ****     { 
 2058              		.loc 1 1083 5 is_stmt 1 view .LVU608
 2059              	@ .\stlib\STM32F10x_StdPeriph_Driver\src\stm32f10x_can.c:1083:     if ((CANx->TSR & (CAN_FLAG & 0x0
1083:.\stlib\STM32F10x_StdPeriph_Driver\src/stm32f10x_can.c ****     { 
 2060              		.loc 1 1083 14 is_stmt 0 view .LVU609
 2061 058c 9868     		ldr	r0, [r3, #8]	@ _10, CANx_23(D)->TSR
 2062 058e F0E7     		b	.L143		@
 2063              	.L141:
1094:.\stlib\STM32F10x_StdPeriph_Driver\src/stm32f10x_can.c ****   { 
 2064              		.loc 1 1094 8 is_stmt 1 view .LVU610
 2065              	@ .\stlib\STM32F10x_StdPeriph_Driver\src\stm32f10x_can.c:1094:   else if((CAN_FLAG & CAN_FLAGS_RF0R
1094:.\stlib\STM32F10x_StdPeriph_Driver\src/stm32f10x_can.c ****   { 
 2066              		.loc 1 1094 10 is_stmt 0 view .LVU611
 2067 0590 8A01     		lsls	r2, r1, #6	@, CAN_FLAG,
1097:.\stlib\STM32F10x_StdPeriph_Driver\src/stm32f10x_can.c ****     { 
 2068              		.loc 1 1097 5 is_stmt 1 view .LVU612
 2069              	@ .\stlib\STM32F10x_StdPeriph_Driver\src\stm32f10x_can.c:1097:     if ((CANx->RF0R & (CAN_FLAG & 0x
1097:.\stlib\STM32F10x_StdPeriph_Driver\src/stm32f10x_can.c ****     { 
 2070              		.loc 1 1097 14 is_stmt 0 view .LVU613
 2071 0592 4CBF     		ite	mi
 2072 0594 D868     		ldrmi	r0, [r3, #12]	@ _14, CANx_23(D)->RF0R
1111:.\stlib\STM32F10x_StdPeriph_Driver\src/stm32f10x_can.c ****     { 
 2073              		.loc 1 1111 5 is_stmt 1 view .LVU614
 2074              	@ .\stlib\STM32F10x_StdPeriph_Driver\src\stm32f10x_can.c:1111:     if ((uint32_t)(CANx->RF1R & (CAN
1111:.\stlib\STM32F10x_StdPeriph_Driver\src/stm32f10x_can.c ****     { 
 2075              		.loc 1 1111 24 is_stmt 0 view .LVU615
 2076 0596 1869     		ldrpl	r0, [r3, #16]	@ _17, CANx_23(D)->RF1R
 2077 0598 EBE7     		b	.L143		@
 2078              		.cfi_endproc
 2079              	.LFE49:
 2080              		.size	CAN_GetFlagStatus, .-CAN_GetFlagStatus
 2081              		.align	1
 2082              		.global	CAN_ClearFlag
 2083              		.syntax unified
 2084              		.thumb
 2085              		.thumb_func
 2086              		.fpu softvfp
 2087              		.type	CAN_ClearFlag, %function
 2088              	CAN_ClearFlag:
 2089              	.LVL102:
 2090              	.LFB50:
1125:.\stlib\STM32F10x_StdPeriph_Driver\src/stm32f10x_can.c **** 
1126:.\stlib\STM32F10x_StdPeriph_Driver\src/stm32f10x_can.c **** /**
1127:.\stlib\STM32F10x_StdPeriph_Driver\src/stm32f10x_can.c ****   * @brief  Clears the CAN's pending flags.
1128:.\stlib\STM32F10x_StdPeriph_Driver\src/stm32f10x_can.c ****   * @param  CANx:     where x can be 1 or 2 to to select the CAN peripheral.
1129:.\stlib\STM32F10x_StdPeriph_Driver\src/stm32f10x_can.c ****   * @param  CAN_FLAG: specifies the flag to clear.
1130:.\stlib\STM32F10x_StdPeriph_Driver\src/stm32f10x_can.c ****   *                   This parameter can be one of the following flags: 
1131:.\stlib\STM32F10x_StdPeriph_Driver\src/stm32f10x_can.c ****   *                    - CAN_FLAG_RQCP0
