ARM GAS  C:\Users\skey\AppData\Local\Temp\ccYFm4Xc.s 			page 1


   1              		.cpu cortex-m3
   2              		.eabi_attribute 20, 1	@ Tag_ABI_FP_denormal
   3              		.eabi_attribute 21, 1	@ Tag_ABI_FP_exceptions
   4              		.eabi_attribute 23, 3	@ Tag_ABI_FP_number_model
   5              		.eabi_attribute 24, 1	@ Tag_ABI_align8_needed
   6              		.eabi_attribute 25, 1	@ Tag_ABI_align8_preserved
   7              		.eabi_attribute 26, 1	@ Tag_ABI_enum_size
   8              		.eabi_attribute 30, 4	@ Tag_ABI_optimization_goals
   9              		.eabi_attribute 34, 1	@ Tag_CPU_unaligned_access
  10              		.eabi_attribute 18, 4	@ Tag_ABI_PCS_wchar_t
  11              		.file	"stm32f10x_exti.c"
  12              	@ GNU C17 (GNU Tools for Arm Embedded Processors 9-2019-q4-major) version 9.2.1 20191025 (release) 
  13              	@	compiled by GNU C version 5.3.1 20160211, GMP version 6.1.0, MPFR version 3.1.4, MPC version 1.0.
  14              	
  15              	@ GGC heuristics: --param ggc-min-expand=100 --param ggc-min-heapsize=131072
  16              	@ options passed:  -I . -I .\usr_inc -I .\task_inc
  17              	@ -I .\stlib\CMSIS\CM3\CoreSupport
  18              	@ -I .\stlib\CMSIS\CM3\DeviceSupport\ST\STM32F10x
  19              	@ -I .\stlib\STM32F10x_StdPeriph_Driver\inc
  20              	@ -I .\stlib\STM32F10x_StdPeriph_Driver -I .\freertos\include
  21              	@ -I .\freertos\portable\GCC\ARM_CM3 -imultilib thumb/v7-m/nofp
  22              	@ -iprefix c:\program files (x86)\gnu tools arm embedded\9 2019-q4-major\bin\../lib/gcc/arm-none-ea
  23              	@ -isysroot c:\program files (x86)\gnu tools arm embedded\9 2019-q4-major\bin\../arm-none-eabi
  24              	@ -D__USES_INITFINI__ -D STM32F10X_HD -D USE_STDPERIPH_DRIVER
  25              	@ -D HSE_VALUE=8000000 -D RUN_FROM_FLASH=1
  26              	@ .\stlib\STM32F10x_StdPeriph_Driver\src\stm32f10x_exti.c -mcpu=cortex-m3
  27              	@ -mthumb -mfloat-abi=soft -march=armv7-m
  28              	@ -auxbase-strip .\stlib\STM32F10x_StdPeriph_Driver\src\stm32f10x_exti.o -g
  29              	@ -gdwarf-2 -Os -Wall -fomit-frame-pointer -fverbose-asm
  30              	@ options enabled:  -faggressive-loop-optimizations -fassume-phsa
  31              	@ -fauto-inc-dec -fbranch-count-reg -fcaller-saves -fcode-hoisting
  32              	@ -fcombine-stack-adjustments -fcommon -fcompare-elim -fcprop-registers
  33              	@ -fcrossjumping -fcse-follow-jumps -fdefer-pop
  34              	@ -fdelete-null-pointer-checks -fdevirtualize -fdevirtualize-speculatively
  35              	@ -fdwarf2-cfi-asm -fearly-inlining -feliminate-unused-debug-types
  36              	@ -fexpensive-optimizations -fforward-propagate -ffp-int-builtin-inexact
  37              	@ -ffunction-cse -fgcse -fgcse-lm -fgnu-runtime -fgnu-unique
  38              	@ -fguess-branch-probability -fhoist-adjacent-loads -fident -fif-conversion
  39              	@ -fif-conversion2 -findirect-inlining -finline -finline-atomics
  40              	@ -finline-functions -finline-functions-called-once
  41              	@ -finline-small-functions -fipa-bit-cp -fipa-cp -fipa-icf
  42              	@ -fipa-icf-functions -fipa-icf-variables -fipa-profile -fipa-pure-const
  43              	@ -fipa-ra -fipa-reference -fipa-reference-addressable -fipa-sra
  44              	@ -fipa-stack-alignment -fipa-vrp -fira-hoist-pressure
  45              	@ -fira-share-save-slots -fira-share-spill-slots
  46              	@ -fisolate-erroneous-paths-dereference -fivopts -fkeep-static-consts
  47              	@ -fleading-underscore -flifetime-dse -flra-remat -flto-odr-type-merging
  48              	@ -fmath-errno -fmerge-constants -fmerge-debug-strings
  49              	@ -fmove-loop-invariants -fomit-frame-pointer -foptimize-sibling-calls
  50              	@ -fpartial-inlining -fpeephole -fpeephole2 -fplt -fprefetch-loop-arrays
  51              	@ -freg-struct-return -freorder-blocks -freorder-functions
  52              	@ -frerun-cse-after-loop -fsched-critical-path-heuristic
  53              	@ -fsched-dep-count-heuristic -fsched-group-heuristic -fsched-interblock
  54              	@ -fsched-last-insn-heuristic -fsched-pressure -fsched-rank-heuristic
  55              	@ -fsched-spec -fsched-spec-insn-heuristic -fsched-stalled-insns-dep
  56              	@ -fschedule-insns2 -fsection-anchors -fsemantic-interposition
  57              	@ -fshow-column -fshrink-wrap-separate -fsigned-zeros
ARM GAS  C:\Users\skey\AppData\Local\Temp\ccYFm4Xc.s 			page 2


  58              	@ -fsplit-ivs-in-unroller -fsplit-wide-types -fssa-backprop -fssa-phiopt
  59              	@ -fstdarg-opt -fstore-merging -fstrict-aliasing
  60              	@ -fstrict-volatile-bitfields -fsync-libcalls -fthread-jumps
  61              	@ -ftoplevel-reorder -ftrapping-math -ftree-bit-ccp -ftree-builtin-call-dce
  62              	@ -ftree-ccp -ftree-ch -ftree-coalesce-vars -ftree-copy-prop -ftree-cselim
  63              	@ -ftree-dce -ftree-dominator-opts -ftree-dse -ftree-forwprop -ftree-fre
  64              	@ -ftree-loop-if-convert -ftree-loop-im -ftree-loop-ivcanon
  65              	@ -ftree-loop-optimize -ftree-parallelize-loops= -ftree-phiprop -ftree-pre
  66              	@ -ftree-pta -ftree-reassoc -ftree-scev-cprop -ftree-sink -ftree-slsr
  67              	@ -ftree-sra -ftree-switch-conversion -ftree-tail-merge -ftree-ter
  68              	@ -ftree-vrp -funit-at-a-time -fvar-tracking -fvar-tracking-assignments
  69              	@ -fverbose-asm -fzero-initialized-in-bss -masm-syntax-unified -mbe32
  70              	@ -mfix-cortex-m3-ldrd -mlittle-endian -mpic-data-is-text-relative
  71              	@ -msched-prolog -mthumb -munaligned-access -mvectorize-with-neon-quad
  72              	
  73              		.text
  74              	.Ltext0:
  75              		.cfi_sections	.debug_frame
  76              		.align	1
  77              		.global	EXTI_DeInit
  78              		.arch armv7-m
  79              		.syntax unified
  80              		.thumb
  81              		.thumb_func
  82              		.fpu softvfp
  83              		.type	EXTI_DeInit, %function
  84              	EXTI_DeInit:
  85              	.LFB29:
  86              		.file 1 ".\\stlib\\STM32F10x_StdPeriph_Driver\\src\\stm32f10x_exti.c"
   1:.\stlib\STM32F10x_StdPeriph_Driver\src/stm32f10x_exti.c **** /**
   2:.\stlib\STM32F10x_StdPeriph_Driver\src/stm32f10x_exti.c ****   ******************************************************************************
   3:.\stlib\STM32F10x_StdPeriph_Driver\src/stm32f10x_exti.c ****   * @file    stm32f10x_exti.c
   4:.\stlib\STM32F10x_StdPeriph_Driver\src/stm32f10x_exti.c ****   * @author  MCD Application Team
   5:.\stlib\STM32F10x_StdPeriph_Driver\src/stm32f10x_exti.c ****   * @version V3.5.0
   6:.\stlib\STM32F10x_StdPeriph_Driver\src/stm32f10x_exti.c ****   * @date    11-March-2011
   7:.\stlib\STM32F10x_StdPeriph_Driver\src/stm32f10x_exti.c ****   * @brief   This file provides all the EXTI firmware functions.
   8:.\stlib\STM32F10x_StdPeriph_Driver\src/stm32f10x_exti.c ****   ******************************************************************************
   9:.\stlib\STM32F10x_StdPeriph_Driver\src/stm32f10x_exti.c ****   * @attention
  10:.\stlib\STM32F10x_StdPeriph_Driver\src/stm32f10x_exti.c ****   *
  11:.\stlib\STM32F10x_StdPeriph_Driver\src/stm32f10x_exti.c ****   * THE PRESENT FIRMWARE WHICH IS FOR GUIDANCE ONLY AIMS AT PROVIDING CUSTOMERS
  12:.\stlib\STM32F10x_StdPeriph_Driver\src/stm32f10x_exti.c ****   * WITH CODING INFORMATION REGARDING THEIR PRODUCTS IN ORDER FOR THEM TO SAVE
  13:.\stlib\STM32F10x_StdPeriph_Driver\src/stm32f10x_exti.c ****   * TIME. AS A RESULT, STMICROELECTRONICS SHALL NOT BE HELD LIABLE FOR ANY
  14:.\stlib\STM32F10x_StdPeriph_Driver\src/stm32f10x_exti.c ****   * DIRECT, INDIRECT OR CONSEQUENTIAL DAMAGES WITH RESPECT TO ANY CLAIMS ARISING
  15:.\stlib\STM32F10x_StdPeriph_Driver\src/stm32f10x_exti.c ****   * FROM THE CONTENT OF SUCH FIRMWARE AND/OR THE USE MADE BY CUSTOMERS OF THE
  16:.\stlib\STM32F10x_StdPeriph_Driver\src/stm32f10x_exti.c ****   * CODING INFORMATION CONTAINED HEREIN IN CONNECTION WITH THEIR PRODUCTS.
  17:.\stlib\STM32F10x_StdPeriph_Driver\src/stm32f10x_exti.c ****   *
  18:.\stlib\STM32F10x_StdPeriph_Driver\src/stm32f10x_exti.c ****   * <h2><center>&copy; COPYRIGHT 2011 STMicroelectronics</center></h2>
  19:.\stlib\STM32F10x_StdPeriph_Driver\src/stm32f10x_exti.c ****   ******************************************************************************
  20:.\stlib\STM32F10x_StdPeriph_Driver\src/stm32f10x_exti.c ****   */
  21:.\stlib\STM32F10x_StdPeriph_Driver\src/stm32f10x_exti.c **** 
  22:.\stlib\STM32F10x_StdPeriph_Driver\src/stm32f10x_exti.c **** /* Includes ------------------------------------------------------------------*/
  23:.\stlib\STM32F10x_StdPeriph_Driver\src/stm32f10x_exti.c **** #include "stm32f10x_exti.h"
  24:.\stlib\STM32F10x_StdPeriph_Driver\src/stm32f10x_exti.c **** 
  25:.\stlib\STM32F10x_StdPeriph_Driver\src/stm32f10x_exti.c **** /** @addtogroup STM32F10x_StdPeriph_Driver
  26:.\stlib\STM32F10x_StdPeriph_Driver\src/stm32f10x_exti.c ****   * @{
  27:.\stlib\STM32F10x_StdPeriph_Driver\src/stm32f10x_exti.c ****   */
  28:.\stlib\STM32F10x_StdPeriph_Driver\src/stm32f10x_exti.c **** 
ARM GAS  C:\Users\skey\AppData\Local\Temp\ccYFm4Xc.s 			page 3


  29:.\stlib\STM32F10x_StdPeriph_Driver\src/stm32f10x_exti.c **** /** @defgroup EXTI 
  30:.\stlib\STM32F10x_StdPeriph_Driver\src/stm32f10x_exti.c ****   * @brief EXTI driver modules
  31:.\stlib\STM32F10x_StdPeriph_Driver\src/stm32f10x_exti.c ****   * @{
  32:.\stlib\STM32F10x_StdPeriph_Driver\src/stm32f10x_exti.c ****   */
  33:.\stlib\STM32F10x_StdPeriph_Driver\src/stm32f10x_exti.c **** 
  34:.\stlib\STM32F10x_StdPeriph_Driver\src/stm32f10x_exti.c **** /** @defgroup EXTI_Private_TypesDefinitions
  35:.\stlib\STM32F10x_StdPeriph_Driver\src/stm32f10x_exti.c ****   * @{
  36:.\stlib\STM32F10x_StdPeriph_Driver\src/stm32f10x_exti.c ****   */
  37:.\stlib\STM32F10x_StdPeriph_Driver\src/stm32f10x_exti.c **** 
  38:.\stlib\STM32F10x_StdPeriph_Driver\src/stm32f10x_exti.c **** /**
  39:.\stlib\STM32F10x_StdPeriph_Driver\src/stm32f10x_exti.c ****   * @}
  40:.\stlib\STM32F10x_StdPeriph_Driver\src/stm32f10x_exti.c ****   */
  41:.\stlib\STM32F10x_StdPeriph_Driver\src/stm32f10x_exti.c **** 
  42:.\stlib\STM32F10x_StdPeriph_Driver\src/stm32f10x_exti.c **** /** @defgroup EXTI_Private_Defines
  43:.\stlib\STM32F10x_StdPeriph_Driver\src/stm32f10x_exti.c ****   * @{
  44:.\stlib\STM32F10x_StdPeriph_Driver\src/stm32f10x_exti.c ****   */
  45:.\stlib\STM32F10x_StdPeriph_Driver\src/stm32f10x_exti.c **** 
  46:.\stlib\STM32F10x_StdPeriph_Driver\src/stm32f10x_exti.c **** #define EXTI_LINENONE    ((uint32_t)0x00000)  /* No interrupt selected */
  47:.\stlib\STM32F10x_StdPeriph_Driver\src/stm32f10x_exti.c **** 
  48:.\stlib\STM32F10x_StdPeriph_Driver\src/stm32f10x_exti.c **** /**
  49:.\stlib\STM32F10x_StdPeriph_Driver\src/stm32f10x_exti.c ****   * @}
  50:.\stlib\STM32F10x_StdPeriph_Driver\src/stm32f10x_exti.c ****   */
  51:.\stlib\STM32F10x_StdPeriph_Driver\src/stm32f10x_exti.c **** 
  52:.\stlib\STM32F10x_StdPeriph_Driver\src/stm32f10x_exti.c **** /** @defgroup EXTI_Private_Macros
  53:.\stlib\STM32F10x_StdPeriph_Driver\src/stm32f10x_exti.c ****   * @{
  54:.\stlib\STM32F10x_StdPeriph_Driver\src/stm32f10x_exti.c ****   */
  55:.\stlib\STM32F10x_StdPeriph_Driver\src/stm32f10x_exti.c **** 
  56:.\stlib\STM32F10x_StdPeriph_Driver\src/stm32f10x_exti.c **** /**
  57:.\stlib\STM32F10x_StdPeriph_Driver\src/stm32f10x_exti.c ****   * @}
  58:.\stlib\STM32F10x_StdPeriph_Driver\src/stm32f10x_exti.c ****   */
  59:.\stlib\STM32F10x_StdPeriph_Driver\src/stm32f10x_exti.c **** 
  60:.\stlib\STM32F10x_StdPeriph_Driver\src/stm32f10x_exti.c **** /** @defgroup EXTI_Private_Variables
  61:.\stlib\STM32F10x_StdPeriph_Driver\src/stm32f10x_exti.c ****   * @{
  62:.\stlib\STM32F10x_StdPeriph_Driver\src/stm32f10x_exti.c ****   */
  63:.\stlib\STM32F10x_StdPeriph_Driver\src/stm32f10x_exti.c **** 
  64:.\stlib\STM32F10x_StdPeriph_Driver\src/stm32f10x_exti.c **** /**
  65:.\stlib\STM32F10x_StdPeriph_Driver\src/stm32f10x_exti.c ****   * @}
  66:.\stlib\STM32F10x_StdPeriph_Driver\src/stm32f10x_exti.c ****   */
  67:.\stlib\STM32F10x_StdPeriph_Driver\src/stm32f10x_exti.c **** 
  68:.\stlib\STM32F10x_StdPeriph_Driver\src/stm32f10x_exti.c **** /** @defgroup EXTI_Private_FunctionPrototypes
  69:.\stlib\STM32F10x_StdPeriph_Driver\src/stm32f10x_exti.c ****   * @{
  70:.\stlib\STM32F10x_StdPeriph_Driver\src/stm32f10x_exti.c ****   */
  71:.\stlib\STM32F10x_StdPeriph_Driver\src/stm32f10x_exti.c **** 
  72:.\stlib\STM32F10x_StdPeriph_Driver\src/stm32f10x_exti.c **** /**
  73:.\stlib\STM32F10x_StdPeriph_Driver\src/stm32f10x_exti.c ****   * @}
  74:.\stlib\STM32F10x_StdPeriph_Driver\src/stm32f10x_exti.c ****   */
  75:.\stlib\STM32F10x_StdPeriph_Driver\src/stm32f10x_exti.c **** 
  76:.\stlib\STM32F10x_StdPeriph_Driver\src/stm32f10x_exti.c **** /** @defgroup EXTI_Private_Functions
  77:.\stlib\STM32F10x_StdPeriph_Driver\src/stm32f10x_exti.c ****   * @{
  78:.\stlib\STM32F10x_StdPeriph_Driver\src/stm32f10x_exti.c ****   */
  79:.\stlib\STM32F10x_StdPeriph_Driver\src/stm32f10x_exti.c **** 
  80:.\stlib\STM32F10x_StdPeriph_Driver\src/stm32f10x_exti.c **** /**
  81:.\stlib\STM32F10x_StdPeriph_Driver\src/stm32f10x_exti.c ****   * @brief  Deinitializes the EXTI peripheral registers to their default reset values.
  82:.\stlib\STM32F10x_StdPeriph_Driver\src/stm32f10x_exti.c ****   * @param  None
  83:.\stlib\STM32F10x_StdPeriph_Driver\src/stm32f10x_exti.c ****   * @retval None
  84:.\stlib\STM32F10x_StdPeriph_Driver\src/stm32f10x_exti.c ****   */
  85:.\stlib\STM32F10x_StdPeriph_Driver\src/stm32f10x_exti.c **** void EXTI_DeInit(void)
ARM GAS  C:\Users\skey\AppData\Local\Temp\ccYFm4Xc.s 			page 4


  86:.\stlib\STM32F10x_StdPeriph_Driver\src/stm32f10x_exti.c **** {
  87              		.loc 1 86 1 view -0
  88              		.cfi_startproc
  89              		@ args = 0, pretend = 0, frame = 0
  90              		@ frame_needed = 0, uses_anonymous_args = 0
  91              		@ link register save eliminated.
  87:.\stlib\STM32F10x_StdPeriph_Driver\src/stm32f10x_exti.c ****   EXTI->IMR = 0x00000000;
  92              		.loc 1 87 3 view .LVU1
  93              	@ .\stlib\STM32F10x_StdPeriph_Driver\src\stm32f10x_exti.c:87:   EXTI->IMR = 0x00000000;
  94              		.loc 1 87 13 is_stmt 0 view .LVU2
  95 0000 0022     		movs	r2, #0	@ tmp111,
  96 0002 044B     		ldr	r3, .L2	@ tmp110,
  97 0004 1A60     		str	r2, [r3]	@ tmp111, MEM[(struct EXTI_TypeDef *)1073808384B].IMR
  88:.\stlib\STM32F10x_StdPeriph_Driver\src/stm32f10x_exti.c ****   EXTI->EMR = 0x00000000;
  98              		.loc 1 88 3 is_stmt 1 view .LVU3
  99              	@ .\stlib\STM32F10x_StdPeriph_Driver\src\stm32f10x_exti.c:88:   EXTI->EMR = 0x00000000;
 100              		.loc 1 88 13 is_stmt 0 view .LVU4
 101 0006 5A60     		str	r2, [r3, #4]	@ tmp111, MEM[(struct EXTI_TypeDef *)1073808384B].EMR
  89:.\stlib\STM32F10x_StdPeriph_Driver\src/stm32f10x_exti.c ****   EXTI->RTSR = 0x00000000; 
 102              		.loc 1 89 3 is_stmt 1 view .LVU5
 103              	@ .\stlib\STM32F10x_StdPeriph_Driver\src\stm32f10x_exti.c:89:   EXTI->RTSR = 0x00000000; 
 104              		.loc 1 89 14 is_stmt 0 view .LVU6
 105 0008 9A60     		str	r2, [r3, #8]	@ tmp111, MEM[(struct EXTI_TypeDef *)1073808384B].RTSR
  90:.\stlib\STM32F10x_StdPeriph_Driver\src/stm32f10x_exti.c ****   EXTI->FTSR = 0x00000000; 
 106              		.loc 1 90 3 is_stmt 1 view .LVU7
 107              	@ .\stlib\STM32F10x_StdPeriph_Driver\src\stm32f10x_exti.c:90:   EXTI->FTSR = 0x00000000; 
 108              		.loc 1 90 14 is_stmt 0 view .LVU8
 109 000a DA60     		str	r2, [r3, #12]	@ tmp111, MEM[(struct EXTI_TypeDef *)1073808384B].FTSR
  91:.\stlib\STM32F10x_StdPeriph_Driver\src/stm32f10x_exti.c ****   EXTI->PR = 0x000FFFFF;
 110              		.loc 1 91 3 is_stmt 1 view .LVU9
 111              	@ .\stlib\STM32F10x_StdPeriph_Driver\src\stm32f10x_exti.c:91:   EXTI->PR = 0x000FFFFF;
 112              		.loc 1 91 12 is_stmt 0 view .LVU10
 113 000c 024A     		ldr	r2, .L2+4	@ tmp119,
 114 000e 5A61     		str	r2, [r3, #20]	@ tmp119, MEM[(struct EXTI_TypeDef *)1073808384B].PR
 115              	@ .\stlib\STM32F10x_StdPeriph_Driver\src\stm32f10x_exti.c:92: }
  92:.\stlib\STM32F10x_StdPeriph_Driver\src/stm32f10x_exti.c **** }
 116              		.loc 1 92 1 view .LVU11
 117 0010 7047     		bx	lr	@
 118              	.L3:
 119 0012 00BF     		.align	2
 120              	.L2:
 121 0014 00040140 		.word	1073808384
 122 0018 FFFF0F00 		.word	1048575
 123              		.cfi_endproc
 124              	.LFE29:
 125              		.size	EXTI_DeInit, .-EXTI_DeInit
 126              		.align	1
 127              		.global	EXTI_Init
 128              		.syntax unified
 129              		.thumb
 130              		.thumb_func
 131              		.fpu softvfp
 132              		.type	EXTI_Init, %function
 133              	EXTI_Init:
 134              	.LVL0:
 135              	.LFB30:
  93:.\stlib\STM32F10x_StdPeriph_Driver\src/stm32f10x_exti.c **** 
ARM GAS  C:\Users\skey\AppData\Local\Temp\ccYFm4Xc.s 			page 5


  94:.\stlib\STM32F10x_StdPeriph_Driver\src/stm32f10x_exti.c **** /**
  95:.\stlib\STM32F10x_StdPeriph_Driver\src/stm32f10x_exti.c ****   * @brief  Initializes the EXTI peripheral according to the specified
  96:.\stlib\STM32F10x_StdPeriph_Driver\src/stm32f10x_exti.c ****   *         parameters in the EXTI_InitStruct.
  97:.\stlib\STM32F10x_StdPeriph_Driver\src/stm32f10x_exti.c ****   * @param  EXTI_InitStruct: pointer to a EXTI_InitTypeDef structure
  98:.\stlib\STM32F10x_StdPeriph_Driver\src/stm32f10x_exti.c ****   *         that contains the configuration information for the EXTI peripheral.
  99:.\stlib\STM32F10x_StdPeriph_Driver\src/stm32f10x_exti.c ****   * @retval None
 100:.\stlib\STM32F10x_StdPeriph_Driver\src/stm32f10x_exti.c ****   */
 101:.\stlib\STM32F10x_StdPeriph_Driver\src/stm32f10x_exti.c **** void EXTI_Init(EXTI_InitTypeDef* EXTI_InitStruct)
 102:.\stlib\STM32F10x_StdPeriph_Driver\src/stm32f10x_exti.c **** {
 136              		.loc 1 102 1 is_stmt 1 view -0
 137              		.cfi_startproc
 138              		@ args = 0, pretend = 0, frame = 0
 139              		@ frame_needed = 0, uses_anonymous_args = 0
 103:.\stlib\STM32F10x_StdPeriph_Driver\src/stm32f10x_exti.c ****   uint32_t tmp = 0;
 140              		.loc 1 103 3 view .LVU13
 104:.\stlib\STM32F10x_StdPeriph_Driver\src/stm32f10x_exti.c **** 
 105:.\stlib\STM32F10x_StdPeriph_Driver\src/stm32f10x_exti.c ****   /* Check the parameters */
 106:.\stlib\STM32F10x_StdPeriph_Driver\src/stm32f10x_exti.c ****   assert_param(IS_EXTI_MODE(EXTI_InitStruct->EXTI_Mode));
 141              		.loc 1 106 3 view .LVU14
 107:.\stlib\STM32F10x_StdPeriph_Driver\src/stm32f10x_exti.c ****   assert_param(IS_EXTI_TRIGGER(EXTI_InitStruct->EXTI_Trigger));
 142              		.loc 1 107 3 view .LVU15
 108:.\stlib\STM32F10x_StdPeriph_Driver\src/stm32f10x_exti.c ****   assert_param(IS_EXTI_LINE(EXTI_InitStruct->EXTI_Line));  
 143              		.loc 1 108 3 view .LVU16
 109:.\stlib\STM32F10x_StdPeriph_Driver\src/stm32f10x_exti.c ****   assert_param(IS_FUNCTIONAL_STATE(EXTI_InitStruct->EXTI_LineCmd));
 144              		.loc 1 109 3 view .LVU17
 110:.\stlib\STM32F10x_StdPeriph_Driver\src/stm32f10x_exti.c **** 
 111:.\stlib\STM32F10x_StdPeriph_Driver\src/stm32f10x_exti.c ****   tmp = (uint32_t)EXTI_BASE;
 145              		.loc 1 111 3 view .LVU18
 112:.\stlib\STM32F10x_StdPeriph_Driver\src/stm32f10x_exti.c ****      
 113:.\stlib\STM32F10x_StdPeriph_Driver\src/stm32f10x_exti.c ****   if (EXTI_InitStruct->EXTI_LineCmd != DISABLE)
 146              		.loc 1 113 3 view .LVU19
 147 001c 0279     		ldrb	r2, [r0, #4]	@ zero_extendqisi2	@ EXTI_InitStruct_37(D)->EXTI_Mode, EXTI_InitStruct_37(D)->EX
 148              	@ .\stlib\STM32F10x_StdPeriph_Driver\src\stm32f10x_exti.c:102: {
 102:.\stlib\STM32F10x_StdPeriph_Driver\src/stm32f10x_exti.c ****   uint32_t tmp = 0;
 149              		.loc 1 102 1 is_stmt 0 view .LVU20
 150 001e 30B5     		push	{r4, r5, lr}	@
 151              	.LCFI0:
 152              		.cfi_def_cfa_offset 12
 153              		.cfi_offset 4, -12
 154              		.cfi_offset 5, -8
 155              		.cfi_offset 14, -4
 156              	@ .\stlib\STM32F10x_StdPeriph_Driver\src\stm32f10x_exti.c:113:   if (EXTI_InitStruct->EXTI_LineCmd 
 157              		.loc 1 113 6 view .LVU21
 158 0020 8379     		ldrb	r3, [r0, #6]	@ zero_extendqisi2	@ EXTI_InitStruct_37(D)->EXTI_LineCmd, EXTI_InitStruct_37(D)-
 159 0022 0568     		ldr	r5, [r0]	@ pretmp_50, EXTI_InitStruct_37(D)->EXTI_Line
 160 0024 02F18042 		add	r2, r2, #1073741824	@ _51, EXTI_InitStruct_37(D)->EXTI_Mode,
 161 0028 E943     		mvns	r1, r5	@ _54, pretmp_50
 162 002a 02F58232 		add	r2, r2, #66560	@ _51, _51,
 163 002e 23B3     		cbz	r3, .L5	@ EXTI_InitStruct_37(D)->EXTI_LineCmd,
 114:.\stlib\STM32F10x_StdPeriph_Driver\src/stm32f10x_exti.c ****   {
 115:.\stlib\STM32F10x_StdPeriph_Driver\src/stm32f10x_exti.c ****     /* Clear EXTI line configuration */
 116:.\stlib\STM32F10x_StdPeriph_Driver\src/stm32f10x_exti.c ****     EXTI->IMR &= ~EXTI_InitStruct->EXTI_Line;
 164              		.loc 1 116 5 is_stmt 1 view .LVU22
 165              	@ .\stlib\STM32F10x_StdPeriph_Driver\src\stm32f10x_exti.c:116:     EXTI->IMR &= ~EXTI_InitStruct->E
 166              		.loc 1 116 15 is_stmt 0 view .LVU23
 167 0030 144B     		ldr	r3, .L8	@ tmp145,
 168 0032 1C68     		ldr	r4, [r3]	@ _2, MEM[(struct EXTI_TypeDef *)1073808384B].IMR
ARM GAS  C:\Users\skey\AppData\Local\Temp\ccYFm4Xc.s 			page 6


 169 0034 0C40     		ands	r4, r4, r1	@, _5, _2, _54
 170 0036 1C60     		str	r4, [r3]	@ _5, MEM[(struct EXTI_TypeDef *)1073808384B].IMR
 117:.\stlib\STM32F10x_StdPeriph_Driver\src/stm32f10x_exti.c ****     EXTI->EMR &= ~EXTI_InitStruct->EXTI_Line;
 171              		.loc 1 117 5 is_stmt 1 view .LVU24
 172              	@ .\stlib\STM32F10x_StdPeriph_Driver\src\stm32f10x_exti.c:117:     EXTI->EMR &= ~EXTI_InitStruct->E
 173              		.loc 1 117 15 is_stmt 0 view .LVU25
 174 0038 5C68     		ldr	r4, [r3, #4]	@ _6, MEM[(struct EXTI_TypeDef *)1073808384B].EMR
 175 003a 2140     		ands	r1, r1, r4	@, _7, _54, _6
 176 003c 5960     		str	r1, [r3, #4]	@ _7, MEM[(struct EXTI_TypeDef *)1073808384B].EMR
 118:.\stlib\STM32F10x_StdPeriph_Driver\src/stm32f10x_exti.c ****     
 119:.\stlib\STM32F10x_StdPeriph_Driver\src/stm32f10x_exti.c ****     tmp += EXTI_InitStruct->EXTI_Mode;
 177              		.loc 1 119 5 is_stmt 1 view .LVU26
 178              	.LVL1:
 120:.\stlib\STM32F10x_StdPeriph_Driver\src/stm32f10x_exti.c **** 
 121:.\stlib\STM32F10x_StdPeriph_Driver\src/stm32f10x_exti.c ****     *(__IO uint32_t *) tmp |= EXTI_InitStruct->EXTI_Line;
 179              		.loc 1 121 5 view .LVU27
 180              	@ .\stlib\STM32F10x_StdPeriph_Driver\src\stm32f10x_exti.c:121:     *(__IO uint32_t *) tmp |= EXTI_I
 181              		.loc 1 121 28 is_stmt 0 view .LVU28
 182 003e 1168     		ldr	r1, [r2]	@ _11, *_51
 183 0040 2943     		orrs	r1, r1, r5	@, _12, _11, pretmp_50
 184 0042 1160     		str	r1, [r2]	@ _12, *_51
 185              	.LVL2:
 122:.\stlib\STM32F10x_StdPeriph_Driver\src/stm32f10x_exti.c **** 
 123:.\stlib\STM32F10x_StdPeriph_Driver\src/stm32f10x_exti.c ****     /* Clear Rising Falling edge configuration */
 124:.\stlib\STM32F10x_StdPeriph_Driver\src/stm32f10x_exti.c ****     EXTI->RTSR &= ~EXTI_InitStruct->EXTI_Line;
 186              		.loc 1 124 5 is_stmt 1 view .LVU29
 187              	@ .\stlib\STM32F10x_StdPeriph_Driver\src\stm32f10x_exti.c:124:     EXTI->RTSR &= ~EXTI_InitStruct->
 188              		.loc 1 124 16 is_stmt 0 view .LVU30
 189 0044 9968     		ldr	r1, [r3, #8]	@ _13, MEM[(struct EXTI_TypeDef *)1073808384B].RTSR
 190              	@ .\stlib\STM32F10x_StdPeriph_Driver\src\stm32f10x_exti.c:124:     EXTI->RTSR &= ~EXTI_InitStruct->
 191              		.loc 1 124 35 view .LVU31
 192 0046 0268     		ldr	r2, [r0]	@ _14, EXTI_InitStruct_37(D)->EXTI_Line
 193              	@ .\stlib\STM32F10x_StdPeriph_Driver\src\stm32f10x_exti.c:124:     EXTI->RTSR &= ~EXTI_InitStruct->
 194              		.loc 1 124 16 view .LVU32
 195 0048 21EA0201 		bic	r1, r1, r2	@ _16, _13, _14
 196 004c 9960     		str	r1, [r3, #8]	@ _16, MEM[(struct EXTI_TypeDef *)1073808384B].RTSR
 125:.\stlib\STM32F10x_StdPeriph_Driver\src/stm32f10x_exti.c ****     EXTI->FTSR &= ~EXTI_InitStruct->EXTI_Line;
 197              		.loc 1 125 5 is_stmt 1 view .LVU33
 198              	@ .\stlib\STM32F10x_StdPeriph_Driver\src\stm32f10x_exti.c:125:     EXTI->FTSR &= ~EXTI_InitStruct->
 199              		.loc 1 125 16 is_stmt 0 view .LVU34
 200 004e D968     		ldr	r1, [r3, #12]	@ _17, MEM[(struct EXTI_TypeDef *)1073808384B].FTSR
 201 0050 21EA0201 		bic	r1, r1, r2	@ _18, _17, _14
 202 0054 D960     		str	r1, [r3, #12]	@ _18, MEM[(struct EXTI_TypeDef *)1073808384B].FTSR
 126:.\stlib\STM32F10x_StdPeriph_Driver\src/stm32f10x_exti.c ****     
 127:.\stlib\STM32F10x_StdPeriph_Driver\src/stm32f10x_exti.c ****     /* Select the trigger for the selected external interrupts */
 128:.\stlib\STM32F10x_StdPeriph_Driver\src/stm32f10x_exti.c ****     if (EXTI_InitStruct->EXTI_Trigger == EXTI_Trigger_Rising_Falling)
 203              		.loc 1 128 5 is_stmt 1 view .LVU35
 204              	@ .\stlib\STM32F10x_StdPeriph_Driver\src\stm32f10x_exti.c:128:     if (EXTI_InitStruct->EXTI_Trigge
 205              		.loc 1 128 24 is_stmt 0 view .LVU36
 206 0056 4179     		ldrb	r1, [r0, #5]	@ zero_extendqisi2	@ _19, EXTI_InitStruct_37(D)->EXTI_Trigger
 207              	@ .\stlib\STM32F10x_StdPeriph_Driver\src\stm32f10x_exti.c:128:     if (EXTI_InitStruct->EXTI_Trigge
 208              		.loc 1 128 8 view .LVU37
 209 0058 1029     		cmp	r1, #16	@ _19,
 210 005a 06D1     		bne	.L6		@,
 129:.\stlib\STM32F10x_StdPeriph_Driver\src/stm32f10x_exti.c ****     {
 130:.\stlib\STM32F10x_StdPeriph_Driver\src/stm32f10x_exti.c ****       /* Rising Falling edge */
 131:.\stlib\STM32F10x_StdPeriph_Driver\src/stm32f10x_exti.c ****       EXTI->RTSR |= EXTI_InitStruct->EXTI_Line;
ARM GAS  C:\Users\skey\AppData\Local\Temp\ccYFm4Xc.s 			page 7


 211              		.loc 1 131 7 is_stmt 1 view .LVU38
 212              	@ .\stlib\STM32F10x_StdPeriph_Driver\src\stm32f10x_exti.c:131:       EXTI->RTSR |= EXTI_InitStruct-
 213              		.loc 1 131 18 is_stmt 0 view .LVU39
 214 005c 9968     		ldr	r1, [r3, #8]	@ _20, MEM[(struct EXTI_TypeDef *)1073808384B].RTSR
 215 005e 1143     		orrs	r1, r1, r2	@, _21, _20, _14
 216 0060 9960     		str	r1, [r3, #8]	@ _21, MEM[(struct EXTI_TypeDef *)1073808384B].RTSR
 132:.\stlib\STM32F10x_StdPeriph_Driver\src/stm32f10x_exti.c ****       EXTI->FTSR |= EXTI_InitStruct->EXTI_Line;
 217              		.loc 1 132 7 is_stmt 1 view .LVU40
 218              	@ .\stlib\STM32F10x_StdPeriph_Driver\src\stm32f10x_exti.c:132:       EXTI->FTSR |= EXTI_InitStruct-
 219              		.loc 1 132 18 is_stmt 0 view .LVU41
 220 0062 D968     		ldr	r1, [r3, #12]	@ _22, MEM[(struct EXTI_TypeDef *)1073808384B].FTSR
 221 0064 0A43     		orrs	r2, r2, r1	@, _23, _14, _22
 222 0066 DA60     		str	r2, [r3, #12]	@ _23, MEM[(struct EXTI_TypeDef *)1073808384B].FTSR
 223              	.L4:
 224              	@ .\stlib\STM32F10x_StdPeriph_Driver\src\stm32f10x_exti.c:149: }
 133:.\stlib\STM32F10x_StdPeriph_Driver\src/stm32f10x_exti.c ****     }
 134:.\stlib\STM32F10x_StdPeriph_Driver\src/stm32f10x_exti.c ****     else
 135:.\stlib\STM32F10x_StdPeriph_Driver\src/stm32f10x_exti.c ****     {
 136:.\stlib\STM32F10x_StdPeriph_Driver\src/stm32f10x_exti.c ****       tmp = (uint32_t)EXTI_BASE;
 137:.\stlib\STM32F10x_StdPeriph_Driver\src/stm32f10x_exti.c ****       tmp += EXTI_InitStruct->EXTI_Trigger;
 138:.\stlib\STM32F10x_StdPeriph_Driver\src/stm32f10x_exti.c **** 
 139:.\stlib\STM32F10x_StdPeriph_Driver\src/stm32f10x_exti.c ****       *(__IO uint32_t *) tmp |= EXTI_InitStruct->EXTI_Line;
 140:.\stlib\STM32F10x_StdPeriph_Driver\src/stm32f10x_exti.c ****     }
 141:.\stlib\STM32F10x_StdPeriph_Driver\src/stm32f10x_exti.c ****   }
 142:.\stlib\STM32F10x_StdPeriph_Driver\src/stm32f10x_exti.c ****   else
 143:.\stlib\STM32F10x_StdPeriph_Driver\src/stm32f10x_exti.c ****   {
 144:.\stlib\STM32F10x_StdPeriph_Driver\src/stm32f10x_exti.c ****     tmp += EXTI_InitStruct->EXTI_Mode;
 145:.\stlib\STM32F10x_StdPeriph_Driver\src/stm32f10x_exti.c **** 
 146:.\stlib\STM32F10x_StdPeriph_Driver\src/stm32f10x_exti.c ****     /* Disable the selected external lines */
 147:.\stlib\STM32F10x_StdPeriph_Driver\src/stm32f10x_exti.c ****     *(__IO uint32_t *) tmp &= ~EXTI_InitStruct->EXTI_Line;
 148:.\stlib\STM32F10x_StdPeriph_Driver\src/stm32f10x_exti.c ****   }
 149:.\stlib\STM32F10x_StdPeriph_Driver\src/stm32f10x_exti.c **** }
 225              		.loc 1 149 1 view .LVU42
 226 0068 30BD     		pop	{r4, r5, pc}	@
 227              	.L6:
 136:.\stlib\STM32F10x_StdPeriph_Driver\src/stm32f10x_exti.c ****       tmp += EXTI_InitStruct->EXTI_Trigger;
 228              		.loc 1 136 7 is_stmt 1 view .LVU43
 229              	.LVL3:
 137:.\stlib\STM32F10x_StdPeriph_Driver\src/stm32f10x_exti.c **** 
 230              		.loc 1 137 7 view .LVU44
 139:.\stlib\STM32F10x_StdPeriph_Driver\src/stm32f10x_exti.c ****     }
 231              		.loc 1 139 7 view .LVU45
 232              	@ .\stlib\STM32F10x_StdPeriph_Driver\src\stm32f10x_exti.c:137:       tmp += EXTI_InitStruct->EXTI_T
 137:.\stlib\STM32F10x_StdPeriph_Driver\src/stm32f10x_exti.c **** 
 233              		.loc 1 137 11 is_stmt 0 view .LVU46
 234 006a 01F18043 		add	r3, r1, #1073741824	@ tmp.2_25, _19,
 235 006e 03F58233 		add	r3, r3, #66560	@ tmp.2_25, tmp.2_25,
 236              	@ .\stlib\STM32F10x_StdPeriph_Driver\src\stm32f10x_exti.c:139:       *(__IO uint32_t *) tmp |= EXTI
 139:.\stlib\STM32F10x_StdPeriph_Driver\src/stm32f10x_exti.c ****     }
 237              		.loc 1 139 30 view .LVU47
 238 0072 1968     		ldr	r1, [r3]	@ _26, *tmp.2_25
 239              	.LVL4:
 139:.\stlib\STM32F10x_StdPeriph_Driver\src/stm32f10x_exti.c ****     }
 240              		.loc 1 139 30 view .LVU48
 241 0074 0A43     		orrs	r2, r2, r1	@, _27, _14, _26
 242 0076 1A60     		str	r2, [r3]	@ _27, *tmp.2_25
 243 0078 F6E7     		b	.L4		@
ARM GAS  C:\Users\skey\AppData\Local\Temp\ccYFm4Xc.s 			page 8


 244              	.LVL5:
 245              	.L5:
 144:.\stlib\STM32F10x_StdPeriph_Driver\src/stm32f10x_exti.c **** 
 246              		.loc 1 144 5 is_stmt 1 view .LVU49
 147:.\stlib\STM32F10x_StdPeriph_Driver\src/stm32f10x_exti.c ****   }
 247              		.loc 1 147 5 view .LVU50
 248              	@ .\stlib\STM32F10x_StdPeriph_Driver\src\stm32f10x_exti.c:147:     *(__IO uint32_t *) tmp &= ~EXTI_
 147:.\stlib\STM32F10x_StdPeriph_Driver\src/stm32f10x_exti.c ****   }
 249              		.loc 1 147 28 is_stmt 0 view .LVU51
 250 007a 1368     		ldr	r3, [r2]	@ _31, *_51
 251 007c 0B40     		ands	r3, r3, r1	@, _34, _31, _54
 252 007e 1360     		str	r3, [r2]	@ _34, *_51
 253              	.LVL6:
 254              	@ .\stlib\STM32F10x_StdPeriph_Driver\src\stm32f10x_exti.c:149: }
 255              		.loc 1 149 1 view .LVU52
 256 0080 F2E7     		b	.L4		@
 257              	.L9:
 258 0082 00BF     		.align	2
 259              	.L8:
 260 0084 00040140 		.word	1073808384
 261              		.cfi_endproc
 262              	.LFE30:
 263              		.size	EXTI_Init, .-EXTI_Init
 264              		.align	1
 265              		.global	EXTI_StructInit
 266              		.syntax unified
 267              		.thumb
 268              		.thumb_func
 269              		.fpu softvfp
 270              		.type	EXTI_StructInit, %function
 271              	EXTI_StructInit:
 272              	.LVL7:
 273              	.LFB31:
 150:.\stlib\STM32F10x_StdPeriph_Driver\src/stm32f10x_exti.c **** 
 151:.\stlib\STM32F10x_StdPeriph_Driver\src/stm32f10x_exti.c **** /**
 152:.\stlib\STM32F10x_StdPeriph_Driver\src/stm32f10x_exti.c ****   * @brief  Fills each EXTI_InitStruct member with its reset value.
 153:.\stlib\STM32F10x_StdPeriph_Driver\src/stm32f10x_exti.c ****   * @param  EXTI_InitStruct: pointer to a EXTI_InitTypeDef structure which will
 154:.\stlib\STM32F10x_StdPeriph_Driver\src/stm32f10x_exti.c ****   *         be initialized.
 155:.\stlib\STM32F10x_StdPeriph_Driver\src/stm32f10x_exti.c ****   * @retval None
 156:.\stlib\STM32F10x_StdPeriph_Driver\src/stm32f10x_exti.c ****   */
 157:.\stlib\STM32F10x_StdPeriph_Driver\src/stm32f10x_exti.c **** void EXTI_StructInit(EXTI_InitTypeDef* EXTI_InitStruct)
 158:.\stlib\STM32F10x_StdPeriph_Driver\src/stm32f10x_exti.c **** {
 274              		.loc 1 158 1 is_stmt 1 view -0
 275              		.cfi_startproc
 276              		@ args = 0, pretend = 0, frame = 0
 277              		@ frame_needed = 0, uses_anonymous_args = 0
 278              		@ link register save eliminated.
 159:.\stlib\STM32F10x_StdPeriph_Driver\src/stm32f10x_exti.c ****   EXTI_InitStruct->EXTI_Line = EXTI_LINENONE;
 279              		.loc 1 159 3 view .LVU54
 160:.\stlib\STM32F10x_StdPeriph_Driver\src/stm32f10x_exti.c ****   EXTI_InitStruct->EXTI_Mode = EXTI_Mode_Interrupt;
 280              		.loc 1 160 3 view .LVU55
 161:.\stlib\STM32F10x_StdPeriph_Driver\src/stm32f10x_exti.c ****   EXTI_InitStruct->EXTI_Trigger = EXTI_Trigger_Falling;
 281              		.loc 1 161 3 view .LVU56
 162:.\stlib\STM32F10x_StdPeriph_Driver\src/stm32f10x_exti.c ****   EXTI_InitStruct->EXTI_LineCmd = DISABLE;
 282              		.loc 1 162 3 view .LVU57
 283              	@ .\stlib\STM32F10x_StdPeriph_Driver\src\stm32f10x_exti.c:159:   EXTI_InitStruct->EXTI_Line = EXTI_
 159:.\stlib\STM32F10x_StdPeriph_Driver\src/stm32f10x_exti.c ****   EXTI_InitStruct->EXTI_Mode = EXTI_Mode_Interrupt;
ARM GAS  C:\Users\skey\AppData\Local\Temp\ccYFm4Xc.s 			page 9


 284              		.loc 1 159 30 is_stmt 0 view .LVU58
 285 0088 0023     		movs	r3, #0	@ tmp111,
 286              	@ .\stlib\STM32F10x_StdPeriph_Driver\src\stm32f10x_exti.c:160:   EXTI_InitStruct->EXTI_Mode = EXTI_
 160:.\stlib\STM32F10x_StdPeriph_Driver\src/stm32f10x_exti.c ****   EXTI_InitStruct->EXTI_Trigger = EXTI_Trigger_Falling;
 287              		.loc 1 160 30 view .LVU59
 288 008a 4FF44062 		mov	r2, #3072	@ tmp113,
 289              	@ .\stlib\STM32F10x_StdPeriph_Driver\src\stm32f10x_exti.c:159:   EXTI_InitStruct->EXTI_Line = EXTI_
 159:.\stlib\STM32F10x_StdPeriph_Driver\src/stm32f10x_exti.c ****   EXTI_InitStruct->EXTI_Mode = EXTI_Mode_Interrupt;
 290              		.loc 1 159 30 view .LVU60
 291 008e 0360     		str	r3, [r0]	@ tmp111, EXTI_InitStruct_2(D)->EXTI_Line
 292              	@ .\stlib\STM32F10x_StdPeriph_Driver\src\stm32f10x_exti.c:160:   EXTI_InitStruct->EXTI_Mode = EXTI_
 160:.\stlib\STM32F10x_StdPeriph_Driver\src/stm32f10x_exti.c ****   EXTI_InitStruct->EXTI_Trigger = EXTI_Trigger_Falling;
 293              		.loc 1 160 30 view .LVU61
 294 0090 8280     		strh	r2, [r0, #4]	@ movhi	@ tmp113, MEM[(void *)EXTI_InitStruct_2(D) + 4B]
 295              	@ .\stlib\STM32F10x_StdPeriph_Driver\src\stm32f10x_exti.c:162:   EXTI_InitStruct->EXTI_LineCmd = DI
 296              		.loc 1 162 33 view .LVU62
 297 0092 8371     		strb	r3, [r0, #6]	@ tmp111, EXTI_InitStruct_2(D)->EXTI_LineCmd
 298              	@ .\stlib\STM32F10x_StdPeriph_Driver\src\stm32f10x_exti.c:163: }
 163:.\stlib\STM32F10x_StdPeriph_Driver\src/stm32f10x_exti.c **** }
 299              		.loc 1 163 1 view .LVU63
 300 0094 7047     		bx	lr	@
 301              		.cfi_endproc
 302              	.LFE31:
 303              		.size	EXTI_StructInit, .-EXTI_StructInit
 304              		.align	1
 305              		.global	EXTI_GenerateSWInterrupt
 306              		.syntax unified
 307              		.thumb
 308              		.thumb_func
 309              		.fpu softvfp
 310              		.type	EXTI_GenerateSWInterrupt, %function
 311              	EXTI_GenerateSWInterrupt:
 312              	.LVL8:
 313              	.LFB32:
 164:.\stlib\STM32F10x_StdPeriph_Driver\src/stm32f10x_exti.c **** 
 165:.\stlib\STM32F10x_StdPeriph_Driver\src/stm32f10x_exti.c **** /**
 166:.\stlib\STM32F10x_StdPeriph_Driver\src/stm32f10x_exti.c ****   * @brief  Generates a Software interrupt.
 167:.\stlib\STM32F10x_StdPeriph_Driver\src/stm32f10x_exti.c ****   * @param  EXTI_Line: specifies the EXTI lines to be enabled or disabled.
 168:.\stlib\STM32F10x_StdPeriph_Driver\src/stm32f10x_exti.c ****   *   This parameter can be any combination of EXTI_Linex where x can be (0..19).
 169:.\stlib\STM32F10x_StdPeriph_Driver\src/stm32f10x_exti.c ****   * @retval None
 170:.\stlib\STM32F10x_StdPeriph_Driver\src/stm32f10x_exti.c ****   */
 171:.\stlib\STM32F10x_StdPeriph_Driver\src/stm32f10x_exti.c **** void EXTI_GenerateSWInterrupt(uint32_t EXTI_Line)
 172:.\stlib\STM32F10x_StdPeriph_Driver\src/stm32f10x_exti.c **** {
 314              		.loc 1 172 1 is_stmt 1 view -0
 315              		.cfi_startproc
 316              		@ args = 0, pretend = 0, frame = 0
 317              		@ frame_needed = 0, uses_anonymous_args = 0
 318              		@ link register save eliminated.
 173:.\stlib\STM32F10x_StdPeriph_Driver\src/stm32f10x_exti.c ****   /* Check the parameters */
 174:.\stlib\STM32F10x_StdPeriph_Driver\src/stm32f10x_exti.c ****   assert_param(IS_EXTI_LINE(EXTI_Line));
 319              		.loc 1 174 3 view .LVU65
 175:.\stlib\STM32F10x_StdPeriph_Driver\src/stm32f10x_exti.c ****   
 176:.\stlib\STM32F10x_StdPeriph_Driver\src/stm32f10x_exti.c ****   EXTI->SWIER |= EXTI_Line;
 320              		.loc 1 176 3 view .LVU66
 321              	@ .\stlib\STM32F10x_StdPeriph_Driver\src\stm32f10x_exti.c:176:   EXTI->SWIER |= EXTI_Line;
 322              		.loc 1 176 15 is_stmt 0 view .LVU67
 323 0096 024A     		ldr	r2, .L12	@ tmp113,
ARM GAS  C:\Users\skey\AppData\Local\Temp\ccYFm4Xc.s 			page 10


 324 0098 1369     		ldr	r3, [r2, #16]	@ _1, MEM[(struct EXTI_TypeDef *)1073808384B].SWIER
 325 009a 0343     		orrs	r3, r3, r0	@, _2, _1, tmp115
 326 009c 1361     		str	r3, [r2, #16]	@ _2, MEM[(struct EXTI_TypeDef *)1073808384B].SWIER
 327              	@ .\stlib\STM32F10x_StdPeriph_Driver\src\stm32f10x_exti.c:177: }
 177:.\stlib\STM32F10x_StdPeriph_Driver\src/stm32f10x_exti.c **** }
 328              		.loc 1 177 1 view .LVU68
 329 009e 7047     		bx	lr	@
 330              	.L13:
 331              		.align	2
 332              	.L12:
 333 00a0 00040140 		.word	1073808384
 334              		.cfi_endproc
 335              	.LFE32:
 336              		.size	EXTI_GenerateSWInterrupt, .-EXTI_GenerateSWInterrupt
 337              		.align	1
 338              		.global	EXTI_GetFlagStatus
 339              		.syntax unified
 340              		.thumb
 341              		.thumb_func
 342              		.fpu softvfp
 343              		.type	EXTI_GetFlagStatus, %function
 344              	EXTI_GetFlagStatus:
 345              	.LVL9:
 346              	.LFB33:
 178:.\stlib\STM32F10x_StdPeriph_Driver\src/stm32f10x_exti.c **** 
 179:.\stlib\STM32F10x_StdPeriph_Driver\src/stm32f10x_exti.c **** /**
 180:.\stlib\STM32F10x_StdPeriph_Driver\src/stm32f10x_exti.c ****   * @brief  Checks whether the specified EXTI line flag is set or not.
 181:.\stlib\STM32F10x_StdPeriph_Driver\src/stm32f10x_exti.c ****   * @param  EXTI_Line: specifies the EXTI line flag to check.
 182:.\stlib\STM32F10x_StdPeriph_Driver\src/stm32f10x_exti.c ****   *   This parameter can be:
 183:.\stlib\STM32F10x_StdPeriph_Driver\src/stm32f10x_exti.c ****   *     @arg EXTI_Linex: External interrupt line x where x(0..19)
 184:.\stlib\STM32F10x_StdPeriph_Driver\src/stm32f10x_exti.c ****   * @retval The new state of EXTI_Line (SET or RESET).
 185:.\stlib\STM32F10x_StdPeriph_Driver\src/stm32f10x_exti.c ****   */
 186:.\stlib\STM32F10x_StdPeriph_Driver\src/stm32f10x_exti.c **** FlagStatus EXTI_GetFlagStatus(uint32_t EXTI_Line)
 187:.\stlib\STM32F10x_StdPeriph_Driver\src/stm32f10x_exti.c **** {
 347              		.loc 1 187 1 is_stmt 1 view -0
 348              		.cfi_startproc
 349              		@ args = 0, pretend = 0, frame = 0
 350              		@ frame_needed = 0, uses_anonymous_args = 0
 351              		@ link register save eliminated.
 188:.\stlib\STM32F10x_StdPeriph_Driver\src/stm32f10x_exti.c ****   FlagStatus bitstatus = RESET;
 352              		.loc 1 188 3 view .LVU70
 189:.\stlib\STM32F10x_StdPeriph_Driver\src/stm32f10x_exti.c ****   /* Check the parameters */
 190:.\stlib\STM32F10x_StdPeriph_Driver\src/stm32f10x_exti.c ****   assert_param(IS_GET_EXTI_LINE(EXTI_Line));
 353              		.loc 1 190 3 view .LVU71
 191:.\stlib\STM32F10x_StdPeriph_Driver\src/stm32f10x_exti.c ****   
 192:.\stlib\STM32F10x_StdPeriph_Driver\src/stm32f10x_exti.c ****   if ((EXTI->PR & EXTI_Line) != (uint32_t)RESET)
 354              		.loc 1 192 3 view .LVU72
 355              	@ .\stlib\STM32F10x_StdPeriph_Driver\src\stm32f10x_exti.c:192:   if ((EXTI->PR & EXTI_Line) != (uin
 356              		.loc 1 192 12 is_stmt 0 view .LVU73
 357 00a4 034B     		ldr	r3, .L15	@ tmp115,
 358 00a6 5B69     		ldr	r3, [r3, #20]	@ _1, MEM[(struct EXTI_TypeDef *)1073808384B].PR
 359              	.LVL10:
 193:.\stlib\STM32F10x_StdPeriph_Driver\src/stm32f10x_exti.c ****   {
 194:.\stlib\STM32F10x_StdPeriph_Driver\src/stm32f10x_exti.c ****     bitstatus = SET;
 195:.\stlib\STM32F10x_StdPeriph_Driver\src/stm32f10x_exti.c ****   }
 196:.\stlib\STM32F10x_StdPeriph_Driver\src/stm32f10x_exti.c ****   else
 197:.\stlib\STM32F10x_StdPeriph_Driver\src/stm32f10x_exti.c ****   {
ARM GAS  C:\Users\skey\AppData\Local\Temp\ccYFm4Xc.s 			page 11


 198:.\stlib\STM32F10x_StdPeriph_Driver\src/stm32f10x_exti.c ****     bitstatus = RESET;
 199:.\stlib\STM32F10x_StdPeriph_Driver\src/stm32f10x_exti.c ****   }
 200:.\stlib\STM32F10x_StdPeriph_Driver\src/stm32f10x_exti.c ****   return bitstatus;
 360              		.loc 1 200 3 is_stmt 1 view .LVU74
 361              	@ .\stlib\STM32F10x_StdPeriph_Driver\src\stm32f10x_exti.c:192:   if ((EXTI->PR & EXTI_Line) != (uin
 192:.\stlib\STM32F10x_StdPeriph_Driver\src/stm32f10x_exti.c ****   {
 362              		.loc 1 192 6 is_stmt 0 view .LVU75
 363 00a8 0342     		tst	r3, r0	@ _1, tmp120
 364              	@ .\stlib\STM32F10x_StdPeriph_Driver\src\stm32f10x_exti.c:201: }
 201:.\stlib\STM32F10x_StdPeriph_Driver\src/stm32f10x_exti.c **** }
 365              		.loc 1 201 1 view .LVU76
 366 00aa 14BF     		ite	ne
 367 00ac 0120     		movne	r0, #1	@,
 368              	.LVL11:
 369              		.loc 1 201 1 view .LVU77
 370 00ae 0020     		moveq	r0, #0	@,
 371 00b0 7047     		bx	lr	@
 372              	.L16:
 373 00b2 00BF     		.align	2
 374              	.L15:
 375 00b4 00040140 		.word	1073808384
 376              		.cfi_endproc
 377              	.LFE33:
 378              		.size	EXTI_GetFlagStatus, .-EXTI_GetFlagStatus
 379              		.align	1
 380              		.global	EXTI_ClearFlag
 381              		.syntax unified
 382              		.thumb
 383              		.thumb_func
 384              		.fpu softvfp
 385              		.type	EXTI_ClearFlag, %function
 386              	EXTI_ClearFlag:
 387              	.LVL12:
 388              	.LFB34:
 202:.\stlib\STM32F10x_StdPeriph_Driver\src/stm32f10x_exti.c **** 
 203:.\stlib\STM32F10x_StdPeriph_Driver\src/stm32f10x_exti.c **** /**
 204:.\stlib\STM32F10x_StdPeriph_Driver\src/stm32f10x_exti.c ****   * @brief  Clears the EXTI's line pending flags.
 205:.\stlib\STM32F10x_StdPeriph_Driver\src/stm32f10x_exti.c ****   * @param  EXTI_Line: specifies the EXTI lines flags to clear.
 206:.\stlib\STM32F10x_StdPeriph_Driver\src/stm32f10x_exti.c ****   *   This parameter can be any combination of EXTI_Linex where x can be (0..19).
 207:.\stlib\STM32F10x_StdPeriph_Driver\src/stm32f10x_exti.c ****   * @retval None
 208:.\stlib\STM32F10x_StdPeriph_Driver\src/stm32f10x_exti.c ****   */
 209:.\stlib\STM32F10x_StdPeriph_Driver\src/stm32f10x_exti.c **** void EXTI_ClearFlag(uint32_t EXTI_Line)
 210:.\stlib\STM32F10x_StdPeriph_Driver\src/stm32f10x_exti.c **** {
 389              		.loc 1 210 1 is_stmt 1 view -0
 390              		.cfi_startproc
 391              		@ args = 0, pretend = 0, frame = 0
 392              		@ frame_needed = 0, uses_anonymous_args = 0
 393              		@ link register save eliminated.
 211:.\stlib\STM32F10x_StdPeriph_Driver\src/stm32f10x_exti.c ****   /* Check the parameters */
 212:.\stlib\STM32F10x_StdPeriph_Driver\src/stm32f10x_exti.c ****   assert_param(IS_EXTI_LINE(EXTI_Line));
 394              		.loc 1 212 3 view .LVU79
 213:.\stlib\STM32F10x_StdPeriph_Driver\src/stm32f10x_exti.c ****   
 214:.\stlib\STM32F10x_StdPeriph_Driver\src/stm32f10x_exti.c ****   EXTI->PR = EXTI_Line;
 395              		.loc 1 214 3 view .LVU80
 396              	@ .\stlib\STM32F10x_StdPeriph_Driver\src\stm32f10x_exti.c:214:   EXTI->PR = EXTI_Line;
 397              		.loc 1 214 12 is_stmt 0 view .LVU81
 398 00b8 014B     		ldr	r3, .L18	@ tmp111,
ARM GAS  C:\Users\skey\AppData\Local\Temp\ccYFm4Xc.s 			page 12


 399 00ba 5861     		str	r0, [r3, #20]	@ EXTI_Line, MEM[(struct EXTI_TypeDef *)1073808384B].PR
 400              	@ .\stlib\STM32F10x_StdPeriph_Driver\src\stm32f10x_exti.c:215: }
 215:.\stlib\STM32F10x_StdPeriph_Driver\src/stm32f10x_exti.c **** }
 401              		.loc 1 215 1 view .LVU82
 402 00bc 7047     		bx	lr	@
 403              	.L19:
 404 00be 00BF     		.align	2
 405              	.L18:
 406 00c0 00040140 		.word	1073808384
 407              		.cfi_endproc
 408              	.LFE34:
 409              		.size	EXTI_ClearFlag, .-EXTI_ClearFlag
 410              		.align	1
 411              		.global	EXTI_GetITStatus
 412              		.syntax unified
 413              		.thumb
 414              		.thumb_func
 415              		.fpu softvfp
 416              		.type	EXTI_GetITStatus, %function
 417              	EXTI_GetITStatus:
 418              	.LVL13:
 419              	.LFB35:
 216:.\stlib\STM32F10x_StdPeriph_Driver\src/stm32f10x_exti.c **** 
 217:.\stlib\STM32F10x_StdPeriph_Driver\src/stm32f10x_exti.c **** /**
 218:.\stlib\STM32F10x_StdPeriph_Driver\src/stm32f10x_exti.c ****   * @brief  Checks whether the specified EXTI line is asserted or not.
 219:.\stlib\STM32F10x_StdPeriph_Driver\src/stm32f10x_exti.c ****   * @param  EXTI_Line: specifies the EXTI line to check.
 220:.\stlib\STM32F10x_StdPeriph_Driver\src/stm32f10x_exti.c ****   *   This parameter can be:
 221:.\stlib\STM32F10x_StdPeriph_Driver\src/stm32f10x_exti.c ****   *     @arg EXTI_Linex: External interrupt line x where x(0..19)
 222:.\stlib\STM32F10x_StdPeriph_Driver\src/stm32f10x_exti.c ****   * @retval The new state of EXTI_Line (SET or RESET).
 223:.\stlib\STM32F10x_StdPeriph_Driver\src/stm32f10x_exti.c ****   */
 224:.\stlib\STM32F10x_StdPeriph_Driver\src/stm32f10x_exti.c **** ITStatus EXTI_GetITStatus(uint32_t EXTI_Line)
 225:.\stlib\STM32F10x_StdPeriph_Driver\src/stm32f10x_exti.c **** {
 420              		.loc 1 225 1 is_stmt 1 view -0
 421              		.cfi_startproc
 422              		@ args = 0, pretend = 0, frame = 0
 423              		@ frame_needed = 0, uses_anonymous_args = 0
 424              		@ link register save eliminated.
 226:.\stlib\STM32F10x_StdPeriph_Driver\src/stm32f10x_exti.c ****   ITStatus bitstatus = RESET;
 425              		.loc 1 226 3 view .LVU84
 227:.\stlib\STM32F10x_StdPeriph_Driver\src/stm32f10x_exti.c ****   uint32_t enablestatus = 0;
 426              		.loc 1 227 3 view .LVU85
 228:.\stlib\STM32F10x_StdPeriph_Driver\src/stm32f10x_exti.c ****   /* Check the parameters */
 229:.\stlib\STM32F10x_StdPeriph_Driver\src/stm32f10x_exti.c ****   assert_param(IS_GET_EXTI_LINE(EXTI_Line));
 427              		.loc 1 229 3 view .LVU86
 230:.\stlib\STM32F10x_StdPeriph_Driver\src/stm32f10x_exti.c ****   
 231:.\stlib\STM32F10x_StdPeriph_Driver\src/stm32f10x_exti.c ****   enablestatus =  EXTI->IMR & EXTI_Line;
 428              		.loc 1 231 3 view .LVU87
 429              	@ .\stlib\STM32F10x_StdPeriph_Driver\src\stm32f10x_exti.c:225: {
 225:.\stlib\STM32F10x_StdPeriph_Driver\src/stm32f10x_exti.c ****   ITStatus bitstatus = RESET;
 430              		.loc 1 225 1 is_stmt 0 view .LVU88
 431 00c4 0246     		mov	r2, r0	@ EXTI_Line, tmp124
 432              	@ .\stlib\STM32F10x_StdPeriph_Driver\src\stm32f10x_exti.c:231:   enablestatus =  EXTI->IMR & EXTI_L
 433              		.loc 1 231 23 view .LVU89
 434 00c6 054B     		ldr	r3, .L23	@ tmp117,
 435 00c8 1968     		ldr	r1, [r3]	@ _1, MEM[(struct EXTI_TypeDef *)1073808384B].IMR
 436              	.LVL14:
 232:.\stlib\STM32F10x_StdPeriph_Driver\src/stm32f10x_exti.c ****   if (((EXTI->PR & EXTI_Line) != (uint32_t)RESET) && (enablestatus != (uint32_t)RESET))
ARM GAS  C:\Users\skey\AppData\Local\Temp\ccYFm4Xc.s 			page 13


 437              		.loc 1 232 3 is_stmt 1 view .LVU90
 438              	@ .\stlib\STM32F10x_StdPeriph_Driver\src\stm32f10x_exti.c:232:   if (((EXTI->PR & EXTI_Line) != (ui
 439              		.loc 1 232 13 is_stmt 0 view .LVU91
 440 00ca 5869     		ldr	r0, [r3, #20]	@ _2, MEM[(struct EXTI_TypeDef *)1073808384B].PR
 441              	.LVL15:
 442              	@ .\stlib\STM32F10x_StdPeriph_Driver\src\stm32f10x_exti.c:232:   if (((EXTI->PR & EXTI_Line) != (ui
 443              		.loc 1 232 6 view .LVU92
 444 00cc 1040     		ands	r0, r0, r2	@ tmp119, _2, EXTI_Line
 445 00ce 03D0     		beq	.L21		@,
 446              	@ .\stlib\STM32F10x_StdPeriph_Driver\src\stm32f10x_exti.c:232:   if (((EXTI->PR & EXTI_Line) != (ui
 447              		.loc 1 232 51 discriminator 1 view .LVU93
 448 00d0 1142     		tst	r1, r2	@ _1, EXTI_Line
 449              	@ .\stlib\STM32F10x_StdPeriph_Driver\src\stm32f10x_exti.c:238:     bitstatus = RESET;
 233:.\stlib\STM32F10x_StdPeriph_Driver\src/stm32f10x_exti.c ****   {
 234:.\stlib\STM32F10x_StdPeriph_Driver\src/stm32f10x_exti.c ****     bitstatus = SET;
 235:.\stlib\STM32F10x_StdPeriph_Driver\src/stm32f10x_exti.c ****   }
 236:.\stlib\STM32F10x_StdPeriph_Driver\src/stm32f10x_exti.c ****   else
 237:.\stlib\STM32F10x_StdPeriph_Driver\src/stm32f10x_exti.c ****   {
 238:.\stlib\STM32F10x_StdPeriph_Driver\src/stm32f10x_exti.c ****     bitstatus = RESET;
 450              		.loc 1 238 15 discriminator 1 view .LVU94
 451 00d2 14BF     		ite	ne
 452 00d4 0120     		movne	r0, #1	@ <retval>,
 453 00d6 0020     		moveq	r0, #0	@ <retval>,
 454              	.L21:
 455              	.LVL16:
 239:.\stlib\STM32F10x_StdPeriph_Driver\src/stm32f10x_exti.c ****   }
 240:.\stlib\STM32F10x_StdPeriph_Driver\src/stm32f10x_exti.c ****   return bitstatus;
 456              		.loc 1 240 3 is_stmt 1 view .LVU95
 457              	@ .\stlib\STM32F10x_StdPeriph_Driver\src\stm32f10x_exti.c:241: }
 241:.\stlib\STM32F10x_StdPeriph_Driver\src/stm32f10x_exti.c **** }
 458              		.loc 1 241 1 is_stmt 0 view .LVU96
 459 00d8 7047     		bx	lr	@
 460              	.L24:
 461 00da 00BF     		.align	2
 462              	.L23:
 463 00dc 00040140 		.word	1073808384
 464              		.cfi_endproc
 465              	.LFE35:
 466              		.size	EXTI_GetITStatus, .-EXTI_GetITStatus
 467              		.align	1
 468              		.global	EXTI_ClearITPendingBit
 469              		.syntax unified
 470              		.thumb
 471              		.thumb_func
 472              		.fpu softvfp
 473              		.type	EXTI_ClearITPendingBit, %function
 474              	EXTI_ClearITPendingBit:
 475              	.LFB38:
 476              		.cfi_startproc
 477              		@ args = 0, pretend = 0, frame = 0
 478              		@ frame_needed = 0, uses_anonymous_args = 0
 479              		@ link register save eliminated.
 480 00e0 014B     		ldr	r3, .L26	@ tmp111,
 481 00e2 5861     		str	r0, [r3, #20]	@ EXTI_Line, MEM[(struct EXTI_TypeDef *)1073808384B].PR
 482 00e4 7047     		bx	lr	@
 483              	.L27:
 484 00e6 00BF     		.align	2
ARM GAS  C:\Users\skey\AppData\Local\Temp\ccYFm4Xc.s 			page 14


 485              	.L26:
 486 00e8 00040140 		.word	1073808384
 487              		.cfi_endproc
 488              	.LFE38:
 489              		.size	EXTI_ClearITPendingBit, .-EXTI_ClearITPendingBit
 490              	.Letext0:
 491              		.file 2 "c:\\program files (x86)\\gnu tools arm embedded\\9 2019-q4-major\\arm-none-eabi\\include\
 492              		.file 3 "c:\\program files (x86)\\gnu tools arm embedded\\9 2019-q4-major\\arm-none-eabi\\include\
 493              		.file 4 ".\\stlib\\CMSIS\\CM3\\CoreSupport/core_cm3.h"
 494              		.file 5 ".\\stlib\\CMSIS\\CM3\\DeviceSupport\\ST\\STM32F10x/system_stm32f10x.h"
 495              		.file 6 ".\\stlib\\CMSIS\\CM3\\DeviceSupport\\ST\\STM32F10x/stm32f10x.h"
 496              		.file 7 ".\\stlib\\STM32F10x_StdPeriph_Driver\\inc/stm32f10x_exti.h"
 497              		.section	.debug_info,"",%progbits
 498              	.Ldebug_info0:
 499 0000 C1030000 		.4byte	0x3c1
 500 0004 0200     		.2byte	0x2
 501 0006 00000000 		.4byte	.Ldebug_abbrev0
 502 000a 04       		.byte	0x4
 503 000b 01       		.uleb128 0x1
 504 000c D1020000 		.4byte	.LASF43
 505 0010 0C       		.byte	0xc
 506 0011 6C010000 		.4byte	.LASF44
 507 0015 3E020000 		.4byte	.LASF45
 508 0019 00000000 		.4byte	.Ltext0
 509 001d EC000000 		.4byte	.Letext0
 510 0021 00000000 		.4byte	.Ldebug_line0
 511 0025 02       		.uleb128 0x2
 512 0026 01       		.byte	0x1
 513 0027 06       		.byte	0x6
 514 0028 B1020000 		.4byte	.LASF0
 515 002c 02       		.uleb128 0x2
 516 002d 01       		.byte	0x1
 517 002e 08       		.byte	0x8
 518 002f EB000000 		.4byte	.LASF1
 519 0033 02       		.uleb128 0x2
 520 0034 02       		.byte	0x2
 521 0035 05       		.byte	0x5
 522 0036 99020000 		.4byte	.LASF2
 523 003a 02       		.uleb128 0x2
 524 003b 02       		.byte	0x2
 525 003c 07       		.byte	0x7
 526 003d 69000000 		.4byte	.LASF3
 527 0041 02       		.uleb128 0x2
 528 0042 04       		.byte	0x4
 529 0043 05       		.byte	0x5
 530 0044 A8020000 		.4byte	.LASF4
 531 0048 03       		.uleb128 0x3
 532 0049 A4010000 		.4byte	.LASF9
 533 004d 02       		.byte	0x2
 534 004e 4F       		.byte	0x4f
 535 004f 19       		.byte	0x19
 536 0050 54000000 		.4byte	0x54
 537 0054 02       		.uleb128 0x2
 538 0055 04       		.byte	0x4
 539 0056 07       		.byte	0x7
 540 0057 13010000 		.4byte	.LASF5
 541 005b 02       		.uleb128 0x2
ARM GAS  C:\Users\skey\AppData\Local\Temp\ccYFm4Xc.s 			page 15


 542 005c 08       		.byte	0x8
 543 005d 05       		.byte	0x5
 544 005e 30020000 		.4byte	.LASF6
 545 0062 02       		.uleb128 0x2
 546 0063 08       		.byte	0x8
 547 0064 07       		.byte	0x7
 548 0065 09020000 		.4byte	.LASF7
 549 0069 04       		.uleb128 0x4
 550 006a 04       		.byte	0x4
 551 006b 05       		.byte	0x5
 552 006c 696E7400 		.ascii	"int\000"
 553 0070 05       		.uleb128 0x5
 554 0071 69000000 		.4byte	0x69
 555 0075 02       		.uleb128 0x2
 556 0076 04       		.byte	0x4
 557 0077 07       		.byte	0x7
 558 0078 DF010000 		.4byte	.LASF8
 559 007c 03       		.uleb128 0x3
 560 007d 63010000 		.4byte	.LASF10
 561 0081 03       		.byte	0x3
 562 0082 30       		.byte	0x30
 563 0083 14       		.byte	0x14
 564 0084 48000000 		.4byte	0x48
 565 0088 05       		.uleb128 0x5
 566 0089 7C000000 		.4byte	0x7c
 567 008d 06       		.uleb128 0x6
 568 008e 51010000 		.4byte	.LASF11
 569 0092 04       		.byte	0x4
 570 0093 CE06     		.2byte	0x6ce
 571 0095 15       		.byte	0x15
 572 0096 70000000 		.4byte	0x70
 573 009a 01       		.byte	0x1
 574 009b 01       		.byte	0x1
 575 009c 07       		.uleb128 0x7
 576 009d 61020000 		.4byte	.LASF12
 577 00a1 05       		.byte	0x5
 578 00a2 35       		.byte	0x35
 579 00a3 11       		.byte	0x11
 580 00a4 7C000000 		.4byte	0x7c
 581 00a8 01       		.byte	0x1
 582 00a9 01       		.byte	0x1
 583 00aa 08       		.uleb128 0x8
 584 00ab 07       		.byte	0x7
 585 00ac 01       		.byte	0x1
 586 00ad 2C000000 		.4byte	0x2c
 587 00b1 06       		.byte	0x6
 588 00b2 0702     		.2byte	0x207
 589 00b4 0E       		.byte	0xe
 590 00b5 C6000000 		.4byte	0xc6
 591 00b9 09       		.uleb128 0x9
 592 00ba 25010000 		.4byte	.LASF13
 593 00be 00       		.byte	0
 594 00bf 0A       		.uleb128 0xa
 595 00c0 53455400 		.ascii	"SET\000"
 596 00c4 01       		.byte	0x1
 597 00c5 00       		.byte	0
 598 00c6 0B       		.uleb128 0xb
ARM GAS  C:\Users\skey\AppData\Local\Temp\ccYFm4Xc.s 			page 16


 599 00c7 F9000000 		.4byte	.LASF14
 600 00cb 06       		.byte	0x6
 601 00cc 0702     		.2byte	0x207
 602 00ce 28       		.byte	0x28
 603 00cf AA000000 		.4byte	0xaa
 604 00d3 0B       		.uleb128 0xb
 605 00d4 14000000 		.4byte	.LASF15
 606 00d8 06       		.byte	0x6
 607 00d9 0702     		.2byte	0x207
 608 00db 34       		.byte	0x34
 609 00dc AA000000 		.4byte	0xaa
 610 00e0 08       		.uleb128 0x8
 611 00e1 07       		.byte	0x7
 612 00e2 01       		.byte	0x1
 613 00e3 2C000000 		.4byte	0x2c
 614 00e7 06       		.byte	0x6
 615 00e8 0902     		.2byte	0x209
 616 00ea 0E       		.byte	0xe
 617 00eb FC000000 		.4byte	0xfc
 618 00ef 09       		.uleb128 0x9
 619 00f0 49010000 		.4byte	.LASF16
 620 00f4 00       		.byte	0
 621 00f5 09       		.uleb128 0x9
 622 00f6 D0000000 		.4byte	.LASF17
 623 00fa 01       		.byte	0x1
 624 00fb 00       		.byte	0
 625 00fc 0B       		.uleb128 0xb
 626 00fd 7C000000 		.4byte	.LASF18
 627 0101 06       		.byte	0x6
 628 0102 0902     		.2byte	0x209
 629 0104 2F       		.byte	0x2f
 630 0105 E0000000 		.4byte	0xe0
 631 0109 0C       		.uleb128 0xc
 632 010a 18       		.byte	0x18
 633 010b 06       		.byte	0x6
 634 010c 7703     		.2byte	0x377
 635 010e 09       		.byte	0x9
 636 010f 73010000 		.4byte	0x173
 637 0113 0D       		.uleb128 0xd
 638 0114 494D5200 		.ascii	"IMR\000"
 639 0118 06       		.byte	0x6
 640 0119 7903     		.2byte	0x379
 641 011b 11       		.byte	0x11
 642 011c 88000000 		.4byte	0x88
 643 0120 02       		.byte	0x2
 644 0121 23       		.byte	0x23
 645 0122 00       		.uleb128 0
 646 0123 0D       		.uleb128 0xd
 647 0124 454D5200 		.ascii	"EMR\000"
 648 0128 06       		.byte	0x6
 649 0129 7A03     		.2byte	0x37a
 650 012b 11       		.byte	0x11
 651 012c 88000000 		.4byte	0x88
 652 0130 02       		.byte	0x2
 653 0131 23       		.byte	0x23
 654 0132 04       		.uleb128 0x4
 655 0133 0E       		.uleb128 0xe
ARM GAS  C:\Users\skey\AppData\Local\Temp\ccYFm4Xc.s 			page 17


 656 0134 5E010000 		.4byte	.LASF19
 657 0138 06       		.byte	0x6
 658 0139 7B03     		.2byte	0x37b
 659 013b 11       		.byte	0x11
 660 013c 88000000 		.4byte	0x88
 661 0140 02       		.byte	0x2
 662 0141 23       		.byte	0x23
 663 0142 08       		.uleb128 0x8
 664 0143 0E       		.uleb128 0xe
 665 0144 A3020000 		.4byte	.LASF20
 666 0148 06       		.byte	0x6
 667 0149 7C03     		.2byte	0x37c
 668 014b 11       		.byte	0x11
 669 014c 88000000 		.4byte	0x88
 670 0150 02       		.byte	0x2
 671 0151 23       		.byte	0x23
 672 0152 0C       		.uleb128 0xc
 673 0153 0E       		.uleb128 0xe
 674 0154 73030000 		.4byte	.LASF21
 675 0158 06       		.byte	0x6
 676 0159 7D03     		.2byte	0x37d
 677 015b 11       		.byte	0x11
 678 015c 88000000 		.4byte	0x88
 679 0160 02       		.byte	0x2
 680 0161 23       		.byte	0x23
 681 0162 10       		.uleb128 0x10
 682 0163 0D       		.uleb128 0xd
 683 0164 505200   		.ascii	"PR\000"
 684 0167 06       		.byte	0x6
 685 0168 7E03     		.2byte	0x37e
 686 016a 11       		.byte	0x11
 687 016b 88000000 		.4byte	0x88
 688 016f 02       		.byte	0x2
 689 0170 23       		.byte	0x23
 690 0171 14       		.uleb128 0x14
 691 0172 00       		.byte	0
 692 0173 0B       		.uleb128 0xb
 693 0174 3C010000 		.4byte	.LASF22
 694 0178 06       		.byte	0x6
 695 0179 7F03     		.2byte	0x37f
 696 017b 03       		.byte	0x3
 697 017c 09010000 		.4byte	0x109
 698 0180 0F       		.uleb128 0xf
 699 0181 07       		.byte	0x7
 700 0182 01       		.byte	0x1
 701 0183 2C000000 		.4byte	0x2c
 702 0187 07       		.byte	0x7
 703 0188 33       		.byte	0x33
 704 0189 01       		.byte	0x1
 705 018a 9B010000 		.4byte	0x19b
 706 018e 09       		.uleb128 0x9
 707 018f D7000000 		.4byte	.LASF23
 708 0193 00       		.byte	0
 709 0194 09       		.uleb128 0x9
 710 0195 59000000 		.4byte	.LASF24
 711 0199 04       		.byte	0x4
 712 019a 00       		.byte	0
ARM GAS  C:\Users\skey\AppData\Local\Temp\ccYFm4Xc.s 			page 18


 713 019b 03       		.uleb128 0x3
 714 019c 2B010000 		.4byte	.LASF25
 715 01a0 07       		.byte	0x7
 716 01a1 36       		.byte	0x36
 717 01a2 02       		.byte	0x2
 718 01a3 80010000 		.4byte	0x180
 719 01a7 0F       		.uleb128 0xf
 720 01a8 07       		.byte	0x7
 721 01a9 01       		.byte	0x1
 722 01aa 2C000000 		.4byte	0x2c
 723 01ae 07       		.byte	0x7
 724 01af 3F       		.byte	0x3f
 725 01b0 01       		.byte	0x1
 726 01b1 C8010000 		.4byte	0x1c8
 727 01b5 09       		.uleb128 0x9
 728 01b6 AF010000 		.4byte	.LASF26
 729 01ba 08       		.byte	0x8
 730 01bb 09       		.uleb128 0x9
 731 01bc 44000000 		.4byte	.LASF27
 732 01c0 0C       		.byte	0xc
 733 01c1 09       		.uleb128 0x9
 734 01c2 C3010000 		.4byte	.LASF28
 735 01c6 10       		.byte	0x10
 736 01c7 00       		.byte	0
 737 01c8 03       		.uleb128 0x3
 738 01c9 BD020000 		.4byte	.LASF29
 739 01cd 07       		.byte	0x7
 740 01ce 43       		.byte	0x43
 741 01cf 02       		.byte	0x2
 742 01d0 A7010000 		.4byte	0x1a7
 743 01d4 10       		.uleb128 0x10
 744 01d5 08       		.byte	0x8
 745 01d6 07       		.byte	0x7
 746 01d7 4C       		.byte	0x4c
 747 01d8 09       		.byte	0x9
 748 01d9 1A020000 		.4byte	0x21a
 749 01dd 11       		.uleb128 0x11
 750 01de 00000000 		.4byte	.LASF30
 751 01e2 07       		.byte	0x7
 752 01e3 4E       		.byte	0x4e
 753 01e4 0C       		.byte	0xc
 754 01e5 7C000000 		.4byte	0x7c
 755 01e9 02       		.byte	0x2
 756 01ea 23       		.byte	0x23
 757 01eb 00       		.uleb128 0
 758 01ec 11       		.uleb128 0x11
 759 01ed 0A000000 		.4byte	.LASF31
 760 01f1 07       		.byte	0x7
 761 01f2 51       		.byte	0x51
 762 01f3 14       		.byte	0x14
 763 01f4 9B010000 		.4byte	0x19b
 764 01f8 02       		.byte	0x2
 765 01f9 23       		.byte	0x23
 766 01fa 04       		.uleb128 0x4
 767 01fb 11       		.uleb128 0x11
 768 01fc 37000000 		.4byte	.LASF32
 769 0200 07       		.byte	0x7
ARM GAS  C:\Users\skey\AppData\Local\Temp\ccYFm4Xc.s 			page 19


 770 0201 54       		.byte	0x54
 771 0202 17       		.byte	0x17
 772 0203 C8010000 		.4byte	0x1c8
 773 0207 02       		.byte	0x2
 774 0208 23       		.byte	0x23
 775 0209 05       		.uleb128 0x5
 776 020a 11       		.uleb128 0x11
 777 020b 2A000000 		.4byte	.LASF33
 778 020f 07       		.byte	0x7
 779 0210 57       		.byte	0x57
 780 0211 13       		.byte	0x13
 781 0212 FC000000 		.4byte	0xfc
 782 0216 02       		.byte	0x2
 783 0217 23       		.byte	0x23
 784 0218 06       		.uleb128 0x6
 785 0219 00       		.byte	0
 786 021a 03       		.uleb128 0x3
 787 021b AF000000 		.4byte	.LASF34
 788 021f 07       		.byte	0x7
 789 0220 59       		.byte	0x59
 790 0221 02       		.byte	0x2
 791 0222 D4010000 		.4byte	0x1d4
 792 0226 12       		.uleb128 0x12
 793 0227 01       		.byte	0x1
 794 0228 82020000 		.4byte	.LASF46
 795 022c 01       		.byte	0x1
 796 022d F9       		.byte	0xf9
 797 022e 06       		.byte	0x6
 798 022f 01       		.byte	0x1
 799 0230 41020000 		.4byte	0x241
 800 0234 13       		.uleb128 0x13
 801 0235 00000000 		.4byte	.LASF30
 802 0239 01       		.byte	0x1
 803 023a F9       		.byte	0xf9
 804 023b 26       		.byte	0x26
 805 023c 7C000000 		.4byte	0x7c
 806 0240 00       		.byte	0
 807 0241 14       		.uleb128 0x14
 808 0242 01       		.byte	0x1
 809 0243 71020000 		.4byte	.LASF37
 810 0247 01       		.byte	0x1
 811 0248 E0       		.byte	0xe0
 812 0249 0A       		.byte	0xa
 813 024a 01       		.byte	0x1
 814 024b D3000000 		.4byte	0xd3
 815 024f C4000000 		.4byte	.LFB35
 816 0253 E0000000 		.4byte	.LFE35
 817 0257 02       		.byte	0x2
 818 0258 7D       		.byte	0x7d
 819 0259 00       		.sleb128 0
 820 025a 01       		.byte	0x1
 821 025b 9C020000 		.4byte	0x29c
 822 025f 15       		.uleb128 0x15
 823 0260 00000000 		.4byte	.LASF30
 824 0264 01       		.byte	0x1
 825 0265 E0       		.byte	0xe0
 826 0266 24       		.byte	0x24
ARM GAS  C:\Users\skey\AppData\Local\Temp\ccYFm4Xc.s 			page 20


 827 0267 7C000000 		.4byte	0x7c
 828 026b 04000000 		.4byte	.LLST4
 829 026f 00000000 		.4byte	.LVUS4
 830 0273 16       		.uleb128 0x16
 831 0274 8C000000 		.4byte	.LASF35
 832 0278 01       		.byte	0x1
 833 0279 E2       		.byte	0xe2
 834 027a 0C       		.byte	0xc
 835 027b D3000000 		.4byte	0xd3
 836 027f 26000000 		.4byte	.LLST5
 837 0283 22000000 		.4byte	.LVUS5
 838 0287 16       		.uleb128 0x16
 839 0288 1D000000 		.4byte	.LASF36
 840 028c 01       		.byte	0x1
 841 028d E3       		.byte	0xe3
 842 028e 0C       		.byte	0xc
 843 028f 7C000000 		.4byte	0x7c
 844 0293 4B000000 		.4byte	.LLST6
 845 0297 45000000 		.4byte	.LVUS6
 846 029b 00       		.byte	0
 847 029c 17       		.uleb128 0x17
 848 029d 01       		.byte	0x1
 849 029e 04010000 		.4byte	.LASF47
 850 02a2 01       		.byte	0x1
 851 02a3 D1       		.byte	0xd1
 852 02a4 06       		.byte	0x6
 853 02a5 01       		.byte	0x1
 854 02a6 01       		.byte	0x1
 855 02a7 B8020000 		.4byte	0x2b8
 856 02ab 13       		.uleb128 0x13
 857 02ac 00000000 		.4byte	.LASF30
 858 02b0 01       		.byte	0x1
 859 02b1 D1       		.byte	0xd1
 860 02b2 1E       		.byte	0x1e
 861 02b3 7C000000 		.4byte	0x7c
 862 02b7 00       		.byte	0
 863 02b8 14       		.uleb128 0x14
 864 02b9 01       		.byte	0x1
 865 02ba F6010000 		.4byte	.LASF38
 866 02be 01       		.byte	0x1
 867 02bf BA       		.byte	0xba
 868 02c0 0C       		.byte	0xc
 869 02c1 01       		.byte	0x1
 870 02c2 C6000000 		.4byte	0xc6
 871 02c6 A4000000 		.4byte	.LFB33
 872 02ca B8000000 		.4byte	.LFE33
 873 02ce 02       		.byte	0x2
 874 02cf 7D       		.byte	0x7d
 875 02d0 00       		.sleb128 0
 876 02d1 01       		.byte	0x1
 877 02d2 FF020000 		.4byte	0x2ff
 878 02d6 15       		.uleb128 0x15
 879 02d7 00000000 		.4byte	.LASF30
 880 02db 01       		.byte	0x1
 881 02dc BA       		.byte	0xba
 882 02dd 28       		.byte	0x28
 883 02de 7C000000 		.4byte	0x7c
ARM GAS  C:\Users\skey\AppData\Local\Temp\ccYFm4Xc.s 			page 21


 884 02e2 83000000 		.4byte	.LLST2
 885 02e6 7F000000 		.4byte	.LVUS2
 886 02ea 16       		.uleb128 0x16
 887 02eb 8C000000 		.4byte	.LASF35
 888 02ef 01       		.byte	0x1
 889 02f0 BC       		.byte	0xbc
 890 02f1 0E       		.byte	0xe
 891 02f2 C6000000 		.4byte	0xc6
 892 02f6 AA000000 		.4byte	.LLST3
 893 02fa A4000000 		.4byte	.LVUS3
 894 02fe 00       		.byte	0
 895 02ff 18       		.uleb128 0x18
 896 0300 01       		.byte	0x1
 897 0301 96000000 		.4byte	.LASF39
 898 0305 01       		.byte	0x1
 899 0306 AB       		.byte	0xab
 900 0307 06       		.byte	0x6
 901 0308 01       		.byte	0x1
 902 0309 96000000 		.4byte	.LFB32
 903 030d A4000000 		.4byte	.LFE32
 904 0311 02       		.byte	0x2
 905 0312 7D       		.byte	0x7d
 906 0313 00       		.sleb128 0
 907 0314 01       		.byte	0x1
 908 0315 28030000 		.4byte	0x328
 909 0319 19       		.uleb128 0x19
 910 031a 00000000 		.4byte	.LASF30
 911 031e 01       		.byte	0x1
 912 031f AB       		.byte	0xab
 913 0320 28       		.byte	0x28
 914 0321 7C000000 		.4byte	0x7c
 915 0325 01       		.byte	0x1
 916 0326 50       		.byte	0x50
 917 0327 00       		.byte	0
 918 0328 18       		.uleb128 0x18
 919 0329 01       		.byte	0x1
 920 032a 20020000 		.4byte	.LASF40
 921 032e 01       		.byte	0x1
 922 032f 9D       		.byte	0x9d
 923 0330 06       		.byte	0x6
 924 0331 01       		.byte	0x1
 925 0332 88000000 		.4byte	.LFB31
 926 0336 96000000 		.4byte	.LFE31
 927 033a 02       		.byte	0x2
 928 033b 7D       		.byte	0x7d
 929 033c 00       		.sleb128 0
 930 033d 01       		.byte	0x1
 931 033e 51030000 		.4byte	0x351
 932 0342 19       		.uleb128 0x19
 933 0343 C0000000 		.4byte	.LASF41
 934 0347 01       		.byte	0x1
 935 0348 9D       		.byte	0x9d
 936 0349 28       		.byte	0x28
 937 034a 51030000 		.4byte	0x351
 938 034e 01       		.byte	0x1
 939 034f 50       		.byte	0x50
 940 0350 00       		.byte	0
ARM GAS  C:\Users\skey\AppData\Local\Temp\ccYFm4Xc.s 			page 22


 941 0351 1A       		.uleb128 0x1a
 942 0352 04       		.byte	0x4
 943 0353 1A020000 		.4byte	0x21a
 944 0357 1B       		.uleb128 0x1b
 945 0358 01       		.byte	0x1
 946 0359 EC010000 		.4byte	.LASF42
 947 035d 01       		.byte	0x1
 948 035e 65       		.byte	0x65
 949 035f 06       		.byte	0x6
 950 0360 01       		.byte	0x1
 951 0361 1C000000 		.4byte	.LFB30
 952 0365 88000000 		.4byte	.LFE30
 953 0369 E3000000 		.4byte	.LLST0
 954 036d 01       		.byte	0x1
 955 036e 95030000 		.4byte	0x395
 956 0372 19       		.uleb128 0x19
 957 0373 C0000000 		.4byte	.LASF41
 958 0377 01       		.byte	0x1
 959 0378 65       		.byte	0x65
 960 0379 22       		.byte	0x22
 961 037a 51030000 		.4byte	0x351
 962 037e 01       		.byte	0x1
 963 037f 50       		.byte	0x50
 964 0380 1C       		.uleb128 0x1c
 965 0381 746D7000 		.ascii	"tmp\000"
 966 0385 01       		.byte	0x1
 967 0386 67       		.byte	0x67
 968 0387 0C       		.byte	0xc
 969 0388 7C000000 		.4byte	0x7c
 970 038c 11010000 		.4byte	.LLST1
 971 0390 03010000 		.4byte	.LVUS1
 972 0394 00       		.byte	0
 973 0395 1D       		.uleb128 0x1d
 974 0396 01       		.byte	0x1
 975 0397 79030000 		.4byte	.LASF48
 976 039b 01       		.byte	0x1
 977 039c 55       		.byte	0x55
 978 039d 06       		.byte	0x6
 979 039e 01       		.byte	0x1
 980 039f 00000000 		.4byte	.LFB29
 981 03a3 1C000000 		.4byte	.LFE29
 982 03a7 02       		.byte	0x2
 983 03a8 7D       		.byte	0x7d
 984 03a9 00       		.sleb128 0
 985 03aa 01       		.byte	0x1
 986 03ab 1E       		.uleb128 0x1e
 987 03ac 9C020000 		.4byte	0x29c
 988 03b0 B8000000 		.4byte	.LFB34
 989 03b4 C4000000 		.4byte	.LFE34
 990 03b8 02       		.byte	0x2
 991 03b9 7D       		.byte	0x7d
 992 03ba 00       		.sleb128 0
 993 03bb 01       		.byte	0x1
 994 03bc 1F       		.uleb128 0x1f
 995 03bd AB020000 		.4byte	0x2ab
 996 03c1 01       		.byte	0x1
 997 03c2 50       		.byte	0x50
ARM GAS  C:\Users\skey\AppData\Local\Temp\ccYFm4Xc.s 			page 23


 998 03c3 00       		.byte	0
 999 03c4 00       		.byte	0
 1000              		.section	.debug_abbrev,"",%progbits
 1001              	.Ldebug_abbrev0:
 1002 0000 01       		.uleb128 0x1
 1003 0001 11       		.uleb128 0x11
 1004 0002 01       		.byte	0x1
 1005 0003 25       		.uleb128 0x25
 1006 0004 0E       		.uleb128 0xe
 1007 0005 13       		.uleb128 0x13
 1008 0006 0B       		.uleb128 0xb
 1009 0007 03       		.uleb128 0x3
 1010 0008 0E       		.uleb128 0xe
 1011 0009 1B       		.uleb128 0x1b
 1012 000a 0E       		.uleb128 0xe
 1013 000b 11       		.uleb128 0x11
 1014 000c 01       		.uleb128 0x1
 1015 000d 12       		.uleb128 0x12
 1016 000e 01       		.uleb128 0x1
 1017 000f 10       		.uleb128 0x10
 1018 0010 06       		.uleb128 0x6
 1019 0011 00       		.byte	0
 1020 0012 00       		.byte	0
 1021 0013 02       		.uleb128 0x2
 1022 0014 24       		.uleb128 0x24
 1023 0015 00       		.byte	0
 1024 0016 0B       		.uleb128 0xb
 1025 0017 0B       		.uleb128 0xb
 1026 0018 3E       		.uleb128 0x3e
 1027 0019 0B       		.uleb128 0xb
 1028 001a 03       		.uleb128 0x3
 1029 001b 0E       		.uleb128 0xe
 1030 001c 00       		.byte	0
 1031 001d 00       		.byte	0
 1032 001e 03       		.uleb128 0x3
 1033 001f 16       		.uleb128 0x16
 1034 0020 00       		.byte	0
 1035 0021 03       		.uleb128 0x3
 1036 0022 0E       		.uleb128 0xe
 1037 0023 3A       		.uleb128 0x3a
 1038 0024 0B       		.uleb128 0xb
 1039 0025 3B       		.uleb128 0x3b
 1040 0026 0B       		.uleb128 0xb
 1041 0027 39       		.uleb128 0x39
 1042 0028 0B       		.uleb128 0xb
 1043 0029 49       		.uleb128 0x49
 1044 002a 13       		.uleb128 0x13
 1045 002b 00       		.byte	0
 1046 002c 00       		.byte	0
 1047 002d 04       		.uleb128 0x4
 1048 002e 24       		.uleb128 0x24
 1049 002f 00       		.byte	0
 1050 0030 0B       		.uleb128 0xb
 1051 0031 0B       		.uleb128 0xb
 1052 0032 3E       		.uleb128 0x3e
 1053 0033 0B       		.uleb128 0xb
 1054 0034 03       		.uleb128 0x3
ARM GAS  C:\Users\skey\AppData\Local\Temp\ccYFm4Xc.s 			page 24


 1055 0035 08       		.uleb128 0x8
 1056 0036 00       		.byte	0
 1057 0037 00       		.byte	0
 1058 0038 05       		.uleb128 0x5
 1059 0039 35       		.uleb128 0x35
 1060 003a 00       		.byte	0
 1061 003b 49       		.uleb128 0x49
 1062 003c 13       		.uleb128 0x13
 1063 003d 00       		.byte	0
 1064 003e 00       		.byte	0
 1065 003f 06       		.uleb128 0x6
 1066 0040 34       		.uleb128 0x34
 1067 0041 00       		.byte	0
 1068 0042 03       		.uleb128 0x3
 1069 0043 0E       		.uleb128 0xe
 1070 0044 3A       		.uleb128 0x3a
 1071 0045 0B       		.uleb128 0xb
 1072 0046 3B       		.uleb128 0x3b
 1073 0047 05       		.uleb128 0x5
 1074 0048 39       		.uleb128 0x39
 1075 0049 0B       		.uleb128 0xb
 1076 004a 49       		.uleb128 0x49
 1077 004b 13       		.uleb128 0x13
 1078 004c 3F       		.uleb128 0x3f
 1079 004d 0C       		.uleb128 0xc
 1080 004e 3C       		.uleb128 0x3c
 1081 004f 0C       		.uleb128 0xc
 1082 0050 00       		.byte	0
 1083 0051 00       		.byte	0
 1084 0052 07       		.uleb128 0x7
 1085 0053 34       		.uleb128 0x34
 1086 0054 00       		.byte	0
 1087 0055 03       		.uleb128 0x3
 1088 0056 0E       		.uleb128 0xe
 1089 0057 3A       		.uleb128 0x3a
 1090 0058 0B       		.uleb128 0xb
 1091 0059 3B       		.uleb128 0x3b
 1092 005a 0B       		.uleb128 0xb
 1093 005b 39       		.uleb128 0x39
 1094 005c 0B       		.uleb128 0xb
 1095 005d 49       		.uleb128 0x49
 1096 005e 13       		.uleb128 0x13
 1097 005f 3F       		.uleb128 0x3f
 1098 0060 0C       		.uleb128 0xc
 1099 0061 3C       		.uleb128 0x3c
 1100 0062 0C       		.uleb128 0xc
 1101 0063 00       		.byte	0
 1102 0064 00       		.byte	0
 1103 0065 08       		.uleb128 0x8
 1104 0066 04       		.uleb128 0x4
 1105 0067 01       		.byte	0x1
 1106 0068 3E       		.uleb128 0x3e
 1107 0069 0B       		.uleb128 0xb
 1108 006a 0B       		.uleb128 0xb
 1109 006b 0B       		.uleb128 0xb
 1110 006c 49       		.uleb128 0x49
 1111 006d 13       		.uleb128 0x13
ARM GAS  C:\Users\skey\AppData\Local\Temp\ccYFm4Xc.s 			page 25


 1112 006e 3A       		.uleb128 0x3a
 1113 006f 0B       		.uleb128 0xb
 1114 0070 3B       		.uleb128 0x3b
 1115 0071 05       		.uleb128 0x5
 1116 0072 39       		.uleb128 0x39
 1117 0073 0B       		.uleb128 0xb
 1118 0074 01       		.uleb128 0x1
 1119 0075 13       		.uleb128 0x13
 1120 0076 00       		.byte	0
 1121 0077 00       		.byte	0
 1122 0078 09       		.uleb128 0x9
 1123 0079 28       		.uleb128 0x28
 1124 007a 00       		.byte	0
 1125 007b 03       		.uleb128 0x3
 1126 007c 0E       		.uleb128 0xe
 1127 007d 1C       		.uleb128 0x1c
 1128 007e 0B       		.uleb128 0xb
 1129 007f 00       		.byte	0
 1130 0080 00       		.byte	0
 1131 0081 0A       		.uleb128 0xa
 1132 0082 28       		.uleb128 0x28
 1133 0083 00       		.byte	0
 1134 0084 03       		.uleb128 0x3
 1135 0085 08       		.uleb128 0x8
 1136 0086 1C       		.uleb128 0x1c
 1137 0087 0B       		.uleb128 0xb
 1138 0088 00       		.byte	0
 1139 0089 00       		.byte	0
 1140 008a 0B       		.uleb128 0xb
 1141 008b 16       		.uleb128 0x16
 1142 008c 00       		.byte	0
 1143 008d 03       		.uleb128 0x3
 1144 008e 0E       		.uleb128 0xe
 1145 008f 3A       		.uleb128 0x3a
 1146 0090 0B       		.uleb128 0xb
 1147 0091 3B       		.uleb128 0x3b
 1148 0092 05       		.uleb128 0x5
 1149 0093 39       		.uleb128 0x39
 1150 0094 0B       		.uleb128 0xb
 1151 0095 49       		.uleb128 0x49
 1152 0096 13       		.uleb128 0x13
 1153 0097 00       		.byte	0
 1154 0098 00       		.byte	0
 1155 0099 0C       		.uleb128 0xc
 1156 009a 13       		.uleb128 0x13
 1157 009b 01       		.byte	0x1
 1158 009c 0B       		.uleb128 0xb
 1159 009d 0B       		.uleb128 0xb
 1160 009e 3A       		.uleb128 0x3a
 1161 009f 0B       		.uleb128 0xb
 1162 00a0 3B       		.uleb128 0x3b
 1163 00a1 05       		.uleb128 0x5
 1164 00a2 39       		.uleb128 0x39
 1165 00a3 0B       		.uleb128 0xb
 1166 00a4 01       		.uleb128 0x1
 1167 00a5 13       		.uleb128 0x13
 1168 00a6 00       		.byte	0
ARM GAS  C:\Users\skey\AppData\Local\Temp\ccYFm4Xc.s 			page 26


 1169 00a7 00       		.byte	0
 1170 00a8 0D       		.uleb128 0xd
 1171 00a9 0D       		.uleb128 0xd
 1172 00aa 00       		.byte	0
 1173 00ab 03       		.uleb128 0x3
 1174 00ac 08       		.uleb128 0x8
 1175 00ad 3A       		.uleb128 0x3a
 1176 00ae 0B       		.uleb128 0xb
 1177 00af 3B       		.uleb128 0x3b
 1178 00b0 05       		.uleb128 0x5
 1179 00b1 39       		.uleb128 0x39
 1180 00b2 0B       		.uleb128 0xb
 1181 00b3 49       		.uleb128 0x49
 1182 00b4 13       		.uleb128 0x13
 1183 00b5 38       		.uleb128 0x38
 1184 00b6 0A       		.uleb128 0xa
 1185 00b7 00       		.byte	0
 1186 00b8 00       		.byte	0
 1187 00b9 0E       		.uleb128 0xe
 1188 00ba 0D       		.uleb128 0xd
 1189 00bb 00       		.byte	0
 1190 00bc 03       		.uleb128 0x3
 1191 00bd 0E       		.uleb128 0xe
 1192 00be 3A       		.uleb128 0x3a
 1193 00bf 0B       		.uleb128 0xb
 1194 00c0 3B       		.uleb128 0x3b
 1195 00c1 05       		.uleb128 0x5
 1196 00c2 39       		.uleb128 0x39
 1197 00c3 0B       		.uleb128 0xb
 1198 00c4 49       		.uleb128 0x49
 1199 00c5 13       		.uleb128 0x13
 1200 00c6 38       		.uleb128 0x38
 1201 00c7 0A       		.uleb128 0xa
 1202 00c8 00       		.byte	0
 1203 00c9 00       		.byte	0
 1204 00ca 0F       		.uleb128 0xf
 1205 00cb 04       		.uleb128 0x4
 1206 00cc 01       		.byte	0x1
 1207 00cd 3E       		.uleb128 0x3e
 1208 00ce 0B       		.uleb128 0xb
 1209 00cf 0B       		.uleb128 0xb
 1210 00d0 0B       		.uleb128 0xb
 1211 00d1 49       		.uleb128 0x49
 1212 00d2 13       		.uleb128 0x13
 1213 00d3 3A       		.uleb128 0x3a
 1214 00d4 0B       		.uleb128 0xb
 1215 00d5 3B       		.uleb128 0x3b
 1216 00d6 0B       		.uleb128 0xb
 1217 00d7 39       		.uleb128 0x39
 1218 00d8 0B       		.uleb128 0xb
 1219 00d9 01       		.uleb128 0x1
 1220 00da 13       		.uleb128 0x13
 1221 00db 00       		.byte	0
 1222 00dc 00       		.byte	0
 1223 00dd 10       		.uleb128 0x10
 1224 00de 13       		.uleb128 0x13
 1225 00df 01       		.byte	0x1
ARM GAS  C:\Users\skey\AppData\Local\Temp\ccYFm4Xc.s 			page 27


 1226 00e0 0B       		.uleb128 0xb
 1227 00e1 0B       		.uleb128 0xb
 1228 00e2 3A       		.uleb128 0x3a
 1229 00e3 0B       		.uleb128 0xb
 1230 00e4 3B       		.uleb128 0x3b
 1231 00e5 0B       		.uleb128 0xb
 1232 00e6 39       		.uleb128 0x39
 1233 00e7 0B       		.uleb128 0xb
 1234 00e8 01       		.uleb128 0x1
 1235 00e9 13       		.uleb128 0x13
 1236 00ea 00       		.byte	0
 1237 00eb 00       		.byte	0
 1238 00ec 11       		.uleb128 0x11
 1239 00ed 0D       		.uleb128 0xd
 1240 00ee 00       		.byte	0
 1241 00ef 03       		.uleb128 0x3
 1242 00f0 0E       		.uleb128 0xe
 1243 00f1 3A       		.uleb128 0x3a
 1244 00f2 0B       		.uleb128 0xb
 1245 00f3 3B       		.uleb128 0x3b
 1246 00f4 0B       		.uleb128 0xb
 1247 00f5 39       		.uleb128 0x39
 1248 00f6 0B       		.uleb128 0xb
 1249 00f7 49       		.uleb128 0x49
 1250 00f8 13       		.uleb128 0x13
 1251 00f9 38       		.uleb128 0x38
 1252 00fa 0A       		.uleb128 0xa
 1253 00fb 00       		.byte	0
 1254 00fc 00       		.byte	0
 1255 00fd 12       		.uleb128 0x12
 1256 00fe 2E       		.uleb128 0x2e
 1257 00ff 01       		.byte	0x1
 1258 0100 3F       		.uleb128 0x3f
 1259 0101 0C       		.uleb128 0xc
 1260 0102 03       		.uleb128 0x3
 1261 0103 0E       		.uleb128 0xe
 1262 0104 3A       		.uleb128 0x3a
 1263 0105 0B       		.uleb128 0xb
 1264 0106 3B       		.uleb128 0x3b
 1265 0107 0B       		.uleb128 0xb
 1266 0108 39       		.uleb128 0x39
 1267 0109 0B       		.uleb128 0xb
 1268 010a 27       		.uleb128 0x27
 1269 010b 0C       		.uleb128 0xc
 1270 010c 01       		.uleb128 0x1
 1271 010d 13       		.uleb128 0x13
 1272 010e 00       		.byte	0
 1273 010f 00       		.byte	0
 1274 0110 13       		.uleb128 0x13
 1275 0111 05       		.uleb128 0x5
 1276 0112 00       		.byte	0
 1277 0113 03       		.uleb128 0x3
 1278 0114 0E       		.uleb128 0xe
 1279 0115 3A       		.uleb128 0x3a
 1280 0116 0B       		.uleb128 0xb
 1281 0117 3B       		.uleb128 0x3b
 1282 0118 0B       		.uleb128 0xb
ARM GAS  C:\Users\skey\AppData\Local\Temp\ccYFm4Xc.s 			page 28


 1283 0119 39       		.uleb128 0x39
 1284 011a 0B       		.uleb128 0xb
 1285 011b 49       		.uleb128 0x49
 1286 011c 13       		.uleb128 0x13
 1287 011d 00       		.byte	0
 1288 011e 00       		.byte	0
 1289 011f 14       		.uleb128 0x14
 1290 0120 2E       		.uleb128 0x2e
 1291 0121 01       		.byte	0x1
 1292 0122 3F       		.uleb128 0x3f
 1293 0123 0C       		.uleb128 0xc
 1294 0124 03       		.uleb128 0x3
 1295 0125 0E       		.uleb128 0xe
 1296 0126 3A       		.uleb128 0x3a
 1297 0127 0B       		.uleb128 0xb
 1298 0128 3B       		.uleb128 0x3b
 1299 0129 0B       		.uleb128 0xb
 1300 012a 39       		.uleb128 0x39
 1301 012b 0B       		.uleb128 0xb
 1302 012c 27       		.uleb128 0x27
 1303 012d 0C       		.uleb128 0xc
 1304 012e 49       		.uleb128 0x49
 1305 012f 13       		.uleb128 0x13
 1306 0130 11       		.uleb128 0x11
 1307 0131 01       		.uleb128 0x1
 1308 0132 12       		.uleb128 0x12
 1309 0133 01       		.uleb128 0x1
 1310 0134 40       		.uleb128 0x40
 1311 0135 0A       		.uleb128 0xa
 1312 0136 9742     		.uleb128 0x2117
 1313 0138 0C       		.uleb128 0xc
 1314 0139 01       		.uleb128 0x1
 1315 013a 13       		.uleb128 0x13
 1316 013b 00       		.byte	0
 1317 013c 00       		.byte	0
 1318 013d 15       		.uleb128 0x15
 1319 013e 05       		.uleb128 0x5
 1320 013f 00       		.byte	0
 1321 0140 03       		.uleb128 0x3
 1322 0141 0E       		.uleb128 0xe
 1323 0142 3A       		.uleb128 0x3a
 1324 0143 0B       		.uleb128 0xb
 1325 0144 3B       		.uleb128 0x3b
 1326 0145 0B       		.uleb128 0xb
 1327 0146 39       		.uleb128 0x39
 1328 0147 0B       		.uleb128 0xb
 1329 0148 49       		.uleb128 0x49
 1330 0149 13       		.uleb128 0x13
 1331 014a 02       		.uleb128 0x2
 1332 014b 06       		.uleb128 0x6
 1333 014c B742     		.uleb128 0x2137
 1334 014e 06       		.uleb128 0x6
 1335 014f 00       		.byte	0
 1336 0150 00       		.byte	0
 1337 0151 16       		.uleb128 0x16
 1338 0152 34       		.uleb128 0x34
 1339 0153 00       		.byte	0
ARM GAS  C:\Users\skey\AppData\Local\Temp\ccYFm4Xc.s 			page 29


 1340 0154 03       		.uleb128 0x3
 1341 0155 0E       		.uleb128 0xe
 1342 0156 3A       		.uleb128 0x3a
 1343 0157 0B       		.uleb128 0xb
 1344 0158 3B       		.uleb128 0x3b
 1345 0159 0B       		.uleb128 0xb
 1346 015a 39       		.uleb128 0x39
 1347 015b 0B       		.uleb128 0xb
 1348 015c 49       		.uleb128 0x49
 1349 015d 13       		.uleb128 0x13
 1350 015e 02       		.uleb128 0x2
 1351 015f 06       		.uleb128 0x6
 1352 0160 B742     		.uleb128 0x2137
 1353 0162 06       		.uleb128 0x6
 1354 0163 00       		.byte	0
 1355 0164 00       		.byte	0
 1356 0165 17       		.uleb128 0x17
 1357 0166 2E       		.uleb128 0x2e
 1358 0167 01       		.byte	0x1
 1359 0168 3F       		.uleb128 0x3f
 1360 0169 0C       		.uleb128 0xc
 1361 016a 03       		.uleb128 0x3
 1362 016b 0E       		.uleb128 0xe
 1363 016c 3A       		.uleb128 0x3a
 1364 016d 0B       		.uleb128 0xb
 1365 016e 3B       		.uleb128 0x3b
 1366 016f 0B       		.uleb128 0xb
 1367 0170 39       		.uleb128 0x39
 1368 0171 0B       		.uleb128 0xb
 1369 0172 27       		.uleb128 0x27
 1370 0173 0C       		.uleb128 0xc
 1371 0174 20       		.uleb128 0x20
 1372 0175 0B       		.uleb128 0xb
 1373 0176 01       		.uleb128 0x1
 1374 0177 13       		.uleb128 0x13
 1375 0178 00       		.byte	0
 1376 0179 00       		.byte	0
 1377 017a 18       		.uleb128 0x18
 1378 017b 2E       		.uleb128 0x2e
 1379 017c 01       		.byte	0x1
 1380 017d 3F       		.uleb128 0x3f
 1381 017e 0C       		.uleb128 0xc
 1382 017f 03       		.uleb128 0x3
 1383 0180 0E       		.uleb128 0xe
 1384 0181 3A       		.uleb128 0x3a
 1385 0182 0B       		.uleb128 0xb
 1386 0183 3B       		.uleb128 0x3b
 1387 0184 0B       		.uleb128 0xb
 1388 0185 39       		.uleb128 0x39
 1389 0186 0B       		.uleb128 0xb
 1390 0187 27       		.uleb128 0x27
 1391 0188 0C       		.uleb128 0xc
 1392 0189 11       		.uleb128 0x11
 1393 018a 01       		.uleb128 0x1
 1394 018b 12       		.uleb128 0x12
 1395 018c 01       		.uleb128 0x1
 1396 018d 40       		.uleb128 0x40
ARM GAS  C:\Users\skey\AppData\Local\Temp\ccYFm4Xc.s 			page 30


 1397 018e 0A       		.uleb128 0xa
 1398 018f 9742     		.uleb128 0x2117
 1399 0191 0C       		.uleb128 0xc
 1400 0192 01       		.uleb128 0x1
 1401 0193 13       		.uleb128 0x13
 1402 0194 00       		.byte	0
 1403 0195 00       		.byte	0
 1404 0196 19       		.uleb128 0x19
 1405 0197 05       		.uleb128 0x5
 1406 0198 00       		.byte	0
 1407 0199 03       		.uleb128 0x3
 1408 019a 0E       		.uleb128 0xe
 1409 019b 3A       		.uleb128 0x3a
 1410 019c 0B       		.uleb128 0xb
 1411 019d 3B       		.uleb128 0x3b
 1412 019e 0B       		.uleb128 0xb
 1413 019f 39       		.uleb128 0x39
 1414 01a0 0B       		.uleb128 0xb
 1415 01a1 49       		.uleb128 0x49
 1416 01a2 13       		.uleb128 0x13
 1417 01a3 02       		.uleb128 0x2
 1418 01a4 0A       		.uleb128 0xa
 1419 01a5 00       		.byte	0
 1420 01a6 00       		.byte	0
 1421 01a7 1A       		.uleb128 0x1a
 1422 01a8 0F       		.uleb128 0xf
 1423 01a9 00       		.byte	0
 1424 01aa 0B       		.uleb128 0xb
 1425 01ab 0B       		.uleb128 0xb
 1426 01ac 49       		.uleb128 0x49
 1427 01ad 13       		.uleb128 0x13
 1428 01ae 00       		.byte	0
 1429 01af 00       		.byte	0
 1430 01b0 1B       		.uleb128 0x1b
 1431 01b1 2E       		.uleb128 0x2e
 1432 01b2 01       		.byte	0x1
 1433 01b3 3F       		.uleb128 0x3f
 1434 01b4 0C       		.uleb128 0xc
 1435 01b5 03       		.uleb128 0x3
 1436 01b6 0E       		.uleb128 0xe
 1437 01b7 3A       		.uleb128 0x3a
 1438 01b8 0B       		.uleb128 0xb
 1439 01b9 3B       		.uleb128 0x3b
 1440 01ba 0B       		.uleb128 0xb
 1441 01bb 39       		.uleb128 0x39
 1442 01bc 0B       		.uleb128 0xb
 1443 01bd 27       		.uleb128 0x27
 1444 01be 0C       		.uleb128 0xc
 1445 01bf 11       		.uleb128 0x11
 1446 01c0 01       		.uleb128 0x1
 1447 01c1 12       		.uleb128 0x12
 1448 01c2 01       		.uleb128 0x1
 1449 01c3 40       		.uleb128 0x40
 1450 01c4 06       		.uleb128 0x6
 1451 01c5 9742     		.uleb128 0x2117
 1452 01c7 0C       		.uleb128 0xc
 1453 01c8 01       		.uleb128 0x1
ARM GAS  C:\Users\skey\AppData\Local\Temp\ccYFm4Xc.s 			page 31


 1454 01c9 13       		.uleb128 0x13
 1455 01ca 00       		.byte	0
 1456 01cb 00       		.byte	0
 1457 01cc 1C       		.uleb128 0x1c
 1458 01cd 34       		.uleb128 0x34
 1459 01ce 00       		.byte	0
 1460 01cf 03       		.uleb128 0x3
 1461 01d0 08       		.uleb128 0x8
 1462 01d1 3A       		.uleb128 0x3a
 1463 01d2 0B       		.uleb128 0xb
 1464 01d3 3B       		.uleb128 0x3b
 1465 01d4 0B       		.uleb128 0xb
 1466 01d5 39       		.uleb128 0x39
 1467 01d6 0B       		.uleb128 0xb
 1468 01d7 49       		.uleb128 0x49
 1469 01d8 13       		.uleb128 0x13
 1470 01d9 02       		.uleb128 0x2
 1471 01da 06       		.uleb128 0x6
 1472 01db B742     		.uleb128 0x2137
 1473 01dd 06       		.uleb128 0x6
 1474 01de 00       		.byte	0
 1475 01df 00       		.byte	0
 1476 01e0 1D       		.uleb128 0x1d
 1477 01e1 2E       		.uleb128 0x2e
 1478 01e2 00       		.byte	0
 1479 01e3 3F       		.uleb128 0x3f
 1480 01e4 0C       		.uleb128 0xc
 1481 01e5 03       		.uleb128 0x3
 1482 01e6 0E       		.uleb128 0xe
 1483 01e7 3A       		.uleb128 0x3a
 1484 01e8 0B       		.uleb128 0xb
 1485 01e9 3B       		.uleb128 0x3b
 1486 01ea 0B       		.uleb128 0xb
 1487 01eb 39       		.uleb128 0x39
 1488 01ec 0B       		.uleb128 0xb
 1489 01ed 27       		.uleb128 0x27
 1490 01ee 0C       		.uleb128 0xc
 1491 01ef 11       		.uleb128 0x11
 1492 01f0 01       		.uleb128 0x1
 1493 01f1 12       		.uleb128 0x12
 1494 01f2 01       		.uleb128 0x1
 1495 01f3 40       		.uleb128 0x40
 1496 01f4 0A       		.uleb128 0xa
 1497 01f5 9742     		.uleb128 0x2117
 1498 01f7 0C       		.uleb128 0xc
 1499 01f8 00       		.byte	0
 1500 01f9 00       		.byte	0
 1501 01fa 1E       		.uleb128 0x1e
 1502 01fb 2E       		.uleb128 0x2e
 1503 01fc 01       		.byte	0x1
 1504 01fd 31       		.uleb128 0x31
 1505 01fe 13       		.uleb128 0x13
 1506 01ff 11       		.uleb128 0x11
 1507 0200 01       		.uleb128 0x1
 1508 0201 12       		.uleb128 0x12
 1509 0202 01       		.uleb128 0x1
 1510 0203 40       		.uleb128 0x40
ARM GAS  C:\Users\skey\AppData\Local\Temp\ccYFm4Xc.s 			page 32


 1511 0204 0A       		.uleb128 0xa
 1512 0205 9742     		.uleb128 0x2117
 1513 0207 0C       		.uleb128 0xc
 1514 0208 00       		.byte	0
 1515 0209 00       		.byte	0
 1516 020a 1F       		.uleb128 0x1f
 1517 020b 05       		.uleb128 0x5
 1518 020c 00       		.byte	0
 1519 020d 31       		.uleb128 0x31
 1520 020e 13       		.uleb128 0x13
 1521 020f 02       		.uleb128 0x2
 1522 0210 0A       		.uleb128 0xa
 1523 0211 00       		.byte	0
 1524 0212 00       		.byte	0
 1525 0213 00       		.byte	0
 1526              		.section	.debug_loc,"",%progbits
 1527              	.Ldebug_loc0:
 1528              	.LVUS4:
 1529 0000 00       		.uleb128 0
 1530 0001 00       		.uleb128 .LVU92
 1531 0002 00       		.uleb128 .LVU92
 1532 0003 00       		.uleb128 0
 1533              	.LLST4:
 1534 0004 C4000000 		.4byte	.LVL13-.Ltext0
 1535 0008 CC000000 		.4byte	.LVL15-.Ltext0
 1536 000c 0100     		.2byte	0x1
 1537 000e 50       		.byte	0x50
 1538 000f CC000000 		.4byte	.LVL15-.Ltext0
 1539 0013 E0000000 		.4byte	.LFE35-.Ltext0
 1540 0017 0100     		.2byte	0x1
 1541 0019 52       		.byte	0x52
 1542 001a 00000000 		.4byte	0
 1543 001e 00000000 		.4byte	0
 1544              	.LVUS5:
 1545 0022 02       		.uleb128 .LVU85
 1546 0023 00       		.uleb128 .LVU95
 1547 0024 00       		.uleb128 .LVU95
 1548 0025 00       		.uleb128 0
 1549              	.LLST5:
 1550 0026 C4000000 		.4byte	.LVL13-.Ltext0
 1551 002a D8000000 		.4byte	.LVL16-.Ltext0
 1552 002e 0200     		.2byte	0x2
 1553 0030 30       		.byte	0x30
 1554 0031 9F       		.byte	0x9f
 1555 0032 D8000000 		.4byte	.LVL16-.Ltext0
 1556 0036 E0000000 		.4byte	.LFE35-.Ltext0
 1557 003a 0100     		.2byte	0x1
 1558 003c 50       		.byte	0x50
 1559 003d 00000000 		.4byte	0
 1560 0041 00000000 		.4byte	0
 1561              	.LVUS6:
 1562 0045 03       		.uleb128 .LVU86
 1563 0046 00       		.uleb128 .LVU90
 1564 0047 00       		.uleb128 .LVU90
 1565 0048 00       		.uleb128 .LVU92
 1566 0049 00       		.uleb128 .LVU92
 1567 004a 00       		.uleb128 0
ARM GAS  C:\Users\skey\AppData\Local\Temp\ccYFm4Xc.s 			page 33


 1568              	.LLST6:
 1569 004b C4000000 		.4byte	.LVL13-.Ltext0
 1570 004f CA000000 		.4byte	.LVL14-.Ltext0
 1571 0053 0200     		.2byte	0x2
 1572 0055 30       		.byte	0x30
 1573 0056 9F       		.byte	0x9f
 1574 0057 CA000000 		.4byte	.LVL14-.Ltext0
 1575 005b CC000000 		.4byte	.LVL15-.Ltext0
 1576 005f 0600     		.2byte	0x6
 1577 0061 71       		.byte	0x71
 1578 0062 00       		.sleb128 0
 1579 0063 70       		.byte	0x70
 1580 0064 00       		.sleb128 0
 1581 0065 1A       		.byte	0x1a
 1582 0066 9F       		.byte	0x9f
 1583 0067 CC000000 		.4byte	.LVL15-.Ltext0
 1584 006b E0000000 		.4byte	.LFE35-.Ltext0
 1585 006f 0600     		.2byte	0x6
 1586 0071 71       		.byte	0x71
 1587 0072 00       		.sleb128 0
 1588 0073 72       		.byte	0x72
 1589 0074 00       		.sleb128 0
 1590 0075 1A       		.byte	0x1a
 1591 0076 9F       		.byte	0x9f
 1592 0077 00000000 		.4byte	0
 1593 007b 00000000 		.4byte	0
 1594              	.LVUS2:
 1595 007f 00       		.uleb128 0
 1596 0080 00       		.uleb128 .LVU77
 1597 0081 00       		.uleb128 .LVU77
 1598 0082 00       		.uleb128 0
 1599              	.LLST2:
 1600 0083 A4000000 		.4byte	.LVL9-.Ltext0
 1601 0087 AE000000 		.4byte	.LVL11-.Ltext0
 1602 008b 0100     		.2byte	0x1
 1603 008d 50       		.byte	0x50
 1604 008e AE000000 		.4byte	.LVL11-.Ltext0
 1605 0092 B8000000 		.4byte	.LFE33-.Ltext0
 1606 0096 0400     		.2byte	0x4
 1607 0098 F3       		.byte	0xf3
 1608 0099 01       		.uleb128 0x1
 1609 009a 50       		.byte	0x50
 1610 009b 9F       		.byte	0x9f
 1611 009c 00000000 		.4byte	0
 1612 00a0 00000000 		.4byte	0
 1613              	.LVUS3:
 1614 00a4 02       		.uleb128 .LVU71
 1615 00a5 00       		.uleb128 .LVU74
 1616 00a6 00       		.uleb128 .LVU74
 1617 00a7 00       		.uleb128 .LVU77
 1618 00a8 00       		.uleb128 .LVU77
 1619 00a9 00       		.uleb128 0
 1620              	.LLST3:
 1621 00aa A4000000 		.4byte	.LVL9-.Ltext0
 1622 00ae A8000000 		.4byte	.LVL10-.Ltext0
 1623 00b2 0200     		.2byte	0x2
 1624 00b4 30       		.byte	0x30
ARM GAS  C:\Users\skey\AppData\Local\Temp\ccYFm4Xc.s 			page 34


 1625 00b5 9F       		.byte	0x9f
 1626 00b6 A8000000 		.4byte	.LVL10-.Ltext0
 1627 00ba AE000000 		.4byte	.LVL11-.Ltext0
 1628 00be 0800     		.2byte	0x8
 1629 00c0 73       		.byte	0x73
 1630 00c1 00       		.sleb128 0
 1631 00c2 70       		.byte	0x70
 1632 00c3 00       		.sleb128 0
 1633 00c4 1A       		.byte	0x1a
 1634 00c5 30       		.byte	0x30
 1635 00c6 2E       		.byte	0x2e
 1636 00c7 9F       		.byte	0x9f
 1637 00c8 AE000000 		.4byte	.LVL11-.Ltext0
 1638 00cc B8000000 		.4byte	.LFE33-.Ltext0
 1639 00d0 0900     		.2byte	0x9
 1640 00d2 73       		.byte	0x73
 1641 00d3 00       		.sleb128 0
 1642 00d4 F3       		.byte	0xf3
 1643 00d5 01       		.uleb128 0x1
 1644 00d6 50       		.byte	0x50
 1645 00d7 1A       		.byte	0x1a
 1646 00d8 30       		.byte	0x30
 1647 00d9 2E       		.byte	0x2e
 1648 00da 9F       		.byte	0x9f
 1649 00db 00000000 		.4byte	0
 1650 00df 00000000 		.4byte	0
 1651              	.LLST0:
 1652 00e3 1C000000 		.4byte	.LFB30-.Ltext0
 1653 00e7 20000000 		.4byte	.LCFI0-.Ltext0
 1654 00eb 0200     		.2byte	0x2
 1655 00ed 7D       		.byte	0x7d
 1656 00ee 00       		.sleb128 0
 1657 00ef 20000000 		.4byte	.LCFI0-.Ltext0
 1658 00f3 88000000 		.4byte	.LFE30-.Ltext0
 1659 00f7 0200     		.2byte	0x2
 1660 00f9 7D       		.byte	0x7d
 1661 00fa 0C       		.sleb128 12
 1662 00fb 00000000 		.4byte	0
 1663 00ff 00000000 		.4byte	0
 1664              	.LVUS1:
 1665 0103 02       		.uleb128 .LVU14
 1666 0104 07       		.uleb128 .LVU19
 1667 0105 07       		.uleb128 .LVU19
 1668 0106 01       		.uleb128 .LVU27
 1669 0107 01       		.uleb128 .LVU27
 1670 0108 00       		.uleb128 .LVU29
 1671 0109 01       		.uleb128 .LVU44
 1672 010a 02       		.uleb128 .LVU45
 1673 010b 02       		.uleb128 .LVU45
 1674 010c 00       		.uleb128 .LVU48
 1675 010d 00       		.uleb128 .LVU49
 1676 010e 01       		.uleb128 .LVU50
 1677 010f 01       		.uleb128 .LVU50
 1678 0110 00       		.uleb128 .LVU52
 1679              	.LLST1:
 1680 0111 1C000000 		.4byte	.LVL0-.Ltext0
 1681 0115 1C000000 		.4byte	.LVL0-.Ltext0
ARM GAS  C:\Users\skey\AppData\Local\Temp\ccYFm4Xc.s 			page 35


 1682 0119 0200     		.2byte	0x2
 1683 011b 30       		.byte	0x30
 1684 011c 9F       		.byte	0x9f
 1685 011d 1C000000 		.4byte	.LVL0-.Ltext0
 1686 0121 3E000000 		.4byte	.LVL1-.Ltext0
 1687 0125 0600     		.2byte	0x6
 1688 0127 0C       		.byte	0xc
 1689 0128 00040140 		.4byte	0x40010400
 1690 012c 9F       		.byte	0x9f
 1691 012d 3E000000 		.4byte	.LVL1-.Ltext0
 1692 0131 44000000 		.4byte	.LVL2-.Ltext0
 1693 0135 0E00     		.2byte	0xe
 1694 0137 70       		.byte	0x70
 1695 0138 04       		.sleb128 4
 1696 0139 94       		.byte	0x94
 1697 013a 01       		.byte	0x1
 1698 013b 08       		.byte	0x8
 1699 013c FF       		.byte	0xff
 1700 013d 1A       		.byte	0x1a
 1701 013e 23       		.byte	0x23
 1702 013f 80888480 		.uleb128 0x40010400
 1702      04
 1703 0144 9F       		.byte	0x9f
 1704 0145 6A000000 		.4byte	.LVL3-.Ltext0
 1705 0149 6A000000 		.4byte	.LVL3-.Ltext0
 1706 014d 0600     		.2byte	0x6
 1707 014f 0C       		.byte	0xc
 1708 0150 00040140 		.4byte	0x40010400
 1709 0154 9F       		.byte	0x9f
 1710 0155 6A000000 		.4byte	.LVL3-.Ltext0
 1711 0159 74000000 		.4byte	.LVL4-.Ltext0
 1712 015d 0C00     		.2byte	0xc
 1713 015f 71       		.byte	0x71
 1714 0160 00       		.sleb128 0
 1715 0161 08       		.byte	0x8
 1716 0162 FF       		.byte	0xff
 1717 0163 1A       		.byte	0x1a
 1718 0164 23       		.byte	0x23
 1719 0165 80888480 		.uleb128 0x40010400
 1719      04
 1720 016a 9F       		.byte	0x9f
 1721 016b 7A000000 		.4byte	.LVL5-.Ltext0
 1722 016f 7A000000 		.4byte	.LVL5-.Ltext0
 1723 0173 0600     		.2byte	0x6
 1724 0175 0C       		.byte	0xc
 1725 0176 00040140 		.4byte	0x40010400
 1726 017a 9F       		.byte	0x9f
 1727 017b 7A000000 		.4byte	.LVL5-.Ltext0
 1728 017f 80000000 		.4byte	.LVL6-.Ltext0
 1729 0183 0E00     		.2byte	0xe
 1730 0185 70       		.byte	0x70
 1731 0186 04       		.sleb128 4
 1732 0187 94       		.byte	0x94
 1733 0188 01       		.byte	0x1
 1734 0189 08       		.byte	0x8
 1735 018a FF       		.byte	0xff
 1736 018b 1A       		.byte	0x1a
ARM GAS  C:\Users\skey\AppData\Local\Temp\ccYFm4Xc.s 			page 36


 1737 018c 23       		.byte	0x23
 1738 018d 80888480 		.uleb128 0x40010400
 1738      04
 1739 0192 9F       		.byte	0x9f
 1740 0193 00000000 		.4byte	0
 1741 0197 00000000 		.4byte	0
 1742              		.section	.debug_aranges,"",%progbits
 1743 0000 1C000000 		.4byte	0x1c
 1744 0004 0200     		.2byte	0x2
 1745 0006 00000000 		.4byte	.Ldebug_info0
 1746 000a 04       		.byte	0x4
 1747 000b 00       		.byte	0
 1748 000c 0000     		.2byte	0
 1749 000e 0000     		.2byte	0
 1750 0010 00000000 		.4byte	.Ltext0
 1751 0014 EC000000 		.4byte	.Letext0-.Ltext0
 1752 0018 00000000 		.4byte	0
 1753 001c 00000000 		.4byte	0
 1754              		.section	.debug_line,"",%progbits
 1755              	.Ldebug_line0:
 1756 0000 51030000 		.section	.debug_str,"MS",%progbits,1
 1756      0300DC01 
 1756      00000201 
 1756      FB0E0D00 
 1756      01010101 
 1757              	.LASF30:
 1758 0000 45585449 		.ascii	"EXTI_Line\000"
 1758      5F4C696E 
 1758      6500
 1759              	.LASF31:
 1760 000a 45585449 		.ascii	"EXTI_Mode\000"
 1760      5F4D6F64 
 1760      6500
 1761              	.LASF15:
 1762 0014 49545374 		.ascii	"ITStatus\000"
 1762      61747573 
 1762      00
 1763              	.LASF36:
 1764 001d 656E6162 		.ascii	"enablestatus\000"
 1764      6C657374 
 1764      61747573 
 1764      00
 1765              	.LASF33:
 1766 002a 45585449 		.ascii	"EXTI_LineCmd\000"
 1766      5F4C696E 
 1766      65436D64 
 1766      00
 1767              	.LASF32:
 1768 0037 45585449 		.ascii	"EXTI_Trigger\000"
 1768      5F547269 
 1768      67676572 
 1768      00
 1769              	.LASF27:
 1770 0044 45585449 		.ascii	"EXTI_Trigger_Falling\000"
 1770      5F547269 
 1770      67676572 
 1770      5F46616C 
ARM GAS  C:\Users\skey\AppData\Local\Temp\ccYFm4Xc.s 			page 37


 1770      6C696E67 
 1771              	.LASF24:
 1772 0059 45585449 		.ascii	"EXTI_Mode_Event\000"
 1772      5F4D6F64 
 1772      655F4576 
 1772      656E7400 
 1773              	.LASF3:
 1774 0069 73686F72 		.ascii	"short unsigned int\000"
 1774      7420756E 
 1774      7369676E 
 1774      65642069 
 1774      6E7400
 1775              	.LASF18:
 1776 007c 46756E63 		.ascii	"FunctionalState\000"
 1776      74696F6E 
 1776      616C5374 
 1776      61746500 
 1777              	.LASF35:
 1778 008c 62697473 		.ascii	"bitstatus\000"
 1778      74617475 
 1778      7300
 1779              	.LASF39:
 1780 0096 45585449 		.ascii	"EXTI_GenerateSWInterrupt\000"
 1780      5F47656E 
 1780      65726174 
 1780      65535749 
 1780      6E746572 
 1781              	.LASF34:
 1782 00af 45585449 		.ascii	"EXTI_InitTypeDef\000"
 1782      5F496E69 
 1782      74547970 
 1782      65446566 
 1782      00
 1783              	.LASF41:
 1784 00c0 45585449 		.ascii	"EXTI_InitStruct\000"
 1784      5F496E69 
 1784      74537472 
 1784      75637400 
 1785              	.LASF17:
 1786 00d0 454E4142 		.ascii	"ENABLE\000"
 1786      4C4500
 1787              	.LASF23:
 1788 00d7 45585449 		.ascii	"EXTI_Mode_Interrupt\000"
 1788      5F4D6F64 
 1788      655F496E 
 1788      74657272 
 1788      75707400 
 1789              	.LASF1:
 1790 00eb 756E7369 		.ascii	"unsigned char\000"
 1790      676E6564 
 1790      20636861 
 1790      7200
 1791              	.LASF14:
 1792 00f9 466C6167 		.ascii	"FlagStatus\000"
 1792      53746174 
 1792      757300
 1793              	.LASF47:
ARM GAS  C:\Users\skey\AppData\Local\Temp\ccYFm4Xc.s 			page 38


 1794 0104 45585449 		.ascii	"EXTI_ClearFlag\000"
 1794      5F436C65 
 1794      6172466C 
 1794      616700
 1795              	.LASF5:
 1796 0113 6C6F6E67 		.ascii	"long unsigned int\000"
 1796      20756E73 
 1796      69676E65 
 1796      6420696E 
 1796      7400
 1797              	.LASF13:
 1798 0125 52455345 		.ascii	"RESET\000"
 1798      5400
 1799              	.LASF25:
 1800 012b 45585449 		.ascii	"EXTIMode_TypeDef\000"
 1800      4D6F6465 
 1800      5F547970 
 1800      65446566 
 1800      00
 1801              	.LASF22:
 1802 013c 45585449 		.ascii	"EXTI_TypeDef\000"
 1802      5F547970 
 1802      65446566 
 1802      00
 1803              	.LASF16:
 1804 0149 44495341 		.ascii	"DISABLE\000"
 1804      424C4500 
 1805              	.LASF11:
 1806 0151 49544D5F 		.ascii	"ITM_RxBuffer\000"
 1806      52784275 
 1806      66666572 
 1806      00
 1807              	.LASF19:
 1808 015e 52545352 		.ascii	"RTSR\000"
 1808      00
 1809              	.LASF10:
 1810 0163 75696E74 		.ascii	"uint32_t\000"
 1810      33325F74 
 1810      00
 1811              	.LASF44:
 1812 016c 2E5C7374 		.ascii	".\\stlib\\STM32F10x_StdPeriph_Driver\\src\\stm32f10"
 1812      6C69625C 
 1812      53544D33 
 1812      32463130 
 1812      785F5374 
 1813 019b 785F6578 		.ascii	"x_exti.c\000"
 1813      74692E63 
 1813      00
 1814              	.LASF9:
 1815 01a4 5F5F7569 		.ascii	"__uint32_t\000"
 1815      6E743332 
 1815      5F7400
 1816              	.LASF26:
 1817 01af 45585449 		.ascii	"EXTI_Trigger_Rising\000"
 1817      5F547269 
 1817      67676572 
 1817      5F526973 
ARM GAS  C:\Users\skey\AppData\Local\Temp\ccYFm4Xc.s 			page 39


 1817      696E6700 
 1818              	.LASF28:
 1819 01c3 45585449 		.ascii	"EXTI_Trigger_Rising_Falling\000"
 1819      5F547269 
 1819      67676572 
 1819      5F526973 
 1819      696E675F 
 1820              	.LASF8:
 1821 01df 756E7369 		.ascii	"unsigned int\000"
 1821      676E6564 
 1821      20696E74 
 1821      00
 1822              	.LASF42:
 1823 01ec 45585449 		.ascii	"EXTI_Init\000"
 1823      5F496E69 
 1823      7400
 1824              	.LASF38:
 1825 01f6 45585449 		.ascii	"EXTI_GetFlagStatus\000"
 1825      5F476574 
 1825      466C6167 
 1825      53746174 
 1825      757300
 1826              	.LASF7:
 1827 0209 6C6F6E67 		.ascii	"long long unsigned int\000"
 1827      206C6F6E 
 1827      6720756E 
 1827      7369676E 
 1827      65642069 
 1828              	.LASF40:
 1829 0220 45585449 		.ascii	"EXTI_StructInit\000"
 1829      5F537472 
 1829      75637449 
 1829      6E697400 
 1830              	.LASF6:
 1831 0230 6C6F6E67 		.ascii	"long long int\000"
 1831      206C6F6E 
 1831      6720696E 
 1831      7400
 1832              	.LASF45:
 1833 023e 443A5C53 		.ascii	"D:\\STM32_Freertos_GCC_Makefile_Win\000"
 1833      544D3332 
 1833      5F467265 
 1833      6572746F 
 1833      735F4743 
 1834              	.LASF12:
 1835 0261 53797374 		.ascii	"SystemCoreClock\000"
 1835      656D436F 
 1835      7265436C 
 1835      6F636B00 
 1836              	.LASF37:
 1837 0271 45585449 		.ascii	"EXTI_GetITStatus\000"
 1837      5F476574 
 1837      49545374 
 1837      61747573 
 1837      00
 1838              	.LASF46:
 1839 0282 45585449 		.ascii	"EXTI_ClearITPendingBit\000"
ARM GAS  C:\Users\skey\AppData\Local\Temp\ccYFm4Xc.s 			page 40


 1839      5F436C65 
 1839      61724954 
 1839      50656E64 
 1839      696E6742 
 1840              	.LASF2:
 1841 0299 73686F72 		.ascii	"short int\000"
 1841      7420696E 
 1841      7400
 1842              	.LASF20:
 1843 02a3 46545352 		.ascii	"FTSR\000"
 1843      00
 1844              	.LASF4:
 1845 02a8 6C6F6E67 		.ascii	"long int\000"
 1845      20696E74 
 1845      00
 1846              	.LASF0:
 1847 02b1 7369676E 		.ascii	"signed char\000"
 1847      65642063 
 1847      68617200 
 1848              	.LASF29:
 1849 02bd 45585449 		.ascii	"EXTITrigger_TypeDef\000"
 1849      54726967 
 1849      6765725F 
 1849      54797065 
 1849      44656600 
 1850              	.LASF43:
 1851 02d1 474E5520 		.ascii	"GNU C17 9.2.1 20191025 (release) [ARM/arm-9-branch "
 1851      43313720 
 1851      392E322E 
 1851      31203230 
 1851      31393130 
 1852 0304 72657669 		.ascii	"revision 277599] -mcpu=cortex-m3 -mthumb -mfloat-ab"
 1852      73696F6E 
 1852      20323737 
 1852      3539395D 
 1852      202D6D63 
 1853 0337 693D736F 		.ascii	"i=soft -march=armv7-m -g -gdwarf-2 -Os -fomit-frame"
 1853      6674202D 
 1853      6D617263 
 1853      683D6172 
 1853      6D76372D 
 1854 036a 2D706F69 		.ascii	"-pointer\000"
 1854      6E746572 
 1854      00
 1855              	.LASF21:
 1856 0373 53574945 		.ascii	"SWIER\000"
 1856      5200
 1857              	.LASF48:
 1858 0379 45585449 		.ascii	"EXTI_DeInit\000"
 1858      5F446549 
 1858      6E697400 
 1859              		.ident	"GCC: (GNU Tools for Arm Embedded Processors 9-2019-q4-major) 9.2.1 20191025 (release) [ARM
ARM GAS  C:\Users\skey\AppData\Local\Temp\ccYFm4Xc.s 			page 41


DEFINED SYMBOLS
                            *ABS*:00000000 stm32f10x_exti.c
C:\Users\skey\AppData\Local\Temp\ccYFm4Xc.s:76     .text:00000000 $t
C:\Users\skey\AppData\Local\Temp\ccYFm4Xc.s:84     .text:00000000 EXTI_DeInit
C:\Users\skey\AppData\Local\Temp\ccYFm4Xc.s:121    .text:00000014 $d
C:\Users\skey\AppData\Local\Temp\ccYFm4Xc.s:126    .text:0000001c $t
C:\Users\skey\AppData\Local\Temp\ccYFm4Xc.s:133    .text:0000001c EXTI_Init
C:\Users\skey\AppData\Local\Temp\ccYFm4Xc.s:260    .text:00000084 $d
C:\Users\skey\AppData\Local\Temp\ccYFm4Xc.s:264    .text:00000088 $t
C:\Users\skey\AppData\Local\Temp\ccYFm4Xc.s:271    .text:00000088 EXTI_StructInit
C:\Users\skey\AppData\Local\Temp\ccYFm4Xc.s:311    .text:00000096 EXTI_GenerateSWInterrupt
C:\Users\skey\AppData\Local\Temp\ccYFm4Xc.s:333    .text:000000a0 $d
C:\Users\skey\AppData\Local\Temp\ccYFm4Xc.s:337    .text:000000a4 $t
C:\Users\skey\AppData\Local\Temp\ccYFm4Xc.s:344    .text:000000a4 EXTI_GetFlagStatus
C:\Users\skey\AppData\Local\Temp\ccYFm4Xc.s:375    .text:000000b4 $d
C:\Users\skey\AppData\Local\Temp\ccYFm4Xc.s:379    .text:000000b8 $t
C:\Users\skey\AppData\Local\Temp\ccYFm4Xc.s:386    .text:000000b8 EXTI_ClearFlag
C:\Users\skey\AppData\Local\Temp\ccYFm4Xc.s:406    .text:000000c0 $d
C:\Users\skey\AppData\Local\Temp\ccYFm4Xc.s:410    .text:000000c4 $t
C:\Users\skey\AppData\Local\Temp\ccYFm4Xc.s:417    .text:000000c4 EXTI_GetITStatus
C:\Users\skey\AppData\Local\Temp\ccYFm4Xc.s:463    .text:000000dc $d
C:\Users\skey\AppData\Local\Temp\ccYFm4Xc.s:467    .text:000000e0 $t
C:\Users\skey\AppData\Local\Temp\ccYFm4Xc.s:474    .text:000000e0 EXTI_ClearITPendingBit
C:\Users\skey\AppData\Local\Temp\ccYFm4Xc.s:486    .text:000000e8 $d

NO UNDEFINED SYMBOLS
