ARM GAS  C:\Users\skey\AppData\Local\Temp\ccKAsNbo.s 			page 1


   1              		.cpu cortex-m3
   2              		.eabi_attribute 20, 1	@ Tag_ABI_FP_denormal
   3              		.eabi_attribute 21, 1	@ Tag_ABI_FP_exceptions
   4              		.eabi_attribute 23, 3	@ Tag_ABI_FP_number_model
   5              		.eabi_attribute 24, 1	@ Tag_ABI_align8_needed
   6              		.eabi_attribute 25, 1	@ Tag_ABI_align8_preserved
   7              		.eabi_attribute 26, 1	@ Tag_ABI_enum_size
   8              		.eabi_attribute 30, 4	@ Tag_ABI_optimization_goals
   9              		.eabi_attribute 34, 1	@ Tag_CPU_unaligned_access
  10              		.eabi_attribute 18, 4	@ Tag_ABI_PCS_wchar_t
  11              		.file	"stm32f10x_dac.c"
  12              	@ GNU C17 (GNU Tools for Arm Embedded Processors 9-2019-q4-major) version 9.2.1 20191025 (release) 
  13              	@	compiled by GNU C version 5.3.1 20160211, GMP version 6.1.0, MPFR version 3.1.4, MPC version 1.0.
  14              	
  15              	@ GGC heuristics: --param ggc-min-expand=100 --param ggc-min-heapsize=131072
  16              	@ options passed:  -I . -I .\usr_inc -I .\task_inc
  17              	@ -I .\stlib\CMSIS\CM3\CoreSupport
  18              	@ -I .\stlib\CMSIS\CM3\DeviceSupport\ST\STM32F10x
  19              	@ -I .\stlib\STM32F10x_StdPeriph_Driver\inc
  20              	@ -I .\stlib\STM32F10x_StdPeriph_Driver -I .\freertos\include
  21              	@ -I .\freertos\portable\GCC\ARM_CM3 -imultilib thumb/v7-m/nofp
  22              	@ -iprefix c:\program files (x86)\gnu tools arm embedded\9 2019-q4-major\bin\../lib/gcc/arm-none-ea
  23              	@ -isysroot c:\program files (x86)\gnu tools arm embedded\9 2019-q4-major\bin\../arm-none-eabi
  24              	@ -D__USES_INITFINI__ -D STM32F10X_HD -D USE_STDPERIPH_DRIVER
  25              	@ -D HSE_VALUE=8000000 -D RUN_FROM_FLASH=1
  26              	@ .\stlib\STM32F10x_StdPeriph_Driver\src\stm32f10x_dac.c -mcpu=cortex-m3
  27              	@ -mthumb -mfloat-abi=soft -march=armv7-m
  28              	@ -auxbase-strip .\stlib\STM32F10x_StdPeriph_Driver\src\stm32f10x_dac.o -g
  29              	@ -gdwarf-2 -Os -Wall -fomit-frame-pointer -fverbose-asm
  30              	@ options enabled:  -faggressive-loop-optimizations -fassume-phsa
  31              	@ -fauto-inc-dec -fbranch-count-reg -fcaller-saves -fcode-hoisting
  32              	@ -fcombine-stack-adjustments -fcommon -fcompare-elim -fcprop-registers
  33              	@ -fcrossjumping -fcse-follow-jumps -fdefer-pop
  34              	@ -fdelete-null-pointer-checks -fdevirtualize -fdevirtualize-speculatively
  35              	@ -fdwarf2-cfi-asm -fearly-inlining -feliminate-unused-debug-types
  36              	@ -fexpensive-optimizations -fforward-propagate -ffp-int-builtin-inexact
  37              	@ -ffunction-cse -fgcse -fgcse-lm -fgnu-runtime -fgnu-unique
  38              	@ -fguess-branch-probability -fhoist-adjacent-loads -fident -fif-conversion
  39              	@ -fif-conversion2 -findirect-inlining -finline -finline-atomics
  40              	@ -finline-functions -finline-functions-called-once
  41              	@ -finline-small-functions -fipa-bit-cp -fipa-cp -fipa-icf
  42              	@ -fipa-icf-functions -fipa-icf-variables -fipa-profile -fipa-pure-const
  43              	@ -fipa-ra -fipa-reference -fipa-reference-addressable -fipa-sra
  44              	@ -fipa-stack-alignment -fipa-vrp -fira-hoist-pressure
  45              	@ -fira-share-save-slots -fira-share-spill-slots
  46              	@ -fisolate-erroneous-paths-dereference -fivopts -fkeep-static-consts
  47              	@ -fleading-underscore -flifetime-dse -flra-remat -flto-odr-type-merging
  48              	@ -fmath-errno -fmerge-constants -fmerge-debug-strings
  49              	@ -fmove-loop-invariants -fomit-frame-pointer -foptimize-sibling-calls
  50              	@ -fpartial-inlining -fpeephole -fpeephole2 -fplt -fprefetch-loop-arrays
  51              	@ -freg-struct-return -freorder-blocks -freorder-functions
  52              	@ -frerun-cse-after-loop -fsched-critical-path-heuristic
  53              	@ -fsched-dep-count-heuristic -fsched-group-heuristic -fsched-interblock
  54              	@ -fsched-last-insn-heuristic -fsched-pressure -fsched-rank-heuristic
  55              	@ -fsched-spec -fsched-spec-insn-heuristic -fsched-stalled-insns-dep
  56              	@ -fschedule-insns2 -fsection-anchors -fsemantic-interposition
  57              	@ -fshow-column -fshrink-wrap-separate -fsigned-zeros
ARM GAS  C:\Users\skey\AppData\Local\Temp\ccKAsNbo.s 			page 2


  58              	@ -fsplit-ivs-in-unroller -fsplit-wide-types -fssa-backprop -fssa-phiopt
  59              	@ -fstdarg-opt -fstore-merging -fstrict-aliasing
  60              	@ -fstrict-volatile-bitfields -fsync-libcalls -fthread-jumps
  61              	@ -ftoplevel-reorder -ftrapping-math -ftree-bit-ccp -ftree-builtin-call-dce
  62              	@ -ftree-ccp -ftree-ch -ftree-coalesce-vars -ftree-copy-prop -ftree-cselim
  63              	@ -ftree-dce -ftree-dominator-opts -ftree-dse -ftree-forwprop -ftree-fre
  64              	@ -ftree-loop-if-convert -ftree-loop-im -ftree-loop-ivcanon
  65              	@ -ftree-loop-optimize -ftree-parallelize-loops= -ftree-phiprop -ftree-pre
  66              	@ -ftree-pta -ftree-reassoc -ftree-scev-cprop -ftree-sink -ftree-slsr
  67              	@ -ftree-sra -ftree-switch-conversion -ftree-tail-merge -ftree-ter
  68              	@ -ftree-vrp -funit-at-a-time -fvar-tracking -fvar-tracking-assignments
  69              	@ -fverbose-asm -fzero-initialized-in-bss -masm-syntax-unified -mbe32
  70              	@ -mfix-cortex-m3-ldrd -mlittle-endian -mpic-data-is-text-relative
  71              	@ -msched-prolog -mthumb -munaligned-access -mvectorize-with-neon-quad
  72              	
  73              		.text
  74              	.Ltext0:
  75              		.cfi_sections	.debug_frame
  76              		.align	1
  77              		.global	DAC_DeInit
  78              		.arch armv7-m
  79              		.syntax unified
  80              		.thumb
  81              		.thumb_func
  82              		.fpu softvfp
  83              		.type	DAC_DeInit, %function
  84              	DAC_DeInit:
  85              	.LFB29:
  86              		.file 1 ".\\stlib\\STM32F10x_StdPeriph_Driver\\src\\stm32f10x_dac.c"
   1:.\stlib\STM32F10x_StdPeriph_Driver\src/stm32f10x_dac.c **** /**
   2:.\stlib\STM32F10x_StdPeriph_Driver\src/stm32f10x_dac.c ****   ******************************************************************************
   3:.\stlib\STM32F10x_StdPeriph_Driver\src/stm32f10x_dac.c ****   * @file    stm32f10x_dac.c
   4:.\stlib\STM32F10x_StdPeriph_Driver\src/stm32f10x_dac.c ****   * @author  MCD Application Team
   5:.\stlib\STM32F10x_StdPeriph_Driver\src/stm32f10x_dac.c ****   * @version V3.5.0
   6:.\stlib\STM32F10x_StdPeriph_Driver\src/stm32f10x_dac.c ****   * @date    11-March-2011
   7:.\stlib\STM32F10x_StdPeriph_Driver\src/stm32f10x_dac.c ****   * @brief   This file provides all the DAC firmware functions.
   8:.\stlib\STM32F10x_StdPeriph_Driver\src/stm32f10x_dac.c ****   ******************************************************************************
   9:.\stlib\STM32F10x_StdPeriph_Driver\src/stm32f10x_dac.c ****   * @attention
  10:.\stlib\STM32F10x_StdPeriph_Driver\src/stm32f10x_dac.c ****   *
  11:.\stlib\STM32F10x_StdPeriph_Driver\src/stm32f10x_dac.c ****   * THE PRESENT FIRMWARE WHICH IS FOR GUIDANCE ONLY AIMS AT PROVIDING CUSTOMERS
  12:.\stlib\STM32F10x_StdPeriph_Driver\src/stm32f10x_dac.c ****   * WITH CODING INFORMATION REGARDING THEIR PRODUCTS IN ORDER FOR THEM TO SAVE
  13:.\stlib\STM32F10x_StdPeriph_Driver\src/stm32f10x_dac.c ****   * TIME. AS A RESULT, STMICROELECTRONICS SHALL NOT BE HELD LIABLE FOR ANY
  14:.\stlib\STM32F10x_StdPeriph_Driver\src/stm32f10x_dac.c ****   * DIRECT, INDIRECT OR CONSEQUENTIAL DAMAGES WITH RESPECT TO ANY CLAIMS ARISING
  15:.\stlib\STM32F10x_StdPeriph_Driver\src/stm32f10x_dac.c ****   * FROM THE CONTENT OF SUCH FIRMWARE AND/OR THE USE MADE BY CUSTOMERS OF THE
  16:.\stlib\STM32F10x_StdPeriph_Driver\src/stm32f10x_dac.c ****   * CODING INFORMATION CONTAINED HEREIN IN CONNECTION WITH THEIR PRODUCTS.
  17:.\stlib\STM32F10x_StdPeriph_Driver\src/stm32f10x_dac.c ****   *
  18:.\stlib\STM32F10x_StdPeriph_Driver\src/stm32f10x_dac.c ****   * <h2><center>&copy; COPYRIGHT 2011 STMicroelectronics</center></h2>
  19:.\stlib\STM32F10x_StdPeriph_Driver\src/stm32f10x_dac.c ****   ******************************************************************************
  20:.\stlib\STM32F10x_StdPeriph_Driver\src/stm32f10x_dac.c ****   */
  21:.\stlib\STM32F10x_StdPeriph_Driver\src/stm32f10x_dac.c **** 
  22:.\stlib\STM32F10x_StdPeriph_Driver\src/stm32f10x_dac.c **** /* Includes ------------------------------------------------------------------*/
  23:.\stlib\STM32F10x_StdPeriph_Driver\src/stm32f10x_dac.c **** #include "stm32f10x_dac.h"
  24:.\stlib\STM32F10x_StdPeriph_Driver\src/stm32f10x_dac.c **** #include "stm32f10x_rcc.h"
  25:.\stlib\STM32F10x_StdPeriph_Driver\src/stm32f10x_dac.c **** 
  26:.\stlib\STM32F10x_StdPeriph_Driver\src/stm32f10x_dac.c **** /** @addtogroup STM32F10x_StdPeriph_Driver
  27:.\stlib\STM32F10x_StdPeriph_Driver\src/stm32f10x_dac.c ****   * @{
  28:.\stlib\STM32F10x_StdPeriph_Driver\src/stm32f10x_dac.c ****   */
ARM GAS  C:\Users\skey\AppData\Local\Temp\ccKAsNbo.s 			page 3


  29:.\stlib\STM32F10x_StdPeriph_Driver\src/stm32f10x_dac.c **** 
  30:.\stlib\STM32F10x_StdPeriph_Driver\src/stm32f10x_dac.c **** /** @defgroup DAC 
  31:.\stlib\STM32F10x_StdPeriph_Driver\src/stm32f10x_dac.c ****   * @brief DAC driver modules
  32:.\stlib\STM32F10x_StdPeriph_Driver\src/stm32f10x_dac.c ****   * @{
  33:.\stlib\STM32F10x_StdPeriph_Driver\src/stm32f10x_dac.c ****   */ 
  34:.\stlib\STM32F10x_StdPeriph_Driver\src/stm32f10x_dac.c **** 
  35:.\stlib\STM32F10x_StdPeriph_Driver\src/stm32f10x_dac.c **** /** @defgroup DAC_Private_TypesDefinitions
  36:.\stlib\STM32F10x_StdPeriph_Driver\src/stm32f10x_dac.c ****   * @{
  37:.\stlib\STM32F10x_StdPeriph_Driver\src/stm32f10x_dac.c ****   */
  38:.\stlib\STM32F10x_StdPeriph_Driver\src/stm32f10x_dac.c **** 
  39:.\stlib\STM32F10x_StdPeriph_Driver\src/stm32f10x_dac.c **** /**
  40:.\stlib\STM32F10x_StdPeriph_Driver\src/stm32f10x_dac.c ****   * @}
  41:.\stlib\STM32F10x_StdPeriph_Driver\src/stm32f10x_dac.c ****   */
  42:.\stlib\STM32F10x_StdPeriph_Driver\src/stm32f10x_dac.c **** 
  43:.\stlib\STM32F10x_StdPeriph_Driver\src/stm32f10x_dac.c **** /** @defgroup DAC_Private_Defines
  44:.\stlib\STM32F10x_StdPeriph_Driver\src/stm32f10x_dac.c ****   * @{
  45:.\stlib\STM32F10x_StdPeriph_Driver\src/stm32f10x_dac.c ****   */
  46:.\stlib\STM32F10x_StdPeriph_Driver\src/stm32f10x_dac.c **** 
  47:.\stlib\STM32F10x_StdPeriph_Driver\src/stm32f10x_dac.c **** /* CR register Mask */
  48:.\stlib\STM32F10x_StdPeriph_Driver\src/stm32f10x_dac.c **** #define CR_CLEAR_MASK              ((uint32_t)0x00000FFE)
  49:.\stlib\STM32F10x_StdPeriph_Driver\src/stm32f10x_dac.c **** 
  50:.\stlib\STM32F10x_StdPeriph_Driver\src/stm32f10x_dac.c **** /* DAC Dual Channels SWTRIG masks */
  51:.\stlib\STM32F10x_StdPeriph_Driver\src/stm32f10x_dac.c **** #define DUAL_SWTRIG_SET            ((uint32_t)0x00000003)
  52:.\stlib\STM32F10x_StdPeriph_Driver\src/stm32f10x_dac.c **** #define DUAL_SWTRIG_RESET          ((uint32_t)0xFFFFFFFC)
  53:.\stlib\STM32F10x_StdPeriph_Driver\src/stm32f10x_dac.c **** 
  54:.\stlib\STM32F10x_StdPeriph_Driver\src/stm32f10x_dac.c **** /* DHR registers offsets */
  55:.\stlib\STM32F10x_StdPeriph_Driver\src/stm32f10x_dac.c **** #define DHR12R1_OFFSET             ((uint32_t)0x00000008)
  56:.\stlib\STM32F10x_StdPeriph_Driver\src/stm32f10x_dac.c **** #define DHR12R2_OFFSET             ((uint32_t)0x00000014)
  57:.\stlib\STM32F10x_StdPeriph_Driver\src/stm32f10x_dac.c **** #define DHR12RD_OFFSET             ((uint32_t)0x00000020)
  58:.\stlib\STM32F10x_StdPeriph_Driver\src/stm32f10x_dac.c **** 
  59:.\stlib\STM32F10x_StdPeriph_Driver\src/stm32f10x_dac.c **** /* DOR register offset */
  60:.\stlib\STM32F10x_StdPeriph_Driver\src/stm32f10x_dac.c **** #define DOR_OFFSET                 ((uint32_t)0x0000002C)
  61:.\stlib\STM32F10x_StdPeriph_Driver\src/stm32f10x_dac.c **** /**
  62:.\stlib\STM32F10x_StdPeriph_Driver\src/stm32f10x_dac.c ****   * @}
  63:.\stlib\STM32F10x_StdPeriph_Driver\src/stm32f10x_dac.c ****   */
  64:.\stlib\STM32F10x_StdPeriph_Driver\src/stm32f10x_dac.c **** 
  65:.\stlib\STM32F10x_StdPeriph_Driver\src/stm32f10x_dac.c **** /** @defgroup DAC_Private_Macros
  66:.\stlib\STM32F10x_StdPeriph_Driver\src/stm32f10x_dac.c ****   * @{
  67:.\stlib\STM32F10x_StdPeriph_Driver\src/stm32f10x_dac.c ****   */
  68:.\stlib\STM32F10x_StdPeriph_Driver\src/stm32f10x_dac.c **** 
  69:.\stlib\STM32F10x_StdPeriph_Driver\src/stm32f10x_dac.c **** /**
  70:.\stlib\STM32F10x_StdPeriph_Driver\src/stm32f10x_dac.c ****   * @}
  71:.\stlib\STM32F10x_StdPeriph_Driver\src/stm32f10x_dac.c ****   */
  72:.\stlib\STM32F10x_StdPeriph_Driver\src/stm32f10x_dac.c **** 
  73:.\stlib\STM32F10x_StdPeriph_Driver\src/stm32f10x_dac.c **** /** @defgroup DAC_Private_Variables
  74:.\stlib\STM32F10x_StdPeriph_Driver\src/stm32f10x_dac.c ****   * @{
  75:.\stlib\STM32F10x_StdPeriph_Driver\src/stm32f10x_dac.c ****   */
  76:.\stlib\STM32F10x_StdPeriph_Driver\src/stm32f10x_dac.c **** 
  77:.\stlib\STM32F10x_StdPeriph_Driver\src/stm32f10x_dac.c **** /**
  78:.\stlib\STM32F10x_StdPeriph_Driver\src/stm32f10x_dac.c ****   * @}
  79:.\stlib\STM32F10x_StdPeriph_Driver\src/stm32f10x_dac.c ****   */
  80:.\stlib\STM32F10x_StdPeriph_Driver\src/stm32f10x_dac.c **** 
  81:.\stlib\STM32F10x_StdPeriph_Driver\src/stm32f10x_dac.c **** /** @defgroup DAC_Private_FunctionPrototypes
  82:.\stlib\STM32F10x_StdPeriph_Driver\src/stm32f10x_dac.c ****   * @{
  83:.\stlib\STM32F10x_StdPeriph_Driver\src/stm32f10x_dac.c ****   */
  84:.\stlib\STM32F10x_StdPeriph_Driver\src/stm32f10x_dac.c **** 
  85:.\stlib\STM32F10x_StdPeriph_Driver\src/stm32f10x_dac.c **** /**
ARM GAS  C:\Users\skey\AppData\Local\Temp\ccKAsNbo.s 			page 4


  86:.\stlib\STM32F10x_StdPeriph_Driver\src/stm32f10x_dac.c ****   * @}
  87:.\stlib\STM32F10x_StdPeriph_Driver\src/stm32f10x_dac.c ****   */
  88:.\stlib\STM32F10x_StdPeriph_Driver\src/stm32f10x_dac.c **** 
  89:.\stlib\STM32F10x_StdPeriph_Driver\src/stm32f10x_dac.c **** /** @defgroup DAC_Private_Functions
  90:.\stlib\STM32F10x_StdPeriph_Driver\src/stm32f10x_dac.c ****   * @{
  91:.\stlib\STM32F10x_StdPeriph_Driver\src/stm32f10x_dac.c ****   */
  92:.\stlib\STM32F10x_StdPeriph_Driver\src/stm32f10x_dac.c **** 
  93:.\stlib\STM32F10x_StdPeriph_Driver\src/stm32f10x_dac.c **** /**
  94:.\stlib\STM32F10x_StdPeriph_Driver\src/stm32f10x_dac.c ****   * @brief  Deinitializes the DAC peripheral registers to their default reset values.
  95:.\stlib\STM32F10x_StdPeriph_Driver\src/stm32f10x_dac.c ****   * @param  None
  96:.\stlib\STM32F10x_StdPeriph_Driver\src/stm32f10x_dac.c ****   * @retval None
  97:.\stlib\STM32F10x_StdPeriph_Driver\src/stm32f10x_dac.c ****   */
  98:.\stlib\STM32F10x_StdPeriph_Driver\src/stm32f10x_dac.c **** void DAC_DeInit(void)
  99:.\stlib\STM32F10x_StdPeriph_Driver\src/stm32f10x_dac.c **** {
  87              		.loc 1 99 1 view -0
  88              		.cfi_startproc
  89              		@ args = 0, pretend = 0, frame = 0
  90              		@ frame_needed = 0, uses_anonymous_args = 0
 100:.\stlib\STM32F10x_StdPeriph_Driver\src/stm32f10x_dac.c ****   /* Enable DAC reset state */
 101:.\stlib\STM32F10x_StdPeriph_Driver\src/stm32f10x_dac.c ****   RCC_APB1PeriphResetCmd(RCC_APB1Periph_DAC, ENABLE);
  91              		.loc 1 101 3 view .LVU1
  92              	@ .\stlib\STM32F10x_StdPeriph_Driver\src\stm32f10x_dac.c:99: {
  99:.\stlib\STM32F10x_StdPeriph_Driver\src/stm32f10x_dac.c ****   /* Enable DAC reset state */
  93              		.loc 1 99 1 is_stmt 0 view .LVU2
  94 0000 08B5     		push	{r3, lr}	@
  95              	.LCFI0:
  96              		.cfi_def_cfa_offset 8
  97              		.cfi_offset 3, -8
  98              		.cfi_offset 14, -4
  99              	@ .\stlib\STM32F10x_StdPeriph_Driver\src\stm32f10x_dac.c:101:   RCC_APB1PeriphResetCmd(RCC_APB1Peri
 100              		.loc 1 101 3 view .LVU3
 101 0002 0121     		movs	r1, #1	@,
 102 0004 4FF00050 		mov	r0, #536870912	@,
 103 0008 FFF7FEFF 		bl	RCC_APB1PeriphResetCmd		@
 104              	.LVL0:
 102:.\stlib\STM32F10x_StdPeriph_Driver\src/stm32f10x_dac.c ****   /* Release DAC from reset state */
 103:.\stlib\STM32F10x_StdPeriph_Driver\src/stm32f10x_dac.c ****   RCC_APB1PeriphResetCmd(RCC_APB1Periph_DAC, DISABLE);
 105              		.loc 1 103 3 is_stmt 1 view .LVU4
 106              	@ .\stlib\STM32F10x_StdPeriph_Driver\src\stm32f10x_dac.c:104: }
 104:.\stlib\STM32F10x_StdPeriph_Driver\src/stm32f10x_dac.c **** }
 107              		.loc 1 104 1 is_stmt 0 view .LVU5
 108 000c BDE80840 		pop	{r3, lr}	@
 109              	.LCFI1:
 110              		.cfi_restore 14
 111              		.cfi_restore 3
 112              		.cfi_def_cfa_offset 0
 113              	@ .\stlib\STM32F10x_StdPeriph_Driver\src\stm32f10x_dac.c:103:   RCC_APB1PeriphResetCmd(RCC_APB1Peri
 103:.\stlib\STM32F10x_StdPeriph_Driver\src/stm32f10x_dac.c **** }
 114              		.loc 1 103 3 view .LVU6
 115 0010 0021     		movs	r1, #0	@,
 116 0012 4FF00050 		mov	r0, #536870912	@,
 117 0016 FFF7FEBF 		b	RCC_APB1PeriphResetCmd		@
 118              	.LVL1:
 119              		.cfi_endproc
 120              	.LFE29:
 121              		.size	DAC_DeInit, .-DAC_DeInit
 122              		.align	1
ARM GAS  C:\Users\skey\AppData\Local\Temp\ccKAsNbo.s 			page 5


 123              		.global	DAC_Init
 124              		.syntax unified
 125              		.thumb
 126              		.thumb_func
 127              		.fpu softvfp
 128              		.type	DAC_Init, %function
 129              	DAC_Init:
 130              	.LVL2:
 131              	.LFB30:
 105:.\stlib\STM32F10x_StdPeriph_Driver\src/stm32f10x_dac.c **** 
 106:.\stlib\STM32F10x_StdPeriph_Driver\src/stm32f10x_dac.c **** /**
 107:.\stlib\STM32F10x_StdPeriph_Driver\src/stm32f10x_dac.c ****   * @brief  Initializes the DAC peripheral according to the specified 
 108:.\stlib\STM32F10x_StdPeriph_Driver\src/stm32f10x_dac.c ****   *         parameters in the DAC_InitStruct.
 109:.\stlib\STM32F10x_StdPeriph_Driver\src/stm32f10x_dac.c ****   * @param  DAC_Channel: the selected DAC channel. 
 110:.\stlib\STM32F10x_StdPeriph_Driver\src/stm32f10x_dac.c ****   *   This parameter can be one of the following values:
 111:.\stlib\STM32F10x_StdPeriph_Driver\src/stm32f10x_dac.c ****   *     @arg DAC_Channel_1: DAC Channel1 selected
 112:.\stlib\STM32F10x_StdPeriph_Driver\src/stm32f10x_dac.c ****   *     @arg DAC_Channel_2: DAC Channel2 selected
 113:.\stlib\STM32F10x_StdPeriph_Driver\src/stm32f10x_dac.c ****   * @param  DAC_InitStruct: pointer to a DAC_InitTypeDef structure that
 114:.\stlib\STM32F10x_StdPeriph_Driver\src/stm32f10x_dac.c ****   *        contains the configuration information for the specified DAC channel.
 115:.\stlib\STM32F10x_StdPeriph_Driver\src/stm32f10x_dac.c ****   * @retval None
 116:.\stlib\STM32F10x_StdPeriph_Driver\src/stm32f10x_dac.c ****   */
 117:.\stlib\STM32F10x_StdPeriph_Driver\src/stm32f10x_dac.c **** void DAC_Init(uint32_t DAC_Channel, DAC_InitTypeDef* DAC_InitStruct)
 118:.\stlib\STM32F10x_StdPeriph_Driver\src/stm32f10x_dac.c **** {
 132              		.loc 1 118 1 is_stmt 1 view -0
 133              		.cfi_startproc
 134              		@ args = 0, pretend = 0, frame = 0
 135              		@ frame_needed = 0, uses_anonymous_args = 0
 119:.\stlib\STM32F10x_StdPeriph_Driver\src/stm32f10x_dac.c ****   uint32_t tmpreg1 = 0, tmpreg2 = 0;
 136              		.loc 1 119 3 view .LVU8
 120:.\stlib\STM32F10x_StdPeriph_Driver\src/stm32f10x_dac.c ****   /* Check the DAC parameters */
 121:.\stlib\STM32F10x_StdPeriph_Driver\src/stm32f10x_dac.c ****   assert_param(IS_DAC_TRIGGER(DAC_InitStruct->DAC_Trigger));
 137              		.loc 1 121 3 view .LVU9
 122:.\stlib\STM32F10x_StdPeriph_Driver\src/stm32f10x_dac.c ****   assert_param(IS_DAC_GENERATE_WAVE(DAC_InitStruct->DAC_WaveGeneration));
 138              		.loc 1 122 3 view .LVU10
 123:.\stlib\STM32F10x_StdPeriph_Driver\src/stm32f10x_dac.c ****   assert_param(IS_DAC_LFSR_UNMASK_TRIANGLE_AMPLITUDE(DAC_InitStruct->DAC_LFSRUnmask_TriangleAmplitu
 139              		.loc 1 123 3 view .LVU11
 124:.\stlib\STM32F10x_StdPeriph_Driver\src/stm32f10x_dac.c ****   assert_param(IS_DAC_OUTPUT_BUFFER_STATE(DAC_InitStruct->DAC_OutputBuffer));
 140              		.loc 1 124 3 view .LVU12
 125:.\stlib\STM32F10x_StdPeriph_Driver\src/stm32f10x_dac.c **** /*---------------------------- DAC CR Configuration --------------------------*/
 126:.\stlib\STM32F10x_StdPeriph_Driver\src/stm32f10x_dac.c ****   /* Get the DAC CR value */
 127:.\stlib\STM32F10x_StdPeriph_Driver\src/stm32f10x_dac.c ****   tmpreg1 = DAC->CR;
 141              		.loc 1 127 3 view .LVU13
 142              	@ .\stlib\STM32F10x_StdPeriph_Driver\src\stm32f10x_dac.c:129:   tmpreg1 &= ~(CR_CLEAR_MASK << DAC_C
 128:.\stlib\STM32F10x_StdPeriph_Driver\src/stm32f10x_dac.c ****   /* Clear BOFFx, TENx, TSELx, WAVEx and MAMPx bits */
 129:.\stlib\STM32F10x_StdPeriph_Driver\src/stm32f10x_dac.c ****   tmpreg1 &= ~(CR_CLEAR_MASK << DAC_Channel);
 143              		.loc 1 129 30 is_stmt 0 view .LVU14
 144 001a 40F6FE73 		movw	r3, #4094	@ tmp127,
 145              	@ .\stlib\STM32F10x_StdPeriph_Driver\src\stm32f10x_dac.c:118: {
 118:.\stlib\STM32F10x_StdPeriph_Driver\src/stm32f10x_dac.c ****   uint32_t tmpreg1 = 0, tmpreg2 = 0;
 146              		.loc 1 118 1 view .LVU15
 147 001e 30B5     		push	{r4, r5, lr}	@
 148              	.LCFI2:
 149              		.cfi_def_cfa_offset 12
 150              		.cfi_offset 4, -12
 151              		.cfi_offset 5, -8
 152              		.cfi_offset 14, -4
 153              	@ .\stlib\STM32F10x_StdPeriph_Driver\src\stm32f10x_dac.c:127:   tmpreg1 = DAC->CR;
ARM GAS  C:\Users\skey\AppData\Local\Temp\ccKAsNbo.s 			page 6


 127:.\stlib\STM32F10x_StdPeriph_Driver\src/stm32f10x_dac.c ****   /* Clear BOFFx, TENx, TSELx, WAVEx and MAMPx bits */
 154              		.loc 1 127 11 view .LVU16
 155 0020 084C     		ldr	r4, .L3	@ tmp125,
 156              	@ .\stlib\STM32F10x_StdPeriph_Driver\src\stm32f10x_dac.c:129:   tmpreg1 &= ~(CR_CLEAR_MASK << DAC_C
 157              		.loc 1 129 30 view .LVU17
 158 0022 8340     		lsls	r3, r3, r0	@ tmp126, tmp127, DAC_Channel
 159              	@ .\stlib\STM32F10x_StdPeriph_Driver\src\stm32f10x_dac.c:127:   tmpreg1 = DAC->CR;
 127:.\stlib\STM32F10x_StdPeriph_Driver\src/stm32f10x_dac.c ****   /* Clear BOFFx, TENx, TSELx, WAVEx and MAMPx bits */
 160              		.loc 1 127 11 view .LVU18
 161 0024 2268     		ldr	r2, [r4]	@ tmpreg1, MEM[(struct DAC_TypeDef *)1073771520B].CR
 162              	.LVL3:
 163              		.loc 1 129 3 is_stmt 1 view .LVU19
 164              	@ .\stlib\STM32F10x_StdPeriph_Driver\src\stm32f10x_dac.c:129:   tmpreg1 &= ~(CR_CLEAR_MASK << DAC_C
 165              		.loc 1 129 11 is_stmt 0 view .LVU20
 166 0026 22EA0302 		bic	r2, r2, r3	@ tmpreg1, tmpreg1, tmp126
 167              	.LVL4:
 130:.\stlib\STM32F10x_StdPeriph_Driver\src/stm32f10x_dac.c ****   /* Configure for the selected DAC channel: buffer output, trigger, wave generation,
 131:.\stlib\STM32F10x_StdPeriph_Driver\src/stm32f10x_dac.c ****      mask/amplitude for wave generation */
 132:.\stlib\STM32F10x_StdPeriph_Driver\src/stm32f10x_dac.c ****   /* Set TSELx and TENx bits according to DAC_Trigger value */
 133:.\stlib\STM32F10x_StdPeriph_Driver\src/stm32f10x_dac.c ****   /* Set WAVEx bits according to DAC_WaveGeneration value */
 134:.\stlib\STM32F10x_StdPeriph_Driver\src/stm32f10x_dac.c ****   /* Set MAMPx bits according to DAC_LFSRUnmask_TriangleAmplitude value */ 
 135:.\stlib\STM32F10x_StdPeriph_Driver\src/stm32f10x_dac.c ****   /* Set BOFFx bit according to DAC_OutputBuffer value */   
 136:.\stlib\STM32F10x_StdPeriph_Driver\src/stm32f10x_dac.c ****   tmpreg2 = (DAC_InitStruct->DAC_Trigger | DAC_InitStruct->DAC_WaveGeneration |
 168              		.loc 1 136 3 is_stmt 1 view .LVU21
 137:.\stlib\STM32F10x_StdPeriph_Driver\src/stm32f10x_dac.c ****              DAC_InitStruct->DAC_LFSRUnmask_TriangleAmplitude | DAC_InitStruct->DAC_OutputBuffer);
 138:.\stlib\STM32F10x_StdPeriph_Driver\src/stm32f10x_dac.c ****   /* Calculate CR register value depending on DAC_Channel */
 139:.\stlib\STM32F10x_StdPeriph_Driver\src/stm32f10x_dac.c ****   tmpreg1 |= tmpreg2 << DAC_Channel;
 169              		.loc 1 139 3 view .LVU22
 170              	@ .\stlib\STM32F10x_StdPeriph_Driver\src\stm32f10x_dac.c:136:   tmpreg2 = (DAC_InitStruct->DAC_Trig
 136:.\stlib\STM32F10x_StdPeriph_Driver\src/stm32f10x_dac.c ****              DAC_InitStruct->DAC_LFSRUnmask_TriangleAmplitude | DAC_InitStruct->DAC_OutputBuffer);
 171              		.loc 1 136 42 is_stmt 0 view .LVU23
 172 002a D1E90035 		ldrd	r3, r5, [r1]	@ DAC_InitStruct_14(D)->DAC_Trigger, DAC_InitStruct_14(D)->DAC_WaveGeneration, D
 173 002e 2B43     		orrs	r3, r3, r5	@, tmp129, DAC_InitStruct_14(D)->DAC_Trigger, DAC_InitStruct_14(D)->DAC_WaveGenera
 174              	@ .\stlib\STM32F10x_StdPeriph_Driver\src\stm32f10x_dac.c:136:   tmpreg2 = (DAC_InitStruct->DAC_Trig
 136:.\stlib\STM32F10x_StdPeriph_Driver\src/stm32f10x_dac.c ****              DAC_InitStruct->DAC_LFSRUnmask_TriangleAmplitude | DAC_InitStruct->DAC_OutputBuffer);
 175              		.loc 1 136 79 view .LVU24
 176 0030 8D68     		ldr	r5, [r1, #8]	@ DAC_InitStruct_14(D)->DAC_LFSRUnmask_TriangleAmplitude, DAC_InitStruct_14(D)->D
 177              	@ .\stlib\STM32F10x_StdPeriph_Driver\src\stm32f10x_dac.c:136:   tmpreg2 = (DAC_InitStruct->DAC_Trig
 136:.\stlib\STM32F10x_StdPeriph_Driver\src/stm32f10x_dac.c ****              DAC_InitStruct->DAC_LFSRUnmask_TriangleAmplitude | DAC_InitStruct->DAC_OutputBuffer);
 178              		.loc 1 136 11 view .LVU25
 179 0032 C968     		ldr	r1, [r1, #12]	@ DAC_InitStruct_14(D)->DAC_OutputBuffer, DAC_InitStruct_14(D)->DAC_OutputBuffer
 180              	.LVL5:
 181              	@ .\stlib\STM32F10x_StdPeriph_Driver\src\stm32f10x_dac.c:136:   tmpreg2 = (DAC_InitStruct->DAC_Trig
 136:.\stlib\STM32F10x_StdPeriph_Driver\src/stm32f10x_dac.c ****              DAC_InitStruct->DAC_LFSRUnmask_TriangleAmplitude | DAC_InitStruct->DAC_OutputBuffer);
 182              		.loc 1 136 79 view .LVU26
 183 0034 2B43     		orrs	r3, r3, r5	@, tmp132, tmp129, DAC_InitStruct_14(D)->DAC_LFSRUnmask_TriangleAmplitude
 184              	@ .\stlib\STM32F10x_StdPeriph_Driver\src\stm32f10x_dac.c:136:   tmpreg2 = (DAC_InitStruct->DAC_Trig
 136:.\stlib\STM32F10x_StdPeriph_Driver\src/stm32f10x_dac.c ****              DAC_InitStruct->DAC_LFSRUnmask_TriangleAmplitude | DAC_InitStruct->DAC_OutputBuffer);
 185              		.loc 1 136 11 view .LVU27
 186 0036 0B43     		orrs	r3, r3, r1	@, tmpreg2, tmp132, DAC_InitStruct_14(D)->DAC_OutputBuffer
 187              	@ .\stlib\STM32F10x_StdPeriph_Driver\src\stm32f10x_dac.c:139:   tmpreg1 |= tmpreg2 << DAC_Channel;
 188              		.loc 1 139 22 view .LVU28
 189 0038 03FA00F0 		lsl	r0, r3, r0	@ tmp136, tmpreg2, DAC_Channel
 190              	.LVL6:
 191              	@ .\stlib\STM32F10x_StdPeriph_Driver\src\stm32f10x_dac.c:139:   tmpreg1 |= tmpreg2 << DAC_Channel;
 192              		.loc 1 139 11 view .LVU29
 193 003c 1043     		orrs	r0, r0, r2	@, tmpreg1, tmp136, tmpreg1
ARM GAS  C:\Users\skey\AppData\Local\Temp\ccKAsNbo.s 			page 7


 194              	.LVL7:
 140:.\stlib\STM32F10x_StdPeriph_Driver\src/stm32f10x_dac.c ****   /* Write to DAC CR */
 141:.\stlib\STM32F10x_StdPeriph_Driver\src/stm32f10x_dac.c ****   DAC->CR = tmpreg1;
 195              		.loc 1 141 3 is_stmt 1 view .LVU30
 196              	@ .\stlib\STM32F10x_StdPeriph_Driver\src\stm32f10x_dac.c:141:   DAC->CR = tmpreg1;
 197              		.loc 1 141 11 is_stmt 0 view .LVU31
 198 003e 2060     		str	r0, [r4]	@ tmpreg1, MEM[(struct DAC_TypeDef *)1073771520B].CR
 199              	.LVL8:
 200              	@ .\stlib\STM32F10x_StdPeriph_Driver\src\stm32f10x_dac.c:142: }
 142:.\stlib\STM32F10x_StdPeriph_Driver\src/stm32f10x_dac.c **** }
 201              		.loc 1 142 1 view .LVU32
 202 0040 30BD     		pop	{r4, r5, pc}	@
 203              	.L4:
 204 0042 00BF     		.align	2
 205              	.L3:
 206 0044 00740040 		.word	1073771520
 207              		.cfi_endproc
 208              	.LFE30:
 209              		.size	DAC_Init, .-DAC_Init
 210              		.align	1
 211              		.global	DAC_StructInit
 212              		.syntax unified
 213              		.thumb
 214              		.thumb_func
 215              		.fpu softvfp
 216              		.type	DAC_StructInit, %function
 217              	DAC_StructInit:
 218              	.LVL9:
 219              	.LFB31:
 143:.\stlib\STM32F10x_StdPeriph_Driver\src/stm32f10x_dac.c **** 
 144:.\stlib\STM32F10x_StdPeriph_Driver\src/stm32f10x_dac.c **** /**
 145:.\stlib\STM32F10x_StdPeriph_Driver\src/stm32f10x_dac.c ****   * @brief  Fills each DAC_InitStruct member with its default value.
 146:.\stlib\STM32F10x_StdPeriph_Driver\src/stm32f10x_dac.c ****   * @param  DAC_InitStruct : pointer to a DAC_InitTypeDef structure which will
 147:.\stlib\STM32F10x_StdPeriph_Driver\src/stm32f10x_dac.c ****   *         be initialized.
 148:.\stlib\STM32F10x_StdPeriph_Driver\src/stm32f10x_dac.c ****   * @retval None
 149:.\stlib\STM32F10x_StdPeriph_Driver\src/stm32f10x_dac.c ****   */
 150:.\stlib\STM32F10x_StdPeriph_Driver\src/stm32f10x_dac.c **** void DAC_StructInit(DAC_InitTypeDef* DAC_InitStruct)
 151:.\stlib\STM32F10x_StdPeriph_Driver\src/stm32f10x_dac.c **** {
 220              		.loc 1 151 1 is_stmt 1 view -0
 221              		.cfi_startproc
 222              		@ args = 0, pretend = 0, frame = 0
 223              		@ frame_needed = 0, uses_anonymous_args = 0
 224              		@ link register save eliminated.
 152:.\stlib\STM32F10x_StdPeriph_Driver\src/stm32f10x_dac.c **** /*--------------- Reset DAC init structure parameters values -----------------*/
 153:.\stlib\STM32F10x_StdPeriph_Driver\src/stm32f10x_dac.c ****   /* Initialize the DAC_Trigger member */
 154:.\stlib\STM32F10x_StdPeriph_Driver\src/stm32f10x_dac.c ****   DAC_InitStruct->DAC_Trigger = DAC_Trigger_None;
 225              		.loc 1 154 3 view .LVU34
 226              	@ .\stlib\STM32F10x_StdPeriph_Driver\src\stm32f10x_dac.c:154:   DAC_InitStruct->DAC_Trigger = DAC_T
 227              		.loc 1 154 31 is_stmt 0 view .LVU35
 228 0048 0023     		movs	r3, #0	@ tmp111,
 229              	@ .\stlib\STM32F10x_StdPeriph_Driver\src\stm32f10x_dac.c:156:   DAC_InitStruct->DAC_WaveGeneration 
 155:.\stlib\STM32F10x_StdPeriph_Driver\src/stm32f10x_dac.c ****   /* Initialize the DAC_WaveGeneration member */
 156:.\stlib\STM32F10x_StdPeriph_Driver\src/stm32f10x_dac.c ****   DAC_InitStruct->DAC_WaveGeneration = DAC_WaveGeneration_None;
 230              		.loc 1 156 38 view .LVU36
 231 004a C0E90033 		strd	r3, r3, [r0]	@ tmp111, tmp111, DAC_InitStruct
 157:.\stlib\STM32F10x_StdPeriph_Driver\src/stm32f10x_dac.c ****   /* Initialize the DAC_LFSRUnmask_TriangleAmplitude member */
 158:.\stlib\STM32F10x_StdPeriph_Driver\src/stm32f10x_dac.c ****   DAC_InitStruct->DAC_LFSRUnmask_TriangleAmplitude = DAC_LFSRUnmask_Bit0;
ARM GAS  C:\Users\skey\AppData\Local\Temp\ccKAsNbo.s 			page 8


 232              		.loc 1 158 3 is_stmt 1 view .LVU37
 233              	@ .\stlib\STM32F10x_StdPeriph_Driver\src\stm32f10x_dac.c:160:   DAC_InitStruct->DAC_OutputBuffer = 
 159:.\stlib\STM32F10x_StdPeriph_Driver\src/stm32f10x_dac.c ****   /* Initialize the DAC_OutputBuffer member */
 160:.\stlib\STM32F10x_StdPeriph_Driver\src/stm32f10x_dac.c ****   DAC_InitStruct->DAC_OutputBuffer = DAC_OutputBuffer_Enable;
 234              		.loc 1 160 36 is_stmt 0 view .LVU38
 235 004e C0E90233 		strd	r3, r3, [r0, #8]	@ tmp111, tmp111, DAC_InitStruct,
 236              	@ .\stlib\STM32F10x_StdPeriph_Driver\src\stm32f10x_dac.c:161: }
 161:.\stlib\STM32F10x_StdPeriph_Driver\src/stm32f10x_dac.c **** }
 237              		.loc 1 161 1 view .LVU39
 238 0052 7047     		bx	lr	@
 239              		.cfi_endproc
 240              	.LFE31:
 241              		.size	DAC_StructInit, .-DAC_StructInit
 242              		.align	1
 243              		.global	DAC_Cmd
 244              		.syntax unified
 245              		.thumb
 246              		.thumb_func
 247              		.fpu softvfp
 248              		.type	DAC_Cmd, %function
 249              	DAC_Cmd:
 250              	.LVL10:
 251              	.LFB32:
 162:.\stlib\STM32F10x_StdPeriph_Driver\src/stm32f10x_dac.c **** 
 163:.\stlib\STM32F10x_StdPeriph_Driver\src/stm32f10x_dac.c **** /**
 164:.\stlib\STM32F10x_StdPeriph_Driver\src/stm32f10x_dac.c ****   * @brief  Enables or disables the specified DAC channel.
 165:.\stlib\STM32F10x_StdPeriph_Driver\src/stm32f10x_dac.c ****   * @param  DAC_Channel: the selected DAC channel. 
 166:.\stlib\STM32F10x_StdPeriph_Driver\src/stm32f10x_dac.c ****   *   This parameter can be one of the following values:
 167:.\stlib\STM32F10x_StdPeriph_Driver\src/stm32f10x_dac.c ****   *     @arg DAC_Channel_1: DAC Channel1 selected
 168:.\stlib\STM32F10x_StdPeriph_Driver\src/stm32f10x_dac.c ****   *     @arg DAC_Channel_2: DAC Channel2 selected
 169:.\stlib\STM32F10x_StdPeriph_Driver\src/stm32f10x_dac.c ****   * @param  NewState: new state of the DAC channel. 
 170:.\stlib\STM32F10x_StdPeriph_Driver\src/stm32f10x_dac.c ****   *   This parameter can be: ENABLE or DISABLE.
 171:.\stlib\STM32F10x_StdPeriph_Driver\src/stm32f10x_dac.c ****   * @retval None
 172:.\stlib\STM32F10x_StdPeriph_Driver\src/stm32f10x_dac.c ****   */
 173:.\stlib\STM32F10x_StdPeriph_Driver\src/stm32f10x_dac.c **** void DAC_Cmd(uint32_t DAC_Channel, FunctionalState NewState)
 174:.\stlib\STM32F10x_StdPeriph_Driver\src/stm32f10x_dac.c **** {
 252              		.loc 1 174 1 is_stmt 1 view -0
 253              		.cfi_startproc
 254              		@ args = 0, pretend = 0, frame = 0
 255              		@ frame_needed = 0, uses_anonymous_args = 0
 256              		@ link register save eliminated.
 175:.\stlib\STM32F10x_StdPeriph_Driver\src/stm32f10x_dac.c ****   /* Check the parameters */
 176:.\stlib\STM32F10x_StdPeriph_Driver\src/stm32f10x_dac.c ****   assert_param(IS_DAC_CHANNEL(DAC_Channel));
 257              		.loc 1 176 3 view .LVU41
 177:.\stlib\STM32F10x_StdPeriph_Driver\src/stm32f10x_dac.c ****   assert_param(IS_FUNCTIONAL_STATE(NewState));
 258              		.loc 1 177 3 view .LVU42
 178:.\stlib\STM32F10x_StdPeriph_Driver\src/stm32f10x_dac.c ****   if (NewState != DISABLE)
 259              		.loc 1 178 3 view .LVU43
 260 0054 0123     		movs	r3, #1	@ tmp118,
 261 0056 03FA00F0 		lsl	r0, r3, r0	@ _14, tmp118, tmp125
 262              	.LVL11:
 263              		.loc 1 178 3 is_stmt 0 view .LVU44
 264 005a 044B     		ldr	r3, .L10	@ tmp124,
 265              	@ .\stlib\STM32F10x_StdPeriph_Driver\src\stm32f10x_dac.c:181:     DAC->CR |= (DAC_CR_EN1 << DAC_Cha
 179:.\stlib\STM32F10x_StdPeriph_Driver\src/stm32f10x_dac.c ****   {
 180:.\stlib\STM32F10x_StdPeriph_Driver\src/stm32f10x_dac.c ****     /* Enable the selected DAC channel */
 181:.\stlib\STM32F10x_StdPeriph_Driver\src/stm32f10x_dac.c ****     DAC->CR |= (DAC_CR_EN1 << DAC_Channel);
ARM GAS  C:\Users\skey\AppData\Local\Temp\ccKAsNbo.s 			page 9


 266              		.loc 1 181 13 view .LVU45
 267 005c 1A68     		ldr	r2, [r3]	@ _1,
 268              	@ .\stlib\STM32F10x_StdPeriph_Driver\src\stm32f10x_dac.c:178:   if (NewState != DISABLE)
 178:.\stlib\STM32F10x_StdPeriph_Driver\src/stm32f10x_dac.c ****   if (NewState != DISABLE)
 269              		.loc 1 178 6 view .LVU46
 270 005e 11B1     		cbz	r1, .L7	@ tmp126,
 271              		.loc 1 181 5 is_stmt 1 view .LVU47
 272              	@ .\stlib\STM32F10x_StdPeriph_Driver\src\stm32f10x_dac.c:181:     DAC->CR |= (DAC_CR_EN1 << DAC_Cha
 273              		.loc 1 181 13 is_stmt 0 view .LVU48
 274 0060 1043     		orrs	r0, r0, r2	@, _3, _14, _1
 275              	.L9:
 276              	@ .\stlib\STM32F10x_StdPeriph_Driver\src\stm32f10x_dac.c:186:     DAC->CR &= ~(DAC_CR_EN1 << DAC_Ch
 182:.\stlib\STM32F10x_StdPeriph_Driver\src/stm32f10x_dac.c ****   }
 183:.\stlib\STM32F10x_StdPeriph_Driver\src/stm32f10x_dac.c ****   else
 184:.\stlib\STM32F10x_StdPeriph_Driver\src/stm32f10x_dac.c ****   {
 185:.\stlib\STM32F10x_StdPeriph_Driver\src/stm32f10x_dac.c ****     /* Disable the selected DAC channel */
 186:.\stlib\STM32F10x_StdPeriph_Driver\src/stm32f10x_dac.c ****     DAC->CR &= ~(DAC_CR_EN1 << DAC_Channel);
 277              		.loc 1 186 13 view .LVU49
 278 0062 1860     		str	r0, [r3]	@ _7,
 279              	@ .\stlib\STM32F10x_StdPeriph_Driver\src\stm32f10x_dac.c:188: }
 187:.\stlib\STM32F10x_StdPeriph_Driver\src/stm32f10x_dac.c ****   }
 188:.\stlib\STM32F10x_StdPeriph_Driver\src/stm32f10x_dac.c **** }
 280              		.loc 1 188 1 view .LVU50
 281 0064 7047     		bx	lr	@
 282              	.L7:
 186:.\stlib\STM32F10x_StdPeriph_Driver\src/stm32f10x_dac.c ****   }
 283              		.loc 1 186 5 is_stmt 1 view .LVU51
 284              	@ .\stlib\STM32F10x_StdPeriph_Driver\src\stm32f10x_dac.c:186:     DAC->CR &= ~(DAC_CR_EN1 << DAC_Ch
 186:.\stlib\STM32F10x_StdPeriph_Driver\src/stm32f10x_dac.c ****   }
 285              		.loc 1 186 13 is_stmt 0 view .LVU52
 286 0066 22EA0000 		bic	r0, r2, r0	@ _7, _4, _14
 287 006a FAE7     		b	.L9		@
 288              	.L11:
 289              		.align	2
 290              	.L10:
 291 006c 00740040 		.word	1073771520
 292              		.cfi_endproc
 293              	.LFE32:
 294              		.size	DAC_Cmd, .-DAC_Cmd
 295              		.align	1
 296              		.global	DAC_DMACmd
 297              		.syntax unified
 298              		.thumb
 299              		.thumb_func
 300              		.fpu softvfp
 301              		.type	DAC_DMACmd, %function
 302              	DAC_DMACmd:
 303              	.LVL12:
 304              	.LFB33:
 189:.\stlib\STM32F10x_StdPeriph_Driver\src/stm32f10x_dac.c **** #if defined (STM32F10X_LD_VL) || defined (STM32F10X_MD_VL) || defined (STM32F10X_HD_VL)
 190:.\stlib\STM32F10x_StdPeriph_Driver\src/stm32f10x_dac.c **** /**
 191:.\stlib\STM32F10x_StdPeriph_Driver\src/stm32f10x_dac.c ****   * @brief  Enables or disables the specified DAC interrupts.
 192:.\stlib\STM32F10x_StdPeriph_Driver\src/stm32f10x_dac.c ****   * @param  DAC_Channel: the selected DAC channel. 
 193:.\stlib\STM32F10x_StdPeriph_Driver\src/stm32f10x_dac.c ****   *   This parameter can be one of the following values:
 194:.\stlib\STM32F10x_StdPeriph_Driver\src/stm32f10x_dac.c ****   *     @arg DAC_Channel_1: DAC Channel1 selected
 195:.\stlib\STM32F10x_StdPeriph_Driver\src/stm32f10x_dac.c ****   *     @arg DAC_Channel_2: DAC Channel2 selected
 196:.\stlib\STM32F10x_StdPeriph_Driver\src/stm32f10x_dac.c ****   * @param  DAC_IT: specifies the DAC interrupt sources to be enabled or disabled. 
ARM GAS  C:\Users\skey\AppData\Local\Temp\ccKAsNbo.s 			page 10


 197:.\stlib\STM32F10x_StdPeriph_Driver\src/stm32f10x_dac.c ****   *   This parameter can be the following values:
 198:.\stlib\STM32F10x_StdPeriph_Driver\src/stm32f10x_dac.c ****   *     @arg DAC_IT_DMAUDR: DMA underrun interrupt mask                      
 199:.\stlib\STM32F10x_StdPeriph_Driver\src/stm32f10x_dac.c ****   * @param  NewState: new state of the specified DAC interrupts.
 200:.\stlib\STM32F10x_StdPeriph_Driver\src/stm32f10x_dac.c ****   *   This parameter can be: ENABLE or DISABLE.
 201:.\stlib\STM32F10x_StdPeriph_Driver\src/stm32f10x_dac.c ****   * @retval None
 202:.\stlib\STM32F10x_StdPeriph_Driver\src/stm32f10x_dac.c ****   */ 
 203:.\stlib\STM32F10x_StdPeriph_Driver\src/stm32f10x_dac.c **** void DAC_ITConfig(uint32_t DAC_Channel, uint32_t DAC_IT, FunctionalState NewState)  
 204:.\stlib\STM32F10x_StdPeriph_Driver\src/stm32f10x_dac.c **** {
 205:.\stlib\STM32F10x_StdPeriph_Driver\src/stm32f10x_dac.c ****   /* Check the parameters */
 206:.\stlib\STM32F10x_StdPeriph_Driver\src/stm32f10x_dac.c ****   assert_param(IS_DAC_CHANNEL(DAC_Channel));
 207:.\stlib\STM32F10x_StdPeriph_Driver\src/stm32f10x_dac.c ****   assert_param(IS_FUNCTIONAL_STATE(NewState));
 208:.\stlib\STM32F10x_StdPeriph_Driver\src/stm32f10x_dac.c ****   assert_param(IS_DAC_IT(DAC_IT)); 
 209:.\stlib\STM32F10x_StdPeriph_Driver\src/stm32f10x_dac.c **** 
 210:.\stlib\STM32F10x_StdPeriph_Driver\src/stm32f10x_dac.c ****   if (NewState != DISABLE)
 211:.\stlib\STM32F10x_StdPeriph_Driver\src/stm32f10x_dac.c ****   {
 212:.\stlib\STM32F10x_StdPeriph_Driver\src/stm32f10x_dac.c ****     /* Enable the selected DAC interrupts */
 213:.\stlib\STM32F10x_StdPeriph_Driver\src/stm32f10x_dac.c ****     DAC->CR |=  (DAC_IT << DAC_Channel);
 214:.\stlib\STM32F10x_StdPeriph_Driver\src/stm32f10x_dac.c ****   }
 215:.\stlib\STM32F10x_StdPeriph_Driver\src/stm32f10x_dac.c ****   else
 216:.\stlib\STM32F10x_StdPeriph_Driver\src/stm32f10x_dac.c ****   {
 217:.\stlib\STM32F10x_StdPeriph_Driver\src/stm32f10x_dac.c ****     /* Disable the selected DAC interrupts */
 218:.\stlib\STM32F10x_StdPeriph_Driver\src/stm32f10x_dac.c ****     DAC->CR &= (~(uint32_t)(DAC_IT << DAC_Channel));
 219:.\stlib\STM32F10x_StdPeriph_Driver\src/stm32f10x_dac.c ****   }
 220:.\stlib\STM32F10x_StdPeriph_Driver\src/stm32f10x_dac.c **** }
 221:.\stlib\STM32F10x_StdPeriph_Driver\src/stm32f10x_dac.c **** #endif
 222:.\stlib\STM32F10x_StdPeriph_Driver\src/stm32f10x_dac.c **** 
 223:.\stlib\STM32F10x_StdPeriph_Driver\src/stm32f10x_dac.c **** /**
 224:.\stlib\STM32F10x_StdPeriph_Driver\src/stm32f10x_dac.c ****   * @brief  Enables or disables the specified DAC channel DMA request.
 225:.\stlib\STM32F10x_StdPeriph_Driver\src/stm32f10x_dac.c ****   * @param  DAC_Channel: the selected DAC channel. 
 226:.\stlib\STM32F10x_StdPeriph_Driver\src/stm32f10x_dac.c ****   *   This parameter can be one of the following values:
 227:.\stlib\STM32F10x_StdPeriph_Driver\src/stm32f10x_dac.c ****   *     @arg DAC_Channel_1: DAC Channel1 selected
 228:.\stlib\STM32F10x_StdPeriph_Driver\src/stm32f10x_dac.c ****   *     @arg DAC_Channel_2: DAC Channel2 selected
 229:.\stlib\STM32F10x_StdPeriph_Driver\src/stm32f10x_dac.c ****   * @param  NewState: new state of the selected DAC channel DMA request.
 230:.\stlib\STM32F10x_StdPeriph_Driver\src/stm32f10x_dac.c ****   *   This parameter can be: ENABLE or DISABLE.
 231:.\stlib\STM32F10x_StdPeriph_Driver\src/stm32f10x_dac.c ****   * @retval None
 232:.\stlib\STM32F10x_StdPeriph_Driver\src/stm32f10x_dac.c ****   */
 233:.\stlib\STM32F10x_StdPeriph_Driver\src/stm32f10x_dac.c **** void DAC_DMACmd(uint32_t DAC_Channel, FunctionalState NewState)
 234:.\stlib\STM32F10x_StdPeriph_Driver\src/stm32f10x_dac.c **** {
 305              		.loc 1 234 1 is_stmt 1 view -0
 306              		.cfi_startproc
 307              		@ args = 0, pretend = 0, frame = 0
 308              		@ frame_needed = 0, uses_anonymous_args = 0
 309              		@ link register save eliminated.
 235:.\stlib\STM32F10x_StdPeriph_Driver\src/stm32f10x_dac.c ****   /* Check the parameters */
 236:.\stlib\STM32F10x_StdPeriph_Driver\src/stm32f10x_dac.c ****   assert_param(IS_DAC_CHANNEL(DAC_Channel));
 310              		.loc 1 236 3 view .LVU54
 237:.\stlib\STM32F10x_StdPeriph_Driver\src/stm32f10x_dac.c ****   assert_param(IS_FUNCTIONAL_STATE(NewState));
 311              		.loc 1 237 3 view .LVU55
 238:.\stlib\STM32F10x_StdPeriph_Driver\src/stm32f10x_dac.c ****   if (NewState != DISABLE)
 312              		.loc 1 238 3 view .LVU56
 313 0070 4FF48053 		mov	r3, #4096	@ tmp118,
 314 0074 03FA00F0 		lsl	r0, r3, r0	@ _14, tmp118, tmp125
 315              	.LVL13:
 316              		.loc 1 238 3 is_stmt 0 view .LVU57
 317 0078 044B     		ldr	r3, .L16	@ tmp124,
 318              	@ .\stlib\STM32F10x_StdPeriph_Driver\src\stm32f10x_dac.c:241:     DAC->CR |= (DAC_CR_DMAEN1 << DAC_
 239:.\stlib\STM32F10x_StdPeriph_Driver\src/stm32f10x_dac.c ****   {
ARM GAS  C:\Users\skey\AppData\Local\Temp\ccKAsNbo.s 			page 11


 240:.\stlib\STM32F10x_StdPeriph_Driver\src/stm32f10x_dac.c ****     /* Enable the selected DAC channel DMA request */
 241:.\stlib\STM32F10x_StdPeriph_Driver\src/stm32f10x_dac.c ****     DAC->CR |= (DAC_CR_DMAEN1 << DAC_Channel);
 319              		.loc 1 241 13 view .LVU58
 320 007a 1A68     		ldr	r2, [r3]	@ _1,
 321              	@ .\stlib\STM32F10x_StdPeriph_Driver\src\stm32f10x_dac.c:238:   if (NewState != DISABLE)
 238:.\stlib\STM32F10x_StdPeriph_Driver\src/stm32f10x_dac.c ****   if (NewState != DISABLE)
 322              		.loc 1 238 6 view .LVU59
 323 007c 11B1     		cbz	r1, .L13	@ tmp126,
 324              		.loc 1 241 5 is_stmt 1 view .LVU60
 325              	@ .\stlib\STM32F10x_StdPeriph_Driver\src\stm32f10x_dac.c:241:     DAC->CR |= (DAC_CR_DMAEN1 << DAC_
 326              		.loc 1 241 13 is_stmt 0 view .LVU61
 327 007e 1043     		orrs	r0, r0, r2	@, _3, _14, _1
 328              	.L15:
 329              	@ .\stlib\STM32F10x_StdPeriph_Driver\src\stm32f10x_dac.c:246:     DAC->CR &= ~(DAC_CR_DMAEN1 << DAC
 242:.\stlib\STM32F10x_StdPeriph_Driver\src/stm32f10x_dac.c ****   }
 243:.\stlib\STM32F10x_StdPeriph_Driver\src/stm32f10x_dac.c ****   else
 244:.\stlib\STM32F10x_StdPeriph_Driver\src/stm32f10x_dac.c ****   {
 245:.\stlib\STM32F10x_StdPeriph_Driver\src/stm32f10x_dac.c ****     /* Disable the selected DAC channel DMA request */
 246:.\stlib\STM32F10x_StdPeriph_Driver\src/stm32f10x_dac.c ****     DAC->CR &= ~(DAC_CR_DMAEN1 << DAC_Channel);
 330              		.loc 1 246 13 view .LVU62
 331 0080 1860     		str	r0, [r3]	@ _7,
 332              	@ .\stlib\STM32F10x_StdPeriph_Driver\src\stm32f10x_dac.c:248: }
 247:.\stlib\STM32F10x_StdPeriph_Driver\src/stm32f10x_dac.c ****   }
 248:.\stlib\STM32F10x_StdPeriph_Driver\src/stm32f10x_dac.c **** }
 333              		.loc 1 248 1 view .LVU63
 334 0082 7047     		bx	lr	@
 335              	.L13:
 246:.\stlib\STM32F10x_StdPeriph_Driver\src/stm32f10x_dac.c ****   }
 336              		.loc 1 246 5 is_stmt 1 view .LVU64
 337              	@ .\stlib\STM32F10x_StdPeriph_Driver\src\stm32f10x_dac.c:246:     DAC->CR &= ~(DAC_CR_DMAEN1 << DAC
 246:.\stlib\STM32F10x_StdPeriph_Driver\src/stm32f10x_dac.c ****   }
 338              		.loc 1 246 13 is_stmt 0 view .LVU65
 339 0084 22EA0000 		bic	r0, r2, r0	@ _7, _4, _14
 340 0088 FAE7     		b	.L15		@
 341              	.L17:
 342 008a 00BF     		.align	2
 343              	.L16:
 344 008c 00740040 		.word	1073771520
 345              		.cfi_endproc
 346              	.LFE33:
 347              		.size	DAC_DMACmd, .-DAC_DMACmd
 348              		.align	1
 349              		.global	DAC_SoftwareTriggerCmd
 350              		.syntax unified
 351              		.thumb
 352              		.thumb_func
 353              		.fpu softvfp
 354              		.type	DAC_SoftwareTriggerCmd, %function
 355              	DAC_SoftwareTriggerCmd:
 356              	.LVL14:
 357              	.LFB34:
 249:.\stlib\STM32F10x_StdPeriph_Driver\src/stm32f10x_dac.c **** 
 250:.\stlib\STM32F10x_StdPeriph_Driver\src/stm32f10x_dac.c **** /**
 251:.\stlib\STM32F10x_StdPeriph_Driver\src/stm32f10x_dac.c ****   * @brief  Enables or disables the selected DAC channel software trigger.
 252:.\stlib\STM32F10x_StdPeriph_Driver\src/stm32f10x_dac.c ****   * @param  DAC_Channel: the selected DAC channel. 
 253:.\stlib\STM32F10x_StdPeriph_Driver\src/stm32f10x_dac.c ****   *   This parameter can be one of the following values:
 254:.\stlib\STM32F10x_StdPeriph_Driver\src/stm32f10x_dac.c ****   *     @arg DAC_Channel_1: DAC Channel1 selected
ARM GAS  C:\Users\skey\AppData\Local\Temp\ccKAsNbo.s 			page 12


 255:.\stlib\STM32F10x_StdPeriph_Driver\src/stm32f10x_dac.c ****   *     @arg DAC_Channel_2: DAC Channel2 selected
 256:.\stlib\STM32F10x_StdPeriph_Driver\src/stm32f10x_dac.c ****   * @param  NewState: new state of the selected DAC channel software trigger.
 257:.\stlib\STM32F10x_StdPeriph_Driver\src/stm32f10x_dac.c ****   *   This parameter can be: ENABLE or DISABLE.
 258:.\stlib\STM32F10x_StdPeriph_Driver\src/stm32f10x_dac.c ****   * @retval None
 259:.\stlib\STM32F10x_StdPeriph_Driver\src/stm32f10x_dac.c ****   */
 260:.\stlib\STM32F10x_StdPeriph_Driver\src/stm32f10x_dac.c **** void DAC_SoftwareTriggerCmd(uint32_t DAC_Channel, FunctionalState NewState)
 261:.\stlib\STM32F10x_StdPeriph_Driver\src/stm32f10x_dac.c **** {
 358              		.loc 1 261 1 is_stmt 1 view -0
 359              		.cfi_startproc
 360              		@ args = 0, pretend = 0, frame = 0
 361              		@ frame_needed = 0, uses_anonymous_args = 0
 362              		@ link register save eliminated.
 262:.\stlib\STM32F10x_StdPeriph_Driver\src/stm32f10x_dac.c ****   /* Check the parameters */
 263:.\stlib\STM32F10x_StdPeriph_Driver\src/stm32f10x_dac.c ****   assert_param(IS_DAC_CHANNEL(DAC_Channel));
 363              		.loc 1 263 3 view .LVU67
 264:.\stlib\STM32F10x_StdPeriph_Driver\src/stm32f10x_dac.c ****   assert_param(IS_FUNCTIONAL_STATE(NewState));
 364              		.loc 1 264 3 view .LVU68
 265:.\stlib\STM32F10x_StdPeriph_Driver\src/stm32f10x_dac.c ****   if (NewState != DISABLE)
 365              		.loc 1 265 3 view .LVU69
 366 0090 0309     		lsrs	r3, r0, #4	@ tmp119, tmp127,
 367 0092 0120     		movs	r0, #1	@ tmp120,
 368              	.LVL15:
 369              		.loc 1 265 3 is_stmt 0 view .LVU70
 370 0094 9840     		lsls	r0, r0, r3	@ _17, tmp120, tmp119
 371 0096 044B     		ldr	r3, .L22	@ tmp126,
 372              	@ .\stlib\STM32F10x_StdPeriph_Driver\src\stm32f10x_dac.c:268:     DAC->SWTRIGR |= (uint32_t)DAC_SWT
 266:.\stlib\STM32F10x_StdPeriph_Driver\src/stm32f10x_dac.c ****   {
 267:.\stlib\STM32F10x_StdPeriph_Driver\src/stm32f10x_dac.c ****     /* Enable software trigger for the selected DAC channel */
 268:.\stlib\STM32F10x_StdPeriph_Driver\src/stm32f10x_dac.c ****     DAC->SWTRIGR |= (uint32_t)DAC_SWTRIGR_SWTRIG1 << (DAC_Channel >> 4);
 373              		.loc 1 268 18 view .LVU71
 374 0098 5A68     		ldr	r2, [r3, #4]	@ _1,
 375              	@ .\stlib\STM32F10x_StdPeriph_Driver\src\stm32f10x_dac.c:265:   if (NewState != DISABLE)
 265:.\stlib\STM32F10x_StdPeriph_Driver\src/stm32f10x_dac.c ****   if (NewState != DISABLE)
 376              		.loc 1 265 6 view .LVU72
 377 009a 11B1     		cbz	r1, .L19	@ tmp128,
 378              		.loc 1 268 5 is_stmt 1 view .LVU73
 379              	@ .\stlib\STM32F10x_StdPeriph_Driver\src\stm32f10x_dac.c:268:     DAC->SWTRIGR |= (uint32_t)DAC_SWT
 380              		.loc 1 268 18 is_stmt 0 view .LVU74
 381 009c 1043     		orrs	r0, r0, r2	@, _4, _17, _1
 382              	.L21:
 383              	@ .\stlib\STM32F10x_StdPeriph_Driver\src\stm32f10x_dac.c:273:     DAC->SWTRIGR &= ~((uint32_t)DAC_S
 269:.\stlib\STM32F10x_StdPeriph_Driver\src/stm32f10x_dac.c ****   }
 270:.\stlib\STM32F10x_StdPeriph_Driver\src/stm32f10x_dac.c ****   else
 271:.\stlib\STM32F10x_StdPeriph_Driver\src/stm32f10x_dac.c ****   {
 272:.\stlib\STM32F10x_StdPeriph_Driver\src/stm32f10x_dac.c ****     /* Disable software trigger for the selected DAC channel */
 273:.\stlib\STM32F10x_StdPeriph_Driver\src/stm32f10x_dac.c ****     DAC->SWTRIGR &= ~((uint32_t)DAC_SWTRIGR_SWTRIG1 << (DAC_Channel >> 4));
 384              		.loc 1 273 18 view .LVU75
 385 009e 5860     		str	r0, [r3, #4]	@ _9,
 386              	@ .\stlib\STM32F10x_StdPeriph_Driver\src\stm32f10x_dac.c:275: }
 274:.\stlib\STM32F10x_StdPeriph_Driver\src/stm32f10x_dac.c ****   }
 275:.\stlib\STM32F10x_StdPeriph_Driver\src/stm32f10x_dac.c **** }
 387              		.loc 1 275 1 view .LVU76
 388 00a0 7047     		bx	lr	@
 389              	.L19:
 273:.\stlib\STM32F10x_StdPeriph_Driver\src/stm32f10x_dac.c ****   }
 390              		.loc 1 273 5 is_stmt 1 view .LVU77
 391              	@ .\stlib\STM32F10x_StdPeriph_Driver\src\stm32f10x_dac.c:273:     DAC->SWTRIGR &= ~((uint32_t)DAC_S
ARM GAS  C:\Users\skey\AppData\Local\Temp\ccKAsNbo.s 			page 13


 273:.\stlib\STM32F10x_StdPeriph_Driver\src/stm32f10x_dac.c ****   }
 392              		.loc 1 273 18 is_stmt 0 view .LVU78
 393 00a2 22EA0000 		bic	r0, r2, r0	@ _9, _5, _17
 394 00a6 FAE7     		b	.L21		@
 395              	.L23:
 396              		.align	2
 397              	.L22:
 398 00a8 00740040 		.word	1073771520
 399              		.cfi_endproc
 400              	.LFE34:
 401              		.size	DAC_SoftwareTriggerCmd, .-DAC_SoftwareTriggerCmd
 402              		.align	1
 403              		.global	DAC_DualSoftwareTriggerCmd
 404              		.syntax unified
 405              		.thumb
 406              		.thumb_func
 407              		.fpu softvfp
 408              		.type	DAC_DualSoftwareTriggerCmd, %function
 409              	DAC_DualSoftwareTriggerCmd:
 410              	.LVL16:
 411              	.LFB35:
 276:.\stlib\STM32F10x_StdPeriph_Driver\src/stm32f10x_dac.c **** 
 277:.\stlib\STM32F10x_StdPeriph_Driver\src/stm32f10x_dac.c **** /**
 278:.\stlib\STM32F10x_StdPeriph_Driver\src/stm32f10x_dac.c ****   * @brief  Enables or disables simultaneously the two DAC channels software
 279:.\stlib\STM32F10x_StdPeriph_Driver\src/stm32f10x_dac.c ****   *   triggers.
 280:.\stlib\STM32F10x_StdPeriph_Driver\src/stm32f10x_dac.c ****   * @param  NewState: new state of the DAC channels software triggers.
 281:.\stlib\STM32F10x_StdPeriph_Driver\src/stm32f10x_dac.c ****   *   This parameter can be: ENABLE or DISABLE.
 282:.\stlib\STM32F10x_StdPeriph_Driver\src/stm32f10x_dac.c ****   * @retval None
 283:.\stlib\STM32F10x_StdPeriph_Driver\src/stm32f10x_dac.c ****   */
 284:.\stlib\STM32F10x_StdPeriph_Driver\src/stm32f10x_dac.c **** void DAC_DualSoftwareTriggerCmd(FunctionalState NewState)
 285:.\stlib\STM32F10x_StdPeriph_Driver\src/stm32f10x_dac.c **** {
 412              		.loc 1 285 1 is_stmt 1 view -0
 413              		.cfi_startproc
 414              		@ args = 0, pretend = 0, frame = 0
 415              		@ frame_needed = 0, uses_anonymous_args = 0
 416              		@ link register save eliminated.
 286:.\stlib\STM32F10x_StdPeriph_Driver\src/stm32f10x_dac.c ****   /* Check the parameters */
 287:.\stlib\STM32F10x_StdPeriph_Driver\src/stm32f10x_dac.c ****   assert_param(IS_FUNCTIONAL_STATE(NewState));
 417              		.loc 1 287 3 view .LVU80
 288:.\stlib\STM32F10x_StdPeriph_Driver\src/stm32f10x_dac.c ****   if (NewState != DISABLE)
 418              		.loc 1 288 3 view .LVU81
 419 00ac 044B     		ldr	r3, .L28	@ tmp119,
 420              	@ .\stlib\STM32F10x_StdPeriph_Driver\src\stm32f10x_dac.c:291:     DAC->SWTRIGR |= DUAL_SWTRIG_SET ;
 289:.\stlib\STM32F10x_StdPeriph_Driver\src/stm32f10x_dac.c ****   {
 290:.\stlib\STM32F10x_StdPeriph_Driver\src/stm32f10x_dac.c ****     /* Enable software trigger for both DAC channels */
 291:.\stlib\STM32F10x_StdPeriph_Driver\src/stm32f10x_dac.c ****     DAC->SWTRIGR |= DUAL_SWTRIG_SET ;
 421              		.loc 1 291 18 is_stmt 0 view .LVU82
 422 00ae 5A68     		ldr	r2, [r3, #4]	@ _1,
 423              	@ .\stlib\STM32F10x_StdPeriph_Driver\src\stm32f10x_dac.c:288:   if (NewState != DISABLE)
 288:.\stlib\STM32F10x_StdPeriph_Driver\src/stm32f10x_dac.c ****   if (NewState != DISABLE)
 424              		.loc 1 288 6 view .LVU83
 425 00b0 18B1     		cbz	r0, .L25	@ tmp120,
 426              		.loc 1 291 5 is_stmt 1 view .LVU84
 427              	@ .\stlib\STM32F10x_StdPeriph_Driver\src\stm32f10x_dac.c:291:     DAC->SWTRIGR |= DUAL_SWTRIG_SET ;
 428              		.loc 1 291 18 is_stmt 0 view .LVU85
 429 00b2 42F00302 		orr	r2, r2, #3	@ _2, _1,
 430              	.L27:
ARM GAS  C:\Users\skey\AppData\Local\Temp\ccKAsNbo.s 			page 14


 431              	@ .\stlib\STM32F10x_StdPeriph_Driver\src\stm32f10x_dac.c:296:     DAC->SWTRIGR &= DUAL_SWTRIG_RESET
 292:.\stlib\STM32F10x_StdPeriph_Driver\src/stm32f10x_dac.c ****   }
 293:.\stlib\STM32F10x_StdPeriph_Driver\src/stm32f10x_dac.c ****   else
 294:.\stlib\STM32F10x_StdPeriph_Driver\src/stm32f10x_dac.c ****   {
 295:.\stlib\STM32F10x_StdPeriph_Driver\src/stm32f10x_dac.c ****     /* Disable software trigger for both DAC channels */
 296:.\stlib\STM32F10x_StdPeriph_Driver\src/stm32f10x_dac.c ****     DAC->SWTRIGR &= DUAL_SWTRIG_RESET;
 432              		.loc 1 296 18 view .LVU86
 433 00b6 5A60     		str	r2, [r3, #4]	@ _4,
 434              	@ .\stlib\STM32F10x_StdPeriph_Driver\src\stm32f10x_dac.c:298: }
 297:.\stlib\STM32F10x_StdPeriph_Driver\src/stm32f10x_dac.c ****   }
 298:.\stlib\STM32F10x_StdPeriph_Driver\src/stm32f10x_dac.c **** }
 435              		.loc 1 298 1 view .LVU87
 436 00b8 7047     		bx	lr	@
 437              	.L25:
 296:.\stlib\STM32F10x_StdPeriph_Driver\src/stm32f10x_dac.c ****   }
 438              		.loc 1 296 5 is_stmt 1 view .LVU88
 439              	@ .\stlib\STM32F10x_StdPeriph_Driver\src\stm32f10x_dac.c:296:     DAC->SWTRIGR &= DUAL_SWTRIG_RESET
 296:.\stlib\STM32F10x_StdPeriph_Driver\src/stm32f10x_dac.c ****   }
 440              		.loc 1 296 18 is_stmt 0 view .LVU89
 441 00ba 22F00302 		bic	r2, r2, #3	@ _4, _3,
 442 00be FAE7     		b	.L27		@
 443              	.L29:
 444              		.align	2
 445              	.L28:
 446 00c0 00740040 		.word	1073771520
 447              		.cfi_endproc
 448              	.LFE35:
 449              		.size	DAC_DualSoftwareTriggerCmd, .-DAC_DualSoftwareTriggerCmd
 450              		.align	1
 451              		.global	DAC_WaveGenerationCmd
 452              		.syntax unified
 453              		.thumb
 454              		.thumb_func
 455              		.fpu softvfp
 456              		.type	DAC_WaveGenerationCmd, %function
 457              	DAC_WaveGenerationCmd:
 458              	.LVL17:
 459              	.LFB36:
 299:.\stlib\STM32F10x_StdPeriph_Driver\src/stm32f10x_dac.c **** 
 300:.\stlib\STM32F10x_StdPeriph_Driver\src/stm32f10x_dac.c **** /**
 301:.\stlib\STM32F10x_StdPeriph_Driver\src/stm32f10x_dac.c ****   * @brief  Enables or disables the selected DAC channel wave generation.
 302:.\stlib\STM32F10x_StdPeriph_Driver\src/stm32f10x_dac.c ****   * @param  DAC_Channel: the selected DAC channel. 
 303:.\stlib\STM32F10x_StdPeriph_Driver\src/stm32f10x_dac.c ****   *   This parameter can be one of the following values:
 304:.\stlib\STM32F10x_StdPeriph_Driver\src/stm32f10x_dac.c ****   *     @arg DAC_Channel_1: DAC Channel1 selected
 305:.\stlib\STM32F10x_StdPeriph_Driver\src/stm32f10x_dac.c ****   *     @arg DAC_Channel_2: DAC Channel2 selected
 306:.\stlib\STM32F10x_StdPeriph_Driver\src/stm32f10x_dac.c ****   * @param  DAC_Wave: Specifies the wave type to enable or disable.
 307:.\stlib\STM32F10x_StdPeriph_Driver\src/stm32f10x_dac.c ****   *   This parameter can be one of the following values:
 308:.\stlib\STM32F10x_StdPeriph_Driver\src/stm32f10x_dac.c ****   *     @arg DAC_Wave_Noise: noise wave generation
 309:.\stlib\STM32F10x_StdPeriph_Driver\src/stm32f10x_dac.c ****   *     @arg DAC_Wave_Triangle: triangle wave generation
 310:.\stlib\STM32F10x_StdPeriph_Driver\src/stm32f10x_dac.c ****   * @param  NewState: new state of the selected DAC channel wave generation.
 311:.\stlib\STM32F10x_StdPeriph_Driver\src/stm32f10x_dac.c ****   *   This parameter can be: ENABLE or DISABLE.
 312:.\stlib\STM32F10x_StdPeriph_Driver\src/stm32f10x_dac.c ****   * @retval None
 313:.\stlib\STM32F10x_StdPeriph_Driver\src/stm32f10x_dac.c ****   */
 314:.\stlib\STM32F10x_StdPeriph_Driver\src/stm32f10x_dac.c **** void DAC_WaveGenerationCmd(uint32_t DAC_Channel, uint32_t DAC_Wave, FunctionalState NewState)
 315:.\stlib\STM32F10x_StdPeriph_Driver\src/stm32f10x_dac.c **** {
 460              		.loc 1 315 1 is_stmt 1 view -0
 461              		.cfi_startproc
ARM GAS  C:\Users\skey\AppData\Local\Temp\ccKAsNbo.s 			page 15


 462              		@ args = 0, pretend = 0, frame = 0
 463              		@ frame_needed = 0, uses_anonymous_args = 0
 464              		@ link register save eliminated.
 316:.\stlib\STM32F10x_StdPeriph_Driver\src/stm32f10x_dac.c ****   /* Check the parameters */
 317:.\stlib\STM32F10x_StdPeriph_Driver\src/stm32f10x_dac.c ****   assert_param(IS_DAC_CHANNEL(DAC_Channel));
 465              		.loc 1 317 3 view .LVU91
 318:.\stlib\STM32F10x_StdPeriph_Driver\src/stm32f10x_dac.c ****   assert_param(IS_DAC_WAVE(DAC_Wave)); 
 466              		.loc 1 318 3 view .LVU92
 319:.\stlib\STM32F10x_StdPeriph_Driver\src/stm32f10x_dac.c ****   assert_param(IS_FUNCTIONAL_STATE(NewState));
 467              		.loc 1 319 3 view .LVU93
 320:.\stlib\STM32F10x_StdPeriph_Driver\src/stm32f10x_dac.c ****   if (NewState != DISABLE)
 468              		.loc 1 320 3 view .LVU94
 469 00c4 044B     		ldr	r3, .L34	@ tmp124,
 470 00c6 8140     		lsls	r1, r1, r0	@ _15, tmp126, tmp125
 471              	.LVL18:
 472              	@ .\stlib\STM32F10x_StdPeriph_Driver\src\stm32f10x_dac.c:323:     DAC->CR |= DAC_Wave << DAC_Channe
 321:.\stlib\STM32F10x_StdPeriph_Driver\src/stm32f10x_dac.c ****   {
 322:.\stlib\STM32F10x_StdPeriph_Driver\src/stm32f10x_dac.c ****     /* Enable the selected wave generation for the selected DAC channel */
 323:.\stlib\STM32F10x_StdPeriph_Driver\src/stm32f10x_dac.c ****     DAC->CR |= DAC_Wave << DAC_Channel;
 473              		.loc 1 323 13 is_stmt 0 view .LVU95
 474 00c8 1868     		ldr	r0, [r3]	@ _1,
 475              	.LVL19:
 476              	@ .\stlib\STM32F10x_StdPeriph_Driver\src\stm32f10x_dac.c:320:   if (NewState != DISABLE)
 320:.\stlib\STM32F10x_StdPeriph_Driver\src/stm32f10x_dac.c ****   if (NewState != DISABLE)
 477              		.loc 1 320 6 view .LVU96
 478 00ca 12B1     		cbz	r2, .L31	@ tmp127,
 479              		.loc 1 323 5 is_stmt 1 view .LVU97
 480              	@ .\stlib\STM32F10x_StdPeriph_Driver\src\stm32f10x_dac.c:323:     DAC->CR |= DAC_Wave << DAC_Channe
 481              		.loc 1 323 13 is_stmt 0 view .LVU98
 482 00cc 0143     		orrs	r1, r1, r0	@, _3, _15, _1
 483              	.L33:
 484              	@ .\stlib\STM32F10x_StdPeriph_Driver\src\stm32f10x_dac.c:328:     DAC->CR &= ~(DAC_Wave << DAC_Chan
 324:.\stlib\STM32F10x_StdPeriph_Driver\src/stm32f10x_dac.c ****   }
 325:.\stlib\STM32F10x_StdPeriph_Driver\src/stm32f10x_dac.c ****   else
 326:.\stlib\STM32F10x_StdPeriph_Driver\src/stm32f10x_dac.c ****   {
 327:.\stlib\STM32F10x_StdPeriph_Driver\src/stm32f10x_dac.c ****     /* Disable the selected wave generation for the selected DAC channel */
 328:.\stlib\STM32F10x_StdPeriph_Driver\src/stm32f10x_dac.c ****     DAC->CR &= ~(DAC_Wave << DAC_Channel);
 485              		.loc 1 328 13 view .LVU99
 486 00ce 1960     		str	r1, [r3]	@ _7,
 487              	@ .\stlib\STM32F10x_StdPeriph_Driver\src\stm32f10x_dac.c:330: }
 329:.\stlib\STM32F10x_StdPeriph_Driver\src/stm32f10x_dac.c ****   }
 330:.\stlib\STM32F10x_StdPeriph_Driver\src/stm32f10x_dac.c **** }
 488              		.loc 1 330 1 view .LVU100
 489 00d0 7047     		bx	lr	@
 490              	.L31:
 328:.\stlib\STM32F10x_StdPeriph_Driver\src/stm32f10x_dac.c ****   }
 491              		.loc 1 328 5 is_stmt 1 view .LVU101
 492              	@ .\stlib\STM32F10x_StdPeriph_Driver\src\stm32f10x_dac.c:328:     DAC->CR &= ~(DAC_Wave << DAC_Chan
 328:.\stlib\STM32F10x_StdPeriph_Driver\src/stm32f10x_dac.c ****   }
 493              		.loc 1 328 13 is_stmt 0 view .LVU102
 494 00d2 20EA0101 		bic	r1, r0, r1	@ _7, _4, _15
 495 00d6 FAE7     		b	.L33		@
 496              	.L35:
 497              		.align	2
 498              	.L34:
 499 00d8 00740040 		.word	1073771520
 500              		.cfi_endproc
ARM GAS  C:\Users\skey\AppData\Local\Temp\ccKAsNbo.s 			page 16


 501              	.LFE36:
 502              		.size	DAC_WaveGenerationCmd, .-DAC_WaveGenerationCmd
 503              		.align	1
 504              		.global	DAC_SetChannel1Data
 505              		.syntax unified
 506              		.thumb
 507              		.thumb_func
 508              		.fpu softvfp
 509              		.type	DAC_SetChannel1Data, %function
 510              	DAC_SetChannel1Data:
 511              	.LVL20:
 512              	.LFB37:
 331:.\stlib\STM32F10x_StdPeriph_Driver\src/stm32f10x_dac.c **** 
 332:.\stlib\STM32F10x_StdPeriph_Driver\src/stm32f10x_dac.c **** /**
 333:.\stlib\STM32F10x_StdPeriph_Driver\src/stm32f10x_dac.c ****   * @brief  Set the specified data holding register value for DAC channel1.
 334:.\stlib\STM32F10x_StdPeriph_Driver\src/stm32f10x_dac.c ****   * @param  DAC_Align: Specifies the data alignment for DAC channel1.
 335:.\stlib\STM32F10x_StdPeriph_Driver\src/stm32f10x_dac.c ****   *   This parameter can be one of the following values:
 336:.\stlib\STM32F10x_StdPeriph_Driver\src/stm32f10x_dac.c ****   *     @arg DAC_Align_8b_R: 8bit right data alignment selected
 337:.\stlib\STM32F10x_StdPeriph_Driver\src/stm32f10x_dac.c ****   *     @arg DAC_Align_12b_L: 12bit left data alignment selected
 338:.\stlib\STM32F10x_StdPeriph_Driver\src/stm32f10x_dac.c ****   *     @arg DAC_Align_12b_R: 12bit right data alignment selected
 339:.\stlib\STM32F10x_StdPeriph_Driver\src/stm32f10x_dac.c ****   * @param  Data : Data to be loaded in the selected data holding register.
 340:.\stlib\STM32F10x_StdPeriph_Driver\src/stm32f10x_dac.c ****   * @retval None
 341:.\stlib\STM32F10x_StdPeriph_Driver\src/stm32f10x_dac.c ****   */
 342:.\stlib\STM32F10x_StdPeriph_Driver\src/stm32f10x_dac.c **** void DAC_SetChannel1Data(uint32_t DAC_Align, uint16_t Data)
 343:.\stlib\STM32F10x_StdPeriph_Driver\src/stm32f10x_dac.c **** {  
 513              		.loc 1 343 1 is_stmt 1 view -0
 514              		.cfi_startproc
 515              		@ args = 0, pretend = 0, frame = 8
 516              		@ frame_needed = 0, uses_anonymous_args = 0
 517              		@ link register save eliminated.
 344:.\stlib\STM32F10x_StdPeriph_Driver\src/stm32f10x_dac.c ****   __IO uint32_t tmp = 0;
 518              		.loc 1 344 3 view .LVU104
 519              	@ .\stlib\STM32F10x_StdPeriph_Driver\src\stm32f10x_dac.c:344:   __IO uint32_t tmp = 0;
 520              		.loc 1 344 17 is_stmt 0 view .LVU105
 521 00dc 0023     		movs	r3, #0	@ tmp118,
 522              	@ .\stlib\STM32F10x_StdPeriph_Driver\src\stm32f10x_dac.c:343: {  
 343:.\stlib\STM32F10x_StdPeriph_Driver\src/stm32f10x_dac.c ****   __IO uint32_t tmp = 0;
 523              		.loc 1 343 1 view .LVU106
 524 00de 82B0     		sub	sp, sp, #8	@,,
 525              	.LCFI3:
 526              		.cfi_def_cfa_offset 8
 527              	@ .\stlib\STM32F10x_StdPeriph_Driver\src\stm32f10x_dac.c:344:   __IO uint32_t tmp = 0;
 528              		.loc 1 344 17 view .LVU107
 529 00e0 0193     		str	r3, [sp, #4]	@ tmp118, tmp
 345:.\stlib\STM32F10x_StdPeriph_Driver\src/stm32f10x_dac.c ****   
 346:.\stlib\STM32F10x_StdPeriph_Driver\src/stm32f10x_dac.c ****   /* Check the parameters */
 347:.\stlib\STM32F10x_StdPeriph_Driver\src/stm32f10x_dac.c ****   assert_param(IS_DAC_ALIGN(DAC_Align));
 530              		.loc 1 347 3 is_stmt 1 view .LVU108
 348:.\stlib\STM32F10x_StdPeriph_Driver\src/stm32f10x_dac.c ****   assert_param(IS_DAC_DATA(Data));
 531              		.loc 1 348 3 view .LVU109
 349:.\stlib\STM32F10x_StdPeriph_Driver\src/stm32f10x_dac.c ****   
 350:.\stlib\STM32F10x_StdPeriph_Driver\src/stm32f10x_dac.c ****   tmp = (uint32_t)DAC_BASE; 
 532              		.loc 1 350 3 view .LVU110
 533              	@ .\stlib\STM32F10x_StdPeriph_Driver\src\stm32f10x_dac.c:350:   tmp = (uint32_t)DAC_BASE; 
 534              		.loc 1 350 7 is_stmt 0 view .LVU111
 535 00e2 054B     		ldr	r3, .L37	@ tmp119,
 536 00e4 0193     		str	r3, [sp, #4]	@ tmp119, tmp
ARM GAS  C:\Users\skey\AppData\Local\Temp\ccKAsNbo.s 			page 17


 351:.\stlib\STM32F10x_StdPeriph_Driver\src/stm32f10x_dac.c ****   tmp += DHR12R1_OFFSET + DAC_Align;
 537              		.loc 1 351 3 is_stmt 1 view .LVU112
 538              	@ .\stlib\STM32F10x_StdPeriph_Driver\src\stm32f10x_dac.c:351:   tmp += DHR12R1_OFFSET + DAC_Align;
 539              		.loc 1 351 7 is_stmt 0 view .LVU113
 540 00e6 019B     		ldr	r3, [sp, #4]	@ tmp.0_1, tmp
 541 00e8 0833     		adds	r3, r3, #8	@ tmp120, tmp.0_1,
 542 00ea 0344     		add	r3, r3, r0	@ _3, tmp121
 543 00ec 0193     		str	r3, [sp, #4]	@ _3, tmp
 352:.\stlib\STM32F10x_StdPeriph_Driver\src/stm32f10x_dac.c **** 
 353:.\stlib\STM32F10x_StdPeriph_Driver\src/stm32f10x_dac.c ****   /* Set the DAC channel1 selected data holding register */
 354:.\stlib\STM32F10x_StdPeriph_Driver\src/stm32f10x_dac.c ****   *(__IO uint32_t *) tmp = Data;
 544              		.loc 1 354 3 is_stmt 1 view .LVU114
 545              	@ .\stlib\STM32F10x_StdPeriph_Driver\src\stm32f10x_dac.c:354:   *(__IO uint32_t *) tmp = Data;
 546              		.loc 1 354 4 is_stmt 0 view .LVU115
 547 00ee 019B     		ldr	r3, [sp, #4]	@ tmp.1_4, tmp
 548              	@ .\stlib\STM32F10x_StdPeriph_Driver\src\stm32f10x_dac.c:354:   *(__IO uint32_t *) tmp = Data;
 549              		.loc 1 354 26 view .LVU116
 550 00f0 1960     		str	r1, [r3]	@ Data, *tmp.2_5
 551              	@ .\stlib\STM32F10x_StdPeriph_Driver\src\stm32f10x_dac.c:355: }
 355:.\stlib\STM32F10x_StdPeriph_Driver\src/stm32f10x_dac.c **** }
 552              		.loc 1 355 1 view .LVU117
 553 00f2 02B0     		add	sp, sp, #8	@,,
 554              	.LCFI4:
 555              		.cfi_def_cfa_offset 0
 556              		@ sp needed	@
 557 00f4 7047     		bx	lr	@
 558              	.L38:
 559 00f6 00BF     		.align	2
 560              	.L37:
 561 00f8 00740040 		.word	1073771520
 562              		.cfi_endproc
 563              	.LFE37:
 564              		.size	DAC_SetChannel1Data, .-DAC_SetChannel1Data
 565              		.align	1
 566              		.global	DAC_SetChannel2Data
 567              		.syntax unified
 568              		.thumb
 569              		.thumb_func
 570              		.fpu softvfp
 571              		.type	DAC_SetChannel2Data, %function
 572              	DAC_SetChannel2Data:
 573              	.LVL21:
 574              	.LFB38:
 356:.\stlib\STM32F10x_StdPeriph_Driver\src/stm32f10x_dac.c **** 
 357:.\stlib\STM32F10x_StdPeriph_Driver\src/stm32f10x_dac.c **** /**
 358:.\stlib\STM32F10x_StdPeriph_Driver\src/stm32f10x_dac.c ****   * @brief  Set the specified data holding register value for DAC channel2.
 359:.\stlib\STM32F10x_StdPeriph_Driver\src/stm32f10x_dac.c ****   * @param  DAC_Align: Specifies the data alignment for DAC channel2.
 360:.\stlib\STM32F10x_StdPeriph_Driver\src/stm32f10x_dac.c ****   *   This parameter can be one of the following values:
 361:.\stlib\STM32F10x_StdPeriph_Driver\src/stm32f10x_dac.c ****   *     @arg DAC_Align_8b_R: 8bit right data alignment selected
 362:.\stlib\STM32F10x_StdPeriph_Driver\src/stm32f10x_dac.c ****   *     @arg DAC_Align_12b_L: 12bit left data alignment selected
 363:.\stlib\STM32F10x_StdPeriph_Driver\src/stm32f10x_dac.c ****   *     @arg DAC_Align_12b_R: 12bit right data alignment selected
 364:.\stlib\STM32F10x_StdPeriph_Driver\src/stm32f10x_dac.c ****   * @param  Data : Data to be loaded in the selected data holding register.
 365:.\stlib\STM32F10x_StdPeriph_Driver\src/stm32f10x_dac.c ****   * @retval None
 366:.\stlib\STM32F10x_StdPeriph_Driver\src/stm32f10x_dac.c ****   */
 367:.\stlib\STM32F10x_StdPeriph_Driver\src/stm32f10x_dac.c **** void DAC_SetChannel2Data(uint32_t DAC_Align, uint16_t Data)
 368:.\stlib\STM32F10x_StdPeriph_Driver\src/stm32f10x_dac.c **** {
 575              		.loc 1 368 1 is_stmt 1 view -0
ARM GAS  C:\Users\skey\AppData\Local\Temp\ccKAsNbo.s 			page 18


 576              		.cfi_startproc
 577              		@ args = 0, pretend = 0, frame = 8
 578              		@ frame_needed = 0, uses_anonymous_args = 0
 579              		@ link register save eliminated.
 369:.\stlib\STM32F10x_StdPeriph_Driver\src/stm32f10x_dac.c ****   __IO uint32_t tmp = 0;
 580              		.loc 1 369 3 view .LVU119
 581              	@ .\stlib\STM32F10x_StdPeriph_Driver\src\stm32f10x_dac.c:369:   __IO uint32_t tmp = 0;
 582              		.loc 1 369 17 is_stmt 0 view .LVU120
 583 00fc 0023     		movs	r3, #0	@ tmp118,
 584              	@ .\stlib\STM32F10x_StdPeriph_Driver\src\stm32f10x_dac.c:368: {
 368:.\stlib\STM32F10x_StdPeriph_Driver\src/stm32f10x_dac.c ****   __IO uint32_t tmp = 0;
 585              		.loc 1 368 1 view .LVU121
 586 00fe 82B0     		sub	sp, sp, #8	@,,
 587              	.LCFI5:
 588              		.cfi_def_cfa_offset 8
 589              	@ .\stlib\STM32F10x_StdPeriph_Driver\src\stm32f10x_dac.c:369:   __IO uint32_t tmp = 0;
 590              		.loc 1 369 17 view .LVU122
 591 0100 0193     		str	r3, [sp, #4]	@ tmp118, tmp
 370:.\stlib\STM32F10x_StdPeriph_Driver\src/stm32f10x_dac.c **** 
 371:.\stlib\STM32F10x_StdPeriph_Driver\src/stm32f10x_dac.c ****   /* Check the parameters */
 372:.\stlib\STM32F10x_StdPeriph_Driver\src/stm32f10x_dac.c ****   assert_param(IS_DAC_ALIGN(DAC_Align));
 592              		.loc 1 372 3 is_stmt 1 view .LVU123
 373:.\stlib\STM32F10x_StdPeriph_Driver\src/stm32f10x_dac.c ****   assert_param(IS_DAC_DATA(Data));
 593              		.loc 1 373 3 view .LVU124
 374:.\stlib\STM32F10x_StdPeriph_Driver\src/stm32f10x_dac.c ****   
 375:.\stlib\STM32F10x_StdPeriph_Driver\src/stm32f10x_dac.c ****   tmp = (uint32_t)DAC_BASE;
 594              		.loc 1 375 3 view .LVU125
 595              	@ .\stlib\STM32F10x_StdPeriph_Driver\src\stm32f10x_dac.c:375:   tmp = (uint32_t)DAC_BASE;
 596              		.loc 1 375 7 is_stmt 0 view .LVU126
 597 0102 054B     		ldr	r3, .L40	@ tmp119,
 598 0104 0193     		str	r3, [sp, #4]	@ tmp119, tmp
 376:.\stlib\STM32F10x_StdPeriph_Driver\src/stm32f10x_dac.c ****   tmp += DHR12R2_OFFSET + DAC_Align;
 599              		.loc 1 376 3 is_stmt 1 view .LVU127
 600              	@ .\stlib\STM32F10x_StdPeriph_Driver\src\stm32f10x_dac.c:376:   tmp += DHR12R2_OFFSET + DAC_Align;
 601              		.loc 1 376 7 is_stmt 0 view .LVU128
 602 0106 019B     		ldr	r3, [sp, #4]	@ tmp.3_1, tmp
 603 0108 1433     		adds	r3, r3, #20	@ tmp120, tmp.3_1,
 604 010a 0344     		add	r3, r3, r0	@ _3, tmp121
 605 010c 0193     		str	r3, [sp, #4]	@ _3, tmp
 377:.\stlib\STM32F10x_StdPeriph_Driver\src/stm32f10x_dac.c **** 
 378:.\stlib\STM32F10x_StdPeriph_Driver\src/stm32f10x_dac.c ****   /* Set the DAC channel2 selected data holding register */
 379:.\stlib\STM32F10x_StdPeriph_Driver\src/stm32f10x_dac.c ****   *(__IO uint32_t *)tmp = Data;
 606              		.loc 1 379 3 is_stmt 1 view .LVU129
 607              	@ .\stlib\STM32F10x_StdPeriph_Driver\src\stm32f10x_dac.c:379:   *(__IO uint32_t *)tmp = Data;
 608              		.loc 1 379 4 is_stmt 0 view .LVU130
 609 010e 019B     		ldr	r3, [sp, #4]	@ tmp.4_4, tmp
 610              	@ .\stlib\STM32F10x_StdPeriph_Driver\src\stm32f10x_dac.c:379:   *(__IO uint32_t *)tmp = Data;
 611              		.loc 1 379 25 view .LVU131
 612 0110 1960     		str	r1, [r3]	@ Data, *tmp.5_5
 613              	@ .\stlib\STM32F10x_StdPeriph_Driver\src\stm32f10x_dac.c:380: }
 380:.\stlib\STM32F10x_StdPeriph_Driver\src/stm32f10x_dac.c **** }
 614              		.loc 1 380 1 view .LVU132
 615 0112 02B0     		add	sp, sp, #8	@,,
 616              	.LCFI6:
 617              		.cfi_def_cfa_offset 0
 618              		@ sp needed	@
 619 0114 7047     		bx	lr	@
ARM GAS  C:\Users\skey\AppData\Local\Temp\ccKAsNbo.s 			page 19


 620              	.L41:
 621 0116 00BF     		.align	2
 622              	.L40:
 623 0118 00740040 		.word	1073771520
 624              		.cfi_endproc
 625              	.LFE38:
 626              		.size	DAC_SetChannel2Data, .-DAC_SetChannel2Data
 627              		.align	1
 628              		.global	DAC_SetDualChannelData
 629              		.syntax unified
 630              		.thumb
 631              		.thumb_func
 632              		.fpu softvfp
 633              		.type	DAC_SetDualChannelData, %function
 634              	DAC_SetDualChannelData:
 635              	.LVL22:
 636              	.LFB39:
 381:.\stlib\STM32F10x_StdPeriph_Driver\src/stm32f10x_dac.c **** 
 382:.\stlib\STM32F10x_StdPeriph_Driver\src/stm32f10x_dac.c **** /**
 383:.\stlib\STM32F10x_StdPeriph_Driver\src/stm32f10x_dac.c ****   * @brief  Set the specified data holding register value for dual channel
 384:.\stlib\STM32F10x_StdPeriph_Driver\src/stm32f10x_dac.c ****   *   DAC.
 385:.\stlib\STM32F10x_StdPeriph_Driver\src/stm32f10x_dac.c ****   * @param  DAC_Align: Specifies the data alignment for dual channel DAC.
 386:.\stlib\STM32F10x_StdPeriph_Driver\src/stm32f10x_dac.c ****   *   This parameter can be one of the following values:
 387:.\stlib\STM32F10x_StdPeriph_Driver\src/stm32f10x_dac.c ****   *     @arg DAC_Align_8b_R: 8bit right data alignment selected
 388:.\stlib\STM32F10x_StdPeriph_Driver\src/stm32f10x_dac.c ****   *     @arg DAC_Align_12b_L: 12bit left data alignment selected
 389:.\stlib\STM32F10x_StdPeriph_Driver\src/stm32f10x_dac.c ****   *     @arg DAC_Align_12b_R: 12bit right data alignment selected
 390:.\stlib\STM32F10x_StdPeriph_Driver\src/stm32f10x_dac.c ****   * @param  Data2: Data for DAC Channel2 to be loaded in the selected data 
 391:.\stlib\STM32F10x_StdPeriph_Driver\src/stm32f10x_dac.c ****   *   holding register.
 392:.\stlib\STM32F10x_StdPeriph_Driver\src/stm32f10x_dac.c ****   * @param  Data1: Data for DAC Channel1 to be loaded in the selected data 
 393:.\stlib\STM32F10x_StdPeriph_Driver\src/stm32f10x_dac.c ****   *   holding register.
 394:.\stlib\STM32F10x_StdPeriph_Driver\src/stm32f10x_dac.c ****   * @retval None
 395:.\stlib\STM32F10x_StdPeriph_Driver\src/stm32f10x_dac.c ****   */
 396:.\stlib\STM32F10x_StdPeriph_Driver\src/stm32f10x_dac.c **** void DAC_SetDualChannelData(uint32_t DAC_Align, uint16_t Data2, uint16_t Data1)
 397:.\stlib\STM32F10x_StdPeriph_Driver\src/stm32f10x_dac.c **** {
 637              		.loc 1 397 1 is_stmt 1 view -0
 638              		.cfi_startproc
 639              		@ args = 0, pretend = 0, frame = 0
 640              		@ frame_needed = 0, uses_anonymous_args = 0
 641              		@ link register save eliminated.
 398:.\stlib\STM32F10x_StdPeriph_Driver\src/stm32f10x_dac.c ****   uint32_t data = 0, tmp = 0;
 642              		.loc 1 398 3 view .LVU134
 399:.\stlib\STM32F10x_StdPeriph_Driver\src/stm32f10x_dac.c ****   
 400:.\stlib\STM32F10x_StdPeriph_Driver\src/stm32f10x_dac.c ****   /* Check the parameters */
 401:.\stlib\STM32F10x_StdPeriph_Driver\src/stm32f10x_dac.c ****   assert_param(IS_DAC_ALIGN(DAC_Align));
 643              		.loc 1 401 3 view .LVU135
 402:.\stlib\STM32F10x_StdPeriph_Driver\src/stm32f10x_dac.c ****   assert_param(IS_DAC_DATA(Data1));
 644              		.loc 1 402 3 view .LVU136
 403:.\stlib\STM32F10x_StdPeriph_Driver\src/stm32f10x_dac.c ****   assert_param(IS_DAC_DATA(Data2));
 645              		.loc 1 403 3 view .LVU137
 404:.\stlib\STM32F10x_StdPeriph_Driver\src/stm32f10x_dac.c ****   
 405:.\stlib\STM32F10x_StdPeriph_Driver\src/stm32f10x_dac.c ****   /* Calculate and set dual DAC data holding register value */
 406:.\stlib\STM32F10x_StdPeriph_Driver\src/stm32f10x_dac.c ****   if (DAC_Align == DAC_Align_8b_R)
 646              		.loc 1 406 3 view .LVU138
 647              	@ .\stlib\STM32F10x_StdPeriph_Driver\src\stm32f10x_dac.c:406:   if (DAC_Align == DAC_Align_8b_R)
 648              		.loc 1 406 6 is_stmt 0 view .LVU139
 649 011c 0828     		cmp	r0, #8	@ DAC_Align,
 407:.\stlib\STM32F10x_StdPeriph_Driver\src/stm32f10x_dac.c ****   {
ARM GAS  C:\Users\skey\AppData\Local\Temp\ccKAsNbo.s 			page 20


 408:.\stlib\STM32F10x_StdPeriph_Driver\src/stm32f10x_dac.c ****     data = ((uint32_t)Data2 << 8) | Data1; 
 650              		.loc 1 408 5 is_stmt 1 view .LVU140
 651              	@ .\stlib\STM32F10x_StdPeriph_Driver\src\stm32f10x_dac.c:416:   tmp += DHR12RD_OFFSET + DAC_Align;
 409:.\stlib\STM32F10x_StdPeriph_Driver\src/stm32f10x_dac.c ****   }
 410:.\stlib\STM32F10x_StdPeriph_Driver\src/stm32f10x_dac.c ****   else
 411:.\stlib\STM32F10x_StdPeriph_Driver\src/stm32f10x_dac.c ****   {
 412:.\stlib\STM32F10x_StdPeriph_Driver\src/stm32f10x_dac.c ****     data = ((uint32_t)Data2 << 16) | Data1;
 413:.\stlib\STM32F10x_StdPeriph_Driver\src/stm32f10x_dac.c ****   }
 414:.\stlib\STM32F10x_StdPeriph_Driver\src/stm32f10x_dac.c ****   
 415:.\stlib\STM32F10x_StdPeriph_Driver\src/stm32f10x_dac.c ****   tmp = (uint32_t)DAC_BASE;
 416:.\stlib\STM32F10x_StdPeriph_Driver\src/stm32f10x_dac.c ****   tmp += DHR12RD_OFFSET + DAC_Align;
 652              		.loc 1 416 7 is_stmt 0 view .LVU141
 653 011e 044B     		ldr	r3, .L45	@ tmp122,
 654              	@ .\stlib\STM32F10x_StdPeriph_Driver\src\stm32f10x_dac.c:408:     data = ((uint32_t)Data2 << 8) | D
 408:.\stlib\STM32F10x_StdPeriph_Driver\src/stm32f10x_dac.c ****   }
 655              		.loc 1 408 10 view .LVU142
 656 0120 0CBF     		ite	eq
 657 0122 42EA0122 		orreq	r2, r2, r1, lsl #8	@ data, Data1, Data2,
 658              	.LVL23:
 412:.\stlib\STM32F10x_StdPeriph_Driver\src/stm32f10x_dac.c ****   }
 659              		.loc 1 412 5 is_stmt 1 view .LVU143
 660              	@ .\stlib\STM32F10x_StdPeriph_Driver\src\stm32f10x_dac.c:412:     data = ((uint32_t)Data2 << 16) | 
 412:.\stlib\STM32F10x_StdPeriph_Driver\src/stm32f10x_dac.c ****   }
 661              		.loc 1 412 10 is_stmt 0 view .LVU144
 662 0126 42EA0142 		orrne	r2, r2, r1, lsl #16	@ data, Data1, Data2,
 663              	.LVL24:
 415:.\stlib\STM32F10x_StdPeriph_Driver\src/stm32f10x_dac.c ****   tmp += DHR12RD_OFFSET + DAC_Align;
 664              		.loc 1 415 3 is_stmt 1 view .LVU145
 665              		.loc 1 416 3 view .LVU146
 417:.\stlib\STM32F10x_StdPeriph_Driver\src/stm32f10x_dac.c **** 
 418:.\stlib\STM32F10x_StdPeriph_Driver\src/stm32f10x_dac.c ****   /* Set the dual DAC selected data holding register */
 419:.\stlib\STM32F10x_StdPeriph_Driver\src/stm32f10x_dac.c ****   *(__IO uint32_t *)tmp = data;
 666              		.loc 1 419 3 view .LVU147
 667              	@ .\stlib\STM32F10x_StdPeriph_Driver\src\stm32f10x_dac.c:419:   *(__IO uint32_t *)tmp = data;
 668              		.loc 1 419 25 is_stmt 0 view .LVU148
 669 012a C250     		str	r2, [r0, r3]	@ data, *tmp.6_7
 670              	@ .\stlib\STM32F10x_StdPeriph_Driver\src\stm32f10x_dac.c:420: }
 420:.\stlib\STM32F10x_StdPeriph_Driver\src/stm32f10x_dac.c **** }
 671              		.loc 1 420 1 view .LVU149
 672 012c 7047     		bx	lr	@
 673              	.L46:
 674 012e 00BF     		.align	2
 675              	.L45:
 676 0130 20740040 		.word	1073771552
 677              		.cfi_endproc
 678              	.LFE39:
 679              		.size	DAC_SetDualChannelData, .-DAC_SetDualChannelData
 680              		.align	1
 681              		.global	DAC_GetDataOutputValue
 682              		.syntax unified
 683              		.thumb
 684              		.thumb_func
 685              		.fpu softvfp
 686              		.type	DAC_GetDataOutputValue, %function
 687              	DAC_GetDataOutputValue:
 688              	.LVL25:
 689              	.LFB40:
ARM GAS  C:\Users\skey\AppData\Local\Temp\ccKAsNbo.s 			page 21


 421:.\stlib\STM32F10x_StdPeriph_Driver\src/stm32f10x_dac.c **** 
 422:.\stlib\STM32F10x_StdPeriph_Driver\src/stm32f10x_dac.c **** /**
 423:.\stlib\STM32F10x_StdPeriph_Driver\src/stm32f10x_dac.c ****   * @brief  Returns the last data output value of the selected DAC channel.
 424:.\stlib\STM32F10x_StdPeriph_Driver\src/stm32f10x_dac.c ****   * @param  DAC_Channel: the selected DAC channel. 
 425:.\stlib\STM32F10x_StdPeriph_Driver\src/stm32f10x_dac.c ****   *   This parameter can be one of the following values:
 426:.\stlib\STM32F10x_StdPeriph_Driver\src/stm32f10x_dac.c ****   *     @arg DAC_Channel_1: DAC Channel1 selected
 427:.\stlib\STM32F10x_StdPeriph_Driver\src/stm32f10x_dac.c ****   *     @arg DAC_Channel_2: DAC Channel2 selected
 428:.\stlib\STM32F10x_StdPeriph_Driver\src/stm32f10x_dac.c ****   * @retval The selected DAC channel data output value.
 429:.\stlib\STM32F10x_StdPeriph_Driver\src/stm32f10x_dac.c ****   */
 430:.\stlib\STM32F10x_StdPeriph_Driver\src/stm32f10x_dac.c **** uint16_t DAC_GetDataOutputValue(uint32_t DAC_Channel)
 431:.\stlib\STM32F10x_StdPeriph_Driver\src/stm32f10x_dac.c **** {
 690              		.loc 1 431 1 is_stmt 1 view -0
 691              		.cfi_startproc
 692              		@ args = 0, pretend = 0, frame = 8
 693              		@ frame_needed = 0, uses_anonymous_args = 0
 694              		@ link register save eliminated.
 432:.\stlib\STM32F10x_StdPeriph_Driver\src/stm32f10x_dac.c ****   __IO uint32_t tmp = 0;
 695              		.loc 1 432 3 view .LVU151
 696              	@ .\stlib\STM32F10x_StdPeriph_Driver\src\stm32f10x_dac.c:432:   __IO uint32_t tmp = 0;
 697              		.loc 1 432 17 is_stmt 0 view .LVU152
 698 0134 0023     		movs	r3, #0	@ tmp119,
 699              	@ .\stlib\STM32F10x_StdPeriph_Driver\src\stm32f10x_dac.c:431: {
 431:.\stlib\STM32F10x_StdPeriph_Driver\src/stm32f10x_dac.c ****   __IO uint32_t tmp = 0;
 700              		.loc 1 431 1 view .LVU153
 701 0136 82B0     		sub	sp, sp, #8	@,,
 702              	.LCFI7:
 703              		.cfi_def_cfa_offset 8
 704              	@ .\stlib\STM32F10x_StdPeriph_Driver\src\stm32f10x_dac.c:432:   __IO uint32_t tmp = 0;
 705              		.loc 1 432 17 view .LVU154
 706 0138 0193     		str	r3, [sp, #4]	@ tmp119, tmp
 433:.\stlib\STM32F10x_StdPeriph_Driver\src/stm32f10x_dac.c ****   
 434:.\stlib\STM32F10x_StdPeriph_Driver\src/stm32f10x_dac.c ****   /* Check the parameters */
 435:.\stlib\STM32F10x_StdPeriph_Driver\src/stm32f10x_dac.c ****   assert_param(IS_DAC_CHANNEL(DAC_Channel));
 707              		.loc 1 435 3 is_stmt 1 view .LVU155
 436:.\stlib\STM32F10x_StdPeriph_Driver\src/stm32f10x_dac.c ****   
 437:.\stlib\STM32F10x_StdPeriph_Driver\src/stm32f10x_dac.c ****   tmp = (uint32_t) DAC_BASE ;
 708              		.loc 1 437 3 view .LVU156
 709              	@ .\stlib\STM32F10x_StdPeriph_Driver\src\stm32f10x_dac.c:437:   tmp = (uint32_t) DAC_BASE ;
 710              		.loc 1 437 7 is_stmt 0 view .LVU157
 711 013a 064B     		ldr	r3, .L48	@ tmp120,
 712 013c 0193     		str	r3, [sp, #4]	@ tmp120, tmp
 438:.\stlib\STM32F10x_StdPeriph_Driver\src/stm32f10x_dac.c ****   tmp += DOR_OFFSET + ((uint32_t)DAC_Channel >> 2);
 713              		.loc 1 438 3 is_stmt 1 view .LVU158
 714              	@ .\stlib\STM32F10x_StdPeriph_Driver\src\stm32f10x_dac.c:438:   tmp += DOR_OFFSET + ((uint32_t)DAC_
 715              		.loc 1 438 7 is_stmt 0 view .LVU159
 716 013e 019B     		ldr	r3, [sp, #4]	@ tmp.7_2, tmp
 717 0140 2C33     		adds	r3, r3, #44	@ tmp122, tmp.7_2,
 718 0142 03EB9003 		add	r3, r3, r0, lsr #2	@ _4, tmp122, tmp125,
 719 0146 0193     		str	r3, [sp, #4]	@ _4, tmp
 439:.\stlib\STM32F10x_StdPeriph_Driver\src/stm32f10x_dac.c ****   
 440:.\stlib\STM32F10x_StdPeriph_Driver\src/stm32f10x_dac.c ****   /* Returns the DAC channel data output register value */
 441:.\stlib\STM32F10x_StdPeriph_Driver\src/stm32f10x_dac.c ****   return (uint16_t) (*(__IO uint32_t*) tmp);
 720              		.loc 1 441 3 is_stmt 1 view .LVU160
 721              	@ .\stlib\STM32F10x_StdPeriph_Driver\src\stm32f10x_dac.c:441:   return (uint16_t) (*(__IO uint32_t*
 722              		.loc 1 441 23 is_stmt 0 view .LVU161
 723 0148 019B     		ldr	r3, [sp, #4]	@ tmp.8_5, tmp
 724              	@ .\stlib\STM32F10x_StdPeriph_Driver\src\stm32f10x_dac.c:441:   return (uint16_t) (*(__IO uint32_t*
ARM GAS  C:\Users\skey\AppData\Local\Temp\ccKAsNbo.s 			page 22


 725              		.loc 1 441 22 view .LVU162
 726 014a 1868     		ldr	r0, [r3]	@ _7, *tmp.9_6
 727              	.LVL26:
 728              	@ .\stlib\STM32F10x_StdPeriph_Driver\src\stm32f10x_dac.c:442: }
 442:.\stlib\STM32F10x_StdPeriph_Driver\src/stm32f10x_dac.c **** }
 729              		.loc 1 442 1 view .LVU163
 730 014c 80B2     		uxth	r0, r0	@, _7
 731 014e 02B0     		add	sp, sp, #8	@,,
 732              	.LCFI8:
 733              		.cfi_def_cfa_offset 0
 734              		@ sp needed	@
 735 0150 7047     		bx	lr	@
 736              	.L49:
 737 0152 00BF     		.align	2
 738              	.L48:
 739 0154 00740040 		.word	1073771520
 740              		.cfi_endproc
 741              	.LFE40:
 742              		.size	DAC_GetDataOutputValue, .-DAC_GetDataOutputValue
 743              	.Letext0:
 744              		.file 2 "c:\\program files (x86)\\gnu tools arm embedded\\9 2019-q4-major\\arm-none-eabi\\include\
 745              		.file 3 "c:\\program files (x86)\\gnu tools arm embedded\\9 2019-q4-major\\arm-none-eabi\\include\
 746              		.file 4 ".\\stlib\\CMSIS\\CM3\\CoreSupport/core_cm3.h"
 747              		.file 5 ".\\stlib\\CMSIS\\CM3\\DeviceSupport\\ST\\STM32F10x/system_stm32f10x.h"
 748              		.file 6 ".\\stlib\\CMSIS\\CM3\\DeviceSupport\\ST\\STM32F10x/stm32f10x.h"
 749              		.file 7 ".\\stlib\\STM32F10x_StdPeriph_Driver\\inc/stm32f10x_dac.h"
 750              		.file 8 ".\\stlib\\STM32F10x_StdPeriph_Driver\\inc/stm32f10x_rcc.h"
 751              		.section	.debug_info,"",%progbits
 752              	.Ldebug_info0:
 753 0000 BF050000 		.4byte	0x5bf
 754 0004 0200     		.2byte	0x2
 755 0006 00000000 		.4byte	.Ldebug_abbrev0
 756 000a 04       		.byte	0x4
 757 000b 01       		.uleb128 0x1
 758 000c A0000000 		.4byte	.LASF60
 759 0010 0C       		.byte	0xc
 760 0011 05030000 		.4byte	.LASF61
 761 0015 5D000000 		.4byte	.LASF62
 762 0019 00000000 		.4byte	.Ltext0
 763 001d 58010000 		.4byte	.Letext0
 764 0021 00000000 		.4byte	.Ldebug_line0
 765 0025 02       		.uleb128 0x2
 766 0026 01       		.byte	0x1
 767 0027 06       		.byte	0x6
 768 0028 21020000 		.4byte	.LASF0
 769 002c 03       		.uleb128 0x3
 770 002d D2010000 		.4byte	.LASF3
 771 0031 02       		.byte	0x2
 772 0032 2B       		.byte	0x2b
 773 0033 18       		.byte	0x18
 774 0034 38000000 		.4byte	0x38
 775 0038 02       		.uleb128 0x2
 776 0039 01       		.byte	0x1
 777 003a 08       		.byte	0x8
 778 003b 04020000 		.4byte	.LASF1
 779 003f 02       		.uleb128 0x2
 780 0040 02       		.byte	0x2
ARM GAS  C:\Users\skey\AppData\Local\Temp\ccKAsNbo.s 			page 23


 781 0041 05       		.byte	0x5
 782 0042 80000000 		.4byte	.LASF2
 783 0046 03       		.uleb128 0x3
 784 0047 5E010000 		.4byte	.LASF4
 785 004b 02       		.byte	0x2
 786 004c 39       		.byte	0x39
 787 004d 19       		.byte	0x19
 788 004e 52000000 		.4byte	0x52
 789 0052 02       		.uleb128 0x2
 790 0053 02       		.byte	0x2
 791 0054 07       		.byte	0x7
 792 0055 94020000 		.4byte	.LASF5
 793 0059 02       		.uleb128 0x2
 794 005a 04       		.byte	0x4
 795 005b 05       		.byte	0x5
 796 005c A9010000 		.4byte	.LASF6
 797 0060 03       		.uleb128 0x3
 798 0061 42010000 		.4byte	.LASF7
 799 0065 02       		.byte	0x2
 800 0066 4F       		.byte	0x4f
 801 0067 19       		.byte	0x19
 802 0068 6C000000 		.4byte	0x6c
 803 006c 02       		.uleb128 0x2
 804 006d 04       		.byte	0x4
 805 006e 07       		.byte	0x7
 806 006f 5F030000 		.4byte	.LASF8
 807 0073 02       		.uleb128 0x2
 808 0074 08       		.byte	0x8
 809 0075 05       		.byte	0x5
 810 0076 84010000 		.4byte	.LASF9
 811 007a 02       		.uleb128 0x2
 812 007b 08       		.byte	0x8
 813 007c 07       		.byte	0x7
 814 007d 2D020000 		.4byte	.LASF10
 815 0081 04       		.uleb128 0x4
 816 0082 04       		.byte	0x4
 817 0083 05       		.byte	0x5
 818 0084 696E7400 		.ascii	"int\000"
 819 0088 05       		.uleb128 0x5
 820 0089 81000000 		.4byte	0x81
 821 008d 02       		.uleb128 0x2
 822 008e 04       		.byte	0x4
 823 008f 07       		.byte	0x7
 824 0090 CD030000 		.4byte	.LASF11
 825 0094 03       		.uleb128 0x3
 826 0095 9D030000 		.4byte	.LASF12
 827 0099 03       		.byte	0x3
 828 009a 18       		.byte	0x18
 829 009b 13       		.byte	0x13
 830 009c 2C000000 		.4byte	0x2c
 831 00a0 03       		.uleb128 0x3
 832 00a1 61020000 		.4byte	.LASF13
 833 00a5 03       		.byte	0x3
 834 00a6 24       		.byte	0x24
 835 00a7 14       		.byte	0x14
 836 00a8 46000000 		.4byte	0x46
 837 00ac 03       		.uleb128 0x3
ARM GAS  C:\Users\skey\AppData\Local\Temp\ccKAsNbo.s 			page 24


 838 00ad 44020000 		.4byte	.LASF14
 839 00b1 03       		.byte	0x3
 840 00b2 30       		.byte	0x30
 841 00b3 14       		.byte	0x14
 842 00b4 60000000 		.4byte	0x60
 843 00b8 05       		.uleb128 0x5
 844 00b9 AC000000 		.4byte	0xac
 845 00bd 06       		.uleb128 0x6
 846 00be B4030000 		.4byte	.LASF15
 847 00c2 04       		.byte	0x4
 848 00c3 CE06     		.2byte	0x6ce
 849 00c5 15       		.byte	0x15
 850 00c6 88000000 		.4byte	0x88
 851 00ca 01       		.byte	0x1
 852 00cb 01       		.byte	0x1
 853 00cc 07       		.uleb128 0x7
 854 00cd 26000000 		.4byte	.LASF16
 855 00d1 05       		.byte	0x5
 856 00d2 35       		.byte	0x35
 857 00d3 11       		.byte	0x11
 858 00d4 AC000000 		.4byte	0xac
 859 00d8 01       		.byte	0x1
 860 00d9 01       		.byte	0x1
 861 00da 08       		.uleb128 0x8
 862 00db 07       		.byte	0x7
 863 00dc 01       		.byte	0x1
 864 00dd 38000000 		.4byte	0x38
 865 00e1 06       		.byte	0x6
 866 00e2 0902     		.2byte	0x209
 867 00e4 0E       		.byte	0xe
 868 00e5 F6000000 		.4byte	0xf6
 869 00e9 09       		.uleb128 0x9
 870 00ea 7C010000 		.4byte	.LASF17
 871 00ee 00       		.byte	0
 872 00ef 09       		.uleb128 0x9
 873 00f0 FB030000 		.4byte	.LASF18
 874 00f4 01       		.byte	0x1
 875 00f5 00       		.byte	0
 876 00f6 0A       		.uleb128 0xa
 877 00f7 71030000 		.4byte	.LASF19
 878 00fb 06       		.byte	0x6
 879 00fc 0902     		.2byte	0x209
 880 00fe 2F       		.byte	0x2f
 881 00ff DA000000 		.4byte	0xda
 882 0103 0B       		.uleb128 0xb
 883 0104 34       		.byte	0x34
 884 0105 06       		.byte	0x6
 885 0106 FC02     		.2byte	0x2fc
 886 0108 09       		.byte	0x9
 887 0109 DD010000 		.4byte	0x1dd
 888 010d 0C       		.uleb128 0xc
 889 010e 435200   		.ascii	"CR\000"
 890 0111 06       		.byte	0x6
 891 0112 FE02     		.2byte	0x2fe
 892 0114 11       		.byte	0x11
 893 0115 B8000000 		.4byte	0xb8
 894 0119 02       		.byte	0x2
ARM GAS  C:\Users\skey\AppData\Local\Temp\ccKAsNbo.s 			page 25


 895 011a 23       		.byte	0x23
 896 011b 00       		.uleb128 0
 897 011c 0D       		.uleb128 0xd
 898 011d 8C020000 		.4byte	.LASF20
 899 0121 06       		.byte	0x6
 900 0122 FF02     		.2byte	0x2ff
 901 0124 11       		.byte	0x11
 902 0125 B8000000 		.4byte	0xb8
 903 0129 02       		.byte	0x2
 904 012a 23       		.byte	0x23
 905 012b 04       		.uleb128 0x4
 906 012c 0D       		.uleb128 0xd
 907 012d F5020000 		.4byte	.LASF21
 908 0131 06       		.byte	0x6
 909 0132 0003     		.2byte	0x300
 910 0134 11       		.byte	0x11
 911 0135 B8000000 		.4byte	0xb8
 912 0139 02       		.byte	0x2
 913 013a 23       		.byte	0x23
 914 013b 08       		.uleb128 0x8
 915 013c 0D       		.uleb128 0xd
 916 013d 4D000000 		.4byte	.LASF22
 917 0141 06       		.byte	0x6
 918 0142 0103     		.2byte	0x301
 919 0144 11       		.byte	0x11
 920 0145 B8000000 		.4byte	0xb8
 921 0149 02       		.byte	0x2
 922 014a 23       		.byte	0x23
 923 014b 0C       		.uleb128 0xc
 924 014c 0D       		.uleb128 0xd
 925 014d DA030000 		.4byte	.LASF23
 926 0151 06       		.byte	0x6
 927 0152 0203     		.2byte	0x302
 928 0154 11       		.byte	0x11
 929 0155 B8000000 		.4byte	0xb8
 930 0159 02       		.byte	0x2
 931 015a 23       		.byte	0x23
 932 015b 10       		.uleb128 0x10
 933 015c 0D       		.uleb128 0xd
 934 015d FD020000 		.4byte	.LASF24
 935 0161 06       		.byte	0x6
 936 0162 0303     		.2byte	0x303
 937 0164 11       		.byte	0x11
 938 0165 B8000000 		.4byte	0xb8
 939 0169 02       		.byte	0x2
 940 016a 23       		.byte	0x23
 941 016b 14       		.uleb128 0x14
 942 016c 0D       		.uleb128 0xd
 943 016d 55000000 		.4byte	.LASF25
 944 0171 06       		.byte	0x6
 945 0172 0403     		.2byte	0x304
 946 0174 11       		.byte	0x11
 947 0175 B8000000 		.4byte	0xb8
 948 0179 02       		.byte	0x2
 949 017a 23       		.byte	0x23
 950 017b 18       		.uleb128 0x18
 951 017c 0D       		.uleb128 0xd
ARM GAS  C:\Users\skey\AppData\Local\Temp\ccKAsNbo.s 			page 26


 952 017d E1030000 		.4byte	.LASF26
 953 0181 06       		.byte	0x6
 954 0182 0503     		.2byte	0x305
 955 0184 11       		.byte	0x11
 956 0185 B8000000 		.4byte	0xb8
 957 0189 02       		.byte	0x2
 958 018a 23       		.byte	0x23
 959 018b 1C       		.uleb128 0x1c
 960 018c 0D       		.uleb128 0xd
 961 018d 57030000 		.4byte	.LASF27
 962 0191 06       		.byte	0x6
 963 0192 0603     		.2byte	0x306
 964 0194 11       		.byte	0x11
 965 0195 B8000000 		.4byte	0xb8
 966 0199 02       		.byte	0x2
 967 019a 23       		.byte	0x23
 968 019b 20       		.uleb128 0x20
 969 019c 0D       		.uleb128 0xd
 970 019d 4D020000 		.4byte	.LASF28
 971 01a1 06       		.byte	0x6
 972 01a2 0703     		.2byte	0x307
 973 01a4 11       		.byte	0x11
 974 01a5 B8000000 		.4byte	0xb8
 975 01a9 02       		.byte	0x2
 976 01aa 23       		.byte	0x23
 977 01ab 24       		.uleb128 0x24
 978 01ac 0D       		.uleb128 0xd
 979 01ad 1F000000 		.4byte	.LASF29
 980 01b1 06       		.byte	0x6
 981 01b2 0803     		.2byte	0x308
 982 01b4 11       		.byte	0x11
 983 01b5 B8000000 		.4byte	0xb8
 984 01b9 02       		.byte	0x2
 985 01ba 23       		.byte	0x23
 986 01bb 28       		.uleb128 0x28
 987 01bc 0D       		.uleb128 0xd
 988 01bd 69010000 		.4byte	.LASF30
 989 01c1 06       		.byte	0x6
 990 01c2 0903     		.2byte	0x309
 991 01c4 11       		.byte	0x11
 992 01c5 B8000000 		.4byte	0xb8
 993 01c9 02       		.byte	0x2
 994 01ca 23       		.byte	0x23
 995 01cb 2C       		.uleb128 0x2c
 996 01cc 0D       		.uleb128 0xd
 997 01cd 6E010000 		.4byte	.LASF31
 998 01d1 06       		.byte	0x6
 999 01d2 0A03     		.2byte	0x30a
 1000 01d4 11       		.byte	0x11
 1001 01d5 B8000000 		.4byte	0xb8
 1002 01d9 02       		.byte	0x2
 1003 01da 23       		.byte	0x23
 1004 01db 30       		.uleb128 0x30
 1005 01dc 00       		.byte	0
 1006 01dd 0A       		.uleb128 0xa
 1007 01de C1030000 		.4byte	.LASF32
 1008 01e2 06       		.byte	0x6
ARM GAS  C:\Users\skey\AppData\Local\Temp\ccKAsNbo.s 			page 27


 1009 01e3 0E03     		.2byte	0x30e
 1010 01e5 03       		.byte	0x3
 1011 01e6 03010000 		.4byte	0x103
 1012 01ea 0E       		.uleb128 0xe
 1013 01eb 10       		.byte	0x10
 1014 01ec 07       		.byte	0x7
 1015 01ed 32       		.byte	0x32
 1016 01ee 09       		.byte	0x9
 1017 01ef 30020000 		.4byte	0x230
 1018 01f3 0F       		.uleb128 0xf
 1019 01f4 55020000 		.4byte	.LASF33
 1020 01f8 07       		.byte	0x7
 1021 01f9 34       		.byte	0x34
 1022 01fa 0C       		.byte	0xc
 1023 01fb AC000000 		.4byte	0xac
 1024 01ff 02       		.byte	0x2
 1025 0200 23       		.byte	0x23
 1026 0201 00       		.uleb128 0
 1027 0202 0F       		.uleb128 0xf
 1028 0203 E8030000 		.4byte	.LASF34
 1029 0207 07       		.byte	0x7
 1030 0208 37       		.byte	0x37
 1031 0209 0C       		.byte	0xc
 1032 020a AC000000 		.4byte	0xac
 1033 020e 02       		.byte	0x2
 1034 020f 23       		.byte	0x23
 1035 0210 04       		.uleb128 0x4
 1036 0211 0F       		.uleb128 0xf
 1037 0212 CA020000 		.4byte	.LASF35
 1038 0216 07       		.byte	0x7
 1039 0217 3B       		.byte	0x3b
 1040 0218 0C       		.byte	0xc
 1041 0219 AC000000 		.4byte	0xac
 1042 021d 02       		.byte	0x2
 1043 021e 23       		.byte	0x23
 1044 021f 08       		.uleb128 0x8
 1045 0220 0F       		.uleb128 0xf
 1046 0221 4D010000 		.4byte	.LASF36
 1047 0225 07       		.byte	0x7
 1048 0226 3F       		.byte	0x3f
 1049 0227 0C       		.byte	0xc
 1050 0228 AC000000 		.4byte	0xac
 1051 022c 02       		.byte	0x2
 1052 022d 23       		.byte	0x23
 1053 022e 0C       		.uleb128 0xc
 1054 022f 00       		.byte	0
 1055 0230 03       		.uleb128 0x3
 1056 0231 3C030000 		.4byte	.LASF37
 1057 0235 07       		.byte	0x7
 1058 0236 41       		.byte	0x41
 1059 0237 02       		.byte	0x2
 1060 0238 EA010000 		.4byte	0x1ea
 1061 023c 10       		.uleb128 0x10
 1062 023d 01       		.byte	0x1
 1063 023e 08000000 		.4byte	.LASF63
 1064 0242 01       		.byte	0x1
 1065 0243 AE01     		.2byte	0x1ae
ARM GAS  C:\Users\skey\AppData\Local\Temp\ccKAsNbo.s 			page 28


 1066 0245 0A       		.byte	0xa
 1067 0246 01       		.byte	0x1
 1068 0247 A0000000 		.4byte	0xa0
 1069 024b 34010000 		.4byte	.LFB40
 1070 024f 58010000 		.4byte	.LFE40
 1071 0253 00000000 		.4byte	.LLST16
 1072 0257 01       		.byte	0x1
 1073 0258 82020000 		.4byte	0x282
 1074 025c 11       		.uleb128 0x11
 1075 025d 75020000 		.4byte	.LASF40
 1076 0261 01       		.byte	0x1
 1077 0262 AE01     		.2byte	0x1ae
 1078 0264 2A       		.byte	0x2a
 1079 0265 AC000000 		.4byte	0xac
 1080 0269 30000000 		.4byte	.LLST17
 1081 026d 2C000000 		.4byte	.LVUS17
 1082 0271 12       		.uleb128 0x12
 1083 0272 746D7000 		.ascii	"tmp\000"
 1084 0276 01       		.byte	0x1
 1085 0277 B001     		.2byte	0x1b0
 1086 0279 11       		.byte	0x11
 1087 027a B8000000 		.4byte	0xb8
 1088 027e 02       		.byte	0x2
 1089 027f 91       		.byte	0x91
 1090 0280 7C       		.sleb128 -4
 1091 0281 00       		.byte	0
 1092 0282 13       		.uleb128 0x13
 1093 0283 01       		.byte	0x1
 1094 0284 B2010000 		.4byte	.LASF43
 1095 0288 01       		.byte	0x1
 1096 0289 8C01     		.2byte	0x18c
 1097 028b 06       		.byte	0x6
 1098 028c 01       		.byte	0x1
 1099 028d 1C010000 		.4byte	.LFB39
 1100 0291 34010000 		.4byte	.LFE39
 1101 0295 02       		.byte	0x2
 1102 0296 7D       		.byte	0x7d
 1103 0297 00       		.sleb128 0
 1104 0298 01       		.byte	0x1
 1105 0299 FB020000 		.4byte	0x2fb
 1106 029d 14       		.uleb128 0x14
 1107 029e EB020000 		.4byte	.LASF38
 1108 02a2 01       		.byte	0x1
 1109 02a3 8C01     		.2byte	0x18c
 1110 02a5 26       		.byte	0x26
 1111 02a6 AC000000 		.4byte	0xac
 1112 02aa 01       		.byte	0x1
 1113 02ab 50       		.byte	0x50
 1114 02ac 14       		.uleb128 0x14
 1115 02ad 4C030000 		.4byte	.LASF39
 1116 02b1 01       		.byte	0x1
 1117 02b2 8C01     		.2byte	0x18c
 1118 02b4 3A       		.byte	0x3a
 1119 02b5 A0000000 		.4byte	0xa0
 1120 02b9 01       		.byte	0x1
 1121 02ba 51       		.byte	0x51
 1122 02bb 11       		.uleb128 0x11
ARM GAS  C:\Users\skey\AppData\Local\Temp\ccKAsNbo.s 			page 29


 1123 02bc AE030000 		.4byte	.LASF41
 1124 02c0 01       		.byte	0x1
 1125 02c1 8C01     		.2byte	0x18c
 1126 02c3 4A       		.byte	0x4a
 1127 02c4 A0000000 		.4byte	0xa0
 1128 02c8 55000000 		.4byte	.LLST13
 1129 02cc 51000000 		.4byte	.LVUS13
 1130 02d0 15       		.uleb128 0x15
 1131 02d1 52030000 		.4byte	.LASF42
 1132 02d5 01       		.byte	0x1
 1133 02d6 8E01     		.2byte	0x18e
 1134 02d8 0C       		.byte	0xc
 1135 02d9 AC000000 		.4byte	0xac
 1136 02dd 7A000000 		.4byte	.LLST14
 1137 02e1 76000000 		.4byte	.LVUS14
 1138 02e5 16       		.uleb128 0x16
 1139 02e6 746D7000 		.ascii	"tmp\000"
 1140 02ea 01       		.byte	0x1
 1141 02eb 8E01     		.2byte	0x18e
 1142 02ed 16       		.byte	0x16
 1143 02ee AC000000 		.4byte	0xac
 1144 02f2 9F000000 		.4byte	.LLST15
 1145 02f6 99000000 		.4byte	.LVUS15
 1146 02fa 00       		.byte	0
 1147 02fb 17       		.uleb128 0x17
 1148 02fc 01       		.byte	0x1
 1149 02fd 81030000 		.4byte	.LASF44
 1150 0301 01       		.byte	0x1
 1151 0302 6F01     		.2byte	0x16f
 1152 0304 06       		.byte	0x6
 1153 0305 01       		.byte	0x1
 1154 0306 FC000000 		.4byte	.LFB38
 1155 030a 1C010000 		.4byte	.LFE38
 1156 030e D4000000 		.4byte	.LLST12
 1157 0312 01       		.byte	0x1
 1158 0313 46030000 		.4byte	0x346
 1159 0317 14       		.uleb128 0x14
 1160 0318 EB020000 		.4byte	.LASF38
 1161 031c 01       		.byte	0x1
 1162 031d 6F01     		.2byte	0x16f
 1163 031f 23       		.byte	0x23
 1164 0320 AC000000 		.4byte	0xac
 1165 0324 01       		.byte	0x1
 1166 0325 50       		.byte	0x50
 1167 0326 14       		.uleb128 0x14
 1168 0327 DC010000 		.4byte	.LASF45
 1169 032b 01       		.byte	0x1
 1170 032c 6F01     		.2byte	0x16f
 1171 032e 37       		.byte	0x37
 1172 032f A0000000 		.4byte	0xa0
 1173 0333 01       		.byte	0x1
 1174 0334 51       		.byte	0x51
 1175 0335 12       		.uleb128 0x12
 1176 0336 746D7000 		.ascii	"tmp\000"
 1177 033a 01       		.byte	0x1
 1178 033b 7101     		.2byte	0x171
 1179 033d 11       		.byte	0x11
ARM GAS  C:\Users\skey\AppData\Local\Temp\ccKAsNbo.s 			page 30


 1180 033e B8000000 		.4byte	0xb8
 1181 0342 02       		.byte	0x2
 1182 0343 91       		.byte	0x91
 1183 0344 7C       		.sleb128 -4
 1184 0345 00       		.byte	0
 1185 0346 17       		.uleb128 0x17
 1186 0347 01       		.byte	0x1
 1187 0348 E1010000 		.4byte	.LASF46
 1188 034c 01       		.byte	0x1
 1189 034d 5601     		.2byte	0x156
 1190 034f 06       		.byte	0x6
 1191 0350 01       		.byte	0x1
 1192 0351 DC000000 		.4byte	.LFB37
 1193 0355 FC000000 		.4byte	.LFE37
 1194 0359 00010000 		.4byte	.LLST11
 1195 035d 01       		.byte	0x1
 1196 035e 91030000 		.4byte	0x391
 1197 0362 14       		.uleb128 0x14
 1198 0363 EB020000 		.4byte	.LASF38
 1199 0367 01       		.byte	0x1
 1200 0368 5601     		.2byte	0x156
 1201 036a 23       		.byte	0x23
 1202 036b AC000000 		.4byte	0xac
 1203 036f 01       		.byte	0x1
 1204 0370 50       		.byte	0x50
 1205 0371 14       		.uleb128 0x14
 1206 0372 DC010000 		.4byte	.LASF45
 1207 0376 01       		.byte	0x1
 1208 0377 5601     		.2byte	0x156
 1209 0379 37       		.byte	0x37
 1210 037a A0000000 		.4byte	0xa0
 1211 037e 01       		.byte	0x1
 1212 037f 51       		.byte	0x51
 1213 0380 12       		.uleb128 0x12
 1214 0381 746D7000 		.ascii	"tmp\000"
 1215 0385 01       		.byte	0x1
 1216 0386 5801     		.2byte	0x158
 1217 0388 11       		.byte	0x11
 1218 0389 B8000000 		.4byte	0xb8
 1219 038d 02       		.byte	0x2
 1220 038e 91       		.byte	0x91
 1221 038f 7C       		.sleb128 -4
 1222 0390 00       		.byte	0
 1223 0391 13       		.uleb128 0x13
 1224 0392 01       		.byte	0x1
 1225 0393 8A000000 		.4byte	.LASF47
 1226 0397 01       		.byte	0x1
 1227 0398 3A01     		.2byte	0x13a
 1228 039a 06       		.byte	0x6
 1229 039b 01       		.byte	0x1
 1230 039c C4000000 		.4byte	.LFB36
 1231 03a0 DC000000 		.4byte	.LFE36
 1232 03a4 02       		.byte	0x2
 1233 03a5 7D       		.byte	0x7d
 1234 03a6 00       		.sleb128 0
 1235 03a7 01       		.byte	0x1
 1236 03a8 E6030000 		.4byte	0x3e6
ARM GAS  C:\Users\skey\AppData\Local\Temp\ccKAsNbo.s 			page 31


 1237 03ac 11       		.uleb128 0x11
 1238 03ad 75020000 		.4byte	.LASF40
 1239 03b1 01       		.byte	0x1
 1240 03b2 3A01     		.2byte	0x13a
 1241 03b4 25       		.byte	0x25
 1242 03b5 AC000000 		.4byte	0xac
 1243 03b9 30010000 		.4byte	.LLST9
 1244 03bd 2C010000 		.4byte	.LVUS9
 1245 03c1 11       		.uleb128 0x11
 1246 03c2 C9010000 		.4byte	.LASF48
 1247 03c6 01       		.byte	0x1
 1248 03c7 3A01     		.2byte	0x13a
 1249 03c9 3B       		.byte	0x3b
 1250 03ca AC000000 		.4byte	0xac
 1251 03ce 55010000 		.4byte	.LLST10
 1252 03d2 51010000 		.4byte	.LVUS10
 1253 03d6 14       		.uleb128 0x14
 1254 03d7 73010000 		.4byte	.LASF49
 1255 03db 01       		.byte	0x1
 1256 03dc 3A01     		.2byte	0x13a
 1257 03de 55       		.byte	0x55
 1258 03df F6000000 		.4byte	0xf6
 1259 03e3 01       		.byte	0x1
 1260 03e4 52       		.byte	0x52
 1261 03e5 00       		.byte	0
 1262 03e6 13       		.uleb128 0x13
 1263 03e7 01       		.byte	0x1
 1264 03e8 A7020000 		.4byte	.LASF50
 1265 03ec 01       		.byte	0x1
 1266 03ed 1C01     		.2byte	0x11c
 1267 03ef 06       		.byte	0x6
 1268 03f0 01       		.byte	0x1
 1269 03f1 AC000000 		.4byte	.LFB35
 1270 03f5 C4000000 		.4byte	.LFE35
 1271 03f9 02       		.byte	0x2
 1272 03fa 7D       		.byte	0x7d
 1273 03fb 00       		.sleb128 0
 1274 03fc 01       		.byte	0x1
 1275 03fd 11040000 		.4byte	0x411
 1276 0401 14       		.uleb128 0x14
 1277 0402 73010000 		.4byte	.LASF49
 1278 0406 01       		.byte	0x1
 1279 0407 1C01     		.2byte	0x11c
 1280 0409 31       		.byte	0x31
 1281 040a F6000000 		.4byte	0xf6
 1282 040e 01       		.byte	0x1
 1283 040f 50       		.byte	0x50
 1284 0410 00       		.byte	0
 1285 0411 13       		.uleb128 0x13
 1286 0412 01       		.byte	0x1
 1287 0413 36000000 		.4byte	.LASF51
 1288 0417 01       		.byte	0x1
 1289 0418 0401     		.2byte	0x104
 1290 041a 06       		.byte	0x6
 1291 041b 01       		.byte	0x1
 1292 041c 90000000 		.4byte	.LFB34
 1293 0420 AC000000 		.4byte	.LFE34
ARM GAS  C:\Users\skey\AppData\Local\Temp\ccKAsNbo.s 			page 32


 1294 0424 02       		.byte	0x2
 1295 0425 7D       		.byte	0x7d
 1296 0426 00       		.sleb128 0
 1297 0427 01       		.byte	0x1
 1298 0428 51040000 		.4byte	0x451
 1299 042c 11       		.uleb128 0x11
 1300 042d 75020000 		.4byte	.LASF40
 1301 0431 01       		.byte	0x1
 1302 0432 0401     		.2byte	0x104
 1303 0434 26       		.byte	0x26
 1304 0435 AC000000 		.4byte	0xac
 1305 0439 7A010000 		.4byte	.LLST8
 1306 043d 76010000 		.4byte	.LVUS8
 1307 0441 14       		.uleb128 0x14
 1308 0442 73010000 		.4byte	.LASF49
 1309 0446 01       		.byte	0x1
 1310 0447 0401     		.2byte	0x104
 1311 0449 43       		.byte	0x43
 1312 044a F6000000 		.4byte	0xf6
 1313 044e 01       		.byte	0x1
 1314 044f 51       		.byte	0x51
 1315 0450 00       		.byte	0
 1316 0451 18       		.uleb128 0x18
 1317 0452 01       		.byte	0x1
 1318 0453 6A020000 		.4byte	.LASF52
 1319 0457 01       		.byte	0x1
 1320 0458 E9       		.byte	0xe9
 1321 0459 06       		.byte	0x6
 1322 045a 01       		.byte	0x1
 1323 045b 70000000 		.4byte	.LFB33
 1324 045f 90000000 		.4byte	.LFE33
 1325 0463 02       		.byte	0x2
 1326 0464 7D       		.byte	0x7d
 1327 0465 00       		.sleb128 0
 1328 0466 01       		.byte	0x1
 1329 0467 8E040000 		.4byte	0x48e
 1330 046b 19       		.uleb128 0x19
 1331 046c 75020000 		.4byte	.LASF40
 1332 0470 01       		.byte	0x1
 1333 0471 E9       		.byte	0xe9
 1334 0472 1A       		.byte	0x1a
 1335 0473 AC000000 		.4byte	0xac
 1336 0477 9F010000 		.4byte	.LLST7
 1337 047b 9B010000 		.4byte	.LVUS7
 1338 047f 1A       		.uleb128 0x1a
 1339 0480 73010000 		.4byte	.LASF49
 1340 0484 01       		.byte	0x1
 1341 0485 E9       		.byte	0xe9
 1342 0486 37       		.byte	0x37
 1343 0487 F6000000 		.4byte	0xf6
 1344 048b 01       		.byte	0x1
 1345 048c 51       		.byte	0x51
 1346 048d 00       		.byte	0
 1347 048e 18       		.uleb128 0x18
 1348 048f 01       		.byte	0x1
 1349 0490 95030000 		.4byte	.LASF53
 1350 0494 01       		.byte	0x1
ARM GAS  C:\Users\skey\AppData\Local\Temp\ccKAsNbo.s 			page 33


 1351 0495 AD       		.byte	0xad
 1352 0496 06       		.byte	0x6
 1353 0497 01       		.byte	0x1
 1354 0498 54000000 		.4byte	.LFB32
 1355 049c 70000000 		.4byte	.LFE32
 1356 04a0 02       		.byte	0x2
 1357 04a1 7D       		.byte	0x7d
 1358 04a2 00       		.sleb128 0
 1359 04a3 01       		.byte	0x1
 1360 04a4 CB040000 		.4byte	0x4cb
 1361 04a8 19       		.uleb128 0x19
 1362 04a9 75020000 		.4byte	.LASF40
 1363 04ad 01       		.byte	0x1
 1364 04ae AD       		.byte	0xad
 1365 04af 17       		.byte	0x17
 1366 04b0 AC000000 		.4byte	0xac
 1367 04b4 C4010000 		.4byte	.LLST6
 1368 04b8 C0010000 		.4byte	.LVUS6
 1369 04bc 1A       		.uleb128 0x1a
 1370 04bd 73010000 		.4byte	.LASF49
 1371 04c1 01       		.byte	0x1
 1372 04c2 AD       		.byte	0xad
 1373 04c3 34       		.byte	0x34
 1374 04c4 F6000000 		.4byte	0xf6
 1375 04c8 01       		.byte	0x1
 1376 04c9 51       		.byte	0x51
 1377 04ca 00       		.byte	0
 1378 04cb 18       		.uleb128 0x18
 1379 04cc 01       		.byte	0x1
 1380 04cd 12020000 		.4byte	.LASF54
 1381 04d1 01       		.byte	0x1
 1382 04d2 96       		.byte	0x96
 1383 04d3 06       		.byte	0x6
 1384 04d4 01       		.byte	0x1
 1385 04d5 48000000 		.4byte	.LFB31
 1386 04d9 54000000 		.4byte	.LFE31
 1387 04dd 02       		.byte	0x2
 1388 04de 7D       		.byte	0x7d
 1389 04df 00       		.sleb128 0
 1390 04e0 01       		.byte	0x1
 1391 04e1 F4040000 		.4byte	0x4f4
 1392 04e5 1A       		.uleb128 0x1a
 1393 04e6 F5010000 		.4byte	.LASF55
 1394 04ea 01       		.byte	0x1
 1395 04eb 96       		.byte	0x96
 1396 04ec 26       		.byte	0x26
 1397 04ed F4040000 		.4byte	0x4f4
 1398 04f1 01       		.byte	0x1
 1399 04f2 50       		.byte	0x50
 1400 04f3 00       		.byte	0
 1401 04f4 1B       		.uleb128 0x1b
 1402 04f5 04       		.byte	0x4
 1403 04f6 30020000 		.4byte	0x230
 1404 04fa 1C       		.uleb128 0x1c
 1405 04fb 01       		.byte	0x1
 1406 04fc A5030000 		.4byte	.LASF56
 1407 0500 01       		.byte	0x1
ARM GAS  C:\Users\skey\AppData\Local\Temp\ccKAsNbo.s 			page 34


 1408 0501 75       		.byte	0x75
 1409 0502 06       		.byte	0x6
 1410 0503 01       		.byte	0x1
 1411 0504 1A000000 		.4byte	.LFB30
 1412 0508 48000000 		.4byte	.LFE30
 1413 050c E5010000 		.4byte	.LLST1
 1414 0510 01       		.byte	0x1
 1415 0511 66050000 		.4byte	0x566
 1416 0515 19       		.uleb128 0x19
 1417 0516 75020000 		.4byte	.LASF40
 1418 051a 01       		.byte	0x1
 1419 051b 75       		.byte	0x75
 1420 051c 18       		.byte	0x18
 1421 051d AC000000 		.4byte	0xac
 1422 0521 09020000 		.4byte	.LLST2
 1423 0525 05020000 		.4byte	.LVUS2
 1424 0529 19       		.uleb128 0x19
 1425 052a F5010000 		.4byte	.LASF55
 1426 052e 01       		.byte	0x1
 1427 052f 75       		.byte	0x75
 1428 0530 36       		.byte	0x36
 1429 0531 F4040000 		.4byte	0x4f4
 1430 0535 2E020000 		.4byte	.LLST3
 1431 0539 2A020000 		.4byte	.LVUS3
 1432 053d 1D       		.uleb128 0x1d
 1433 053e 00000000 		.4byte	.LASF57
 1434 0542 01       		.byte	0x1
 1435 0543 77       		.byte	0x77
 1436 0544 0C       		.byte	0xc
 1437 0545 AC000000 		.4byte	0xac
 1438 0549 55020000 		.4byte	.LLST4
 1439 054d 4F020000 		.4byte	.LVUS4
 1440 0551 1D       		.uleb128 0x1d
 1441 0552 C2020000 		.4byte	.LASF58
 1442 0556 01       		.byte	0x1
 1443 0557 77       		.byte	0x77
 1444 0558 19       		.byte	0x19
 1445 0559 AC000000 		.4byte	0xac
 1446 055d 85020000 		.4byte	.LLST5
 1447 0561 7F020000 		.4byte	.LVUS5
 1448 0565 00       		.byte	0
 1449 0566 1C       		.uleb128 0x1c
 1450 0567 01       		.byte	0x1
 1451 0568 81020000 		.4byte	.LASF59
 1452 056c 01       		.byte	0x1
 1453 056d 62       		.byte	0x62
 1454 056e 06       		.byte	0x6
 1455 056f 01       		.byte	0x1
 1456 0570 00000000 		.4byte	.LFB29
 1457 0574 1A000000 		.4byte	.LFE29
 1458 0578 CF020000 		.4byte	.LLST0
 1459 057c 01       		.byte	0x1
 1460 057d B3050000 		.4byte	0x5b3
 1461 0581 1E       		.uleb128 0x1e
 1462 0582 0C000000 		.4byte	.LVL0
 1463 0586 B3050000 		.4byte	0x5b3
 1464 058a 9B050000 		.4byte	0x59b
ARM GAS  C:\Users\skey\AppData\Local\Temp\ccKAsNbo.s 			page 35


 1465 058e 1F       		.uleb128 0x1f
 1466 058f 01       		.byte	0x1
 1467 0590 50       		.byte	0x50
 1468 0591 03       		.byte	0x3
 1469 0592 40       		.byte	0x40
 1470 0593 49       		.byte	0x49
 1471 0594 24       		.byte	0x24
 1472 0595 1F       		.uleb128 0x1f
 1473 0596 01       		.byte	0x1
 1474 0597 51       		.byte	0x51
 1475 0598 01       		.byte	0x1
 1476 0599 31       		.byte	0x31
 1477 059a 00       		.byte	0
 1478 059b 20       		.uleb128 0x20
 1479 059c 1A000000 		.4byte	.LVL1
 1480 05a0 01       		.byte	0x1
 1481 05a1 B3050000 		.4byte	0x5b3
 1482 05a5 1F       		.uleb128 0x1f
 1483 05a6 01       		.byte	0x1
 1484 05a7 50       		.byte	0x50
 1485 05a8 03       		.byte	0x3
 1486 05a9 40       		.byte	0x40
 1487 05aa 49       		.byte	0x49
 1488 05ab 24       		.byte	0x24
 1489 05ac 1F       		.uleb128 0x1f
 1490 05ad 01       		.byte	0x1
 1491 05ae 51       		.byte	0x51
 1492 05af 01       		.byte	0x1
 1493 05b0 30       		.byte	0x30
 1494 05b1 00       		.byte	0
 1495 05b2 00       		.byte	0
 1496 05b3 21       		.uleb128 0x21
 1497 05b4 01       		.byte	0x1
 1498 05b5 01       		.byte	0x1
 1499 05b6 92010000 		.4byte	.LASF64
 1500 05ba 92010000 		.4byte	.LASF64
 1501 05be 08       		.byte	0x8
 1502 05bf BD02     		.2byte	0x2bd
 1503 05c1 06       		.byte	0x6
 1504 05c2 00       		.byte	0
 1505              		.section	.debug_abbrev,"",%progbits
 1506              	.Ldebug_abbrev0:
 1507 0000 01       		.uleb128 0x1
 1508 0001 11       		.uleb128 0x11
 1509 0002 01       		.byte	0x1
 1510 0003 25       		.uleb128 0x25
 1511 0004 0E       		.uleb128 0xe
 1512 0005 13       		.uleb128 0x13
 1513 0006 0B       		.uleb128 0xb
 1514 0007 03       		.uleb128 0x3
 1515 0008 0E       		.uleb128 0xe
 1516 0009 1B       		.uleb128 0x1b
 1517 000a 0E       		.uleb128 0xe
 1518 000b 11       		.uleb128 0x11
 1519 000c 01       		.uleb128 0x1
 1520 000d 12       		.uleb128 0x12
 1521 000e 01       		.uleb128 0x1
ARM GAS  C:\Users\skey\AppData\Local\Temp\ccKAsNbo.s 			page 36


 1522 000f 10       		.uleb128 0x10
 1523 0010 06       		.uleb128 0x6
 1524 0011 00       		.byte	0
 1525 0012 00       		.byte	0
 1526 0013 02       		.uleb128 0x2
 1527 0014 24       		.uleb128 0x24
 1528 0015 00       		.byte	0
 1529 0016 0B       		.uleb128 0xb
 1530 0017 0B       		.uleb128 0xb
 1531 0018 3E       		.uleb128 0x3e
 1532 0019 0B       		.uleb128 0xb
 1533 001a 03       		.uleb128 0x3
 1534 001b 0E       		.uleb128 0xe
 1535 001c 00       		.byte	0
 1536 001d 00       		.byte	0
 1537 001e 03       		.uleb128 0x3
 1538 001f 16       		.uleb128 0x16
 1539 0020 00       		.byte	0
 1540 0021 03       		.uleb128 0x3
 1541 0022 0E       		.uleb128 0xe
 1542 0023 3A       		.uleb128 0x3a
 1543 0024 0B       		.uleb128 0xb
 1544 0025 3B       		.uleb128 0x3b
 1545 0026 0B       		.uleb128 0xb
 1546 0027 39       		.uleb128 0x39
 1547 0028 0B       		.uleb128 0xb
 1548 0029 49       		.uleb128 0x49
 1549 002a 13       		.uleb128 0x13
 1550 002b 00       		.byte	0
 1551 002c 00       		.byte	0
 1552 002d 04       		.uleb128 0x4
 1553 002e 24       		.uleb128 0x24
 1554 002f 00       		.byte	0
 1555 0030 0B       		.uleb128 0xb
 1556 0031 0B       		.uleb128 0xb
 1557 0032 3E       		.uleb128 0x3e
 1558 0033 0B       		.uleb128 0xb
 1559 0034 03       		.uleb128 0x3
 1560 0035 08       		.uleb128 0x8
 1561 0036 00       		.byte	0
 1562 0037 00       		.byte	0
 1563 0038 05       		.uleb128 0x5
 1564 0039 35       		.uleb128 0x35
 1565 003a 00       		.byte	0
 1566 003b 49       		.uleb128 0x49
 1567 003c 13       		.uleb128 0x13
 1568 003d 00       		.byte	0
 1569 003e 00       		.byte	0
 1570 003f 06       		.uleb128 0x6
 1571 0040 34       		.uleb128 0x34
 1572 0041 00       		.byte	0
 1573 0042 03       		.uleb128 0x3
 1574 0043 0E       		.uleb128 0xe
 1575 0044 3A       		.uleb128 0x3a
 1576 0045 0B       		.uleb128 0xb
 1577 0046 3B       		.uleb128 0x3b
 1578 0047 05       		.uleb128 0x5
ARM GAS  C:\Users\skey\AppData\Local\Temp\ccKAsNbo.s 			page 37


 1579 0048 39       		.uleb128 0x39
 1580 0049 0B       		.uleb128 0xb
 1581 004a 49       		.uleb128 0x49
 1582 004b 13       		.uleb128 0x13
 1583 004c 3F       		.uleb128 0x3f
 1584 004d 0C       		.uleb128 0xc
 1585 004e 3C       		.uleb128 0x3c
 1586 004f 0C       		.uleb128 0xc
 1587 0050 00       		.byte	0
 1588 0051 00       		.byte	0
 1589 0052 07       		.uleb128 0x7
 1590 0053 34       		.uleb128 0x34
 1591 0054 00       		.byte	0
 1592 0055 03       		.uleb128 0x3
 1593 0056 0E       		.uleb128 0xe
 1594 0057 3A       		.uleb128 0x3a
 1595 0058 0B       		.uleb128 0xb
 1596 0059 3B       		.uleb128 0x3b
 1597 005a 0B       		.uleb128 0xb
 1598 005b 39       		.uleb128 0x39
 1599 005c 0B       		.uleb128 0xb
 1600 005d 49       		.uleb128 0x49
 1601 005e 13       		.uleb128 0x13
 1602 005f 3F       		.uleb128 0x3f
 1603 0060 0C       		.uleb128 0xc
 1604 0061 3C       		.uleb128 0x3c
 1605 0062 0C       		.uleb128 0xc
 1606 0063 00       		.byte	0
 1607 0064 00       		.byte	0
 1608 0065 08       		.uleb128 0x8
 1609 0066 04       		.uleb128 0x4
 1610 0067 01       		.byte	0x1
 1611 0068 3E       		.uleb128 0x3e
 1612 0069 0B       		.uleb128 0xb
 1613 006a 0B       		.uleb128 0xb
 1614 006b 0B       		.uleb128 0xb
 1615 006c 49       		.uleb128 0x49
 1616 006d 13       		.uleb128 0x13
 1617 006e 3A       		.uleb128 0x3a
 1618 006f 0B       		.uleb128 0xb
 1619 0070 3B       		.uleb128 0x3b
 1620 0071 05       		.uleb128 0x5
 1621 0072 39       		.uleb128 0x39
 1622 0073 0B       		.uleb128 0xb
 1623 0074 01       		.uleb128 0x1
 1624 0075 13       		.uleb128 0x13
 1625 0076 00       		.byte	0
 1626 0077 00       		.byte	0
 1627 0078 09       		.uleb128 0x9
 1628 0079 28       		.uleb128 0x28
 1629 007a 00       		.byte	0
 1630 007b 03       		.uleb128 0x3
 1631 007c 0E       		.uleb128 0xe
 1632 007d 1C       		.uleb128 0x1c
 1633 007e 0B       		.uleb128 0xb
 1634 007f 00       		.byte	0
 1635 0080 00       		.byte	0
ARM GAS  C:\Users\skey\AppData\Local\Temp\ccKAsNbo.s 			page 38


 1636 0081 0A       		.uleb128 0xa
 1637 0082 16       		.uleb128 0x16
 1638 0083 00       		.byte	0
 1639 0084 03       		.uleb128 0x3
 1640 0085 0E       		.uleb128 0xe
 1641 0086 3A       		.uleb128 0x3a
 1642 0087 0B       		.uleb128 0xb
 1643 0088 3B       		.uleb128 0x3b
 1644 0089 05       		.uleb128 0x5
 1645 008a 39       		.uleb128 0x39
 1646 008b 0B       		.uleb128 0xb
 1647 008c 49       		.uleb128 0x49
 1648 008d 13       		.uleb128 0x13
 1649 008e 00       		.byte	0
 1650 008f 00       		.byte	0
 1651 0090 0B       		.uleb128 0xb
 1652 0091 13       		.uleb128 0x13
 1653 0092 01       		.byte	0x1
 1654 0093 0B       		.uleb128 0xb
 1655 0094 0B       		.uleb128 0xb
 1656 0095 3A       		.uleb128 0x3a
 1657 0096 0B       		.uleb128 0xb
 1658 0097 3B       		.uleb128 0x3b
 1659 0098 05       		.uleb128 0x5
 1660 0099 39       		.uleb128 0x39
 1661 009a 0B       		.uleb128 0xb
 1662 009b 01       		.uleb128 0x1
 1663 009c 13       		.uleb128 0x13
 1664 009d 00       		.byte	0
 1665 009e 00       		.byte	0
 1666 009f 0C       		.uleb128 0xc
 1667 00a0 0D       		.uleb128 0xd
 1668 00a1 00       		.byte	0
 1669 00a2 03       		.uleb128 0x3
 1670 00a3 08       		.uleb128 0x8
 1671 00a4 3A       		.uleb128 0x3a
 1672 00a5 0B       		.uleb128 0xb
 1673 00a6 3B       		.uleb128 0x3b
 1674 00a7 05       		.uleb128 0x5
 1675 00a8 39       		.uleb128 0x39
 1676 00a9 0B       		.uleb128 0xb
 1677 00aa 49       		.uleb128 0x49
 1678 00ab 13       		.uleb128 0x13
 1679 00ac 38       		.uleb128 0x38
 1680 00ad 0A       		.uleb128 0xa
 1681 00ae 00       		.byte	0
 1682 00af 00       		.byte	0
 1683 00b0 0D       		.uleb128 0xd
 1684 00b1 0D       		.uleb128 0xd
 1685 00b2 00       		.byte	0
 1686 00b3 03       		.uleb128 0x3
 1687 00b4 0E       		.uleb128 0xe
 1688 00b5 3A       		.uleb128 0x3a
 1689 00b6 0B       		.uleb128 0xb
 1690 00b7 3B       		.uleb128 0x3b
 1691 00b8 05       		.uleb128 0x5
 1692 00b9 39       		.uleb128 0x39
ARM GAS  C:\Users\skey\AppData\Local\Temp\ccKAsNbo.s 			page 39


 1693 00ba 0B       		.uleb128 0xb
 1694 00bb 49       		.uleb128 0x49
 1695 00bc 13       		.uleb128 0x13
 1696 00bd 38       		.uleb128 0x38
 1697 00be 0A       		.uleb128 0xa
 1698 00bf 00       		.byte	0
 1699 00c0 00       		.byte	0
 1700 00c1 0E       		.uleb128 0xe
 1701 00c2 13       		.uleb128 0x13
 1702 00c3 01       		.byte	0x1
 1703 00c4 0B       		.uleb128 0xb
 1704 00c5 0B       		.uleb128 0xb
 1705 00c6 3A       		.uleb128 0x3a
 1706 00c7 0B       		.uleb128 0xb
 1707 00c8 3B       		.uleb128 0x3b
 1708 00c9 0B       		.uleb128 0xb
 1709 00ca 39       		.uleb128 0x39
 1710 00cb 0B       		.uleb128 0xb
 1711 00cc 01       		.uleb128 0x1
 1712 00cd 13       		.uleb128 0x13
 1713 00ce 00       		.byte	0
 1714 00cf 00       		.byte	0
 1715 00d0 0F       		.uleb128 0xf
 1716 00d1 0D       		.uleb128 0xd
 1717 00d2 00       		.byte	0
 1718 00d3 03       		.uleb128 0x3
 1719 00d4 0E       		.uleb128 0xe
 1720 00d5 3A       		.uleb128 0x3a
 1721 00d6 0B       		.uleb128 0xb
 1722 00d7 3B       		.uleb128 0x3b
 1723 00d8 0B       		.uleb128 0xb
 1724 00d9 39       		.uleb128 0x39
 1725 00da 0B       		.uleb128 0xb
 1726 00db 49       		.uleb128 0x49
 1727 00dc 13       		.uleb128 0x13
 1728 00dd 38       		.uleb128 0x38
 1729 00de 0A       		.uleb128 0xa
 1730 00df 00       		.byte	0
 1731 00e0 00       		.byte	0
 1732 00e1 10       		.uleb128 0x10
 1733 00e2 2E       		.uleb128 0x2e
 1734 00e3 01       		.byte	0x1
 1735 00e4 3F       		.uleb128 0x3f
 1736 00e5 0C       		.uleb128 0xc
 1737 00e6 03       		.uleb128 0x3
 1738 00e7 0E       		.uleb128 0xe
 1739 00e8 3A       		.uleb128 0x3a
 1740 00e9 0B       		.uleb128 0xb
 1741 00ea 3B       		.uleb128 0x3b
 1742 00eb 05       		.uleb128 0x5
 1743 00ec 39       		.uleb128 0x39
 1744 00ed 0B       		.uleb128 0xb
 1745 00ee 27       		.uleb128 0x27
 1746 00ef 0C       		.uleb128 0xc
 1747 00f0 49       		.uleb128 0x49
 1748 00f1 13       		.uleb128 0x13
 1749 00f2 11       		.uleb128 0x11
ARM GAS  C:\Users\skey\AppData\Local\Temp\ccKAsNbo.s 			page 40


 1750 00f3 01       		.uleb128 0x1
 1751 00f4 12       		.uleb128 0x12
 1752 00f5 01       		.uleb128 0x1
 1753 00f6 40       		.uleb128 0x40
 1754 00f7 06       		.uleb128 0x6
 1755 00f8 9742     		.uleb128 0x2117
 1756 00fa 0C       		.uleb128 0xc
 1757 00fb 01       		.uleb128 0x1
 1758 00fc 13       		.uleb128 0x13
 1759 00fd 00       		.byte	0
 1760 00fe 00       		.byte	0
 1761 00ff 11       		.uleb128 0x11
 1762 0100 05       		.uleb128 0x5
 1763 0101 00       		.byte	0
 1764 0102 03       		.uleb128 0x3
 1765 0103 0E       		.uleb128 0xe
 1766 0104 3A       		.uleb128 0x3a
 1767 0105 0B       		.uleb128 0xb
 1768 0106 3B       		.uleb128 0x3b
 1769 0107 05       		.uleb128 0x5
 1770 0108 39       		.uleb128 0x39
 1771 0109 0B       		.uleb128 0xb
 1772 010a 49       		.uleb128 0x49
 1773 010b 13       		.uleb128 0x13
 1774 010c 02       		.uleb128 0x2
 1775 010d 06       		.uleb128 0x6
 1776 010e B742     		.uleb128 0x2137
 1777 0110 06       		.uleb128 0x6
 1778 0111 00       		.byte	0
 1779 0112 00       		.byte	0
 1780 0113 12       		.uleb128 0x12
 1781 0114 34       		.uleb128 0x34
 1782 0115 00       		.byte	0
 1783 0116 03       		.uleb128 0x3
 1784 0117 08       		.uleb128 0x8
 1785 0118 3A       		.uleb128 0x3a
 1786 0119 0B       		.uleb128 0xb
 1787 011a 3B       		.uleb128 0x3b
 1788 011b 05       		.uleb128 0x5
 1789 011c 39       		.uleb128 0x39
 1790 011d 0B       		.uleb128 0xb
 1791 011e 49       		.uleb128 0x49
 1792 011f 13       		.uleb128 0x13
 1793 0120 02       		.uleb128 0x2
 1794 0121 0A       		.uleb128 0xa
 1795 0122 00       		.byte	0
 1796 0123 00       		.byte	0
 1797 0124 13       		.uleb128 0x13
 1798 0125 2E       		.uleb128 0x2e
 1799 0126 01       		.byte	0x1
 1800 0127 3F       		.uleb128 0x3f
 1801 0128 0C       		.uleb128 0xc
 1802 0129 03       		.uleb128 0x3
 1803 012a 0E       		.uleb128 0xe
 1804 012b 3A       		.uleb128 0x3a
 1805 012c 0B       		.uleb128 0xb
 1806 012d 3B       		.uleb128 0x3b
ARM GAS  C:\Users\skey\AppData\Local\Temp\ccKAsNbo.s 			page 41


 1807 012e 05       		.uleb128 0x5
 1808 012f 39       		.uleb128 0x39
 1809 0130 0B       		.uleb128 0xb
 1810 0131 27       		.uleb128 0x27
 1811 0132 0C       		.uleb128 0xc
 1812 0133 11       		.uleb128 0x11
 1813 0134 01       		.uleb128 0x1
 1814 0135 12       		.uleb128 0x12
 1815 0136 01       		.uleb128 0x1
 1816 0137 40       		.uleb128 0x40
 1817 0138 0A       		.uleb128 0xa
 1818 0139 9742     		.uleb128 0x2117
 1819 013b 0C       		.uleb128 0xc
 1820 013c 01       		.uleb128 0x1
 1821 013d 13       		.uleb128 0x13
 1822 013e 00       		.byte	0
 1823 013f 00       		.byte	0
 1824 0140 14       		.uleb128 0x14
 1825 0141 05       		.uleb128 0x5
 1826 0142 00       		.byte	0
 1827 0143 03       		.uleb128 0x3
 1828 0144 0E       		.uleb128 0xe
 1829 0145 3A       		.uleb128 0x3a
 1830 0146 0B       		.uleb128 0xb
 1831 0147 3B       		.uleb128 0x3b
 1832 0148 05       		.uleb128 0x5
 1833 0149 39       		.uleb128 0x39
 1834 014a 0B       		.uleb128 0xb
 1835 014b 49       		.uleb128 0x49
 1836 014c 13       		.uleb128 0x13
 1837 014d 02       		.uleb128 0x2
 1838 014e 0A       		.uleb128 0xa
 1839 014f 00       		.byte	0
 1840 0150 00       		.byte	0
 1841 0151 15       		.uleb128 0x15
 1842 0152 34       		.uleb128 0x34
 1843 0153 00       		.byte	0
 1844 0154 03       		.uleb128 0x3
 1845 0155 0E       		.uleb128 0xe
 1846 0156 3A       		.uleb128 0x3a
 1847 0157 0B       		.uleb128 0xb
 1848 0158 3B       		.uleb128 0x3b
 1849 0159 05       		.uleb128 0x5
 1850 015a 39       		.uleb128 0x39
 1851 015b 0B       		.uleb128 0xb
 1852 015c 49       		.uleb128 0x49
 1853 015d 13       		.uleb128 0x13
 1854 015e 02       		.uleb128 0x2
 1855 015f 06       		.uleb128 0x6
 1856 0160 B742     		.uleb128 0x2137
 1857 0162 06       		.uleb128 0x6
 1858 0163 00       		.byte	0
 1859 0164 00       		.byte	0
 1860 0165 16       		.uleb128 0x16
 1861 0166 34       		.uleb128 0x34
 1862 0167 00       		.byte	0
 1863 0168 03       		.uleb128 0x3
ARM GAS  C:\Users\skey\AppData\Local\Temp\ccKAsNbo.s 			page 42


 1864 0169 08       		.uleb128 0x8
 1865 016a 3A       		.uleb128 0x3a
 1866 016b 0B       		.uleb128 0xb
 1867 016c 3B       		.uleb128 0x3b
 1868 016d 05       		.uleb128 0x5
 1869 016e 39       		.uleb128 0x39
 1870 016f 0B       		.uleb128 0xb
 1871 0170 49       		.uleb128 0x49
 1872 0171 13       		.uleb128 0x13
 1873 0172 02       		.uleb128 0x2
 1874 0173 06       		.uleb128 0x6
 1875 0174 B742     		.uleb128 0x2137
 1876 0176 06       		.uleb128 0x6
 1877 0177 00       		.byte	0
 1878 0178 00       		.byte	0
 1879 0179 17       		.uleb128 0x17
 1880 017a 2E       		.uleb128 0x2e
 1881 017b 01       		.byte	0x1
 1882 017c 3F       		.uleb128 0x3f
 1883 017d 0C       		.uleb128 0xc
 1884 017e 03       		.uleb128 0x3
 1885 017f 0E       		.uleb128 0xe
 1886 0180 3A       		.uleb128 0x3a
 1887 0181 0B       		.uleb128 0xb
 1888 0182 3B       		.uleb128 0x3b
 1889 0183 05       		.uleb128 0x5
 1890 0184 39       		.uleb128 0x39
 1891 0185 0B       		.uleb128 0xb
 1892 0186 27       		.uleb128 0x27
 1893 0187 0C       		.uleb128 0xc
 1894 0188 11       		.uleb128 0x11
 1895 0189 01       		.uleb128 0x1
 1896 018a 12       		.uleb128 0x12
 1897 018b 01       		.uleb128 0x1
 1898 018c 40       		.uleb128 0x40
 1899 018d 06       		.uleb128 0x6
 1900 018e 9742     		.uleb128 0x2117
 1901 0190 0C       		.uleb128 0xc
 1902 0191 01       		.uleb128 0x1
 1903 0192 13       		.uleb128 0x13
 1904 0193 00       		.byte	0
 1905 0194 00       		.byte	0
 1906 0195 18       		.uleb128 0x18
 1907 0196 2E       		.uleb128 0x2e
 1908 0197 01       		.byte	0x1
 1909 0198 3F       		.uleb128 0x3f
 1910 0199 0C       		.uleb128 0xc
 1911 019a 03       		.uleb128 0x3
 1912 019b 0E       		.uleb128 0xe
 1913 019c 3A       		.uleb128 0x3a
 1914 019d 0B       		.uleb128 0xb
 1915 019e 3B       		.uleb128 0x3b
 1916 019f 0B       		.uleb128 0xb
 1917 01a0 39       		.uleb128 0x39
 1918 01a1 0B       		.uleb128 0xb
 1919 01a2 27       		.uleb128 0x27
 1920 01a3 0C       		.uleb128 0xc
ARM GAS  C:\Users\skey\AppData\Local\Temp\ccKAsNbo.s 			page 43


 1921 01a4 11       		.uleb128 0x11
 1922 01a5 01       		.uleb128 0x1
 1923 01a6 12       		.uleb128 0x12
 1924 01a7 01       		.uleb128 0x1
 1925 01a8 40       		.uleb128 0x40
 1926 01a9 0A       		.uleb128 0xa
 1927 01aa 9742     		.uleb128 0x2117
 1928 01ac 0C       		.uleb128 0xc
 1929 01ad 01       		.uleb128 0x1
 1930 01ae 13       		.uleb128 0x13
 1931 01af 00       		.byte	0
 1932 01b0 00       		.byte	0
 1933 01b1 19       		.uleb128 0x19
 1934 01b2 05       		.uleb128 0x5
 1935 01b3 00       		.byte	0
 1936 01b4 03       		.uleb128 0x3
 1937 01b5 0E       		.uleb128 0xe
 1938 01b6 3A       		.uleb128 0x3a
 1939 01b7 0B       		.uleb128 0xb
 1940 01b8 3B       		.uleb128 0x3b
 1941 01b9 0B       		.uleb128 0xb
 1942 01ba 39       		.uleb128 0x39
 1943 01bb 0B       		.uleb128 0xb
 1944 01bc 49       		.uleb128 0x49
 1945 01bd 13       		.uleb128 0x13
 1946 01be 02       		.uleb128 0x2
 1947 01bf 06       		.uleb128 0x6
 1948 01c0 B742     		.uleb128 0x2137
 1949 01c2 06       		.uleb128 0x6
 1950 01c3 00       		.byte	0
 1951 01c4 00       		.byte	0
 1952 01c5 1A       		.uleb128 0x1a
 1953 01c6 05       		.uleb128 0x5
 1954 01c7 00       		.byte	0
 1955 01c8 03       		.uleb128 0x3
 1956 01c9 0E       		.uleb128 0xe
 1957 01ca 3A       		.uleb128 0x3a
 1958 01cb 0B       		.uleb128 0xb
 1959 01cc 3B       		.uleb128 0x3b
 1960 01cd 0B       		.uleb128 0xb
 1961 01ce 39       		.uleb128 0x39
 1962 01cf 0B       		.uleb128 0xb
 1963 01d0 49       		.uleb128 0x49
 1964 01d1 13       		.uleb128 0x13
 1965 01d2 02       		.uleb128 0x2
 1966 01d3 0A       		.uleb128 0xa
 1967 01d4 00       		.byte	0
 1968 01d5 00       		.byte	0
 1969 01d6 1B       		.uleb128 0x1b
 1970 01d7 0F       		.uleb128 0xf
 1971 01d8 00       		.byte	0
 1972 01d9 0B       		.uleb128 0xb
 1973 01da 0B       		.uleb128 0xb
 1974 01db 49       		.uleb128 0x49
 1975 01dc 13       		.uleb128 0x13
 1976 01dd 00       		.byte	0
 1977 01de 00       		.byte	0
ARM GAS  C:\Users\skey\AppData\Local\Temp\ccKAsNbo.s 			page 44


 1978 01df 1C       		.uleb128 0x1c
 1979 01e0 2E       		.uleb128 0x2e
 1980 01e1 01       		.byte	0x1
 1981 01e2 3F       		.uleb128 0x3f
 1982 01e3 0C       		.uleb128 0xc
 1983 01e4 03       		.uleb128 0x3
 1984 01e5 0E       		.uleb128 0xe
 1985 01e6 3A       		.uleb128 0x3a
 1986 01e7 0B       		.uleb128 0xb
 1987 01e8 3B       		.uleb128 0x3b
 1988 01e9 0B       		.uleb128 0xb
 1989 01ea 39       		.uleb128 0x39
 1990 01eb 0B       		.uleb128 0xb
 1991 01ec 27       		.uleb128 0x27
 1992 01ed 0C       		.uleb128 0xc
 1993 01ee 11       		.uleb128 0x11
 1994 01ef 01       		.uleb128 0x1
 1995 01f0 12       		.uleb128 0x12
 1996 01f1 01       		.uleb128 0x1
 1997 01f2 40       		.uleb128 0x40
 1998 01f3 06       		.uleb128 0x6
 1999 01f4 9742     		.uleb128 0x2117
 2000 01f6 0C       		.uleb128 0xc
 2001 01f7 01       		.uleb128 0x1
 2002 01f8 13       		.uleb128 0x13
 2003 01f9 00       		.byte	0
 2004 01fa 00       		.byte	0
 2005 01fb 1D       		.uleb128 0x1d
 2006 01fc 34       		.uleb128 0x34
 2007 01fd 00       		.byte	0
 2008 01fe 03       		.uleb128 0x3
 2009 01ff 0E       		.uleb128 0xe
 2010 0200 3A       		.uleb128 0x3a
 2011 0201 0B       		.uleb128 0xb
 2012 0202 3B       		.uleb128 0x3b
 2013 0203 0B       		.uleb128 0xb
 2014 0204 39       		.uleb128 0x39
 2015 0205 0B       		.uleb128 0xb
 2016 0206 49       		.uleb128 0x49
 2017 0207 13       		.uleb128 0x13
 2018 0208 02       		.uleb128 0x2
 2019 0209 06       		.uleb128 0x6
 2020 020a B742     		.uleb128 0x2137
 2021 020c 06       		.uleb128 0x6
 2022 020d 00       		.byte	0
 2023 020e 00       		.byte	0
 2024 020f 1E       		.uleb128 0x1e
 2025 0210 898201   		.uleb128 0x4109
 2026 0213 01       		.byte	0x1
 2027 0214 11       		.uleb128 0x11
 2028 0215 01       		.uleb128 0x1
 2029 0216 31       		.uleb128 0x31
 2030 0217 13       		.uleb128 0x13
 2031 0218 01       		.uleb128 0x1
 2032 0219 13       		.uleb128 0x13
 2033 021a 00       		.byte	0
 2034 021b 00       		.byte	0
ARM GAS  C:\Users\skey\AppData\Local\Temp\ccKAsNbo.s 			page 45


 2035 021c 1F       		.uleb128 0x1f
 2036 021d 8A8201   		.uleb128 0x410a
 2037 0220 00       		.byte	0
 2038 0221 02       		.uleb128 0x2
 2039 0222 0A       		.uleb128 0xa
 2040 0223 9142     		.uleb128 0x2111
 2041 0225 0A       		.uleb128 0xa
 2042 0226 00       		.byte	0
 2043 0227 00       		.byte	0
 2044 0228 20       		.uleb128 0x20
 2045 0229 898201   		.uleb128 0x4109
 2046 022c 01       		.byte	0x1
 2047 022d 11       		.uleb128 0x11
 2048 022e 01       		.uleb128 0x1
 2049 022f 9542     		.uleb128 0x2115
 2050 0231 0C       		.uleb128 0xc
 2051 0232 31       		.uleb128 0x31
 2052 0233 13       		.uleb128 0x13
 2053 0234 00       		.byte	0
 2054 0235 00       		.byte	0
 2055 0236 21       		.uleb128 0x21
 2056 0237 2E       		.uleb128 0x2e
 2057 0238 00       		.byte	0
 2058 0239 3F       		.uleb128 0x3f
 2059 023a 0C       		.uleb128 0xc
 2060 023b 3C       		.uleb128 0x3c
 2061 023c 0C       		.uleb128 0xc
 2062 023d 8740     		.uleb128 0x2007
 2063 023f 0E       		.uleb128 0xe
 2064 0240 03       		.uleb128 0x3
 2065 0241 0E       		.uleb128 0xe
 2066 0242 3A       		.uleb128 0x3a
 2067 0243 0B       		.uleb128 0xb
 2068 0244 3B       		.uleb128 0x3b
 2069 0245 05       		.uleb128 0x5
 2070 0246 39       		.uleb128 0x39
 2071 0247 0B       		.uleb128 0xb
 2072 0248 00       		.byte	0
 2073 0249 00       		.byte	0
 2074 024a 00       		.byte	0
 2075              		.section	.debug_loc,"",%progbits
 2076              	.Ldebug_loc0:
 2077              	.LLST16:
 2078 0000 34010000 		.4byte	.LFB40-.Ltext0
 2079 0004 38010000 		.4byte	.LCFI7-.Ltext0
 2080 0008 0200     		.2byte	0x2
 2081 000a 7D       		.byte	0x7d
 2082 000b 00       		.sleb128 0
 2083 000c 38010000 		.4byte	.LCFI7-.Ltext0
 2084 0010 50010000 		.4byte	.LCFI8-.Ltext0
 2085 0014 0200     		.2byte	0x2
 2086 0016 7D       		.byte	0x7d
 2087 0017 08       		.sleb128 8
 2088 0018 50010000 		.4byte	.LCFI8-.Ltext0
 2089 001c 58010000 		.4byte	.LFE40-.Ltext0
 2090 0020 0200     		.2byte	0x2
 2091 0022 7D       		.byte	0x7d
ARM GAS  C:\Users\skey\AppData\Local\Temp\ccKAsNbo.s 			page 46


 2092 0023 00       		.sleb128 0
 2093 0024 00000000 		.4byte	0
 2094 0028 00000000 		.4byte	0
 2095              	.LVUS17:
 2096 002c 00       		.uleb128 0
 2097 002d 00       		.uleb128 .LVU163
 2098 002e 00       		.uleb128 .LVU163
 2099 002f 00       		.uleb128 0
 2100              	.LLST17:
 2101 0030 34010000 		.4byte	.LVL25-.Ltext0
 2102 0034 4C010000 		.4byte	.LVL26-.Ltext0
 2103 0038 0100     		.2byte	0x1
 2104 003a 50       		.byte	0x50
 2105 003b 4C010000 		.4byte	.LVL26-.Ltext0
 2106 003f 58010000 		.4byte	.LFE40-.Ltext0
 2107 0043 0400     		.2byte	0x4
 2108 0045 F3       		.byte	0xf3
 2109 0046 01       		.uleb128 0x1
 2110 0047 50       		.byte	0x50
 2111 0048 9F       		.byte	0x9f
 2112 0049 00000000 		.4byte	0
 2113 004d 00000000 		.4byte	0
 2114              	.LVUS13:
 2115 0051 00       		.uleb128 0
 2116 0052 00       		.uleb128 .LVU143
 2117 0053 00       		.uleb128 .LVU143
 2118 0054 00       		.uleb128 0
 2119              	.LLST13:
 2120 0055 1C010000 		.4byte	.LVL22-.Ltext0
 2121 0059 26010000 		.4byte	.LVL23-.Ltext0
 2122 005d 0100     		.2byte	0x1
 2123 005f 52       		.byte	0x52
 2124 0060 26010000 		.4byte	.LVL23-.Ltext0
 2125 0064 34010000 		.4byte	.LFE39-.Ltext0
 2126 0068 0400     		.2byte	0x4
 2127 006a F3       		.byte	0xf3
 2128 006b 01       		.uleb128 0x1
 2129 006c 52       		.byte	0x52
 2130 006d 9F       		.byte	0x9f
 2131 006e 00000000 		.4byte	0
 2132 0072 00000000 		.4byte	0
 2133              	.LVUS14:
 2134 0076 02       		.uleb128 .LVU135
 2135 0077 00       		.uleb128 .LVU143
 2136 0078 00       		.uleb128 .LVU143
 2137 0079 00       		.uleb128 0
 2138              	.LLST14:
 2139 007a 1C010000 		.4byte	.LVL22-.Ltext0
 2140 007e 26010000 		.4byte	.LVL23-.Ltext0
 2141 0082 0200     		.2byte	0x2
 2142 0084 30       		.byte	0x30
 2143 0085 9F       		.byte	0x9f
 2144 0086 26010000 		.4byte	.LVL23-.Ltext0
 2145 008a 34010000 		.4byte	.LFE39-.Ltext0
 2146 008e 0100     		.2byte	0x1
 2147 0090 52       		.byte	0x52
 2148 0091 00000000 		.4byte	0
ARM GAS  C:\Users\skey\AppData\Local\Temp\ccKAsNbo.s 			page 47


 2149 0095 00000000 		.4byte	0
 2150              	.LVUS15:
 2151 0099 02       		.uleb128 .LVU135
 2152 009a 01       		.uleb128 .LVU146
 2153 009b 01       		.uleb128 .LVU146
 2154 009c 02       		.uleb128 .LVU147
 2155 009d 02       		.uleb128 .LVU147
 2156 009e 00       		.uleb128 0
 2157              	.LLST15:
 2158 009f 1C010000 		.4byte	.LVL22-.Ltext0
 2159 00a3 2A010000 		.4byte	.LVL24-.Ltext0
 2160 00a7 0200     		.2byte	0x2
 2161 00a9 30       		.byte	0x30
 2162 00aa 9F       		.byte	0x9f
 2163 00ab 2A010000 		.4byte	.LVL24-.Ltext0
 2164 00af 2A010000 		.4byte	.LVL24-.Ltext0
 2165 00b3 0600     		.2byte	0x6
 2166 00b5 0C       		.byte	0xc
 2167 00b6 00740040 		.4byte	0x40007400
 2168 00ba 9F       		.byte	0x9f
 2169 00bb 2A010000 		.4byte	.LVL24-.Ltext0
 2170 00bf 34010000 		.4byte	.LFE39-.Ltext0
 2171 00c3 0700     		.2byte	0x7
 2172 00c5 70       		.byte	0x70
 2173 00c6 A0E88180 		.sleb128 1073771552
 2173      04
 2174 00cb 9F       		.byte	0x9f
 2175 00cc 00000000 		.4byte	0
 2176 00d0 00000000 		.4byte	0
 2177              	.LLST12:
 2178 00d4 FC000000 		.4byte	.LFB38-.Ltext0
 2179 00d8 00010000 		.4byte	.LCFI5-.Ltext0
 2180 00dc 0200     		.2byte	0x2
 2181 00de 7D       		.byte	0x7d
 2182 00df 00       		.sleb128 0
 2183 00e0 00010000 		.4byte	.LCFI5-.Ltext0
 2184 00e4 14010000 		.4byte	.LCFI6-.Ltext0
 2185 00e8 0200     		.2byte	0x2
 2186 00ea 7D       		.byte	0x7d
 2187 00eb 08       		.sleb128 8
 2188 00ec 14010000 		.4byte	.LCFI6-.Ltext0
 2189 00f0 1C010000 		.4byte	.LFE38-.Ltext0
 2190 00f4 0200     		.2byte	0x2
 2191 00f6 7D       		.byte	0x7d
 2192 00f7 00       		.sleb128 0
 2193 00f8 00000000 		.4byte	0
 2194 00fc 00000000 		.4byte	0
 2195              	.LLST11:
 2196 0100 DC000000 		.4byte	.LFB37-.Ltext0
 2197 0104 E0000000 		.4byte	.LCFI3-.Ltext0
 2198 0108 0200     		.2byte	0x2
 2199 010a 7D       		.byte	0x7d
 2200 010b 00       		.sleb128 0
 2201 010c E0000000 		.4byte	.LCFI3-.Ltext0
 2202 0110 F4000000 		.4byte	.LCFI4-.Ltext0
 2203 0114 0200     		.2byte	0x2
 2204 0116 7D       		.byte	0x7d
ARM GAS  C:\Users\skey\AppData\Local\Temp\ccKAsNbo.s 			page 48


 2205 0117 08       		.sleb128 8
 2206 0118 F4000000 		.4byte	.LCFI4-.Ltext0
 2207 011c FC000000 		.4byte	.LFE37-.Ltext0
 2208 0120 0200     		.2byte	0x2
 2209 0122 7D       		.byte	0x7d
 2210 0123 00       		.sleb128 0
 2211 0124 00000000 		.4byte	0
 2212 0128 00000000 		.4byte	0
 2213              	.LVUS9:
 2214 012c 00       		.uleb128 0
 2215 012d 00       		.uleb128 .LVU96
 2216 012e 00       		.uleb128 .LVU96
 2217 012f 00       		.uleb128 0
 2218              	.LLST9:
 2219 0130 C4000000 		.4byte	.LVL17-.Ltext0
 2220 0134 CA000000 		.4byte	.LVL19-.Ltext0
 2221 0138 0100     		.2byte	0x1
 2222 013a 50       		.byte	0x50
 2223 013b CA000000 		.4byte	.LVL19-.Ltext0
 2224 013f DC000000 		.4byte	.LFE36-.Ltext0
 2225 0143 0400     		.2byte	0x4
 2226 0145 F3       		.byte	0xf3
 2227 0146 01       		.uleb128 0x1
 2228 0147 50       		.byte	0x50
 2229 0148 9F       		.byte	0x9f
 2230 0149 00000000 		.4byte	0
 2231 014d 00000000 		.4byte	0
 2232              	.LVUS10:
 2233 0151 00       		.uleb128 0
 2234 0152 00       		.uleb128 .LVU95
 2235 0153 00       		.uleb128 .LVU95
 2236 0154 00       		.uleb128 0
 2237              	.LLST10:
 2238 0155 C4000000 		.4byte	.LVL17-.Ltext0
 2239 0159 C8000000 		.4byte	.LVL18-.Ltext0
 2240 015d 0100     		.2byte	0x1
 2241 015f 51       		.byte	0x51
 2242 0160 C8000000 		.4byte	.LVL18-.Ltext0
 2243 0164 DC000000 		.4byte	.LFE36-.Ltext0
 2244 0168 0400     		.2byte	0x4
 2245 016a F3       		.byte	0xf3
 2246 016b 01       		.uleb128 0x1
 2247 016c 51       		.byte	0x51
 2248 016d 9F       		.byte	0x9f
 2249 016e 00000000 		.4byte	0
 2250 0172 00000000 		.4byte	0
 2251              	.LVUS8:
 2252 0176 00       		.uleb128 0
 2253 0177 00       		.uleb128 .LVU70
 2254 0178 00       		.uleb128 .LVU70
 2255 0179 00       		.uleb128 0
 2256              	.LLST8:
 2257 017a 90000000 		.4byte	.LVL14-.Ltext0
 2258 017e 94000000 		.4byte	.LVL15-.Ltext0
 2259 0182 0100     		.2byte	0x1
 2260 0184 50       		.byte	0x50
 2261 0185 94000000 		.4byte	.LVL15-.Ltext0
ARM GAS  C:\Users\skey\AppData\Local\Temp\ccKAsNbo.s 			page 49


 2262 0189 AC000000 		.4byte	.LFE34-.Ltext0
 2263 018d 0400     		.2byte	0x4
 2264 018f F3       		.byte	0xf3
 2265 0190 01       		.uleb128 0x1
 2266 0191 50       		.byte	0x50
 2267 0192 9F       		.byte	0x9f
 2268 0193 00000000 		.4byte	0
 2269 0197 00000000 		.4byte	0
 2270              	.LVUS7:
 2271 019b 00       		.uleb128 0
 2272 019c 00       		.uleb128 .LVU57
 2273 019d 00       		.uleb128 .LVU57
 2274 019e 00       		.uleb128 0
 2275              	.LLST7:
 2276 019f 70000000 		.4byte	.LVL12-.Ltext0
 2277 01a3 78000000 		.4byte	.LVL13-.Ltext0
 2278 01a7 0100     		.2byte	0x1
 2279 01a9 50       		.byte	0x50
 2280 01aa 78000000 		.4byte	.LVL13-.Ltext0
 2281 01ae 90000000 		.4byte	.LFE33-.Ltext0
 2282 01b2 0400     		.2byte	0x4
 2283 01b4 F3       		.byte	0xf3
 2284 01b5 01       		.uleb128 0x1
 2285 01b6 50       		.byte	0x50
 2286 01b7 9F       		.byte	0x9f
 2287 01b8 00000000 		.4byte	0
 2288 01bc 00000000 		.4byte	0
 2289              	.LVUS6:
 2290 01c0 00       		.uleb128 0
 2291 01c1 00       		.uleb128 .LVU44
 2292 01c2 00       		.uleb128 .LVU44
 2293 01c3 00       		.uleb128 0
 2294              	.LLST6:
 2295 01c4 54000000 		.4byte	.LVL10-.Ltext0
 2296 01c8 5A000000 		.4byte	.LVL11-.Ltext0
 2297 01cc 0100     		.2byte	0x1
 2298 01ce 50       		.byte	0x50
 2299 01cf 5A000000 		.4byte	.LVL11-.Ltext0
 2300 01d3 70000000 		.4byte	.LFE32-.Ltext0
 2301 01d7 0400     		.2byte	0x4
 2302 01d9 F3       		.byte	0xf3
 2303 01da 01       		.uleb128 0x1
 2304 01db 50       		.byte	0x50
 2305 01dc 9F       		.byte	0x9f
 2306 01dd 00000000 		.4byte	0
 2307 01e1 00000000 		.4byte	0
 2308              	.LLST1:
 2309 01e5 1A000000 		.4byte	.LFB30-.Ltext0
 2310 01e9 20000000 		.4byte	.LCFI2-.Ltext0
 2311 01ed 0200     		.2byte	0x2
 2312 01ef 7D       		.byte	0x7d
 2313 01f0 00       		.sleb128 0
 2314 01f1 20000000 		.4byte	.LCFI2-.Ltext0
 2315 01f5 48000000 		.4byte	.LFE30-.Ltext0
 2316 01f9 0200     		.2byte	0x2
 2317 01fb 7D       		.byte	0x7d
 2318 01fc 0C       		.sleb128 12
ARM GAS  C:\Users\skey\AppData\Local\Temp\ccKAsNbo.s 			page 50


 2319 01fd 00000000 		.4byte	0
 2320 0201 00000000 		.4byte	0
 2321              	.LVUS2:
 2322 0205 00       		.uleb128 0
 2323 0206 00       		.uleb128 .LVU29
 2324 0207 00       		.uleb128 .LVU29
 2325 0208 00       		.uleb128 0
 2326              	.LLST2:
 2327 0209 1A000000 		.4byte	.LVL2-.Ltext0
 2328 020d 3C000000 		.4byte	.LVL6-.Ltext0
 2329 0211 0100     		.2byte	0x1
 2330 0213 50       		.byte	0x50
 2331 0214 3C000000 		.4byte	.LVL6-.Ltext0
 2332 0218 48000000 		.4byte	.LFE30-.Ltext0
 2333 021c 0400     		.2byte	0x4
 2334 021e F3       		.byte	0xf3
 2335 021f 01       		.uleb128 0x1
 2336 0220 50       		.byte	0x50
 2337 0221 9F       		.byte	0x9f
 2338 0222 00000000 		.4byte	0
 2339 0226 00000000 		.4byte	0
 2340              	.LVUS3:
 2341 022a 00       		.uleb128 0
 2342 022b 00       		.uleb128 .LVU26
 2343 022c 00       		.uleb128 .LVU26
 2344 022d 00       		.uleb128 0
 2345              	.LLST3:
 2346 022e 1A000000 		.4byte	.LVL2-.Ltext0
 2347 0232 34000000 		.4byte	.LVL5-.Ltext0
 2348 0236 0100     		.2byte	0x1
 2349 0238 51       		.byte	0x51
 2350 0239 34000000 		.4byte	.LVL5-.Ltext0
 2351 023d 48000000 		.4byte	.LFE30-.Ltext0
 2352 0241 0400     		.2byte	0x4
 2353 0243 F3       		.byte	0xf3
 2354 0244 01       		.uleb128 0x1
 2355 0245 51       		.byte	0x51
 2356 0246 9F       		.byte	0x9f
 2357 0247 00000000 		.4byte	0
 2358 024b 00000000 		.4byte	0
 2359              	.LVUS4:
 2360 024f 02       		.uleb128 .LVU9
 2361 0250 00       		.uleb128 .LVU19
 2362 0251 00       		.uleb128 .LVU19
 2363 0252 00       		.uleb128 .LVU30
 2364 0253 00       		.uleb128 .LVU30
 2365 0254 00       		.uleb128 0
 2366              	.LLST4:
 2367 0255 1A000000 		.4byte	.LVL2-.Ltext0
 2368 0259 26000000 		.4byte	.LVL3-.Ltext0
 2369 025d 0200     		.2byte	0x2
 2370 025f 30       		.byte	0x30
 2371 0260 9F       		.byte	0x9f
 2372 0261 26000000 		.4byte	.LVL3-.Ltext0
 2373 0265 3E000000 		.4byte	.LVL7-.Ltext0
 2374 0269 0100     		.2byte	0x1
 2375 026b 52       		.byte	0x52
ARM GAS  C:\Users\skey\AppData\Local\Temp\ccKAsNbo.s 			page 51


 2376 026c 3E000000 		.4byte	.LVL7-.Ltext0
 2377 0270 48000000 		.4byte	.LFE30-.Ltext0
 2378 0274 0100     		.2byte	0x1
 2379 0276 50       		.byte	0x50
 2380 0277 00000000 		.4byte	0
 2381 027b 00000000 		.4byte	0
 2382              	.LVUS5:
 2383 027f 02       		.uleb128 .LVU9
 2384 0280 01       		.uleb128 .LVU22
 2385 0281 01       		.uleb128 .LVU22
 2386 0282 00       		.uleb128 .LVU26
 2387 0283 00       		.uleb128 .LVU26
 2388 0284 00       		.uleb128 .LVU32
 2389              	.LLST5:
 2390 0285 1A000000 		.4byte	.LVL2-.Ltext0
 2391 0289 2A000000 		.4byte	.LVL4-.Ltext0
 2392 028d 0200     		.2byte	0x2
 2393 028f 30       		.byte	0x30
 2394 0290 9F       		.byte	0x9f
 2395 0291 2A000000 		.4byte	.LVL4-.Ltext0
 2396 0295 34000000 		.4byte	.LVL5-.Ltext0
 2397 0299 1000     		.2byte	0x10
 2398 029b 71       		.byte	0x71
 2399 029c 00       		.sleb128 0
 2400 029d 06       		.byte	0x6
 2401 029e 71       		.byte	0x71
 2402 029f 04       		.sleb128 4
 2403 02a0 06       		.byte	0x6
 2404 02a1 21       		.byte	0x21
 2405 02a2 71       		.byte	0x71
 2406 02a3 08       		.sleb128 8
 2407 02a4 06       		.byte	0x6
 2408 02a5 21       		.byte	0x21
 2409 02a6 71       		.byte	0x71
 2410 02a7 0C       		.sleb128 12
 2411 02a8 06       		.byte	0x6
 2412 02a9 21       		.byte	0x21
 2413 02aa 9F       		.byte	0x9f
 2414 02ab 34000000 		.4byte	.LVL5-.Ltext0
 2415 02af 40000000 		.4byte	.LVL8-.Ltext0
 2416 02b3 1200     		.2byte	0x12
 2417 02b5 F3       		.byte	0xf3
 2418 02b6 01       		.uleb128 0x1
 2419 02b7 51       		.byte	0x51
 2420 02b8 06       		.byte	0x6
 2421 02b9 F3       		.byte	0xf3
 2422 02ba 01       		.uleb128 0x1
 2423 02bb 51       		.byte	0x51
 2424 02bc 23       		.byte	0x23
 2425 02bd 04       		.uleb128 0x4
 2426 02be 06       		.byte	0x6
 2427 02bf 21       		.byte	0x21
 2428 02c0 75       		.byte	0x75
 2429 02c1 00       		.sleb128 0
 2430 02c2 21       		.byte	0x21
 2431 02c3 71       		.byte	0x71
 2432 02c4 00       		.sleb128 0
ARM GAS  C:\Users\skey\AppData\Local\Temp\ccKAsNbo.s 			page 52


 2433 02c5 21       		.byte	0x21
 2434 02c6 9F       		.byte	0x9f
 2435 02c7 00000000 		.4byte	0
 2436 02cb 00000000 		.4byte	0
 2437              	.LLST0:
 2438 02cf 00000000 		.4byte	.LFB29-.Ltext0
 2439 02d3 02000000 		.4byte	.LCFI0-.Ltext0
 2440 02d7 0200     		.2byte	0x2
 2441 02d9 7D       		.byte	0x7d
 2442 02da 00       		.sleb128 0
 2443 02db 02000000 		.4byte	.LCFI0-.Ltext0
 2444 02df 10000000 		.4byte	.LCFI1-.Ltext0
 2445 02e3 0200     		.2byte	0x2
 2446 02e5 7D       		.byte	0x7d
 2447 02e6 08       		.sleb128 8
 2448 02e7 10000000 		.4byte	.LCFI1-.Ltext0
 2449 02eb 1A000000 		.4byte	.LFE29-.Ltext0
 2450 02ef 0200     		.2byte	0x2
 2451 02f1 7D       		.byte	0x7d
 2452 02f2 00       		.sleb128 0
 2453 02f3 00000000 		.4byte	0
 2454 02f7 00000000 		.4byte	0
 2455              		.section	.debug_aranges,"",%progbits
 2456 0000 1C000000 		.4byte	0x1c
 2457 0004 0200     		.2byte	0x2
 2458 0006 00000000 		.4byte	.Ldebug_info0
 2459 000a 04       		.byte	0x4
 2460 000b 00       		.byte	0
 2461 000c 0000     		.2byte	0
 2462 000e 0000     		.2byte	0
 2463 0010 00000000 		.4byte	.Ltext0
 2464 0014 58010000 		.4byte	.Letext0-.Ltext0
 2465 0018 00000000 		.4byte	0
 2466 001c 00000000 		.4byte	0
 2467              		.section	.debug_line,"",%progbits
 2468              	.Ldebug_line0:
 2469 0000 52040000 		.section	.debug_str,"MS",%progbits,1
 2469      0300ED01 
 2469      00000201 
 2469      FB0E0D00 
 2469      01010101 
 2470              	.LASF57:
 2471 0000 746D7072 		.ascii	"tmpreg1\000"
 2471      65673100 
 2472              	.LASF63:
 2473 0008 4441435F 		.ascii	"DAC_GetDataOutputValue\000"
 2473      47657444 
 2473      6174614F 
 2473      75747075 
 2473      7456616C 
 2474              	.LASF29:
 2475 001f 44485238 		.ascii	"DHR8RD\000"
 2475      524400
 2476              	.LASF16:
 2477 0026 53797374 		.ascii	"SystemCoreClock\000"
 2477      656D436F 
 2477      7265436C 
ARM GAS  C:\Users\skey\AppData\Local\Temp\ccKAsNbo.s 			page 53


 2477      6F636B00 
 2478              	.LASF51:
 2479 0036 4441435F 		.ascii	"DAC_SoftwareTriggerCmd\000"
 2479      536F6674 
 2479      77617265 
 2479      54726967 
 2479      67657243 
 2480              	.LASF22:
 2481 004d 44485231 		.ascii	"DHR12L1\000"
 2481      324C3100 
 2482              	.LASF25:
 2483 0055 44485231 		.ascii	"DHR12L2\000"
 2483      324C3200 
 2484              	.LASF62:
 2485 005d 443A5C53 		.ascii	"D:\\STM32_Freertos_GCC_Makefile_Win\000"
 2485      544D3332 
 2485      5F467265 
 2485      6572746F 
 2485      735F4743 
 2486              	.LASF2:
 2487 0080 73686F72 		.ascii	"short int\000"
 2487      7420696E 
 2487      7400
 2488              	.LASF47:
 2489 008a 4441435F 		.ascii	"DAC_WaveGenerationCmd\000"
 2489      57617665 
 2489      47656E65 
 2489      72617469 
 2489      6F6E436D 
 2490              	.LASF60:
 2491 00a0 474E5520 		.ascii	"GNU C17 9.2.1 20191025 (release) [ARM/arm-9-branch "
 2491      43313720 
 2491      392E322E 
 2491      31203230 
 2491      31393130 
 2492 00d3 72657669 		.ascii	"revision 277599] -mcpu=cortex-m3 -mthumb -mfloat-ab"
 2492      73696F6E 
 2492      20323737 
 2492      3539395D 
 2492      202D6D63 
 2493 0106 693D736F 		.ascii	"i=soft -march=armv7-m -g -gdwarf-2 -Os -fomit-frame"
 2493      6674202D 
 2493      6D617263 
 2493      683D6172 
 2493      6D76372D 
 2494 0139 2D706F69 		.ascii	"-pointer\000"
 2494      6E746572 
 2494      00
 2495              	.LASF7:
 2496 0142 5F5F7569 		.ascii	"__uint32_t\000"
 2496      6E743332 
 2496      5F7400
 2497              	.LASF36:
 2498 014d 4441435F 		.ascii	"DAC_OutputBuffer\000"
 2498      4F757470 
 2498      75744275 
 2498      66666572 
ARM GAS  C:\Users\skey\AppData\Local\Temp\ccKAsNbo.s 			page 54


 2498      00
 2499              	.LASF4:
 2500 015e 5F5F7569 		.ascii	"__uint16_t\000"
 2500      6E743136 
 2500      5F7400
 2501              	.LASF30:
 2502 0169 444F5231 		.ascii	"DOR1\000"
 2502      00
 2503              	.LASF31:
 2504 016e 444F5232 		.ascii	"DOR2\000"
 2504      00
 2505              	.LASF49:
 2506 0173 4E657753 		.ascii	"NewState\000"
 2506      74617465 
 2506      00
 2507              	.LASF17:
 2508 017c 44495341 		.ascii	"DISABLE\000"
 2508      424C4500 
 2509              	.LASF9:
 2510 0184 6C6F6E67 		.ascii	"long long int\000"
 2510      206C6F6E 
 2510      6720696E 
 2510      7400
 2511              	.LASF64:
 2512 0192 5243435F 		.ascii	"RCC_APB1PeriphResetCmd\000"
 2512      41504231 
 2512      50657269 
 2512      70685265 
 2512      73657443 
 2513              	.LASF6:
 2514 01a9 6C6F6E67 		.ascii	"long int\000"
 2514      20696E74 
 2514      00
 2515              	.LASF43:
 2516 01b2 4441435F 		.ascii	"DAC_SetDualChannelData\000"
 2516      53657444 
 2516      75616C43 
 2516      68616E6E 
 2516      656C4461 
 2517              	.LASF48:
 2518 01c9 4441435F 		.ascii	"DAC_Wave\000"
 2518      57617665 
 2518      00
 2519              	.LASF3:
 2520 01d2 5F5F7569 		.ascii	"__uint8_t\000"
 2520      6E74385F 
 2520      7400
 2521              	.LASF45:
 2522 01dc 44617461 		.ascii	"Data\000"
 2522      00
 2523              	.LASF46:
 2524 01e1 4441435F 		.ascii	"DAC_SetChannel1Data\000"
 2524      53657443 
 2524      68616E6E 
 2524      656C3144 
 2524      61746100 
 2525              	.LASF55:
ARM GAS  C:\Users\skey\AppData\Local\Temp\ccKAsNbo.s 			page 55


 2526 01f5 4441435F 		.ascii	"DAC_InitStruct\000"
 2526      496E6974 
 2526      53747275 
 2526      637400
 2527              	.LASF1:
 2528 0204 756E7369 		.ascii	"unsigned char\000"
 2528      676E6564 
 2528      20636861 
 2528      7200
 2529              	.LASF54:
 2530 0212 4441435F 		.ascii	"DAC_StructInit\000"
 2530      53747275 
 2530      6374496E 
 2530      697400
 2531              	.LASF0:
 2532 0221 7369676E 		.ascii	"signed char\000"
 2532      65642063 
 2532      68617200 
 2533              	.LASF10:
 2534 022d 6C6F6E67 		.ascii	"long long unsigned int\000"
 2534      206C6F6E 
 2534      6720756E 
 2534      7369676E 
 2534      65642069 
 2535              	.LASF14:
 2536 0244 75696E74 		.ascii	"uint32_t\000"
 2536      33325F74 
 2536      00
 2537              	.LASF28:
 2538 024d 44485231 		.ascii	"DHR12LD\000"
 2538      324C4400 
 2539              	.LASF33:
 2540 0255 4441435F 		.ascii	"DAC_Trigger\000"
 2540      54726967 
 2540      67657200 
 2541              	.LASF13:
 2542 0261 75696E74 		.ascii	"uint16_t\000"
 2542      31365F74 
 2542      00
 2543              	.LASF52:
 2544 026a 4441435F 		.ascii	"DAC_DMACmd\000"
 2544      444D4143 
 2544      6D6400
 2545              	.LASF40:
 2546 0275 4441435F 		.ascii	"DAC_Channel\000"
 2546      4368616E 
 2546      6E656C00 
 2547              	.LASF59:
 2548 0281 4441435F 		.ascii	"DAC_DeInit\000"
 2548      4465496E 
 2548      697400
 2549              	.LASF20:
 2550 028c 53575452 		.ascii	"SWTRIGR\000"
 2550      49475200 
 2551              	.LASF5:
 2552 0294 73686F72 		.ascii	"short unsigned int\000"
 2552      7420756E 
ARM GAS  C:\Users\skey\AppData\Local\Temp\ccKAsNbo.s 			page 56


 2552      7369676E 
 2552      65642069 
 2552      6E7400
 2553              	.LASF50:
 2554 02a7 4441435F 		.ascii	"DAC_DualSoftwareTriggerCmd\000"
 2554      4475616C 
 2554      536F6674 
 2554      77617265 
 2554      54726967 
 2555              	.LASF58:
 2556 02c2 746D7072 		.ascii	"tmpreg2\000"
 2556      65673200 
 2557              	.LASF35:
 2558 02ca 4441435F 		.ascii	"DAC_LFSRUnmask_TriangleAmplitude\000"
 2558      4C465352 
 2558      556E6D61 
 2558      736B5F54 
 2558      7269616E 
 2559              	.LASF38:
 2560 02eb 4441435F 		.ascii	"DAC_Align\000"
 2560      416C6967 
 2560      6E00
 2561              	.LASF21:
 2562 02f5 44485231 		.ascii	"DHR12R1\000"
 2562      32523100 
 2563              	.LASF24:
 2564 02fd 44485231 		.ascii	"DHR12R2\000"
 2564      32523200 
 2565              	.LASF61:
 2566 0305 2E5C7374 		.ascii	".\\stlib\\STM32F10x_StdPeriph_Driver\\src\\stm32f10"
 2566      6C69625C 
 2566      53544D33 
 2566      32463130 
 2566      785F5374 
 2567 0334 785F6461 		.ascii	"x_dac.c\000"
 2567      632E6300 
 2568              	.LASF37:
 2569 033c 4441435F 		.ascii	"DAC_InitTypeDef\000"
 2569      496E6974 
 2569      54797065 
 2569      44656600 
 2570              	.LASF39:
 2571 034c 44617461 		.ascii	"Data2\000"
 2571      3200
 2572              	.LASF42:
 2573 0352 64617461 		.ascii	"data\000"
 2573      00
 2574              	.LASF27:
 2575 0357 44485231 		.ascii	"DHR12RD\000"
 2575      32524400 
 2576              	.LASF8:
 2577 035f 6C6F6E67 		.ascii	"long unsigned int\000"
 2577      20756E73 
 2577      69676E65 
 2577      6420696E 
 2577      7400
 2578              	.LASF19:
ARM GAS  C:\Users\skey\AppData\Local\Temp\ccKAsNbo.s 			page 57


 2579 0371 46756E63 		.ascii	"FunctionalState\000"
 2579      74696F6E 
 2579      616C5374 
 2579      61746500 
 2580              	.LASF44:
 2581 0381 4441435F 		.ascii	"DAC_SetChannel2Data\000"
 2581      53657443 
 2581      68616E6E 
 2581      656C3244 
 2581      61746100 
 2582              	.LASF53:
 2583 0395 4441435F 		.ascii	"DAC_Cmd\000"
 2583      436D6400 
 2584              	.LASF12:
 2585 039d 75696E74 		.ascii	"uint8_t\000"
 2585      385F7400 
 2586              	.LASF56:
 2587 03a5 4441435F 		.ascii	"DAC_Init\000"
 2587      496E6974 
 2587      00
 2588              	.LASF41:
 2589 03ae 44617461 		.ascii	"Data1\000"
 2589      3100
 2590              	.LASF15:
 2591 03b4 49544D5F 		.ascii	"ITM_RxBuffer\000"
 2591      52784275 
 2591      66666572 
 2591      00
 2592              	.LASF32:
 2593 03c1 4441435F 		.ascii	"DAC_TypeDef\000"
 2593      54797065 
 2593      44656600 
 2594              	.LASF11:
 2595 03cd 756E7369 		.ascii	"unsigned int\000"
 2595      676E6564 
 2595      20696E74 
 2595      00
 2596              	.LASF23:
 2597 03da 44485238 		.ascii	"DHR8R1\000"
 2597      523100
 2598              	.LASF26:
 2599 03e1 44485238 		.ascii	"DHR8R2\000"
 2599      523200
 2600              	.LASF34:
 2601 03e8 4441435F 		.ascii	"DAC_WaveGeneration\000"
 2601      57617665 
 2601      47656E65 
 2601      72617469 
 2601      6F6E00
 2602              	.LASF18:
 2603 03fb 454E4142 		.ascii	"ENABLE\000"
 2603      4C4500
 2604              		.ident	"GCC: (GNU Tools for Arm Embedded Processors 9-2019-q4-major) 9.2.1 20191025 (release) [ARM
ARM GAS  C:\Users\skey\AppData\Local\Temp\ccKAsNbo.s 			page 58


DEFINED SYMBOLS
                            *ABS*:00000000 stm32f10x_dac.c
C:\Users\skey\AppData\Local\Temp\ccKAsNbo.s:76     .text:00000000 $t
C:\Users\skey\AppData\Local\Temp\ccKAsNbo.s:84     .text:00000000 DAC_DeInit
C:\Users\skey\AppData\Local\Temp\ccKAsNbo.s:129    .text:0000001a DAC_Init
C:\Users\skey\AppData\Local\Temp\ccKAsNbo.s:206    .text:00000044 $d
C:\Users\skey\AppData\Local\Temp\ccKAsNbo.s:210    .text:00000048 $t
C:\Users\skey\AppData\Local\Temp\ccKAsNbo.s:217    .text:00000048 DAC_StructInit
C:\Users\skey\AppData\Local\Temp\ccKAsNbo.s:249    .text:00000054 DAC_Cmd
C:\Users\skey\AppData\Local\Temp\ccKAsNbo.s:291    .text:0000006c $d
C:\Users\skey\AppData\Local\Temp\ccKAsNbo.s:295    .text:00000070 $t
C:\Users\skey\AppData\Local\Temp\ccKAsNbo.s:302    .text:00000070 DAC_DMACmd
C:\Users\skey\AppData\Local\Temp\ccKAsNbo.s:344    .text:0000008c $d
C:\Users\skey\AppData\Local\Temp\ccKAsNbo.s:348    .text:00000090 $t
C:\Users\skey\AppData\Local\Temp\ccKAsNbo.s:355    .text:00000090 DAC_SoftwareTriggerCmd
C:\Users\skey\AppData\Local\Temp\ccKAsNbo.s:398    .text:000000a8 $d
C:\Users\skey\AppData\Local\Temp\ccKAsNbo.s:402    .text:000000ac $t
C:\Users\skey\AppData\Local\Temp\ccKAsNbo.s:409    .text:000000ac DAC_DualSoftwareTriggerCmd
C:\Users\skey\AppData\Local\Temp\ccKAsNbo.s:446    .text:000000c0 $d
C:\Users\skey\AppData\Local\Temp\ccKAsNbo.s:450    .text:000000c4 $t
C:\Users\skey\AppData\Local\Temp\ccKAsNbo.s:457    .text:000000c4 DAC_WaveGenerationCmd
C:\Users\skey\AppData\Local\Temp\ccKAsNbo.s:499    .text:000000d8 $d
C:\Users\skey\AppData\Local\Temp\ccKAsNbo.s:503    .text:000000dc $t
C:\Users\skey\AppData\Local\Temp\ccKAsNbo.s:510    .text:000000dc DAC_SetChannel1Data
C:\Users\skey\AppData\Local\Temp\ccKAsNbo.s:561    .text:000000f8 $d
C:\Users\skey\AppData\Local\Temp\ccKAsNbo.s:565    .text:000000fc $t
C:\Users\skey\AppData\Local\Temp\ccKAsNbo.s:572    .text:000000fc DAC_SetChannel2Data
C:\Users\skey\AppData\Local\Temp\ccKAsNbo.s:623    .text:00000118 $d
C:\Users\skey\AppData\Local\Temp\ccKAsNbo.s:627    .text:0000011c $t
C:\Users\skey\AppData\Local\Temp\ccKAsNbo.s:634    .text:0000011c DAC_SetDualChannelData
C:\Users\skey\AppData\Local\Temp\ccKAsNbo.s:676    .text:00000130 $d
C:\Users\skey\AppData\Local\Temp\ccKAsNbo.s:680    .text:00000134 $t
C:\Users\skey\AppData\Local\Temp\ccKAsNbo.s:687    .text:00000134 DAC_GetDataOutputValue
C:\Users\skey\AppData\Local\Temp\ccKAsNbo.s:739    .text:00000154 $d

UNDEFINED SYMBOLS
RCC_APB1PeriphResetCmd
