ARM GAS  C:\Users\skey\AppData\Local\Temp\ccsfckNU.s 			page 1


   1              		.cpu cortex-m3
   2              		.eabi_attribute 20, 1	@ Tag_ABI_FP_denormal
   3              		.eabi_attribute 21, 1	@ Tag_ABI_FP_exceptions
   4              		.eabi_attribute 23, 3	@ Tag_ABI_FP_number_model
   5              		.eabi_attribute 24, 1	@ Tag_ABI_align8_needed
   6              		.eabi_attribute 25, 1	@ Tag_ABI_align8_preserved
   7              		.eabi_attribute 26, 1	@ Tag_ABI_enum_size
   8              		.eabi_attribute 30, 4	@ Tag_ABI_optimization_goals
   9              		.eabi_attribute 34, 1	@ Tag_CPU_unaligned_access
  10              		.eabi_attribute 18, 4	@ Tag_ABI_PCS_wchar_t
  11              		.file	"stm32f10x_dma.c"
  12              	@ GNU C17 (GNU Tools for Arm Embedded Processors 9-2019-q4-major) version 9.2.1 20191025 (release) 
  13              	@	compiled by GNU C version 5.3.1 20160211, GMP version 6.1.0, MPFR version 3.1.4, MPC version 1.0.
  14              	
  15              	@ GGC heuristics: --param ggc-min-expand=100 --param ggc-min-heapsize=131072
  16              	@ options passed:  -I . -I .\usr_inc -I .\task_inc
  17              	@ -I .\stlib\CMSIS\CM3\CoreSupport
  18              	@ -I .\stlib\CMSIS\CM3\DeviceSupport\ST\STM32F10x
  19              	@ -I .\stlib\STM32F10x_StdPeriph_Driver\inc
  20              	@ -I .\stlib\STM32F10x_StdPeriph_Driver -I .\freertos\include
  21              	@ -I .\freertos\portable\GCC\ARM_CM3 -imultilib thumb/v7-m/nofp
  22              	@ -iprefix c:\program files (x86)\gnu tools arm embedded\9 2019-q4-major\bin\../lib/gcc/arm-none-ea
  23              	@ -isysroot c:\program files (x86)\gnu tools arm embedded\9 2019-q4-major\bin\../arm-none-eabi
  24              	@ -D__USES_INITFINI__ -D STM32F10X_HD -D USE_STDPERIPH_DRIVER
  25              	@ -D HSE_VALUE=8000000 -D RUN_FROM_FLASH=1
  26              	@ .\stlib\STM32F10x_StdPeriph_Driver\src\stm32f10x_dma.c -mcpu=cortex-m3
  27              	@ -mthumb -mfloat-abi=soft -march=armv7-m
  28              	@ -auxbase-strip .\stlib\STM32F10x_StdPeriph_Driver\src\stm32f10x_dma.o -g
  29              	@ -gdwarf-2 -Os -Wall -fomit-frame-pointer -fverbose-asm
  30              	@ options enabled:  -faggressive-loop-optimizations -fassume-phsa
  31              	@ -fauto-inc-dec -fbranch-count-reg -fcaller-saves -fcode-hoisting
  32              	@ -fcombine-stack-adjustments -fcommon -fcompare-elim -fcprop-registers
  33              	@ -fcrossjumping -fcse-follow-jumps -fdefer-pop
  34              	@ -fdelete-null-pointer-checks -fdevirtualize -fdevirtualize-speculatively
  35              	@ -fdwarf2-cfi-asm -fearly-inlining -feliminate-unused-debug-types
  36              	@ -fexpensive-optimizations -fforward-propagate -ffp-int-builtin-inexact
  37              	@ -ffunction-cse -fgcse -fgcse-lm -fgnu-runtime -fgnu-unique
  38              	@ -fguess-branch-probability -fhoist-adjacent-loads -fident -fif-conversion
  39              	@ -fif-conversion2 -findirect-inlining -finline -finline-atomics
  40              	@ -finline-functions -finline-functions-called-once
  41              	@ -finline-small-functions -fipa-bit-cp -fipa-cp -fipa-icf
  42              	@ -fipa-icf-functions -fipa-icf-variables -fipa-profile -fipa-pure-const
  43              	@ -fipa-ra -fipa-reference -fipa-reference-addressable -fipa-sra
  44              	@ -fipa-stack-alignment -fipa-vrp -fira-hoist-pressure
  45              	@ -fira-share-save-slots -fira-share-spill-slots
  46              	@ -fisolate-erroneous-paths-dereference -fivopts -fkeep-static-consts
  47              	@ -fleading-underscore -flifetime-dse -flra-remat -flto-odr-type-merging
  48              	@ -fmath-errno -fmerge-constants -fmerge-debug-strings
  49              	@ -fmove-loop-invariants -fomit-frame-pointer -foptimize-sibling-calls
  50              	@ -fpartial-inlining -fpeephole -fpeephole2 -fplt -fprefetch-loop-arrays
  51              	@ -freg-struct-return -freorder-blocks -freorder-functions
  52              	@ -frerun-cse-after-loop -fsched-critical-path-heuristic
  53              	@ -fsched-dep-count-heuristic -fsched-group-heuristic -fsched-interblock
  54              	@ -fsched-last-insn-heuristic -fsched-pressure -fsched-rank-heuristic
  55              	@ -fsched-spec -fsched-spec-insn-heuristic -fsched-stalled-insns-dep
  56              	@ -fschedule-insns2 -fsection-anchors -fsemantic-interposition
  57              	@ -fshow-column -fshrink-wrap-separate -fsigned-zeros
ARM GAS  C:\Users\skey\AppData\Local\Temp\ccsfckNU.s 			page 2


  58              	@ -fsplit-ivs-in-unroller -fsplit-wide-types -fssa-backprop -fssa-phiopt
  59              	@ -fstdarg-opt -fstore-merging -fstrict-aliasing
  60              	@ -fstrict-volatile-bitfields -fsync-libcalls -fthread-jumps
  61              	@ -ftoplevel-reorder -ftrapping-math -ftree-bit-ccp -ftree-builtin-call-dce
  62              	@ -ftree-ccp -ftree-ch -ftree-coalesce-vars -ftree-copy-prop -ftree-cselim
  63              	@ -ftree-dce -ftree-dominator-opts -ftree-dse -ftree-forwprop -ftree-fre
  64              	@ -ftree-loop-if-convert -ftree-loop-im -ftree-loop-ivcanon
  65              	@ -ftree-loop-optimize -ftree-parallelize-loops= -ftree-phiprop -ftree-pre
  66              	@ -ftree-pta -ftree-reassoc -ftree-scev-cprop -ftree-sink -ftree-slsr
  67              	@ -ftree-sra -ftree-switch-conversion -ftree-tail-merge -ftree-ter
  68              	@ -ftree-vrp -funit-at-a-time -fvar-tracking -fvar-tracking-assignments
  69              	@ -fverbose-asm -fzero-initialized-in-bss -masm-syntax-unified -mbe32
  70              	@ -mfix-cortex-m3-ldrd -mlittle-endian -mpic-data-is-text-relative
  71              	@ -msched-prolog -mthumb -munaligned-access -mvectorize-with-neon-quad
  72              	
  73              		.text
  74              	.Ltext0:
  75              		.cfi_sections	.debug_frame
  76              		.align	1
  77              		.global	DMA_DeInit
  78              		.arch armv7-m
  79              		.syntax unified
  80              		.thumb
  81              		.thumb_func
  82              		.fpu softvfp
  83              		.type	DMA_DeInit, %function
  84              	DMA_DeInit:
  85              	.LVL0:
  86              	.LFB29:
  87              		.file 1 ".\\stlib\\STM32F10x_StdPeriph_Driver\\src\\stm32f10x_dma.c"
   1:.\stlib\STM32F10x_StdPeriph_Driver\src/stm32f10x_dma.c **** /**
   2:.\stlib\STM32F10x_StdPeriph_Driver\src/stm32f10x_dma.c ****   ******************************************************************************
   3:.\stlib\STM32F10x_StdPeriph_Driver\src/stm32f10x_dma.c ****   * @file    stm32f10x_dma.c
   4:.\stlib\STM32F10x_StdPeriph_Driver\src/stm32f10x_dma.c ****   * @author  MCD Application Team
   5:.\stlib\STM32F10x_StdPeriph_Driver\src/stm32f10x_dma.c ****   * @version V3.5.0
   6:.\stlib\STM32F10x_StdPeriph_Driver\src/stm32f10x_dma.c ****   * @date    11-March-2011
   7:.\stlib\STM32F10x_StdPeriph_Driver\src/stm32f10x_dma.c ****   * @brief   This file provides all the DMA firmware functions.
   8:.\stlib\STM32F10x_StdPeriph_Driver\src/stm32f10x_dma.c ****   ******************************************************************************
   9:.\stlib\STM32F10x_StdPeriph_Driver\src/stm32f10x_dma.c ****   * @attention
  10:.\stlib\STM32F10x_StdPeriph_Driver\src/stm32f10x_dma.c ****   *
  11:.\stlib\STM32F10x_StdPeriph_Driver\src/stm32f10x_dma.c ****   * THE PRESENT FIRMWARE WHICH IS FOR GUIDANCE ONLY AIMS AT PROVIDING CUSTOMERS
  12:.\stlib\STM32F10x_StdPeriph_Driver\src/stm32f10x_dma.c ****   * WITH CODING INFORMATION REGARDING THEIR PRODUCTS IN ORDER FOR THEM TO SAVE
  13:.\stlib\STM32F10x_StdPeriph_Driver\src/stm32f10x_dma.c ****   * TIME. AS A RESULT, STMICROELECTRONICS SHALL NOT BE HELD LIABLE FOR ANY
  14:.\stlib\STM32F10x_StdPeriph_Driver\src/stm32f10x_dma.c ****   * DIRECT, INDIRECT OR CONSEQUENTIAL DAMAGES WITH RESPECT TO ANY CLAIMS ARISING
  15:.\stlib\STM32F10x_StdPeriph_Driver\src/stm32f10x_dma.c ****   * FROM THE CONTENT OF SUCH FIRMWARE AND/OR THE USE MADE BY CUSTOMERS OF THE
  16:.\stlib\STM32F10x_StdPeriph_Driver\src/stm32f10x_dma.c ****   * CODING INFORMATION CONTAINED HEREIN IN CONNECTION WITH THEIR PRODUCTS.
  17:.\stlib\STM32F10x_StdPeriph_Driver\src/stm32f10x_dma.c ****   *
  18:.\stlib\STM32F10x_StdPeriph_Driver\src/stm32f10x_dma.c ****   * <h2><center>&copy; COPYRIGHT 2011 STMicroelectronics</center></h2>
  19:.\stlib\STM32F10x_StdPeriph_Driver\src/stm32f10x_dma.c ****   ******************************************************************************
  20:.\stlib\STM32F10x_StdPeriph_Driver\src/stm32f10x_dma.c ****   */
  21:.\stlib\STM32F10x_StdPeriph_Driver\src/stm32f10x_dma.c **** 
  22:.\stlib\STM32F10x_StdPeriph_Driver\src/stm32f10x_dma.c **** /* Includes ------------------------------------------------------------------*/
  23:.\stlib\STM32F10x_StdPeriph_Driver\src/stm32f10x_dma.c **** #include "stm32f10x_dma.h"
  24:.\stlib\STM32F10x_StdPeriph_Driver\src/stm32f10x_dma.c **** #include "stm32f10x_rcc.h"
  25:.\stlib\STM32F10x_StdPeriph_Driver\src/stm32f10x_dma.c **** 
  26:.\stlib\STM32F10x_StdPeriph_Driver\src/stm32f10x_dma.c **** /** @addtogroup STM32F10x_StdPeriph_Driver
  27:.\stlib\STM32F10x_StdPeriph_Driver\src/stm32f10x_dma.c ****   * @{
ARM GAS  C:\Users\skey\AppData\Local\Temp\ccsfckNU.s 			page 3


  28:.\stlib\STM32F10x_StdPeriph_Driver\src/stm32f10x_dma.c ****   */
  29:.\stlib\STM32F10x_StdPeriph_Driver\src/stm32f10x_dma.c **** 
  30:.\stlib\STM32F10x_StdPeriph_Driver\src/stm32f10x_dma.c **** /** @defgroup DMA 
  31:.\stlib\STM32F10x_StdPeriph_Driver\src/stm32f10x_dma.c ****   * @brief DMA driver modules
  32:.\stlib\STM32F10x_StdPeriph_Driver\src/stm32f10x_dma.c ****   * @{
  33:.\stlib\STM32F10x_StdPeriph_Driver\src/stm32f10x_dma.c ****   */ 
  34:.\stlib\STM32F10x_StdPeriph_Driver\src/stm32f10x_dma.c **** 
  35:.\stlib\STM32F10x_StdPeriph_Driver\src/stm32f10x_dma.c **** /** @defgroup DMA_Private_TypesDefinitions
  36:.\stlib\STM32F10x_StdPeriph_Driver\src/stm32f10x_dma.c ****   * @{
  37:.\stlib\STM32F10x_StdPeriph_Driver\src/stm32f10x_dma.c ****   */ 
  38:.\stlib\STM32F10x_StdPeriph_Driver\src/stm32f10x_dma.c **** /**
  39:.\stlib\STM32F10x_StdPeriph_Driver\src/stm32f10x_dma.c ****   * @}
  40:.\stlib\STM32F10x_StdPeriph_Driver\src/stm32f10x_dma.c ****   */
  41:.\stlib\STM32F10x_StdPeriph_Driver\src/stm32f10x_dma.c **** 
  42:.\stlib\STM32F10x_StdPeriph_Driver\src/stm32f10x_dma.c **** /** @defgroup DMA_Private_Defines
  43:.\stlib\STM32F10x_StdPeriph_Driver\src/stm32f10x_dma.c ****   * @{
  44:.\stlib\STM32F10x_StdPeriph_Driver\src/stm32f10x_dma.c ****   */
  45:.\stlib\STM32F10x_StdPeriph_Driver\src/stm32f10x_dma.c **** 
  46:.\stlib\STM32F10x_StdPeriph_Driver\src/stm32f10x_dma.c **** 
  47:.\stlib\STM32F10x_StdPeriph_Driver\src/stm32f10x_dma.c **** /* DMA1 Channelx interrupt pending bit masks */
  48:.\stlib\STM32F10x_StdPeriph_Driver\src/stm32f10x_dma.c **** #define DMA1_Channel1_IT_Mask    ((uint32_t)(DMA_ISR_GIF1 | DMA_ISR_TCIF1 | DMA_ISR_HTIF1 | DMA_ISR
  49:.\stlib\STM32F10x_StdPeriph_Driver\src/stm32f10x_dma.c **** #define DMA1_Channel2_IT_Mask    ((uint32_t)(DMA_ISR_GIF2 | DMA_ISR_TCIF2 | DMA_ISR_HTIF2 | DMA_ISR
  50:.\stlib\STM32F10x_StdPeriph_Driver\src/stm32f10x_dma.c **** #define DMA1_Channel3_IT_Mask    ((uint32_t)(DMA_ISR_GIF3 | DMA_ISR_TCIF3 | DMA_ISR_HTIF3 | DMA_ISR
  51:.\stlib\STM32F10x_StdPeriph_Driver\src/stm32f10x_dma.c **** #define DMA1_Channel4_IT_Mask    ((uint32_t)(DMA_ISR_GIF4 | DMA_ISR_TCIF4 | DMA_ISR_HTIF4 | DMA_ISR
  52:.\stlib\STM32F10x_StdPeriph_Driver\src/stm32f10x_dma.c **** #define DMA1_Channel5_IT_Mask    ((uint32_t)(DMA_ISR_GIF5 | DMA_ISR_TCIF5 | DMA_ISR_HTIF5 | DMA_ISR
  53:.\stlib\STM32F10x_StdPeriph_Driver\src/stm32f10x_dma.c **** #define DMA1_Channel6_IT_Mask    ((uint32_t)(DMA_ISR_GIF6 | DMA_ISR_TCIF6 | DMA_ISR_HTIF6 | DMA_ISR
  54:.\stlib\STM32F10x_StdPeriph_Driver\src/stm32f10x_dma.c **** #define DMA1_Channel7_IT_Mask    ((uint32_t)(DMA_ISR_GIF7 | DMA_ISR_TCIF7 | DMA_ISR_HTIF7 | DMA_ISR
  55:.\stlib\STM32F10x_StdPeriph_Driver\src/stm32f10x_dma.c **** 
  56:.\stlib\STM32F10x_StdPeriph_Driver\src/stm32f10x_dma.c **** /* DMA2 Channelx interrupt pending bit masks */
  57:.\stlib\STM32F10x_StdPeriph_Driver\src/stm32f10x_dma.c **** #define DMA2_Channel1_IT_Mask    ((uint32_t)(DMA_ISR_GIF1 | DMA_ISR_TCIF1 | DMA_ISR_HTIF1 | DMA_ISR
  58:.\stlib\STM32F10x_StdPeriph_Driver\src/stm32f10x_dma.c **** #define DMA2_Channel2_IT_Mask    ((uint32_t)(DMA_ISR_GIF2 | DMA_ISR_TCIF2 | DMA_ISR_HTIF2 | DMA_ISR
  59:.\stlib\STM32F10x_StdPeriph_Driver\src/stm32f10x_dma.c **** #define DMA2_Channel3_IT_Mask    ((uint32_t)(DMA_ISR_GIF3 | DMA_ISR_TCIF3 | DMA_ISR_HTIF3 | DMA_ISR
  60:.\stlib\STM32F10x_StdPeriph_Driver\src/stm32f10x_dma.c **** #define DMA2_Channel4_IT_Mask    ((uint32_t)(DMA_ISR_GIF4 | DMA_ISR_TCIF4 | DMA_ISR_HTIF4 | DMA_ISR
  61:.\stlib\STM32F10x_StdPeriph_Driver\src/stm32f10x_dma.c **** #define DMA2_Channel5_IT_Mask    ((uint32_t)(DMA_ISR_GIF5 | DMA_ISR_TCIF5 | DMA_ISR_HTIF5 | DMA_ISR
  62:.\stlib\STM32F10x_StdPeriph_Driver\src/stm32f10x_dma.c **** 
  63:.\stlib\STM32F10x_StdPeriph_Driver\src/stm32f10x_dma.c **** /* DMA2 FLAG mask */
  64:.\stlib\STM32F10x_StdPeriph_Driver\src/stm32f10x_dma.c **** #define FLAG_Mask                ((uint32_t)0x10000000)
  65:.\stlib\STM32F10x_StdPeriph_Driver\src/stm32f10x_dma.c **** 
  66:.\stlib\STM32F10x_StdPeriph_Driver\src/stm32f10x_dma.c **** /* DMA registers Masks */
  67:.\stlib\STM32F10x_StdPeriph_Driver\src/stm32f10x_dma.c **** #define CCR_CLEAR_Mask           ((uint32_t)0xFFFF800F)
  68:.\stlib\STM32F10x_StdPeriph_Driver\src/stm32f10x_dma.c **** 
  69:.\stlib\STM32F10x_StdPeriph_Driver\src/stm32f10x_dma.c **** /**
  70:.\stlib\STM32F10x_StdPeriph_Driver\src/stm32f10x_dma.c ****   * @}
  71:.\stlib\STM32F10x_StdPeriph_Driver\src/stm32f10x_dma.c ****   */
  72:.\stlib\STM32F10x_StdPeriph_Driver\src/stm32f10x_dma.c **** 
  73:.\stlib\STM32F10x_StdPeriph_Driver\src/stm32f10x_dma.c **** /** @defgroup DMA_Private_Macros
  74:.\stlib\STM32F10x_StdPeriph_Driver\src/stm32f10x_dma.c ****   * @{
  75:.\stlib\STM32F10x_StdPeriph_Driver\src/stm32f10x_dma.c ****   */
  76:.\stlib\STM32F10x_StdPeriph_Driver\src/stm32f10x_dma.c **** 
  77:.\stlib\STM32F10x_StdPeriph_Driver\src/stm32f10x_dma.c **** /**
  78:.\stlib\STM32F10x_StdPeriph_Driver\src/stm32f10x_dma.c ****   * @}
  79:.\stlib\STM32F10x_StdPeriph_Driver\src/stm32f10x_dma.c ****   */
  80:.\stlib\STM32F10x_StdPeriph_Driver\src/stm32f10x_dma.c **** 
  81:.\stlib\STM32F10x_StdPeriph_Driver\src/stm32f10x_dma.c **** /** @defgroup DMA_Private_Variables
  82:.\stlib\STM32F10x_StdPeriph_Driver\src/stm32f10x_dma.c ****   * @{
  83:.\stlib\STM32F10x_StdPeriph_Driver\src/stm32f10x_dma.c ****   */
  84:.\stlib\STM32F10x_StdPeriph_Driver\src/stm32f10x_dma.c **** 
ARM GAS  C:\Users\skey\AppData\Local\Temp\ccsfckNU.s 			page 4


  85:.\stlib\STM32F10x_StdPeriph_Driver\src/stm32f10x_dma.c **** /**
  86:.\stlib\STM32F10x_StdPeriph_Driver\src/stm32f10x_dma.c ****   * @}
  87:.\stlib\STM32F10x_StdPeriph_Driver\src/stm32f10x_dma.c ****   */
  88:.\stlib\STM32F10x_StdPeriph_Driver\src/stm32f10x_dma.c **** 
  89:.\stlib\STM32F10x_StdPeriph_Driver\src/stm32f10x_dma.c **** /** @defgroup DMA_Private_FunctionPrototypes
  90:.\stlib\STM32F10x_StdPeriph_Driver\src/stm32f10x_dma.c ****   * @{
  91:.\stlib\STM32F10x_StdPeriph_Driver\src/stm32f10x_dma.c ****   */
  92:.\stlib\STM32F10x_StdPeriph_Driver\src/stm32f10x_dma.c **** 
  93:.\stlib\STM32F10x_StdPeriph_Driver\src/stm32f10x_dma.c **** /**
  94:.\stlib\STM32F10x_StdPeriph_Driver\src/stm32f10x_dma.c ****   * @}
  95:.\stlib\STM32F10x_StdPeriph_Driver\src/stm32f10x_dma.c ****   */
  96:.\stlib\STM32F10x_StdPeriph_Driver\src/stm32f10x_dma.c **** 
  97:.\stlib\STM32F10x_StdPeriph_Driver\src/stm32f10x_dma.c **** /** @defgroup DMA_Private_Functions
  98:.\stlib\STM32F10x_StdPeriph_Driver\src/stm32f10x_dma.c ****   * @{
  99:.\stlib\STM32F10x_StdPeriph_Driver\src/stm32f10x_dma.c ****   */
 100:.\stlib\STM32F10x_StdPeriph_Driver\src/stm32f10x_dma.c **** 
 101:.\stlib\STM32F10x_StdPeriph_Driver\src/stm32f10x_dma.c **** /**
 102:.\stlib\STM32F10x_StdPeriph_Driver\src/stm32f10x_dma.c ****   * @brief  Deinitializes the DMAy Channelx registers to their default reset
 103:.\stlib\STM32F10x_StdPeriph_Driver\src/stm32f10x_dma.c ****   *         values.
 104:.\stlib\STM32F10x_StdPeriph_Driver\src/stm32f10x_dma.c ****   * @param  DMAy_Channelx: where y can be 1 or 2 to select the DMA and
 105:.\stlib\STM32F10x_StdPeriph_Driver\src/stm32f10x_dma.c ****   *   x can be 1 to 7 for DMA1 and 1 to 5 for DMA2 to select the DMA Channel.
 106:.\stlib\STM32F10x_StdPeriph_Driver\src/stm32f10x_dma.c ****   * @retval None
 107:.\stlib\STM32F10x_StdPeriph_Driver\src/stm32f10x_dma.c ****   */
 108:.\stlib\STM32F10x_StdPeriph_Driver\src/stm32f10x_dma.c **** void DMA_DeInit(DMA_Channel_TypeDef* DMAy_Channelx)
 109:.\stlib\STM32F10x_StdPeriph_Driver\src/stm32f10x_dma.c **** {
  88              		.loc 1 109 1 view -0
  89              		.cfi_startproc
  90              		@ args = 0, pretend = 0, frame = 0
  91              		@ frame_needed = 0, uses_anonymous_args = 0
  92              		@ link register save eliminated.
 110:.\stlib\STM32F10x_StdPeriph_Driver\src/stm32f10x_dma.c ****   /* Check the parameters */
 111:.\stlib\STM32F10x_StdPeriph_Driver\src/stm32f10x_dma.c ****   assert_param(IS_DMA_ALL_PERIPH(DMAy_Channelx));
  93              		.loc 1 111 3 view .LVU1
 112:.\stlib\STM32F10x_StdPeriph_Driver\src/stm32f10x_dma.c ****   
 113:.\stlib\STM32F10x_StdPeriph_Driver\src/stm32f10x_dma.c ****   /* Disable the selected DMAy Channelx */
 114:.\stlib\STM32F10x_StdPeriph_Driver\src/stm32f10x_dma.c ****   DMAy_Channelx->CCR &= (uint16_t)(~DMA_CCR1_EN);
  94              		.loc 1 114 3 view .LVU2
  95              	@ .\stlib\STM32F10x_StdPeriph_Driver\src\stm32f10x_dma.c:114:   DMAy_Channelx->CCR &= (uint16_t)(~D
  96              		.loc 1 114 22 is_stmt 0 view .LVU3
  97 0000 0368     		ldr	r3, [r0]	@ _1, DMAy_Channelx_29(D)->CCR
  98 0002 23F00103 		bic	r3, r3, #1	@ _2, _1,
  99 0006 1B04     		lsls	r3, r3, #16	@ _2, _2,
 100 0008 1B0C     		lsrs	r3, r3, #16	@ _2, _2,
 101 000a 0360     		str	r3, [r0]	@ _2, DMAy_Channelx_29(D)->CCR
 115:.\stlib\STM32F10x_StdPeriph_Driver\src/stm32f10x_dma.c ****   
 116:.\stlib\STM32F10x_StdPeriph_Driver\src/stm32f10x_dma.c ****   /* Reset DMAy Channelx control register */
 117:.\stlib\STM32F10x_StdPeriph_Driver\src/stm32f10x_dma.c ****   DMAy_Channelx->CCR  = 0;
 102              		.loc 1 117 3 is_stmt 1 view .LVU4
 103              	@ .\stlib\STM32F10x_StdPeriph_Driver\src\stm32f10x_dma.c:117:   DMAy_Channelx->CCR  = 0;
 104              		.loc 1 117 23 is_stmt 0 view .LVU5
 105 000c 0023     		movs	r3, #0	@ tmp138,
 106 000e 0360     		str	r3, [r0]	@ tmp138, DMAy_Channelx_29(D)->CCR
 118:.\stlib\STM32F10x_StdPeriph_Driver\src/stm32f10x_dma.c ****   
 119:.\stlib\STM32F10x_StdPeriph_Driver\src/stm32f10x_dma.c ****   /* Reset DMAy Channelx remaining bytes register */
 120:.\stlib\STM32F10x_StdPeriph_Driver\src/stm32f10x_dma.c ****   DMAy_Channelx->CNDTR = 0;
 107              		.loc 1 120 3 is_stmt 1 view .LVU6
 108              	@ .\stlib\STM32F10x_StdPeriph_Driver\src\stm32f10x_dma.c:120:   DMAy_Channelx->CNDTR = 0;
ARM GAS  C:\Users\skey\AppData\Local\Temp\ccsfckNU.s 			page 5


 109              		.loc 1 120 24 is_stmt 0 view .LVU7
 110 0010 4360     		str	r3, [r0, #4]	@ tmp138, DMAy_Channelx_29(D)->CNDTR
 121:.\stlib\STM32F10x_StdPeriph_Driver\src/stm32f10x_dma.c ****   
 122:.\stlib\STM32F10x_StdPeriph_Driver\src/stm32f10x_dma.c ****   /* Reset DMAy Channelx peripheral address register */
 123:.\stlib\STM32F10x_StdPeriph_Driver\src/stm32f10x_dma.c ****   DMAy_Channelx->CPAR  = 0;
 111              		.loc 1 123 3 is_stmt 1 view .LVU8
 112              	@ .\stlib\STM32F10x_StdPeriph_Driver\src\stm32f10x_dma.c:123:   DMAy_Channelx->CPAR  = 0;
 113              		.loc 1 123 24 is_stmt 0 view .LVU9
 114 0012 8360     		str	r3, [r0, #8]	@ tmp138, DMAy_Channelx_29(D)->CPAR
 124:.\stlib\STM32F10x_StdPeriph_Driver\src/stm32f10x_dma.c ****   
 125:.\stlib\STM32F10x_StdPeriph_Driver\src/stm32f10x_dma.c ****   /* Reset DMAy Channelx memory address register */
 126:.\stlib\STM32F10x_StdPeriph_Driver\src/stm32f10x_dma.c ****   DMAy_Channelx->CMAR = 0;
 115              		.loc 1 126 3 is_stmt 1 view .LVU10
 116              	@ .\stlib\STM32F10x_StdPeriph_Driver\src\stm32f10x_dma.c:126:   DMAy_Channelx->CMAR = 0;
 117              		.loc 1 126 23 is_stmt 0 view .LVU11
 118 0014 C360     		str	r3, [r0, #12]	@ tmp138, DMAy_Channelx_29(D)->CMAR
 127:.\stlib\STM32F10x_StdPeriph_Driver\src/stm32f10x_dma.c ****   
 128:.\stlib\STM32F10x_StdPeriph_Driver\src/stm32f10x_dma.c ****   if (DMAy_Channelx == DMA1_Channel1)
 119              		.loc 1 128 3 is_stmt 1 view .LVU12
 120              	@ .\stlib\STM32F10x_StdPeriph_Driver\src\stm32f10x_dma.c:128:   if (DMAy_Channelx == DMA1_Channel1)
 121              		.loc 1 128 6 is_stmt 0 view .LVU13
 122 0016 294B     		ldr	r3, .L20	@ tmp142,
 123 0018 9842     		cmp	r0, r3	@ DMAy_Channelx, tmp142
 124 001a 04D1     		bne	.L2		@,
 129:.\stlib\STM32F10x_StdPeriph_Driver\src/stm32f10x_dma.c ****   {
 130:.\stlib\STM32F10x_StdPeriph_Driver\src/stm32f10x_dma.c ****     /* Reset interrupt pending bits for DMA1 Channel1 */
 131:.\stlib\STM32F10x_StdPeriph_Driver\src/stm32f10x_dma.c ****     DMA1->IFCR |= DMA1_Channel1_IT_Mask;
 125              		.loc 1 131 5 is_stmt 1 view .LVU14
 126              	@ .\stlib\STM32F10x_StdPeriph_Driver\src\stm32f10x_dma.c:131:     DMA1->IFCR |= DMA1_Channel1_IT_Ma
 127              		.loc 1 131 16 is_stmt 0 view .LVU15
 128 001c 284A     		ldr	r2, .L20+4	@ tmp143,
 129              	.L16:
 130              	@ .\stlib\STM32F10x_StdPeriph_Driver\src\stm32f10x_dma.c:166:     DMA2->IFCR |= DMA2_Channel1_IT_Ma
 132:.\stlib\STM32F10x_StdPeriph_Driver\src/stm32f10x_dma.c ****   }
 133:.\stlib\STM32F10x_StdPeriph_Driver\src/stm32f10x_dma.c ****   else if (DMAy_Channelx == DMA1_Channel2)
 134:.\stlib\STM32F10x_StdPeriph_Driver\src/stm32f10x_dma.c ****   {
 135:.\stlib\STM32F10x_StdPeriph_Driver\src/stm32f10x_dma.c ****     /* Reset interrupt pending bits for DMA1 Channel2 */
 136:.\stlib\STM32F10x_StdPeriph_Driver\src/stm32f10x_dma.c ****     DMA1->IFCR |= DMA1_Channel2_IT_Mask;
 137:.\stlib\STM32F10x_StdPeriph_Driver\src/stm32f10x_dma.c ****   }
 138:.\stlib\STM32F10x_StdPeriph_Driver\src/stm32f10x_dma.c ****   else if (DMAy_Channelx == DMA1_Channel3)
 139:.\stlib\STM32F10x_StdPeriph_Driver\src/stm32f10x_dma.c ****   {
 140:.\stlib\STM32F10x_StdPeriph_Driver\src/stm32f10x_dma.c ****     /* Reset interrupt pending bits for DMA1 Channel3 */
 141:.\stlib\STM32F10x_StdPeriph_Driver\src/stm32f10x_dma.c ****     DMA1->IFCR |= DMA1_Channel3_IT_Mask;
 142:.\stlib\STM32F10x_StdPeriph_Driver\src/stm32f10x_dma.c ****   }
 143:.\stlib\STM32F10x_StdPeriph_Driver\src/stm32f10x_dma.c ****   else if (DMAy_Channelx == DMA1_Channel4)
 144:.\stlib\STM32F10x_StdPeriph_Driver\src/stm32f10x_dma.c ****   {
 145:.\stlib\STM32F10x_StdPeriph_Driver\src/stm32f10x_dma.c ****     /* Reset interrupt pending bits for DMA1 Channel4 */
 146:.\stlib\STM32F10x_StdPeriph_Driver\src/stm32f10x_dma.c ****     DMA1->IFCR |= DMA1_Channel4_IT_Mask;
 147:.\stlib\STM32F10x_StdPeriph_Driver\src/stm32f10x_dma.c ****   }
 148:.\stlib\STM32F10x_StdPeriph_Driver\src/stm32f10x_dma.c ****   else if (DMAy_Channelx == DMA1_Channel5)
 149:.\stlib\STM32F10x_StdPeriph_Driver\src/stm32f10x_dma.c ****   {
 150:.\stlib\STM32F10x_StdPeriph_Driver\src/stm32f10x_dma.c ****     /* Reset interrupt pending bits for DMA1 Channel5 */
 151:.\stlib\STM32F10x_StdPeriph_Driver\src/stm32f10x_dma.c ****     DMA1->IFCR |= DMA1_Channel5_IT_Mask;
 152:.\stlib\STM32F10x_StdPeriph_Driver\src/stm32f10x_dma.c ****   }
 153:.\stlib\STM32F10x_StdPeriph_Driver\src/stm32f10x_dma.c ****   else if (DMAy_Channelx == DMA1_Channel6)
 154:.\stlib\STM32F10x_StdPeriph_Driver\src/stm32f10x_dma.c ****   {
 155:.\stlib\STM32F10x_StdPeriph_Driver\src/stm32f10x_dma.c ****     /* Reset interrupt pending bits for DMA1 Channel6 */
ARM GAS  C:\Users\skey\AppData\Local\Temp\ccsfckNU.s 			page 6


 156:.\stlib\STM32F10x_StdPeriph_Driver\src/stm32f10x_dma.c ****     DMA1->IFCR |= DMA1_Channel6_IT_Mask;
 157:.\stlib\STM32F10x_StdPeriph_Driver\src/stm32f10x_dma.c ****   }
 158:.\stlib\STM32F10x_StdPeriph_Driver\src/stm32f10x_dma.c ****   else if (DMAy_Channelx == DMA1_Channel7)
 159:.\stlib\STM32F10x_StdPeriph_Driver\src/stm32f10x_dma.c ****   {
 160:.\stlib\STM32F10x_StdPeriph_Driver\src/stm32f10x_dma.c ****     /* Reset interrupt pending bits for DMA1 Channel7 */
 161:.\stlib\STM32F10x_StdPeriph_Driver\src/stm32f10x_dma.c ****     DMA1->IFCR |= DMA1_Channel7_IT_Mask;
 162:.\stlib\STM32F10x_StdPeriph_Driver\src/stm32f10x_dma.c ****   }
 163:.\stlib\STM32F10x_StdPeriph_Driver\src/stm32f10x_dma.c ****   else if (DMAy_Channelx == DMA2_Channel1)
 164:.\stlib\STM32F10x_StdPeriph_Driver\src/stm32f10x_dma.c ****   {
 165:.\stlib\STM32F10x_StdPeriph_Driver\src/stm32f10x_dma.c ****     /* Reset interrupt pending bits for DMA2 Channel1 */
 166:.\stlib\STM32F10x_StdPeriph_Driver\src/stm32f10x_dma.c ****     DMA2->IFCR |= DMA2_Channel1_IT_Mask;
 131              		.loc 1 166 16 view .LVU16
 132 001e 5368     		ldr	r3, [r2, #4]	@ _17,
 133 0020 43F00F03 		orr	r3, r3, #15	@ _18, _17,
 134 0024 26E0     		b	.L14		@
 135              	.L2:
 133:.\stlib\STM32F10x_StdPeriph_Driver\src/stm32f10x_dma.c ****   {
 136              		.loc 1 133 8 is_stmt 1 view .LVU17
 137              	@ .\stlib\STM32F10x_StdPeriph_Driver\src\stm32f10x_dma.c:133:   else if (DMAy_Channelx == DMA1_Chan
 133:.\stlib\STM32F10x_StdPeriph_Driver\src/stm32f10x_dma.c ****   {
 138              		.loc 1 133 11 is_stmt 0 view .LVU18
 139 0026 274B     		ldr	r3, .L20+8	@ tmp145,
 140 0028 9842     		cmp	r0, r3	@ DMAy_Channelx, tmp145
 141 002a 04D1     		bne	.L4		@,
 136:.\stlib\STM32F10x_StdPeriph_Driver\src/stm32f10x_dma.c ****   }
 142              		.loc 1 136 5 is_stmt 1 view .LVU19
 143              	@ .\stlib\STM32F10x_StdPeriph_Driver\src\stm32f10x_dma.c:136:     DMA1->IFCR |= DMA1_Channel2_IT_Ma
 136:.\stlib\STM32F10x_StdPeriph_Driver\src/stm32f10x_dma.c ****   }
 144              		.loc 1 136 16 is_stmt 0 view .LVU20
 145 002c 244A     		ldr	r2, .L20+4	@ tmp146,
 146              	.L17:
 147              	@ .\stlib\STM32F10x_StdPeriph_Driver\src\stm32f10x_dma.c:171:     DMA2->IFCR |= DMA2_Channel2_IT_Ma
 167:.\stlib\STM32F10x_StdPeriph_Driver\src/stm32f10x_dma.c ****   }
 168:.\stlib\STM32F10x_StdPeriph_Driver\src/stm32f10x_dma.c ****   else if (DMAy_Channelx == DMA2_Channel2)
 169:.\stlib\STM32F10x_StdPeriph_Driver\src/stm32f10x_dma.c ****   {
 170:.\stlib\STM32F10x_StdPeriph_Driver\src/stm32f10x_dma.c ****     /* Reset interrupt pending bits for DMA2 Channel2 */
 171:.\stlib\STM32F10x_StdPeriph_Driver\src/stm32f10x_dma.c ****     DMA2->IFCR |= DMA2_Channel2_IT_Mask;
 148              		.loc 1 171 16 view .LVU21
 149 002e 5368     		ldr	r3, [r2, #4]	@ _19,
 150 0030 43F0F003 		orr	r3, r3, #240	@ _20, _19,
 151 0034 1EE0     		b	.L14		@
 152              	.L4:
 138:.\stlib\STM32F10x_StdPeriph_Driver\src/stm32f10x_dma.c ****   {
 153              		.loc 1 138 8 is_stmt 1 view .LVU22
 154              	@ .\stlib\STM32F10x_StdPeriph_Driver\src\stm32f10x_dma.c:138:   else if (DMAy_Channelx == DMA1_Chan
 138:.\stlib\STM32F10x_StdPeriph_Driver\src/stm32f10x_dma.c ****   {
 155              		.loc 1 138 11 is_stmt 0 view .LVU23
 156 0036 244B     		ldr	r3, .L20+12	@ tmp148,
 157 0038 9842     		cmp	r0, r3	@ DMAy_Channelx, tmp148
 158 003a 04D1     		bne	.L5		@,
 141:.\stlib\STM32F10x_StdPeriph_Driver\src/stm32f10x_dma.c ****   }
 159              		.loc 1 141 5 is_stmt 1 view .LVU24
 160              	@ .\stlib\STM32F10x_StdPeriph_Driver\src\stm32f10x_dma.c:141:     DMA1->IFCR |= DMA1_Channel3_IT_Ma
 141:.\stlib\STM32F10x_StdPeriph_Driver\src/stm32f10x_dma.c ****   }
 161              		.loc 1 141 16 is_stmt 0 view .LVU25
 162 003c 204A     		ldr	r2, .L20+4	@ tmp149,
 163              	.L18:
ARM GAS  C:\Users\skey\AppData\Local\Temp\ccsfckNU.s 			page 7


 164              	@ .\stlib\STM32F10x_StdPeriph_Driver\src\stm32f10x_dma.c:176:     DMA2->IFCR |= DMA2_Channel3_IT_Ma
 172:.\stlib\STM32F10x_StdPeriph_Driver\src/stm32f10x_dma.c ****   }
 173:.\stlib\STM32F10x_StdPeriph_Driver\src/stm32f10x_dma.c ****   else if (DMAy_Channelx == DMA2_Channel3)
 174:.\stlib\STM32F10x_StdPeriph_Driver\src/stm32f10x_dma.c ****   {
 175:.\stlib\STM32F10x_StdPeriph_Driver\src/stm32f10x_dma.c ****     /* Reset interrupt pending bits for DMA2 Channel3 */
 176:.\stlib\STM32F10x_StdPeriph_Driver\src/stm32f10x_dma.c ****     DMA2->IFCR |= DMA2_Channel3_IT_Mask;
 165              		.loc 1 176 16 view .LVU26
 166 003e 5368     		ldr	r3, [r2, #4]	@ _21,
 167 0040 43F47063 		orr	r3, r3, #3840	@ _22, _21,
 168 0044 16E0     		b	.L14		@
 169              	.L5:
 143:.\stlib\STM32F10x_StdPeriph_Driver\src/stm32f10x_dma.c ****   {
 170              		.loc 1 143 8 is_stmt 1 view .LVU27
 171              	@ .\stlib\STM32F10x_StdPeriph_Driver\src\stm32f10x_dma.c:143:   else if (DMAy_Channelx == DMA1_Chan
 143:.\stlib\STM32F10x_StdPeriph_Driver\src/stm32f10x_dma.c ****   {
 172              		.loc 1 143 11 is_stmt 0 view .LVU28
 173 0046 214B     		ldr	r3, .L20+16	@ tmp151,
 174 0048 9842     		cmp	r0, r3	@ DMAy_Channelx, tmp151
 175 004a 04D1     		bne	.L6		@,
 146:.\stlib\STM32F10x_StdPeriph_Driver\src/stm32f10x_dma.c ****   }
 176              		.loc 1 146 5 is_stmt 1 view .LVU29
 177              	@ .\stlib\STM32F10x_StdPeriph_Driver\src\stm32f10x_dma.c:146:     DMA1->IFCR |= DMA1_Channel4_IT_Ma
 146:.\stlib\STM32F10x_StdPeriph_Driver\src/stm32f10x_dma.c ****   }
 178              		.loc 1 146 16 is_stmt 0 view .LVU30
 179 004c 1C4A     		ldr	r2, .L20+4	@ tmp152,
 180              	.L19:
 181              	@ .\stlib\STM32F10x_StdPeriph_Driver\src\stm32f10x_dma.c:181:     DMA2->IFCR |= DMA2_Channel4_IT_Ma
 177:.\stlib\STM32F10x_StdPeriph_Driver\src/stm32f10x_dma.c ****   }
 178:.\stlib\STM32F10x_StdPeriph_Driver\src/stm32f10x_dma.c ****   else if (DMAy_Channelx == DMA2_Channel4)
 179:.\stlib\STM32F10x_StdPeriph_Driver\src/stm32f10x_dma.c ****   {
 180:.\stlib\STM32F10x_StdPeriph_Driver\src/stm32f10x_dma.c ****     /* Reset interrupt pending bits for DMA2 Channel4 */
 181:.\stlib\STM32F10x_StdPeriph_Driver\src/stm32f10x_dma.c ****     DMA2->IFCR |= DMA2_Channel4_IT_Mask;
 182              		.loc 1 181 16 view .LVU31
 183 004e 5368     		ldr	r3, [r2, #4]	@ _23,
 184 0050 43F47043 		orr	r3, r3, #61440	@ _24, _23,
 185 0054 0EE0     		b	.L14		@
 186              	.L6:
 148:.\stlib\STM32F10x_StdPeriph_Driver\src/stm32f10x_dma.c ****   {
 187              		.loc 1 148 8 is_stmt 1 view .LVU32
 188              	@ .\stlib\STM32F10x_StdPeriph_Driver\src\stm32f10x_dma.c:148:   else if (DMAy_Channelx == DMA1_Chan
 148:.\stlib\STM32F10x_StdPeriph_Driver\src/stm32f10x_dma.c ****   {
 189              		.loc 1 148 11 is_stmt 0 view .LVU33
 190 0056 1E4B     		ldr	r3, .L20+20	@ tmp154,
 191 0058 9842     		cmp	r0, r3	@ DMAy_Channelx, tmp154
 192 005a 04D1     		bne	.L7		@,
 151:.\stlib\STM32F10x_StdPeriph_Driver\src/stm32f10x_dma.c ****   }
 193              		.loc 1 151 5 is_stmt 1 view .LVU34
 194              	@ .\stlib\STM32F10x_StdPeriph_Driver\src\stm32f10x_dma.c:151:     DMA1->IFCR |= DMA1_Channel5_IT_Ma
 151:.\stlib\STM32F10x_StdPeriph_Driver\src/stm32f10x_dma.c ****   }
 195              		.loc 1 151 16 is_stmt 0 view .LVU35
 196 005c 184A     		ldr	r2, .L20+4	@ tmp155,
 197              	.L15:
 198              	@ .\stlib\STM32F10x_StdPeriph_Driver\src\stm32f10x_dma.c:188:       DMA2->IFCR |= DMA2_Channel5_IT_
 182:.\stlib\STM32F10x_StdPeriph_Driver\src/stm32f10x_dma.c ****   }
 183:.\stlib\STM32F10x_StdPeriph_Driver\src/stm32f10x_dma.c ****   else
 184:.\stlib\STM32F10x_StdPeriph_Driver\src/stm32f10x_dma.c ****   { 
 185:.\stlib\STM32F10x_StdPeriph_Driver\src/stm32f10x_dma.c ****     if (DMAy_Channelx == DMA2_Channel5)
ARM GAS  C:\Users\skey\AppData\Local\Temp\ccsfckNU.s 			page 8


 186:.\stlib\STM32F10x_StdPeriph_Driver\src/stm32f10x_dma.c ****     {
 187:.\stlib\STM32F10x_StdPeriph_Driver\src/stm32f10x_dma.c ****       /* Reset interrupt pending bits for DMA2 Channel5 */
 188:.\stlib\STM32F10x_StdPeriph_Driver\src/stm32f10x_dma.c ****       DMA2->IFCR |= DMA2_Channel5_IT_Mask;
 199              		.loc 1 188 18 view .LVU36
 200 005e 5368     		ldr	r3, [r2, #4]	@ _25,
 201 0060 43F47023 		orr	r3, r3, #983040	@ _26, _25,
 202 0064 06E0     		b	.L14		@
 203              	.L7:
 153:.\stlib\STM32F10x_StdPeriph_Driver\src/stm32f10x_dma.c ****   {
 204              		.loc 1 153 8 is_stmt 1 view .LVU37
 205              	@ .\stlib\STM32F10x_StdPeriph_Driver\src\stm32f10x_dma.c:153:   else if (DMAy_Channelx == DMA1_Chan
 153:.\stlib\STM32F10x_StdPeriph_Driver\src/stm32f10x_dma.c ****   {
 206              		.loc 1 153 11 is_stmt 0 view .LVU38
 207 0066 1B4B     		ldr	r3, .L20+24	@ tmp157,
 208 0068 9842     		cmp	r0, r3	@ DMAy_Channelx, tmp157
 209 006a 05D1     		bne	.L8		@,
 156:.\stlib\STM32F10x_StdPeriph_Driver\src/stm32f10x_dma.c ****   }
 210              		.loc 1 156 5 is_stmt 1 view .LVU39
 211              	@ .\stlib\STM32F10x_StdPeriph_Driver\src\stm32f10x_dma.c:156:     DMA1->IFCR |= DMA1_Channel6_IT_Ma
 156:.\stlib\STM32F10x_StdPeriph_Driver\src/stm32f10x_dma.c ****   }
 212              		.loc 1 156 16 is_stmt 0 view .LVU40
 213 006c 144A     		ldr	r2, .L20+4	@ tmp158,
 214 006e 5368     		ldr	r3, [r2, #4]	@ _13, MEM[(struct DMA_TypeDef *)1073872896B].IFCR
 215 0070 43F47003 		orr	r3, r3, #15728640	@ _14, _13,
 216              	.L14:
 217              	@ .\stlib\STM32F10x_StdPeriph_Driver\src\stm32f10x_dma.c:188:       DMA2->IFCR |= DMA2_Channel5_IT_
 218              		.loc 1 188 18 view .LVU41
 219 0074 5360     		str	r3, [r2, #4]	@ _26,
 220              	.L1:
 221              	@ .\stlib\STM32F10x_StdPeriph_Driver\src\stm32f10x_dma.c:191: }
 189:.\stlib\STM32F10x_StdPeriph_Driver\src/stm32f10x_dma.c ****     }
 190:.\stlib\STM32F10x_StdPeriph_Driver\src/stm32f10x_dma.c ****   }
 191:.\stlib\STM32F10x_StdPeriph_Driver\src/stm32f10x_dma.c **** }
 222              		.loc 1 191 1 view .LVU42
 223 0076 7047     		bx	lr	@
 224              	.L8:
 158:.\stlib\STM32F10x_StdPeriph_Driver\src/stm32f10x_dma.c ****   {
 225              		.loc 1 158 8 is_stmt 1 view .LVU43
 226              	@ .\stlib\STM32F10x_StdPeriph_Driver\src\stm32f10x_dma.c:158:   else if (DMAy_Channelx == DMA1_Chan
 158:.\stlib\STM32F10x_StdPeriph_Driver\src/stm32f10x_dma.c ****   {
 227              		.loc 1 158 11 is_stmt 0 view .LVU44
 228 0078 174B     		ldr	r3, .L20+28	@ tmp160,
 229 007a 9842     		cmp	r0, r3	@ DMAy_Channelx, tmp160
 230 007c 04D1     		bne	.L9		@,
 161:.\stlib\STM32F10x_StdPeriph_Driver\src/stm32f10x_dma.c ****   }
 231              		.loc 1 161 5 is_stmt 1 view .LVU45
 232              	@ .\stlib\STM32F10x_StdPeriph_Driver\src\stm32f10x_dma.c:161:     DMA1->IFCR |= DMA1_Channel7_IT_Ma
 161:.\stlib\STM32F10x_StdPeriph_Driver\src/stm32f10x_dma.c ****   }
 233              		.loc 1 161 16 is_stmt 0 view .LVU46
 234 007e 104A     		ldr	r2, .L20+4	@ tmp161,
 235 0080 5368     		ldr	r3, [r2, #4]	@ _15, MEM[(struct DMA_TypeDef *)1073872896B].IFCR
 236 0082 43F07063 		orr	r3, r3, #251658240	@ _16, _15,
 237 0086 F5E7     		b	.L14		@
 238              	.L9:
 163:.\stlib\STM32F10x_StdPeriph_Driver\src/stm32f10x_dma.c ****   {
 239              		.loc 1 163 8 is_stmt 1 view .LVU47
 240              	@ .\stlib\STM32F10x_StdPeriph_Driver\src\stm32f10x_dma.c:163:   else if (DMAy_Channelx == DMA2_Chan
ARM GAS  C:\Users\skey\AppData\Local\Temp\ccsfckNU.s 			page 9


 163:.\stlib\STM32F10x_StdPeriph_Driver\src/stm32f10x_dma.c ****   {
 241              		.loc 1 163 11 is_stmt 0 view .LVU48
 242 0088 144B     		ldr	r3, .L20+32	@ tmp163,
 243 008a 9842     		cmp	r0, r3	@ DMAy_Channelx, tmp163
 244 008c 01D1     		bne	.L10		@,
 166:.\stlib\STM32F10x_StdPeriph_Driver\src/stm32f10x_dma.c ****   }
 245              		.loc 1 166 5 is_stmt 1 view .LVU49
 246              	@ .\stlib\STM32F10x_StdPeriph_Driver\src\stm32f10x_dma.c:166:     DMA2->IFCR |= DMA2_Channel1_IT_Ma
 166:.\stlib\STM32F10x_StdPeriph_Driver\src/stm32f10x_dma.c ****   }
 247              		.loc 1 166 16 is_stmt 0 view .LVU50
 248 008e 144A     		ldr	r2, .L20+36	@ tmp164,
 249 0090 C5E7     		b	.L16		@
 250              	.L10:
 168:.\stlib\STM32F10x_StdPeriph_Driver\src/stm32f10x_dma.c ****   {
 251              		.loc 1 168 8 is_stmt 1 view .LVU51
 252              	@ .\stlib\STM32F10x_StdPeriph_Driver\src\stm32f10x_dma.c:168:   else if (DMAy_Channelx == DMA2_Chan
 168:.\stlib\STM32F10x_StdPeriph_Driver\src/stm32f10x_dma.c ****   {
 253              		.loc 1 168 11 is_stmt 0 view .LVU52
 254 0092 144B     		ldr	r3, .L20+40	@ tmp166,
 255 0094 9842     		cmp	r0, r3	@ DMAy_Channelx, tmp166
 256 0096 01D1     		bne	.L11		@,
 171:.\stlib\STM32F10x_StdPeriph_Driver\src/stm32f10x_dma.c ****   }
 257              		.loc 1 171 5 is_stmt 1 view .LVU53
 258              	@ .\stlib\STM32F10x_StdPeriph_Driver\src\stm32f10x_dma.c:171:     DMA2->IFCR |= DMA2_Channel2_IT_Ma
 171:.\stlib\STM32F10x_StdPeriph_Driver\src/stm32f10x_dma.c ****   }
 259              		.loc 1 171 16 is_stmt 0 view .LVU54
 260 0098 114A     		ldr	r2, .L20+36	@ tmp167,
 261 009a C8E7     		b	.L17		@
 262              	.L11:
 173:.\stlib\STM32F10x_StdPeriph_Driver\src/stm32f10x_dma.c ****   {
 263              		.loc 1 173 8 is_stmt 1 view .LVU55
 264              	@ .\stlib\STM32F10x_StdPeriph_Driver\src\stm32f10x_dma.c:173:   else if (DMAy_Channelx == DMA2_Chan
 173:.\stlib\STM32F10x_StdPeriph_Driver\src/stm32f10x_dma.c ****   {
 265              		.loc 1 173 11 is_stmt 0 view .LVU56
 266 009c 124B     		ldr	r3, .L20+44	@ tmp169,
 267 009e 9842     		cmp	r0, r3	@ DMAy_Channelx, tmp169
 268 00a0 01D1     		bne	.L12		@,
 176:.\stlib\STM32F10x_StdPeriph_Driver\src/stm32f10x_dma.c ****   }
 269              		.loc 1 176 5 is_stmt 1 view .LVU57
 270              	@ .\stlib\STM32F10x_StdPeriph_Driver\src\stm32f10x_dma.c:176:     DMA2->IFCR |= DMA2_Channel3_IT_Ma
 176:.\stlib\STM32F10x_StdPeriph_Driver\src/stm32f10x_dma.c ****   }
 271              		.loc 1 176 16 is_stmt 0 view .LVU58
 272 00a2 0F4A     		ldr	r2, .L20+36	@ tmp170,
 273 00a4 CBE7     		b	.L18		@
 274              	.L12:
 178:.\stlib\STM32F10x_StdPeriph_Driver\src/stm32f10x_dma.c ****   {
 275              		.loc 1 178 8 is_stmt 1 view .LVU59
 276              	@ .\stlib\STM32F10x_StdPeriph_Driver\src\stm32f10x_dma.c:178:   else if (DMAy_Channelx == DMA2_Chan
 178:.\stlib\STM32F10x_StdPeriph_Driver\src/stm32f10x_dma.c ****   {
 277              		.loc 1 178 11 is_stmt 0 view .LVU60
 278 00a6 114B     		ldr	r3, .L20+48	@ tmp172,
 279 00a8 9842     		cmp	r0, r3	@ DMAy_Channelx, tmp172
 280 00aa 01D1     		bne	.L13		@,
 181:.\stlib\STM32F10x_StdPeriph_Driver\src/stm32f10x_dma.c ****   }
 281              		.loc 1 181 5 is_stmt 1 view .LVU61
 282              	@ .\stlib\STM32F10x_StdPeriph_Driver\src\stm32f10x_dma.c:181:     DMA2->IFCR |= DMA2_Channel4_IT_Ma
 181:.\stlib\STM32F10x_StdPeriph_Driver\src/stm32f10x_dma.c ****   }
ARM GAS  C:\Users\skey\AppData\Local\Temp\ccsfckNU.s 			page 10


 283              		.loc 1 181 16 is_stmt 0 view .LVU62
 284 00ac 0C4A     		ldr	r2, .L20+36	@ tmp173,
 285 00ae CEE7     		b	.L19		@
 286              	.L13:
 185:.\stlib\STM32F10x_StdPeriph_Driver\src/stm32f10x_dma.c ****     {
 287              		.loc 1 185 5 is_stmt 1 view .LVU63
 288              	@ .\stlib\STM32F10x_StdPeriph_Driver\src\stm32f10x_dma.c:185:     if (DMAy_Channelx == DMA2_Channel
 185:.\stlib\STM32F10x_StdPeriph_Driver\src/stm32f10x_dma.c ****     {
 289              		.loc 1 185 8 is_stmt 0 view .LVU64
 290 00b0 0F4B     		ldr	r3, .L20+52	@ tmp175,
 291 00b2 9842     		cmp	r0, r3	@ DMAy_Channelx, tmp175
 292 00b4 DFD1     		bne	.L1		@,
 188:.\stlib\STM32F10x_StdPeriph_Driver\src/stm32f10x_dma.c ****     }
 293              		.loc 1 188 7 is_stmt 1 view .LVU65
 294              	@ .\stlib\STM32F10x_StdPeriph_Driver\src\stm32f10x_dma.c:188:       DMA2->IFCR |= DMA2_Channel5_IT_
 188:.\stlib\STM32F10x_StdPeriph_Driver\src/stm32f10x_dma.c ****     }
 295              		.loc 1 188 18 is_stmt 0 view .LVU66
 296 00b6 0A4A     		ldr	r2, .L20+36	@ tmp176,
 297 00b8 D1E7     		b	.L15		@
 298              	.L21:
 299 00ba 00BF     		.align	2
 300              	.L20:
 301 00bc 08000240 		.word	1073872904
 302 00c0 00000240 		.word	1073872896
 303 00c4 1C000240 		.word	1073872924
 304 00c8 30000240 		.word	1073872944
 305 00cc 44000240 		.word	1073872964
 306 00d0 58000240 		.word	1073872984
 307 00d4 6C000240 		.word	1073873004
 308 00d8 80000240 		.word	1073873024
 309 00dc 08040240 		.word	1073873928
 310 00e0 00040240 		.word	1073873920
 311 00e4 1C040240 		.word	1073873948
 312 00e8 30040240 		.word	1073873968
 313 00ec 44040240 		.word	1073873988
 314 00f0 58040240 		.word	1073874008
 315              		.cfi_endproc
 316              	.LFE29:
 317              		.size	DMA_DeInit, .-DMA_DeInit
 318              		.align	1
 319              		.global	DMA_Init
 320              		.syntax unified
 321              		.thumb
 322              		.thumb_func
 323              		.fpu softvfp
 324              		.type	DMA_Init, %function
 325              	DMA_Init:
 326              	.LVL1:
 327              	.LFB30:
 192:.\stlib\STM32F10x_StdPeriph_Driver\src/stm32f10x_dma.c **** 
 193:.\stlib\STM32F10x_StdPeriph_Driver\src/stm32f10x_dma.c **** /**
 194:.\stlib\STM32F10x_StdPeriph_Driver\src/stm32f10x_dma.c ****   * @brief  Initializes the DMAy Channelx according to the specified
 195:.\stlib\STM32F10x_StdPeriph_Driver\src/stm32f10x_dma.c ****   *         parameters in the DMA_InitStruct.
 196:.\stlib\STM32F10x_StdPeriph_Driver\src/stm32f10x_dma.c ****   * @param  DMAy_Channelx: where y can be 1 or 2 to select the DMA and 
 197:.\stlib\STM32F10x_StdPeriph_Driver\src/stm32f10x_dma.c ****   *   x can be 1 to 7 for DMA1 and 1 to 5 for DMA2 to select the DMA Channel.
 198:.\stlib\STM32F10x_StdPeriph_Driver\src/stm32f10x_dma.c ****   * @param  DMA_InitStruct: pointer to a DMA_InitTypeDef structure that
 199:.\stlib\STM32F10x_StdPeriph_Driver\src/stm32f10x_dma.c ****   *         contains the configuration information for the specified DMA Channel.
ARM GAS  C:\Users\skey\AppData\Local\Temp\ccsfckNU.s 			page 11


 200:.\stlib\STM32F10x_StdPeriph_Driver\src/stm32f10x_dma.c ****   * @retval None
 201:.\stlib\STM32F10x_StdPeriph_Driver\src/stm32f10x_dma.c ****   */
 202:.\stlib\STM32F10x_StdPeriph_Driver\src/stm32f10x_dma.c **** void DMA_Init(DMA_Channel_TypeDef* DMAy_Channelx, DMA_InitTypeDef* DMA_InitStruct)
 203:.\stlib\STM32F10x_StdPeriph_Driver\src/stm32f10x_dma.c **** {
 328              		.loc 1 203 1 is_stmt 1 view -0
 329              		.cfi_startproc
 330              		@ args = 0, pretend = 0, frame = 0
 331              		@ frame_needed = 0, uses_anonymous_args = 0
 204:.\stlib\STM32F10x_StdPeriph_Driver\src/stm32f10x_dma.c ****   uint32_t tmpreg = 0;
 332              		.loc 1 204 3 view .LVU68
 205:.\stlib\STM32F10x_StdPeriph_Driver\src/stm32f10x_dma.c **** 
 206:.\stlib\STM32F10x_StdPeriph_Driver\src/stm32f10x_dma.c ****   /* Check the parameters */
 207:.\stlib\STM32F10x_StdPeriph_Driver\src/stm32f10x_dma.c ****   assert_param(IS_DMA_ALL_PERIPH(DMAy_Channelx));
 333              		.loc 1 207 3 view .LVU69
 208:.\stlib\STM32F10x_StdPeriph_Driver\src/stm32f10x_dma.c ****   assert_param(IS_DMA_DIR(DMA_InitStruct->DMA_DIR));
 334              		.loc 1 208 3 view .LVU70
 209:.\stlib\STM32F10x_StdPeriph_Driver\src/stm32f10x_dma.c ****   assert_param(IS_DMA_BUFFER_SIZE(DMA_InitStruct->DMA_BufferSize));
 335              		.loc 1 209 3 view .LVU71
 210:.\stlib\STM32F10x_StdPeriph_Driver\src/stm32f10x_dma.c ****   assert_param(IS_DMA_PERIPHERAL_INC_STATE(DMA_InitStruct->DMA_PeripheralInc));
 336              		.loc 1 210 3 view .LVU72
 211:.\stlib\STM32F10x_StdPeriph_Driver\src/stm32f10x_dma.c ****   assert_param(IS_DMA_MEMORY_INC_STATE(DMA_InitStruct->DMA_MemoryInc));   
 337              		.loc 1 211 3 view .LVU73
 212:.\stlib\STM32F10x_StdPeriph_Driver\src/stm32f10x_dma.c ****   assert_param(IS_DMA_PERIPHERAL_DATA_SIZE(DMA_InitStruct->DMA_PeripheralDataSize));
 338              		.loc 1 212 3 view .LVU74
 213:.\stlib\STM32F10x_StdPeriph_Driver\src/stm32f10x_dma.c ****   assert_param(IS_DMA_MEMORY_DATA_SIZE(DMA_InitStruct->DMA_MemoryDataSize));
 339              		.loc 1 213 3 view .LVU75
 214:.\stlib\STM32F10x_StdPeriph_Driver\src/stm32f10x_dma.c ****   assert_param(IS_DMA_MODE(DMA_InitStruct->DMA_Mode));
 340              		.loc 1 214 3 view .LVU76
 215:.\stlib\STM32F10x_StdPeriph_Driver\src/stm32f10x_dma.c ****   assert_param(IS_DMA_PRIORITY(DMA_InitStruct->DMA_Priority));
 341              		.loc 1 215 3 view .LVU77
 216:.\stlib\STM32F10x_StdPeriph_Driver\src/stm32f10x_dma.c ****   assert_param(IS_DMA_M2M_STATE(DMA_InitStruct->DMA_M2M));
 342              		.loc 1 216 3 view .LVU78
 217:.\stlib\STM32F10x_StdPeriph_Driver\src/stm32f10x_dma.c **** 
 218:.\stlib\STM32F10x_StdPeriph_Driver\src/stm32f10x_dma.c **** /*--------------------------- DMAy Channelx CCR Configuration -----------------*/
 219:.\stlib\STM32F10x_StdPeriph_Driver\src/stm32f10x_dma.c ****   /* Get the DMAy_Channelx CCR value */
 220:.\stlib\STM32F10x_StdPeriph_Driver\src/stm32f10x_dma.c ****   tmpreg = DMAy_Channelx->CCR;
 343              		.loc 1 220 3 view .LVU79
 344              	@ .\stlib\STM32F10x_StdPeriph_Driver\src\stm32f10x_dma.c:232:   tmpreg |= DMA_InitStruct->DMA_DIR |
 221:.\stlib\STM32F10x_StdPeriph_Driver\src/stm32f10x_dma.c ****   /* Clear MEM2MEM, PL, MSIZE, PSIZE, MINC, PINC, CIRC and DIR bits */
 222:.\stlib\STM32F10x_StdPeriph_Driver\src/stm32f10x_dma.c ****   tmpreg &= CCR_CLEAR_Mask;
 223:.\stlib\STM32F10x_StdPeriph_Driver\src/stm32f10x_dma.c ****   /* Configure DMAy Channelx: data transfer, data size, priority level and mode */
 224:.\stlib\STM32F10x_StdPeriph_Driver\src/stm32f10x_dma.c ****   /* Set DIR bit according to DMA_DIR value */
 225:.\stlib\STM32F10x_StdPeriph_Driver\src/stm32f10x_dma.c ****   /* Set CIRC bit according to DMA_Mode value */
 226:.\stlib\STM32F10x_StdPeriph_Driver\src/stm32f10x_dma.c ****   /* Set PINC bit according to DMA_PeripheralInc value */
 227:.\stlib\STM32F10x_StdPeriph_Driver\src/stm32f10x_dma.c ****   /* Set MINC bit according to DMA_MemoryInc value */
 228:.\stlib\STM32F10x_StdPeriph_Driver\src/stm32f10x_dma.c ****   /* Set PSIZE bits according to DMA_PeripheralDataSize value */
 229:.\stlib\STM32F10x_StdPeriph_Driver\src/stm32f10x_dma.c ****   /* Set MSIZE bits according to DMA_MemoryDataSize value */
 230:.\stlib\STM32F10x_StdPeriph_Driver\src/stm32f10x_dma.c ****   /* Set PL bits according to DMA_Priority value */
 231:.\stlib\STM32F10x_StdPeriph_Driver\src/stm32f10x_dma.c ****   /* Set the MEM2MEM bit according to DMA_M2M value */
 232:.\stlib\STM32F10x_StdPeriph_Driver\src/stm32f10x_dma.c ****   tmpreg |= DMA_InitStruct->DMA_DIR | DMA_InitStruct->DMA_Mode |
 345              		.loc 1 232 37 is_stmt 0 view .LVU80
 346 00f4 8B68     		ldr	r3, [r1, #8]	@ DMA_InitStruct_23(D)->DMA_DIR, DMA_InitStruct_23(D)->DMA_DIR
 347              	@ .\stlib\STM32F10x_StdPeriph_Driver\src\stm32f10x_dma.c:203: {
 203:.\stlib\STM32F10x_StdPeriph_Driver\src/stm32f10x_dma.c ****   uint32_t tmpreg = 0;
 348              		.loc 1 203 1 view .LVU81
 349 00f6 10B5     		push	{r4, lr}	@
 350              	.LCFI0:
ARM GAS  C:\Users\skey\AppData\Local\Temp\ccsfckNU.s 			page 12


 351              		.cfi_def_cfa_offset 8
 352              		.cfi_offset 4, -8
 353              		.cfi_offset 14, -4
 354              	@ .\stlib\STM32F10x_StdPeriph_Driver\src\stm32f10x_dma.c:232:   tmpreg |= DMA_InitStruct->DMA_DIR |
 355              		.loc 1 232 37 view .LVU82
 356 00f8 0C6A     		ldr	r4, [r1, #32]	@ DMA_InitStruct_23(D)->DMA_Mode, DMA_InitStruct_23(D)->DMA_Mode
 357              	@ .\stlib\STM32F10x_StdPeriph_Driver\src\stm32f10x_dma.c:220:   tmpreg = DMAy_Channelx->CCR;
 220:.\stlib\STM32F10x_StdPeriph_Driver\src/stm32f10x_dma.c ****   /* Clear MEM2MEM, PL, MSIZE, PSIZE, MINC, PINC, CIRC and DIR bits */
 358              		.loc 1 220 10 view .LVU83
 359 00fa 0268     		ldr	r2, [r0]	@ tmpreg, DMAy_Channelx_20(D)->CCR
 360              	.LVL2:
 222:.\stlib\STM32F10x_StdPeriph_Driver\src/stm32f10x_dma.c ****   /* Configure DMAy Channelx: data transfer, data size, priority level and mode */
 361              		.loc 1 222 3 is_stmt 1 view .LVU84
 362              	@ .\stlib\STM32F10x_StdPeriph_Driver\src\stm32f10x_dma.c:232:   tmpreg |= DMA_InitStruct->DMA_DIR |
 363              		.loc 1 232 37 is_stmt 0 view .LVU85
 364 00fc 2343     		orrs	r3, r3, r4	@, tmp134, DMA_InitStruct_23(D)->DMA_DIR, DMA_InitStruct_23(D)->DMA_Mode
 365              	@ .\stlib\STM32F10x_StdPeriph_Driver\src\stm32f10x_dma.c:232:   tmpreg |= DMA_InitStruct->DMA_DIR |
 366              		.loc 1 232 64 view .LVU86
 367 00fe 0C69     		ldr	r4, [r1, #16]	@ DMA_InitStruct_23(D)->DMA_PeripheralInc, DMA_InitStruct_23(D)->DMA_PeripheralI
 368              	@ .\stlib\STM32F10x_StdPeriph_Driver\src\stm32f10x_dma.c:222:   tmpreg &= CCR_CLEAR_Mask;
 222:.\stlib\STM32F10x_StdPeriph_Driver\src/stm32f10x_dma.c ****   /* Configure DMAy Channelx: data transfer, data size, priority level and mode */
 369              		.loc 1 222 10 view .LVU87
 370 0100 22F4FF42 		bic	r2, r2, #32640	@ tmpreg, tmpreg,
 371              	.LVL3:
 372              	@ .\stlib\STM32F10x_StdPeriph_Driver\src\stm32f10x_dma.c:232:   tmpreg |= DMA_InitStruct->DMA_DIR |
 373              		.loc 1 232 64 view .LVU88
 374 0104 2343     		orrs	r3, r3, r4	@, tmp137, tmp134, DMA_InitStruct_23(D)->DMA_PeripheralInc
 375              	@ .\stlib\STM32F10x_StdPeriph_Driver\src\stm32f10x_dma.c:233:             DMA_InitStruct->DMA_Perip
 233:.\stlib\STM32F10x_StdPeriph_Driver\src/stm32f10x_dma.c ****             DMA_InitStruct->DMA_PeripheralInc | DMA_InitStruct->DMA_MemoryInc |
 376              		.loc 1 233 47 view .LVU89
 377 0106 4C69     		ldr	r4, [r1, #20]	@ DMA_InitStruct_23(D)->DMA_MemoryInc, DMA_InitStruct_23(D)->DMA_MemoryInc
 378              	@ .\stlib\STM32F10x_StdPeriph_Driver\src\stm32f10x_dma.c:222:   tmpreg &= CCR_CLEAR_Mask;
 222:.\stlib\STM32F10x_StdPeriph_Driver\src/stm32f10x_dma.c ****   /* Configure DMAy Channelx: data transfer, data size, priority level and mode */
 379              		.loc 1 222 10 view .LVU90
 380 0108 22F07002 		bic	r2, r2, #112	@ tmpreg, tmpreg,
 381              	.LVL4:
 232:.\stlib\STM32F10x_StdPeriph_Driver\src/stm32f10x_dma.c ****             DMA_InitStruct->DMA_PeripheralInc | DMA_InitStruct->DMA_MemoryInc |
 382              		.loc 1 232 3 is_stmt 1 view .LVU91
 383              	@ .\stlib\STM32F10x_StdPeriph_Driver\src\stm32f10x_dma.c:233:             DMA_InitStruct->DMA_Perip
 384              		.loc 1 233 47 is_stmt 0 view .LVU92
 385 010c 2343     		orrs	r3, r3, r4	@, tmp139, tmp137, DMA_InitStruct_23(D)->DMA_MemoryInc
 386              	@ .\stlib\STM32F10x_StdPeriph_Driver\src\stm32f10x_dma.c:233:             DMA_InitStruct->DMA_Perip
 387              		.loc 1 233 79 view .LVU93
 388 010e 8C69     		ldr	r4, [r1, #24]	@ DMA_InitStruct_23(D)->DMA_PeripheralDataSize, DMA_InitStruct_23(D)->DMA_Periph
 389 0110 2343     		orrs	r3, r3, r4	@, tmp141, tmp139, DMA_InitStruct_23(D)->DMA_PeripheralDataSize
 390              	@ .\stlib\STM32F10x_StdPeriph_Driver\src\stm32f10x_dma.c:234:             DMA_InitStruct->DMA_Perip
 234:.\stlib\STM32F10x_StdPeriph_Driver\src/stm32f10x_dma.c ****             DMA_InitStruct->DMA_PeripheralDataSize | DMA_InitStruct->DMA_MemoryDataSize |
 391              		.loc 1 234 52 view .LVU94
 392 0112 CC69     		ldr	r4, [r1, #28]	@ DMA_InitStruct_23(D)->DMA_MemoryDataSize, DMA_InitStruct_23(D)->DMA_MemoryData
 393 0114 2343     		orrs	r3, r3, r4	@, tmp143, tmp141, DMA_InitStruct_23(D)->DMA_MemoryDataSize
 394              	@ .\stlib\STM32F10x_StdPeriph_Driver\src\stm32f10x_dma.c:234:             DMA_InitStruct->DMA_Perip
 395              		.loc 1 234 89 view .LVU95
 396 0116 4C6A     		ldr	r4, [r1, #36]	@ DMA_InitStruct_23(D)->DMA_Priority, DMA_InitStruct_23(D)->DMA_Priority
 397 0118 2343     		orrs	r3, r3, r4	@, tmp145, tmp143, DMA_InitStruct_23(D)->DMA_Priority
 398              	@ .\stlib\STM32F10x_StdPeriph_Driver\src\stm32f10x_dma.c:235:             DMA_InitStruct->DMA_Prior
 235:.\stlib\STM32F10x_StdPeriph_Driver\src/stm32f10x_dma.c ****             DMA_InitStruct->DMA_Priority | DMA_InitStruct->DMA_M2M;
 399              		.loc 1 235 42 view .LVU96
ARM GAS  C:\Users\skey\AppData\Local\Temp\ccsfckNU.s 			page 13


 400 011a 8C6A     		ldr	r4, [r1, #40]	@ DMA_InitStruct_23(D)->DMA_M2M, DMA_InitStruct_23(D)->DMA_M2M
 401 011c 2343     		orrs	r3, r3, r4	@, tmp147, tmp145, DMA_InitStruct_23(D)->DMA_M2M
 402              	@ .\stlib\STM32F10x_StdPeriph_Driver\src\stm32f10x_dma.c:232:   tmpreg |= DMA_InitStruct->DMA_DIR |
 232:.\stlib\STM32F10x_StdPeriph_Driver\src/stm32f10x_dma.c ****             DMA_InitStruct->DMA_PeripheralInc | DMA_InitStruct->DMA_MemoryInc |
 403              		.loc 1 232 10 view .LVU97
 404 011e 1343     		orrs	r3, r3, r2	@, tmpreg, tmp147, tmpreg
 405              	.LVL5:
 236:.\stlib\STM32F10x_StdPeriph_Driver\src/stm32f10x_dma.c **** 
 237:.\stlib\STM32F10x_StdPeriph_Driver\src/stm32f10x_dma.c ****   /* Write to DMAy Channelx CCR */
 238:.\stlib\STM32F10x_StdPeriph_Driver\src/stm32f10x_dma.c ****   DMAy_Channelx->CCR = tmpreg;
 406              		.loc 1 238 3 is_stmt 1 view .LVU98
 407              	@ .\stlib\STM32F10x_StdPeriph_Driver\src\stm32f10x_dma.c:238:   DMAy_Channelx->CCR = tmpreg;
 408              		.loc 1 238 22 is_stmt 0 view .LVU99
 409 0120 0360     		str	r3, [r0]	@ tmpreg, DMAy_Channelx_20(D)->CCR
 239:.\stlib\STM32F10x_StdPeriph_Driver\src/stm32f10x_dma.c **** 
 240:.\stlib\STM32F10x_StdPeriph_Driver\src/stm32f10x_dma.c **** /*--------------------------- DMAy Channelx CNDTR Configuration ---------------*/
 241:.\stlib\STM32F10x_StdPeriph_Driver\src/stm32f10x_dma.c ****   /* Write to DMAy Channelx CNDTR */
 242:.\stlib\STM32F10x_StdPeriph_Driver\src/stm32f10x_dma.c ****   DMAy_Channelx->CNDTR = DMA_InitStruct->DMA_BufferSize;
 410              		.loc 1 242 3 is_stmt 1 view .LVU100
 411              	@ .\stlib\STM32F10x_StdPeriph_Driver\src\stm32f10x_dma.c:242:   DMAy_Channelx->CNDTR = DMA_InitStru
 412              		.loc 1 242 40 is_stmt 0 view .LVU101
 413 0122 CB68     		ldr	r3, [r1, #12]	@ _16, DMA_InitStruct_23(D)->DMA_BufferSize
 414              	.LVL6:
 415              	@ .\stlib\STM32F10x_StdPeriph_Driver\src\stm32f10x_dma.c:242:   DMAy_Channelx->CNDTR = DMA_InitStru
 416              		.loc 1 242 24 view .LVU102
 417 0124 4360     		str	r3, [r0, #4]	@ _16, DMAy_Channelx_20(D)->CNDTR
 418              	.LVL7:
 243:.\stlib\STM32F10x_StdPeriph_Driver\src/stm32f10x_dma.c **** 
 244:.\stlib\STM32F10x_StdPeriph_Driver\src/stm32f10x_dma.c **** /*--------------------------- DMAy Channelx CPAR Configuration ----------------*/
 245:.\stlib\STM32F10x_StdPeriph_Driver\src/stm32f10x_dma.c ****   /* Write to DMAy Channelx CPAR */
 246:.\stlib\STM32F10x_StdPeriph_Driver\src/stm32f10x_dma.c ****   DMAy_Channelx->CPAR = DMA_InitStruct->DMA_PeripheralBaseAddr;
 419              		.loc 1 246 3 is_stmt 1 view .LVU103
 420              	@ .\stlib\STM32F10x_StdPeriph_Driver\src\stm32f10x_dma.c:246:   DMAy_Channelx->CPAR = DMA_InitStruc
 421              		.loc 1 246 39 is_stmt 0 view .LVU104
 422 0126 0B68     		ldr	r3, [r1]	@ _17, DMA_InitStruct_23(D)->DMA_PeripheralBaseAddr
 423              	@ .\stlib\STM32F10x_StdPeriph_Driver\src\stm32f10x_dma.c:246:   DMAy_Channelx->CPAR = DMA_InitStruc
 424              		.loc 1 246 23 view .LVU105
 425 0128 8360     		str	r3, [r0, #8]	@ _17, DMAy_Channelx_20(D)->CPAR
 247:.\stlib\STM32F10x_StdPeriph_Driver\src/stm32f10x_dma.c **** 
 248:.\stlib\STM32F10x_StdPeriph_Driver\src/stm32f10x_dma.c **** /*--------------------------- DMAy Channelx CMAR Configuration ----------------*/
 249:.\stlib\STM32F10x_StdPeriph_Driver\src/stm32f10x_dma.c ****   /* Write to DMAy Channelx CMAR */
 250:.\stlib\STM32F10x_StdPeriph_Driver\src/stm32f10x_dma.c ****   DMAy_Channelx->CMAR = DMA_InitStruct->DMA_MemoryBaseAddr;
 426              		.loc 1 250 3 is_stmt 1 view .LVU106
 427              	@ .\stlib\STM32F10x_StdPeriph_Driver\src\stm32f10x_dma.c:250:   DMAy_Channelx->CMAR = DMA_InitStruc
 428              		.loc 1 250 39 is_stmt 0 view .LVU107
 429 012a 4B68     		ldr	r3, [r1, #4]	@ _18, DMA_InitStruct_23(D)->DMA_MemoryBaseAddr
 430              	@ .\stlib\STM32F10x_StdPeriph_Driver\src\stm32f10x_dma.c:250:   DMAy_Channelx->CMAR = DMA_InitStruc
 431              		.loc 1 250 23 view .LVU108
 432 012c C360     		str	r3, [r0, #12]	@ _18, DMAy_Channelx_20(D)->CMAR
 433              	@ .\stlib\STM32F10x_StdPeriph_Driver\src\stm32f10x_dma.c:251: }
 251:.\stlib\STM32F10x_StdPeriph_Driver\src/stm32f10x_dma.c **** }
 434              		.loc 1 251 1 view .LVU109
 435 012e 10BD     		pop	{r4, pc}	@
 436              		.loc 1 251 1 view .LVU110
 437              		.cfi_endproc
 438              	.LFE30:
 439              		.size	DMA_Init, .-DMA_Init
ARM GAS  C:\Users\skey\AppData\Local\Temp\ccsfckNU.s 			page 14


 440              		.align	1
 441              		.global	DMA_StructInit
 442              		.syntax unified
 443              		.thumb
 444              		.thumb_func
 445              		.fpu softvfp
 446              		.type	DMA_StructInit, %function
 447              	DMA_StructInit:
 448              	.LVL8:
 449              	.LFB31:
 252:.\stlib\STM32F10x_StdPeriph_Driver\src/stm32f10x_dma.c **** 
 253:.\stlib\STM32F10x_StdPeriph_Driver\src/stm32f10x_dma.c **** /**
 254:.\stlib\STM32F10x_StdPeriph_Driver\src/stm32f10x_dma.c ****   * @brief  Fills each DMA_InitStruct member with its default value.
 255:.\stlib\STM32F10x_StdPeriph_Driver\src/stm32f10x_dma.c ****   * @param  DMA_InitStruct : pointer to a DMA_InitTypeDef structure which will
 256:.\stlib\STM32F10x_StdPeriph_Driver\src/stm32f10x_dma.c ****   *         be initialized.
 257:.\stlib\STM32F10x_StdPeriph_Driver\src/stm32f10x_dma.c ****   * @retval None
 258:.\stlib\STM32F10x_StdPeriph_Driver\src/stm32f10x_dma.c ****   */
 259:.\stlib\STM32F10x_StdPeriph_Driver\src/stm32f10x_dma.c **** void DMA_StructInit(DMA_InitTypeDef* DMA_InitStruct)
 260:.\stlib\STM32F10x_StdPeriph_Driver\src/stm32f10x_dma.c **** {
 450              		.loc 1 260 1 is_stmt 1 view -0
 451              		.cfi_startproc
 452              		@ args = 0, pretend = 0, frame = 0
 453              		@ frame_needed = 0, uses_anonymous_args = 0
 454              		@ link register save eliminated.
 261:.\stlib\STM32F10x_StdPeriph_Driver\src/stm32f10x_dma.c **** /*-------------- Reset DMA init structure parameters values ------------------*/
 262:.\stlib\STM32F10x_StdPeriph_Driver\src/stm32f10x_dma.c ****   /* Initialize the DMA_PeripheralBaseAddr member */
 263:.\stlib\STM32F10x_StdPeriph_Driver\src/stm32f10x_dma.c ****   DMA_InitStruct->DMA_PeripheralBaseAddr = 0;
 455              		.loc 1 263 3 view .LVU112
 456              	@ .\stlib\STM32F10x_StdPeriph_Driver\src\stm32f10x_dma.c:263:   DMA_InitStruct->DMA_PeripheralBaseA
 457              		.loc 1 263 42 is_stmt 0 view .LVU113
 458 0130 0023     		movs	r3, #0	@ tmp111,
 459              	@ .\stlib\STM32F10x_StdPeriph_Driver\src\stm32f10x_dma.c:265:   DMA_InitStruct->DMA_MemoryBaseAddr 
 264:.\stlib\STM32F10x_StdPeriph_Driver\src/stm32f10x_dma.c ****   /* Initialize the DMA_MemoryBaseAddr member */
 265:.\stlib\STM32F10x_StdPeriph_Driver\src/stm32f10x_dma.c ****   DMA_InitStruct->DMA_MemoryBaseAddr = 0;
 460              		.loc 1 265 38 view .LVU114
 461 0132 C0E90033 		strd	r3, r3, [r0]	@ tmp111, tmp111, DMA_InitStruct
 266:.\stlib\STM32F10x_StdPeriph_Driver\src/stm32f10x_dma.c ****   /* Initialize the DMA_DIR member */
 267:.\stlib\STM32F10x_StdPeriph_Driver\src/stm32f10x_dma.c ****   DMA_InitStruct->DMA_DIR = DMA_DIR_PeripheralSRC;
 462              		.loc 1 267 3 is_stmt 1 view .LVU115
 463              	@ .\stlib\STM32F10x_StdPeriph_Driver\src\stm32f10x_dma.c:269:   DMA_InitStruct->DMA_BufferSize = 0;
 268:.\stlib\STM32F10x_StdPeriph_Driver\src/stm32f10x_dma.c ****   /* Initialize the DMA_BufferSize member */
 269:.\stlib\STM32F10x_StdPeriph_Driver\src/stm32f10x_dma.c ****   DMA_InitStruct->DMA_BufferSize = 0;
 464              		.loc 1 269 34 is_stmt 0 view .LVU116
 465 0136 C0E90233 		strd	r3, r3, [r0, #8]	@ tmp111, tmp111, DMA_InitStruct,
 270:.\stlib\STM32F10x_StdPeriph_Driver\src/stm32f10x_dma.c ****   /* Initialize the DMA_PeripheralInc member */
 271:.\stlib\STM32F10x_StdPeriph_Driver\src/stm32f10x_dma.c ****   DMA_InitStruct->DMA_PeripheralInc = DMA_PeripheralInc_Disable;
 466              		.loc 1 271 3 is_stmt 1 view .LVU117
 467              	@ .\stlib\STM32F10x_StdPeriph_Driver\src\stm32f10x_dma.c:273:   DMA_InitStruct->DMA_MemoryInc = DMA
 272:.\stlib\STM32F10x_StdPeriph_Driver\src/stm32f10x_dma.c ****   /* Initialize the DMA_MemoryInc member */
 273:.\stlib\STM32F10x_StdPeriph_Driver\src/stm32f10x_dma.c ****   DMA_InitStruct->DMA_MemoryInc = DMA_MemoryInc_Disable;
 468              		.loc 1 273 33 is_stmt 0 view .LVU118
 469 013a C0E90433 		strd	r3, r3, [r0, #16]	@ tmp111, tmp111, DMA_InitStruct,
 274:.\stlib\STM32F10x_StdPeriph_Driver\src/stm32f10x_dma.c ****   /* Initialize the DMA_PeripheralDataSize member */
 275:.\stlib\STM32F10x_StdPeriph_Driver\src/stm32f10x_dma.c ****   DMA_InitStruct->DMA_PeripheralDataSize = DMA_PeripheralDataSize_Byte;
 470              		.loc 1 275 3 is_stmt 1 view .LVU119
 471              	@ .\stlib\STM32F10x_StdPeriph_Driver\src\stm32f10x_dma.c:277:   DMA_InitStruct->DMA_MemoryDataSize 
 276:.\stlib\STM32F10x_StdPeriph_Driver\src/stm32f10x_dma.c ****   /* Initialize the DMA_MemoryDataSize member */
ARM GAS  C:\Users\skey\AppData\Local\Temp\ccsfckNU.s 			page 15


 277:.\stlib\STM32F10x_StdPeriph_Driver\src/stm32f10x_dma.c ****   DMA_InitStruct->DMA_MemoryDataSize = DMA_MemoryDataSize_Byte;
 472              		.loc 1 277 38 is_stmt 0 view .LVU120
 473 013e C0E90633 		strd	r3, r3, [r0, #24]	@ tmp111, tmp111, DMA_InitStruct,
 278:.\stlib\STM32F10x_StdPeriph_Driver\src/stm32f10x_dma.c ****   /* Initialize the DMA_Mode member */
 279:.\stlib\STM32F10x_StdPeriph_Driver\src/stm32f10x_dma.c ****   DMA_InitStruct->DMA_Mode = DMA_Mode_Normal;
 474              		.loc 1 279 3 is_stmt 1 view .LVU121
 475              	@ .\stlib\STM32F10x_StdPeriph_Driver\src\stm32f10x_dma.c:281:   DMA_InitStruct->DMA_Priority = DMA_
 280:.\stlib\STM32F10x_StdPeriph_Driver\src/stm32f10x_dma.c ****   /* Initialize the DMA_Priority member */
 281:.\stlib\STM32F10x_StdPeriph_Driver\src/stm32f10x_dma.c ****   DMA_InitStruct->DMA_Priority = DMA_Priority_Low;
 476              		.loc 1 281 32 is_stmt 0 view .LVU122
 477 0142 C0E90833 		strd	r3, r3, [r0, #32]	@ tmp111, tmp111, DMA_InitStruct,
 282:.\stlib\STM32F10x_StdPeriph_Driver\src/stm32f10x_dma.c ****   /* Initialize the DMA_M2M member */
 283:.\stlib\STM32F10x_StdPeriph_Driver\src/stm32f10x_dma.c ****   DMA_InitStruct->DMA_M2M = DMA_M2M_Disable;
 478              		.loc 1 283 3 is_stmt 1 view .LVU123
 479              	@ .\stlib\STM32F10x_StdPeriph_Driver\src\stm32f10x_dma.c:283:   DMA_InitStruct->DMA_M2M = DMA_M2M_D
 480              		.loc 1 283 27 is_stmt 0 view .LVU124
 481 0146 8362     		str	r3, [r0, #40]	@ tmp111, DMA_InitStruct_2(D)->DMA_M2M
 482              	@ .\stlib\STM32F10x_StdPeriph_Driver\src\stm32f10x_dma.c:284: }
 284:.\stlib\STM32F10x_StdPeriph_Driver\src/stm32f10x_dma.c **** }
 483              		.loc 1 284 1 view .LVU125
 484 0148 7047     		bx	lr	@
 485              		.cfi_endproc
 486              	.LFE31:
 487              		.size	DMA_StructInit, .-DMA_StructInit
 488              		.align	1
 489              		.global	DMA_Cmd
 490              		.syntax unified
 491              		.thumb
 492              		.thumb_func
 493              		.fpu softvfp
 494              		.type	DMA_Cmd, %function
 495              	DMA_Cmd:
 496              	.LVL9:
 497              	.LFB32:
 285:.\stlib\STM32F10x_StdPeriph_Driver\src/stm32f10x_dma.c **** 
 286:.\stlib\STM32F10x_StdPeriph_Driver\src/stm32f10x_dma.c **** /**
 287:.\stlib\STM32F10x_StdPeriph_Driver\src/stm32f10x_dma.c ****   * @brief  Enables or disables the specified DMAy Channelx.
 288:.\stlib\STM32F10x_StdPeriph_Driver\src/stm32f10x_dma.c ****   * @param  DMAy_Channelx: where y can be 1 or 2 to select the DMA and 
 289:.\stlib\STM32F10x_StdPeriph_Driver\src/stm32f10x_dma.c ****   *   x can be 1 to 7 for DMA1 and 1 to 5 for DMA2 to select the DMA Channel.
 290:.\stlib\STM32F10x_StdPeriph_Driver\src/stm32f10x_dma.c ****   * @param  NewState: new state of the DMAy Channelx. 
 291:.\stlib\STM32F10x_StdPeriph_Driver\src/stm32f10x_dma.c ****   *   This parameter can be: ENABLE or DISABLE.
 292:.\stlib\STM32F10x_StdPeriph_Driver\src/stm32f10x_dma.c ****   * @retval None
 293:.\stlib\STM32F10x_StdPeriph_Driver\src/stm32f10x_dma.c ****   */
 294:.\stlib\STM32F10x_StdPeriph_Driver\src/stm32f10x_dma.c **** void DMA_Cmd(DMA_Channel_TypeDef* DMAy_Channelx, FunctionalState NewState)
 295:.\stlib\STM32F10x_StdPeriph_Driver\src/stm32f10x_dma.c **** {
 498              		.loc 1 295 1 is_stmt 1 view -0
 499              		.cfi_startproc
 500              		@ args = 0, pretend = 0, frame = 0
 501              		@ frame_needed = 0, uses_anonymous_args = 0
 502              		@ link register save eliminated.
 296:.\stlib\STM32F10x_StdPeriph_Driver\src/stm32f10x_dma.c ****   /* Check the parameters */
 297:.\stlib\STM32F10x_StdPeriph_Driver\src/stm32f10x_dma.c ****   assert_param(IS_DMA_ALL_PERIPH(DMAy_Channelx));
 503              		.loc 1 297 3 view .LVU127
 298:.\stlib\STM32F10x_StdPeriph_Driver\src/stm32f10x_dma.c ****   assert_param(IS_FUNCTIONAL_STATE(NewState));
 504              		.loc 1 298 3 view .LVU128
 299:.\stlib\STM32F10x_StdPeriph_Driver\src/stm32f10x_dma.c **** 
 300:.\stlib\STM32F10x_StdPeriph_Driver\src/stm32f10x_dma.c ****   if (NewState != DISABLE)
ARM GAS  C:\Users\skey\AppData\Local\Temp\ccsfckNU.s 			page 16


 505              		.loc 1 300 3 view .LVU129
 506              	@ .\stlib\STM32F10x_StdPeriph_Driver\src\stm32f10x_dma.c:303:     DMAy_Channelx->CCR |= DMA_CCR1_EN
 301:.\stlib\STM32F10x_StdPeriph_Driver\src/stm32f10x_dma.c ****   {
 302:.\stlib\STM32F10x_StdPeriph_Driver\src/stm32f10x_dma.c ****     /* Enable the selected DMAy Channelx */
 303:.\stlib\STM32F10x_StdPeriph_Driver\src/stm32f10x_dma.c ****     DMAy_Channelx->CCR |= DMA_CCR1_EN;
 507              		.loc 1 303 24 is_stmt 0 view .LVU130
 508 014a 0368     		ldr	r3, [r0]	@ _1,* DMAy_Channelx
 509              	@ .\stlib\STM32F10x_StdPeriph_Driver\src\stm32f10x_dma.c:300:   if (NewState != DISABLE)
 300:.\stlib\STM32F10x_StdPeriph_Driver\src/stm32f10x_dma.c ****   {
 510              		.loc 1 300 6 view .LVU131
 511 014c 19B1     		cbz	r1, .L25	@ tmp118,
 512              		.loc 1 303 5 is_stmt 1 view .LVU132
 513              	@ .\stlib\STM32F10x_StdPeriph_Driver\src\stm32f10x_dma.c:303:     DMAy_Channelx->CCR |= DMA_CCR1_EN
 514              		.loc 1 303 24 is_stmt 0 view .LVU133
 515 014e 43F00103 		orr	r3, r3, #1	@ _2, _1,
 516              	.L27:
 517              	@ .\stlib\STM32F10x_StdPeriph_Driver\src\stm32f10x_dma.c:308:     DMAy_Channelx->CCR &= (uint16_t)(
 304:.\stlib\STM32F10x_StdPeriph_Driver\src/stm32f10x_dma.c ****   }
 305:.\stlib\STM32F10x_StdPeriph_Driver\src/stm32f10x_dma.c ****   else
 306:.\stlib\STM32F10x_StdPeriph_Driver\src/stm32f10x_dma.c ****   {
 307:.\stlib\STM32F10x_StdPeriph_Driver\src/stm32f10x_dma.c ****     /* Disable the selected DMAy Channelx */
 308:.\stlib\STM32F10x_StdPeriph_Driver\src/stm32f10x_dma.c ****     DMAy_Channelx->CCR &= (uint16_t)(~DMA_CCR1_EN);
 518              		.loc 1 308 24 view .LVU134
 519 0152 0360     		str	r3, [r0]	@ _4,* DMAy_Channelx
 520              	@ .\stlib\STM32F10x_StdPeriph_Driver\src\stm32f10x_dma.c:310: }
 309:.\stlib\STM32F10x_StdPeriph_Driver\src/stm32f10x_dma.c ****   }
 310:.\stlib\STM32F10x_StdPeriph_Driver\src/stm32f10x_dma.c **** }
 521              		.loc 1 310 1 view .LVU135
 522 0154 7047     		bx	lr	@
 523              	.L25:
 308:.\stlib\STM32F10x_StdPeriph_Driver\src/stm32f10x_dma.c ****   }
 524              		.loc 1 308 5 is_stmt 1 view .LVU136
 525              	@ .\stlib\STM32F10x_StdPeriph_Driver\src\stm32f10x_dma.c:308:     DMAy_Channelx->CCR &= (uint16_t)(
 308:.\stlib\STM32F10x_StdPeriph_Driver\src/stm32f10x_dma.c ****   }
 526              		.loc 1 308 24 is_stmt 0 view .LVU137
 527 0156 23F00103 		bic	r3, r3, #1	@ _4, _3,
 528 015a 1B04     		lsls	r3, r3, #16	@ _4, _4,
 529 015c 1B0C     		lsrs	r3, r3, #16	@ _4, _4,
 530 015e F8E7     		b	.L27		@
 531              		.cfi_endproc
 532              	.LFE32:
 533              		.size	DMA_Cmd, .-DMA_Cmd
 534              		.align	1
 535              		.global	DMA_ITConfig
 536              		.syntax unified
 537              		.thumb
 538              		.thumb_func
 539              		.fpu softvfp
 540              		.type	DMA_ITConfig, %function
 541              	DMA_ITConfig:
 542              	.LVL10:
 543              	.LFB33:
 311:.\stlib\STM32F10x_StdPeriph_Driver\src/stm32f10x_dma.c **** 
 312:.\stlib\STM32F10x_StdPeriph_Driver\src/stm32f10x_dma.c **** /**
 313:.\stlib\STM32F10x_StdPeriph_Driver\src/stm32f10x_dma.c ****   * @brief  Enables or disables the specified DMAy Channelx interrupts.
 314:.\stlib\STM32F10x_StdPeriph_Driver\src/stm32f10x_dma.c ****   * @param  DMAy_Channelx: where y can be 1 or 2 to select the DMA and 
 315:.\stlib\STM32F10x_StdPeriph_Driver\src/stm32f10x_dma.c ****   *   x can be 1 to 7 for DMA1 and 1 to 5 for DMA2 to select the DMA Channel.
ARM GAS  C:\Users\skey\AppData\Local\Temp\ccsfckNU.s 			page 17


 316:.\stlib\STM32F10x_StdPeriph_Driver\src/stm32f10x_dma.c ****   * @param  DMA_IT: specifies the DMA interrupts sources to be enabled
 317:.\stlib\STM32F10x_StdPeriph_Driver\src/stm32f10x_dma.c ****   *   or disabled. 
 318:.\stlib\STM32F10x_StdPeriph_Driver\src/stm32f10x_dma.c ****   *   This parameter can be any combination of the following values:
 319:.\stlib\STM32F10x_StdPeriph_Driver\src/stm32f10x_dma.c ****   *     @arg DMA_IT_TC:  Transfer complete interrupt mask
 320:.\stlib\STM32F10x_StdPeriph_Driver\src/stm32f10x_dma.c ****   *     @arg DMA_IT_HT:  Half transfer interrupt mask
 321:.\stlib\STM32F10x_StdPeriph_Driver\src/stm32f10x_dma.c ****   *     @arg DMA_IT_TE:  Transfer error interrupt mask
 322:.\stlib\STM32F10x_StdPeriph_Driver\src/stm32f10x_dma.c ****   * @param  NewState: new state of the specified DMA interrupts.
 323:.\stlib\STM32F10x_StdPeriph_Driver\src/stm32f10x_dma.c ****   *   This parameter can be: ENABLE or DISABLE.
 324:.\stlib\STM32F10x_StdPeriph_Driver\src/stm32f10x_dma.c ****   * @retval None
 325:.\stlib\STM32F10x_StdPeriph_Driver\src/stm32f10x_dma.c ****   */
 326:.\stlib\STM32F10x_StdPeriph_Driver\src/stm32f10x_dma.c **** void DMA_ITConfig(DMA_Channel_TypeDef* DMAy_Channelx, uint32_t DMA_IT, FunctionalState NewState)
 327:.\stlib\STM32F10x_StdPeriph_Driver\src/stm32f10x_dma.c **** {
 544              		.loc 1 327 1 is_stmt 1 view -0
 545              		.cfi_startproc
 546              		@ args = 0, pretend = 0, frame = 0
 547              		@ frame_needed = 0, uses_anonymous_args = 0
 548              		@ link register save eliminated.
 328:.\stlib\STM32F10x_StdPeriph_Driver\src/stm32f10x_dma.c ****   /* Check the parameters */
 329:.\stlib\STM32F10x_StdPeriph_Driver\src/stm32f10x_dma.c ****   assert_param(IS_DMA_ALL_PERIPH(DMAy_Channelx));
 549              		.loc 1 329 3 view .LVU139
 330:.\stlib\STM32F10x_StdPeriph_Driver\src/stm32f10x_dma.c ****   assert_param(IS_DMA_CONFIG_IT(DMA_IT));
 550              		.loc 1 330 3 view .LVU140
 331:.\stlib\STM32F10x_StdPeriph_Driver\src/stm32f10x_dma.c ****   assert_param(IS_FUNCTIONAL_STATE(NewState));
 551              		.loc 1 331 3 view .LVU141
 332:.\stlib\STM32F10x_StdPeriph_Driver\src/stm32f10x_dma.c ****   if (NewState != DISABLE)
 552              		.loc 1 332 3 view .LVU142
 553              	@ .\stlib\STM32F10x_StdPeriph_Driver\src\stm32f10x_dma.c:335:     DMAy_Channelx->CCR |= DMA_IT;
 333:.\stlib\STM32F10x_StdPeriph_Driver\src/stm32f10x_dma.c ****   {
 334:.\stlib\STM32F10x_StdPeriph_Driver\src/stm32f10x_dma.c ****     /* Enable the selected DMA interrupts */
 335:.\stlib\STM32F10x_StdPeriph_Driver\src/stm32f10x_dma.c ****     DMAy_Channelx->CCR |= DMA_IT;
 554              		.loc 1 335 24 is_stmt 0 view .LVU143
 555 0160 0368     		ldr	r3, [r0]	@ _1,* DMAy_Channelx
 556              	@ .\stlib\STM32F10x_StdPeriph_Driver\src\stm32f10x_dma.c:332:   if (NewState != DISABLE)
 332:.\stlib\STM32F10x_StdPeriph_Driver\src/stm32f10x_dma.c ****   if (NewState != DISABLE)
 557              		.loc 1 332 6 view .LVU144
 558 0162 12B1     		cbz	r2, .L29	@ tmp121,
 559              		.loc 1 335 5 is_stmt 1 view .LVU145
 560              	@ .\stlib\STM32F10x_StdPeriph_Driver\src\stm32f10x_dma.c:335:     DMAy_Channelx->CCR |= DMA_IT;
 561              		.loc 1 335 24 is_stmt 0 view .LVU146
 562 0164 1943     		orrs	r1, r1, r3	@, _2, DMA_IT, _1
 563              	.LVL11:
 564              	.L31:
 565              	@ .\stlib\STM32F10x_StdPeriph_Driver\src\stm32f10x_dma.c:340:     DMAy_Channelx->CCR &= ~DMA_IT;
 336:.\stlib\STM32F10x_StdPeriph_Driver\src/stm32f10x_dma.c ****   }
 337:.\stlib\STM32F10x_StdPeriph_Driver\src/stm32f10x_dma.c ****   else
 338:.\stlib\STM32F10x_StdPeriph_Driver\src/stm32f10x_dma.c ****   {
 339:.\stlib\STM32F10x_StdPeriph_Driver\src/stm32f10x_dma.c ****     /* Disable the selected DMA interrupts */
 340:.\stlib\STM32F10x_StdPeriph_Driver\src/stm32f10x_dma.c ****     DMAy_Channelx->CCR &= ~DMA_IT;
 566              		.loc 1 340 24 view .LVU147
 567 0166 0160     		str	r1, [r0]	@ _5,* DMAy_Channelx
 568              	@ .\stlib\STM32F10x_StdPeriph_Driver\src\stm32f10x_dma.c:342: }
 341:.\stlib\STM32F10x_StdPeriph_Driver\src/stm32f10x_dma.c ****   }
 342:.\stlib\STM32F10x_StdPeriph_Driver\src/stm32f10x_dma.c **** }
 569              		.loc 1 342 1 view .LVU148
 570 0168 7047     		bx	lr	@
 571              	.LVL12:
 572              	.L29:
ARM GAS  C:\Users\skey\AppData\Local\Temp\ccsfckNU.s 			page 18


 340:.\stlib\STM32F10x_StdPeriph_Driver\src/stm32f10x_dma.c ****   }
 573              		.loc 1 340 5 is_stmt 1 view .LVU149
 574              	@ .\stlib\STM32F10x_StdPeriph_Driver\src\stm32f10x_dma.c:340:     DMAy_Channelx->CCR &= ~DMA_IT;
 340:.\stlib\STM32F10x_StdPeriph_Driver\src/stm32f10x_dma.c ****   }
 575              		.loc 1 340 24 is_stmt 0 view .LVU150
 576 016a 23EA0101 		bic	r1, r3, r1	@ _5, _3, DMA_IT
 577              	.LVL13:
 340:.\stlib\STM32F10x_StdPeriph_Driver\src/stm32f10x_dma.c ****   }
 578              		.loc 1 340 24 view .LVU151
 579 016e FAE7     		b	.L31		@
 580              		.cfi_endproc
 581              	.LFE33:
 582              		.size	DMA_ITConfig, .-DMA_ITConfig
 583              		.align	1
 584              		.global	DMA_SetCurrDataCounter
 585              		.syntax unified
 586              		.thumb
 587              		.thumb_func
 588              		.fpu softvfp
 589              		.type	DMA_SetCurrDataCounter, %function
 590              	DMA_SetCurrDataCounter:
 591              	.LVL14:
 592              	.LFB34:
 343:.\stlib\STM32F10x_StdPeriph_Driver\src/stm32f10x_dma.c **** 
 344:.\stlib\STM32F10x_StdPeriph_Driver\src/stm32f10x_dma.c **** /**
 345:.\stlib\STM32F10x_StdPeriph_Driver\src/stm32f10x_dma.c ****   * @brief  Sets the number of data units in the current DMAy Channelx transfer.
 346:.\stlib\STM32F10x_StdPeriph_Driver\src/stm32f10x_dma.c ****   * @param  DMAy_Channelx: where y can be 1 or 2 to select the DMA and 
 347:.\stlib\STM32F10x_StdPeriph_Driver\src/stm32f10x_dma.c ****   *         x can be 1 to 7 for DMA1 and 1 to 5 for DMA2 to select the DMA Channel.
 348:.\stlib\STM32F10x_StdPeriph_Driver\src/stm32f10x_dma.c ****   * @param  DataNumber: The number of data units in the current DMAy Channelx
 349:.\stlib\STM32F10x_StdPeriph_Driver\src/stm32f10x_dma.c ****   *         transfer.   
 350:.\stlib\STM32F10x_StdPeriph_Driver\src/stm32f10x_dma.c ****   * @note   This function can only be used when the DMAy_Channelx is disabled.                 
 351:.\stlib\STM32F10x_StdPeriph_Driver\src/stm32f10x_dma.c ****   * @retval None.
 352:.\stlib\STM32F10x_StdPeriph_Driver\src/stm32f10x_dma.c ****   */
 353:.\stlib\STM32F10x_StdPeriph_Driver\src/stm32f10x_dma.c **** void DMA_SetCurrDataCounter(DMA_Channel_TypeDef* DMAy_Channelx, uint16_t DataNumber)
 354:.\stlib\STM32F10x_StdPeriph_Driver\src/stm32f10x_dma.c **** {
 593              		.loc 1 354 1 is_stmt 1 view -0
 594              		.cfi_startproc
 595              		@ args = 0, pretend = 0, frame = 0
 596              		@ frame_needed = 0, uses_anonymous_args = 0
 597              		@ link register save eliminated.
 355:.\stlib\STM32F10x_StdPeriph_Driver\src/stm32f10x_dma.c ****   /* Check the parameters */
 356:.\stlib\STM32F10x_StdPeriph_Driver\src/stm32f10x_dma.c ****   assert_param(IS_DMA_ALL_PERIPH(DMAy_Channelx));
 598              		.loc 1 356 3 view .LVU153
 357:.\stlib\STM32F10x_StdPeriph_Driver\src/stm32f10x_dma.c ****   
 358:.\stlib\STM32F10x_StdPeriph_Driver\src/stm32f10x_dma.c **** /*--------------------------- DMAy Channelx CNDTR Configuration ---------------*/
 359:.\stlib\STM32F10x_StdPeriph_Driver\src/stm32f10x_dma.c ****   /* Write to DMAy Channelx CNDTR */
 360:.\stlib\STM32F10x_StdPeriph_Driver\src/stm32f10x_dma.c ****   DMAy_Channelx->CNDTR = DataNumber;  
 599              		.loc 1 360 3 view .LVU154
 600              	@ .\stlib\STM32F10x_StdPeriph_Driver\src\stm32f10x_dma.c:360:   DMAy_Channelx->CNDTR = DataNumber; 
 601              		.loc 1 360 24 is_stmt 0 view .LVU155
 602 0170 4160     		str	r1, [r0, #4]	@ DataNumber, DMAy_Channelx_4(D)->CNDTR
 603              	@ .\stlib\STM32F10x_StdPeriph_Driver\src\stm32f10x_dma.c:361: }
 361:.\stlib\STM32F10x_StdPeriph_Driver\src/stm32f10x_dma.c **** }
 604              		.loc 1 361 1 view .LVU156
 605 0172 7047     		bx	lr	@
 606              		.cfi_endproc
 607              	.LFE34:
ARM GAS  C:\Users\skey\AppData\Local\Temp\ccsfckNU.s 			page 19


 608              		.size	DMA_SetCurrDataCounter, .-DMA_SetCurrDataCounter
 609              		.align	1
 610              		.global	DMA_GetCurrDataCounter
 611              		.syntax unified
 612              		.thumb
 613              		.thumb_func
 614              		.fpu softvfp
 615              		.type	DMA_GetCurrDataCounter, %function
 616              	DMA_GetCurrDataCounter:
 617              	.LVL15:
 618              	.LFB35:
 362:.\stlib\STM32F10x_StdPeriph_Driver\src/stm32f10x_dma.c **** 
 363:.\stlib\STM32F10x_StdPeriph_Driver\src/stm32f10x_dma.c **** /**
 364:.\stlib\STM32F10x_StdPeriph_Driver\src/stm32f10x_dma.c ****   * @brief  Returns the number of remaining data units in the current
 365:.\stlib\STM32F10x_StdPeriph_Driver\src/stm32f10x_dma.c ****   *         DMAy Channelx transfer.
 366:.\stlib\STM32F10x_StdPeriph_Driver\src/stm32f10x_dma.c ****   * @param  DMAy_Channelx: where y can be 1 or 2 to select the DMA and 
 367:.\stlib\STM32F10x_StdPeriph_Driver\src/stm32f10x_dma.c ****   *   x can be 1 to 7 for DMA1 and 1 to 5 for DMA2 to select the DMA Channel.
 368:.\stlib\STM32F10x_StdPeriph_Driver\src/stm32f10x_dma.c ****   * @retval The number of remaining data units in the current DMAy Channelx
 369:.\stlib\STM32F10x_StdPeriph_Driver\src/stm32f10x_dma.c ****   *         transfer.
 370:.\stlib\STM32F10x_StdPeriph_Driver\src/stm32f10x_dma.c ****   */
 371:.\stlib\STM32F10x_StdPeriph_Driver\src/stm32f10x_dma.c **** uint16_t DMA_GetCurrDataCounter(DMA_Channel_TypeDef* DMAy_Channelx)
 372:.\stlib\STM32F10x_StdPeriph_Driver\src/stm32f10x_dma.c **** {
 619              		.loc 1 372 1 is_stmt 1 view -0
 620              		.cfi_startproc
 621              		@ args = 0, pretend = 0, frame = 0
 622              		@ frame_needed = 0, uses_anonymous_args = 0
 623              		@ link register save eliminated.
 373:.\stlib\STM32F10x_StdPeriph_Driver\src/stm32f10x_dma.c ****   /* Check the parameters */
 374:.\stlib\STM32F10x_StdPeriph_Driver\src/stm32f10x_dma.c ****   assert_param(IS_DMA_ALL_PERIPH(DMAy_Channelx));
 624              		.loc 1 374 3 view .LVU158
 375:.\stlib\STM32F10x_StdPeriph_Driver\src/stm32f10x_dma.c ****   /* Return the number of remaining data units for DMAy Channelx */
 376:.\stlib\STM32F10x_StdPeriph_Driver\src/stm32f10x_dma.c ****   return ((uint16_t)(DMAy_Channelx->CNDTR));
 625              		.loc 1 376 3 view .LVU159
 626              	@ .\stlib\STM32F10x_StdPeriph_Driver\src\stm32f10x_dma.c:376:   return ((uint16_t)(DMAy_Channelx->C
 627              		.loc 1 376 35 is_stmt 0 view .LVU160
 628 0174 4068     		ldr	r0, [r0, #4]	@ _1, DMAy_Channelx_3(D)->CNDTR
 629              	.LVL16:
 630              	@ .\stlib\STM32F10x_StdPeriph_Driver\src\stm32f10x_dma.c:377: }
 377:.\stlib\STM32F10x_StdPeriph_Driver\src/stm32f10x_dma.c **** }
 631              		.loc 1 377 1 view .LVU161
 632 0176 80B2     		uxth	r0, r0	@, _1
 633 0178 7047     		bx	lr	@
 634              		.cfi_endproc
 635              	.LFE35:
 636              		.size	DMA_GetCurrDataCounter, .-DMA_GetCurrDataCounter
 637              		.align	1
 638              		.global	DMA_GetFlagStatus
 639              		.syntax unified
 640              		.thumb
 641              		.thumb_func
 642              		.fpu softvfp
 643              		.type	DMA_GetFlagStatus, %function
 644              	DMA_GetFlagStatus:
 645              	.LVL17:
 646              	.LFB36:
 378:.\stlib\STM32F10x_StdPeriph_Driver\src/stm32f10x_dma.c **** 
 379:.\stlib\STM32F10x_StdPeriph_Driver\src/stm32f10x_dma.c **** /**
ARM GAS  C:\Users\skey\AppData\Local\Temp\ccsfckNU.s 			page 20


 380:.\stlib\STM32F10x_StdPeriph_Driver\src/stm32f10x_dma.c ****   * @brief  Checks whether the specified DMAy Channelx flag is set or not.
 381:.\stlib\STM32F10x_StdPeriph_Driver\src/stm32f10x_dma.c ****   * @param  DMAy_FLAG: specifies the flag to check.
 382:.\stlib\STM32F10x_StdPeriph_Driver\src/stm32f10x_dma.c ****   *   This parameter can be one of the following values:
 383:.\stlib\STM32F10x_StdPeriph_Driver\src/stm32f10x_dma.c ****   *     @arg DMA1_FLAG_GL1: DMA1 Channel1 global flag.
 384:.\stlib\STM32F10x_StdPeriph_Driver\src/stm32f10x_dma.c ****   *     @arg DMA1_FLAG_TC1: DMA1 Channel1 transfer complete flag.
 385:.\stlib\STM32F10x_StdPeriph_Driver\src/stm32f10x_dma.c ****   *     @arg DMA1_FLAG_HT1: DMA1 Channel1 half transfer flag.
 386:.\stlib\STM32F10x_StdPeriph_Driver\src/stm32f10x_dma.c ****   *     @arg DMA1_FLAG_TE1: DMA1 Channel1 transfer error flag.
 387:.\stlib\STM32F10x_StdPeriph_Driver\src/stm32f10x_dma.c ****   *     @arg DMA1_FLAG_GL2: DMA1 Channel2 global flag.
 388:.\stlib\STM32F10x_StdPeriph_Driver\src/stm32f10x_dma.c ****   *     @arg DMA1_FLAG_TC2: DMA1 Channel2 transfer complete flag.
 389:.\stlib\STM32F10x_StdPeriph_Driver\src/stm32f10x_dma.c ****   *     @arg DMA1_FLAG_HT2: DMA1 Channel2 half transfer flag.
 390:.\stlib\STM32F10x_StdPeriph_Driver\src/stm32f10x_dma.c ****   *     @arg DMA1_FLAG_TE2: DMA1 Channel2 transfer error flag.
 391:.\stlib\STM32F10x_StdPeriph_Driver\src/stm32f10x_dma.c ****   *     @arg DMA1_FLAG_GL3: DMA1 Channel3 global flag.
 392:.\stlib\STM32F10x_StdPeriph_Driver\src/stm32f10x_dma.c ****   *     @arg DMA1_FLAG_TC3: DMA1 Channel3 transfer complete flag.
 393:.\stlib\STM32F10x_StdPeriph_Driver\src/stm32f10x_dma.c ****   *     @arg DMA1_FLAG_HT3: DMA1 Channel3 half transfer flag.
 394:.\stlib\STM32F10x_StdPeriph_Driver\src/stm32f10x_dma.c ****   *     @arg DMA1_FLAG_TE3: DMA1 Channel3 transfer error flag.
 395:.\stlib\STM32F10x_StdPeriph_Driver\src/stm32f10x_dma.c ****   *     @arg DMA1_FLAG_GL4: DMA1 Channel4 global flag.
 396:.\stlib\STM32F10x_StdPeriph_Driver\src/stm32f10x_dma.c ****   *     @arg DMA1_FLAG_TC4: DMA1 Channel4 transfer complete flag.
 397:.\stlib\STM32F10x_StdPeriph_Driver\src/stm32f10x_dma.c ****   *     @arg DMA1_FLAG_HT4: DMA1 Channel4 half transfer flag.
 398:.\stlib\STM32F10x_StdPeriph_Driver\src/stm32f10x_dma.c ****   *     @arg DMA1_FLAG_TE4: DMA1 Channel4 transfer error flag.
 399:.\stlib\STM32F10x_StdPeriph_Driver\src/stm32f10x_dma.c ****   *     @arg DMA1_FLAG_GL5: DMA1 Channel5 global flag.
 400:.\stlib\STM32F10x_StdPeriph_Driver\src/stm32f10x_dma.c ****   *     @arg DMA1_FLAG_TC5: DMA1 Channel5 transfer complete flag.
 401:.\stlib\STM32F10x_StdPeriph_Driver\src/stm32f10x_dma.c ****   *     @arg DMA1_FLAG_HT5: DMA1 Channel5 half transfer flag.
 402:.\stlib\STM32F10x_StdPeriph_Driver\src/stm32f10x_dma.c ****   *     @arg DMA1_FLAG_TE5: DMA1 Channel5 transfer error flag.
 403:.\stlib\STM32F10x_StdPeriph_Driver\src/stm32f10x_dma.c ****   *     @arg DMA1_FLAG_GL6: DMA1 Channel6 global flag.
 404:.\stlib\STM32F10x_StdPeriph_Driver\src/stm32f10x_dma.c ****   *     @arg DMA1_FLAG_TC6: DMA1 Channel6 transfer complete flag.
 405:.\stlib\STM32F10x_StdPeriph_Driver\src/stm32f10x_dma.c ****   *     @arg DMA1_FLAG_HT6: DMA1 Channel6 half transfer flag.
 406:.\stlib\STM32F10x_StdPeriph_Driver\src/stm32f10x_dma.c ****   *     @arg DMA1_FLAG_TE6: DMA1 Channel6 transfer error flag.
 407:.\stlib\STM32F10x_StdPeriph_Driver\src/stm32f10x_dma.c ****   *     @arg DMA1_FLAG_GL7: DMA1 Channel7 global flag.
 408:.\stlib\STM32F10x_StdPeriph_Driver\src/stm32f10x_dma.c ****   *     @arg DMA1_FLAG_TC7: DMA1 Channel7 transfer complete flag.
 409:.\stlib\STM32F10x_StdPeriph_Driver\src/stm32f10x_dma.c ****   *     @arg DMA1_FLAG_HT7: DMA1 Channel7 half transfer flag.
 410:.\stlib\STM32F10x_StdPeriph_Driver\src/stm32f10x_dma.c ****   *     @arg DMA1_FLAG_TE7: DMA1 Channel7 transfer error flag.
 411:.\stlib\STM32F10x_StdPeriph_Driver\src/stm32f10x_dma.c ****   *     @arg DMA2_FLAG_GL1: DMA2 Channel1 global flag.
 412:.\stlib\STM32F10x_StdPeriph_Driver\src/stm32f10x_dma.c ****   *     @arg DMA2_FLAG_TC1: DMA2 Channel1 transfer complete flag.
 413:.\stlib\STM32F10x_StdPeriph_Driver\src/stm32f10x_dma.c ****   *     @arg DMA2_FLAG_HT1: DMA2 Channel1 half transfer flag.
 414:.\stlib\STM32F10x_StdPeriph_Driver\src/stm32f10x_dma.c ****   *     @arg DMA2_FLAG_TE1: DMA2 Channel1 transfer error flag.
 415:.\stlib\STM32F10x_StdPeriph_Driver\src/stm32f10x_dma.c ****   *     @arg DMA2_FLAG_GL2: DMA2 Channel2 global flag.
 416:.\stlib\STM32F10x_StdPeriph_Driver\src/stm32f10x_dma.c ****   *     @arg DMA2_FLAG_TC2: DMA2 Channel2 transfer complete flag.
 417:.\stlib\STM32F10x_StdPeriph_Driver\src/stm32f10x_dma.c ****   *     @arg DMA2_FLAG_HT2: DMA2 Channel2 half transfer flag.
 418:.\stlib\STM32F10x_StdPeriph_Driver\src/stm32f10x_dma.c ****   *     @arg DMA2_FLAG_TE2: DMA2 Channel2 transfer error flag.
 419:.\stlib\STM32F10x_StdPeriph_Driver\src/stm32f10x_dma.c ****   *     @arg DMA2_FLAG_GL3: DMA2 Channel3 global flag.
 420:.\stlib\STM32F10x_StdPeriph_Driver\src/stm32f10x_dma.c ****   *     @arg DMA2_FLAG_TC3: DMA2 Channel3 transfer complete flag.
 421:.\stlib\STM32F10x_StdPeriph_Driver\src/stm32f10x_dma.c ****   *     @arg DMA2_FLAG_HT3: DMA2 Channel3 half transfer flag.
 422:.\stlib\STM32F10x_StdPeriph_Driver\src/stm32f10x_dma.c ****   *     @arg DMA2_FLAG_TE3: DMA2 Channel3 transfer error flag.
 423:.\stlib\STM32F10x_StdPeriph_Driver\src/stm32f10x_dma.c ****   *     @arg DMA2_FLAG_GL4: DMA2 Channel4 global flag.
 424:.\stlib\STM32F10x_StdPeriph_Driver\src/stm32f10x_dma.c ****   *     @arg DMA2_FLAG_TC4: DMA2 Channel4 transfer complete flag.
 425:.\stlib\STM32F10x_StdPeriph_Driver\src/stm32f10x_dma.c ****   *     @arg DMA2_FLAG_HT4: DMA2 Channel4 half transfer flag.
 426:.\stlib\STM32F10x_StdPeriph_Driver\src/stm32f10x_dma.c ****   *     @arg DMA2_FLAG_TE4: DMA2 Channel4 transfer error flag.
 427:.\stlib\STM32F10x_StdPeriph_Driver\src/stm32f10x_dma.c ****   *     @arg DMA2_FLAG_GL5: DMA2 Channel5 global flag.
 428:.\stlib\STM32F10x_StdPeriph_Driver\src/stm32f10x_dma.c ****   *     @arg DMA2_FLAG_TC5: DMA2 Channel5 transfer complete flag.
 429:.\stlib\STM32F10x_StdPeriph_Driver\src/stm32f10x_dma.c ****   *     @arg DMA2_FLAG_HT5: DMA2 Channel5 half transfer flag.
 430:.\stlib\STM32F10x_StdPeriph_Driver\src/stm32f10x_dma.c ****   *     @arg DMA2_FLAG_TE5: DMA2 Channel5 transfer error flag.
 431:.\stlib\STM32F10x_StdPeriph_Driver\src/stm32f10x_dma.c ****   * @retval The new state of DMAy_FLAG (SET or RESET).
 432:.\stlib\STM32F10x_StdPeriph_Driver\src/stm32f10x_dma.c ****   */
 433:.\stlib\STM32F10x_StdPeriph_Driver\src/stm32f10x_dma.c **** FlagStatus DMA_GetFlagStatus(uint32_t DMAy_FLAG)
 434:.\stlib\STM32F10x_StdPeriph_Driver\src/stm32f10x_dma.c **** {
 647              		.loc 1 434 1 is_stmt 1 view -0
 648              		.cfi_startproc
ARM GAS  C:\Users\skey\AppData\Local\Temp\ccsfckNU.s 			page 21


 649              		@ args = 0, pretend = 0, frame = 0
 650              		@ frame_needed = 0, uses_anonymous_args = 0
 651              		@ link register save eliminated.
 435:.\stlib\STM32F10x_StdPeriph_Driver\src/stm32f10x_dma.c ****   FlagStatus bitstatus = RESET;
 652              		.loc 1 435 3 view .LVU163
 436:.\stlib\STM32F10x_StdPeriph_Driver\src/stm32f10x_dma.c ****   uint32_t tmpreg = 0;
 653              		.loc 1 436 3 view .LVU164
 437:.\stlib\STM32F10x_StdPeriph_Driver\src/stm32f10x_dma.c ****   
 438:.\stlib\STM32F10x_StdPeriph_Driver\src/stm32f10x_dma.c ****   /* Check the parameters */
 439:.\stlib\STM32F10x_StdPeriph_Driver\src/stm32f10x_dma.c ****   assert_param(IS_DMA_GET_FLAG(DMAy_FLAG));
 654              		.loc 1 439 3 view .LVU165
 440:.\stlib\STM32F10x_StdPeriph_Driver\src/stm32f10x_dma.c **** 
 441:.\stlib\STM32F10x_StdPeriph_Driver\src/stm32f10x_dma.c ****   /* Calculate the used DMAy */
 442:.\stlib\STM32F10x_StdPeriph_Driver\src/stm32f10x_dma.c ****   if ((DMAy_FLAG & FLAG_Mask) != (uint32_t)RESET)
 655              		.loc 1 442 3 view .LVU166
 656              	@ .\stlib\STM32F10x_StdPeriph_Driver\src\stm32f10x_dma.c:442:   if ((DMAy_FLAG & FLAG_Mask) != (uin
 657              		.loc 1 442 6 is_stmt 0 view .LVU167
 658 017a C300     		lsls	r3, r0, #3	@, DMAy_FLAG,
 443:.\stlib\STM32F10x_StdPeriph_Driver\src/stm32f10x_dma.c ****   {
 444:.\stlib\STM32F10x_StdPeriph_Driver\src/stm32f10x_dma.c ****     /* Get DMA2 ISR register value */
 445:.\stlib\STM32F10x_StdPeriph_Driver\src/stm32f10x_dma.c ****     tmpreg = DMA2->ISR ;
 659              		.loc 1 445 5 is_stmt 1 view .LVU168
 660              	@ .\stlib\STM32F10x_StdPeriph_Driver\src\stm32f10x_dma.c:445:     tmpreg = DMA2->ISR ;
 661              		.loc 1 445 12 is_stmt 0 view .LVU169
 662 017c 4CBF     		ite	mi
 663 017e 044B     		ldrmi	r3, .L38	@ tmp117,
 446:.\stlib\STM32F10x_StdPeriph_Driver\src/stm32f10x_dma.c ****   }
 447:.\stlib\STM32F10x_StdPeriph_Driver\src/stm32f10x_dma.c ****   else
 448:.\stlib\STM32F10x_StdPeriph_Driver\src/stm32f10x_dma.c ****   {
 449:.\stlib\STM32F10x_StdPeriph_Driver\src/stm32f10x_dma.c ****     /* Get DMA1 ISR register value */
 450:.\stlib\STM32F10x_StdPeriph_Driver\src/stm32f10x_dma.c ****     tmpreg = DMA1->ISR ;
 664              		.loc 1 450 5 is_stmt 1 view .LVU170
 665              	@ .\stlib\STM32F10x_StdPeriph_Driver\src\stm32f10x_dma.c:450:     tmpreg = DMA1->ISR ;
 666              		.loc 1 450 12 is_stmt 0 view .LVU171
 667 0180 044B     		ldrpl	r3, .L38+4	@ tmp118,
 668 0182 1B68     		ldr	r3, [r3]	@ tmpreg,
 669              	.LVL18:
 451:.\stlib\STM32F10x_StdPeriph_Driver\src/stm32f10x_dma.c ****   }
 452:.\stlib\STM32F10x_StdPeriph_Driver\src/stm32f10x_dma.c **** 
 453:.\stlib\STM32F10x_StdPeriph_Driver\src/stm32f10x_dma.c ****   /* Check the status of the specified DMAy flag */
 454:.\stlib\STM32F10x_StdPeriph_Driver\src/stm32f10x_dma.c ****   if ((tmpreg & DMAy_FLAG) != (uint32_t)RESET)
 670              		.loc 1 454 3 is_stmt 1 view .LVU172
 455:.\stlib\STM32F10x_StdPeriph_Driver\src/stm32f10x_dma.c ****   {
 456:.\stlib\STM32F10x_StdPeriph_Driver\src/stm32f10x_dma.c ****     /* DMAy_FLAG is set */
 457:.\stlib\STM32F10x_StdPeriph_Driver\src/stm32f10x_dma.c ****     bitstatus = SET;
 458:.\stlib\STM32F10x_StdPeriph_Driver\src/stm32f10x_dma.c ****   }
 459:.\stlib\STM32F10x_StdPeriph_Driver\src/stm32f10x_dma.c ****   else
 460:.\stlib\STM32F10x_StdPeriph_Driver\src/stm32f10x_dma.c ****   {
 461:.\stlib\STM32F10x_StdPeriph_Driver\src/stm32f10x_dma.c ****     /* DMAy_FLAG is reset */
 462:.\stlib\STM32F10x_StdPeriph_Driver\src/stm32f10x_dma.c ****     bitstatus = RESET;
 463:.\stlib\STM32F10x_StdPeriph_Driver\src/stm32f10x_dma.c ****   }
 464:.\stlib\STM32F10x_StdPeriph_Driver\src/stm32f10x_dma.c ****   
 465:.\stlib\STM32F10x_StdPeriph_Driver\src/stm32f10x_dma.c ****   /* Return the DMAy_FLAG status */
 466:.\stlib\STM32F10x_StdPeriph_Driver\src/stm32f10x_dma.c ****   return  bitstatus;
 671              		.loc 1 466 3 view .LVU173
 672              	@ .\stlib\STM32F10x_StdPeriph_Driver\src\stm32f10x_dma.c:454:   if ((tmpreg & DMAy_FLAG) != (uint32
 454:.\stlib\STM32F10x_StdPeriph_Driver\src/stm32f10x_dma.c ****   {
ARM GAS  C:\Users\skey\AppData\Local\Temp\ccsfckNU.s 			page 22


 673              		.loc 1 454 6 is_stmt 0 view .LVU174
 674 0184 0342     		tst	r3, r0	@ tmpreg, DMAy_FLAG
 675              	@ .\stlib\STM32F10x_StdPeriph_Driver\src\stm32f10x_dma.c:467: }
 467:.\stlib\STM32F10x_StdPeriph_Driver\src/stm32f10x_dma.c **** }
 676              		.loc 1 467 1 view .LVU175
 677 0186 14BF     		ite	ne
 678 0188 0120     		movne	r0, #1	@,
 679              	.LVL19:
 680              		.loc 1 467 1 view .LVU176
 681 018a 0020     		moveq	r0, #0	@,
 682 018c 7047     		bx	lr	@
 683              	.L39:
 684 018e 00BF     		.align	2
 685              	.L38:
 686 0190 00040240 		.word	1073873920
 687 0194 00000240 		.word	1073872896
 688              		.cfi_endproc
 689              	.LFE36:
 690              		.size	DMA_GetFlagStatus, .-DMA_GetFlagStatus
 691              		.align	1
 692              		.global	DMA_ClearFlag
 693              		.syntax unified
 694              		.thumb
 695              		.thumb_func
 696              		.fpu softvfp
 697              		.type	DMA_ClearFlag, %function
 698              	DMA_ClearFlag:
 699              	.LVL20:
 700              	.LFB37:
 468:.\stlib\STM32F10x_StdPeriph_Driver\src/stm32f10x_dma.c **** 
 469:.\stlib\STM32F10x_StdPeriph_Driver\src/stm32f10x_dma.c **** /**
 470:.\stlib\STM32F10x_StdPeriph_Driver\src/stm32f10x_dma.c ****   * @brief  Clears the DMAy Channelx's pending flags.
 471:.\stlib\STM32F10x_StdPeriph_Driver\src/stm32f10x_dma.c ****   * @param  DMAy_FLAG: specifies the flag to clear.
 472:.\stlib\STM32F10x_StdPeriph_Driver\src/stm32f10x_dma.c ****   *   This parameter can be any combination (for the same DMA) of the following values:
 473:.\stlib\STM32F10x_StdPeriph_Driver\src/stm32f10x_dma.c ****   *     @arg DMA1_FLAG_GL1: DMA1 Channel1 global flag.
 474:.\stlib\STM32F10x_StdPeriph_Driver\src/stm32f10x_dma.c ****   *     @arg DMA1_FLAG_TC1: DMA1 Channel1 transfer complete flag.
 475:.\stlib\STM32F10x_StdPeriph_Driver\src/stm32f10x_dma.c ****   *     @arg DMA1_FLAG_HT1: DMA1 Channel1 half transfer flag.
 476:.\stlib\STM32F10x_StdPeriph_Driver\src/stm32f10x_dma.c ****   *     @arg DMA1_FLAG_TE1: DMA1 Channel1 transfer error flag.
 477:.\stlib\STM32F10x_StdPeriph_Driver\src/stm32f10x_dma.c ****   *     @arg DMA1_FLAG_GL2: DMA1 Channel2 global flag.
 478:.\stlib\STM32F10x_StdPeriph_Driver\src/stm32f10x_dma.c ****   *     @arg DMA1_FLAG_TC2: DMA1 Channel2 transfer complete flag.
 479:.\stlib\STM32F10x_StdPeriph_Driver\src/stm32f10x_dma.c ****   *     @arg DMA1_FLAG_HT2: DMA1 Channel2 half transfer flag.
 480:.\stlib\STM32F10x_StdPeriph_Driver\src/stm32f10x_dma.c ****   *     @arg DMA1_FLAG_TE2: DMA1 Channel2 transfer error flag.
 481:.\stlib\STM32F10x_StdPeriph_Driver\src/stm32f10x_dma.c ****   *     @arg DMA1_FLAG_GL3: DMA1 Channel3 global flag.
 482:.\stlib\STM32F10x_StdPeriph_Driver\src/stm32f10x_dma.c ****   *     @arg DMA1_FLAG_TC3: DMA1 Channel3 transfer complete flag.
 483:.\stlib\STM32F10x_StdPeriph_Driver\src/stm32f10x_dma.c ****   *     @arg DMA1_FLAG_HT3: DMA1 Channel3 half transfer flag.
 484:.\stlib\STM32F10x_StdPeriph_Driver\src/stm32f10x_dma.c ****   *     @arg DMA1_FLAG_TE3: DMA1 Channel3 transfer error flag.
 485:.\stlib\STM32F10x_StdPeriph_Driver\src/stm32f10x_dma.c ****   *     @arg DMA1_FLAG_GL4: DMA1 Channel4 global flag.
 486:.\stlib\STM32F10x_StdPeriph_Driver\src/stm32f10x_dma.c ****   *     @arg DMA1_FLAG_TC4: DMA1 Channel4 transfer complete flag.
 487:.\stlib\STM32F10x_StdPeriph_Driver\src/stm32f10x_dma.c ****   *     @arg DMA1_FLAG_HT4: DMA1 Channel4 half transfer flag.
 488:.\stlib\STM32F10x_StdPeriph_Driver\src/stm32f10x_dma.c ****   *     @arg DMA1_FLAG_TE4: DMA1 Channel4 transfer error flag.
 489:.\stlib\STM32F10x_StdPeriph_Driver\src/stm32f10x_dma.c ****   *     @arg DMA1_FLAG_GL5: DMA1 Channel5 global flag.
 490:.\stlib\STM32F10x_StdPeriph_Driver\src/stm32f10x_dma.c ****   *     @arg DMA1_FLAG_TC5: DMA1 Channel5 transfer complete flag.
 491:.\stlib\STM32F10x_StdPeriph_Driver\src/stm32f10x_dma.c ****   *     @arg DMA1_FLAG_HT5: DMA1 Channel5 half transfer flag.
 492:.\stlib\STM32F10x_StdPeriph_Driver\src/stm32f10x_dma.c ****   *     @arg DMA1_FLAG_TE5: DMA1 Channel5 transfer error flag.
 493:.\stlib\STM32F10x_StdPeriph_Driver\src/stm32f10x_dma.c ****   *     @arg DMA1_FLAG_GL6: DMA1 Channel6 global flag.
 494:.\stlib\STM32F10x_StdPeriph_Driver\src/stm32f10x_dma.c ****   *     @arg DMA1_FLAG_TC6: DMA1 Channel6 transfer complete flag.
 495:.\stlib\STM32F10x_StdPeriph_Driver\src/stm32f10x_dma.c ****   *     @arg DMA1_FLAG_HT6: DMA1 Channel6 half transfer flag.
ARM GAS  C:\Users\skey\AppData\Local\Temp\ccsfckNU.s 			page 23


 496:.\stlib\STM32F10x_StdPeriph_Driver\src/stm32f10x_dma.c ****   *     @arg DMA1_FLAG_TE6: DMA1 Channel6 transfer error flag.
 497:.\stlib\STM32F10x_StdPeriph_Driver\src/stm32f10x_dma.c ****   *     @arg DMA1_FLAG_GL7: DMA1 Channel7 global flag.
 498:.\stlib\STM32F10x_StdPeriph_Driver\src/stm32f10x_dma.c ****   *     @arg DMA1_FLAG_TC7: DMA1 Channel7 transfer complete flag.
 499:.\stlib\STM32F10x_StdPeriph_Driver\src/stm32f10x_dma.c ****   *     @arg DMA1_FLAG_HT7: DMA1 Channel7 half transfer flag.
 500:.\stlib\STM32F10x_StdPeriph_Driver\src/stm32f10x_dma.c ****   *     @arg DMA1_FLAG_TE7: DMA1 Channel7 transfer error flag.
 501:.\stlib\STM32F10x_StdPeriph_Driver\src/stm32f10x_dma.c ****   *     @arg DMA2_FLAG_GL1: DMA2 Channel1 global flag.
 502:.\stlib\STM32F10x_StdPeriph_Driver\src/stm32f10x_dma.c ****   *     @arg DMA2_FLAG_TC1: DMA2 Channel1 transfer complete flag.
 503:.\stlib\STM32F10x_StdPeriph_Driver\src/stm32f10x_dma.c ****   *     @arg DMA2_FLAG_HT1: DMA2 Channel1 half transfer flag.
 504:.\stlib\STM32F10x_StdPeriph_Driver\src/stm32f10x_dma.c ****   *     @arg DMA2_FLAG_TE1: DMA2 Channel1 transfer error flag.
 505:.\stlib\STM32F10x_StdPeriph_Driver\src/stm32f10x_dma.c ****   *     @arg DMA2_FLAG_GL2: DMA2 Channel2 global flag.
 506:.\stlib\STM32F10x_StdPeriph_Driver\src/stm32f10x_dma.c ****   *     @arg DMA2_FLAG_TC2: DMA2 Channel2 transfer complete flag.
 507:.\stlib\STM32F10x_StdPeriph_Driver\src/stm32f10x_dma.c ****   *     @arg DMA2_FLAG_HT2: DMA2 Channel2 half transfer flag.
 508:.\stlib\STM32F10x_StdPeriph_Driver\src/stm32f10x_dma.c ****   *     @arg DMA2_FLAG_TE2: DMA2 Channel2 transfer error flag.
 509:.\stlib\STM32F10x_StdPeriph_Driver\src/stm32f10x_dma.c ****   *     @arg DMA2_FLAG_GL3: DMA2 Channel3 global flag.
 510:.\stlib\STM32F10x_StdPeriph_Driver\src/stm32f10x_dma.c ****   *     @arg DMA2_FLAG_TC3: DMA2 Channel3 transfer complete flag.
 511:.\stlib\STM32F10x_StdPeriph_Driver\src/stm32f10x_dma.c ****   *     @arg DMA2_FLAG_HT3: DMA2 Channel3 half transfer flag.
 512:.\stlib\STM32F10x_StdPeriph_Driver\src/stm32f10x_dma.c ****   *     @arg DMA2_FLAG_TE3: DMA2 Channel3 transfer error flag.
 513:.\stlib\STM32F10x_StdPeriph_Driver\src/stm32f10x_dma.c ****   *     @arg DMA2_FLAG_GL4: DMA2 Channel4 global flag.
 514:.\stlib\STM32F10x_StdPeriph_Driver\src/stm32f10x_dma.c ****   *     @arg DMA2_FLAG_TC4: DMA2 Channel4 transfer complete flag.
 515:.\stlib\STM32F10x_StdPeriph_Driver\src/stm32f10x_dma.c ****   *     @arg DMA2_FLAG_HT4: DMA2 Channel4 half transfer flag.
 516:.\stlib\STM32F10x_StdPeriph_Driver\src/stm32f10x_dma.c ****   *     @arg DMA2_FLAG_TE4: DMA2 Channel4 transfer error flag.
 517:.\stlib\STM32F10x_StdPeriph_Driver\src/stm32f10x_dma.c ****   *     @arg DMA2_FLAG_GL5: DMA2 Channel5 global flag.
 518:.\stlib\STM32F10x_StdPeriph_Driver\src/stm32f10x_dma.c ****   *     @arg DMA2_FLAG_TC5: DMA2 Channel5 transfer complete flag.
 519:.\stlib\STM32F10x_StdPeriph_Driver\src/stm32f10x_dma.c ****   *     @arg DMA2_FLAG_HT5: DMA2 Channel5 half transfer flag.
 520:.\stlib\STM32F10x_StdPeriph_Driver\src/stm32f10x_dma.c ****   *     @arg DMA2_FLAG_TE5: DMA2 Channel5 transfer error flag.
 521:.\stlib\STM32F10x_StdPeriph_Driver\src/stm32f10x_dma.c ****   * @retval None
 522:.\stlib\STM32F10x_StdPeriph_Driver\src/stm32f10x_dma.c ****   */
 523:.\stlib\STM32F10x_StdPeriph_Driver\src/stm32f10x_dma.c **** void DMA_ClearFlag(uint32_t DMAy_FLAG)
 524:.\stlib\STM32F10x_StdPeriph_Driver\src/stm32f10x_dma.c **** {
 701              		.loc 1 524 1 is_stmt 1 view -0
 702              		.cfi_startproc
 703              		@ args = 0, pretend = 0, frame = 0
 704              		@ frame_needed = 0, uses_anonymous_args = 0
 705              		@ link register save eliminated.
 525:.\stlib\STM32F10x_StdPeriph_Driver\src/stm32f10x_dma.c ****   /* Check the parameters */
 526:.\stlib\STM32F10x_StdPeriph_Driver\src/stm32f10x_dma.c ****   assert_param(IS_DMA_CLEAR_FLAG(DMAy_FLAG));
 706              		.loc 1 526 3 view .LVU178
 527:.\stlib\STM32F10x_StdPeriph_Driver\src/stm32f10x_dma.c **** 
 528:.\stlib\STM32F10x_StdPeriph_Driver\src/stm32f10x_dma.c ****   /* Calculate the used DMAy */
 529:.\stlib\STM32F10x_StdPeriph_Driver\src/stm32f10x_dma.c ****   if ((DMAy_FLAG & FLAG_Mask) != (uint32_t)RESET)
 707              		.loc 1 529 3 view .LVU179
 708              	@ .\stlib\STM32F10x_StdPeriph_Driver\src\stm32f10x_dma.c:529:   if ((DMAy_FLAG & FLAG_Mask) != (uin
 709              		.loc 1 529 6 is_stmt 0 view .LVU180
 710 0198 C300     		lsls	r3, r0, #3	@, DMAy_FLAG,
 530:.\stlib\STM32F10x_StdPeriph_Driver\src/stm32f10x_dma.c ****   {
 531:.\stlib\STM32F10x_StdPeriph_Driver\src/stm32f10x_dma.c ****     /* Clear the selected DMAy flags */
 532:.\stlib\STM32F10x_StdPeriph_Driver\src/stm32f10x_dma.c ****     DMA2->IFCR = DMAy_FLAG;
 711              		.loc 1 532 5 is_stmt 1 view .LVU181
 712              	@ .\stlib\STM32F10x_StdPeriph_Driver\src\stm32f10x_dma.c:532:     DMA2->IFCR = DMAy_FLAG;
 713              		.loc 1 532 16 is_stmt 0 view .LVU182
 714 019a 4CBF     		ite	mi
 715 019c 014B     		ldrmi	r3, .L44	@ tmp113,
 533:.\stlib\STM32F10x_StdPeriph_Driver\src/stm32f10x_dma.c ****   }
 534:.\stlib\STM32F10x_StdPeriph_Driver\src/stm32f10x_dma.c ****   else
 535:.\stlib\STM32F10x_StdPeriph_Driver\src/stm32f10x_dma.c ****   {
 536:.\stlib\STM32F10x_StdPeriph_Driver\src/stm32f10x_dma.c ****     /* Clear the selected DMAy flags */
 537:.\stlib\STM32F10x_StdPeriph_Driver\src/stm32f10x_dma.c ****     DMA1->IFCR = DMAy_FLAG;
ARM GAS  C:\Users\skey\AppData\Local\Temp\ccsfckNU.s 			page 24


 716              		.loc 1 537 5 is_stmt 1 view .LVU183
 717              	@ .\stlib\STM32F10x_StdPeriph_Driver\src\stm32f10x_dma.c:537:     DMA1->IFCR = DMAy_FLAG;
 718              		.loc 1 537 16 is_stmt 0 view .LVU184
 719 019e 024B     		ldrpl	r3, .L44+4	@ tmp114,
 720 01a0 5860     		str	r0, [r3, #4]	@ DMAy_FLAG,
 721              	@ .\stlib\STM32F10x_StdPeriph_Driver\src\stm32f10x_dma.c:539: }
 538:.\stlib\STM32F10x_StdPeriph_Driver\src/stm32f10x_dma.c ****   }
 539:.\stlib\STM32F10x_StdPeriph_Driver\src/stm32f10x_dma.c **** }
 722              		.loc 1 539 1 view .LVU185
 723 01a2 7047     		bx	lr	@
 724              	.L45:
 725              		.align	2
 726              	.L44:
 727 01a4 00040240 		.word	1073873920
 728 01a8 00000240 		.word	1073872896
 729              		.cfi_endproc
 730              	.LFE37:
 731              		.size	DMA_ClearFlag, .-DMA_ClearFlag
 732              		.align	1
 733              		.global	DMA_GetITStatus
 734              		.syntax unified
 735              		.thumb
 736              		.thumb_func
 737              		.fpu softvfp
 738              		.type	DMA_GetITStatus, %function
 739              	DMA_GetITStatus:
 740              	.LFB41:
 741              		.cfi_startproc
 742              		@ args = 0, pretend = 0, frame = 0
 743              		@ frame_needed = 0, uses_anonymous_args = 0
 744              		@ link register save eliminated.
 745 01ac FFF7FEBF 		b	DMA_GetFlagStatus		@
 746              		.cfi_endproc
 747              	.LFE41:
 748              		.size	DMA_GetITStatus, .-DMA_GetITStatus
 749              		.align	1
 750              		.global	DMA_ClearITPendingBit
 751              		.syntax unified
 752              		.thumb
 753              		.thumb_func
 754              		.fpu softvfp
 755              		.type	DMA_ClearITPendingBit, %function
 756              	DMA_ClearITPendingBit:
 757              	.LFB43:
 758              		.cfi_startproc
 759              		@ args = 0, pretend = 0, frame = 0
 760              		@ frame_needed = 0, uses_anonymous_args = 0
 761              		@ link register save eliminated.
 762 01b0 FFF7FEBF 		b	DMA_ClearFlag		@
 763              		.cfi_endproc
 764              	.LFE43:
 765              		.size	DMA_ClearITPendingBit, .-DMA_ClearITPendingBit
 766              	.Letext0:
 767              		.file 2 "c:\\program files (x86)\\gnu tools arm embedded\\9 2019-q4-major\\arm-none-eabi\\include\
 768              		.file 3 "c:\\program files (x86)\\gnu tools arm embedded\\9 2019-q4-major\\arm-none-eabi\\include\
 769              		.file 4 ".\\stlib\\CMSIS\\CM3\\CoreSupport/core_cm3.h"
 770              		.file 5 ".\\stlib\\CMSIS\\CM3\\DeviceSupport\\ST\\STM32F10x/system_stm32f10x.h"
ARM GAS  C:\Users\skey\AppData\Local\Temp\ccsfckNU.s 			page 25


 771              		.file 6 ".\\stlib\\CMSIS\\CM3\\DeviceSupport\\ST\\STM32F10x/stm32f10x.h"
 772              		.file 7 ".\\stlib\\STM32F10x_StdPeriph_Driver\\inc/stm32f10x_dma.h"
 773              		.section	.debug_info,"",%progbits
 774              	.Ldebug_info0:
 775 0000 EB040000 		.4byte	0x4eb
 776 0004 0200     		.2byte	0x2
 777 0006 00000000 		.4byte	.Ldebug_abbrev0
 778 000a 04       		.byte	0x4
 779 000b 01       		.uleb128 0x1
 780 000c 56000000 		.4byte	.LASF56
 781 0010 0C       		.byte	0xc
 782 0011 C1010000 		.4byte	.LASF57
 783 0015 20000000 		.4byte	.LASF58
 784 0019 00000000 		.4byte	.Ltext0
 785 001d B4010000 		.4byte	.Letext0
 786 0021 00000000 		.4byte	.Ldebug_line0
 787 0025 02       		.uleb128 0x2
 788 0026 01       		.byte	0x1
 789 0027 06       		.byte	0x6
 790 0028 5E020000 		.4byte	.LASF0
 791 002c 02       		.uleb128 0x2
 792 002d 01       		.byte	0x1
 793 002e 08       		.byte	0x8
 794 002f 50020000 		.4byte	.LASF1
 795 0033 02       		.uleb128 0x2
 796 0034 02       		.byte	0x2
 797 0035 05       		.byte	0x5
 798 0036 29010000 		.4byte	.LASF2
 799 003a 03       		.uleb128 0x3
 800 003b 07010000 		.4byte	.LASF5
 801 003f 02       		.byte	0x2
 802 0040 39       		.byte	0x39
 803 0041 19       		.byte	0x19
 804 0042 46000000 		.4byte	0x46
 805 0046 02       		.uleb128 0x2
 806 0047 02       		.byte	0x2
 807 0048 07       		.byte	0x7
 808 0049 D3020000 		.4byte	.LASF3
 809 004d 02       		.uleb128 0x2
 810 004e 04       		.byte	0x4
 811 004f 05       		.byte	0x5
 812 0050 AF010000 		.4byte	.LASF4
 813 0054 03       		.uleb128 0x3
 814 0055 12010000 		.4byte	.LASF6
 815 0059 02       		.byte	0x2
 816 005a 4F       		.byte	0x4f
 817 005b 19       		.byte	0x19
 818 005c 60000000 		.4byte	0x60
 819 0060 02       		.uleb128 0x2
 820 0061 04       		.byte	0x4
 821 0062 07       		.byte	0x7
 822 0063 3B030000 		.4byte	.LASF7
 823 0067 02       		.uleb128 0x2
 824 0068 08       		.byte	0x8
 825 0069 05       		.byte	0x5
 826 006a 7B010000 		.4byte	.LASF8
 827 006e 02       		.uleb128 0x2
ARM GAS  C:\Users\skey\AppData\Local\Temp\ccsfckNU.s 			page 26


 828 006f 08       		.byte	0x8
 829 0070 07       		.byte	0x7
 830 0071 6A020000 		.4byte	.LASF9
 831 0075 04       		.uleb128 0x4
 832 0076 04       		.byte	0x4
 833 0077 05       		.byte	0x5
 834 0078 696E7400 		.ascii	"int\000"
 835 007c 05       		.uleb128 0x5
 836 007d 75000000 		.4byte	0x75
 837 0081 02       		.uleb128 0x2
 838 0082 04       		.byte	0x4
 839 0083 07       		.byte	0x7
 840 0084 91020000 		.4byte	.LASF10
 841 0088 03       		.uleb128 0x3
 842 0089 AE020000 		.4byte	.LASF11
 843 008d 03       		.byte	0x3
 844 008e 24       		.byte	0x24
 845 008f 14       		.byte	0x14
 846 0090 3A000000 		.4byte	0x3a
 847 0094 03       		.uleb128 0x3
 848 0095 88020000 		.4byte	.LASF12
 849 0099 03       		.byte	0x3
 850 009a 30       		.byte	0x30
 851 009b 14       		.byte	0x14
 852 009c 54000000 		.4byte	0x54
 853 00a0 05       		.uleb128 0x5
 854 00a1 94000000 		.4byte	0x94
 855 00a5 06       		.uleb128 0x6
 856 00a6 B7030000 		.4byte	.LASF13
 857 00aa 04       		.byte	0x4
 858 00ab CE06     		.2byte	0x6ce
 859 00ad 15       		.byte	0x15
 860 00ae 7C000000 		.4byte	0x7c
 861 00b2 01       		.byte	0x1
 862 00b3 01       		.byte	0x1
 863 00b4 07       		.uleb128 0x7
 864 00b5 10000000 		.4byte	.LASF14
 865 00b9 05       		.byte	0x5
 866 00ba 35       		.byte	0x35
 867 00bb 11       		.byte	0x11
 868 00bc 94000000 		.4byte	0x94
 869 00c0 01       		.byte	0x1
 870 00c1 01       		.byte	0x1
 871 00c2 08       		.uleb128 0x8
 872 00c3 07       		.byte	0x7
 873 00c4 01       		.byte	0x1
 874 00c5 2C000000 		.4byte	0x2c
 875 00c9 06       		.byte	0x6
 876 00ca 0702     		.2byte	0x207
 877 00cc 0E       		.byte	0xe
 878 00cd DE000000 		.4byte	0xde
 879 00d1 09       		.uleb128 0x9
 880 00d2 6D030000 		.4byte	.LASF15
 881 00d6 00       		.byte	0
 882 00d7 0A       		.uleb128 0xa
 883 00d8 53455400 		.ascii	"SET\000"
 884 00dc 01       		.byte	0x1
ARM GAS  C:\Users\skey\AppData\Local\Temp\ccsfckNU.s 			page 27


 885 00dd 00       		.byte	0
 886 00de 0B       		.uleb128 0xb
 887 00df CE030000 		.4byte	.LASF16
 888 00e3 06       		.byte	0x6
 889 00e4 0702     		.2byte	0x207
 890 00e6 28       		.byte	0x28
 891 00e7 C2000000 		.4byte	0xc2
 892 00eb 0B       		.uleb128 0xb
 893 00ec A6010000 		.4byte	.LASF17
 894 00f0 06       		.byte	0x6
 895 00f1 0702     		.2byte	0x207
 896 00f3 34       		.byte	0x34
 897 00f4 C2000000 		.4byte	0xc2
 898 00f8 08       		.uleb128 0x8
 899 00f9 07       		.byte	0x7
 900 00fa 01       		.byte	0x1
 901 00fb 2C000000 		.4byte	0x2c
 902 00ff 06       		.byte	0x6
 903 0100 0902     		.2byte	0x209
 904 0102 0E       		.byte	0xe
 905 0103 14010000 		.4byte	0x114
 906 0107 09       		.uleb128 0x9
 907 0108 65010000 		.4byte	.LASF18
 908 010c 00       		.byte	0
 909 010d 09       		.uleb128 0x9
 910 010e D9030000 		.4byte	.LASF19
 911 0112 01       		.byte	0x1
 912 0113 00       		.byte	0
 913 0114 0B       		.uleb128 0xb
 914 0115 4D030000 		.4byte	.LASF20
 915 0119 06       		.byte	0x6
 916 011a 0902     		.2byte	0x209
 917 011c 2F       		.byte	0x2f
 918 011d F8000000 		.4byte	0xf8
 919 0121 0C       		.uleb128 0xc
 920 0122 10       		.byte	0x10
 921 0123 06       		.byte	0x6
 922 0124 1E03     		.2byte	0x31e
 923 0126 09       		.byte	0x9
 924 0127 6C010000 		.4byte	0x16c
 925 012b 0D       		.uleb128 0xd
 926 012c 43435200 		.ascii	"CCR\000"
 927 0130 06       		.byte	0x6
 928 0131 2003     		.2byte	0x320
 929 0133 11       		.byte	0x11
 930 0134 A0000000 		.4byte	0xa0
 931 0138 02       		.byte	0x2
 932 0139 23       		.byte	0x23
 933 013a 00       		.uleb128 0
 934 013b 0E       		.uleb128 0xe
 935 013c FA020000 		.4byte	.LASF21
 936 0140 06       		.byte	0x6
 937 0141 2103     		.2byte	0x321
 938 0143 11       		.byte	0x11
 939 0144 A0000000 		.4byte	0xa0
 940 0148 02       		.byte	0x2
 941 0149 23       		.byte	0x23
ARM GAS  C:\Users\skey\AppData\Local\Temp\ccsfckNU.s 			page 28


 942 014a 04       		.uleb128 0x4
 943 014b 0E       		.uleb128 0xe
 944 014c 24020000 		.4byte	.LASF22
 945 0150 06       		.byte	0x6
 946 0151 2203     		.2byte	0x322
 947 0153 11       		.byte	0x11
 948 0154 A0000000 		.4byte	0xa0
 949 0158 02       		.byte	0x2
 950 0159 23       		.byte	0x23
 951 015a 08       		.uleb128 0x8
 952 015b 0E       		.uleb128 0xe
 953 015c 5D030000 		.4byte	.LASF23
 954 0160 06       		.byte	0x6
 955 0161 2303     		.2byte	0x323
 956 0163 11       		.byte	0x11
 957 0164 A0000000 		.4byte	0xa0
 958 0168 02       		.byte	0x2
 959 0169 23       		.byte	0x23
 960 016a 0C       		.uleb128 0xc
 961 016b 00       		.byte	0
 962 016c 0B       		.uleb128 0xb
 963 016d E6020000 		.4byte	.LASF24
 964 0171 06       		.byte	0x6
 965 0172 2403     		.2byte	0x324
 966 0174 03       		.byte	0x3
 967 0175 21010000 		.4byte	0x121
 968 0179 0C       		.uleb128 0xc
 969 017a 08       		.byte	0x8
 970 017b 06       		.byte	0x6
 971 017c 2603     		.2byte	0x326
 972 017e 09       		.byte	0x9
 973 017f A4010000 		.4byte	0x1a4
 974 0183 0D       		.uleb128 0xd
 975 0184 49535200 		.ascii	"ISR\000"
 976 0188 06       		.byte	0x6
 977 0189 2803     		.2byte	0x328
 978 018b 11       		.byte	0x11
 979 018c A0000000 		.4byte	0xa0
 980 0190 02       		.byte	0x2
 981 0191 23       		.byte	0x23
 982 0192 00       		.uleb128 0
 983 0193 0E       		.uleb128 0xe
 984 0194 24030000 		.4byte	.LASF25
 985 0198 06       		.byte	0x6
 986 0199 2903     		.2byte	0x329
 987 019b 11       		.byte	0x11
 988 019c A0000000 		.4byte	0xa0
 989 01a0 02       		.byte	0x2
 990 01a1 23       		.byte	0x23
 991 01a2 04       		.uleb128 0x4
 992 01a3 00       		.byte	0
 993 01a4 0B       		.uleb128 0xb
 994 01a5 1D010000 		.4byte	.LASF26
 995 01a9 06       		.byte	0x6
 996 01aa 2A03     		.2byte	0x32a
 997 01ac 03       		.byte	0x3
 998 01ad 79010000 		.4byte	0x179
ARM GAS  C:\Users\skey\AppData\Local\Temp\ccsfckNU.s 			page 29


 999 01b1 0F       		.uleb128 0xf
 1000 01b2 2C       		.byte	0x2c
 1001 01b3 07       		.byte	0x7
 1002 01b4 32       		.byte	0x32
 1003 01b5 09       		.byte	0x9
 1004 01b6 60020000 		.4byte	0x260
 1005 01ba 10       		.uleb128 0x10
 1006 01bb 4E010000 		.4byte	.LASF27
 1007 01bf 07       		.byte	0x7
 1008 01c0 34       		.byte	0x34
 1009 01c1 0C       		.byte	0xc
 1010 01c2 94000000 		.4byte	0x94
 1011 01c6 02       		.byte	0x2
 1012 01c7 23       		.byte	0x23
 1013 01c8 00       		.uleb128 0
 1014 01c9 10       		.uleb128 0x10
 1015 01ca 43000000 		.4byte	.LASF28
 1016 01ce 07       		.byte	0x7
 1017 01cf 36       		.byte	0x36
 1018 01d0 0C       		.byte	0xc
 1019 01d1 94000000 		.4byte	0x94
 1020 01d5 02       		.byte	0x2
 1021 01d6 23       		.byte	0x23
 1022 01d7 04       		.uleb128 0x4
 1023 01d8 10       		.uleb128 0x10
 1024 01d9 33010000 		.4byte	.LASF29
 1025 01dd 07       		.byte	0x7
 1026 01de 38       		.byte	0x38
 1027 01df 0C       		.byte	0xc
 1028 01e0 94000000 		.4byte	0x94
 1029 01e4 02       		.byte	0x2
 1030 01e5 23       		.byte	0x23
 1031 01e6 08       		.uleb128 0x8
 1032 01e7 10       		.uleb128 0x10
 1033 01e8 73030000 		.4byte	.LASF30
 1034 01ec 07       		.byte	0x7
 1035 01ed 3B       		.byte	0x3b
 1036 01ee 0C       		.byte	0xc
 1037 01ef 94000000 		.4byte	0x94
 1038 01f3 02       		.byte	0x2
 1039 01f4 23       		.byte	0x23
 1040 01f5 0C       		.uleb128 0xc
 1041 01f6 10       		.uleb128 0x10
 1042 01f7 89010000 		.4byte	.LASF31
 1043 01fb 07       		.byte	0x7
 1044 01fc 3F       		.byte	0x3f
 1045 01fd 0C       		.byte	0xc
 1046 01fe 94000000 		.4byte	0x94
 1047 0202 02       		.byte	0x2
 1048 0203 23       		.byte	0x23
 1049 0204 10       		.uleb128 0x10
 1050 0205 10       		.uleb128 0x10
 1051 0206 6D010000 		.4byte	.LASF32
 1052 020a 07       		.byte	0x7
 1053 020b 42       		.byte	0x42
 1054 020c 0C       		.byte	0xc
 1055 020d 94000000 		.4byte	0x94
ARM GAS  C:\Users\skey\AppData\Local\Temp\ccsfckNU.s 			page 30


 1056 0211 02       		.byte	0x2
 1057 0212 23       		.byte	0x23
 1058 0213 14       		.uleb128 0x14
 1059 0214 10       		.uleb128 0x10
 1060 0215 29020000 		.4byte	.LASF33
 1061 0219 07       		.byte	0x7
 1062 021a 45       		.byte	0x45
 1063 021b 0C       		.byte	0xc
 1064 021c 94000000 		.4byte	0x94
 1065 0220 02       		.byte	0x2
 1066 0221 23       		.byte	0x23
 1067 0222 18       		.uleb128 0x18
 1068 0223 10       		.uleb128 0x10
 1069 0224 E0030000 		.4byte	.LASF34
 1070 0228 07       		.byte	0x7
 1071 0229 48       		.byte	0x48
 1072 022a 0C       		.byte	0xc
 1073 022b 94000000 		.4byte	0x94
 1074 022f 02       		.byte	0x2
 1075 0230 23       		.byte	0x23
 1076 0231 1C       		.uleb128 0x1c
 1077 0232 10       		.uleb128 0x10
 1078 0233 8A030000 		.4byte	.LASF35
 1079 0237 07       		.byte	0x7
 1080 0238 4B       		.byte	0x4b
 1081 0239 0C       		.byte	0xc
 1082 023a 94000000 		.4byte	0x94
 1083 023e 02       		.byte	0x2
 1084 023f 23       		.byte	0x23
 1085 0240 20       		.uleb128 0x20
 1086 0241 10       		.uleb128 0x10
 1087 0242 C6020000 		.4byte	.LASF36
 1088 0246 07       		.byte	0x7
 1089 0247 50       		.byte	0x50
 1090 0248 0C       		.byte	0xc
 1091 0249 94000000 		.4byte	0x94
 1092 024d 02       		.byte	0x2
 1093 024e 23       		.byte	0x23
 1094 024f 24       		.uleb128 0x24
 1095 0250 10       		.uleb128 0x10
 1096 0251 08000000 		.4byte	.LASF37
 1097 0255 07       		.byte	0x7
 1098 0256 53       		.byte	0x53
 1099 0257 0C       		.byte	0xc
 1100 0258 94000000 		.4byte	0x94
 1101 025c 02       		.byte	0x2
 1102 025d 23       		.byte	0x23
 1103 025e 28       		.uleb128 0x28
 1104 025f 00       		.byte	0
 1105 0260 03       		.uleb128 0x3
 1106 0261 40020000 		.4byte	.LASF38
 1107 0265 07       		.byte	0x7
 1108 0266 55       		.byte	0x55
 1109 0267 02       		.byte	0x2
 1110 0268 B1010000 		.4byte	0x1b1
 1111 026c 11       		.uleb128 0x11
 1112 026d 01       		.byte	0x1
ARM GAS  C:\Users\skey\AppData\Local\Temp\ccsfckNU.s 			page 31


 1113 026e 0E030000 		.4byte	.LASF59
 1114 0272 01       		.byte	0x1
 1115 0273 AC02     		.2byte	0x2ac
 1116 0275 06       		.byte	0x6
 1117 0276 01       		.byte	0x1
 1118 0277 89020000 		.4byte	0x289
 1119 027b 12       		.uleb128 0x12
 1120 027c 82030000 		.4byte	.LASF39
 1121 0280 01       		.byte	0x1
 1122 0281 AC02     		.2byte	0x2ac
 1123 0283 25       		.byte	0x25
 1124 0284 94000000 		.4byte	0x94
 1125 0288 00       		.byte	0
 1126 0289 13       		.uleb128 0x13
 1127 028a 01       		.byte	0x1
 1128 028b 9E020000 		.4byte	.LASF60
 1129 028f 01       		.byte	0x1
 1130 0290 5302     		.2byte	0x253
 1131 0292 0A       		.byte	0xa
 1132 0293 01       		.byte	0x1
 1133 0294 EB000000 		.4byte	0xeb
 1134 0298 C4020000 		.4byte	0x2c4
 1135 029c 12       		.uleb128 0x12
 1136 029d 82030000 		.4byte	.LASF39
 1137 02a1 01       		.byte	0x1
 1138 02a2 5302     		.2byte	0x253
 1139 02a4 23       		.byte	0x23
 1140 02a5 94000000 		.4byte	0x94
 1141 02a9 14       		.uleb128 0x14
 1142 02aa C4030000 		.4byte	.LASF40
 1143 02ae 01       		.byte	0x1
 1144 02af 5502     		.2byte	0x255
 1145 02b1 0C       		.byte	0xc
 1146 02b2 EB000000 		.4byte	0xeb
 1147 02b6 14       		.uleb128 0x14
 1148 02b7 1D020000 		.4byte	.LASF41
 1149 02bb 01       		.byte	0x1
 1150 02bc 5602     		.2byte	0x256
 1151 02be 0C       		.byte	0xc
 1152 02bf 94000000 		.4byte	0x94
 1153 02c3 00       		.byte	0
 1154 02c4 15       		.uleb128 0x15
 1155 02c5 01       		.byte	0x1
 1156 02c6 F8010000 		.4byte	.LASF46
 1157 02ca 01       		.byte	0x1
 1158 02cb 0B02     		.2byte	0x20b
 1159 02cd 06       		.byte	0x6
 1160 02ce 01       		.byte	0x1
 1161 02cf 98010000 		.4byte	.LFB37
 1162 02d3 AC010000 		.4byte	.LFE37
 1163 02d7 02       		.byte	0x2
 1164 02d8 7D       		.byte	0x7d
 1165 02d9 00       		.sleb128 0
 1166 02da 01       		.byte	0x1
 1167 02db EF020000 		.4byte	0x2ef
 1168 02df 16       		.uleb128 0x16
 1169 02e0 3B010000 		.4byte	.LASF44
ARM GAS  C:\Users\skey\AppData\Local\Temp\ccsfckNU.s 			page 32


 1170 02e4 01       		.byte	0x1
 1171 02e5 0B02     		.2byte	0x20b
 1172 02e7 1D       		.byte	0x1d
 1173 02e8 94000000 		.4byte	0x94
 1174 02ec 01       		.byte	0x1
 1175 02ed 50       		.byte	0x50
 1176 02ee 00       		.byte	0
 1177 02ef 17       		.uleb128 0x17
 1178 02f0 01       		.byte	0x1
 1179 02f1 29030000 		.4byte	.LASF42
 1180 02f5 01       		.byte	0x1
 1181 02f6 B101     		.2byte	0x1b1
 1182 02f8 0C       		.byte	0xc
 1183 02f9 01       		.byte	0x1
 1184 02fa DE000000 		.4byte	0xde
 1185 02fe 7A010000 		.4byte	.LFB36
 1186 0302 98010000 		.4byte	.LFE36
 1187 0306 02       		.byte	0x2
 1188 0307 7D       		.byte	0x7d
 1189 0308 00       		.sleb128 0
 1190 0309 01       		.byte	0x1
 1191 030a 4E030000 		.4byte	0x34e
 1192 030e 18       		.uleb128 0x18
 1193 030f 3B010000 		.4byte	.LASF44
 1194 0313 01       		.byte	0x1
 1195 0314 B101     		.2byte	0x1b1
 1196 0316 27       		.byte	0x27
 1197 0317 94000000 		.4byte	0x94
 1198 031b 04000000 		.4byte	.LLST4
 1199 031f 00000000 		.4byte	.LVUS4
 1200 0323 19       		.uleb128 0x19
 1201 0324 C4030000 		.4byte	.LASF40
 1202 0328 01       		.byte	0x1
 1203 0329 B301     		.2byte	0x1b3
 1204 032b 0E       		.byte	0xe
 1205 032c DE000000 		.4byte	0xde
 1206 0330 2B000000 		.4byte	.LLST5
 1207 0334 25000000 		.4byte	.LVUS5
 1208 0338 19       		.uleb128 0x19
 1209 0339 1D020000 		.4byte	.LASF41
 1210 033d 01       		.byte	0x1
 1211 033e B401     		.2byte	0x1b4
 1212 0340 0C       		.byte	0xc
 1213 0341 94000000 		.4byte	0x94
 1214 0345 68000000 		.4byte	.LLST6
 1215 0349 64000000 		.4byte	.LVUS6
 1216 034d 00       		.byte	0
 1217 034e 17       		.uleb128 0x17
 1218 034f 01       		.byte	0x1
 1219 0350 93030000 		.4byte	.LASF43
 1220 0354 01       		.byte	0x1
 1221 0355 7301     		.2byte	0x173
 1222 0357 0A       		.byte	0xa
 1223 0358 01       		.byte	0x1
 1224 0359 88000000 		.4byte	0x88
 1225 035d 74010000 		.4byte	.LFB35
 1226 0361 7A010000 		.4byte	.LFE35
ARM GAS  C:\Users\skey\AppData\Local\Temp\ccsfckNU.s 			page 33


 1227 0365 02       		.byte	0x2
 1228 0366 7D       		.byte	0x7d
 1229 0367 00       		.sleb128 0
 1230 0368 01       		.byte	0x1
 1231 0369 83030000 		.4byte	0x383
 1232 036d 18       		.uleb128 0x18
 1233 036e 00030000 		.4byte	.LASF45
 1234 0372 01       		.byte	0x1
 1235 0373 7301     		.2byte	0x173
 1236 0375 36       		.byte	0x36
 1237 0376 83030000 		.4byte	0x383
 1238 037a 8B000000 		.4byte	.LLST3
 1239 037e 87000000 		.4byte	.LVUS3
 1240 0382 00       		.byte	0
 1241 0383 1A       		.uleb128 0x1a
 1242 0384 04       		.byte	0x4
 1243 0385 6C010000 		.4byte	0x16c
 1244 0389 15       		.uleb128 0x15
 1245 038a 01       		.byte	0x1
 1246 038b 06020000 		.4byte	.LASF47
 1247 038f 01       		.byte	0x1
 1248 0390 6101     		.2byte	0x161
 1249 0392 06       		.byte	0x6
 1250 0393 01       		.byte	0x1
 1251 0394 70010000 		.4byte	.LFB34
 1252 0398 74010000 		.4byte	.LFE34
 1253 039c 02       		.byte	0x2
 1254 039d 7D       		.byte	0x7d
 1255 039e 00       		.sleb128 0
 1256 039f 01       		.byte	0x1
 1257 03a0 C3030000 		.4byte	0x3c3
 1258 03a4 16       		.uleb128 0x16
 1259 03a5 00030000 		.4byte	.LASF45
 1260 03a9 01       		.byte	0x1
 1261 03aa 6101     		.2byte	0x161
 1262 03ac 32       		.byte	0x32
 1263 03ad 83030000 		.4byte	0x383
 1264 03b1 01       		.byte	0x1
 1265 03b2 50       		.byte	0x50
 1266 03b3 16       		.uleb128 0x16
 1267 03b4 9B010000 		.4byte	.LASF48
 1268 03b8 01       		.byte	0x1
 1269 03b9 6101     		.2byte	0x161
 1270 03bb 4A       		.byte	0x4a
 1271 03bc 88000000 		.4byte	0x88
 1272 03c0 01       		.byte	0x1
 1273 03c1 51       		.byte	0x51
 1274 03c2 00       		.byte	0
 1275 03c3 15       		.uleb128 0x15
 1276 03c4 01       		.byte	0x1
 1277 03c5 AA030000 		.4byte	.LASF49
 1278 03c9 01       		.byte	0x1
 1279 03ca 4601     		.2byte	0x146
 1280 03cc 06       		.byte	0x6
 1281 03cd 01       		.byte	0x1
 1282 03ce 60010000 		.4byte	.LFB33
 1283 03d2 70010000 		.4byte	.LFE33
ARM GAS  C:\Users\skey\AppData\Local\Temp\ccsfckNU.s 			page 34


 1284 03d6 02       		.byte	0x2
 1285 03d7 7D       		.byte	0x7d
 1286 03d8 00       		.sleb128 0
 1287 03d9 01       		.byte	0x1
 1288 03da 12040000 		.4byte	0x412
 1289 03de 16       		.uleb128 0x16
 1290 03df 00030000 		.4byte	.LASF45
 1291 03e3 01       		.byte	0x1
 1292 03e4 4601     		.2byte	0x146
 1293 03e6 28       		.byte	0x28
 1294 03e7 83030000 		.4byte	0x383
 1295 03eb 01       		.byte	0x1
 1296 03ec 50       		.byte	0x50
 1297 03ed 18       		.uleb128 0x18
 1298 03ee 81020000 		.4byte	.LASF50
 1299 03f2 01       		.byte	0x1
 1300 03f3 4601     		.2byte	0x146
 1301 03f5 40       		.byte	0x40
 1302 03f6 94000000 		.4byte	0x94
 1303 03fa B4000000 		.4byte	.LLST2
 1304 03fe AC000000 		.4byte	.LVUS2
 1305 0402 16       		.uleb128 0x16
 1306 0403 45010000 		.4byte	.LASF51
 1307 0407 01       		.byte	0x1
 1308 0408 4601     		.2byte	0x146
 1309 040a 58       		.byte	0x58
 1310 040b 14010000 		.4byte	0x114
 1311 040f 01       		.byte	0x1
 1312 0410 52       		.byte	0x52
 1313 0411 00       		.byte	0
 1314 0412 15       		.uleb128 0x15
 1315 0413 01       		.byte	0x1
 1316 0414 00000000 		.4byte	.LASF52
 1317 0418 01       		.byte	0x1
 1318 0419 2601     		.2byte	0x126
 1319 041b 06       		.byte	0x6
 1320 041c 01       		.byte	0x1
 1321 041d 4A010000 		.4byte	.LFB32
 1322 0421 60010000 		.4byte	.LFE32
 1323 0425 02       		.byte	0x2
 1324 0426 7D       		.byte	0x7d
 1325 0427 00       		.sleb128 0
 1326 0428 01       		.byte	0x1
 1327 0429 4C040000 		.4byte	0x44c
 1328 042d 16       		.uleb128 0x16
 1329 042e 00030000 		.4byte	.LASF45
 1330 0432 01       		.byte	0x1
 1331 0433 2601     		.2byte	0x126
 1332 0435 23       		.byte	0x23
 1333 0436 83030000 		.4byte	0x383
 1334 043a 01       		.byte	0x1
 1335 043b 50       		.byte	0x50
 1336 043c 16       		.uleb128 0x16
 1337 043d 45010000 		.4byte	.LASF51
 1338 0441 01       		.byte	0x1
 1339 0442 2601     		.2byte	0x126
 1340 0444 42       		.byte	0x42
ARM GAS  C:\Users\skey\AppData\Local\Temp\ccsfckNU.s 			page 35


 1341 0445 14010000 		.4byte	0x114
 1342 0449 01       		.byte	0x1
 1343 044a 51       		.byte	0x51
 1344 044b 00       		.byte	0
 1345 044c 15       		.uleb128 0x15
 1346 044d 01       		.byte	0x1
 1347 044e F8000000 		.4byte	.LASF53
 1348 0452 01       		.byte	0x1
 1349 0453 0301     		.2byte	0x103
 1350 0455 06       		.byte	0x6
 1351 0456 01       		.byte	0x1
 1352 0457 30010000 		.4byte	.LFB31
 1353 045b 4A010000 		.4byte	.LFE31
 1354 045f 02       		.byte	0x2
 1355 0460 7D       		.byte	0x7d
 1356 0461 00       		.sleb128 0
 1357 0462 01       		.byte	0x1
 1358 0463 77040000 		.4byte	0x477
 1359 0467 16       		.uleb128 0x16
 1360 0468 B7020000 		.4byte	.LASF54
 1361 046c 01       		.byte	0x1
 1362 046d 0301     		.2byte	0x103
 1363 046f 26       		.byte	0x26
 1364 0470 77040000 		.4byte	0x477
 1365 0474 01       		.byte	0x1
 1366 0475 50       		.byte	0x50
 1367 0476 00       		.byte	0
 1368 0477 1A       		.uleb128 0x1a
 1369 0478 04       		.byte	0x4
 1370 0479 60020000 		.4byte	0x260
 1371 047d 1B       		.uleb128 0x1b
 1372 047e 01       		.byte	0x1
 1373 047f B8010000 		.4byte	.LASF55
 1374 0483 01       		.byte	0x1
 1375 0484 CA       		.byte	0xca
 1376 0485 06       		.byte	0x6
 1377 0486 01       		.byte	0x1
 1378 0487 F4000000 		.4byte	.LFB30
 1379 048b 30010000 		.4byte	.LFE30
 1380 048f EE000000 		.4byte	.LLST0
 1381 0493 01       		.byte	0x1
 1382 0494 C9040000 		.4byte	0x4c9
 1383 0498 1C       		.uleb128 0x1c
 1384 0499 00030000 		.4byte	.LASF45
 1385 049d 01       		.byte	0x1
 1386 049e CA       		.byte	0xca
 1387 049f 24       		.byte	0x24
 1388 04a0 83030000 		.4byte	0x383
 1389 04a4 01       		.byte	0x1
 1390 04a5 50       		.byte	0x50
 1391 04a6 1C       		.uleb128 0x1c
 1392 04a7 B7020000 		.4byte	.LASF54
 1393 04ab 01       		.byte	0x1
 1394 04ac CA       		.byte	0xca
 1395 04ad 44       		.byte	0x44
 1396 04ae 77040000 		.4byte	0x477
 1397 04b2 01       		.byte	0x1
ARM GAS  C:\Users\skey\AppData\Local\Temp\ccsfckNU.s 			page 36


 1398 04b3 51       		.byte	0x51
 1399 04b4 1D       		.uleb128 0x1d
 1400 04b5 1D020000 		.4byte	.LASF41
 1401 04b9 01       		.byte	0x1
 1402 04ba CC       		.byte	0xcc
 1403 04bb 0C       		.byte	0xc
 1404 04bc 94000000 		.4byte	0x94
 1405 04c0 1A010000 		.4byte	.LLST1
 1406 04c4 0E010000 		.4byte	.LVUS1
 1407 04c8 00       		.byte	0
 1408 04c9 1E       		.uleb128 0x1e
 1409 04ca 01       		.byte	0x1
 1410 04cb 62030000 		.4byte	.LASF61
 1411 04cf 01       		.byte	0x1
 1412 04d0 6C       		.byte	0x6c
 1413 04d1 06       		.byte	0x6
 1414 04d2 01       		.byte	0x1
 1415 04d3 00000000 		.4byte	.LFB29
 1416 04d7 F4000000 		.4byte	.LFE29
 1417 04db 02       		.byte	0x2
 1418 04dc 7D       		.byte	0x7d
 1419 04dd 00       		.sleb128 0
 1420 04de 01       		.byte	0x1
 1421 04df 1C       		.uleb128 0x1c
 1422 04e0 00030000 		.4byte	.LASF45
 1423 04e4 01       		.byte	0x1
 1424 04e5 6C       		.byte	0x6c
 1425 04e6 26       		.byte	0x26
 1426 04e7 83030000 		.4byte	0x383
 1427 04eb 01       		.byte	0x1
 1428 04ec 50       		.byte	0x50
 1429 04ed 00       		.byte	0
 1430 04ee 00       		.byte	0
 1431              		.section	.debug_abbrev,"",%progbits
 1432              	.Ldebug_abbrev0:
 1433 0000 01       		.uleb128 0x1
 1434 0001 11       		.uleb128 0x11
 1435 0002 01       		.byte	0x1
 1436 0003 25       		.uleb128 0x25
 1437 0004 0E       		.uleb128 0xe
 1438 0005 13       		.uleb128 0x13
 1439 0006 0B       		.uleb128 0xb
 1440 0007 03       		.uleb128 0x3
 1441 0008 0E       		.uleb128 0xe
 1442 0009 1B       		.uleb128 0x1b
 1443 000a 0E       		.uleb128 0xe
 1444 000b 11       		.uleb128 0x11
 1445 000c 01       		.uleb128 0x1
 1446 000d 12       		.uleb128 0x12
 1447 000e 01       		.uleb128 0x1
 1448 000f 10       		.uleb128 0x10
 1449 0010 06       		.uleb128 0x6
 1450 0011 00       		.byte	0
 1451 0012 00       		.byte	0
 1452 0013 02       		.uleb128 0x2
 1453 0014 24       		.uleb128 0x24
 1454 0015 00       		.byte	0
ARM GAS  C:\Users\skey\AppData\Local\Temp\ccsfckNU.s 			page 37


 1455 0016 0B       		.uleb128 0xb
 1456 0017 0B       		.uleb128 0xb
 1457 0018 3E       		.uleb128 0x3e
 1458 0019 0B       		.uleb128 0xb
 1459 001a 03       		.uleb128 0x3
 1460 001b 0E       		.uleb128 0xe
 1461 001c 00       		.byte	0
 1462 001d 00       		.byte	0
 1463 001e 03       		.uleb128 0x3
 1464 001f 16       		.uleb128 0x16
 1465 0020 00       		.byte	0
 1466 0021 03       		.uleb128 0x3
 1467 0022 0E       		.uleb128 0xe
 1468 0023 3A       		.uleb128 0x3a
 1469 0024 0B       		.uleb128 0xb
 1470 0025 3B       		.uleb128 0x3b
 1471 0026 0B       		.uleb128 0xb
 1472 0027 39       		.uleb128 0x39
 1473 0028 0B       		.uleb128 0xb
 1474 0029 49       		.uleb128 0x49
 1475 002a 13       		.uleb128 0x13
 1476 002b 00       		.byte	0
 1477 002c 00       		.byte	0
 1478 002d 04       		.uleb128 0x4
 1479 002e 24       		.uleb128 0x24
 1480 002f 00       		.byte	0
 1481 0030 0B       		.uleb128 0xb
 1482 0031 0B       		.uleb128 0xb
 1483 0032 3E       		.uleb128 0x3e
 1484 0033 0B       		.uleb128 0xb
 1485 0034 03       		.uleb128 0x3
 1486 0035 08       		.uleb128 0x8
 1487 0036 00       		.byte	0
 1488 0037 00       		.byte	0
 1489 0038 05       		.uleb128 0x5
 1490 0039 35       		.uleb128 0x35
 1491 003a 00       		.byte	0
 1492 003b 49       		.uleb128 0x49
 1493 003c 13       		.uleb128 0x13
 1494 003d 00       		.byte	0
 1495 003e 00       		.byte	0
 1496 003f 06       		.uleb128 0x6
 1497 0040 34       		.uleb128 0x34
 1498 0041 00       		.byte	0
 1499 0042 03       		.uleb128 0x3
 1500 0043 0E       		.uleb128 0xe
 1501 0044 3A       		.uleb128 0x3a
 1502 0045 0B       		.uleb128 0xb
 1503 0046 3B       		.uleb128 0x3b
 1504 0047 05       		.uleb128 0x5
 1505 0048 39       		.uleb128 0x39
 1506 0049 0B       		.uleb128 0xb
 1507 004a 49       		.uleb128 0x49
 1508 004b 13       		.uleb128 0x13
 1509 004c 3F       		.uleb128 0x3f
 1510 004d 0C       		.uleb128 0xc
 1511 004e 3C       		.uleb128 0x3c
ARM GAS  C:\Users\skey\AppData\Local\Temp\ccsfckNU.s 			page 38


 1512 004f 0C       		.uleb128 0xc
 1513 0050 00       		.byte	0
 1514 0051 00       		.byte	0
 1515 0052 07       		.uleb128 0x7
 1516 0053 34       		.uleb128 0x34
 1517 0054 00       		.byte	0
 1518 0055 03       		.uleb128 0x3
 1519 0056 0E       		.uleb128 0xe
 1520 0057 3A       		.uleb128 0x3a
 1521 0058 0B       		.uleb128 0xb
 1522 0059 3B       		.uleb128 0x3b
 1523 005a 0B       		.uleb128 0xb
 1524 005b 39       		.uleb128 0x39
 1525 005c 0B       		.uleb128 0xb
 1526 005d 49       		.uleb128 0x49
 1527 005e 13       		.uleb128 0x13
 1528 005f 3F       		.uleb128 0x3f
 1529 0060 0C       		.uleb128 0xc
 1530 0061 3C       		.uleb128 0x3c
 1531 0062 0C       		.uleb128 0xc
 1532 0063 00       		.byte	0
 1533 0064 00       		.byte	0
 1534 0065 08       		.uleb128 0x8
 1535 0066 04       		.uleb128 0x4
 1536 0067 01       		.byte	0x1
 1537 0068 3E       		.uleb128 0x3e
 1538 0069 0B       		.uleb128 0xb
 1539 006a 0B       		.uleb128 0xb
 1540 006b 0B       		.uleb128 0xb
 1541 006c 49       		.uleb128 0x49
 1542 006d 13       		.uleb128 0x13
 1543 006e 3A       		.uleb128 0x3a
 1544 006f 0B       		.uleb128 0xb
 1545 0070 3B       		.uleb128 0x3b
 1546 0071 05       		.uleb128 0x5
 1547 0072 39       		.uleb128 0x39
 1548 0073 0B       		.uleb128 0xb
 1549 0074 01       		.uleb128 0x1
 1550 0075 13       		.uleb128 0x13
 1551 0076 00       		.byte	0
 1552 0077 00       		.byte	0
 1553 0078 09       		.uleb128 0x9
 1554 0079 28       		.uleb128 0x28
 1555 007a 00       		.byte	0
 1556 007b 03       		.uleb128 0x3
 1557 007c 0E       		.uleb128 0xe
 1558 007d 1C       		.uleb128 0x1c
 1559 007e 0B       		.uleb128 0xb
 1560 007f 00       		.byte	0
 1561 0080 00       		.byte	0
 1562 0081 0A       		.uleb128 0xa
 1563 0082 28       		.uleb128 0x28
 1564 0083 00       		.byte	0
 1565 0084 03       		.uleb128 0x3
 1566 0085 08       		.uleb128 0x8
 1567 0086 1C       		.uleb128 0x1c
 1568 0087 0B       		.uleb128 0xb
ARM GAS  C:\Users\skey\AppData\Local\Temp\ccsfckNU.s 			page 39


 1569 0088 00       		.byte	0
 1570 0089 00       		.byte	0
 1571 008a 0B       		.uleb128 0xb
 1572 008b 16       		.uleb128 0x16
 1573 008c 00       		.byte	0
 1574 008d 03       		.uleb128 0x3
 1575 008e 0E       		.uleb128 0xe
 1576 008f 3A       		.uleb128 0x3a
 1577 0090 0B       		.uleb128 0xb
 1578 0091 3B       		.uleb128 0x3b
 1579 0092 05       		.uleb128 0x5
 1580 0093 39       		.uleb128 0x39
 1581 0094 0B       		.uleb128 0xb
 1582 0095 49       		.uleb128 0x49
 1583 0096 13       		.uleb128 0x13
 1584 0097 00       		.byte	0
 1585 0098 00       		.byte	0
 1586 0099 0C       		.uleb128 0xc
 1587 009a 13       		.uleb128 0x13
 1588 009b 01       		.byte	0x1
 1589 009c 0B       		.uleb128 0xb
 1590 009d 0B       		.uleb128 0xb
 1591 009e 3A       		.uleb128 0x3a
 1592 009f 0B       		.uleb128 0xb
 1593 00a0 3B       		.uleb128 0x3b
 1594 00a1 05       		.uleb128 0x5
 1595 00a2 39       		.uleb128 0x39
 1596 00a3 0B       		.uleb128 0xb
 1597 00a4 01       		.uleb128 0x1
 1598 00a5 13       		.uleb128 0x13
 1599 00a6 00       		.byte	0
 1600 00a7 00       		.byte	0
 1601 00a8 0D       		.uleb128 0xd
 1602 00a9 0D       		.uleb128 0xd
 1603 00aa 00       		.byte	0
 1604 00ab 03       		.uleb128 0x3
 1605 00ac 08       		.uleb128 0x8
 1606 00ad 3A       		.uleb128 0x3a
 1607 00ae 0B       		.uleb128 0xb
 1608 00af 3B       		.uleb128 0x3b
 1609 00b0 05       		.uleb128 0x5
 1610 00b1 39       		.uleb128 0x39
 1611 00b2 0B       		.uleb128 0xb
 1612 00b3 49       		.uleb128 0x49
 1613 00b4 13       		.uleb128 0x13
 1614 00b5 38       		.uleb128 0x38
 1615 00b6 0A       		.uleb128 0xa
 1616 00b7 00       		.byte	0
 1617 00b8 00       		.byte	0
 1618 00b9 0E       		.uleb128 0xe
 1619 00ba 0D       		.uleb128 0xd
 1620 00bb 00       		.byte	0
 1621 00bc 03       		.uleb128 0x3
 1622 00bd 0E       		.uleb128 0xe
 1623 00be 3A       		.uleb128 0x3a
 1624 00bf 0B       		.uleb128 0xb
 1625 00c0 3B       		.uleb128 0x3b
ARM GAS  C:\Users\skey\AppData\Local\Temp\ccsfckNU.s 			page 40


 1626 00c1 05       		.uleb128 0x5
 1627 00c2 39       		.uleb128 0x39
 1628 00c3 0B       		.uleb128 0xb
 1629 00c4 49       		.uleb128 0x49
 1630 00c5 13       		.uleb128 0x13
 1631 00c6 38       		.uleb128 0x38
 1632 00c7 0A       		.uleb128 0xa
 1633 00c8 00       		.byte	0
 1634 00c9 00       		.byte	0
 1635 00ca 0F       		.uleb128 0xf
 1636 00cb 13       		.uleb128 0x13
 1637 00cc 01       		.byte	0x1
 1638 00cd 0B       		.uleb128 0xb
 1639 00ce 0B       		.uleb128 0xb
 1640 00cf 3A       		.uleb128 0x3a
 1641 00d0 0B       		.uleb128 0xb
 1642 00d1 3B       		.uleb128 0x3b
 1643 00d2 0B       		.uleb128 0xb
 1644 00d3 39       		.uleb128 0x39
 1645 00d4 0B       		.uleb128 0xb
 1646 00d5 01       		.uleb128 0x1
 1647 00d6 13       		.uleb128 0x13
 1648 00d7 00       		.byte	0
 1649 00d8 00       		.byte	0
 1650 00d9 10       		.uleb128 0x10
 1651 00da 0D       		.uleb128 0xd
 1652 00db 00       		.byte	0
 1653 00dc 03       		.uleb128 0x3
 1654 00dd 0E       		.uleb128 0xe
 1655 00de 3A       		.uleb128 0x3a
 1656 00df 0B       		.uleb128 0xb
 1657 00e0 3B       		.uleb128 0x3b
 1658 00e1 0B       		.uleb128 0xb
 1659 00e2 39       		.uleb128 0x39
 1660 00e3 0B       		.uleb128 0xb
 1661 00e4 49       		.uleb128 0x49
 1662 00e5 13       		.uleb128 0x13
 1663 00e6 38       		.uleb128 0x38
 1664 00e7 0A       		.uleb128 0xa
 1665 00e8 00       		.byte	0
 1666 00e9 00       		.byte	0
 1667 00ea 11       		.uleb128 0x11
 1668 00eb 2E       		.uleb128 0x2e
 1669 00ec 01       		.byte	0x1
 1670 00ed 3F       		.uleb128 0x3f
 1671 00ee 0C       		.uleb128 0xc
 1672 00ef 03       		.uleb128 0x3
 1673 00f0 0E       		.uleb128 0xe
 1674 00f1 3A       		.uleb128 0x3a
 1675 00f2 0B       		.uleb128 0xb
 1676 00f3 3B       		.uleb128 0x3b
 1677 00f4 05       		.uleb128 0x5
 1678 00f5 39       		.uleb128 0x39
 1679 00f6 0B       		.uleb128 0xb
 1680 00f7 27       		.uleb128 0x27
 1681 00f8 0C       		.uleb128 0xc
 1682 00f9 01       		.uleb128 0x1
ARM GAS  C:\Users\skey\AppData\Local\Temp\ccsfckNU.s 			page 41


 1683 00fa 13       		.uleb128 0x13
 1684 00fb 00       		.byte	0
 1685 00fc 00       		.byte	0
 1686 00fd 12       		.uleb128 0x12
 1687 00fe 05       		.uleb128 0x5
 1688 00ff 00       		.byte	0
 1689 0100 03       		.uleb128 0x3
 1690 0101 0E       		.uleb128 0xe
 1691 0102 3A       		.uleb128 0x3a
 1692 0103 0B       		.uleb128 0xb
 1693 0104 3B       		.uleb128 0x3b
 1694 0105 05       		.uleb128 0x5
 1695 0106 39       		.uleb128 0x39
 1696 0107 0B       		.uleb128 0xb
 1697 0108 49       		.uleb128 0x49
 1698 0109 13       		.uleb128 0x13
 1699 010a 00       		.byte	0
 1700 010b 00       		.byte	0
 1701 010c 13       		.uleb128 0x13
 1702 010d 2E       		.uleb128 0x2e
 1703 010e 01       		.byte	0x1
 1704 010f 3F       		.uleb128 0x3f
 1705 0110 0C       		.uleb128 0xc
 1706 0111 03       		.uleb128 0x3
 1707 0112 0E       		.uleb128 0xe
 1708 0113 3A       		.uleb128 0x3a
 1709 0114 0B       		.uleb128 0xb
 1710 0115 3B       		.uleb128 0x3b
 1711 0116 05       		.uleb128 0x5
 1712 0117 39       		.uleb128 0x39
 1713 0118 0B       		.uleb128 0xb
 1714 0119 27       		.uleb128 0x27
 1715 011a 0C       		.uleb128 0xc
 1716 011b 49       		.uleb128 0x49
 1717 011c 13       		.uleb128 0x13
 1718 011d 01       		.uleb128 0x1
 1719 011e 13       		.uleb128 0x13
 1720 011f 00       		.byte	0
 1721 0120 00       		.byte	0
 1722 0121 14       		.uleb128 0x14
 1723 0122 34       		.uleb128 0x34
 1724 0123 00       		.byte	0
 1725 0124 03       		.uleb128 0x3
 1726 0125 0E       		.uleb128 0xe
 1727 0126 3A       		.uleb128 0x3a
 1728 0127 0B       		.uleb128 0xb
 1729 0128 3B       		.uleb128 0x3b
 1730 0129 05       		.uleb128 0x5
 1731 012a 39       		.uleb128 0x39
 1732 012b 0B       		.uleb128 0xb
 1733 012c 49       		.uleb128 0x49
 1734 012d 13       		.uleb128 0x13
 1735 012e 00       		.byte	0
 1736 012f 00       		.byte	0
 1737 0130 15       		.uleb128 0x15
 1738 0131 2E       		.uleb128 0x2e
 1739 0132 01       		.byte	0x1
ARM GAS  C:\Users\skey\AppData\Local\Temp\ccsfckNU.s 			page 42


 1740 0133 3F       		.uleb128 0x3f
 1741 0134 0C       		.uleb128 0xc
 1742 0135 03       		.uleb128 0x3
 1743 0136 0E       		.uleb128 0xe
 1744 0137 3A       		.uleb128 0x3a
 1745 0138 0B       		.uleb128 0xb
 1746 0139 3B       		.uleb128 0x3b
 1747 013a 05       		.uleb128 0x5
 1748 013b 39       		.uleb128 0x39
 1749 013c 0B       		.uleb128 0xb
 1750 013d 27       		.uleb128 0x27
 1751 013e 0C       		.uleb128 0xc
 1752 013f 11       		.uleb128 0x11
 1753 0140 01       		.uleb128 0x1
 1754 0141 12       		.uleb128 0x12
 1755 0142 01       		.uleb128 0x1
 1756 0143 40       		.uleb128 0x40
 1757 0144 0A       		.uleb128 0xa
 1758 0145 9742     		.uleb128 0x2117
 1759 0147 0C       		.uleb128 0xc
 1760 0148 01       		.uleb128 0x1
 1761 0149 13       		.uleb128 0x13
 1762 014a 00       		.byte	0
 1763 014b 00       		.byte	0
 1764 014c 16       		.uleb128 0x16
 1765 014d 05       		.uleb128 0x5
 1766 014e 00       		.byte	0
 1767 014f 03       		.uleb128 0x3
 1768 0150 0E       		.uleb128 0xe
 1769 0151 3A       		.uleb128 0x3a
 1770 0152 0B       		.uleb128 0xb
 1771 0153 3B       		.uleb128 0x3b
 1772 0154 05       		.uleb128 0x5
 1773 0155 39       		.uleb128 0x39
 1774 0156 0B       		.uleb128 0xb
 1775 0157 49       		.uleb128 0x49
 1776 0158 13       		.uleb128 0x13
 1777 0159 02       		.uleb128 0x2
 1778 015a 0A       		.uleb128 0xa
 1779 015b 00       		.byte	0
 1780 015c 00       		.byte	0
 1781 015d 17       		.uleb128 0x17
 1782 015e 2E       		.uleb128 0x2e
 1783 015f 01       		.byte	0x1
 1784 0160 3F       		.uleb128 0x3f
 1785 0161 0C       		.uleb128 0xc
 1786 0162 03       		.uleb128 0x3
 1787 0163 0E       		.uleb128 0xe
 1788 0164 3A       		.uleb128 0x3a
 1789 0165 0B       		.uleb128 0xb
 1790 0166 3B       		.uleb128 0x3b
 1791 0167 05       		.uleb128 0x5
 1792 0168 39       		.uleb128 0x39
 1793 0169 0B       		.uleb128 0xb
 1794 016a 27       		.uleb128 0x27
 1795 016b 0C       		.uleb128 0xc
 1796 016c 49       		.uleb128 0x49
ARM GAS  C:\Users\skey\AppData\Local\Temp\ccsfckNU.s 			page 43


 1797 016d 13       		.uleb128 0x13
 1798 016e 11       		.uleb128 0x11
 1799 016f 01       		.uleb128 0x1
 1800 0170 12       		.uleb128 0x12
 1801 0171 01       		.uleb128 0x1
 1802 0172 40       		.uleb128 0x40
 1803 0173 0A       		.uleb128 0xa
 1804 0174 9742     		.uleb128 0x2117
 1805 0176 0C       		.uleb128 0xc
 1806 0177 01       		.uleb128 0x1
 1807 0178 13       		.uleb128 0x13
 1808 0179 00       		.byte	0
 1809 017a 00       		.byte	0
 1810 017b 18       		.uleb128 0x18
 1811 017c 05       		.uleb128 0x5
 1812 017d 00       		.byte	0
 1813 017e 03       		.uleb128 0x3
 1814 017f 0E       		.uleb128 0xe
 1815 0180 3A       		.uleb128 0x3a
 1816 0181 0B       		.uleb128 0xb
 1817 0182 3B       		.uleb128 0x3b
 1818 0183 05       		.uleb128 0x5
 1819 0184 39       		.uleb128 0x39
 1820 0185 0B       		.uleb128 0xb
 1821 0186 49       		.uleb128 0x49
 1822 0187 13       		.uleb128 0x13
 1823 0188 02       		.uleb128 0x2
 1824 0189 06       		.uleb128 0x6
 1825 018a B742     		.uleb128 0x2137
 1826 018c 06       		.uleb128 0x6
 1827 018d 00       		.byte	0
 1828 018e 00       		.byte	0
 1829 018f 19       		.uleb128 0x19
 1830 0190 34       		.uleb128 0x34
 1831 0191 00       		.byte	0
 1832 0192 03       		.uleb128 0x3
 1833 0193 0E       		.uleb128 0xe
 1834 0194 3A       		.uleb128 0x3a
 1835 0195 0B       		.uleb128 0xb
 1836 0196 3B       		.uleb128 0x3b
 1837 0197 05       		.uleb128 0x5
 1838 0198 39       		.uleb128 0x39
 1839 0199 0B       		.uleb128 0xb
 1840 019a 49       		.uleb128 0x49
 1841 019b 13       		.uleb128 0x13
 1842 019c 02       		.uleb128 0x2
 1843 019d 06       		.uleb128 0x6
 1844 019e B742     		.uleb128 0x2137
 1845 01a0 06       		.uleb128 0x6
 1846 01a1 00       		.byte	0
 1847 01a2 00       		.byte	0
 1848 01a3 1A       		.uleb128 0x1a
 1849 01a4 0F       		.uleb128 0xf
 1850 01a5 00       		.byte	0
 1851 01a6 0B       		.uleb128 0xb
 1852 01a7 0B       		.uleb128 0xb
 1853 01a8 49       		.uleb128 0x49
ARM GAS  C:\Users\skey\AppData\Local\Temp\ccsfckNU.s 			page 44


 1854 01a9 13       		.uleb128 0x13
 1855 01aa 00       		.byte	0
 1856 01ab 00       		.byte	0
 1857 01ac 1B       		.uleb128 0x1b
 1858 01ad 2E       		.uleb128 0x2e
 1859 01ae 01       		.byte	0x1
 1860 01af 3F       		.uleb128 0x3f
 1861 01b0 0C       		.uleb128 0xc
 1862 01b1 03       		.uleb128 0x3
 1863 01b2 0E       		.uleb128 0xe
 1864 01b3 3A       		.uleb128 0x3a
 1865 01b4 0B       		.uleb128 0xb
 1866 01b5 3B       		.uleb128 0x3b
 1867 01b6 0B       		.uleb128 0xb
 1868 01b7 39       		.uleb128 0x39
 1869 01b8 0B       		.uleb128 0xb
 1870 01b9 27       		.uleb128 0x27
 1871 01ba 0C       		.uleb128 0xc
 1872 01bb 11       		.uleb128 0x11
 1873 01bc 01       		.uleb128 0x1
 1874 01bd 12       		.uleb128 0x12
 1875 01be 01       		.uleb128 0x1
 1876 01bf 40       		.uleb128 0x40
 1877 01c0 06       		.uleb128 0x6
 1878 01c1 9742     		.uleb128 0x2117
 1879 01c3 0C       		.uleb128 0xc
 1880 01c4 01       		.uleb128 0x1
 1881 01c5 13       		.uleb128 0x13
 1882 01c6 00       		.byte	0
 1883 01c7 00       		.byte	0
 1884 01c8 1C       		.uleb128 0x1c
 1885 01c9 05       		.uleb128 0x5
 1886 01ca 00       		.byte	0
 1887 01cb 03       		.uleb128 0x3
 1888 01cc 0E       		.uleb128 0xe
 1889 01cd 3A       		.uleb128 0x3a
 1890 01ce 0B       		.uleb128 0xb
 1891 01cf 3B       		.uleb128 0x3b
 1892 01d0 0B       		.uleb128 0xb
 1893 01d1 39       		.uleb128 0x39
 1894 01d2 0B       		.uleb128 0xb
 1895 01d3 49       		.uleb128 0x49
 1896 01d4 13       		.uleb128 0x13
 1897 01d5 02       		.uleb128 0x2
 1898 01d6 0A       		.uleb128 0xa
 1899 01d7 00       		.byte	0
 1900 01d8 00       		.byte	0
 1901 01d9 1D       		.uleb128 0x1d
 1902 01da 34       		.uleb128 0x34
 1903 01db 00       		.byte	0
 1904 01dc 03       		.uleb128 0x3
 1905 01dd 0E       		.uleb128 0xe
 1906 01de 3A       		.uleb128 0x3a
 1907 01df 0B       		.uleb128 0xb
 1908 01e0 3B       		.uleb128 0x3b
 1909 01e1 0B       		.uleb128 0xb
 1910 01e2 39       		.uleb128 0x39
ARM GAS  C:\Users\skey\AppData\Local\Temp\ccsfckNU.s 			page 45


 1911 01e3 0B       		.uleb128 0xb
 1912 01e4 49       		.uleb128 0x49
 1913 01e5 13       		.uleb128 0x13
 1914 01e6 02       		.uleb128 0x2
 1915 01e7 06       		.uleb128 0x6
 1916 01e8 B742     		.uleb128 0x2137
 1917 01ea 06       		.uleb128 0x6
 1918 01eb 00       		.byte	0
 1919 01ec 00       		.byte	0
 1920 01ed 1E       		.uleb128 0x1e
 1921 01ee 2E       		.uleb128 0x2e
 1922 01ef 01       		.byte	0x1
 1923 01f0 3F       		.uleb128 0x3f
 1924 01f1 0C       		.uleb128 0xc
 1925 01f2 03       		.uleb128 0x3
 1926 01f3 0E       		.uleb128 0xe
 1927 01f4 3A       		.uleb128 0x3a
 1928 01f5 0B       		.uleb128 0xb
 1929 01f6 3B       		.uleb128 0x3b
 1930 01f7 0B       		.uleb128 0xb
 1931 01f8 39       		.uleb128 0x39
 1932 01f9 0B       		.uleb128 0xb
 1933 01fa 27       		.uleb128 0x27
 1934 01fb 0C       		.uleb128 0xc
 1935 01fc 11       		.uleb128 0x11
 1936 01fd 01       		.uleb128 0x1
 1937 01fe 12       		.uleb128 0x12
 1938 01ff 01       		.uleb128 0x1
 1939 0200 40       		.uleb128 0x40
 1940 0201 0A       		.uleb128 0xa
 1941 0202 9742     		.uleb128 0x2117
 1942 0204 0C       		.uleb128 0xc
 1943 0205 00       		.byte	0
 1944 0206 00       		.byte	0
 1945 0207 00       		.byte	0
 1946              		.section	.debug_loc,"",%progbits
 1947              	.Ldebug_loc0:
 1948              	.LVUS4:
 1949 0000 00       		.uleb128 0
 1950 0001 00       		.uleb128 .LVU176
 1951 0002 00       		.uleb128 .LVU176
 1952 0003 00       		.uleb128 0
 1953              	.LLST4:
 1954 0004 7A010000 		.4byte	.LVL17-.Ltext0
 1955 0008 8A010000 		.4byte	.LVL19-.Ltext0
 1956 000c 0100     		.2byte	0x1
 1957 000e 50       		.byte	0x50
 1958 000f 8A010000 		.4byte	.LVL19-.Ltext0
 1959 0013 98010000 		.4byte	.LFE36-.Ltext0
 1960 0017 0400     		.2byte	0x4
 1961 0019 F3       		.byte	0xf3
 1962 001a 01       		.uleb128 0x1
 1963 001b 50       		.byte	0x50
 1964 001c 9F       		.byte	0x9f
 1965 001d 00000000 		.4byte	0
 1966 0021 00000000 		.4byte	0
 1967              	.LVUS5:
ARM GAS  C:\Users\skey\AppData\Local\Temp\ccsfckNU.s 			page 46


 1968 0025 02       		.uleb128 .LVU164
 1969 0026 01       		.uleb128 .LVU173
 1970 0027 01       		.uleb128 .LVU173
 1971 0028 00       		.uleb128 .LVU176
 1972 0029 00       		.uleb128 .LVU176
 1973 002a 00       		.uleb128 0
 1974              	.LLST5:
 1975 002b 7A010000 		.4byte	.LVL17-.Ltext0
 1976 002f 84010000 		.4byte	.LVL18-.Ltext0
 1977 0033 0200     		.2byte	0x2
 1978 0035 30       		.byte	0x30
 1979 0036 9F       		.byte	0x9f
 1980 0037 84010000 		.4byte	.LVL18-.Ltext0
 1981 003b 8A010000 		.4byte	.LVL19-.Ltext0
 1982 003f 0800     		.2byte	0x8
 1983 0041 73       		.byte	0x73
 1984 0042 00       		.sleb128 0
 1985 0043 70       		.byte	0x70
 1986 0044 00       		.sleb128 0
 1987 0045 1A       		.byte	0x1a
 1988 0046 30       		.byte	0x30
 1989 0047 2E       		.byte	0x2e
 1990 0048 9F       		.byte	0x9f
 1991 0049 8A010000 		.4byte	.LVL19-.Ltext0
 1992 004d 98010000 		.4byte	.LFE36-.Ltext0
 1993 0051 0900     		.2byte	0x9
 1994 0053 73       		.byte	0x73
 1995 0054 00       		.sleb128 0
 1996 0055 F3       		.byte	0xf3
 1997 0056 01       		.uleb128 0x1
 1998 0057 50       		.byte	0x50
 1999 0058 1A       		.byte	0x1a
 2000 0059 30       		.byte	0x30
 2001 005a 2E       		.byte	0x2e
 2002 005b 9F       		.byte	0x9f
 2003 005c 00000000 		.4byte	0
 2004 0060 00000000 		.4byte	0
 2005              	.LVUS6:
 2006 0064 03       		.uleb128 .LVU165
 2007 0065 00       		.uleb128 .LVU172
 2008 0066 00       		.uleb128 .LVU172
 2009 0067 00       		.uleb128 0
 2010              	.LLST6:
 2011 0068 7A010000 		.4byte	.LVL17-.Ltext0
 2012 006c 84010000 		.4byte	.LVL18-.Ltext0
 2013 0070 0200     		.2byte	0x2
 2014 0072 30       		.byte	0x30
 2015 0073 9F       		.byte	0x9f
 2016 0074 84010000 		.4byte	.LVL18-.Ltext0
 2017 0078 98010000 		.4byte	.LFE36-.Ltext0
 2018 007c 0100     		.2byte	0x1
 2019 007e 53       		.byte	0x53
 2020 007f 00000000 		.4byte	0
 2021 0083 00000000 		.4byte	0
 2022              	.LVUS3:
 2023 0087 00       		.uleb128 0
 2024 0088 00       		.uleb128 .LVU161
ARM GAS  C:\Users\skey\AppData\Local\Temp\ccsfckNU.s 			page 47


 2025 0089 00       		.uleb128 .LVU161
 2026 008a 00       		.uleb128 0
 2027              	.LLST3:
 2028 008b 74010000 		.4byte	.LVL15-.Ltext0
 2029 008f 76010000 		.4byte	.LVL16-.Ltext0
 2030 0093 0100     		.2byte	0x1
 2031 0095 50       		.byte	0x50
 2032 0096 76010000 		.4byte	.LVL16-.Ltext0
 2033 009a 7A010000 		.4byte	.LFE35-.Ltext0
 2034 009e 0400     		.2byte	0x4
 2035 00a0 F3       		.byte	0xf3
 2036 00a1 01       		.uleb128 0x1
 2037 00a2 50       		.byte	0x50
 2038 00a3 9F       		.byte	0x9f
 2039 00a4 00000000 		.4byte	0
 2040 00a8 00000000 		.4byte	0
 2041              	.LVUS2:
 2042 00ac 00       		.uleb128 0
 2043 00ad 00       		.uleb128 .LVU147
 2044 00ae 00       		.uleb128 .LVU147
 2045 00af 00       		.uleb128 .LVU149
 2046 00b0 00       		.uleb128 .LVU149
 2047 00b1 00       		.uleb128 .LVU151
 2048 00b2 00       		.uleb128 .LVU151
 2049 00b3 00       		.uleb128 0
 2050              	.LLST2:
 2051 00b4 60010000 		.4byte	.LVL10-.Ltext0
 2052 00b8 66010000 		.4byte	.LVL11-.Ltext0
 2053 00bc 0100     		.2byte	0x1
 2054 00be 51       		.byte	0x51
 2055 00bf 66010000 		.4byte	.LVL11-.Ltext0
 2056 00c3 6A010000 		.4byte	.LVL12-.Ltext0
 2057 00c7 0400     		.2byte	0x4
 2058 00c9 F3       		.byte	0xf3
 2059 00ca 01       		.uleb128 0x1
 2060 00cb 51       		.byte	0x51
 2061 00cc 9F       		.byte	0x9f
 2062 00cd 6A010000 		.4byte	.LVL12-.Ltext0
 2063 00d1 6E010000 		.4byte	.LVL13-.Ltext0
 2064 00d5 0100     		.2byte	0x1
 2065 00d7 51       		.byte	0x51
 2066 00d8 6E010000 		.4byte	.LVL13-.Ltext0
 2067 00dc 70010000 		.4byte	.LFE33-.Ltext0
 2068 00e0 0400     		.2byte	0x4
 2069 00e2 F3       		.byte	0xf3
 2070 00e3 01       		.uleb128 0x1
 2071 00e4 51       		.byte	0x51
 2072 00e5 9F       		.byte	0x9f
 2073 00e6 00000000 		.4byte	0
 2074 00ea 00000000 		.4byte	0
 2075              	.LLST0:
 2076 00ee F4000000 		.4byte	.LFB30-.Ltext0
 2077 00f2 F8000000 		.4byte	.LCFI0-.Ltext0
 2078 00f6 0200     		.2byte	0x2
 2079 00f8 7D       		.byte	0x7d
 2080 00f9 00       		.sleb128 0
 2081 00fa F8000000 		.4byte	.LCFI0-.Ltext0
ARM GAS  C:\Users\skey\AppData\Local\Temp\ccsfckNU.s 			page 48


 2082 00fe 30010000 		.4byte	.LFE30-.Ltext0
 2083 0102 0200     		.2byte	0x2
 2084 0104 7D       		.byte	0x7d
 2085 0105 08       		.sleb128 8
 2086 0106 00000000 		.4byte	0
 2087 010a 00000000 		.4byte	0
 2088              	.LVUS1:
 2089 010e 02       		.uleb128 .LVU69
 2090 010f 00       		.uleb128 .LVU84
 2091 0110 00       		.uleb128 .LVU84
 2092 0111 00       		.uleb128 .LVU88
 2093 0112 00       		.uleb128 .LVU91
 2094 0113 00       		.uleb128 .LVU98
 2095 0114 00       		.uleb128 .LVU98
 2096 0115 00       		.uleb128 .LVU102
 2097 0116 00       		.uleb128 .LVU102
 2098 0117 00       		.uleb128 .LVU103
 2099 0118 00       		.uleb128 .LVU103
 2100 0119 00       		.uleb128 0
 2101              	.LLST1:
 2102 011a F4000000 		.4byte	.LVL1-.Ltext0
 2103 011e FC000000 		.4byte	.LVL2-.Ltext0
 2104 0122 0200     		.2byte	0x2
 2105 0124 30       		.byte	0x30
 2106 0125 9F       		.byte	0x9f
 2107 0126 FC000000 		.4byte	.LVL2-.Ltext0
 2108 012a 04010000 		.4byte	.LVL3-.Ltext0
 2109 012e 0100     		.2byte	0x1
 2110 0130 52       		.byte	0x52
 2111 0131 0C010000 		.4byte	.LVL4-.Ltext0
 2112 0135 20010000 		.4byte	.LVL5-.Ltext0
 2113 0139 0100     		.2byte	0x1
 2114 013b 52       		.byte	0x52
 2115 013c 20010000 		.4byte	.LVL5-.Ltext0
 2116 0140 24010000 		.4byte	.LVL6-.Ltext0
 2117 0144 0100     		.2byte	0x1
 2118 0146 53       		.byte	0x53
 2119 0147 24010000 		.4byte	.LVL6-.Ltext0
 2120 014b 26010000 		.4byte	.LVL7-.Ltext0
 2121 014f 0200     		.2byte	0x2
 2122 0151 70       		.byte	0x70
 2123 0152 00       		.sleb128 0
 2124 0153 26010000 		.4byte	.LVL7-.Ltext0
 2125 0157 30010000 		.4byte	.LFE30-.Ltext0
 2126 015b 2200     		.2byte	0x22
 2127 015d 71       		.byte	0x71
 2128 015e 08       		.sleb128 8
 2129 015f 06       		.byte	0x6
 2130 0160 71       		.byte	0x71
 2131 0161 20       		.sleb128 32
 2132 0162 06       		.byte	0x6
 2133 0163 21       		.byte	0x21
 2134 0164 71       		.byte	0x71
 2135 0165 10       		.sleb128 16
 2136 0166 06       		.byte	0x6
 2137 0167 21       		.byte	0x21
 2138 0168 71       		.byte	0x71
ARM GAS  C:\Users\skey\AppData\Local\Temp\ccsfckNU.s 			page 49


 2139 0169 14       		.sleb128 20
 2140 016a 06       		.byte	0x6
 2141 016b 21       		.byte	0x21
 2142 016c 71       		.byte	0x71
 2143 016d 18       		.sleb128 24
 2144 016e 06       		.byte	0x6
 2145 016f 21       		.byte	0x21
 2146 0170 71       		.byte	0x71
 2147 0171 1C       		.sleb128 28
 2148 0172 06       		.byte	0x6
 2149 0173 21       		.byte	0x21
 2150 0174 71       		.byte	0x71
 2151 0175 24       		.sleb128 36
 2152 0176 06       		.byte	0x6
 2153 0177 21       		.byte	0x21
 2154 0178 74       		.byte	0x74
 2155 0179 00       		.sleb128 0
 2156 017a 21       		.byte	0x21
 2157 017b 72       		.byte	0x72
 2158 017c 00       		.sleb128 0
 2159 017d 21       		.byte	0x21
 2160 017e 9F       		.byte	0x9f
 2161 017f 00000000 		.4byte	0
 2162 0183 00000000 		.4byte	0
 2163              		.section	.debug_aranges,"",%progbits
 2164 0000 1C000000 		.4byte	0x1c
 2165 0004 0200     		.2byte	0x2
 2166 0006 00000000 		.4byte	.Ldebug_info0
 2167 000a 04       		.byte	0x4
 2168 000b 00       		.byte	0
 2169 000c 0000     		.2byte	0
 2170 000e 0000     		.2byte	0
 2171 0010 00000000 		.4byte	.Ltext0
 2172 0014 B4010000 		.4byte	.Letext0-.Ltext0
 2173 0018 00000000 		.4byte	0
 2174 001c 00000000 		.4byte	0
 2175              		.section	.debug_line,"",%progbits
 2176              	.Ldebug_line0:
 2177 0000 BA040000 		.section	.debug_str,"MS",%progbits,1
 2177      0300DA01 
 2177      00000201 
 2177      FB0E0D00 
 2177      01010101 
 2178              	.LASF52:
 2179 0000 444D415F 		.ascii	"DMA_Cmd\000"
 2179      436D6400 
 2180              	.LASF37:
 2181 0008 444D415F 		.ascii	"DMA_M2M\000"
 2181      4D324D00 
 2182              	.LASF14:
 2183 0010 53797374 		.ascii	"SystemCoreClock\000"
 2183      656D436F 
 2183      7265436C 
 2183      6F636B00 
 2184              	.LASF58:
 2185 0020 443A5C53 		.ascii	"D:\\STM32_Freertos_GCC_Makefile_Win\000"
 2185      544D3332 
ARM GAS  C:\Users\skey\AppData\Local\Temp\ccsfckNU.s 			page 50


 2185      5F467265 
 2185      6572746F 
 2185      735F4743 
 2186              	.LASF28:
 2187 0043 444D415F 		.ascii	"DMA_MemoryBaseAddr\000"
 2187      4D656D6F 
 2187      72794261 
 2187      73654164 
 2187      647200
 2188              	.LASF56:
 2189 0056 474E5520 		.ascii	"GNU C17 9.2.1 20191025 (release) [ARM/arm-9-branch "
 2189      43313720 
 2189      392E322E 
 2189      31203230 
 2189      31393130 
 2190 0089 72657669 		.ascii	"revision 277599] -mcpu=cortex-m3 -mthumb -mfloat-ab"
 2190      73696F6E 
 2190      20323737 
 2190      3539395D 
 2190      202D6D63 
 2191 00bc 693D736F 		.ascii	"i=soft -march=armv7-m -g -gdwarf-2 -Os -fomit-frame"
 2191      6674202D 
 2191      6D617263 
 2191      683D6172 
 2191      6D76372D 
 2192 00ef 2D706F69 		.ascii	"-pointer\000"
 2192      6E746572 
 2192      00
 2193              	.LASF53:
 2194 00f8 444D415F 		.ascii	"DMA_StructInit\000"
 2194      53747275 
 2194      6374496E 
 2194      697400
 2195              	.LASF5:
 2196 0107 5F5F7569 		.ascii	"__uint16_t\000"
 2196      6E743136 
 2196      5F7400
 2197              	.LASF6:
 2198 0112 5F5F7569 		.ascii	"__uint32_t\000"
 2198      6E743332 
 2198      5F7400
 2199              	.LASF26:
 2200 011d 444D415F 		.ascii	"DMA_TypeDef\000"
 2200      54797065 
 2200      44656600 
 2201              	.LASF2:
 2202 0129 73686F72 		.ascii	"short int\000"
 2202      7420696E 
 2202      7400
 2203              	.LASF29:
 2204 0133 444D415F 		.ascii	"DMA_DIR\000"
 2204      44495200 
 2205              	.LASF44:
 2206 013b 444D4179 		.ascii	"DMAy_FLAG\000"
 2206      5F464C41 
 2206      4700
 2207              	.LASF51:
ARM GAS  C:\Users\skey\AppData\Local\Temp\ccsfckNU.s 			page 51


 2208 0145 4E657753 		.ascii	"NewState\000"
 2208      74617465 
 2208      00
 2209              	.LASF27:
 2210 014e 444D415F 		.ascii	"DMA_PeripheralBaseAddr\000"
 2210      50657269 
 2210      70686572 
 2210      616C4261 
 2210      73654164 
 2211              	.LASF18:
 2212 0165 44495341 		.ascii	"DISABLE\000"
 2212      424C4500 
 2213              	.LASF32:
 2214 016d 444D415F 		.ascii	"DMA_MemoryInc\000"
 2214      4D656D6F 
 2214      7279496E 
 2214      6300
 2215              	.LASF8:
 2216 017b 6C6F6E67 		.ascii	"long long int\000"
 2216      206C6F6E 
 2216      6720696E 
 2216      7400
 2217              	.LASF31:
 2218 0189 444D415F 		.ascii	"DMA_PeripheralInc\000"
 2218      50657269 
 2218      70686572 
 2218      616C496E 
 2218      6300
 2219              	.LASF48:
 2220 019b 44617461 		.ascii	"DataNumber\000"
 2220      4E756D62 
 2220      657200
 2221              	.LASF17:
 2222 01a6 49545374 		.ascii	"ITStatus\000"
 2222      61747573 
 2222      00
 2223              	.LASF4:
 2224 01af 6C6F6E67 		.ascii	"long int\000"
 2224      20696E74 
 2224      00
 2225              	.LASF55:
 2226 01b8 444D415F 		.ascii	"DMA_Init\000"
 2226      496E6974 
 2226      00
 2227              	.LASF57:
 2228 01c1 2E5C7374 		.ascii	".\\stlib\\STM32F10x_StdPeriph_Driver\\src\\stm32f10"
 2228      6C69625C 
 2228      53544D33 
 2228      32463130 
 2228      785F5374 
 2229 01f0 785F646D 		.ascii	"x_dma.c\000"
 2229      612E6300 
 2230              	.LASF46:
 2231 01f8 444D415F 		.ascii	"DMA_ClearFlag\000"
 2231      436C6561 
 2231      72466C61 
 2231      6700
ARM GAS  C:\Users\skey\AppData\Local\Temp\ccsfckNU.s 			page 52


 2232              	.LASF47:
 2233 0206 444D415F 		.ascii	"DMA_SetCurrDataCounter\000"
 2233      53657443 
 2233      75727244 
 2233      61746143 
 2233      6F756E74 
 2234              	.LASF41:
 2235 021d 746D7072 		.ascii	"tmpreg\000"
 2235      656700
 2236              	.LASF22:
 2237 0224 43504152 		.ascii	"CPAR\000"
 2237      00
 2238              	.LASF33:
 2239 0229 444D415F 		.ascii	"DMA_PeripheralDataSize\000"
 2239      50657269 
 2239      70686572 
 2239      616C4461 
 2239      74615369 
 2240              	.LASF38:
 2241 0240 444D415F 		.ascii	"DMA_InitTypeDef\000"
 2241      496E6974 
 2241      54797065 
 2241      44656600 
 2242              	.LASF1:
 2243 0250 756E7369 		.ascii	"unsigned char\000"
 2243      676E6564 
 2243      20636861 
 2243      7200
 2244              	.LASF0:
 2245 025e 7369676E 		.ascii	"signed char\000"
 2245      65642063 
 2245      68617200 
 2246              	.LASF9:
 2247 026a 6C6F6E67 		.ascii	"long long unsigned int\000"
 2247      206C6F6E 
 2247      6720756E 
 2247      7369676E 
 2247      65642069 
 2248              	.LASF50:
 2249 0281 444D415F 		.ascii	"DMA_IT\000"
 2249      495400
 2250              	.LASF12:
 2251 0288 75696E74 		.ascii	"uint32_t\000"
 2251      33325F74 
 2251      00
 2252              	.LASF10:
 2253 0291 756E7369 		.ascii	"unsigned int\000"
 2253      676E6564 
 2253      20696E74 
 2253      00
 2254              	.LASF60:
 2255 029e 444D415F 		.ascii	"DMA_GetITStatus\000"
 2255      47657449 
 2255      54537461 
 2255      74757300 
 2256              	.LASF11:
 2257 02ae 75696E74 		.ascii	"uint16_t\000"
ARM GAS  C:\Users\skey\AppData\Local\Temp\ccsfckNU.s 			page 53


 2257      31365F74 
 2257      00
 2258              	.LASF54:
 2259 02b7 444D415F 		.ascii	"DMA_InitStruct\000"
 2259      496E6974 
 2259      53747275 
 2259      637400
 2260              	.LASF36:
 2261 02c6 444D415F 		.ascii	"DMA_Priority\000"
 2261      5072696F 
 2261      72697479 
 2261      00
 2262              	.LASF3:
 2263 02d3 73686F72 		.ascii	"short unsigned int\000"
 2263      7420756E 
 2263      7369676E 
 2263      65642069 
 2263      6E7400
 2264              	.LASF24:
 2265 02e6 444D415F 		.ascii	"DMA_Channel_TypeDef\000"
 2265      4368616E 
 2265      6E656C5F 
 2265      54797065 
 2265      44656600 
 2266              	.LASF21:
 2267 02fa 434E4454 		.ascii	"CNDTR\000"
 2267      5200
 2268              	.LASF45:
 2269 0300 444D4179 		.ascii	"DMAy_Channelx\000"
 2269      5F436861 
 2269      6E6E656C 
 2269      7800
 2270              	.LASF59:
 2271 030e 444D415F 		.ascii	"DMA_ClearITPendingBit\000"
 2271      436C6561 
 2271      72495450 
 2271      656E6469 
 2271      6E674269 
 2272              	.LASF25:
 2273 0324 49464352 		.ascii	"IFCR\000"
 2273      00
 2274              	.LASF42:
 2275 0329 444D415F 		.ascii	"DMA_GetFlagStatus\000"
 2275      47657446 
 2275      6C616753 
 2275      74617475 
 2275      7300
 2276              	.LASF7:
 2277 033b 6C6F6E67 		.ascii	"long unsigned int\000"
 2277      20756E73 
 2277      69676E65 
 2277      6420696E 
 2277      7400
 2278              	.LASF20:
 2279 034d 46756E63 		.ascii	"FunctionalState\000"
 2279      74696F6E 
 2279      616C5374 
ARM GAS  C:\Users\skey\AppData\Local\Temp\ccsfckNU.s 			page 54


 2279      61746500 
 2280              	.LASF23:
 2281 035d 434D4152 		.ascii	"CMAR\000"
 2281      00
 2282              	.LASF61:
 2283 0362 444D415F 		.ascii	"DMA_DeInit\000"
 2283      4465496E 
 2283      697400
 2284              	.LASF15:
 2285 036d 52455345 		.ascii	"RESET\000"
 2285      5400
 2286              	.LASF30:
 2287 0373 444D415F 		.ascii	"DMA_BufferSize\000"
 2287      42756666 
 2287      65725369 
 2287      7A6500
 2288              	.LASF39:
 2289 0382 444D4179 		.ascii	"DMAy_IT\000"
 2289      5F495400 
 2290              	.LASF35:
 2291 038a 444D415F 		.ascii	"DMA_Mode\000"
 2291      4D6F6465 
 2291      00
 2292              	.LASF43:
 2293 0393 444D415F 		.ascii	"DMA_GetCurrDataCounter\000"
 2293      47657443 
 2293      75727244 
 2293      61746143 
 2293      6F756E74 
 2294              	.LASF49:
 2295 03aa 444D415F 		.ascii	"DMA_ITConfig\000"
 2295      4954436F 
 2295      6E666967 
 2295      00
 2296              	.LASF13:
 2297 03b7 49544D5F 		.ascii	"ITM_RxBuffer\000"
 2297      52784275 
 2297      66666572 
 2297      00
 2298              	.LASF40:
 2299 03c4 62697473 		.ascii	"bitstatus\000"
 2299      74617475 
 2299      7300
 2300              	.LASF16:
 2301 03ce 466C6167 		.ascii	"FlagStatus\000"
 2301      53746174 
 2301      757300
 2302              	.LASF19:
 2303 03d9 454E4142 		.ascii	"ENABLE\000"
 2303      4C4500
 2304              	.LASF34:
 2305 03e0 444D415F 		.ascii	"DMA_MemoryDataSize\000"
 2305      4D656D6F 
 2305      72794461 
 2305      74615369 
 2305      7A6500
 2306              		.ident	"GCC: (GNU Tools for Arm Embedded Processors 9-2019-q4-major) 9.2.1 20191025 (release) [ARM
ARM GAS  C:\Users\skey\AppData\Local\Temp\ccsfckNU.s 			page 55


ARM GAS  C:\Users\skey\AppData\Local\Temp\ccsfckNU.s 			page 56


DEFINED SYMBOLS
                            *ABS*:00000000 stm32f10x_dma.c
C:\Users\skey\AppData\Local\Temp\ccsfckNU.s:76     .text:00000000 $t
C:\Users\skey\AppData\Local\Temp\ccsfckNU.s:84     .text:00000000 DMA_DeInit
C:\Users\skey\AppData\Local\Temp\ccsfckNU.s:301    .text:000000bc $d
C:\Users\skey\AppData\Local\Temp\ccsfckNU.s:318    .text:000000f4 $t
C:\Users\skey\AppData\Local\Temp\ccsfckNU.s:325    .text:000000f4 DMA_Init
C:\Users\skey\AppData\Local\Temp\ccsfckNU.s:447    .text:00000130 DMA_StructInit
C:\Users\skey\AppData\Local\Temp\ccsfckNU.s:495    .text:0000014a DMA_Cmd
C:\Users\skey\AppData\Local\Temp\ccsfckNU.s:541    .text:00000160 DMA_ITConfig
C:\Users\skey\AppData\Local\Temp\ccsfckNU.s:590    .text:00000170 DMA_SetCurrDataCounter
C:\Users\skey\AppData\Local\Temp\ccsfckNU.s:616    .text:00000174 DMA_GetCurrDataCounter
C:\Users\skey\AppData\Local\Temp\ccsfckNU.s:644    .text:0000017a DMA_GetFlagStatus
C:\Users\skey\AppData\Local\Temp\ccsfckNU.s:686    .text:00000190 $d
C:\Users\skey\AppData\Local\Temp\ccsfckNU.s:691    .text:00000198 $t
C:\Users\skey\AppData\Local\Temp\ccsfckNU.s:698    .text:00000198 DMA_ClearFlag
C:\Users\skey\AppData\Local\Temp\ccsfckNU.s:727    .text:000001a4 $d
C:\Users\skey\AppData\Local\Temp\ccsfckNU.s:732    .text:000001ac $t
C:\Users\skey\AppData\Local\Temp\ccsfckNU.s:739    .text:000001ac DMA_GetITStatus
C:\Users\skey\AppData\Local\Temp\ccsfckNU.s:756    .text:000001b0 DMA_ClearITPendingBit

NO UNDEFINED SYMBOLS
