ARM GAS  C:\Users\skey\AppData\Local\Temp\ccsfckNU.s 			page 1


   1              		.cpu cortex-m3
   2              		.eabi_attribute 20, 1	@ Tag_ABI_FP_denormal
   3              		.eabi_attribute 21, 1	@ Tag_ABI_FP_exceptions
   4              		.eabi_attribute 23, 3	@ Tag_ABI_FP_number_model
   5              		.eabi_attribute 24, 1	@ Tag_ABI_align8_needed
   6              		.eabi_attribute 25, 1	@ Tag_ABI_align8_preserved
   7              		.eabi_attribute 26, 1	@ Tag_ABI_enum_size
   8              		.eabi_attribute 30, 4	@ Tag_ABI_optimization_goals
   9              		.eabi_attribute 34, 1	@ Tag_CPU_unaligned_access
  10              		.eabi_attribute 18, 4	@ Tag_ABI_PCS_wchar_t
  11              		.file	"stm32f10x_dma.c"
  12              	@ GNU C17 (GNU Tools for Arm Embedded Processors 9-2019-q4-major) version 9.2.1 20191025 (release) 
  13              	@	compiled by GNU C version 5.3.1 20160211, GMP version 6.1.0, MPFR version 3.1.4, MPC version 1.0.
  14              	
  15              	@ GGC heuristics: --param ggc-min-expand=100 --param ggc-min-heapsize=131072
  16              	@ options passed:  -I . -I .\usr_inc -I .\task_inc
  17              	@ -I .\stlib\CMSIS\CM3\CoreSupport
  18              	@ -I .\stlib\CMSIS\CM3\DeviceSupport\ST\STM32F10x
  19              	@ -I .\stlib\STM32F10x_StdPeriph_Driver\inc
  20              	@ -I .\stlib\STM32F10x_StdPeriph_Driver -I .\freertos\include
  21              	@ -I .\freertos\portable\GCC\ARM_CM3 -imultilib thumb/v7-m/nofp
  22              	@ -iprefix c:\program files (x86)\gnu tools arm embedded\9 2019-q4-major\bin\../lib/gcc/arm-none-ea
  23              	@ -isysroot c:\program files (x86)\gnu tools arm embedded\9 2019-q4-major\bin\../arm-none-eabi
  24              	@ -D__USES_INITFINI__ -D STM32F10X_HD -D USE_STDPERIPH_DRIVER
  25              	@ -D HSE_VALUE=8000000 -D RUN_FROM_FLASH=1
  26              	@ .\stlib\STM32F10x_StdPeriph_Driver\src\stm32f10x_dma.c -mcpu=cortex-m3
  27              	@ -mthumb -mfloat-abi=soft -march=armv7-m
  28              	@ -auxbase-strip .\stlib\STM32F10x_StdPeriph_Driver\src\stm32f10x_dma.o -g
  29              	@ -gdwarf-2 -Os -Wall -fomit-frame-pointer -fverbose-asm
  30              	@ options enabled:  -faggressive-loop-optimizations -fassume-phsa
  31              	@ -fauto-inc-dec -fbranch-count-reg -fcaller-saves -fcode-hoisting
  32              	@ -fcombine-stack-adjustments -fcommon -fcompare-elim -fcprop-registers
  33              	@ -fcrossjumping -fcse-follow-jumps -fdefer-pop
  34              	@ -fdelete-null-pointer-checks -fdevirtualize -fdevirtualize-speculatively
  35              	@ -fdwarf2-cfi-asm -fearly-inlining -feliminate-unused-debug-types
  36              	@ -fexpensive-optimizations -fforward-propagate -ffp-int-builtin-inexact
  37              	@ -ffunction-cse -fgcse -fgcse-lm -fgnu-runtime -fgnu-unique
  38              	@ -fguess-branch-probability -fhoist-adjacent-loads -fident -fif-conversion
  39              	@ -fif-conversion2 -findirect-inlining -finline -finline-atomics
  40              	@ -finline-functions -finline-functions-called-once
  41              	@ -finline-small-functions -fipa-bit-cp -fipa-cp -fipa-icf
  42              	@ -fipa-icf-functions -fipa-icf-variables -fipa-profile -fipa-pure-const
  43              	@ -fipa-ra -fipa-reference -fipa-reference-addressable -fipa-sra
  44              	@ -fipa-stack-alignment -fipa-vrp -fira-hoist-pressure
  45              	@ -fira-share-save-slots -fira-share-spill-slots
  46              	@ -fisolate-erroneous-paths-dereference -fivopts -fkeep-static-consts
  47              	@ -fleading-underscore -flifetime-dse -flra-remat -flto-odr-type-merging
  48              	@ -fmath-errno -fmerge-constants -fmerge-debug-strings
  49              	@ -fmove-loop-invariants -fomit-frame-pointer -foptimize-sibling-calls
  50              	@ -fpartial-inlining -fpeephole -fpeephole2 -fplt -fprefetch-loop-arrays
  51              	@ -freg-struct-return -freorder-blocks -freorder-functions
  52              	@ -frerun-cse-after-loop -fsched-critical-path-heuristic
  53              	@ -fsched-dep-count-heuristic -fsched-group-heuristic -fsched-interblock
  54              	@ -fsched-last-insn-heuristic -fsched-pressure -fsched-rank-heuristic
  55              	@ -fsched-spec -fsched-spec-insn-heuristic -fsched-stalled-insns-dep
  56              	@ -fschedule-insns2 -fsection-anchors -fsemantic-interposition
  57              	@ -fshow-column -fshrink-wrap-separate -fsigned-zeros
ARM GAS  C:\Users\skey\AppData\Local\Temp\ccsfckNU.s 			page 2


  58              	@ -fsplit-ivs-in-unroller -fsplit-wide-types -fssa-backprop -fssa-phiopt
  59              	@ -fstdarg-opt -fstore-merging -fstrict-aliasing
  60              	@ -fstrict-volatile-bitfields -fsync-libcalls -fthread-jumps
  61              	@ -ftoplevel-reorder -ftrapping-math -ftree-bit-ccp -ftree-builtin-call-dce
  62              	@ -ftree-ccp -ftree-ch -ftree-coalesce-vars -ftree-copy-prop -ftree-cselim
  63              	@ -ftree-dce -ftree-dominator-opts -ftree-dse -ftree-forwprop -ftree-fre
  64              	@ -ftree-loop-if-convert -ftree-loop-im -ftree-loop-ivcanon
  65              	@ -ftree-loop-optimize -ftree-parallelize-loops= -ftree-phiprop -ftree-pre
  66              	@ -ftree-pta -ftree-reassoc -ftree-scev-cprop -ftree-sink -ftree-slsr
  67              	@ -ftree-sra -ftree-switch-conversion -ftree-tail-merge -ftree-ter
  68              	@ -ftree-vrp -funit-at-a-time -fvar-tracking -fvar-tracking-assignments
  69              	@ -fverbose-asm -fzero-initialized-in-bss -masm-syntax-unified -mbe32
  70              	@ -mfix-cortex-m3-ldrd -mlittle-endian -mpic-data-is-text-relative
  71              	@ -msched-prolog -mthumb -munaligned-access -mvectorize-with-neon-quad
  72              	
  73              		.text
  74              	.Ltext0:
  75              		.cfi_sections	.debug_frame
  76              		.align	1
  77              		.global	DMA_DeInit
  78              		.arch armv7-m
  79              		.syntax unified
  80              		.thumb
  81              		.thumb_func
  82              		.fpu softvfp
  83              		.type	DMA_DeInit, %function
  84              	DMA_DeInit:
  85              	.LVL0:
  86              	.LFB29:
  87              		.file 1 ".\\stlib\\STM32F10x_StdPeriph_Driver\\src\\stm32f10x_dma.c"
   1:.\stlib\STM32F10x_StdPeriph_Driver\src/stm32f10x_dma.c **** /**
   2:.\stlib\STM32F10x_StdPeriph_Driver\src/stm32f10x_dma.c ****   ******************************************************************************
   3:.\stlib\STM32F10x_StdPeriph_Driver\src/stm32f10x_dma.c ****   * @file    stm32f10x_dma.c
   4:.\stlib\STM32F10x_StdPeriph_Driver\src/stm32f10x_dma.c ****   * @author  MCD Application Team
   5:.\stlib\STM32F10x_StdPeriph_Driver\src/stm32f10x_dma.c ****   * @version V3.5.0
   6:.\stlib\STM32F10x_StdPeriph_Driver\src/stm32f10x_dma.c ****   * @date    11-March-2011
   7:.\stlib\STM32F10x_StdPeriph_Driver\src/stm32f10x_dma.c ****   * @brief   This file provides all the DMA firmware functions.
   8:.\stlib\STM32F10x_StdPeriph_Driver\src/stm32f10x_dma.c ****   ******************************************************************************
   9:.\stlib\STM32F10x_StdPeriph_Driver\src/stm32f10x_dma.c ****   * @attention
  10:.\stlib\STM32F10x_StdPeriph_Driver\src/stm32f10x_dma.c ****   *
  11:.\stlib\STM32F10x_StdPeriph_Driver\src/stm32f10x_dma.c ****   * THE PRESENT FIRMWARE WHICH IS FOR GUIDANCE ONLY AIMS AT PROVIDING CUSTOMERS
  12:.\stlib\STM32F10x_StdPeriph_Driver\src/stm32f10x_dma.c ****   * WITH CODING INFORMATION REGARDING THEIR PRODUCTS IN ORDER FOR THEM TO SAVE
  13:.\stlib\STM32F10x_StdPeriph_Driver\src/stm32f10x_dma.c ****   * TIME. AS A RESULT, STMICROELECTRONICS SHALL NOT BE HELD LIABLE FOR ANY
  14:.\stlib\STM32F10x_StdPeriph_Driver\src/stm32f10x_dma.c ****   * DIRECT, INDIRECT OR CONSEQUENTIAL DAMAGES WITH RESPECT TO ANY CLAIMS ARISING
  15:.\stlib\STM32F10x_StdPeriph_Driver\src/stm32f10x_dma.c ****   * FROM THE CONTENT OF SUCH FIRMWARE AND/OR THE USE MADE BY CUSTOMERS OF THE
  16:.\stlib\STM32F10x_StdPeriph_Driver\src/stm32f10x_dma.c ****   * CODING INFORMATION CONTAINED HEREIN IN CONNECTION WITH THEIR PRODUCTS.
  17:.\stlib\STM32F10x_StdPeriph_Driver\src/stm32f10x_dma.c ****   *
  18:.\stlib\STM32F10x_StdPeriph_Driver\src/stm32f10x_dma.c ****   * <h2><center>&copy; COPYRIGHT 2011 STMicroelectronics</center></h2>
  19:.\stlib\STM32F10x_StdPeriph_Driver\src/stm32f10x_dma.c ****   ******************************************************************************
  20:.\stlib\STM32F10x_StdPeriph_Driver\src/stm32f10x_dma.c ****   */
  21:.\stlib\STM32F10x_StdPeriph_Driver\src/stm32f10x_dma.c **** 
  22:.\stlib\STM32F10x_StdPeriph_Driver\src/stm32f10x_dma.c **** /* Includes ------------------------------------------------------------------*/
  23:.\stlib\STM32F10x_StdPeriph_Driver\src/stm32f10x_dma.c **** #include "stm32f10x_dma.h"
  24:.\stlib\STM32F10x_StdPeriph_Driver\src/stm32f10x_dma.c **** #include "stm32f10x_rcc.h"
  25:.\stlib\STM32F10x_StdPeriph_Driver\src/stm32f10x_dma.c **** 
  26:.\stlib\STM32F10x_StdPeriph_Driver\src/stm32f10x_dma.c **** /** @addtogroup STM32F10x_StdPeriph_Driver
  27:.\stlib\STM32F10x_StdPeriph_Driver\src/stm32f10x_dma.c ****   * @{
ARM GAS  C:\Users\skey\AppData\Local\Temp\ccsfckNU.s 			page 3


  28:.\stlib\STM32F10x_StdPeriph_Driver\src/stm32f10x_dma.c ****   */
  29:.\stlib\STM32F10x_StdPeriph_Driver\src/stm32f10x_dma.c **** 
  30:.\stlib\STM32F10x_StdPeriph_Driver\src/stm32f10x_dma.c **** /** @defgroup DMA 
  31:.\stlib\STM32F10x_StdPeriph_Driver\src/stm32f10x_dma.c ****   * @brief DMA driver modules
  32:.\stlib\STM32F10x_StdPeriph_Driver\src/stm32f10x_dma.c ****   * @{
  33:.\stlib\STM32F10x_StdPeriph_Driver\src/stm32f10x_dma.c ****   */ 
  34:.\stlib\STM32F10x_StdPeriph_Driver\src/stm32f10x_dma.c **** 
  35:.\stlib\STM32F10x_StdPeriph_Driver\src/stm32f10x_dma.c **** /** @defgroup DMA_Private_TypesDefinitions
  36:.\stlib\STM32F10x_StdPeriph_Driver\src/stm32f10x_dma.c ****   * @{
  37:.\stlib\STM32F10x_StdPeriph_Driver\src/stm32f10x_dma.c ****   */ 
  38:.\stlib\STM32F10x_StdPeriph_Driver\src/stm32f10x_dma.c **** /**
  39:.\stlib\STM32F10x_StdPeriph_Driver\src/stm32f10x_dma.c ****   * @}
  40:.\stlib\STM32F10x_StdPeriph_Driver\src/stm32f10x_dma.c ****   */
  41:.\stlib\STM32F10x_StdPeriph_Driver\src/stm32f10x_dma.c **** 
  42:.\stlib\STM32F10x_StdPeriph_Driver\src/stm32f10x_dma.c **** /** @defgroup DMA_Private_Defines
  43:.\stlib\STM32F10x_StdPeriph_Driver\src/stm32f10x_dma.c ****   * @{
  44:.\stlib\STM32F10x_StdPeriph_Driver\src/stm32f10x_dma.c ****   */
  45:.\stlib\STM32F10x_StdPeriph_Driver\src/stm32f10x_dma.c **** 
  46:.\stlib\STM32F10x_StdPeriph_Driver\src/stm32f10x_dma.c **** 
  47:.\stlib\STM32F10x_StdPeriph_Driver\src/stm32f10x_dma.c **** /* DMA1 Channelx interrupt pending bit masks */
  48:.\stlib\STM32F10x_StdPeriph_Driver\src/stm32f10x_dma.c **** #define DMA1_Channel1_IT_Mask    ((uint32_t)(DMA_ISR_GIF1 | DMA_ISR_TCIF1 | DMA_ISR_HTIF1 | DMA_ISR
  49:.\stlib\STM32F10x_StdPeriph_Driver\src/stm32f10x_dma.c **** #define DMA1_Channel2_IT_Mask    ((uint32_t)(DMA_ISR_GIF2 | DMA_ISR_TCIF2 | DMA_ISR_HTIF2 | DMA_ISR
  50:.\stlib\STM32F10x_StdPeriph_Driver\src/stm32f10x_dma.c **** #define DMA1_Channel3_IT_Mask    ((uint32_t)(DMA_ISR_GIF3 | DMA_ISR_TCIF3 | DMA_ISR_HTIF3 | DMA_ISR
  51:.\stlib\STM32F10x_StdPeriph_Driver\src/stm32f10x_dma.c **** #define DMA1_Channel4_IT_Mask    ((uint32_t)(DMA_ISR_GIF4 | DMA_ISR_TCIF4 | DMA_ISR_HTIF4 | DMA_ISR
  52:.\stlib\STM32F10x_StdPeriph_Driver\src/stm32f10x_dma.c **** #define DMA1_Channel5_IT_Mask    ((uint32_t)(DMA_ISR_GIF5 | DMA_ISR_TCIF5 | DMA_ISR_HTIF5 | DMA_ISR
  53:.\stlib\STM32F10x_StdPeriph_Driver\src/stm32f10x_dma.c **** #define DMA1_Channel6_IT_Mask    ((uint32_t)(DMA_ISR_GIF6 | DMA_ISR_TCIF6 | DMA_ISR_HTIF6 | DMA_ISR
  54:.\stlib\STM32F10x_StdPeriph_Driver\src/stm32f10x_dma.c **** #define DMA1_Channel7_IT_Mask    ((uint32_t)(DMA_ISR_GIF7 | DMA_ISR_TCIF7 | DMA_ISR_HTIF7 | DMA_ISR
  55:.\stlib\STM32F10x_StdPeriph_Driver\src/stm32f10x_dma.c **** 
  56:.\stlib\STM32F10x_StdPeriph_Driver\src/stm32f10x_dma.c **** /* DMA2 Channelx interrupt pending bit masks */
  57:.\stlib\STM32F10x_StdPeriph_Driver\src/stm32f10x_dma.c **** #define DMA2_Channel1_IT_Mask    ((uint32_t)(DMA_ISR_GIF1 | DMA_ISR_TCIF1 | DMA_ISR_HTIF1 | DMA_ISR
  58:.\stlib\STM32F10x_StdPeriph_Driver\src/stm32f10x_dma.c **** #define DMA2_Channel2_IT_Mask    ((uint32_t)(DMA_ISR_GIF2 | DMA_ISR_TCIF2 | DMA_ISR_HTIF2 | DMA_ISR
  59:.\stlib\STM32F10x_StdPeriph_Driver\src/stm32f10x_dma.c **** #define DMA2_Channel3_IT_Mask    ((uint32_t)(DMA_ISR_GIF3 | DMA_ISR_TCIF3 | DMA_ISR_HTIF3 | DMA_ISR
  60:.\stlib\STM32F10x_StdPeriph_Driver\src/stm32f10x_dma.c **** #define DMA2_Channel4_IT_Mask    ((uint32_t)(DMA_ISR_GIF4 | DMA_ISR_TCIF4 | DMA_ISR_HTIF4 | DMA_ISR
  61:.\stlib\STM32F10x_StdPeriph_Driver\src/stm32f10x_dma.c **** #define DMA2_Channel5_IT_Mask    ((uint32_t)(DMA_ISR_GIF5 | DMA_ISR_TCIF5 | DMA_ISR_HTIF5 | DMA_ISR
  62:.\stlib\STM32F10x_StdPeriph_Driver\src/stm32f10x_dma.c **** 
  63:.\stlib\STM32F10x_StdPeriph_Driver\src/stm32f10x_dma.c **** /* DMA2 FLAG mask */
  64:.\stlib\STM32F10x_StdPeriph_Driver\src/stm32f10x_dma.c **** #define FLAG_Mask                ((uint32_t)0x10000000)
  65:.\stlib\STM32F10x_StdPeriph_Driver\src/stm32f10x_dma.c **** 
  66:.\stlib\STM32F10x_StdPeriph_Driver\src/stm32f10x_dma.c **** /* DMA registers Masks */
  67:.\stlib\STM32F10x_StdPeriph_Driver\src/stm32f10x_dma.c **** #define CCR_CLEAR_Mask           ((uint32_t)0xFFFF800F)
  68:.\stlib\STM32F10x_StdPeriph_Driver\src/stm32f10x_dma.c **** 
  69:.\stlib\STM32F10x_StdPeriph_Driver\src/stm32f10x_dma.c **** /**
  70:.\stlib\STM32F10x_StdPeriph_Driver\src/stm32f10x_dma.c ****   * @}
  71:.\stlib\STM32F10x_StdPeriph_Driver\src/stm32f10x_dma.c ****   */
  72:.\stlib\STM32F10x_StdPeriph_Driver\src/stm32f10x_dma.c **** 
  73:.\stlib\STM32F10x_StdPeriph_Driver\src/stm32f10x_dma.c **** /** @defgroup DMA_Private_Macros
  74:.\stlib\STM32F10x_StdPeriph_Driver\src/stm32f10x_dma.c ****   * @{
  75:.\stlib\STM32F10x_StdPeriph_Driver\src/stm32f10x_dma.c ****   */
  76:.\stlib\STM32F10x_StdPeriph_Driver\src/stm32f10x_dma.c **** 
  77:.\stlib\STM32F10x_StdPeriph_Driver\src/stm32f10x_dma.c **** /**
  78:.\stlib\STM32F10x_StdPeriph_Driver\src/stm32f10x_dma.c ****   * @}
  79:.\stlib\STM32F10x_StdPeriph_Driver\src/stm32f10x_dma.c ****   */
  80:.\stlib\STM32F10x_StdPeriph_Driver\src/stm32f10x_dma.c **** 
  81:.\stlib\STM32F10x_StdPeriph_Driver\src/stm32f10x_dma.c **** /** @defgroup DMA_Private_Variables
  82:.\stlib\STM32F10x_StdPeriph_Driver\src/stm32f10x_dma.c ****   * @{
  83:.\stlib\STM32F10x_StdPeriph_Driver\src/stm32f10x_dma.c ****   */
  84:.\stlib\STM32F10x_StdPeriph_Driver\src/stm32f10x_dma.c **** 
ARM GAS  C:\Users\skey\AppData\Local\Temp\ccsfckNU.s 			page 4


  85:.\stlib\STM32F10x_StdPeriph_Driver\src/stm32f10x_dma.c **** /**
  86:.\stlib\STM32F10x_StdPeriph_Driver\src/stm32f10x_dma.c ****   * @}
  87:.\stlib\STM32F10x_StdPeriph_Driver\src/stm32f10x_dma.c ****   */
  88:.\stlib\STM32F10x_StdPeriph_Driver\src/stm32f10x_dma.c **** 
  89:.\stlib\STM32F10x_StdPeriph_Driver\src/stm32f10x_dma.c **** /** @defgroup DMA_Private_FunctionPrototypes
  90:.\stlib\STM32F10x_StdPeriph_Driver\src/stm32f10x_dma.c ****   * @{
  91:.\stlib\STM32F10x_StdPeriph_Driver\src/stm32f10x_dma.c ****   */
  92:.\stlib\STM32F10x_StdPeriph_Driver\src/stm32f10x_dma.c **** 
  93:.\stlib\STM32F10x_StdPeriph_Driver\src/stm32f10x_dma.c **** /**
  94:.\stlib\STM32F10x_StdPeriph_Driver\src/stm32f10x_dma.c ****   * @}
  95:.\stlib\STM32F10x_StdPeriph_Driver\src/stm32f10x_dma.c ****   */
  96:.\stlib\STM32F10x_StdPeriph_Driver\src/stm32f10x_dma.c **** 
  97:.\stlib\STM32F10x_StdPeriph_Driver\src/stm32f10x_dma.c **** /** @defgroup DMA_Private_Functions
  98:.\stlib\STM32F10x_StdPeriph_Driver\src/stm32f10x_dma.c ****   * @{
  99:.\stlib\STM32F10x_StdPeriph_Driver\src/stm32f10x_dma.c ****   */
 100:.\stlib\STM32F10x_StdPeriph_Driver\src/stm32f10x_dma.c **** 
 101:.\stlib\STM32F10x_StdPeriph_Driver\src/stm32f10x_dma.c **** /**
 102:.\stlib\STM32F10x_StdPeriph_Driver\src/stm32f10x_dma.c ****   * @brief  Deinitializes the DMAy Channelx registers to their default reset
 103:.\stlib\STM32F10x_StdPeriph_Driver\src/stm32f10x_dma.c ****   *         values.
 104:.\stlib\STM32F10x_StdPeriph_Driver\src/stm32f10x_dma.c ****   * @param  DMAy_Channelx: where y can be 1 or 2 to select the DMA and
 105:.\stlib\STM32F10x_StdPeriph_Driver\src/stm32f10x_dma.c ****   *   x can be 1 to 7 for DMA1 and 1 to 5 for DMA2 to select the DMA Channel.
 106:.\stlib\STM32F10x_StdPeriph_Driver\src/stm32f10x_dma.c ****   * @retval None
 107:.\stlib\STM32F10x_StdPeriph_Driver\src/stm32f10x_dma.c ****   */
 108:.\stlib\STM32F10x_StdPeriph_Driver\src/stm32f10x_dma.c **** void DMA_DeInit(DMA_Channel_TypeDef* DMAy_Channelx)
 109:.\stlib\STM32F10x_StdPeriph_Driver\src/stm32f10x_dma.c **** {
  88              		.loc 1 109 1 view -0
  89              		.cfi_startproc
  90              		@ args = 0, pretend = 0, frame = 0
  91              		@ frame_needed = 0, uses_anonymous_args = 0
  92              		@ link register save eliminated.
 110:.\stlib\STM32F10x_StdPeriph_Driver\src/stm32f10x_dma.c ****   /* Check the parameters */
 111:.\stlib\STM32F10x_StdPeriph_Driver\src/stm32f10x_dma.c ****   assert_param(IS_DMA_ALL_PERIPH(DMAy_Channelx));
  93              		.loc 1 111 3 view .LVU1
 112:.\stlib\STM32F10x_StdPeriph_Driver\src/stm32f10x_dma.c ****   
 113:.\stlib\STM32F10x_StdPeriph_Driver\src/stm32f10x_dma.c ****   /* Disable the selected DMAy Channelx */
 114:.\stlib\STM32F10x_StdPeriph_Driver\src/stm32f10x_dma.c ****   DMAy_Channelx->CCR &= (uint16_t)(~DMA_CCR1_EN);
  94              		.loc 1 114 3 view .LVU2
  95              	@ .\stlib\STM32F10x_StdPeriph_Driver\src\stm32f10x_dma.c:114:   DMAy_Channelx->CCR &= (uint16_t)(~D
  96              		.loc 1 114 22 is_stmt 0 view .LVU3
  97 0000 0368     		ldr	r3, [r0]	@ _1, DMAy_Channelx_29(D)->CCR
  98 0002 23F00103 		bic	r3, r3, #1	@ _2, _1,
  99 0006 1B04     		lsls	r3, r3, #16	@ _2, _2,
 100 0008 1B0C     		lsrs	r3, r3, #16	@ _2, _2,
 101 000a 0360     		str	r3, [r0]	@ _2, DMAy_Channelx_29(D)->CCR
 115:.\stlib\STM32F10x_StdPeriph_Driver\src/stm32f10x_dma.c ****   
 116:.\stlib\STM32F10x_StdPeriph_Driver\src/stm32f10x_dma.c ****   /* Reset DMAy Channelx control register */
 117:.\stlib\STM32F10x_StdPeriph_Driver\src/stm32f10x_dma.c ****   DMAy_Channelx->CCR  = 0;
 102              		.loc 1 117 3 is_stmt 1 view .LVU4
 103              	@ .\stlib\STM32F10x_StdPeriph_Driver\src\stm32f10x_dma.c:117:   DMAy_Channelx->CCR  = 0;
 104              		.loc 1 117 23 is_stmt 0 view .LVU5
 105 000c 0023     		movs	r3, #0	@ tmp138,
 106 000e 0360     		str	r3, [r0]	@ tmp138, DMAy_Channelx_29(D)->CCR
 118:.\stlib\STM32F10x_StdPeriph_Driver\src/stm32f10x_dma.c ****   
 119:.\stlib\STM32F10x_StdPeriph_Driver\src/stm32f10x_dma.c ****   /* Reset DMAy Channelx remaining bytes register */
 120:.\stlib\STM32F10x_StdPeriph_Driver\src/stm32f10x_dma.c ****   DMAy_Channelx->CNDTR = 0;
 107              		.loc 1 120 3 is_stmt 1 view .LVU6
 108              	@ .\stlib\STM32F10x_StdPeriph_Driver\src\stm32f10x_dma.c:120:   DMAy_Channelx->CNDTR = 0;
ARM GAS  C:\Users\skey\AppData\Local\Temp\ccsfckNU.s 			page 5


 109              		.loc 1 120 24 is_stmt 0 view .LVU7
 110 0010 4360     		str	r3, [r0, #4]	@ tmp138, DMAy_Channelx_29(D)->CNDTR
 121:.\stlib\STM32F10x_StdPeriph_Driver\src/stm32f10x_dma.c ****   
 122:.\stlib\STM32F10x_StdPeriph_Driver\src/stm32f10x_dma.c ****   /* Reset DMAy Channelx peripheral address register */
 123:.\stlib\STM32F10x_StdPeriph_Driver\src/stm32f10x_dma.c ****   DMAy_Channelx->CPAR  = 0;
 111              		.loc 1 123 3 is_stmt 1 view .LVU8
 112              	@ .\stlib\STM32F10x_StdPeriph_Driver\src\stm32f10x_dma.c:123:   DMAy_Channelx->CPAR  = 0;
 113              		.loc 1 123 24 is_stmt 0 view .LVU9
 114 0012 8360     		str	r3, [r0, #8]	@ tmp138, DMAy_Channelx_29(D)->CPAR
 124:.\stlib\STM32F10x_StdPeriph_Driver\src/stm32f10x_dma.c ****   
 125:.\stlib\STM32F10x_StdPeriph_Driver\src/stm32f10x_dma.c ****   /* Reset DMAy Channelx memory address register */
 126:.\stlib\STM32F10x_StdPeriph_Driver\src/stm32f10x_dma.c ****   DMAy_Channelx->CMAR = 0;
 115              		.loc 1 126 3 is_stmt 1 view .LVU10
 116              	@ .\stlib\STM32F10x_StdPeriph_Driver\src\stm32f10x_dma.c:126:   DMAy_Channelx->CMAR = 0;
 117              		.loc 1 126 23 is_stmt 0 view .LVU11
 118 0014 C360     		str	r3, [r0, #12]	@ tmp138, DMAy_Channelx_29(D)->CMAR
 127:.\stlib\STM32F10x_StdPeriph_Driver\src/stm32f10x_dma.c ****   
 128:.\stlib\STM32F10x_StdPeriph_Driver\src/stm32f10x_dma.c ****   if (DMAy_Channelx == DMA1_Channel1)
 119              		.loc 1 128 3 is_stmt 1 view .LVU12
 120              	@ .\stlib\STM32F10x_StdPeriph_Driver\src\stm32f10x_dma.c:128:   if (DMAy_Channelx == DMA1_Channel1)
 121              		.loc 1 128 6 is_stmt 0 view .LVU13
 122 0016 294B     		ldr	r3, .L20	@ tmp142,
 123 0018 9842     		cmp	r0, r3	@ DMAy_Channelx, tmp142
 124 001a 04D1     		bne	.L2		@,
 129:.\stlib\STM32F10x_StdPeriph_Driver\src/stm32f10x_dma.c ****   {
 130:.\stlib\STM32F10x_StdPeriph_Driver\src/stm32f10x_dma.c ****     /* Reset interrupt pending bits for DMA1 Channel1 */
 131:.\stlib\STM32F10x_StdPeriph_Driver\src/stm32f10x_dma.c ****     DMA1->IFCR |= DMA1_Channel1_IT_Mask;
 125              		.loc 1 131 5 is_stmt 1 view .LVU14
 126              	@ .\stlib\STM32F10x_StdPeriph_Driver\src\stm32f10x_dma.c:131:     DMA1->IFCR |= DMA1_Channel1_IT_Ma
 127              		.loc 1 131 16 is_stmt 0 view .LVU15
 128 001c 284A     		ldr	r2, .L20+4	@ tmp143,
 129              	.L16:
 130              	@ .\stlib\STM32F10x_StdPeriph_Driver\src\stm32f10x_dma.c:166:     DMA2->IFCR |= DMA2_Channel1_IT_Ma
 132:.\stlib\STM32F10x_StdPeriph_Driver\src/stm32f10x_dma.c ****   }
 133:.\stlib\STM32F10x_StdPeriph_Driver\src/stm32f10x_dma.c ****   else if (DMAy_Channelx == DMA1_Channel2)
 134:.\stlib\STM32F10x_StdPeriph_Driver\src/stm32f10x_dma.c ****   {
 135:.\stlib\STM32F10x_StdPeriph_Driver\src/stm32f10x_dma.c ****     /* Reset interrupt pending bits for DMA1 Channel2 */
 136:.\stlib\STM32F10x_StdPeriph_Driver\src/stm32f10x_dma.c ****     DMA1->IFCR |= DMA1_Channel2_IT_Mask;
 137:.\stlib\STM32F10x_StdPeriph_Driver\src/stm32f10x_dma.c ****   }
 138:.\stlib\STM32F10x_StdPeriph_Driver\src/stm32f10x_dma.c ****   else if (DMAy_Channelx == DMA1_Channel3)
 139:.\stlib\STM32F10x_StdPeriph_Driver\src/stm32f10x_dma.c ****   {
 140:.\stlib\STM32F10x_StdPeriph_Driver\src/stm32f10x_dma.c ****     /* Reset interrupt pending bits for DMA1 Channel3 */
 141:.\stlib\STM32F10x_StdPeriph_Driver\src/stm32f10x_dma.c ****     DMA1->IFCR |= DMA1_Channel3_IT_Mask;
 142:.\stlib\STM32F10x_StdPeriph_Driver\src/stm32f10x_dma.c ****   }
 143:.\stlib\STM32F10x_StdPeriph_Driver\src/stm32f10x_dma.c ****   else if (DMAy_Channelx == DMA1_Channel4)
 144:.\stlib\STM32F10x_StdPeriph_Driver\src/stm32f10x_dma.c ****   {
 145:.\stlib\STM32F10x_StdPeriph_Driver\src/stm32f10x_dma.c ****     /* Reset interrupt pending bits for DMA1 Channel4 */
 146:.\stlib\STM32F10x_StdPeriph_Driver\src/stm32f10x_dma.c ****     DMA1->IFCR |= DMA1_Channel4_IT_Mask;
 147:.\stlib\STM32F10x_StdPeriph_Driver\src/stm32f10x_dma.c ****   }
 148:.\stlib\STM32F10x_StdPeriph_Driver\src/stm32f10x_dma.c ****   else if (DMAy_Channelx == DMA1_Channel5)
 149:.\stlib\STM32F10x_StdPeriph_Driver\src/stm32f10x_dma.c ****   {
 150:.\stlib\STM32F10x_StdPeriph_Driver\src/stm32f10x_dma.c ****     /* Reset interrupt pending bits for DMA1 Channel5 */
 151:.\stlib\STM32F10x_StdPeriph_Driver\src/stm32f10x_dma.c ****     DMA1->IFCR |= DMA1_Channel5_IT_Mask;
 152:.\stlib\STM32F10x_StdPeriph_Driver\src/stm32f10x_dma.c ****   }
 153:.\stlib\STM32F10x_StdPeriph_Driver\src/stm32f10x_dma.c ****   else if (DMAy_Channelx == DMA1_Channel6)
 154:.\stlib\STM32F10x_StdPeriph_Driver\src/stm32f10x_dma.c ****   {
 155:.\stlib\STM32F10x_StdPeriph_Driver\src/stm32f10x_dma.c ****     /* Reset interrupt pending bits for DMA1 Channel6 */
ARM GAS  C:\Users\skey\AppData\Local\Temp\ccsfckNU.s 			page 6


 156:.\stlib\STM32F10x_StdPeriph_Driver\src/stm32f10x_dma.c ****     DMA1->IFCR |= DMA1_Channel6_IT_Mask;
 157:.\stlib\STM32F10x_StdPeriph_Driver\src/stm32f10x_dma.c ****   }
 158:.\stlib\STM32F10x_StdPeriph_Driver\src/stm32f10x_dma.c ****   else if (DMAy_Channelx == DMA1_Channel7)
 159:.\stlib\STM32F10x_StdPeriph_Driver\src/stm32f10x_dma.c ****   {
 160:.\stlib\STM32F10x_StdPeriph_Driver\src/stm32f10x_dma.c ****     /* Reset interrupt pending bits for DMA1 Channel7 */
 161:.\stlib\STM32F10x_StdPeriph_Driver\src/stm32f10x_dma.c ****     DMA1->IFCR |= DMA1_Channel7_IT_Mask;
 162:.\stlib\STM32F10x_StdPeriph_Driver\src/stm32f10x_dma.c ****   }
 163:.\stlib\STM32F10x_StdPeriph_Driver\src/stm32f10x_dma.c ****   else if (DMAy_Channelx == DMA2_Channel1)
 164:.\stlib\STM32F10x_StdPeriph_Driver\src/stm32f10x_dma.c ****   {
 165:.\stlib\STM32F10x_StdPeriph_Driver\src/stm32f10x_dma.c ****     /* Reset interrupt pending bits for DMA2 Channel1 */
 166:.\stlib\STM32F10x_StdPeriph_Driver\src/stm32f10x_dma.c ****     DMA2->IFCR |= DMA2_Channel1_IT_Mask;
 131              		.loc 1 166 16 view .LVU16
 132 001e 5368     		ldr	r3, [r2, #4]	@ _17,
 133 0020 43F00F03 		orr	r3, r3, #15	@ _18, _17,
 134 0024 26E0     		b	.L14		@
 135              	.L2:
 133:.\stlib\STM32F10x_StdPeriph_Driver\src/stm32f10x_dma.c ****   {
 136              		.loc 1 133 8 is_stmt 1 view .LVU17
 137              	@ .\stlib\STM32F10x_StdPeriph_Driver\src\stm32f10x_dma.c:133:   else if (DMAy_Channelx == DMA1_Chan
 133:.\stlib\STM32F10x_StdPeriph_Driver\src/stm32f10x_dma.c ****   {
 138              		.loc 1 133 11 is_stmt 0 view .LVU18
 139 0026 274B     		ldr	r3, .L20+8	@ tmp145,
 140 0028 9842     		cmp	r0, r3	@ DMAy_Channelx, tmp145
 141 002a 04D1     		bne	.L4		@,
 136:.\stlib\STM32F10x_StdPeriph_Driver\src/stm32f10x_dma.c ****   }
 142              		.loc 1 136 5 is_stmt 1 view .LVU19
 143              	@ .\stlib\STM32F10x_StdPeriph_Driver\src\stm32f10x_dma.c:136:     DMA1->IFCR |= DMA1_Channel2_IT_Ma
 136:.\stlib\STM32F10x_StdPeriph_Driver\src/stm32f10x_dma.c ****   }
 144              		.loc 1 136 16 is_stmt 0 view .LVU20
 145 002c 244A     		ldr	r2, .L20+4	@ tmp146,
 146              	.L17:
 147              	@ .\stlib\STM32F10x_StdPeriph_Driver\src\stm32f10x_dma.c:171:     DMA2->IFCR |= DMA2_Channel2_IT_Ma
 167:.\stlib\STM32F10x_StdPeriph_Driver\src/stm32f10x_dma.c ****   }
 168:.\stlib\STM32F10x_StdPeriph_Driver\src/stm32f10x_dma.c ****   else if (DMAy_Channelx == DMA2_Channel2)
 169:.\stlib\STM32F10x_StdPeriph_Driver\src/stm32f10x_dma.c ****   {
 170:.\stlib\STM32F10x_StdPeriph_Driver\src/stm32f10x_dma.c ****     /* Reset interrupt pending bits for DMA2 Channel2 */
 171:.\stlib\STM32F10x_StdPeriph_Driver\src/stm32f10x_dma.c ****     DMA2->IFCR |= DMA2_Channel2_IT_Mask;
 148              		.loc 1 171 16 view .LVU21
 149 002e 5368     		ldr	r3, [r2, #4]	@ _19,
 150 0030 43F0F003 		orr	r3, r3, #240	@ _20, _19,
 151 0034 1EE0     		b	.L14		@
 152              	.L4:
 138:.\stlib\STM32F10x_StdPeriph_Driver\src/stm32f10x_dma.c ****   {
 153              		.loc 1 138 8 is_stmt 1 view .LVU22
 154              	@ .\stlib\STM32F10x_StdPeriph_Driver\src\stm32f10x_dma.c:138:   else if (DMAy_Channelx == DMA1_Chan
 138:.\stlib\STM32F10x_StdPeriph_Driver\src/stm32f10x_dma.c ****   {
 155              		.loc 1 138 11 is_stmt 0 view .LVU23
 156 0036 244B     		ldr	r3, .L20+12	@ tmp148,
 157 0038 9842     		cmp	r0, r3	@ DMAy_Channelx, tmp148
 158 003a 04D1     		bne	.L5		@,
 141:.\stlib\STM32F10x_StdPeriph_Driver\src/stm32f10x_dma.c ****   }
 159              		.loc 1 141 5 is_stmt 1 view .LVU24
 160              	@ .\stlib\STM32F10x_StdPeriph_Driver\src\stm32f10x_dma.c:141:     DMA1->IFCR |= DMA1_Channel3_IT_Ma
 141:.\stlib\STM32F10x_StdPeriph_Driver\src/stm32f10x_dma.c ****   }
 161              		.loc 1 141 16 is_stmt 0 view .LVU25
 162 003c 204A     		ldr	r2, .L20+4	@ tmp149,
 163              	.L18:
ARM GAS  C:\Users\skey\AppData\Local\Temp\ccsfckNU.s 			page 7


 164              	@ .\stlib\STM32F10x_StdPeriph_Driver\src\stm32f10x_dma.c:176:     DMA2->IFCR |= DMA2_Channel3_IT_Ma
 172:.\stlib\STM32F10x_StdPeriph_Driver\src/stm32f10x_dma.c ****   }
 173:.\stlib\STM32F10x_StdPeriph_Driver\src/stm32f10x_dma.c ****   else if (DMAy_Channelx == DMA2_Channel3)
 174:.\stlib\STM32F10x_StdPeriph_Driver\src/stm32f10x_dma.c ****   {
 175:.\stlib\STM32F10x_StdPeriph_Driver\src/stm32f10x_dma.c ****     /* Reset interrupt pending bits for DMA2 Channel3 */
 176:.\stlib\STM32F10x_StdPeriph_Driver\src/stm32f10x_dma.c ****     DMA2->IFCR |= DMA2_Channel3_IT_Mask;
 165              		.loc 1 176 16 view .LVU26
 166 003e 5368     		ldr	r3, [r2, #4]	@ _21,
 167 0040 43F47063 		orr	r3, r3, #3840	@ _22, _21,
 168 0044 16E0     		b	.L14		@
 169              	.L5:
 143:.\stlib\STM32F10x_StdPeriph_Driver\src/stm32f10x_dma.c ****   {
 170              		.loc 1 143 8 is_stmt 1 view .LVU27
 171              	@ .\stlib\STM32F10x_StdPeriph_Driver\src\stm32f10x_dma.c:143:   else if (DMAy_Channelx == DMA1_Chan
 143:.\stlib\STM32F10x_StdPeriph_Driver\src/stm32f10x_dma.c ****   {
 172              		.loc 1 143 11 is_stmt 0 view .LVU28
 173 0046 214B     		ldr	r3, .L20+16	@ tmp151,
 174 0048 9842     		cmp	r0, r3	@ DMAy_Channelx, tmp151
 175 004a 04D1     		bne	.L6		@,
 146:.\stlib\STM32F10x_StdPeriph_Driver\src/stm32f10x_dma.c ****   }
 176              		.loc 1 146 5 is_stmt 1 view .LVU29
 177              	@ .\stlib\STM32F10x_StdPeriph_Driver\src\stm32f10x_dma.c:146:     DMA1->IFCR |= DMA1_Channel4_IT_Ma
 146:.\stlib\STM32F10x_StdPeriph_Driver\src/stm32f10x_dma.c ****   }
 178              		.loc 1 146 16 is_stmt 0 view .LVU30
 179 004c 1C4A     		ldr	r2, .L20+4	@ tmp152,
 180              	.L19:
 181              	@ .\stlib\STM32F10x_StdPeriph_Driver\src\stm32f10x_dma.c:181:     DMA2->IFCR |= DMA2_Channel4_IT_Ma
 177:.\stlib\STM32F10x_StdPeriph_Driver\src/stm32f10x_dma.c ****   }
 178:.\stlib\STM32F10x_StdPeriph_Driver\src/stm32f10x_dma.c ****   else if (DMAy_Channelx == DMA2_Channel4)
 179:.\stlib\STM32F10x_StdPeriph_Driver\src/stm32f10x_dma.c ****   {
 180:.\stlib\STM32F10x_StdPeriph_Driver\src/stm32f10x_dma.c ****     /* Reset interrupt pending bits for DMA2 Channel4 */
 181:.\stlib\STM32F10x_StdPeriph_Driver\src/stm32f10x_dma.c ****     DMA2->IFCR |= DMA2_Channel4_IT_Mask;
 182              		.loc 1 181 16 view .LVU31
 183 004e 5368     		ldr	r3, [r2, #4]	@ _23,
 184 0050 43F47043 		orr	r3, r3, #61440	@ _24, _23,
 185 0054 0EE0     		b	.L14		@
 186              	.L6:
 148:.\stlib\STM32F10x_StdPeriph_Driver\src/stm32f10x_dma.c ****   {
 187              		.loc 1 148 8 is_stmt 1 view .LVU32
 188              	@ .\stlib\STM32F10x_StdPeriph_Driver\src\stm32f10x_dma.c:148:   else if (DMAy_Channelx == DMA1_Chan
 148:.\stlib\STM32F10x_StdPeriph_Driver\src/stm32f10x_dma.c ****   {
 189              		.loc 1 148 11 is_stmt 0 view .LVU33
 190 0056 1E4B     		ldr	r3, .L20+20	@ tmp154,
 191 0058 9842     		cmp	r0, r3	@ DMAy_Channelx, tmp154
 192 005a 04D1     		bne	.L7		@,
 151:.\stlib\STM32F10x_StdPeriph_Driver\src/stm32f10x_dma.c ****   }
 193              		.loc 1 151 5 is_stmt 1 view .LVU34
 194              	@ .\stlib\STM32F10x_StdPeriph_Driver\src\stm32f10x_dma.c:151:     DMA1->IFCR |= DMA1_Channel5_IT_Ma
 151:.\stlib\STM32F10x_StdPeriph_Driver\src/stm32f10x_dma.c ****   }
 195              		.loc 1 151 16 is_stmt 0 view .LVU35
 196 005c 184A     		ldr	r2, .L20+4	@ tmp155,
 197              	.L15:
 198              	@ .\stlib\STM32F10x_StdPeriph_Driver\src\stm32f10x_dma.c:188:       DMA2->IFCR |= DMA2_Channel5_IT_
 182:.\stlib\STM32F10x_StdPeriph_Driver\src/stm32f10x_dma.c ****   }
 183:.\stlib\STM32F10x_StdPeriph_Driver\src/stm32f10x_dma.c ****   else
 184:.\stlib\STM32F10x_StdPeriph_Driver\src/stm32f10x_dma.c ****   { 
 185:.\stlib\STM32F10x_StdPeriph_Driver\src/stm32f10x_dma.c ****     if (DMAy_Channelx == DMA2_Channel5)
ARM GAS  C:\Users\skey\AppData\Local\Temp\ccsfckNU.s 			page 8


 186:.\stlib\STM32F10x_StdPeriph_Driver\src/stm32f10x_dma.c ****     {
 187:.\stlib\STM32F10x_StdPeriph_Driver\src/stm32f10x_dma.c ****       /* Reset interrupt pending bits for DMA2 Channel5 */
 188:.\stlib\STM32F10x_StdPeriph_Driver\src/stm32f10x_dma.c ****       DMA2->IFCR |= DMA2_Channel5_IT_Mask;
 199              		.loc 1 188 18 view .LVU36
 200 005e 5368     		ldr	r3, [r2, #4]	@ _25,
 201 0060 43F47023 		orr	r3, r3, #983040	@ _26, _25,
 202 0064 06E0     		b	.L14		@
 203              	.L7:
 153:.\stlib\STM32F10x_StdPeriph_Driver\src/stm32f10x_dma.c ****   {
 204              		.loc 1 153 8 is_stmt 1 view .LVU37
 205              	@ .\stlib\STM32F10x_StdPeriph_Driver\src\stm32f10x_dma.c:153:   else if (DMAy_Channelx == DMA1_Chan
 153:.\stlib\STM32F10x_StdPeriph_Driver\src/stm32f10x_dma.c ****   {
 206              		.loc 1 153 11 is_stmt 0 view .LVU38
 207 0066 1B4B     		ldr	r3, .L20+24	@ tmp157,
 208 0068 9842     		cmp	r0, r3	@ DMAy_Channelx, tmp157
 209 006a 05D1     		bne	.L8		@,
 156:.\stlib\STM32F10x_StdPeriph_Driver\src/stm32f10x_dma.c ****   }
 210              		.loc 1 156 5 is_stmt 1 view .LVU39
 211              	@ .\stlib\STM32F10x_StdPeriph_Driver\src\stm32f10x_dma.c:156:     DMA1->IFCR |= DMA1_Channel6_IT_Ma
 156:.\stlib\STM32F10x_StdPeriph_Driver\src/stm32f10x_dma.c ****   }
 212              		.loc 1 156 16 is_stmt 0 view .LVU40
 213 006c 144A     		ldr	r2, .L20+4	@ tmp158,
 214 006e 5368     		ldr	r3, [r2, #4]	@ _13, MEM[(struct DMA_TypeDef *)1073872896B].IFCR
 215 0070 43F47003 		orr	r3, r3, #15728640	@ _14, _13,
 216              	.L14:
 217              	@ .\stlib\STM32F10x_StdPeriph_Driver\src\stm32f10x_dma.c:188:       DMA2->IFCR |= DMA2_Channel5_IT_
 218              		.loc 1 188 18 view .LVU41
 219 0074 5360     		str	r3, [r2, #4]	@ _26,
 220              	.L1:
 221              	@ .\stlib\STM32F10x_StdPeriph_Driver\src\stm32f10x_dma.c:191: }
 189:.\stlib\STM32F10x_StdPeriph_Driver\src/stm32f10x_dma.c ****     }
 190:.\stlib\STM32F10x_StdPeriph_Driver\src/stm32f10x_dma.c ****   }
 191:.\stlib\STM32F10x_StdPeriph_Driver\src/stm32f10x_dma.c **** }
 222              		.loc 1 191 1 view .LVU42
 223 0076 7047     		bx	lr	@
 224              	.L8:
 158:.\stlib\STM32F10x_StdPeriph_Driver\src/stm32f10x_dma.c ****   {
 225              		.loc 1 158 8 is_stmt 1 view .LVU43
 226              	@ .\stlib\STM32F10x_StdPeriph_Driver\src\stm32f10x_dma.c:158:   else if (DMAy_Channelx == DMA1_Chan
 158:.\stlib\STM32F10x_StdPeriph_Driver\src/stm32f10x_dma.c ****   {
 227              		.loc 1 158 11 is_stmt 0 view .LVU44
 228 0078 174B     		ldr	r3, .L20+28	@ tmp160,
 229 007a 9842     		cmp	r0, r3	@ DMAy_Channelx, tmp160
 230 007c 04D1     		bne	.L9		@,
 161:.\stlib\STM32F10x_StdPeriph_Driver\src/stm32f10x_dma.c ****   }
 231              		.loc 1 161 5 is_stmt 1 view .LVU45
 232              	@ .\stlib\STM32F10x_StdPeriph_Driver\src\stm32f10x_dma.c:161:     DMA1->IFCR |= DMA1_Channel7_IT_Ma
 161:.\stlib\STM32F10x_StdPeriph_Driver\src/stm32f10x_dma.c ****   }
 233              		.loc 1 161 16 is_stmt 0 view .LVU46
 234 007e 104A     		ldr	r2, .L20+4	@ tmp161,
 235 0080 5368     		ldr	r3, [r2, #4]	@ _15, MEM[(struct DMA_TypeDef *)1073872896B].IFCR
 236 0082 43F07063 		orr	r3, r3, #251658240	@ _16, _15,
 237 0086 F5E7     		b	.L14		@
 238              	.L9:
 163:.\stlib\STM32F10x_StdPeriph_Driver\src/stm32f10x_dma.c ****   {
 239              		.loc 1 163 8 is_stmt 1 view .LVU47
 240              	@ .\stlib\STM32F10x_StdPeriph_Driver\src\stm32f10x_dma.c:163:   else if (DMAy_Channelx == DMA2_Chan
ARM GAS  C:\Users\skey\AppData\Local\Temp\ccsfckNU.s 			page 9


 163:.\stlib\STM32F10x_StdPeriph_Driver\src/stm32f10x_dma.c ****   {
 241              		.loc 1 163 11 is_stmt 0 view .LVU48
 242 0088 144B     		ldr	r3, .L20+32	@ tmp163,
 243 008a 9842     		cmp	r0, r3	@ DMAy_Channelx, tmp163
 244 008c 01D1     		bne	.L10		@,
 166:.\stlib\STM32F10x_StdPeriph_Driver\src/stm32f10x_dma.c ****   }
 245              		.loc 1 166 5 is_stmt 1 view .LVU49
 246              	@ .\stlib\STM32F10x_StdPeriph_Driver\src\stm32f10x_dma.c:166:     DMA2->IFCR |= DMA2_Channel1_IT_Ma
 166:.\stlib\STM32F10x_StdPeriph_Driver\src/stm32f10x_dma.c ****   }
 247              		.loc 1 166 16 is_stmt 0 view .LVU50
 248 008e 144A     		ldr	r2, .L20+36	@ tmp164,
 249 0090 C5E7     		b	.L16		@
 250              	.L10:
 168:.\stlib\STM32F10x_StdPeriph_Driver\src/stm32f10x_dma.c ****   {
 251              		.loc 1 168 8 is_stmt 1 view .LVU51
 252              	@ .\stlib\STM32F10x_StdPeriph_Driver\src\stm32f10x_dma.c:168:   else if (DMAy_Channelx == DMA2_Chan
 168:.\stlib\STM32F10x_StdPeriph_Driver\src/stm32f10x_dma.c ****   {
 253              		.loc 1 168 11 is_stmt 0 view .LVU52
 254 0092 144B     		ldr	r3, .L20+40	@ tmp166,
 255 0094 9842     		cmp	r0, r3	@ DMAy_Channelx, tmp166
 256 0096 01D1     		bne	.L11		@,
 171:.\stlib\STM32F10x_StdPeriph_Driver\src/stm32f10x_dma.c ****   }
 257              		.loc 1 171 5 is_stmt 1 view .LVU53
 258              	@ .\stlib\STM32F10x_StdPeriph_Driver\src\stm32f10x_dma.c:171:     DMA2->IFCR |= DMA2_Channel2_IT_Ma
 171:.\stlib\STM32F10x_StdPeriph_Driver\src/stm32f10x_dma.c ****   }
 259              		.loc 1 171 16 is_stmt 0 view .LVU54
 260 0098 114A     		ldr	r2, .L20+36	@ tmp167,
 261 009a C8E7     		b	.L17		@
 262              	.L11:
 173:.\stlib\STM32F10x_StdPeriph_Driver\src/stm32f10x_dma.c ****   {
 263              		.loc 1 173 8 is_stmt 1 view .LVU55
 264              	@ .\stlib\STM32F10x_StdPeriph_Driver\src\stm32f10x_dma.c:173:   else if (DMAy_Channelx == DMA2_Chan
 173:.\stlib\STM32F10x_StdPeriph_Driver\src/stm32f10x_dma.c ****   {
 265              		.loc 1 173 11 is_stmt 0 view .LVU56
 266 009c 124B     		ldr	r3, .L20+44	@ tmp169,
 267 009e 9842     		cmp	r0, r3	@ DMAy_Channelx, tmp169
 268 00a0 01D1     		bne	.L12		@,
 176:.\stlib\STM32F10x_StdPeriph_Driver\src/stm32f10x_dma.c ****   }
 269              		.loc 1 176 5 is_stmt 1 view .LVU57
 270              	@ .\stlib\STM32F10x_StdPeriph_Driver\src\stm32f10x_dma.c:176:     DMA2->IFCR |= DMA2_Channel3_IT_Ma
 176:.\stlib\STM32F10x_StdPeriph_Driver\src/stm32f10x_dma.c ****   }
 271              		.loc 1 176 16 is_stmt 0 view .LVU58
 272 00a2 0F4A     		ldr	r2, .L20+36	@ tmp170,
 273 00a4 CBE7     		b	.L18		@
 274              	.L12:
 178:.\stlib\STM32F10x_StdPeriph_Driver\src/stm32f10x_dma.c ****   {
 275              		.loc 1 178 8 is_stmt 1 view .LVU59
 276              	@ .\stlib\STM32F10x_StdPeriph_Driver\src\stm32f10x_dma.c:178:   else if (DMAy_Channelx == DMA2_Chan
 178:.\stlib\STM32F10x_StdPeriph_Driver\src/stm32f10x_dma.c ****   {
 277              		.loc 1 178 11 is_stmt 0 view .LVU60
 278 00a6 114B     		ldr	r3, .L20+48	@ tmp172,
 279 00a8 9842     		cmp	r0, r3	@ DMAy_Channelx, tmp172
 280 00aa 01D1     		bne	.L13		@,
 181:.\stlib\STM32F10x_StdPeriph_Driver\src/stm32f10x_dma.c ****   }
 281              		.loc 1 181 5 is_stmt 1 view .LVU61
 282              	@ .\stlib\STM32F10x_StdPeriph_Driver\src\stm32f10x_dma.c:181:     DMA2->IFCR |= DMA2_Channel4_IT_Ma
 181:.\stlib\STM32F10x_StdPeriph_Driver\src/stm32f10x_dma.c ****   }
ARM GAS  C:\Users\skey\AppData\Local\Temp\ccsfckNU.s 			page 10


 283              		.loc 1 181 16 is_stmt 0 view .LVU62
 284 00ac 0C4A     		ldr	r2, .L20+36	@ tmp173,
 285 00ae CEE7     		b	.L19		@
 286              	.L13:
 185:.\stlib\STM32F10x_StdPeriph_Driver\src/stm32f10x_dma.c ****     {
 287              		.loc 1 185 5 is_stmt 1 view .LVU63
 288              	@ .\stlib\STM32F10x_StdPeriph_Driver\src\stm32f10x_dma.c:185:     if (DMAy_Channelx == DMA2_Channel
 185:.\stlib\STM32F10x_StdPeriph_Driver\src/stm32f10x_dma.c ****     {
 289              		.loc 1 185 8 is_stmt 0 view .LVU64
 290 00b0 0F4B     		ldr	r3, .L20+52	@ tmp175,
 291 00b2 9842     		cmp	r0, r3	@ DMAy_Channelx, tmp175
 292 00b4 DFD1     		bne	.L1		@,
 188:.\stlib\STM32F10x_StdPeriph_Driver\src/stm32f10x_dma.c ****     }
 293              		.loc 1 188 7 is_stmt 1 view .LVU65
 294              	@ .\stlib\STM32F10x_StdPeriph_Driver\src\stm32f10x_dma.c:188:       DMA2->IFCR |= DMA2_Channel5_IT_
 188:.\stlib\STM32F10x_StdPeriph_Driver\src/stm32f10x_dma.c ****     }
 295              		.loc 1 188 18 is_stmt 0 view .LVU66
 296 00b6 0A4A     		ldr	r2, .L20+36	@ tmp176,
 297 00b8 D1E7     		b	.L15		@
 298              	.L21:
 299 00ba 00BF     		.align	2
 300              	.L20:
 301 00bc 08000240 		.word	1073872904
 302 00c0 00000240 		.word	1073872896
 303 00c4 1C000240 		.word	1073872924
 304 00c8 30000240 		.word	1073872944
 305 00cc 44000240 		.word	1073872964
 306 00d0 58000240 		.word	1073872984
 307 00d4 6C000240 		.word	1073873004
 308 00d8 80000240 		.word	1073873024
 309 00dc 08040240 		.word	1073873928
 310 00e0 00040240 		.word	1073873920
 311 00e4 1C040240 		.word	1073873948
 312 00e8 30040240 		.word	1073873968
 313 00ec 44040240 		.word	1073873988
 314 00f0 58040240 		.word	1073874008
 315              		.cfi_endproc
 316              	.LFE29:
 317              		.size	DMA_DeInit, .-DMA_DeInit
 318              		.align	1
 319              		.global	DMA_Init
 320              		.syntax unified
 321              		.thumb
 322              		.thumb_func
 323              		.fpu softvfp
 324              		.type	DMA_Init, %function
 325              	DMA_Init:
 326              	.LVL1:
 327              	.LFB30:
 192:.\stlib\STM32F10x_StdPeriph_Driver\src/stm32f10x_dma.c **** 
 193:.\stlib\STM32F10x_StdPeriph_Driver\src/stm32f10x_dma.c **** /**
 194:.\stlib\STM32F10x_StdPeriph_Driver\src/stm32f10x_dma.c ****   * @brief  Initializes the DMAy Channelx according to the specified
 195:.\stlib\STM32F10x_StdPeriph_Driver\src/stm32f10x_dma.c ****   *         parameters in the DMA_InitStruct.
 196:.\stlib\STM32F10x_StdPeriph_Driver\src/stm32f10x_dma.c ****   * @param  DMAy_Channelx: where y can be 1 or 2 to select the DMA and 
 197:.\stlib\STM32F10x_StdPeriph_Driver\src/stm32f10x_dma.c ****   *   x can be 1 to 7 for DMA1 and 1 to 5 for DMA2 to select the DMA Channel.
 198:.\stlib\STM32F10x_StdPeriph_Driver\src/stm32f10x_dma.c ****   * @param  DMA_InitStruct: pointer to a DMA_InitTypeDef structure that
 199:.\stlib\STM32F10x_StdPeriph_Driver\src/stm32f10x_dma.c ****   *         contains the configuration information for the specified DMA Channel.
ARM GAS  C:\Users\skey\AppData\Local\Temp\ccsfckNU.s 			page 11


 200:.\stlib\STM32F10x_StdPeriph_Driver\src/stm32f10x_dma.c ****   * @retval None
 201:.\stlib\STM32F10x_StdPeriph_Driver\src/stm32f10x_dma.c ****   */
 202:.\stlib\STM32F10x_StdPeriph_Driver\src/stm32f10x_dma.c **** void DMA_Init(DMA_Channel_TypeDef* DMAy_Channelx, DMA_InitTypeDef* DMA_InitStruct)
 203:.\stlib\STM32F10x_StdPeriph_Driver\src/stm32f10x_dma.c **** {
 328              		.loc 1 203 1 is_stmt 1 view -0
 329              		.cfi_startproc
 330              		@ args = 0, pretend = 0, frame = 0
 331              		@ frame_needed = 0, uses_anonymous_args = 0
 204:.\stlib\STM32F10x_StdPeriph_Driver\src/stm32f10x_dma.c ****   uint32_t tmpreg = 0;
 332              		.loc 1 204 3 view .LVU68
 205:.\stlib\STM32F10x_StdPeriph_Driver\src/stm32f10x_dma.c **** 
 206:.\stlib\STM32F10x_StdPeriph_Driver\src/stm32f10x_dma.c ****   /* Check the parameters */
 207:.\stlib\STM32F10x_StdPeriph_Driver\src/stm32f10x_dma.c ****   assert_param(IS_DMA_ALL_PERIPH(DMAy_Channelx));
 333              		.loc 1 207 3 view .LVU69
 208:.\stlib\STM32F10x_StdPeriph_Driver\src/stm32f10x_dma.c ****   assert_param(IS_DMA_DIR(DMA_InitStruct->DMA_DIR));
 334              		.loc 1 208 3 view .LVU70
 209:.\stlib\STM32F10x_StdPeriph_Driver\src/stm32f10x_dma.c ****   assert_param(IS_DMA_BUFFER_SIZE(DMA_InitStruct->DMA_BufferSize));
 335              		.loc 1 209 3 view .LVU71
 210:.\stlib\STM32F10x_StdPeriph_Driver\src/stm32f10x_dma.c ****   assert_param(IS_DMA_PERIPHERAL_INC_STATE(DMA_InitStruct->DMA_PeripheralInc));
 336              		.loc 1 210 3 view .LVU72
 211:.\stlib\STM32F10x_StdPeriph_Driver\src/stm32f10x_dma.c ****   assert_param(IS_DMA_MEMORY_INC_STATE(DMA_InitStruct->DMA_MemoryInc));   
 337              		.loc 1 211 3 view .LVU73
 212:.\stlib\STM32F10x_StdPeriph_Driver\src/stm32f10x_dma.c ****   assert_param(IS_DMA_PERIPHERAL_DATA_SIZE(DMA_InitStruct->DMA_PeripheralDataSize));
 338              		.loc 1 212 3 view .LVU74
 213:.\stlib\STM32F10x_StdPeriph_Driver\src/stm32f10x_dma.c ****   assert_param(IS_DMA_MEMORY_DATA_SIZE(DMA_InitStruct->DMA_MemoryDataSize));
 339              		.loc 1 213 3 view .LVU75
 214:.\stlib\STM32F10x_StdPeriph_Driver\src/stm32f10x_dma.c ****   assert_param(IS_DMA_MODE(DMA_InitStruct->DMA_Mode));
 340              		.loc 1 214 3 view .LVU76
 215:.\stlib\STM32F10x_StdPeriph_Driver\src/stm32f10x_dma.c ****   assert_param(IS_DMA_PRIORITY(DMA_InitStruct->DMA_Priority));
 341              		.loc 1 215 3 view .LVU77
 216:.\stlib\STM32F10x_StdPeriph_Driver\src/stm32f10x_dma.c ****   assert_param(IS_DMA_M2M_STATE(DMA_InitStruct->DMA_M2M));
 342              		.loc 1 216 3 view .LVU78
 217:.\stlib\STM32F10x_StdPeriph_Driver\src/stm32f10x_dma.c **** 
 218:.\stlib\STM32F10x_StdPeriph_Driver\src/stm32f10x_dma.c **** /*--------------------------- DMAy Channelx CCR Configuration -----------------*/
 219:.\stlib\STM32F10x_StdPeriph_Driver\src/stm32f10x_dma.c ****   /* Get the DMAy_Channelx CCR value */
 220:.\stlib\STM32F10x_StdPeriph_Driver\src/stm32f10x_dma.c ****   tmpreg = DMAy_Channelx->CCR;
 343              		.loc 1 220 3 view .LVU79
 344              	@ .\stlib\STM32F10x_StdPeriph_Driver\src\stm32f10x_dma.c:232:   tmpreg |= DMA_InitStruct->DMA_DIR |
 221:.\stlib\STM32F10x_StdPeriph_Driver\src/stm32f10x_dma.c ****   /* Clear MEM2MEM, PL, MSIZE, PSIZE, MINC, PINC, CIRC and DIR bits */
 222:.\stlib\STM32F10x_StdPeriph_Driver\src/stm32f10x_dma.c ****   tmpreg &= CCR_CLEAR_Mask;
 223:.\stlib\STM32F10x_StdPeriph_Driver\src/stm32f10x_dma.c ****   /* Configure DMAy Channelx: data transfer, data size, priority level and mode */
 224:.\stlib\STM32F10x_StdPeriph_Driver\src/stm32f10x_dma.c ****   /* Set DIR bit according to DMA_DIR value */
 225:.\stlib\STM32F10x_StdPeriph_Driver\src/stm32f10x_dma.c ****   /* Set CIRC bit according to DMA_Mode value */
 226:.\stlib\STM32F10x_StdPeriph_Driver\src/stm32f10x_dma.c ****   /* Set PINC bit according to DMA_PeripheralInc value */
 227:.\stlib\STM32F10x_StdPeriph_Driver\src/stm32f10x_dma.c ****   /* Set MINC bit according to DMA_MemoryInc value */
 228:.\stlib\STM32F10x_StdPeriph_Driver\src/stm32f10x_dma.c ****   /* Set PSIZE bits according to DMA_PeripheralDataSize value */
 229:.\stlib\STM32F10x_StdPeriph_Driver\src/stm32f10x_dma.c ****   /* Set MSIZE bits according to DMA_MemoryDataSize value */
 230:.\stlib\STM32F10x_StdPeriph_Driver\src/stm32f10x_dma.c ****   /* Set PL bits according to DMA_Priority value */
 231:.\stlib\STM32F10x_StdPeriph_Driver\src/stm32f10x_dma.c ****   /* Set the MEM2MEM bit according to DMA_M2M value */
 232:.\stlib\STM32F10x_StdPeriph_Driver\src/stm32f10x_dma.c ****   tmpreg |= DMA_InitStruct->DMA_DIR | DMA_InitStruct->DMA_Mode |
 345              		.loc 1 232 37 is_stmt 0 view .LVU80
 346 00f4 8B68     		ldr	r3, [r1, #8]	@ DMA_InitStruct_23(D)->DMA_DIR, DMA_InitStruct_23(D)->DMA_DIR
 347              	@ .\stlib\STM32F10x_StdPeriph_Driver\src\stm32f10x_dma.c:203: {
 203:.\stlib\STM32F10x_StdPeriph_Driver\src/stm32f10x_dma.c ****   uint32_t tmpreg = 0;
 348              		.loc 1 203 1 view .LVU81
 349 00f6 10B5     		push	{r4, lr}	@
 350              	.LCFI0:
ARM GAS  C:\Users\skey\AppData\Local\Temp\ccsfckNU.s 			page 12


 351              		.cfi_def_cfa_offset 8
 352              		.cfi_offset 4, -8
 353              		.cfi_offset 14, -4
 354              	@ .\stlib\STM32F10x_StdPeriph_Driver\src\stm32f10x_dma.c:232:   tmpreg |= DMA_InitStruct->DMA_DIR |
 355              		.loc 1 232 37 view .LVU82
 356 00f8 0C6A     		ldr	r4, [r1, #32]	@ DMA_InitStruct_23(D)->DMA_Mode, DMA_InitStruct_23(D)->DMA_Mode
 357              	@ .\stlib\STM32F10x_StdPeriph_Driver\src\stm32f10x_dma.c:220:   tmpreg = DMAy_Channelx->CCR;
 220:.\stlib\STM32F10x_StdPeriph_Driver\src/stm32f10x_dma.c ****   /* Clear MEM2MEM, PL, MSIZE, PSIZE, MINC, PINC, CIRC and DIR bits */
 358              		.loc 1 220 10 view .LVU83
 359 00fa 0268     		ldr	r2, [r0]	@ tmpreg, DMAy_Channelx_20(D)->CCR
 360              	.LVL2:
 222:.\stlib\STM32F10x_StdPeriph_Driver\src/stm32f10x_dma.c ****   /* Configure DMAy Channelx: data transfer, data size, priority level and mode */
 361              		.loc 1 222 3 is_stmt 1 view .LVU84
 362              	@ .\stlib\STM32F10x_StdPeriph_Driver\src\stm32f10x_dma.c:232:   tmpreg |= DMA_InitStruct->DMA_DIR |
 363              		.loc 1 232 37 is_stmt 0 view .LVU85
 364 00fc 2343     		orrs	r3, r3, r4	@, tmp134, DMA_InitStruct_23(D)->DMA_DIR, DMA_InitStruct_23(D)->DMA_Mode
 365              	@ .\stlib\STM32F10x_StdPeriph_Driver\src\stm32f10x_dma.c:232:   tmpreg |= DMA_InitStruct->DMA_DIR |
 366              		.loc 1 232 64 view .LVU86
 367 00fe 0C69     		ldr	r4, [r1, #16]	@ DMA_InitStruct_23(D)->DMA_PeripheralInc, DMA_InitStruct_23(D)->DMA_PeripheralI
 368              	@ .\stlib\STM32F10x_StdPeriph_Driver\src\stm32f10x_dma.c:222:   tmpreg &= CCR_CLEAR_Mask;
 222:.\stlib\STM32F10x_StdPeriph_Driver\src/stm32f10x_dma.c ****   /* Configure DMAy Channelx: data transfer, data size, priority level and mode */
 369              		.loc 1 222 10 view .LVU87
 370 0100 22F4FF42 		bic	r2, r2, #32640	@ tmpreg, tmpreg,
 371              	.LVL3:
 372              	@ .\stlib\STM32F10x_StdPeriph_Driver\src\stm32f10x_dma.c:232:   tmpreg |= DMA_InitStruct->DMA_DIR |
 373              		.loc 1 232 64 view .LVU88
 374 0104 2343     		orrs	r3, r3, r4	@, tmp137, tmp134, DMA_InitStruct_23(D)->DMA_PeripheralInc
 375              	@ .\stlib\STM32F10x_StdPeriph_Driver\src\stm32f10x_dma.c:233:             DMA_InitStruct->DMA_Perip
 233:.\stlib\STM32F10x_StdPeriph_Driver\src/stm32f10x_dma.c ****             DMA_InitStruct->DMA_PeripheralInc | DMA_InitStruct->DMA_MemoryInc |
 376              		.loc 1 233 47 view .LVU89
 377 0106 4C69     		ldr	r4, [r1, #20]	@ DMA_InitStruct_23(D)->DMA_MemoryInc, DMA_InitStruct_23(D)->DMA_MemoryInc
 378              	@ .\stlib\STM32F10x_StdPeriph_Driver\src\stm32f10x_dma.c:222:   tmpreg &= CCR_CLEAR_Mask;
 222:.\stlib\STM32F10x_StdPeriph_Driver\src/stm32f10x_dma.c ****   /* Configure DMAy Channelx: data transfer, data size, priority level and mode */
 379              		.loc 1 222 10 view .LVU90
 380 0108 22F07002 		bic	r2, r2, #112	@ tmpreg, tmpreg,
 381              	.LVL4:
 232:.\stlib\STM32F10x_StdPeriph_Driver\src/stm32f10x_dma.c ****             DMA_InitStruct->DMA_PeripheralInc | DMA_InitStruct->DMA_MemoryInc |
 382              		.loc 1 232 3 is_stmt 1 view .LVU91
 383              	@ .\stlib\STM32F10x_StdPeriph_Driver\src\stm32f10x_dma.c:233:             DMA_InitStruct->DMA_Perip
 384              		.loc 1 233 47 is_stmt 0 view .LVU92
 385 010c 2343     		orrs	r3, r3, r4	@, tmp139, tmp137, DMA_InitStruct_23(D)->DMA_MemoryInc
 386              	@ .\stlib\STM32F10x_StdPeriph_Driver\src\stm32f10x_dma.c:233:             DMA_InitStruct->DMA_Perip
 387              		.loc 1 233 79 view .LVU93
 388 010e 8C69     		ldr	r4, [r1, #24]	@ DMA_InitStruct_23(D)->DMA_PeripheralDataSize, DMA_InitStruct_23(D)->DMA_Periph
 389 0110 2343     		orrs	r3, r3, r4	@, tmp141, tmp139, DMA_InitStruct_23(D)->DMA_PeripheralDataSize
 390              	@ .\stlib\STM32F10x_StdPeriph_Driver\src\stm32f10x_dma.c:234:             DMA_InitStruct->DMA_Perip
 234:.\stlib\STM32F10x_StdPeriph_Driver\src/stm32f10x_dma.c ****             DMA_InitStruct->DMA_PeripheralDataSize | DMA_InitStruct->DMA_MemoryDataSize |
 391              		.loc 1 234 52 view .LVU94
 392 0112 CC69     		ldr	r4, [r1, #28]	@ DMA_InitStruct_23(D)->DMA_MemoryDataSize, DMA_InitStruct_23(D)->DMA_MemoryData
 393 0114 2343     		orrs	r3, r3, r4	@, tmp143, tmp141, DMA_InitStruct_23(D)->DMA_MemoryDataSize
 394              	@ .\stlib\STM32F10x_StdPeriph_Driver\src\stm32f10x_dma.c:234:             DMA_InitStruct->DMA_Perip
 395              		.loc 1 234 89 view .LVU95
 396 0116 4C6A     		ldr	r4, [r1, #36]	@ DMA_InitStruct_23(D)->DMA_Priority, DMA_InitStruct_23(D)->DMA_Priority
 397 0118 2343     		orrs	r3, r3, r4	@, tmp145, tmp143, DMA_InitStruct_23(D)->DMA_Priority
 398              	@ .\stlib\STM32F10x_StdPeriph_Driver\src\stm32f10x_dma.c:235:             DMA_InitStruct->DMA_Prior
 235:.\stlib\STM32F10x_StdPeriph_Driver\src/stm32f10x_dma.c ****             DMA_InitStruct->DMA_Priority | DMA_InitStruct->DMA_M2M;
 399              		.loc 1 235 42 view .LVU96
ARM GAS  C:\Users\skey\AppData\Local\Temp\ccsfckNU.s 			page 13


 400 011a 8C6A     		ldr	r4, [r1, #40]	@ DMA_InitStruct_23(D)->DMA_M2M, DMA_InitStruct_23(D)->DMA_M2M
 401 011c 2343     		orrs	r3, r3, r4	@, tmp147, tmp145, DMA_InitStruct_23(D)->DMA_M2M
 402              	@ .\stlib\STM32F10x_StdPeriph_Driver\src\stm32f10x_dma.c:232:   tmpreg |= DMA_InitStruct->DMA_DIR |
 232:.\stlib\STM32F10x_StdPeriph_Driver\src/stm32f10x_dma.c ****             DMA_InitStruct->DMA_PeripheralInc | DMA_InitStruct->DMA_MemoryInc |
 403              		.loc 1 232 10 view .LVU97
 404 011e 1343     		orrs	r3, r3, r2	@, tmpreg, tmp147, tmpreg
 405              	.LVL5:
 236:.\stlib\STM32F10x_StdPeriph_Driver\src/stm32f10x_dma.c **** 
 237:.\stlib\STM32F10x_StdPeriph_Driver\src/stm32f10x_dma.c ****   /* Write to DMAy Channelx CCR */
 238:.\stlib\STM32F10x_StdPeriph_Driver\src/stm32f10x_dma.c ****   DMAy_Channelx->CCR = tmpreg;
 406              		.loc 1 238 3 is_stmt 1 view .LVU98
 407              	@ .\stlib\STM32F10x_StdPeriph_Driver\src\stm32f10x_dma.c:238:   DMAy_Channelx->CCR = tmpreg;
 408              		.loc 1 238 22 is_stmt 0 view .LVU99
 409 0120 0360     		str	r3, [r0]	@ tmpreg, DMAy_Channelx_20(D)->CCR
 239:.\stlib\STM32F10x_StdPeriph_Driver\src/stm32f10x_dma.c **** 
 240:.\stlib\STM32F10x_StdPeriph_Driver\src/stm32f10x_dma.c **** /*--------------------------- DMAy Channelx CNDTR Configuration ---------------*/
 241:.\stlib\STM32F10x_StdPeriph_Driver\src/stm32f10x_dma.c ****   /* Write to DMAy Channelx CNDTR */
 242:.\stlib\STM32F10x_StdPeriph_Driver\src/stm32f10x_dma.c ****   DMAy_Channelx->CNDTR = DMA_InitStruct->DMA_BufferSize;
 410              		.loc 1 242 3 is_stmt 1 view .LVU100
 411              	@ .\stlib\STM32F10x_StdPeriph_Driver\src\stm32f10x_dma.c:242:   DMAy_Channelx->CNDTR = DMA_InitStru
 412              		.loc 1 242 40 is_stmt 0 view .LVU101
 413 0122 CB68     		ldr	r3, [r1, #12]	@ _16, DMA_InitStruct_23(D)->DMA_BufferSize
 414              	.LVL6:
 415              	@ .\stlib\STM32F10x_StdPeriph_Driver\src\stm32f10x_dma.c:242:   DMAy_Channelx->CNDTR = DMA_InitStru
 416              		.loc 1 242 24 view .LVU102
 417 0124 4360     		str	r3, [r0, #4]	@ _16, DMAy_Channelx_20(D)->CNDTR
 418              	.LVL7:
 243:.\stlib\STM32F10x_StdPeriph_Driver\src/stm32f10x_dma.c **** 
 244:.\stlib\STM32F10x_StdPeriph_Driver\src/stm32f10x_dma.c **** /*--------------------------- DMAy Channelx CPAR Configuration ----------------*/
 245:.\stlib\STM32F10x_StdPeriph_Driver\src/stm32f10x_dma.c ****   /* Write to DMAy Channelx CPAR */
 246:.\stlib\STM32F10x_StdPeriph_Driver\src/stm32f10x_dma.c ****   DMAy_Channelx->CPAR = DMA_InitStruct->DMA_PeripheralBaseAddr;
 419              		.loc 1 246 3 is_stmt 1 view .LVU103
 420              	@ .\stlib\STM32F10x_StdPeriph_Driver\src\stm32f10x_dma.c:246:   DMAy_Channelx->CPAR = DMA_InitStruc
 421              		.loc 1 246 39 is_stmt 0 view .LVU104
 422 0126 0B68     		ldr	r3, [r1]	@ _17, DMA_InitStruct_23(D)->DMA_PeripheralBaseAddr
 423              	@ .\stlib\STM32F10x_StdPeriph_Driver\src\stm32f10x_dma.c:246:   DMAy_Channelx->CPAR = DMA_InitStruc
 424              		.loc 1 246 23 view .LVU105
 425 0128 8360     		str	r3, [r0, #8]	@ _17, DMAy_Channelx_20(D)->CPAR
 247:.\stlib\STM32F10x_StdPeriph_Driver\src/stm32f10x_dma.c **** 
 248:.\stlib\STM32F10x_StdPeriph_Driver\src/stm32f10x_dma.c **** /*--------------------------- DMAy Channelx CMAR Configuration ----------------*/
 249:.\stlib\STM32F10x_StdPeriph_Driver\src/stm32f10x_dma.c ****   /* Write to DMAy Channelx CMAR */
 250:.\stlib\STM32F10x_StdPeriph_Driver\src/stm32f10x_dma.c ****   DMAy_Channelx->CMAR = DMA_InitStruct->DMA_MemoryBaseAddr;
 426              		.loc 1 250 3 is_stmt 1 view .LVU106
 427              	@ .\stlib\STM32F10x_StdPeriph_Driver\src\stm32f10x_dma.c:250:   DMAy_Channelx->CMAR = DMA_InitStruc
 428              		.loc 1 250 39 is_stmt 0 view .LVU107
 429 012a 4B68     		ldr	r3, [r1, #4]	@ _18, DMA_InitStruct_23(D)->DMA_MemoryBaseAddr
 430              	@ .\stlib\STM32F10x_StdPeriph_Driver\src\stm32f10x_dma.c:250:   DMAy_Channelx->CMAR = DMA_InitStruc
 431              		.loc 1 250 23 view .LVU108
 432 012c C360     		str	r3, [r0, #12]	@ _18, DMAy_Channelx_20(D)->CMAR
 433              	@ .\stlib\STM32F10x_StdPeriph_Driver\src\stm32f10x_dma.c:251: }
 251:.\stlib\STM32F10x_StdPeriph_Driver\src/stm32f10x_dma.c **** }
 434              		.loc 1 251 1 view .LVU109
 435 012e 10BD     		pop	{r4, pc}	@
 436              		.loc 1 251 1 view .LVU110
 437              		.cfi_endproc
 438              	.LFE30:
 439              		.size	DMA_Init, .-DMA_Init
ARM GAS  C:\Users\skey\AppData\Local\Temp\ccsfckNU.s 			page 14


 440              		.align	1
 441              		.global	DMA_StructInit
 442              		.syntax unified
 443              		.thumb
 444              		.thumb_func
 445              		.fpu softvfp
 446              		.type	DMA_StructInit, %function
 447              	DMA_StructInit:
 448              	.LVL8:
 449              	.LFB31:
 252:.\stlib\STM32F10x_StdPeriph_Driver\src/stm32f10x_dma.c **** 
 253:.\stlib\STM32F10x_StdPeriph_Driver\src/stm32f10x_dma.c **** /**
 254:.\stlib\STM32F10x_StdPeriph_Driver\src/stm32f10x_dma.c ****   * @brief  Fills each DMA_InitStruct member with its default value.
 255:.\stlib\STM32F10x_StdPeriph_Driver\src/stm32f10x_dma.c ****   * @param  DMA_InitStruct : pointer to a DMA_InitTypeDef structure which will
 256:.\stlib\STM32F10x_StdPeriph_Driver\src/stm32f10x_dma.c ****   *         be initialized.
 257:.\stlib\STM32F10x_StdPeriph_Driver\src/stm32f10x_dma.c ****   * @retval None
 258:.\stlib\STM32F10x_StdPeriph_Driver\src/stm32f10x_dma.c ****   */
 259:.\stlib\STM32F10x_StdPeriph_Driver\src/stm32f10x_dma.c **** void DMA_StructInit(DMA_InitTypeDef* DMA_InitStruct)
 260:.\stlib\STM32F10x_StdPeriph_Driver\src/stm32f10x_dma.c **** {
 450              		.loc 1 260 1 is_stmt 1 view -0
 451              		.cfi_startproc
 452              		@ args = 0, pretend = 0, frame = 0
 453              		@ frame_needed = 0, uses_anonymous_args = 0
 454              		@ link register save eliminated.
 261:.\stlib\STM32F10x_StdPeriph_Driver\src/stm32f10x_dma.c **** /*-------------- Reset DMA init structure parameters values ------------------*/
 262:.\stlib\STM32F10x_StdPeriph_Driver\src/stm32f10x_dma.c ****   /* Initialize the DMA_PeripheralBaseAddr member */
 263:.\stlib\STM32F10x_StdPeriph_Driver\src/stm32f10x_dma.c ****   DMA_InitStruct->DMA_PeripheralBaseAddr = 0;
 455              		.loc 1 263 3 view .LVU112
 456              	@ .\stlib\STM32F10x_StdPeriph_Driver\src\stm32f10x_dma.c:263:   DMA_InitStruct->DMA_PeripheralBaseA
 457              		.loc 1 263 42 is_stmt 0 view .LVU113
 458 0130 0023     		movs	r3, #0	@ tmp111,
 459              	@ .\stlib\STM32F10x_StdPeriph_Driver\src\stm32f10x_dma.c:265:   DMA_InitStruct->DMA_MemoryBaseAddr 
 264:.\stlib\STM32F10x_StdPeriph_Driver\src/stm32f10x_dma.c ****   /* Initialize the DMA_MemoryBaseAddr member */
 265:.\stlib\STM32F10x_StdPeriph_Driver\src/stm32f10x_dma.c ****   DMA_InitStruct->DMA_MemoryBaseAddr = 0;
 460              		.loc 1 265 38 view .LVU114
 461 0132 C0E90033 		strd	r3, r3, [r0]	@ tmp111, tmp111, DMA_InitStruct
 266:.\stlib\STM32F10x_StdPeriph_Driver\src/stm32f10x_dma.c ****   /* Initialize the DMA_DIR member */
 267:.\stlib\STM32F10x_StdPeriph_Driver\src/stm32f10x_dma.c ****   DMA_InitStruct->DMA_DIR = DMA_DIR_PeripheralSRC;
 462              		.loc 1 267 3 is_stmt 1 view .LVU115
 463              	@ .\stlib\STM32F10x_StdPeriph_Driver\src\stm32f10x_dma.c:269:   DMA_InitStruct->DMA_BufferSize = 0;
 268:.\stlib\STM32F10x_StdPeriph_Driver\src/stm32f10x_dma.c ****   /* Initialize the DMA_BufferSize member */
 269:.\stlib\STM32F10x_StdPeriph_Driver\src/stm32f10x_dma.c ****   DMA_InitStruct->DMA_BufferSize = 0;
 464              		.loc 1 269 34 is_stmt 0 view .LVU116
 465 0136 C0E90233 		strd	r3, r3, [r0, #8]	@ tmp111, tmp111, DMA_InitStruct,
 270:.\stlib\STM32F10x_StdPeriph_Driver\src/stm32f10x_dma.c ****   /* Initialize the DMA_PeripheralInc member */
 271:.\stlib\STM32F10x_StdPeriph_Driver\src/stm32f10x_dma.c ****   DMA_InitStruct->DMA_PeripheralInc = DMA_PeripheralInc_Disable;
 466              		.loc 1 271 3 is_stmt 1 view .LVU117
 467              	@ .\stlib\STM32F10x_StdPeriph_Driver\src\stm32f10x_dma.c:273:   DMA_InitStruct->DMA_MemoryInc = DMA
 272:.\stlib\STM32F10x_StdPeriph_Driver\src/stm32f10x_dma.c ****   /* Initialize the DMA_MemoryInc member */
 273:.\stlib\STM32F10x_StdPeriph_Driver\src/stm32f10x_dma.c ****   DMA_InitStruct->DMA_MemoryInc = DMA_MemoryInc_Disable;
 468              		.loc 1 273 33 is_stmt 0 view .LVU118
 469 013a C0E90433 		strd	r3, r3, [r0, #16]	@ tmp111, tmp111, DMA_InitStruct,
 274:.\stlib\STM32F10x_StdPeriph_Driver\src/stm32f10x_dma.c ****   /* Initialize the DMA_PeripheralDataSize member */
 275:.\stlib\STM32F10x_StdPeriph_Driver\src/stm32f10x_dma.c ****   DMA_InitStruct->DMA_PeripheralDataSize = DMA_PeripheralDataSize_Byte;
 470              		.loc 1 275 3 is_stmt 1 view .LVU119
 471              	@ .\stlib\STM32F10x_StdPeriph_Driver\src\stm32f10x_dma.c:277:   DMA_InitStruct->DMA_MemoryDataSize 
 276:.\stlib\STM32F10x_StdPeriph_Driver\src/stm32f10x_dma.c ****   /* Initialize the DMA_MemoryDataSize member */
ARM GAS  C:\Users\skey\AppData\Local\Temp\ccsfckNU.s 			page 15


 277:.\stlib\STM32F10x_StdPeriph_Driver\src/stm32f10x_dma.c ****   DMA_InitStruct->DMA_MemoryDataSize = DMA_MemoryDataSize_Byte;
 472              		.loc 1 277 38 is_stmt 0 view .LVU120
 473 013e C0E90633 		strd	r3, r3, [r0, #24]	@ tmp111, tmp111, DMA_InitStruct,
 278:.\stlib\STM32F10x_StdPeriph_Driver\src/stm32f10x_dma.c ****   /* Initialize the DMA_Mode member */
 279:.\stlib\STM32F10x_StdPeriph_Driver\src/stm32f10x_dma.c ****   DMA_InitStruct->DMA_Mode = DMA_Mode_Normal;
 474              		.loc 1 279 3 is_stmt 1 view .LVU121
 475              	@ .\stlib\STM32F10x_StdPeriph_Driver\src\stm32f10x_dma.c:281:   DMA_InitStruct->DMA_Priority = DMA_
 280:.\stlib\STM32F10x_StdPeriph_Driver\src/stm32f10x_dma.c ****   /* Initialize the DMA_Priority member */
 281:.\stlib\STM32F10x_StdPeriph_Driver\src/stm32f10x_dma.c ****   DMA_InitStruct->DMA_Priority = DMA_Priority_Low;
 476              		.loc 1 281 32 is_stmt 0 view .LVU122
 477 0142 C0E90833 		strd	r3, r3, [r0, #32]	@ tmp111, tmp111, DMA_InitStruct,
 282:.\stlib\STM32F10x_StdPeriph_Driver\src/stm32f10x_dma.c ****   /* Initialize the DMA_M2M member */
 283:.\stlib\STM32F10x_StdPeriph_Driver\src/stm32f10x_dma.c ****   DMA_InitStruct->DMA_M2M = DMA_M2M_Disable;
 478              		.loc 1 283 3 is_stmt 1 view .LVU123
 479              	@ .\stlib\STM32F10x_StdPeriph_Driver\src\stm32f10x_dma.c:283:   DMA_InitStruct->DMA_M2M = DMA_M2M_D
 480              		.loc 1 283 27 is_stmt 0 view .LVU124
 481 0146 8362     		str	r3, [r0, #40]	@ tmp111, DMA_InitStruct_2(D)->DMA_M2M
 482              	@ .\stlib\STM32F10x_StdPeriph_Driver\src\stm32f10x_dma.c:284: }
 284:.\stlib\STM32F10x_StdPeriph_Driver\src/stm32f10x_dma.c **** }
 483              		.loc 1 284 1 view .LVU125
 484 0148 7047     		bx	lr	@
 485              		.cfi_endproc
 486              	.LFE31:
 487              		.size	DMA_StructInit, .-DMA_StructInit
 488              		.align	1
 489              		.global	DMA_Cmd
 490              		.syntax unified
 491              		.thumb
 492              		.thumb_func
 493              		.fpu softvfp
 494              		.type	DMA_Cmd, %function
 495              	DMA_Cmd:
 496              	.LVL9:
 497              	.LFB32:
 285:.\stlib\STM32F10x_StdPeriph_Driver\src/stm32f10x_dma.c **** 
 286:.\stlib\STM32F10x_StdPeriph_Driver\src/stm32f10x_dma.c **** /**
 287:.\stlib\STM32F10x_StdPeriph_Driver\src/stm32f10x_dma.c ****   * @brief  Enables or disables the specified DMAy Channelx.
 288:.\stlib\STM32F10x_StdPeriph_Driver\src/stm32f10x_dma.c ****   * @param  DMAy_Channelx: where y can be 1 or 2 to select the DMA and 
 289:.\stlib\STM32F10x_StdPeriph_Driver\src/stm32f10x_dma.c ****   *   x can be 1 to 7 for DMA1 and 1 to 5 for DMA2 to select the DMA Channel.
 290:.\stlib\STM32F10x_StdPeriph_Driver\src/stm32f10x_dma.c ****   * @param  NewState: new state of the DMAy Channelx. 
 291:.\stlib\STM32F10x_StdPeriph_Driver\src/stm32f10x_dma.c ****   *   This parameter can be: ENABLE or DISABLE.
 292:.\stlib\STM32F10x_StdPeriph_Driver\src/stm32f10x_dma.c ****   * @retval None
 293:.\stlib\STM32F10x_StdPeriph_Driver\src/stm32f10x_dma.c ****   */
 294:.\stlib\STM32F10x_StdPeriph_Driver\src/stm32f10x_dma.c **** void DMA_Cmd(DMA_Channel_TypeDef* DMAy_Channelx, FunctionalState NewState)
 295:.\stlib\STM32F10x_StdPeriph_Driver\src/stm32f10x_dma.c **** {
 498              		.loc 1 295 1 is_stmt 1 view -0
 499              		.cfi_startproc
 500              		@ args = 0, pretend = 0, frame = 0
 501              		@ frame_needed = 0, uses_anonymous_args = 0
 502              		@ link register save eliminated.
 296:.\stlib\STM32F10x_StdPeriph_Driver\src/stm32f10x_dma.c ****   /* Check the parameters */
 297:.\stlib\STM32F10x_StdPeriph_Driver\src/stm32f10x_dma.c ****   assert_param(IS_DMA_ALL_PERIPH(DMAy_Channelx));
 503              		.loc 1 297 3 view .LVU127
 298:.\stlib\STM32F10x_StdPeriph_Driver\src/stm32f10x_dma.c ****   assert_param(IS_FUNCTIONAL_STATE(NewState));
 504              		.loc 1 298 3 view .LVU128
 299:.\stlib\STM32F10x_StdPeriph_Driver\src/stm32f10x_dma.c **** 
 300:.\stlib\STM32F10x_StdPeriph_Driver\src/stm32f10x_dma.c ****   if (NewState != DISABLE)
ARM GAS  C:\Users\skey\AppData\Local\Temp\ccsfckNU.s 			page 16


 505              		.loc 1 300 3 view .LVU129
 506              	@ .\stlib\STM32F10x_StdPeriph_Driver\src\stm32f10x_dma.c:303:     DMAy_Channelx->CCR |= DMA_CCR1_EN
 301:.\stlib\STM32F10x_StdPeriph_Driver\src/stm32f10x_dma.c ****   {
 302:.\stlib\STM32F10x_StdPeriph_Driver\src/stm32f10x_dma.c ****     /* Enable the selected DMAy Channelx */
 303:.\stlib\STM32F10x_StdPeriph_Driver\src/stm32f10x_dma.c ****     DMAy_Channelx->CCR |= DMA_CCR1_EN;
 507              		.loc 1 303 24 is_stmt 0 view .LVU130
 508 014a 0368     		ldr	r3, [r0]	@ _1,* DMAy_Channelx
 509              	@ .\stlib\STM32F10x_StdPeriph_Driver\src\stm32f10x_dma.c:300:   if (NewState != DISABLE)
 300:.\stlib\STM32F10x_StdPeriph_Driver\src/stm32f10x_dma.c ****   {
 510              		.loc 1 300 6 view .LVU131
 511 014c 19B1     		cbz	r1, .L25	@ tmp118,
 512              		.loc 1 303 5 is_stmt 1 view .LVU132
 513              	@ .\stlib\STM32F10x_StdPeriph_Driver\src\stm32f10x_dma.c:303:     DMAy_Channelx->CCR |= DMA_CCR1_EN
 514              		.loc 1 303 24 is_stmt 0 view .LVU133
 515 014e 43F00103 		orr	r3, r3, #1	@ _2, _1,
 516              	.L27:
 517              	@ .\stlib\STM32F10x_StdPeriph_Driver\src\stm32f10x_dma.c:308:     DMAy_Channelx->CCR &= (uint16_t)(
 304:.\stlib\STM32F10x_StdPeriph_Driver\src/stm32f10x_dma.c ****   }
 305:.\stlib\STM32F10x_StdPeriph_Driver\src/stm32f10x_dma.c ****   else
 306:.\stlib\STM32F10x_StdPeriph_Driver\src/stm32f10x_dma.c ****   {
 307:.\stlib\STM32F10x_StdPeriph_Driver\src/stm32f10x_dma.c ****     /* Disable the selected DMAy Channelx */
 308:.\stlib\STM32F10x_StdPeriph_Driver\src/stm32f10x_dma.c ****     DMAy_Channelx->CCR &= (uint16_t)(~DMA_CCR1_EN);
 518              		.loc 1 308 24 view .LVU134
 519 0152 0360     		str	r3, [r0]	@ _4,* DMAy_Channelx
 520              	@ .\stlib\STM32F10x_StdPeriph_Driver\src\stm32f10x_dma.c:310: }
 309:.\stlib\STM32F10x_StdPeriph_Driver\src/stm32f10x_dma.c ****   }
 310:.\stlib\STM32F10x_StdPeriph_Driver\src/stm32f10x_dma.c **** }
 521              		.loc 1 310 1 view .LVU135
 522 0154 7047     		bx	lr	@
 523              	.L25:
 308:.\stlib\STM32F10x_StdPeriph_Driver\src/stm32f10x_dma.c ****   }
 524              		.loc 1 308 5 is_stmt 1 view .LVU136
 525              	@ .\stlib\STM32F10x_StdPeriph_Driver\src\stm32f10x_dma.c:308:     DMAy_Channelx->CCR &= (uint16_t)(
 308:.\stlib\STM32F10x_StdPeriph_Driver\src/stm32f10x_dma.c ****   }
 526              		.loc 1 308 24 is_stmt 0 view .LVU137
 527 0156 23F00103 		bic	r3, r3, #1	@ _4, _3,
 528 015a 1B04     		lsls	r3, r3, #16	@ _4, _4,
 529 015c 1B0C     		lsrs	r3, r3, #16	@ _4, _4,
 530 015e F8E7     		b	.L27		@
 531              		.cfi_endproc
 532              	.LFE32:
 533              		.size	DMA_Cmd, .-DMA_Cmd
 534              		.align	1
 535              		.global	DMA_ITConfig
 536              		.syntax unified
 537              		.thumb
 538              		.thumb_func
 539              		.fpu softvfp
 540              		.type	DMA_ITConfig, %function
 541              	DMA_ITConfig:
 542              	.LVL10:
 543              	.LFB33:
 311:.\stlib\STM32F10x_StdPeriph_Driver\src/stm32f10x_dma.c **** 
 312:.\stlib\STM32F10x_StdPeriph_Driver\src/stm32f10x_dma.c **** /**
 313:.\stlib\STM32F10x_StdPeriph_Driver\src/stm32f10x_dma.c ****   * @brief  Enables or disables the specified DMAy Channelx interrupts.
 314:.\stlib\STM32F10x_StdPeriph_Driver\src/stm32f10x_dma.c ****   * @param  DMAy_Channelx: where y can be 1 or 2 to select the DMA and 
 315:.\stlib\STM32F10x_StdPeriph_Driver\src/stm32f10x_dma.c ****   *   x can be 1 to 7 for DMA1 and 1 to 5 for DMA2 to select the DMA Channel.
ARM GAS  C:\Users\skey\AppData\Local\Temp\ccsfckNU.s 			page 17


 316:.\stlib\STM32F10x_StdPeriph_Driver\src/stm32f10x_dma.c ****   * @param  DMA_IT: specifies the DMA interrupts sources to be enabled
 317:.\stlib\STM32F10x_StdPeriph_Driver\src/stm32f10x_dma.c ****   *   or disabled. 
 318:.\stlib\STM32F10x_StdPeriph_Driver\src/stm32f10x_dma.c ****   *   This parameter can be any combination of the following values:
 319:.\stlib\STM32F10x_StdPeriph_Driver\src/stm32f10x_dma.c ****   *     @arg DMA_IT_TC:  Transfer complete interrupt mask
 320:.\stlib\STM32F10x_StdPeriph_Driver\src/stm32f10x_dma.c ****   *     @arg DMA_IT_HT:  Half transfer interrupt mask
 321:.\stlib\STM32F10x_StdPeriph_Driver\src/stm32f10x_dma.c ****   *     @arg DMA_IT_TE:  Transfer error interrupt mask
 322:.\stlib\STM32F10x_StdPeriph_Driver\src/stm32f10x_dma.c ****   * @param  NewState: new state of the specified DMA interrupts.
 323:.\stlib\STM32F10x_StdPeriph_Driver\src/stm32f10x_dma.c ****   *   This parameter can be: ENABLE or DISABLE.
 324:.\stlib\STM32F10x_StdPeriph_Driver\src/stm32f10x_dma.c ****   * @retval None
 325:.\stlib\STM32F10x_StdPeriph_Driver\src/stm32f10x_dma.c ****   */
 326:.\stlib\STM32F10x_StdPeriph_Driver\src/stm32f10x_dma.c **** void DMA_ITConfig(DMA_Channel_TypeDef* DMAy_Channelx, uint32_t DMA_IT, FunctionalState NewState)
 327:.\stlib\STM32F10x_StdPeriph_Driver\src/stm32f10x_dma.c **** {
 544              		.loc 1 327 1 is_stmt 1 view -0
 545              		.cfi_startproc
 546              		@ args = 0, pretend = 0, frame = 0
 547              		@ frame_needed = 0, uses_anonymous_args = 0
 548              		@ link register save eliminated.
 328:.\stlib\STM32F10x_StdPeriph_Driver\src/stm32f10x_dma.c ****   /* Check the parameters */
 329:.\stlib\STM32F10x_StdPeriph_Driver\src/stm32f10x_dma.c ****   assert_param(IS_DMA_ALL_PERIPH(DMAy_Channelx));
 549              		.loc 1 329 3 view .LVU139
 330:.\stlib\STM32F10x_StdPeriph_Driver\src/stm32f10x_dma.c ****   assert_param(IS_DMA_CONFIG_IT(DMA_IT));
 550              		.loc 1 330 3 view .LVU140
 331:.\stlib\STM32F10x_StdPeriph_Driver\src/stm32f10x_dma.c ****   assert_param(IS_FUNCTIONAL_STATE(NewState));
 551              		.loc 1 331 3 view .LVU141
 332:.\stlib\STM32F10x_StdPeriph_Driver\src/stm32f10x_dma.c ****   if (NewState != DISABLE)
 552              		.loc 1 332 3 view .LVU142
 553              	@ .\stlib\STM32F10x_StdPeriph_Driver\src\stm32f10x_dma.c:335:     DMAy_Channelx->CCR |= DMA_IT;
 333:.\stlib\STM32F10x_StdPeriph_Driver\src/stm32f10x_dma.c ****   {
 334:.\stlib\STM32F10x_StdPeriph_Driver\src/stm32f10x_dma.c ****     /* Enable the selected DMA interrupts */
 335:.\stlib\STM32F10x_StdPeriph_Driver\src/stm32f10x_dma.c ****     DMAy_Channelx->CCR |= DMA_IT;
 554              		.loc 1 335 24 is_stmt 0 view .LVU143
 555 0160 0368     		ldr	r3, [r0]	@ _1,* DMAy_Channelx
 556              	@ .\stlib\STM32F10x_StdPeriph_Driver\src\stm32f10x_dma.c:332:   if (NewState != DISABLE)
 332:.\stlib\STM32F10x_StdPeriph_Driver\src/stm32f10x_dma.c ****   if (NewState != DISABLE)
 557              		.loc 1 332 6 view .LVU144
 558 0162 12B1     		cbz	r2, .L29	@ tmp121,
 559              		.loc 1 335 5 is_stmt 1 view .LVU145
 560              	@ .\stlib\STM32F10x_StdPeriph_Driver\src\stm32f10x_dma.c:335:     DMAy_Channelx->CCR |= DMA_IT;
 561              		.loc 1 335 24 is_stmt 0 view .LVU146
 562 0164 1943     		orrs	r1, r1, r3	@, _2, DMA_IT, _1
 563              	.LVL11:
 564              	.L31:
 565              	@ .\stlib\STM32F10x_StdPeriph_Driver\src\stm32f10x_dma.c:340:     DMAy_Channelx->CCR &= ~DMA_IT;
 336:.\stlib\STM32F10x_StdPeriph_Driver\src/stm32f10x_dma.c ****   }
 337:.\stlib\STM32F10x_StdPeriph_Driver\src/stm32f10x_dma.c ****   else
 338:.\stlib\STM32F10x_StdPeriph_Driver\src/stm32f10x_dma.c ****   {
 339:.\stlib\STM32F10x_StdPeriph_Driver\src/stm32f10x_dma.c ****     /* Disable the selected DMA interrupts */
 340:.\stlib\STM32F10x_StdPeriph_Driver\src/stm32f10x_dma.c ****     DMAy_Channelx->CCR &= ~DMA_IT;
 566              		.loc 1 340 24 view .LVU147
 567 0166 0160     		str	r1, [r0]	@ _5,* DMAy_Channelx
 568              	@ .\stlib\STM32F10x_StdPeriph_Driver\src\stm32f10x_dma.c:342: }
 341:.\stlib\STM32F10x_StdPeriph_Driver\src/stm32f10x_dma.c ****   }
 342:.\stlib\STM32F10x_StdPeriph_Driver\src/stm32f10x_dma.c **** }
 569              		.loc 1 342 1 view .LVU148
 570 0168 7047     		bx	lr	@
 571              	.LVL12:
 572              	.L29:
ARM GAS  C:\Users\skey\AppData\Local\Temp\ccsfckNU.s 			page 18


 340:.\stlib\STM32F10x_StdPeriph_Driver\src/stm32f10x_dma.c ****   }
 573              		.loc 1 340 5 is_stmt 1 view .LVU149
 574              	@ .\stlib\STM32F10x_StdPeriph_Driver\src\stm32f10x_dma.c:340:     DMAy_Channelx->CCR &= ~DMA_IT;
 340:.\stlib\STM32F10x_StdPeriph_Driver\src/stm32f10x_dma.c ****   }
 575              		.loc 1 340 24 is_stmt 0 view .LVU150
 576 016a 23EA0101 		bic	r1, r3, r1	@ _5, _3, DMA_IT
 577              	.LVL13:
 340:.\stlib\STM32F10x_StdPeriph_Driver\src/stm32f10x_dma.c ****   }
 578              		.loc 1 340 24 view .LVU151
 579 016e FAE7     		b	.L31		@
 580              		.cfi_endproc
 581              	.LFE33:
 582              		.size	DMA_ITConfig, .-DMA_ITConfig
 583              		.align	1
 584              		.global	DMA_SetCurrDataCounter
 585              		.syntax unified
 586              		.thumb
 587              		.thumb_func
 588              		.fpu softvfp
 589              		.type	DMA_SetCurrDataCounter, %function
 590              	DMA_SetCurrDataCounter:
 591              	.LVL14:
 592              	.LFB34:
 343:.\stlib\STM32F10x_StdPeriph_Driver\src/stm32f10x_dma.c **** 
 344:.\stlib\STM32F10x_StdPeriph_Driver\src/stm32f10x_dma.c **** /**
 345:.\stlib\STM32F10x_StdPeriph_Driver\src/stm32f10x_dma.c ****   * @brief  Sets the number of data units in the current DMAy Channelx transfer.
 346:.\stlib\STM32F10x_StdPeriph_Driver\src/stm32f10x_dma.c ****   * @param  DMAy_Channelx: where y can be 1 or 2 to select the DMA and 
 347:.\stlib\STM32F10x_StdPeriph_Driver\src/stm32f10x_dma.c ****   *         x can be 1 to 7 for DMA1 and 1 to 5 for DMA2 to select the DMA Channel.
 348:.\stlib\STM32F10x_StdPeriph_Driver\src/stm32f10x_dma.c ****   * @param  DataNumber: The number of data units in the current DMAy Channelx
 349:.\stlib\STM32F10x_StdPeriph_Driver\src/stm32f10x_dma.c ****   *         transfer.   
 350:.\stlib\STM32F10x_StdPeriph_Driver\src/stm32f10x_dma.c ****   * @note   This function can only be used when the DMAy_Channelx is disabled.                 
 351:.\stlib\STM32F10x_StdPeriph_Driver\src/stm32f10x_dma.c ****   * @retval None.
 352:.\stlib\STM32F10x_StdPeriph_Driver\src/stm32f10x_dma.c ****   */
 353:.\stlib\STM32F10x_StdPeriph_Driver\src/stm32f10x_dma.c **** void DMA_SetCurrDataCounter(DMA_Channel_TypeDef* DMAy_Channelx, uint16_t DataNumber)
 354:.\stlib\STM32F10x_StdPeriph_Driver\src/stm32f10x_dma.c **** {
 593              		.loc 1 354 1 is_stmt 1 view -0
 594              		.cfi_startproc
 595              		@ args = 0, pretend = 0, frame = 0
 596              		@ frame_needed = 0, uses_anonymous_args = 0
 597              		@ link register save eliminated.
 355:.\stlib\STM32F10x_StdPeriph_Driver\src/stm32f10x_dma.c ****   /* Check the parameters */
 356:.\stlib\STM32F10x_StdPeriph_Driver\src/stm32f10x_dma.c ****   assert_param(IS_DMA_ALL_PERIPH(DMAy_Channelx));
 598              		.loc 1 356 3 view .LVU153
 357:.\stlib\STM32F10x_StdPeriph_Driver\src/stm32f10x_dma.c ****   
 358:.\stlib\STM32F10x_StdPeriph_Driver\src/stm32f10x_dma.c **** /*--------------------------- DMAy Channelx CNDTR Configuration ---------------*/
 359:.\stlib\STM32F10x_StdPeriph_Driver\src/stm32f10x_dma.c ****   /* Write to DMAy Channelx CNDTR */
 360:.\stlib\STM32F10x_StdPeriph_Driver\src/stm32f10x_dma.c ****   DMAy_Channelx->CNDTR = DataNumber;  
 599              		.loc 1 360 3 view .LVU154
 600              	@ .\stlib\STM32F10x_StdPeriph_Driver\src\stm32f10x_dma.c:360:   DMAy_Channelx->CNDTR = DataNumber; 
 601              		.loc 1 360 24 is_stmt 0 view .LVU155
 602 0170 4160     		str	r1, [r0, #4]	@ DataNumber, DMAy_Channelx_4(D)->CNDTR
 603              	@ .\stlib\STM32F10x_StdPeriph_Driver\src\stm32f10x_dma.c:361: }
 361:.\stlib\STM32F10x_StdPeriph_Driver\src/stm32f10x_dma.c **** }
 604              		.loc 1 361 1 view .LVU156
 605 0172 7047     		bx	lr	@
 606              		.cfi_endproc
 607              	.LFE34:
ARM GAS  C:\Users\skey\AppData\Local\Temp\ccsfckNU.s 			page 19


 608              		.size	DMA_SetCurrDataCounter, .-DMA_SetCurrDataCounter
 609              		.align	1
 610              		.global	DMA_GetCurrDataCounter
 611              		.syntax unified
 612              		.thumb
 613              		.thumb_func
 614              		.fpu softvfp
 615              		.type	DMA_GetCurrDataCounter, %function
 616              	DMA_GetCurrDataCounter:
 617              	.LVL15:
 618              	.LFB35:
 362:.\stlib\STM32F10x_StdPeriph_Driver\src/stm32f10x_dma.c **** 
 363:.\stlib\STM32F10x_StdPeriph_Driver\src/stm32f10x_dma.c **** /**
 364:.\stlib\STM32F10x_StdPeriph_Driver\src/stm32f10x_dma.c ****   * @brief  Returns the number of remaining data units in the current
 365:.\stlib\STM32F10x_StdPeriph_Driver\src/stm32f10x_dma.c ****   *         DMAy Channelx transfer.
 366:.\stlib\STM32F10x_StdPeriph_Driver\src/stm32f10x_dma.c ****   * @param  DMAy_Channelx: where y can be 1 or 2 to select the DMA and 
 367:.\stlib\STM32F10x_StdPeriph_Driver\src/stm32f10x_dma.c ****   *   x can be 1 to 7 for DMA1 and 1 to 5 for DMA2 to select the DMA Channel.
 368:.\stlib\STM32F10x_StdPeriph_Driver\src/stm32f10x_dma.c ****   * @retval The number of remaining data units in the current DMAy Channelx
 369:.\stlib\STM32F10x_StdPeriph_Driver\src/stm32f10x_dma.c ****   *         transfer.
 370:.\stlib\STM32F10x_StdPeriph_Driver\src/stm32f10x_dma.c ****   */
 371:.\stlib\STM32F10x_StdPeriph_Driver\src/stm32f10x_dma.c **** uint16_t DMA_GetCurrDataCounter(DMA_Channel_TypeDef* DMAy_Channelx)
 372:.\stlib\STM32F10x_StdPeriph_Driver\src/stm32f10x_dma.c **** {
 619              		.loc 1 372 1 is_stmt 1 view -0
 620              		.cfi_startproc
 621              		@ args = 0, pretend = 0, frame = 0
 622              		@ frame_needed = 0, uses_anonymous_args = 0
 623              		@ link register save eliminated.
 373:.\stlib\STM32F10x_StdPeriph_Driver\src/stm32f10x_dma.c ****   /* Check the parameters */
 374:.\stlib\STM32F10x_StdPeriph_Driver\src/stm32f10x_dma.c ****   assert_param(IS_DMA_ALL_PERIPH(DMAy_Channelx));
 624              		.loc 1 374 3 view .LVU158
 375:.\stlib\STM32F10x_StdPeriph_Driver\src/stm32f10x_dma.c ****   /* Return the number of remaining data units for DMAy Channelx */
 376:.\stlib\STM32F10x_StdPeriph_Driver\src/stm32f10x_dma.c ****   return ((uint16_t)(DMAy_Channelx->CNDTR));
 625              		.loc 1 376 3 view .LVU159
 626              	@ .\stlib\STM32F10x_StdPeriph_Driver\src\stm32f10x_dma.c:376:   return ((uint16_t)(DMAy_Channelx->C
 627              		.loc 1 376 35 is_stmt 0 view .LVU160
 628 0174 4068     		ldr	r0, [r0, #4]	@ _1, DMAy_Channelx_3(D)->CNDTR
 629              	.LVL16:
 630              	@ .\stlib\STM32F10x_StdPeriph_Driver\src\stm32f10x_dma.c:377: }
 377:.\stlib\STM32F10x_StdPeriph_Driver\src/stm32f10x_dma.c **** }
 631              		.loc 1 377 1 view .LVU161
 632 0176 80B2     		uxth	r0, r0	@, _1
 633 0178 7047     		bx	lr	@
 634              		.cfi_endproc
 635              	.LFE35:
 636              		.size	DMA_GetCurrDataCounter, .-DMA_GetCurrDataCounter
 637              		.align	1
 638              		.global	DMA_GetFlagStatus
 639              		.syntax unified
 640              		.thumb
 641              		.thumb_func
 642              		.fpu softvfp
 643              		.type	DMA_GetFlagStatus, %function
 644              	DMA_GetFlagStatus:
 645              	.LVL17:
 646              	.LFB36:
 378:.\stlib\STM32F10x_StdPeriph_Driver\src/stm32f10x_dma.c **** 
 379:.\stlib\STM32F10x_StdPeriph_Driver\src/stm32f10x_dma.c **** /**
ARM GAS  C:\Users\skey\AppData\Local\Temp\ccsfckNU.s 			page 20


 380:.\stlib\STM32F10x_StdPeriph_Driver\src/stm32f10x_dma.c ****   * @brief  Checks whether the specified DMAy Channelx flag is set or not.
 381:.\stlib\STM32F10x_StdPeriph_Driver\src/stm32f10x_dma.c ****   * @param  DMAy_FLAG: specifies the flag to check.
 382:.\stlib\STM32F10x_StdPeriph_Driver\src/stm32f10x_dma.c ****   *   This parameter can be one of the following values:
 383:.\stlib\STM32F10x_StdPeriph_Driver\src/stm32f10x_dma.c ****   *     @arg DMA1_FLAG_GL1: DMA1 Channel1 global flag.
 384:.\stlib\STM32F10x_StdPeriph_Driver\src/stm32f10x_dma.c ****   *     @arg DMA1_FLAG_TC1: DMA1 Channel1 transfer complete flag.
 385:.\stlib\STM32F10x_StdPeriph_Driver\src/stm32f10x_dma.c ****   *     @arg DMA1_FLAG_HT1: DMA1 Channel1 half transfer flag.
 386:.\stlib\STM32F10x_StdPeriph_Driver\src/stm32f10x_dma.c ****   *     @arg DMA1_FLAG_TE1: DMA1 Channel1 transfer error flag.
 387:.\stlib\STM32F10x_StdPeriph_Driver\src/stm32f10x_dma.c ****   *     @arg DMA1_FLAG_GL2: DMA1 Channel2 global flag.
 388:.\stlib\STM32F10x_StdPeriph_Driver\src/stm32f10x_dma.c ****   *     @arg DMA1_FLAG_TC2: DMA1 Channel2 transfer complete flag.
 389:.\stlib\STM32F10x_StdPeriph_Driver\src/stm32f10x_dma.c ****   *     @arg DMA1_FLAG_HT2: DMA1 Channel2 half transfer flag.
 390:.\stlib\STM32F10x_StdPeriph_Driver\src/stm32f10x_dma.c ****   *     @arg DMA1_FLAG_TE2: DMA1 Channel2 transfer error flag.
 391:.\stlib\STM32F10x_StdPeriph_Driver\src/stm32f10x_dma.c ****   *     @arg DMA1_FLAG_GL3: DMA1 Channel3 global flag.
 392:.\stlib\STM32F10x_StdPeriph_Driver\src/stm32f10x_dma.c ****   *     @arg DMA1_FLAG_TC3: DMA1 Channel3 transfer complete flag.
 393:.\stlib\STM32F10x_StdPeriph_Driver\src/stm32f10x_dma.c ****   *     @arg DMA1_FLAG_HT3: DMA1 Channel3 half transfer flag.
 394:.\stlib\STM32F10x_StdPeriph_Driver\src/stm32f10x_dma.c ****   *     @arg DMA1_FLAG_TE3: DMA1 Channel3 transfer error flag.
 395:.\stlib\STM32F10x_StdPeriph_Driver\src/stm32f10x_dma.c ****   *     @arg DMA1_FLAG_GL4: DMA1 Channel4 global flag.
 396:.\stlib\STM32F10x_StdPeriph_Driver\src/stm32f10x_dma.c ****   *     @arg DMA1_FLAG_TC4: DMA1 Channel4 transfer complete flag.
 397:.\stlib\STM32F10x_StdPeriph_Driver\src/stm32f10x_dma.c ****   *     @arg DMA1_FLAG_HT4: DMA1 Channel4 half transfer flag.
 398:.\stlib\STM32F10x_StdPeriph_Driver\src/stm32f10x_dma.c ****   *     @arg DMA1_FLAG_TE4: DMA1 Channel4 transfer error flag.
 399:.\stlib\STM32F10x_StdPeriph_Driver\src/stm32f10x_dma.c ****   *     @arg DMA1_FLAG_GL5: DMA1 Channel5 global flag.
 400:.\stlib\STM32F10x_StdPeriph_Driver\src/stm32f10x_dma.c ****   *     @arg DMA1_FLAG_TC5: DMA1 Channel5 transfer complete flag.
 401:.\stlib\STM32F10x_StdPeriph_Driver\src/stm32f10x_dma.c ****   *     @arg DMA1_FLAG_HT5: DMA1 Channel5 half transfer flag.
 402:.\stlib\STM32F10x_StdPeriph_Driver\src/stm32f10x_dma.c ****   *     @arg DMA1_FLAG_TE5: DMA1 Channel5 transfer error flag.
 403:.\stlib\STM32F10x_StdPeriph_Driver\src/stm32f10x_dma.c ****   *     @arg DMA1_FLAG_GL6: DMA1 Channel6 global flag.
 404:.\stlib\STM32F10x_StdPeriph_Driver\src/stm32f10x_dma.c ****   *     @arg DMA1_FLAG_TC6: DMA1 Channel6 transfer complete flag.
 405:.\stlib\STM32F10x_StdPeriph_Driver\src/stm32f10x_dma.c ****   *     @arg DMA1_FLAG_HT6: DMA1 Channel6 half transfer flag.
 406:.\stlib\STM32F10x_StdPeriph_Driver\src/stm32f10x_dma.c ****   *     @arg DMA1_FLAG_TE6: DMA1 Channel6 transfer error flag.
 407:.\stlib\STM32F10x_StdPeriph_Driver\src/stm32f10x_dma.c ****   *     @arg DMA1_FLAG_GL7: DMA1 Channel7 global flag.
 408:.\stlib\STM32F10x_StdPeriph_Driver\src/stm32f10x_dma.c ****   *     @arg DMA1_FLAG_TC7: DMA1 Channel7 transfer complete flag.
 409:.\stlib\STM32F10x_StdPeriph_Driver\src/stm32f10x_dma.c ****   *     @arg DMA1_FLAG_HT7: DMA1 Channel7 half transfer flag.
 410:.\stlib\STM32F10x_StdPeriph_Driver\src/stm32f10x_dma.c ****   *     @arg DMA1_FLAG_TE7: DMA1 Channel7 transfer error flag.
 411:.\stlib\STM32F10x_StdPeriph_Driver\src/stm32f10x_dma.c ****   *     @arg DMA2_FLAG_GL1: DMA2 Channel1 global flag.
 412:.\stlib\STM32F10x_StdPeriph_Driver\src/stm32f10x_dma.c ****   *     @arg DMA2_FLAG_TC1: DMA2 Channel1 transfer complete flag.
 413:.\stlib\STM32F10x_StdPeriph_Driver\src/stm32f10x_dma.c ****   *     @arg DMA2_FLAG_HT1: DMA2 Channel1 half transfer flag.
 414:.\stlib\STM32F10x_StdPeriph_Driver\src/stm32f10x_dma.c ****   *     @arg DMA2_FLAG_TE1: DMA2 Channel1 transfer error flag.
 415:.\stlib\STM32F10x_StdPeriph_Driver\src/stm32f10x_dma.c ****   *     @arg DMA2_FLAG_GL2: DMA2 Channel2 global flag.
 416:.\stlib\STM32F10x_StdPeriph_Driver\src/stm32f10x_dma.c ****   *     @arg DMA2_FLAG_TC2: DMA2 Channel2 transfer complete flag.
 417:.\stlib\STM32F10x_StdPeriph_Driver\src/stm32f10x_dma.c ****   *     @arg DMA2_FLAG_HT2: DMA2 Channel2 half transfer flag.
 418:.\stlib\STM32F10x_StdPeriph_Driver\src/stm32f10x_dma.c ****   *     @arg DMA2_FLAG_TE2: DMA2 Channel2 transfer error flag.
 419:.\stlib\STM32F10x_StdPeriph_Driver\src/stm32f10x_dma.c ****   *     @arg DMA2_FLAG_GL3: DMA2 Channel3 global flag.
 420:.\stlib\STM32F10x_StdPeriph_Driver\src/stm32f10x_dma.c ****   *     @arg DMA2_FLAG_TC3: DMA2 Channel3 transfer complete flag.
 421:.\stlib\STM32F10x_StdPeriph_Driver\src/stm32f10x_dma.c ****   *     @arg DMA2_FLAG_HT3: DMA2 Channel3 half transfer flag.
 422:.\stlib\STM32F10x_StdPeriph_Driver\src/stm32f10x_dma.c ****   *     @arg DMA2_FLAG_TE3: DMA2 Channel3 transfer error flag.
 423:.\stlib\STM32F10x_StdPeriph_Driver\src/stm32f10x_dma.c ****   *     @arg DMA2_FLAG_GL4: DMA2 Channel4 global flag.
 424:.\stlib\STM32F10x_StdPeriph_Driver\src/stm32f10x_dma.c ****   *     @arg DMA2_FLAG_TC4: DMA2 Channel4 transfer complete flag.
 425:.\stlib\STM32F10x_StdPeriph_Driver\src/stm32f10x_dma.c ****   *     @arg DMA2_FLAG_HT4: DMA2 Channel4 half transfer flag.
 426:.\stlib\STM32F10x_StdPeriph_Driver\src/stm32f10x_dma.c ****   *     @arg DMA2_FLAG_TE4: DMA2 Channel4 transfer error flag.
 427:.\stlib\STM32F10x_StdPeriph_Driver\src/stm32f10x_dma.c ****   *     @arg DMA2_FLAG_GL5: DMA2 Channel5 global flag.
 428:.\stlib\STM32F10x_StdPeriph_Driver\src/stm32f10x_dma.c ****   *     @arg DMA2_FLAG_TC5: DMA2 Channel5 transfer complete flag.
 429:.\stlib\STM32F10x_StdPeriph_Driver\src/stm32f10x_dma.c ****   *     @arg DMA2_FLAG_HT5: DMA2 Channel5 half transfer flag.
 430:.\stlib\STM32F10x_StdPeriph_Driver\src/stm32f10x_dma.c ****   *     @arg DMA2_FLAG_TE5: DMA2 Channel5 transfer error flag.
 431:.\stlib\STM32F10x_StdPeriph_Driver\src/stm32f10x_dma.c ****   * @retval The new state of DMAy_FLAG (SET or RESET).
 432:.\stlib\STM32F10x_StdPeriph_Driver\src/stm32f10x_dma.c ****   */
 433:.\stlib\STM32F10x_StdPeriph_Driver\src/stm32f10x_dma.c **** FlagStatus DMA_GetFlagStatus(uint32_t DMAy_FLAG)
 434:.\stlib\STM32F10x_StdPeriph_Driver\src/stm32f10x_dma.c **** {
 647              		.loc 1 434 1 is_stmt 1 view -0
 648              		.cfi_startproc
ARM GAS  C:\Users\skey\AppData\Local\Temp\ccsfckNU.s 			page 21


 649              		@ args = 0, pretend = 0, frame = 0
 650              		@ frame_needed = 0, uses_anonymous_args = 0
 651              		@ link register save eliminated.
 435:.\stlib\STM32F10x_StdPeriph_Driver\src/stm32f10x_dma.c ****   FlagStatus bitstatus = RESET;
 652              		.loc 1 435 3 view .LVU163
 436:.\stlib\STM32F10x_StdPeriph_Driver\src/stm32f10x_dma.c ****   uint32_t tmpreg = 0;
 653              		.loc 1 436 3 view .LVU164
 437:.\stlib\STM32F10x_StdPeriph_Driver\src/stm32f10x_dma.c ****   
 438:.\stlib\STM32F10x_StdPeriph_Driver\src/stm32f10x_dma.c ****   /* Check the parameters */
 439:.\stlib\STM32F10x_StdPeriph_Driver\src/stm32f10x_dma.c ****   assert_param(IS_DMA_GET_FLAG(DMAy_FLAG));
 654              		.loc 1 439 3 view .LVU165
 440:.\stlib\STM32F10x_StdPeriph_Driver\src/stm32f10x_dma.c **** 
 441:.\stlib\STM32F10x_StdPeriph_Driver\src/stm32f10x_dma.c ****   /* Calculate the used DMAy */
 442:.\stlib\STM32F10x_StdPeriph_Driver\src/stm32f10x_dma.c ****   if ((DMAy_FLAG & FLAG_Mask) != (uint32_t)RESET)
 655              		.loc 1 442 3 view .LVU166
 656              	@ .\stlib\STM32F10x_StdPeriph_Driver\src\stm32f10x_dma.c:442:   if ((DMAy_FLAG & FLAG_Mask) != (uin
 657              		.loc 1 442 6 is_stmt 0 view .LVU167
 658 017a C300     		lsls	r3, r0, #3	@, DMAy_FLAG,
 443:.\stlib\STM32F10x_StdPeriph_Driver\src/stm32f10x_dma.c ****   {
 444:.\stlib\STM32F10x_StdPeriph_Driver\src/stm32f10x_dma.c ****     /* Get DMA2 ISR register value */
 445:.\stlib\STM32F10x_StdPeriph_Driver\src/stm32f10x_dma.c ****     tmpreg = DMA2->ISR ;
 659              		.loc 1 445 5 is_stmt 1 view .LVU168
 660              	@ .\stlib\STM32F10x_StdPeriph_Driver\src\stm32f10x_dma.c:445:     tmpreg = DMA2->ISR ;
 661              		.loc 1 445 12 is_stmt 0 view .LVU169
 662 017c 4CBF     		ite	mi
 663 017e 044B     		ldrmi	r3, .L38	@ tmp117,
 446:.\stlib\STM32F10x_StdPeriph_Driver\src/stm32f10x_dma.c ****   }
 447:.\stlib\STM32F10x_StdPeriph_Driver\src/stm32f10x_dma.c ****   else
 448:.\stlib\STM32F10x_StdPeriph_Driver\src/stm32f10x_dma.c ****   {
 449:.\stlib\STM32F10x_StdPeriph_Driver\src/stm32f10x_dma.c ****     /* Get DMA1 ISR register value */
 450:.\stlib\STM32F10x_StdPeriph_Driver\src/stm32f10x_dma.c ****     tmpreg = DMA1->ISR ;
 664              		.loc 1 450 5 is_stmt 1 view .LVU170
 665              	@ .\stlib\STM32F10x_StdPeriph_Driver\src\stm32f10x_dma.c:450:     tmpreg = DMA1->ISR ;
 666              		.loc 1 450 12 is_stmt 0 view .LVU171
 667 0180 044B     		ldrpl	r3, .L38+4	@ tmp118,
 668 0182 1B68     		ldr	r3, [r3]	@ tmpreg,
 669              	.LVL18:
 451:.\stlib\STM32F10x_StdPeriph_Driver\src/stm32f10x_dma.c ****   }
 452:.\stlib\STM32F10x_StdPeriph_Driver\src/stm32f10x_dma.c **** 
 453:.\stlib\STM32F10x_StdPeriph_Driver\src/stm32f10x_dma.c ****   /* Check the status of the specified DMAy flag */
 454:.\stlib\STM32F10x_StdPeriph_Driver\src/stm32f10x_dma.c ****   if ((tmpreg & DMAy_FLAG) != (uint32_t)RESET)
 670              		.loc 1 454 3 is_stmt 1 view .LVU172
 455:.\stlib\STM32F10x_StdPeriph_Driver\src/stm32f10x_dma.c ****   {
 456:.\stlib\STM32F10x_StdPeriph_Driver\src/stm32f10x_dma.c ****     /* DMAy_FLAG is set */
 457:.\stlib\STM32F10x_StdPeriph_Driver\src/stm32f10x_dma.c ****     bitstatus = SET;
 458:.\stlib\STM32F10x_StdPeriph_Driver\src/stm32f10x_dma.c ****   }
 459:.\stlib\STM32F10x_StdPeriph_Driver\src/stm32f10x_dma.c ****   else
 460:.\stlib\STM32F10x_StdPeriph_Driver\src/stm32f10x_dma.c ****   {
 461:.\stlib\STM32F10x_StdPeriph_Driver\src/stm32f10x_dma.c ****     /* DMAy_FLAG is reset */
 462:.\stlib\STM32F10x_StdPeriph_Driver\src/stm32f10x_dma.c ****     bitstatus = RESET;
 463:.\stlib\STM32F10x_StdPeriph_Driver\src/stm32f10x_dma.c ****   }
 464:.\stlib\STM32F10x_StdPeriph_Driver\src/stm32f10x_dma.c ****   
 465:.\stlib\STM32F10x_StdPeriph_Driver\src/stm32f10x_dma.c ****   /* Return the DMAy_FLAG status */
 466:.\stlib\STM32F10x_StdPeriph_Driver\src/stm32f10x_dma.c ****   return  bitstatus;
 671              		.loc 1 466 3 view .LVU173
 672              	@ .\stlib\STM32F10x_StdPeriph_Driver\src\stm32f10x_dma.c:454:   if ((tmpreg & DMAy_FLAG) != (uint32
 454:.\stlib\STM32F10x_StdPeriph_Driver\src/stm32f10x_dma.c ****   {
ARM GAS  C:\Users\skey\AppData\Local\Temp\ccsfckNU.s 			page 22


 673              		.loc 1 454 6 is_stmt 0 view .LVU174
 674 0184 0342     		tst	r3, r0	@ tmpreg, DMAy_FLAG
 675              	@ .\stlib\STM32F10x_StdPeriph_Driver\src\stm32f10x_dma.c:467: }
 467:.\stlib\STM32F10x_StdPeriph_Driver\src/stm32f10x_dma.c **** }
 676              		.loc 1 467 1 view .LVU175
 677 0186 14BF     		ite	ne
 678 0188 0120     		movne	r0, #1	@,
 679              	.LVL19:
 680              		.loc 1 467 1 view .LVU176
 681 018a 0020     		moveq	r0, #0	@,
 682 018c 7047     		bx	lr	@
 683              	.L39:
 684 018e 00BF     		.align	2
 685              	.L38:
 686 0190 00040240 		.word	1073873920
 687 0194 00000240 		.word	1073872896
 688              		.cfi_endproc
 689              	.LFE36:
 690              		.size	DMA_GetFlagStatus, .-DMA_GetFlagStatus
 691              		.align	1
 692              		.global	DMA_ClearFlag
 693              		.syntax unified
 694              		.thumb
 695              		.thumb_func
 696              		.fpu softvfp
 697              		.type	DMA_ClearFlag, %function
 698              	DMA_ClearFlag:
 699              	.LVL20:
 700              	.LFB37:
 468:.\stlib\STM32F10x_StdPeriph_Driver\src/stm32f10x_dma.c **** 
 469:.\stlib\STM32F10x_StdPeriph_Driver\src/stm32f10x_dma.c **** /**
 470:.\stlib\STM32F10x_StdPeriph_Driver\src/stm32f10x_dma.c ****   * @brief  Clears the DMAy Channelx's pending flags.
 471:.\stlib\STM32F10x_StdPeriph_Driver\src/stm32f10x_dma.c ****   * @param  DMAy_FLAG: specifies the flag to clear.
 472:.\stlib\STM32F10x_StdPeriph_Driver\src/stm32f10x_dma.c ****   *   This parameter can be any combination (for the same DMA) of the following values:
 473:.\stlib\STM32F10x_StdPeriph_Driver\src/stm32f10x_dma.c ****   *     @arg DMA1_FLAG_GL1: DMA1 Channel1 global flag.
 474:.\stlib\STM32F10x_StdPeriph_Driver\src/stm32f10x_dma.c ****   *     @arg DMA1_FLAG_TC1: DMA1 Channel1 transfer complete flag.
 475:.\stlib\STM32F10x_StdPeriph_Driver\src/stm32f10x_dma.c ****   *     @arg DMA1_FLAG_HT1: DMA1 Channel1 half transfer flag.
 476:.\stlib\STM32F10x_StdPeriph_Driver\src/stm32f10x_dma.c ****   *     @arg DMA1_FLAG_TE1: DMA1 Channel1 transfer error flag.
 477:.\stlib\STM32F10x_StdPeriph_Driver\src/stm32f10x_dma.c ****   *     @arg DMA1_FLAG_GL2: DMA1 Channel2 global flag.
 478:.\stlib\STM32F10x_StdPeriph_Driver\src/stm32f10x_dma.c ****   *     @arg DMA1_FLAG_TC2: DMA1 Channel2 transfer complete flag.
 479:.\stlib\STM32F10x_StdPeriph_Driver\src/stm32f10x_dma.c ****   *     @arg DMA1_FLAG_HT2: DMA1 Channel2 half transfer flag.
 480:.\stlib\STM32F10x_StdPeriph_Driver\src/stm32f10x_dma.c ****   *     @arg DMA1_FLAG_TE2: DMA1 Channel2 transfer error flag.
 481:.\stlib\STM32F10x_StdPeriph_Driver\src/stm32f10x_dma.c ****   *     @arg DMA1_FLAG_GL3: DMA1 Channel3 global flag.
 482:.\stlib\STM32F10x_StdPeriph_Driver\src/stm32f10x_dma.c ****   *     @arg DMA1_FLAG_TC3: DMA1 Channel3 transfer complete flag.
 483:.\stlib\STM32F10x_StdPeriph_Driver\src/stm32f10x_dma.c ****   *     @arg DMA1_FLAG_HT3: DMA1 Channel3 half transfer flag.
 484:.\stlib\STM32F10x_StdPeriph_Driver\src/stm32f10x_dma.c ****   *     @arg DMA1_FLAG_TE3: DMA1 Channel3 transfer error flag.
 485:.\stlib\STM32F10x_StdPeriph_Driver\src/stm32f10x_dma.c ****   *     @arg DMA1_FLAG_GL4: DMA1 Channel4 global flag.
 486:.\stlib\STM32F10x_StdPeriph_Driver\src/stm32f10x_dma.c ****   *     @arg DMA1_FLAG_TC4: DMA1 Channel4 transfer complete flag.
 487:.\stlib\STM32F10x_StdPeriph_Driver\src/stm32f10x_dma.c ****   *     @arg DMA1_FLAG_HT4: DMA1 Channel4 half transfer flag.
 488:.\stlib\STM32F10x_StdPeriph_Driver\src/stm32f10x_dma.c ****   *     @arg DMA1_FLAG_TE4: DMA1 Channel4 transfer error flag.
 489:.\stlib\STM32F10x_StdPeriph_Driver\src/stm32f10x_dma.c ****   *     @arg DMA1_FLAG_GL5: DMA1 Channel5 global flag.
 490:.\stlib\STM32F10x_StdPeriph_Driver\src/stm32f10x_dma.c ****   *     @arg DMA1_FLAG_TC5: DMA1 Channel5 transfer complete flag.
 491:.\stlib\STM32F10x_StdPeriph_Driver\src/stm32f10x_dma.c ****   *     @arg DMA1_FLAG_HT5: DMA1 Channel5 half transfer flag.
 492:.\stlib\STM32F10x_StdPeriph_Driver\src/stm32f10x_dma.c ****   *     @arg DMA1_FLAG_TE5: DMA1 Channel5 transfer error flag.
 493:.\stlib\STM32F10x_StdPeriph_Driver\src/stm32f10x_dma.c ****   *     @arg DMA1_FLAG_GL6: DMA1 Channel6 global flag.
 494:.\stlib\STM32F10x_StdPeriph_Driver\src/stm32f10x_dma.c ****   *     @arg DMA1_FLAG_TC6: DMA1 Channel6 transfer complete flag.
 495:.\stlib\STM32F10x_StdPeriph_Driver\src/stm32f10x_dma.c ****   *     @arg DMA1_FLAG_HT6: DMA1 Channel6 half transfer flag.
ARM GAS  C:\Users\skey\AppData\Local\Temp\ccsfckNU.s 			page 23


 496:.\stlib\STM32F10x_StdPeriph_Driver\src/stm32f10x_dma.c ****   *     @arg DMA1_FLAG_TE6: DMA1 Channel6 transfer error flag.
 497:.\stlib\STM32F10x_StdPeriph_Driver\src/stm32f10x_dma.c ****   *     @arg DMA1_FLAG_GL7: DMA1 Channel7 global flag.
 498:.\stlib\STM32F10x_StdPeriph_Driver\src/stm32f10x_dma.c ****   *     @arg DMA1_FLAG_TC7: DMA1 Channel7 transfer complete flag.
 499:.\stlib\STM32F10x_StdPeriph_Driver\src/stm32f10x_dma.c ****   *     @arg DMA1_FLAG_HT7: DMA1 Channel7 half transfer flag.
 500:.\stlib\STM32F10x_StdPeriph_Driver\src/stm32f10x_dma.c ****   *     @arg DMA1_FLAG_TE7: DMA1 Channel7 transfer error flag.
 501:.\stlib\STM32F10x_StdPeriph_Driver\src/stm32f10x_dma.c ****   *     @arg DMA2_FLAG_GL1: DMA2 Channel1 global flag.
 502:.\stlib\STM32F10x_StdPeriph_Driver\src/stm32f10x_dma.c ****   *     @arg DMA2_FLAG_TC1: DMA2 Channel1 transfer complete flag.
 503:.\stlib\STM32F10x_StdPeriph_Driver\src/stm32f10x_dma.c ****   *     @arg DMA2_FLAG_HT1: DMA2 Channel1 half transfer flag.
 504:.\stlib\STM32F10x_StdPeriph_Driver\src/stm32f10x_dma.c ****   *     @arg DMA2_FLAG_TE1: DMA2 Channel1 transfer error flag.
 505:.\stlib\STM32F10x_StdPeriph_Driver\src/stm32f10x_dma.c ****   *     @arg DMA2_FLAG_GL2: DMA2 Channel2 global flag.
 506:.\stlib\STM32F10x_StdPeriph_Driver\src/stm32f10x_dma.c ****   *     @arg DMA2_FLAG_TC2: DMA2 Channel2 transfer complete flag.
 507:.\stlib\STM32F10x_StdPeriph_Driver\src/stm32f10x_dma.c ****   *     @arg DMA2_FLAG_HT2: DMA2 Channel2 half transfer flag.
 508:.\stlib\STM32F10x_StdPeriph_Driver\src/stm32f10x_dma.c ****   *     @arg DMA2_FLAG_TE2: DMA2 Channel2 transfer error flag.
 509:.\stlib\STM32F10x_StdPeriph_Driver\src/stm32f10x_dma.c ****   *     @arg DMA2_FLAG_GL3: DMA2 Channel3 global flag.
 510:.\stlib\STM32F10x_StdPeriph_Driver\src/stm32f10x_dma.c ****   *     @arg DMA2_FLAG_TC3: DMA2 Channel3 transfer complete flag.
 511:.\stlib\STM32F10x_StdPeriph_Driver\src/stm32f10x_dma.c ****   *     @arg DMA2_FLAG_HT3: DMA2 Channel3 half transfer flag.
 512:.\stlib\STM32F10x_StdPeriph_Driver\src/stm32f10x_dma.c ****   *     @arg DMA2_FLAG_TE3: DMA2 Channel3 transfer error flag.
 513:.\stlib\STM32F10x_StdPeriph_Driver\src/stm32f10x_dma.c ****   *     @arg DMA2_FLAG_GL4: DMA2 Channel4 global flag.
 514:.\stlib\STM32F10x_StdPeriph_Driver\src/stm32f10x_dma.c ****   *     @arg DMA2_FLAG_TC4: DMA2 Channel4 transfer complete flag.
 515:.\stlib\STM32F10x_StdPeriph_Driver\src/stm32f10x_dma.c ****   *     @arg DMA2_FLAG_HT4: DMA2 Channel4 half transfer flag.
 516:.\stlib\STM32F10x_StdPeriph_Driver\src/stm32f10x_dma.c ****   *     @arg DMA2_FLAG_TE4: DMA2 Channel4 transfer error flag.
 517:.\stlib\STM32F10x_StdPeriph_Driver\src/stm32f10x_dma.c ****   *     @arg DMA2_FLAG_GL5: DMA2 Channel5 global flag.
 518:.\stlib\STM32F10x_StdPeriph_Driver\src/stm32f10x_dma.c ****   *     @arg DMA2_FLAG_TC5: DMA2 Channel5 transfer complete flag.
 519:.\stlib\STM32F10x_StdPeriph_Driver\src/stm32f10x_dma.c ****   *     @arg DMA2_FLAG_HT5: DMA2 Channel5 half transfer flag.
 520:.\stlib\STM32F10x_StdPeriph_Driver\src/stm32f10x_dma.c ****   *     @arg DMA2_FLAG_TE5: DMA2 Channel5 transfer error flag.
 521:.\stlib\STM32F10x_StdPeriph_Driver\src/stm32f10x_dma.c ****   * @retval None
 522:.\stlib\STM32F10x_StdPeriph_Driver\src/stm32f10x_dma.c ****   */
 523:.\stlib\STM32F10x_StdPeriph_Driver\src/stm32f10x_dma.c **** void DMA_ClearFlag(uint32_t DMAy_FLAG)
 524:.\stlib\STM32F10x_StdPeriph_Driver\src/stm32f10x_dma.c **** {
 701              		.loc 1 524 1 is_stmt 1 view -0
 702              		.cfi_startproc
 703              		@ args = 0, pretend = 0, frame = 0
 704              		@ frame_needed = 0, uses_anonymous_args = 0
 705              		@ link register save eliminated.
 525:.\stlib\STM32F10x_StdPeriph_Driver\src/stm32f10x_dma.c ****   /* Check the parameters */
 526:.\stlib\STM32F10x_StdPeriph_Driver\src/stm32f10x_dma.c ****   assert_param(IS_DMA_CLEAR_FLAG(DMAy_FLAG));
 706              		.loc 1 526 3 view .LVU178
 527:.\stlib\STM32F10x_StdPeriph_Driver\src/stm32f10x_dma.c **** 
 528:.\stlib\STM32F10x_StdPeriph_Driver\src/stm32f10x_dma.c ****   /* Calculate the used DMAy */
 529:.\stlib\STM32F10x_StdPeriph_Driver\src/stm32f10x_dma.c ****   if ((DMAy_FLAG & FLAG_Mask) != (uint32_t)RESET)
 707              		.loc 1 529 3 view .LVU179
 708              	@ .\stlib\STM32F10x_StdPeriph_Driver\src\stm32f10x_dma.c:529:   if ((DMAy_FLAG & FLAG_Mask) != (uin
 709              		.loc 1 529 6 is_stmt 0 view .LVU180
 710 0198 C300     		lsls	r3, r0, #3	@, DMAy_FLAG,
 530:.\stlib\STM32F10x_StdPeriph_Driver\src/stm32f10x_dma.c ****   {
 531:.\stlib\STM32F10x_StdPeriph_Driver\src/stm32f10x_dma.c ****     /* Clear the selected DMAy flags */
 532:.\stlib\STM32F10x_StdPeriph_Driver\src/stm32f10x_dma.c ****     DMA2->IFCR = DMAy_FLAG;
 711              		.loc 1 532 5 is_stmt 1 view .LVU181
 712              	@ .\stlib\STM32F10x_StdPeriph_Driver\src\stm32f10x_dma.c:532:     DMA2->IFCR = DMAy_FLAG;
 713              		.loc 1 532 16 is_stmt 0 view .LVU182
 714 019a 4CBF     		ite	mi
 715 019c 014B     		ldrmi	r3, .L44	@ tmp113,
 533:.\stlib\STM32F10x_StdPeriph_Driver\src/stm32f10x_dma.c ****   }
 534:.\stlib\STM32F10x_StdPeriph_Driver\src/stm32f10x_dma.c ****   else
 535:.\stlib\STM32F10x_StdPeriph_Driver\src/stm32f10x_dma.c ****   {
 536:.\stlib\STM32F10x_StdPeriph_Driver\src/stm32f10x_dma.c ****     /* Clear the selected DMAy flags */
 537:.\stlib\STM32F10x_StdPeriph_Driver\src/stm32f10x_dma.c ****     DMA1->IFCR = DMAy_FLAG;
ARM GAS  C:\Users\skey\AppData\Local\Temp\ccsfckNU.s 			page 24


 716              		.loc 1 537 5 is_stmt 1 view .LVU183
 717              	@ .\stlib\STM32F10x_StdPeriph_Driver\src\stm32f10x_dma.c:537:     DMA1->IFCR = DMAy_FLAG;
 718              		.loc 1 537 16 is_stmt 0 view .LVU184
 719 019e 024B     		ldrpl	r3, .L44+4	@ tmp114,
 720 01a0 5860     		str	r0, [r3, #4]	@ DMAy_FLAG,
 721              	@ .\stlib\STM32F10x_StdPeriph_Driver\src\stm32f10x_dma.c:539: }
 538:.\stlib\STM32F10x_StdPeriph_Driver\src/stm32f10x_dma.c ****   }
 539:.\stlib\STM32F10x_StdPeriph_Driver\src/stm32f10x_dma.c **** }
 722              		.loc 1 539 1 view .LVU185
 723 01a2 7047     		bx	lr	@
 724              	.L45:
 725              		.align	2
 726              	.L44:
 727 01a4 00040240 		.word	1073873920
 728 01a8 00000240 		.word	1073872896
 729              		.cfi_endproc
 730              	.LFE37:
 731              		.size	DMA_ClearFlag, .-DMA_ClearFlag
 732              		.align	1
 733              		.global	DMA_GetITStatus
 734              		.syntax unified
 735              		.thumb
 736              		.thumb_func
 737              		.fpu softvfp
 738              		.type	DMA_GetITStatus, %function
 739              	DMA_GetITStatus:
 740              	.LFB41:
 741              		.cfi_startproc
 742              		@ args = 0, pretend = 0, frame = 0
 743              		@ frame_needed = 0, uses_anonymous_args = 0
 744              		@ link register save eliminated.
 745 01ac FFF7FEBF 		b	DMA_GetFlagStatus		@
 746              		.cfi_endproc
 747              	.LFE41:
 748              		.size	DMA_GetITStatus, .-DMA_GetITStatus
 749              		.align	1
 750              		.global	DMA_ClearITPendingBit
 751              		.syntax unified
 752              		.thumb
 753              		.thumb_func
 754              		.fpu softvfp
 755              		.type	DMA_ClearITPendingBit, %function
 756              	DMA_ClearITPendingBit:
 757              	.LFB43:
 758              		.cfi_startproc
 759              		@ args = 0, pretend = 0, frame = 0
 760              		@ frame_needed = 0, uses_anonymous_args = 0
 761              		@ link register save eliminated.
 762 01b0 FFF7FEBF 		b	DMA_ClearFlag		@
 763              		.cfi_endproc
 764              	.LFE43:
 765              		.size	DMA_ClearITPendingBit, .-DMA_ClearITPendingBit
 766              	.Letext0:
 767              		.file 2 "c:\\program files (x86)\\gnu tools arm embedded\\9 2019-q4-major\\arm-none-eabi\\include\
 768              		.file 3 "c:\\program files (x86)\\gnu tools arm embedded\\9 2019-q4-major\\arm-none-eabi\\include\
 769              		.file 4 ".\\stlib\\CMSIS\\CM3\\CoreSupport/core_cm3.h"
 770              		.file 5 ".\\stlib\\CMSIS\\CM3\\DeviceSupport\\ST\\STM32F10x/system_stm32f10x.h"
ARM GAS  C:\Users\skey\AppData\Local\Temp\ccsfckNU.s 			page 25


 771              		.file 6 ".\\stlib\\CMSIS\\CM3\\DeviceSupport\\ST\\STM32F10x/stm32f10x.h"
 772              		.file 7 ".\\stlib\\STM32F10x_StdPeriph_Driver\\inc/stm32f10x_dma.h"