ARM GAS  C:\Users\skey\AppData\Local\Temp\ccYFm4Xc.s 			page 1


   1              		.cpu cortex-m3
   2              		.eabi_attribute 20, 1	@ Tag_ABI_FP_denormal
   3              		.eabi_attribute 21, 1	@ Tag_ABI_FP_exceptions
   4              		.eabi_attribute 23, 3	@ Tag_ABI_FP_number_model
   5              		.eabi_attribute 24, 1	@ Tag_ABI_align8_needed
   6              		.eabi_attribute 25, 1	@ Tag_ABI_align8_preserved
   7              		.eabi_attribute 26, 1	@ Tag_ABI_enum_size
   8              		.eabi_attribute 30, 4	@ Tag_ABI_optimization_goals
   9              		.eabi_attribute 34, 1	@ Tag_CPU_unaligned_access
  10              		.eabi_attribute 18, 4	@ Tag_ABI_PCS_wchar_t
  11              		.file	"stm32f10x_exti.c"
  12              	@ GNU C17 (GNU Tools for Arm Embedded Processors 9-2019-q4-major) version 9.2.1 20191025 (release) 
  13              	@	compiled by GNU C version 5.3.1 20160211, GMP version 6.1.0, MPFR version 3.1.4, MPC version 1.0.
  14              	
  15              	@ GGC heuristics: --param ggc-min-expand=100 --param ggc-min-heapsize=131072
  16              	@ options passed:  -I . -I .\usr_inc -I .\task_inc
  17              	@ -I .\stlib\CMSIS\CM3\CoreSupport
  18              	@ -I .\stlib\CMSIS\CM3\DeviceSupport\ST\STM32F10x
  19              	@ -I .\stlib\STM32F10x_StdPeriph_Driver\inc
  20              	@ -I .\stlib\STM32F10x_StdPeriph_Driver -I .\freertos\include
  21              	@ -I .\freertos\portable\GCC\ARM_CM3 -imultilib thumb/v7-m/nofp
  22              	@ -iprefix c:\program files (x86)\gnu tools arm embedded\9 2019-q4-major\bin\../lib/gcc/arm-none-ea
  23              	@ -isysroot c:\program files (x86)\gnu tools arm embedded\9 2019-q4-major\bin\../arm-none-eabi
  24              	@ -D__USES_INITFINI__ -D STM32F10X_HD -D USE_STDPERIPH_DRIVER
  25              	@ -D HSE_VALUE=8000000 -D RUN_FROM_FLASH=1
  26              	@ .\stlib\STM32F10x_StdPeriph_Driver\src\stm32f10x_exti.c -mcpu=cortex-m3
  27              	@ -mthumb -mfloat-abi=soft -march=armv7-m
  28              	@ -auxbase-strip .\stlib\STM32F10x_StdPeriph_Driver\src\stm32f10x_exti.o -g
  29              	@ -gdwarf-2 -Os -Wall -fomit-frame-pointer -fverbose-asm
  30              	@ options enabled:  -faggressive-loop-optimizations -fassume-phsa
  31              	@ -fauto-inc-dec -fbranch-count-reg -fcaller-saves -fcode-hoisting
  32              	@ -fcombine-stack-adjustments -fcommon -fcompare-elim -fcprop-registers
  33              	@ -fcrossjumping -fcse-follow-jumps -fdefer-pop
  34              	@ -fdelete-null-pointer-checks -fdevirtualize -fdevirtualize-speculatively
  35              	@ -fdwarf2-cfi-asm -fearly-inlining -feliminate-unused-debug-types
  36              	@ -fexpensive-optimizations -fforward-propagate -ffp-int-builtin-inexact
  37              	@ -ffunction-cse -fgcse -fgcse-lm -fgnu-runtime -fgnu-unique
  38              	@ -fguess-branch-probability -fhoist-adjacent-loads -fident -fif-conversion
  39              	@ -fif-conversion2 -findirect-inlining -finline -finline-atomics
  40              	@ -finline-functions -finline-functions-called-once
  41              	@ -finline-small-functions -fipa-bit-cp -fipa-cp -fipa-icf
  42              	@ -fipa-icf-functions -fipa-icf-variables -fipa-profile -fipa-pure-const
  43              	@ -fipa-ra -fipa-reference -fipa-reference-addressable -fipa-sra
  44              	@ -fipa-stack-alignment -fipa-vrp -fira-hoist-pressure
  45              	@ -fira-share-save-slots -fira-share-spill-slots
  46              	@ -fisolate-erroneous-paths-dereference -fivopts -fkeep-static-consts
  47              	@ -fleading-underscore -flifetime-dse -flra-remat -flto-odr-type-merging
  48              	@ -fmath-errno -fmerge-constants -fmerge-debug-strings
  49              	@ -fmove-loop-invariants -fomit-frame-pointer -foptimize-sibling-calls
  50              	@ -fpartial-inlining -fpeephole -fpeephole2 -fplt -fprefetch-loop-arrays
  51              	@ -freg-struct-return -freorder-blocks -freorder-functions
  52              	@ -frerun-cse-after-loop -fsched-critical-path-heuristic
  53              	@ -fsched-dep-count-heuristic -fsched-group-heuristic -fsched-interblock
  54              	@ -fsched-last-insn-heuristic -fsched-pressure -fsched-rank-heuristic
  55              	@ -fsched-spec -fsched-spec-insn-heuristic -fsched-stalled-insns-dep
  56              	@ -fschedule-insns2 -fsection-anchors -fsemantic-interposition
  57              	@ -fshow-column -fshrink-wrap-separate -fsigned-zeros
ARM GAS  C:\Users\skey\AppData\Local\Temp\ccYFm4Xc.s 			page 2


  58              	@ -fsplit-ivs-in-unroller -fsplit-wide-types -fssa-backprop -fssa-phiopt
  59              	@ -fstdarg-opt -fstore-merging -fstrict-aliasing
  60              	@ -fstrict-volatile-bitfields -fsync-libcalls -fthread-jumps
  61              	@ -ftoplevel-reorder -ftrapping-math -ftree-bit-ccp -ftree-builtin-call-dce
  62              	@ -ftree-ccp -ftree-ch -ftree-coalesce-vars -ftree-copy-prop -ftree-cselim
  63              	@ -ftree-dce -ftree-dominator-opts -ftree-dse -ftree-forwprop -ftree-fre
  64              	@ -ftree-loop-if-convert -ftree-loop-im -ftree-loop-ivcanon
  65              	@ -ftree-loop-optimize -ftree-parallelize-loops= -ftree-phiprop -ftree-pre
  66              	@ -ftree-pta -ftree-reassoc -ftree-scev-cprop -ftree-sink -ftree-slsr
  67              	@ -ftree-sra -ftree-switch-conversion -ftree-tail-merge -ftree-ter
  68              	@ -ftree-vrp -funit-at-a-time -fvar-tracking -fvar-tracking-assignments
  69              	@ -fverbose-asm -fzero-initialized-in-bss -masm-syntax-unified -mbe32
  70              	@ -mfix-cortex-m3-ldrd -mlittle-endian -mpic-data-is-text-relative
  71              	@ -msched-prolog -mthumb -munaligned-access -mvectorize-with-neon-quad
  72              	
  73              		.text
  74              	.Ltext0:
  75              		.cfi_sections	.debug_frame
  76              		.align	1
  77              		.global	EXTI_DeInit
  78              		.arch armv7-m
  79              		.syntax unified
  80              		.thumb
  81              		.thumb_func
  82              		.fpu softvfp
  83              		.type	EXTI_DeInit, %function
  84              	EXTI_DeInit:
  85              	.LFB29:
  86              		.file 1 ".\\stlib\\STM32F10x_StdPeriph_Driver\\src\\stm32f10x_exti.c"
   1:.\stlib\STM32F10x_StdPeriph_Driver\src/stm32f10x_exti.c **** /**
   2:.\stlib\STM32F10x_StdPeriph_Driver\src/stm32f10x_exti.c ****   ******************************************************************************
   3:.\stlib\STM32F10x_StdPeriph_Driver\src/stm32f10x_exti.c ****   * @file    stm32f10x_exti.c
   4:.\stlib\STM32F10x_StdPeriph_Driver\src/stm32f10x_exti.c ****   * @author  MCD Application Team
   5:.\stlib\STM32F10x_StdPeriph_Driver\src/stm32f10x_exti.c ****   * @version V3.5.0
   6:.\stlib\STM32F10x_StdPeriph_Driver\src/stm32f10x_exti.c ****   * @date    11-March-2011
   7:.\stlib\STM32F10x_StdPeriph_Driver\src/stm32f10x_exti.c ****   * @brief   This file provides all the EXTI firmware functions.
   8:.\stlib\STM32F10x_StdPeriph_Driver\src/stm32f10x_exti.c ****   ******************************************************************************
   9:.\stlib\STM32F10x_StdPeriph_Driver\src/stm32f10x_exti.c ****   * @attention
  10:.\stlib\STM32F10x_StdPeriph_Driver\src/stm32f10x_exti.c ****   *
  11:.\stlib\STM32F10x_StdPeriph_Driver\src/stm32f10x_exti.c ****   * THE PRESENT FIRMWARE WHICH IS FOR GUIDANCE ONLY AIMS AT PROVIDING CUSTOMERS
  12:.\stlib\STM32F10x_StdPeriph_Driver\src/stm32f10x_exti.c ****   * WITH CODING INFORMATION REGARDING THEIR PRODUCTS IN ORDER FOR THEM TO SAVE
  13:.\stlib\STM32F10x_StdPeriph_Driver\src/stm32f10x_exti.c ****   * TIME. AS A RESULT, STMICROELECTRONICS SHALL NOT BE HELD LIABLE FOR ANY
  14:.\stlib\STM32F10x_StdPeriph_Driver\src/stm32f10x_exti.c ****   * DIRECT, INDIRECT OR CONSEQUENTIAL DAMAGES WITH RESPECT TO ANY CLAIMS ARISING
  15:.\stlib\STM32F10x_StdPeriph_Driver\src/stm32f10x_exti.c ****   * FROM THE CONTENT OF SUCH FIRMWARE AND/OR THE USE MADE BY CUSTOMERS OF THE
  16:.\stlib\STM32F10x_StdPeriph_Driver\src/stm32f10x_exti.c ****   * CODING INFORMATION CONTAINED HEREIN IN CONNECTION WITH THEIR PRODUCTS.
  17:.\stlib\STM32F10x_StdPeriph_Driver\src/stm32f10x_exti.c ****   *
  18:.\stlib\STM32F10x_StdPeriph_Driver\src/stm32f10x_exti.c ****   * <h2><center>&copy; COPYRIGHT 2011 STMicroelectronics</center></h2>
  19:.\stlib\STM32F10x_StdPeriph_Driver\src/stm32f10x_exti.c ****   ******************************************************************************
  20:.\stlib\STM32F10x_StdPeriph_Driver\src/stm32f10x_exti.c ****   */
  21:.\stlib\STM32F10x_StdPeriph_Driver\src/stm32f10x_exti.c **** 
  22:.\stlib\STM32F10x_StdPeriph_Driver\src/stm32f10x_exti.c **** /* Includes ------------------------------------------------------------------*/
  23:.\stlib\STM32F10x_StdPeriph_Driver\src/stm32f10x_exti.c **** #include "stm32f10x_exti.h"
  24:.\stlib\STM32F10x_StdPeriph_Driver\src/stm32f10x_exti.c **** 
  25:.\stlib\STM32F10x_StdPeriph_Driver\src/stm32f10x_exti.c **** /** @addtogroup STM32F10x_StdPeriph_Driver
  26:.\stlib\STM32F10x_StdPeriph_Driver\src/stm32f10x_exti.c ****   * @{
  27:.\stlib\STM32F10x_StdPeriph_Driver\src/stm32f10x_exti.c ****   */
  28:.\stlib\STM32F10x_StdPeriph_Driver\src/stm32f10x_exti.c **** 
ARM GAS  C:\Users\skey\AppData\Local\Temp\ccYFm4Xc.s 			page 3


  29:.\stlib\STM32F10x_StdPeriph_Driver\src/stm32f10x_exti.c **** /** @defgroup EXTI 
  30:.\stlib\STM32F10x_StdPeriph_Driver\src/stm32f10x_exti.c ****   * @brief EXTI driver modules
  31:.\stlib\STM32F10x_StdPeriph_Driver\src/stm32f10x_exti.c ****   * @{
  32:.\stlib\STM32F10x_StdPeriph_Driver\src/stm32f10x_exti.c ****   */
  33:.\stlib\STM32F10x_StdPeriph_Driver\src/stm32f10x_exti.c **** 
  34:.\stlib\STM32F10x_StdPeriph_Driver\src/stm32f10x_exti.c **** /** @defgroup EXTI_Private_TypesDefinitions
  35:.\stlib\STM32F10x_StdPeriph_Driver\src/stm32f10x_exti.c ****   * @{
  36:.\stlib\STM32F10x_StdPeriph_Driver\src/stm32f10x_exti.c ****   */
  37:.\stlib\STM32F10x_StdPeriph_Driver\src/stm32f10x_exti.c **** 
  38:.\stlib\STM32F10x_StdPeriph_Driver\src/stm32f10x_exti.c **** /**
  39:.\stlib\STM32F10x_StdPeriph_Driver\src/stm32f10x_exti.c ****   * @}
  40:.\stlib\STM32F10x_StdPeriph_Driver\src/stm32f10x_exti.c ****   */
  41:.\stlib\STM32F10x_StdPeriph_Driver\src/stm32f10x_exti.c **** 
  42:.\stlib\STM32F10x_StdPeriph_Driver\src/stm32f10x_exti.c **** /** @defgroup EXTI_Private_Defines
  43:.\stlib\STM32F10x_StdPeriph_Driver\src/stm32f10x_exti.c ****   * @{
  44:.\stlib\STM32F10x_StdPeriph_Driver\src/stm32f10x_exti.c ****   */
  45:.\stlib\STM32F10x_StdPeriph_Driver\src/stm32f10x_exti.c **** 
  46:.\stlib\STM32F10x_StdPeriph_Driver\src/stm32f10x_exti.c **** #define EXTI_LINENONE    ((uint32_t)0x00000)  /* No interrupt selected */
  47:.\stlib\STM32F10x_StdPeriph_Driver\src/stm32f10x_exti.c **** 
  48:.\stlib\STM32F10x_StdPeriph_Driver\src/stm32f10x_exti.c **** /**
  49:.\stlib\STM32F10x_StdPeriph_Driver\src/stm32f10x_exti.c ****   * @}
  50:.\stlib\STM32F10x_StdPeriph_Driver\src/stm32f10x_exti.c ****   */
  51:.\stlib\STM32F10x_StdPeriph_Driver\src/stm32f10x_exti.c **** 
  52:.\stlib\STM32F10x_StdPeriph_Driver\src/stm32f10x_exti.c **** /** @defgroup EXTI_Private_Macros
  53:.\stlib\STM32F10x_StdPeriph_Driver\src/stm32f10x_exti.c ****   * @{
  54:.\stlib\STM32F10x_StdPeriph_Driver\src/stm32f10x_exti.c ****   */
  55:.\stlib\STM32F10x_StdPeriph_Driver\src/stm32f10x_exti.c **** 
  56:.\stlib\STM32F10x_StdPeriph_Driver\src/stm32f10x_exti.c **** /**
  57:.\stlib\STM32F10x_StdPeriph_Driver\src/stm32f10x_exti.c ****   * @}
  58:.\stlib\STM32F10x_StdPeriph_Driver\src/stm32f10x_exti.c ****   */
  59:.\stlib\STM32F10x_StdPeriph_Driver\src/stm32f10x_exti.c **** 
  60:.\stlib\STM32F10x_StdPeriph_Driver\src/stm32f10x_exti.c **** /** @defgroup EXTI_Private_Variables
  61:.\stlib\STM32F10x_StdPeriph_Driver\src/stm32f10x_exti.c ****   * @{
  62:.\stlib\STM32F10x_StdPeriph_Driver\src/stm32f10x_exti.c ****   */
  63:.\stlib\STM32F10x_StdPeriph_Driver\src/stm32f10x_exti.c **** 
  64:.\stlib\STM32F10x_StdPeriph_Driver\src/stm32f10x_exti.c **** /**
  65:.\stlib\STM32F10x_StdPeriph_Driver\src/stm32f10x_exti.c ****   * @}
  66:.\stlib\STM32F10x_StdPeriph_Driver\src/stm32f10x_exti.c ****   */
  67:.\stlib\STM32F10x_StdPeriph_Driver\src/stm32f10x_exti.c **** 
  68:.\stlib\STM32F10x_StdPeriph_Driver\src/stm32f10x_exti.c **** /** @defgroup EXTI_Private_FunctionPrototypes
  69:.\stlib\STM32F10x_StdPeriph_Driver\src/stm32f10x_exti.c ****   * @{
  70:.\stlib\STM32F10x_StdPeriph_Driver\src/stm32f10x_exti.c ****   */
  71:.\stlib\STM32F10x_StdPeriph_Driver\src/stm32f10x_exti.c **** 
  72:.\stlib\STM32F10x_StdPeriph_Driver\src/stm32f10x_exti.c **** /**
  73:.\stlib\STM32F10x_StdPeriph_Driver\src/stm32f10x_exti.c ****   * @}
  74:.\stlib\STM32F10x_StdPeriph_Driver\src/stm32f10x_exti.c ****   */
  75:.\stlib\STM32F10x_StdPeriph_Driver\src/stm32f10x_exti.c **** 
  76:.\stlib\STM32F10x_StdPeriph_Driver\src/stm32f10x_exti.c **** /** @defgroup EXTI_Private_Functions
  77:.\stlib\STM32F10x_StdPeriph_Driver\src/stm32f10x_exti.c ****   * @{
  78:.\stlib\STM32F10x_StdPeriph_Driver\src/stm32f10x_exti.c ****   */
  79:.\stlib\STM32F10x_StdPeriph_Driver\src/stm32f10x_exti.c **** 
  80:.\stlib\STM32F10x_StdPeriph_Driver\src/stm32f10x_exti.c **** /**
  81:.\stlib\STM32F10x_StdPeriph_Driver\src/stm32f10x_exti.c ****   * @brief  Deinitializes the EXTI peripheral registers to their default reset values.
  82:.\stlib\STM32F10x_StdPeriph_Driver\src/stm32f10x_exti.c ****   * @param  None
  83:.\stlib\STM32F10x_StdPeriph_Driver\src/stm32f10x_exti.c ****   * @retval None
  84:.\stlib\STM32F10x_StdPeriph_Driver\src/stm32f10x_exti.c ****   */
  85:.\stlib\STM32F10x_StdPeriph_Driver\src/stm32f10x_exti.c **** void EXTI_DeInit(void)
ARM GAS  C:\Users\skey\AppData\Local\Temp\ccYFm4Xc.s 			page 4


  86:.\stlib\STM32F10x_StdPeriph_Driver\src/stm32f10x_exti.c **** {
  87              		.loc 1 86 1 view -0
  88              		.cfi_startproc
  89              		@ args = 0, pretend = 0, frame = 0
  90              		@ frame_needed = 0, uses_anonymous_args = 0
  91              		@ link register save eliminated.
  87:.\stlib\STM32F10x_StdPeriph_Driver\src/stm32f10x_exti.c ****   EXTI->IMR = 0x00000000;
  92              		.loc 1 87 3 view .LVU1
  93              	@ .\stlib\STM32F10x_StdPeriph_Driver\src\stm32f10x_exti.c:87:   EXTI->IMR = 0x00000000;
  94              		.loc 1 87 13 is_stmt 0 view .LVU2
  95 0000 0022     		movs	r2, #0	@ tmp111,
  96 0002 044B     		ldr	r3, .L2	@ tmp110,
  97 0004 1A60     		str	r2, [r3]	@ tmp111, MEM[(struct EXTI_TypeDef *)1073808384B].IMR
  88:.\stlib\STM32F10x_StdPeriph_Driver\src/stm32f10x_exti.c ****   EXTI->EMR = 0x00000000;
  98              		.loc 1 88 3 is_stmt 1 view .LVU3
  99              	@ .\stlib\STM32F10x_StdPeriph_Driver\src\stm32f10x_exti.c:88:   EXTI->EMR = 0x00000000;
 100              		.loc 1 88 13 is_stmt 0 view .LVU4
 101 0006 5A60     		str	r2, [r3, #4]	@ tmp111, MEM[(struct EXTI_TypeDef *)1073808384B].EMR
  89:.\stlib\STM32F10x_StdPeriph_Driver\src/stm32f10x_exti.c ****   EXTI->RTSR = 0x00000000; 
 102              		.loc 1 89 3 is_stmt 1 view .LVU5
 103              	@ .\stlib\STM32F10x_StdPeriph_Driver\src\stm32f10x_exti.c:89:   EXTI->RTSR = 0x00000000; 
 104              		.loc 1 89 14 is_stmt 0 view .LVU6
 105 0008 9A60     		str	r2, [r3, #8]	@ tmp111, MEM[(struct EXTI_TypeDef *)1073808384B].RTSR
  90:.\stlib\STM32F10x_StdPeriph_Driver\src/stm32f10x_exti.c ****   EXTI->FTSR = 0x00000000; 
 106              		.loc 1 90 3 is_stmt 1 view .LVU7
 107              	@ .\stlib\STM32F10x_StdPeriph_Driver\src\stm32f10x_exti.c:90:   EXTI->FTSR = 0x00000000; 
 108              		.loc 1 90 14 is_stmt 0 view .LVU8
 109 000a DA60     		str	r2, [r3, #12]	@ tmp111, MEM[(struct EXTI_TypeDef *)1073808384B].FTSR
  91:.\stlib\STM32F10x_StdPeriph_Driver\src/stm32f10x_exti.c ****   EXTI->PR = 0x000FFFFF;
 110              		.loc 1 91 3 is_stmt 1 view .LVU9
 111              	@ .\stlib\STM32F10x_StdPeriph_Driver\src\stm32f10x_exti.c:91:   EXTI->PR = 0x000FFFFF;
 112              		.loc 1 91 12 is_stmt 0 view .LVU10
 113 000c 024A     		ldr	r2, .L2+4	@ tmp119,
 114 000e 5A61     		str	r2, [r3, #20]	@ tmp119, MEM[(struct EXTI_TypeDef *)1073808384B].PR
 115              	@ .\stlib\STM32F10x_StdPeriph_Driver\src\stm32f10x_exti.c:92: }
  92:.\stlib\STM32F10x_StdPeriph_Driver\src/stm32f10x_exti.c **** }
 116              		.loc 1 92 1 view .LVU11
 117 0010 7047     		bx	lr	@
 118              	.L3:
 119 0012 00BF     		.align	2
 120              	.L2:
 121 0014 00040140 		.word	1073808384
 122 0018 FFFF0F00 		.word	1048575
 123              		.cfi_endproc
 124              	.LFE29:
 125              		.size	EXTI_DeInit, .-EXTI_DeInit
 126              		.align	1
 127              		.global	EXTI_Init
 128              		.syntax unified
 129              		.thumb
 130              		.thumb_func
 131              		.fpu softvfp
 132              		.type	EXTI_Init, %function
 133              	EXTI_Init:
 134              	.LVL0:
 135              	.LFB30:
  93:.\stlib\STM32F10x_StdPeriph_Driver\src/stm32f10x_exti.c **** 
ARM GAS  C:\Users\skey\AppData\Local\Temp\ccYFm4Xc.s 			page 5


  94:.\stlib\STM32F10x_StdPeriph_Driver\src/stm32f10x_exti.c **** /**
  95:.\stlib\STM32F10x_StdPeriph_Driver\src/stm32f10x_exti.c ****   * @brief  Initializes the EXTI peripheral according to the specified
  96:.\stlib\STM32F10x_StdPeriph_Driver\src/stm32f10x_exti.c ****   *         parameters in the EXTI_InitStruct.
  97:.\stlib\STM32F10x_StdPeriph_Driver\src/stm32f10x_exti.c ****   * @param  EXTI_InitStruct: pointer to a EXTI_InitTypeDef structure
  98:.\stlib\STM32F10x_StdPeriph_Driver\src/stm32f10x_exti.c ****   *         that contains the configuration information for the EXTI peripheral.
  99:.\stlib\STM32F10x_StdPeriph_Driver\src/stm32f10x_exti.c ****   * @retval None
 100:.\stlib\STM32F10x_StdPeriph_Driver\src/stm32f10x_exti.c ****   */
 101:.\stlib\STM32F10x_StdPeriph_Driver\src/stm32f10x_exti.c **** void EXTI_Init(EXTI_InitTypeDef* EXTI_InitStruct)
 102:.\stlib\STM32F10x_StdPeriph_Driver\src/stm32f10x_exti.c **** {
 136              		.loc 1 102 1 is_stmt 1 view -0
 137              		.cfi_startproc
 138              		@ args = 0, pretend = 0, frame = 0
 139              		@ frame_needed = 0, uses_anonymous_args = 0
 103:.\stlib\STM32F10x_StdPeriph_Driver\src/stm32f10x_exti.c ****   uint32_t tmp = 0;
 140              		.loc 1 103 3 view .LVU13
 104:.\stlib\STM32F10x_StdPeriph_Driver\src/stm32f10x_exti.c **** 
 105:.\stlib\STM32F10x_StdPeriph_Driver\src/stm32f10x_exti.c ****   /* Check the parameters */
 106:.\stlib\STM32F10x_StdPeriph_Driver\src/stm32f10x_exti.c ****   assert_param(IS_EXTI_MODE(EXTI_InitStruct->EXTI_Mode));
 141              		.loc 1 106 3 view .LVU14
 107:.\stlib\STM32F10x_StdPeriph_Driver\src/stm32f10x_exti.c ****   assert_param(IS_EXTI_TRIGGER(EXTI_InitStruct->EXTI_Trigger));
 142              		.loc 1 107 3 view .LVU15
 108:.\stlib\STM32F10x_StdPeriph_Driver\src/stm32f10x_exti.c ****   assert_param(IS_EXTI_LINE(EXTI_InitStruct->EXTI_Line));  
 143              		.loc 1 108 3 view .LVU16
 109:.\stlib\STM32F10x_StdPeriph_Driver\src/stm32f10x_exti.c ****   assert_param(IS_FUNCTIONAL_STATE(EXTI_InitStruct->EXTI_LineCmd));
 144              		.loc 1 109 3 view .LVU17
 110:.\stlib\STM32F10x_StdPeriph_Driver\src/stm32f10x_exti.c **** 
 111:.\stlib\STM32F10x_StdPeriph_Driver\src/stm32f10x_exti.c ****   tmp = (uint32_t)EXTI_BASE;
 145              		.loc 1 111 3 view .LVU18
 112:.\stlib\STM32F10x_StdPeriph_Driver\src/stm32f10x_exti.c ****      
 113:.\stlib\STM32F10x_StdPeriph_Driver\src/stm32f10x_exti.c ****   if (EXTI_InitStruct->EXTI_LineCmd != DISABLE)
 146              		.loc 1 113 3 view .LVU19
 147 001c 0279     		ldrb	r2, [r0, #4]	@ zero_extendqisi2	@ EXTI_InitStruct_37(D)->EXTI_Mode, EXTI_InitStruct_37(D)->EX
 148              	@ .\stlib\STM32F10x_StdPeriph_Driver\src\stm32f10x_exti.c:102: {
 102:.\stlib\STM32F10x_StdPeriph_Driver\src/stm32f10x_exti.c ****   uint32_t tmp = 0;
 149              		.loc 1 102 1 is_stmt 0 view .LVU20
 150 001e 30B5     		push	{r4, r5, lr}	@
 151              	.LCFI0:
 152              		.cfi_def_cfa_offset 12
 153              		.cfi_offset 4, -12
 154              		.cfi_offset 5, -8
 155              		.cfi_offset 14, -4
 156              	@ .\stlib\STM32F10x_StdPeriph_Driver\src\stm32f10x_exti.c:113:   if (EXTI_InitStruct->EXTI_LineCmd 
 157              		.loc 1 113 6 view .LVU21
 158 0020 8379     		ldrb	r3, [r0, #6]	@ zero_extendqisi2	@ EXTI_InitStruct_37(D)->EXTI_LineCmd, EXTI_InitStruct_37(D)-
 159 0022 0568     		ldr	r5, [r0]	@ pretmp_50, EXTI_InitStruct_37(D)->EXTI_Line
 160 0024 02F18042 		add	r2, r2, #1073741824	@ _51, EXTI_InitStruct_37(D)->EXTI_Mode,
 161 0028 E943     		mvns	r1, r5	@ _54, pretmp_50
 162 002a 02F58232 		add	r2, r2, #66560	@ _51, _51,
 163 002e 23B3     		cbz	r3, .L5	@ EXTI_InitStruct_37(D)->EXTI_LineCmd,
 114:.\stlib\STM32F10x_StdPeriph_Driver\src/stm32f10x_exti.c ****   {
 115:.\stlib\STM32F10x_StdPeriph_Driver\src/stm32f10x_exti.c ****     /* Clear EXTI line configuration */
 116:.\stlib\STM32F10x_StdPeriph_Driver\src/stm32f10x_exti.c ****     EXTI->IMR &= ~EXTI_InitStruct->EXTI_Line;
 164              		.loc 1 116 5 is_stmt 1 view .LVU22
 165              	@ .\stlib\STM32F10x_StdPeriph_Driver\src\stm32f10x_exti.c:116:     EXTI->IMR &= ~EXTI_InitStruct->E
 166              		.loc 1 116 15 is_stmt 0 view .LVU23
 167 0030 144B     		ldr	r3, .L8	@ tmp145,
 168 0032 1C68     		ldr	r4, [r3]	@ _2, MEM[(struct EXTI_TypeDef *)1073808384B].IMR
ARM GAS  C:\Users\skey\AppData\Local\Temp\ccYFm4Xc.s 			page 6


 169 0034 0C40     		ands	r4, r4, r1	@, _5, _2, _54
 170 0036 1C60     		str	r4, [r3]	@ _5, MEM[(struct EXTI_TypeDef *)1073808384B].IMR
 117:.\stlib\STM32F10x_StdPeriph_Driver\src/stm32f10x_exti.c ****     EXTI->EMR &= ~EXTI_InitStruct->EXTI_Line;
 171              		.loc 1 117 5 is_stmt 1 view .LVU24
 172              	@ .\stlib\STM32F10x_StdPeriph_Driver\src\stm32f10x_exti.c:117:     EXTI->EMR &= ~EXTI_InitStruct->E
 173              		.loc 1 117 15 is_stmt 0 view .LVU25
 174 0038 5C68     		ldr	r4, [r3, #4]	@ _6, MEM[(struct EXTI_TypeDef *)1073808384B].EMR
 175 003a 2140     		ands	r1, r1, r4	@, _7, _54, _6
 176 003c 5960     		str	r1, [r3, #4]	@ _7, MEM[(struct EXTI_TypeDef *)1073808384B].EMR
 118:.\stlib\STM32F10x_StdPeriph_Driver\src/stm32f10x_exti.c ****     
 119:.\stlib\STM32F10x_StdPeriph_Driver\src/stm32f10x_exti.c ****     tmp += EXTI_InitStruct->EXTI_Mode;
 177              		.loc 1 119 5 is_stmt 1 view .LVU26
 178              	.LVL1:
 120:.\stlib\STM32F10x_StdPeriph_Driver\src/stm32f10x_exti.c **** 
 121:.\stlib\STM32F10x_StdPeriph_Driver\src/stm32f10x_exti.c ****     *(__IO uint32_t *) tmp |= EXTI_InitStruct->EXTI_Line;
 179              		.loc 1 121 5 view .LVU27
 180              	@ .\stlib\STM32F10x_StdPeriph_Driver\src\stm32f10x_exti.c:121:     *(__IO uint32_t *) tmp |= EXTI_I
 181              		.loc 1 121 28 is_stmt 0 view .LVU28
 182 003e 1168     		ldr	r1, [r2]	@ _11, *_51
 183 0040 2943     		orrs	r1, r1, r5	@, _12, _11, pretmp_50
 184 0042 1160     		str	r1, [r2]	@ _12, *_51
 185              	.LVL2:
 122:.\stlib\STM32F10x_StdPeriph_Driver\src/stm32f10x_exti.c **** 
 123:.\stlib\STM32F10x_StdPeriph_Driver\src/stm32f10x_exti.c ****     /* Clear Rising Falling edge configuration */
 124:.\stlib\STM32F10x_StdPeriph_Driver\src/stm32f10x_exti.c ****     EXTI->RTSR &= ~EXTI_InitStruct->EXTI_Line;
 186              		.loc 1 124 5 is_stmt 1 view .LVU29
 187              	@ .\stlib\STM32F10x_StdPeriph_Driver\src\stm32f10x_exti.c:124:     EXTI->RTSR &= ~EXTI_InitStruct->
 188              		.loc 1 124 16 is_stmt 0 view .LVU30
 189 0044 9968     		ldr	r1, [r3, #8]	@ _13, MEM[(struct EXTI_TypeDef *)1073808384B].RTSR
 190              	@ .\stlib\STM32F10x_StdPeriph_Driver\src\stm32f10x_exti.c:124:     EXTI->RTSR &= ~EXTI_InitStruct->
 191              		.loc 1 124 35 view .LVU31
 192 0046 0268     		ldr	r2, [r0]	@ _14, EXTI_InitStruct_37(D)->EXTI_Line
 193              	@ .\stlib\STM32F10x_StdPeriph_Driver\src\stm32f10x_exti.c:124:     EXTI->RTSR &= ~EXTI_InitStruct->
 194              		.loc 1 124 16 view .LVU32
 195 0048 21EA0201 		bic	r1, r1, r2	@ _16, _13, _14
 196 004c 9960     		str	r1, [r3, #8]	@ _16, MEM[(struct EXTI_TypeDef *)1073808384B].RTSR
 125:.\stlib\STM32F10x_StdPeriph_Driver\src/stm32f10x_exti.c ****     EXTI->FTSR &= ~EXTI_InitStruct->EXTI_Line;
 197              		.loc 1 125 5 is_stmt 1 view .LVU33
 198              	@ .\stlib\STM32F10x_StdPeriph_Driver\src\stm32f10x_exti.c:125:     EXTI->FTSR &= ~EXTI_InitStruct->
 199              		.loc 1 125 16 is_stmt 0 view .LVU34
 200 004e D968     		ldr	r1, [r3, #12]	@ _17, MEM[(struct EXTI_TypeDef *)1073808384B].FTSR
 201 0050 21EA0201 		bic	r1, r1, r2	@ _18, _17, _14
 202 0054 D960     		str	r1, [r3, #12]	@ _18, MEM[(struct EXTI_TypeDef *)1073808384B].FTSR
 126:.\stlib\STM32F10x_StdPeriph_Driver\src/stm32f10x_exti.c ****     
 127:.\stlib\STM32F10x_StdPeriph_Driver\src/stm32f10x_exti.c ****     /* Select the trigger for the selected external interrupts */
 128:.\stlib\STM32F10x_StdPeriph_Driver\src/stm32f10x_exti.c ****     if (EXTI_InitStruct->EXTI_Trigger == EXTI_Trigger_Rising_Falling)
 203              		.loc 1 128 5 is_stmt 1 view .LVU35
 204              	@ .\stlib\STM32F10x_StdPeriph_Driver\src\stm32f10x_exti.c:128:     if (EXTI_InitStruct->EXTI_Trigge
 205              		.loc 1 128 24 is_stmt 0 view .LVU36
 206 0056 4179     		ldrb	r1, [r0, #5]	@ zero_extendqisi2	@ _19, EXTI_InitStruct_37(D)->EXTI_Trigger
 207              	@ .\stlib\STM32F10x_StdPeriph_Driver\src\stm32f10x_exti.c:128:     if (EXTI_InitStruct->EXTI_Trigge
 208              		.loc 1 128 8 view .LVU37
 209 0058 1029     		cmp	r1, #16	@ _19,
 210 005a 06D1     		bne	.L6		@,
 129:.\stlib\STM32F10x_StdPeriph_Driver\src/stm32f10x_exti.c ****     {
 130:.\stlib\STM32F10x_StdPeriph_Driver\src/stm32f10x_exti.c ****       /* Rising Falling edge */
 131:.\stlib\STM32F10x_StdPeriph_Driver\src/stm32f10x_exti.c ****       EXTI->RTSR |= EXTI_InitStruct->EXTI_Line;
ARM GAS  C:\Users\skey\AppData\Local\Temp\ccYFm4Xc.s 			page 7


 211              		.loc 1 131 7 is_stmt 1 view .LVU38
 212              	@ .\stlib\STM32F10x_StdPeriph_Driver\src\stm32f10x_exti.c:131:       EXTI->RTSR |= EXTI_InitStruct-
 213              		.loc 1 131 18 is_stmt 0 view .LVU39
 214 005c 9968     		ldr	r1, [r3, #8]	@ _20, MEM[(struct EXTI_TypeDef *)1073808384B].RTSR
 215 005e 1143     		orrs	r1, r1, r2	@, _21, _20, _14
 216 0060 9960     		str	r1, [r3, #8]	@ _21, MEM[(struct EXTI_TypeDef *)1073808384B].RTSR
 132:.\stlib\STM32F10x_StdPeriph_Driver\src/stm32f10x_exti.c ****       EXTI->FTSR |= EXTI_InitStruct->EXTI_Line;
 217              		.loc 1 132 7 is_stmt 1 view .LVU40
 218              	@ .\stlib\STM32F10x_StdPeriph_Driver\src\stm32f10x_exti.c:132:       EXTI->FTSR |= EXTI_InitStruct-
 219              		.loc 1 132 18 is_stmt 0 view .LVU41
 220 0062 D968     		ldr	r1, [r3, #12]	@ _22, MEM[(struct EXTI_TypeDef *)1073808384B].FTSR
 221 0064 0A43     		orrs	r2, r2, r1	@, _23, _14, _22
 222 0066 DA60     		str	r2, [r3, #12]	@ _23, MEM[(struct EXTI_TypeDef *)1073808384B].FTSR
 223              	.L4:
 224              	@ .\stlib\STM32F10x_StdPeriph_Driver\src\stm32f10x_exti.c:149: }
 133:.\stlib\STM32F10x_StdPeriph_Driver\src/stm32f10x_exti.c ****     }
 134:.\stlib\STM32F10x_StdPeriph_Driver\src/stm32f10x_exti.c ****     else
 135:.\stlib\STM32F10x_StdPeriph_Driver\src/stm32f10x_exti.c ****     {
 136:.\stlib\STM32F10x_StdPeriph_Driver\src/stm32f10x_exti.c ****       tmp = (uint32_t)EXTI_BASE;
 137:.\stlib\STM32F10x_StdPeriph_Driver\src/stm32f10x_exti.c ****       tmp += EXTI_InitStruct->EXTI_Trigger;
 138:.\stlib\STM32F10x_StdPeriph_Driver\src/stm32f10x_exti.c **** 
 139:.\stlib\STM32F10x_StdPeriph_Driver\src/stm32f10x_exti.c ****       *(__IO uint32_t *) tmp |= EXTI_InitStruct->EXTI_Line;
 140:.\stlib\STM32F10x_StdPeriph_Driver\src/stm32f10x_exti.c ****     }
 141:.\stlib\STM32F10x_StdPeriph_Driver\src/stm32f10x_exti.c ****   }
 142:.\stlib\STM32F10x_StdPeriph_Driver\src/stm32f10x_exti.c ****   else
 143:.\stlib\STM32F10x_StdPeriph_Driver\src/stm32f10x_exti.c ****   {
 144:.\stlib\STM32F10x_StdPeriph_Driver\src/stm32f10x_exti.c ****     tmp += EXTI_InitStruct->EXTI_Mode;
 145:.\stlib\STM32F10x_StdPeriph_Driver\src/stm32f10x_exti.c **** 
 146:.\stlib\STM32F10x_StdPeriph_Driver\src/stm32f10x_exti.c ****     /* Disable the selected external lines */
 147:.\stlib\STM32F10x_StdPeriph_Driver\src/stm32f10x_exti.c ****     *(__IO uint32_t *) tmp &= ~EXTI_InitStruct->EXTI_Line;
 148:.\stlib\STM32F10x_StdPeriph_Driver\src/stm32f10x_exti.c ****   }
 149:.\stlib\STM32F10x_StdPeriph_Driver\src/stm32f10x_exti.c **** }
 225              		.loc 1 149 1 view .LVU42
 226 0068 30BD     		pop	{r4, r5, pc}	@
 227              	.L6:
 136:.\stlib\STM32F10x_StdPeriph_Driver\src/stm32f10x_exti.c ****       tmp += EXTI_InitStruct->EXTI_Trigger;
 228              		.loc 1 136 7 is_stmt 1 view .LVU43
 229              	.LVL3:
 137:.\stlib\STM32F10x_StdPeriph_Driver\src/stm32f10x_exti.c **** 
 230              		.loc 1 137 7 view .LVU44
 139:.\stlib\STM32F10x_StdPeriph_Driver\src/stm32f10x_exti.c ****     }
 231              		.loc 1 139 7 view .LVU45
 232              	@ .\stlib\STM32F10x_StdPeriph_Driver\src\stm32f10x_exti.c:137:       tmp += EXTI_InitStruct->EXTI_T
 137:.\stlib\STM32F10x_StdPeriph_Driver\src/stm32f10x_exti.c **** 
 233              		.loc 1 137 11 is_stmt 0 view .LVU46
 234 006a 01F18043 		add	r3, r1, #1073741824	@ tmp.2_25, _19,
 235 006e 03F58233 		add	r3, r3, #66560	@ tmp.2_25, tmp.2_25,
 236              	@ .\stlib\STM32F10x_StdPeriph_Driver\src\stm32f10x_exti.c:139:       *(__IO uint32_t *) tmp |= EXTI
 139:.\stlib\STM32F10x_StdPeriph_Driver\src/stm32f10x_exti.c ****     }
 237              		.loc 1 139 30 view .LVU47
 238 0072 1968     		ldr	r1, [r3]	@ _26, *tmp.2_25
 239              	.LVL4:
 139:.\stlib\STM32F10x_StdPeriph_Driver\src/stm32f10x_exti.c ****     }
 240              		.loc 1 139 30 view .LVU48
 241 0074 0A43     		orrs	r2, r2, r1	@, _27, _14, _26
 242 0076 1A60     		str	r2, [r3]	@ _27, *tmp.2_25
 243 0078 F6E7     		b	.L4		@
ARM GAS  C:\Users\skey\AppData\Local\Temp\ccYFm4Xc.s 			page 8


 244              	.LVL5:
 245              	.L5:
 144:.\stlib\STM32F10x_StdPeriph_Driver\src/stm32f10x_exti.c **** 
 246              		.loc 1 144 5 is_stmt 1 view .LVU49
 147:.\stlib\STM32F10x_StdPeriph_Driver\src/stm32f10x_exti.c ****   }
 247              		.loc 1 147 5 view .LVU50
 248              	@ .\stlib\STM32F10x_StdPeriph_Driver\src\stm32f10x_exti.c:147:     *(__IO uint32_t *) tmp &= ~EXTI_
 147:.\stlib\STM32F10x_StdPeriph_Driver\src/stm32f10x_exti.c ****   }
 249              		.loc 1 147 28 is_stmt 0 view .LVU51
 250 007a 1368     		ldr	r3, [r2]	@ _31, *_51
 251 007c 0B40     		ands	r3, r3, r1	@, _34, _31, _54
 252 007e 1360     		str	r3, [r2]	@ _34, *_51
 253              	.LVL6:
 254              	@ .\stlib\STM32F10x_StdPeriph_Driver\src\stm32f10x_exti.c:149: }
 255              		.loc 1 149 1 view .LVU52
 256 0080 F2E7     		b	.L4		@
 257              	.L9:
 258 0082 00BF     		.align	2
 259              	.L8:
 260 0084 00040140 		.word	1073808384
 261              		.cfi_endproc
 262              	.LFE30:
 263              		.size	EXTI_Init, .-EXTI_Init
 264              		.align	1
 265              		.global	EXTI_StructInit
 266              		.syntax unified
 267              		.thumb
 268              		.thumb_func
 269              		.fpu softvfp
 270              		.type	EXTI_StructInit, %function
 271              	EXTI_StructInit:
 272              	.LVL7:
 273              	.LFB31:
 150:.\stlib\STM32F10x_StdPeriph_Driver\src/stm32f10x_exti.c **** 
 151:.\stlib\STM32F10x_StdPeriph_Driver\src/stm32f10x_exti.c **** /**
 152:.\stlib\STM32F10x_StdPeriph_Driver\src/stm32f10x_exti.c ****   * @brief  Fills each EXTI_InitStruct member with its reset value.
 153:.\stlib\STM32F10x_StdPeriph_Driver\src/stm32f10x_exti.c ****   * @param  EXTI_InitStruct: pointer to a EXTI_InitTypeDef structure which will
 154:.\stlib\STM32F10x_StdPeriph_Driver\src/stm32f10x_exti.c ****   *         be initialized.
 155:.\stlib\STM32F10x_StdPeriph_Driver\src/stm32f10x_exti.c ****   * @retval None
 156:.\stlib\STM32F10x_StdPeriph_Driver\src/stm32f10x_exti.c ****   */
 157:.\stlib\STM32F10x_StdPeriph_Driver\src/stm32f10x_exti.c **** void EXTI_StructInit(EXTI_InitTypeDef* EXTI_InitStruct)
 158:.\stlib\STM32F10x_StdPeriph_Driver\src/stm32f10x_exti.c **** {
 274              		.loc 1 158 1 is_stmt 1 view -0
 275              		.cfi_startproc
 276              		@ args = 0, pretend = 0, frame = 0
 277              		@ frame_needed = 0, uses_anonymous_args = 0
 278              		@ link register save eliminated.
 159:.\stlib\STM32F10x_StdPeriph_Driver\src/stm32f10x_exti.c ****   EXTI_InitStruct->EXTI_Line = EXTI_LINENONE;
 279              		.loc 1 159 3 view .LVU54
 160:.\stlib\STM32F10x_StdPeriph_Driver\src/stm32f10x_exti.c ****   EXTI_InitStruct->EXTI_Mode = EXTI_Mode_Interrupt;
 280              		.loc 1 160 3 view .LVU55
 161:.\stlib\STM32F10x_StdPeriph_Driver\src/stm32f10x_exti.c ****   EXTI_InitStruct->EXTI_Trigger = EXTI_Trigger_Falling;
 281              		.loc 1 161 3 view .LVU56
 162:.\stlib\STM32F10x_StdPeriph_Driver\src/stm32f10x_exti.c ****   EXTI_InitStruct->EXTI_LineCmd = DISABLE;
 282              		.loc 1 162 3 view .LVU57
 283              	@ .\stlib\STM32F10x_StdPeriph_Driver\src\stm32f10x_exti.c:159:   EXTI_InitStruct->EXTI_Line = EXTI_
 159:.\stlib\STM32F10x_StdPeriph_Driver\src/stm32f10x_exti.c ****   EXTI_InitStruct->EXTI_Mode = EXTI_Mode_Interrupt;
ARM GAS  C:\Users\skey\AppData\Local\Temp\ccYFm4Xc.s 			page 9


 284              		.loc 1 159 30 is_stmt 0 view .LVU58
 285 0088 0023     		movs	r3, #0	@ tmp111,
 286              	@ .\stlib\STM32F10x_StdPeriph_Driver\src\stm32f10x_exti.c:160:   EXTI_InitStruct->EXTI_Mode = EXTI_
 160:.\stlib\STM32F10x_StdPeriph_Driver\src/stm32f10x_exti.c ****   EXTI_InitStruct->EXTI_Trigger = EXTI_Trigger_Falling;
 287              		.loc 1 160 30 view .LVU59
 288 008a 4FF44062 		mov	r2, #3072	@ tmp113,
 289              	@ .\stlib\STM32F10x_StdPeriph_Driver\src\stm32f10x_exti.c:159:   EXTI_InitStruct->EXTI_Line = EXTI_
 159:.\stlib\STM32F10x_StdPeriph_Driver\src/stm32f10x_exti.c ****   EXTI_InitStruct->EXTI_Mode = EXTI_Mode_Interrupt;
 290              		.loc 1 159 30 view .LVU60
 291 008e 0360     		str	r3, [r0]	@ tmp111, EXTI_InitStruct_2(D)->EXTI_Line
 292              	@ .\stlib\STM32F10x_StdPeriph_Driver\src\stm32f10x_exti.c:160:   EXTI_InitStruct->EXTI_Mode = EXTI_
 160:.\stlib\STM32F10x_StdPeriph_Driver\src/stm32f10x_exti.c ****   EXTI_InitStruct->EXTI_Trigger = EXTI_Trigger_Falling;
 293              		.loc 1 160 30 view .LVU61
 294 0090 8280     		strh	r2, [r0, #4]	@ movhi	@ tmp113, MEM[(void *)EXTI_InitStruct_2(D) + 4B]
 295              	@ .\stlib\STM32F10x_StdPeriph_Driver\src\stm32f10x_exti.c:162:   EXTI_InitStruct->EXTI_LineCmd = DI
 296              		.loc 1 162 33 view .LVU62
 297 0092 8371     		strb	r3, [r0, #6]	@ tmp111, EXTI_InitStruct_2(D)->EXTI_LineCmd
 298              	@ .\stlib\STM32F10x_StdPeriph_Driver\src\stm32f10x_exti.c:163: }
 163:.\stlib\STM32F10x_StdPeriph_Driver\src/stm32f10x_exti.c **** }
 299              		.loc 1 163 1 view .LVU63
 300 0094 7047     		bx	lr	@
 301              		.cfi_endproc
 302              	.LFE31:
 303              		.size	EXTI_StructInit, .-EXTI_StructInit
 304              		.align	1
 305              		.global	EXTI_GenerateSWInterrupt
 306              		.syntax unified
 307              		.thumb
 308              		.thumb_func
 309              		.fpu softvfp
 310              		.type	EXTI_GenerateSWInterrupt, %function
 311              	EXTI_GenerateSWInterrupt:
 312              	.LVL8:
 313              	.LFB32:
 164:.\stlib\STM32F10x_StdPeriph_Driver\src/stm32f10x_exti.c **** 
 165:.\stlib\STM32F10x_StdPeriph_Driver\src/stm32f10x_exti.c **** /**
 166:.\stlib\STM32F10x_StdPeriph_Driver\src/stm32f10x_exti.c ****   * @brief  Generates a Software interrupt.
 167:.\stlib\STM32F10x_StdPeriph_Driver\src/stm32f10x_exti.c ****   * @param  EXTI_Line: specifies the EXTI lines to be enabled or disabled.
 168:.\stlib\STM32F10x_StdPeriph_Driver\src/stm32f10x_exti.c ****   *   This parameter can be any combination of EXTI_Linex where x can be (0..19).
 169:.\stlib\STM32F10x_StdPeriph_Driver\src/stm32f10x_exti.c ****   * @retval None
 170:.\stlib\STM32F10x_StdPeriph_Driver\src/stm32f10x_exti.c ****   */
 171:.\stlib\STM32F10x_StdPeriph_Driver\src/stm32f10x_exti.c **** void EXTI_GenerateSWInterrupt(uint32_t EXTI_Line)
 172:.\stlib\STM32F10x_StdPeriph_Driver\src/stm32f10x_exti.c **** {
 314              		.loc 1 172 1 is_stmt 1 view -0
 315              		.cfi_startproc
 316              		@ args = 0, pretend = 0, frame = 0
 317              		@ frame_needed = 0, uses_anonymous_args = 0
 318              		@ link register save eliminated.
 173:.\stlib\STM32F10x_StdPeriph_Driver\src/stm32f10x_exti.c ****   /* Check the parameters */
 174:.\stlib\STM32F10x_StdPeriph_Driver\src/stm32f10x_exti.c ****   assert_param(IS_EXTI_LINE(EXTI_Line));
 319              		.loc 1 174 3 view .LVU65
 175:.\stlib\STM32F10x_StdPeriph_Driver\src/stm32f10x_exti.c ****   
 176:.\stlib\STM32F10x_StdPeriph_Driver\src/stm32f10x_exti.c ****   EXTI->SWIER |= EXTI_Line;
 320              		.loc 1 176 3 view .LVU66
 321              	@ .\stlib\STM32F10x_StdPeriph_Driver\src\stm32f10x_exti.c:176:   EXTI->SWIER |= EXTI_Line;
 322              		.loc 1 176 15 is_stmt 0 view .LVU67
 323 0096 024A     		ldr	r2, .L12	@ tmp113,
ARM GAS  C:\Users\skey\AppData\Local\Temp\ccYFm4Xc.s 			page 10


 324 0098 1369     		ldr	r3, [r2, #16]	@ _1, MEM[(struct EXTI_TypeDef *)1073808384B].SWIER
 325 009a 0343     		orrs	r3, r3, r0	@, _2, _1, tmp115
 326 009c 1361     		str	r3, [r2, #16]	@ _2, MEM[(struct EXTI_TypeDef *)1073808384B].SWIER
 327              	@ .\stlib\STM32F10x_StdPeriph_Driver\src\stm32f10x_exti.c:177: }
 177:.\stlib\STM32F10x_StdPeriph_Driver\src/stm32f10x_exti.c **** }
 328              		.loc 1 177 1 view .LVU68
 329 009e 7047     		bx	lr	@
 330              	.L13:
 331              		.align	2
 332              	.L12:
 333 00a0 00040140 		.word	1073808384
 334              		.cfi_endproc
 335              	.LFE32:
 336              		.size	EXTI_GenerateSWInterrupt, .-EXTI_GenerateSWInterrupt
 337              		.align	1
 338              		.global	EXTI_GetFlagStatus
 339              		.syntax unified
 340              		.thumb
 341              		.thumb_func
 342              		.fpu softvfp
 343              		.type	EXTI_GetFlagStatus, %function
 344              	EXTI_GetFlagStatus:
 345              	.LVL9:
 346              	.LFB33:
 178:.\stlib\STM32F10x_StdPeriph_Driver\src/stm32f10x_exti.c **** 
 179:.\stlib\STM32F10x_StdPeriph_Driver\src/stm32f10x_exti.c **** /**
 180:.\stlib\STM32F10x_StdPeriph_Driver\src/stm32f10x_exti.c ****   * @brief  Checks whether the specified EXTI line flag is set or not.
 181:.\stlib\STM32F10x_StdPeriph_Driver\src/stm32f10x_exti.c ****   * @param  EXTI_Line: specifies the EXTI line flag to check.
 182:.\stlib\STM32F10x_StdPeriph_Driver\src/stm32f10x_exti.c ****   *   This parameter can be:
 183:.\stlib\STM32F10x_StdPeriph_Driver\src/stm32f10x_exti.c ****   *     @arg EXTI_Linex: External interrupt line x where x(0..19)
 184:.\stlib\STM32F10x_StdPeriph_Driver\src/stm32f10x_exti.c ****   * @retval The new state of EXTI_Line (SET or RESET).
 185:.\stlib\STM32F10x_StdPeriph_Driver\src/stm32f10x_exti.c ****   */
 186:.\stlib\STM32F10x_StdPeriph_Driver\src/stm32f10x_exti.c **** FlagStatus EXTI_GetFlagStatus(uint32_t EXTI_Line)
 187:.\stlib\STM32F10x_StdPeriph_Driver\src/stm32f10x_exti.c **** {
 347              		.loc 1 187 1 is_stmt 1 view -0
 348              		.cfi_startproc
 349              		@ args = 0, pretend = 0, frame = 0
 350              		@ frame_needed = 0, uses_anonymous_args = 0
 351              		@ link register save eliminated.
 188:.\stlib\STM32F10x_StdPeriph_Driver\src/stm32f10x_exti.c ****   FlagStatus bitstatus = RESET;
 352              		.loc 1 188 3 view .LVU70
 189:.\stlib\STM32F10x_StdPeriph_Driver\src/stm32f10x_exti.c ****   /* Check the parameters */
 190:.\stlib\STM32F10x_StdPeriph_Driver\src/stm32f10x_exti.c ****   assert_param(IS_GET_EXTI_LINE(EXTI_Line));
 353              		.loc 1 190 3 view .LVU71
 191:.\stlib\STM32F10x_StdPeriph_Driver\src/stm32f10x_exti.c ****   
 192:.\stlib\STM32F10x_StdPeriph_Driver\src/stm32f10x_exti.c ****   if ((EXTI->PR & EXTI_Line) != (uint32_t)RESET)
 354              		.loc 1 192 3 view .LVU72
 355              	@ .\stlib\STM32F10x_StdPeriph_Driver\src\stm32f10x_exti.c:192:   if ((EXTI->PR & EXTI_Line) != (uin
 356              		.loc 1 192 12 is_stmt 0 view .LVU73
 357 00a4 034B     		ldr	r3, .L15	@ tmp115,
 358 00a6 5B69     		ldr	r3, [r3, #20]	@ _1, MEM[(struct EXTI_TypeDef *)1073808384B].PR
 359              	.LVL10:
 193:.\stlib\STM32F10x_StdPeriph_Driver\src/stm32f10x_exti.c ****   {
 194:.\stlib\STM32F10x_StdPeriph_Driver\src/stm32f10x_exti.c ****     bitstatus = SET;
 195:.\stlib\STM32F10x_StdPeriph_Driver\src/stm32f10x_exti.c ****   }
 196:.\stlib\STM32F10x_StdPeriph_Driver\src/stm32f10x_exti.c ****   else
 197:.\stlib\STM32F10x_StdPeriph_Driver\src/stm32f10x_exti.c ****   {
ARM GAS  C:\Users\skey\AppData\Local\Temp\ccYFm4Xc.s 			page 11


 198:.\stlib\STM32F10x_StdPeriph_Driver\src/stm32f10x_exti.c ****     bitstatus = RESET;
 199:.\stlib\STM32F10x_StdPeriph_Driver\src/stm32f10x_exti.c ****   }
 200:.\stlib\STM32F10x_StdPeriph_Driver\src/stm32f10x_exti.c ****   return bitstatus;
 360              		.loc 1 200 3 is_stmt 1 view .LVU74
 361              	@ .\stlib\STM32F10x_StdPeriph_Driver\src\stm32f10x_exti.c:192:   if ((EXTI->PR & EXTI_Line) != (uin
 192:.\stlib\STM32F10x_StdPeriph_Driver\src/stm32f10x_exti.c ****   {
 362              		.loc 1 192 6 is_stmt 0 view .LVU75
 363 00a8 0342     		tst	r3, r0	@ _1, tmp120
 364              	@ .\stlib\STM32F10x_StdPeriph_Driver\src\stm32f10x_exti.c:201: }
 201:.\stlib\STM32F10x_StdPeriph_Driver\src/stm32f10x_exti.c **** }
 365              		.loc 1 201 1 view .LVU76
 366 00aa 14BF     		ite	ne
 367 00ac 0120     		movne	r0, #1	@,
 368              	.LVL11:
 369              		.loc 1 201 1 view .LVU77
 370 00ae 0020     		moveq	r0, #0	@,
 371 00b0 7047     		bx	lr	@
 372              	.L16:
 373 00b2 00BF     		.align	2
 374              	.L15:
 375 00b4 00040140 		.word	1073808384
 376              		.cfi_endproc
 377              	.LFE33:
 378              		.size	EXTI_GetFlagStatus, .-EXTI_GetFlagStatus
 379              		.align	1
 380              		.global	EXTI_ClearFlag
 381              		.syntax unified
 382              		.thumb
 383              		.thumb_func
 384              		.fpu softvfp
 385              		.type	EXTI_ClearFlag, %function
 386              	EXTI_ClearFlag:
 387              	.LVL12:
 388              	.LFB34:
 202:.\stlib\STM32F10x_StdPeriph_Driver\src/stm32f10x_exti.c **** 
 203:.\stlib\STM32F10x_StdPeriph_Driver\src/stm32f10x_exti.c **** /**
 204:.\stlib\STM32F10x_StdPeriph_Driver\src/stm32f10x_exti.c ****   * @brief  Clears the EXTI's line pending flags.
 205:.\stlib\STM32F10x_StdPeriph_Driver\src/stm32f10x_exti.c ****   * @param  EXTI_Line: specifies the EXTI lines flags to clear.
 206:.\stlib\STM32F10x_StdPeriph_Driver\src/stm32f10x_exti.c ****   *   This parameter can be any combination of EXTI_Linex where x can be (0..19).
 207:.\stlib\STM32F10x_StdPeriph_Driver\src/stm32f10x_exti.c ****   * @retval None
 208:.\stlib\STM32F10x_StdPeriph_Driver\src/stm32f10x_exti.c ****   */
 209:.\stlib\STM32F10x_StdPeriph_Driver\src/stm32f10x_exti.c **** void EXTI_ClearFlag(uint32_t EXTI_Line)
 210:.\stlib\STM32F10x_StdPeriph_Driver\src/stm32f10x_exti.c **** {
 389              		.loc 1 210 1 is_stmt 1 view -0
 390              		.cfi_startproc
 391              		@ args = 0, pretend = 0, frame = 0
 392              		@ frame_needed = 0, uses_anonymous_args = 0
 393              		@ link register save eliminated.
 211:.\stlib\STM32F10x_StdPeriph_Driver\src/stm32f10x_exti.c ****   /* Check the parameters */
 212:.\stlib\STM32F10x_StdPeriph_Driver\src/stm32f10x_exti.c ****   assert_param(IS_EXTI_LINE(EXTI_Line));
 394              		.loc 1 212 3 view .LVU79
 213:.\stlib\STM32F10x_StdPeriph_Driver\src/stm32f10x_exti.c ****   
 214:.\stlib\STM32F10x_StdPeriph_Driver\src/stm32f10x_exti.c ****   EXTI->PR = EXTI_Line;
 395              		.loc 1 214 3 view .LVU80
 396              	@ .\stlib\STM32F10x_StdPeriph_Driver\src\stm32f10x_exti.c:214:   EXTI->PR = EXTI_Line;
 397              		.loc 1 214 12 is_stmt 0 view .LVU81
 398 00b8 014B     		ldr	r3, .L18	@ tmp111,
ARM GAS  C:\Users\skey\AppData\Local\Temp\ccYFm4Xc.s 			page 12


 399 00ba 5861     		str	r0, [r3, #20]	@ EXTI_Line, MEM[(struct EXTI_TypeDef *)1073808384B].PR
 400              	@ .\stlib\STM32F10x_StdPeriph_Driver\src\stm32f10x_exti.c:215: }
 215:.\stlib\STM32F10x_StdPeriph_Driver\src/stm32f10x_exti.c **** }
 401              		.loc 1 215 1 view .LVU82
 402 00bc 7047     		bx	lr	@
 403              	.L19:
 404 00be 00BF     		.align	2
 405              	.L18:
 406 00c0 00040140 		.word	1073808384
 407              		.cfi_endproc
 408              	.LFE34:
 409              		.size	EXTI_ClearFlag, .-EXTI_ClearFlag
 410              		.align	1
 411              		.global	EXTI_GetITStatus
 412              		.syntax unified
 413              		.thumb
 414              		.thumb_func
 415              		.fpu softvfp
 416              		.type	EXTI_GetITStatus, %function
 417              	EXTI_GetITStatus:
 418              	.LVL13:
 419              	.LFB35:
 216:.\stlib\STM32F10x_StdPeriph_Driver\src/stm32f10x_exti.c **** 
 217:.\stlib\STM32F10x_StdPeriph_Driver\src/stm32f10x_exti.c **** /**
 218:.\stlib\STM32F10x_StdPeriph_Driver\src/stm32f10x_exti.c ****   * @brief  Checks whether the specified EXTI line is asserted or not.
 219:.\stlib\STM32F10x_StdPeriph_Driver\src/stm32f10x_exti.c ****   * @param  EXTI_Line: specifies the EXTI line to check.
 220:.\stlib\STM32F10x_StdPeriph_Driver\src/stm32f10x_exti.c ****   *   This parameter can be:
 221:.\stlib\STM32F10x_StdPeriph_Driver\src/stm32f10x_exti.c ****   *     @arg EXTI_Linex: External interrupt line x where x(0..19)
 222:.\stlib\STM32F10x_StdPeriph_Driver\src/stm32f10x_exti.c ****   * @retval The new state of EXTI_Line (SET or RESET).
 223:.\stlib\STM32F10x_StdPeriph_Driver\src/stm32f10x_exti.c ****   */
 224:.\stlib\STM32F10x_StdPeriph_Driver\src/stm32f10x_exti.c **** ITStatus EXTI_GetITStatus(uint32_t EXTI_Line)
 225:.\stlib\STM32F10x_StdPeriph_Driver\src/stm32f10x_exti.c **** {
 420              		.loc 1 225 1 is_stmt 1 view -0
 421              		.cfi_startproc
 422              		@ args = 0, pretend = 0, frame = 0
 423              		@ frame_needed = 0, uses_anonymous_args = 0
 424              		@ link register save eliminated.
 226:.\stlib\STM32F10x_StdPeriph_Driver\src/stm32f10x_exti.c ****   ITStatus bitstatus = RESET;
 425              		.loc 1 226 3 view .LVU84
 227:.\stlib\STM32F10x_StdPeriph_Driver\src/stm32f10x_exti.c ****   uint32_t enablestatus = 0;
 426              		.loc 1 227 3 view .LVU85
 228:.\stlib\STM32F10x_StdPeriph_Driver\src/stm32f10x_exti.c ****   /* Check the parameters */
 229:.\stlib\STM32F10x_StdPeriph_Driver\src/stm32f10x_exti.c ****   assert_param(IS_GET_EXTI_LINE(EXTI_Line));
 427              		.loc 1 229 3 view .LVU86
 230:.\stlib\STM32F10x_StdPeriph_Driver\src/stm32f10x_exti.c ****   
 231:.\stlib\STM32F10x_StdPeriph_Driver\src/stm32f10x_exti.c ****   enablestatus =  EXTI->IMR & EXTI_Line;
 428              		.loc 1 231 3 view .LVU87
 429              	@ .\stlib\STM32F10x_StdPeriph_Driver\src\stm32f10x_exti.c:225: {
 225:.\stlib\STM32F10x_StdPeriph_Driver\src/stm32f10x_exti.c ****   ITStatus bitstatus = RESET;
 430              		.loc 1 225 1 is_stmt 0 view .LVU88
 431 00c4 0246     		mov	r2, r0	@ EXTI_Line, tmp124
 432              	@ .\stlib\STM32F10x_StdPeriph_Driver\src\stm32f10x_exti.c:231:   enablestatus =  EXTI->IMR & EXTI_L
 433              		.loc 1 231 23 view .LVU89
 434 00c6 054B     		ldr	r3, .L23	@ tmp117,
 435 00c8 1968     		ldr	r1, [r3]	@ _1, MEM[(struct EXTI_TypeDef *)1073808384B].IMR
 436              	.LVL14:
 232:.\stlib\STM32F10x_StdPeriph_Driver\src/stm32f10x_exti.c ****   if (((EXTI->PR & EXTI_Line) != (uint32_t)RESET) && (enablestatus != (uint32_t)RESET))
ARM GAS  C:\Users\skey\AppData\Local\Temp\ccYFm4Xc.s 			page 13


 437              		.loc 1 232 3 is_stmt 1 view .LVU90
 438              	@ .\stlib\STM32F10x_StdPeriph_Driver\src\stm32f10x_exti.c:232:   if (((EXTI->PR & EXTI_Line) != (ui
 439              		.loc 1 232 13 is_stmt 0 view .LVU91
 440 00ca 5869     		ldr	r0, [r3, #20]	@ _2, MEM[(struct EXTI_TypeDef *)1073808384B].PR
 441              	.LVL15:
 442              	@ .\stlib\STM32F10x_StdPeriph_Driver\src\stm32f10x_exti.c:232:   if (((EXTI->PR & EXTI_Line) != (ui
 443              		.loc 1 232 6 view .LVU92
 444 00cc 1040     		ands	r0, r0, r2	@ tmp119, _2, EXTI_Line
 445 00ce 03D0     		beq	.L21		@,
 446              	@ .\stlib\STM32F10x_StdPeriph_Driver\src\stm32f10x_exti.c:232:   if (((EXTI->PR & EXTI_Line) != (ui
 447              		.loc 1 232 51 discriminator 1 view .LVU93
 448 00d0 1142     		tst	r1, r2	@ _1, EXTI_Line
 449              	@ .\stlib\STM32F10x_StdPeriph_Driver\src\stm32f10x_exti.c:238:     bitstatus = RESET;
 233:.\stlib\STM32F10x_StdPeriph_Driver\src/stm32f10x_exti.c ****   {
 234:.\stlib\STM32F10x_StdPeriph_Driver\src/stm32f10x_exti.c ****     bitstatus = SET;
 235:.\stlib\STM32F10x_StdPeriph_Driver\src/stm32f10x_exti.c ****   }
 236:.\stlib\STM32F10x_StdPeriph_Driver\src/stm32f10x_exti.c ****   else
 237:.\stlib\STM32F10x_StdPeriph_Driver\src/stm32f10x_exti.c ****   {
 238:.\stlib\STM32F10x_StdPeriph_Driver\src/stm32f10x_exti.c ****     bitstatus = RESET;
 450              		.loc 1 238 15 discriminator 1 view .LVU94
 451 00d2 14BF     		ite	ne
 452 00d4 0120     		movne	r0, #1	@ <retval>,
 453 00d6 0020     		moveq	r0, #0	@ <retval>,
 454              	.L21:
 455              	.LVL16:
 239:.\stlib\STM32F10x_StdPeriph_Driver\src/stm32f10x_exti.c ****   }
 240:.\stlib\STM32F10x_StdPeriph_Driver\src/stm32f10x_exti.c ****   return bitstatus;
 456              		.loc 1 240 3 is_stmt 1 view .LVU95
 457              	@ .\stlib\STM32F10x_StdPeriph_Driver\src\stm32f10x_exti.c:241: }
 241:.\stlib\STM32F10x_StdPeriph_Driver\src/stm32f10x_exti.c **** }
 458              		.loc 1 241 1 is_stmt 0 view .LVU96
 459 00d8 7047     		bx	lr	@
 460              	.L24:
 461 00da 00BF     		.align	2
 462              	.L23:
 463 00dc 00040140 		.word	1073808384
 464              		.cfi_endproc
 465              	.LFE35:
 466              		.size	EXTI_GetITStatus, .-EXTI_GetITStatus
 467              		.align	1
 468              		.global	EXTI_ClearITPendingBit
 469              		.syntax unified
 470              		.thumb
 471              		.thumb_func
 472              		.fpu softvfp
 473              		.type	EXTI_ClearITPendingBit, %function
 474              	EXTI_ClearITPendingBit:
 475              	.LFB38:
 476              		.cfi_startproc
 477              		@ args = 0, pretend = 0, frame = 0
 478              		@ frame_needed = 0, uses_anonymous_args = 0
 479              		@ link register save eliminated.
 480 00e0 014B     		ldr	r3, .L26	@ tmp111,
 481 00e2 5861     		str	r0, [r3, #20]	@ EXTI_Line, MEM[(struct EXTI_TypeDef *)1073808384B].PR
 482 00e4 7047     		bx	lr	@
 483              	.L27:
 484 00e6 00BF     		.align	2
ARM GAS  C:\Users\skey\AppData\Local\Temp\ccYFm4Xc.s 			page 14


 485              	.L26:
 486 00e8 00040140 		.word	1073808384
 487              		.cfi_endproc
 488              	.LFE38:
 489              		.size	EXTI_ClearITPendingBit, .-EXTI_ClearITPendingBit
 490              	.Letext0:
 491              		.file 2 "c:\\program files (x86)\\gnu tools arm embedded\\9 2019-q4-major\\arm-none-eabi\\include\
 492              		.file 3 "c:\\program files (x86)\\gnu tools arm embedded\\9 2019-q4-major\\arm-none-eabi\\include\
 493              		.file 4 ".\\stlib\\CMSIS\\CM3\\CoreSupport/core_cm3.h"
 494              		.file 5 ".\\stlib\\CMSIS\\CM3\\DeviceSupport\\ST\\STM32F10x/system_stm32f10x.h"
 495              		.file 6 ".\\stlib\\CMSIS\\CM3\\DeviceSupport\\ST\\STM32F10x/stm32f10x.h"
 496              		.file 7 ".\\stlib\\STM32F10x_StdPeriph_Driver\\inc/stm32f10x_exti.h"