ARM GAS  C:\Users\skey\AppData\Local\Temp\ccFDdSGQ.s 			page 1


   1              		.cpu cortex-m3
   2              		.eabi_attribute 20, 1	@ Tag_ABI_FP_denormal
   3              		.eabi_attribute 21, 1	@ Tag_ABI_FP_exceptions
   4              		.eabi_attribute 23, 3	@ Tag_ABI_FP_number_model
   5              		.eabi_attribute 24, 1	@ Tag_ABI_align8_needed
   6              		.eabi_attribute 25, 1	@ Tag_ABI_align8_preserved
   7              		.eabi_attribute 26, 1	@ Tag_ABI_enum_size
   8              		.eabi_attribute 30, 4	@ Tag_ABI_optimization_goals
   9              		.eabi_attribute 34, 1	@ Tag_CPU_unaligned_access
  10              		.eabi_attribute 18, 4	@ Tag_ABI_PCS_wchar_t
  11              		.file	"stm32f10x_fsmc.c"
  12              	@ GNU C17 (GNU Tools for Arm Embedded Processors 9-2019-q4-major) version 9.2.1 20191025 (release) 
  13              	@	compiled by GNU C version 5.3.1 20160211, GMP version 6.1.0, MPFR version 3.1.4, MPC version 1.0.
  14              	
  15              	@ GGC heuristics: --param ggc-min-expand=100 --param ggc-min-heapsize=131072
  16              	@ options passed:  -I . -I .\usr_inc -I .\task_inc
  17              	@ -I .\stlib\CMSIS\CM3\CoreSupport
  18              	@ -I .\stlib\CMSIS\CM3\DeviceSupport\ST\STM32F10x
  19              	@ -I .\stlib\STM32F10x_StdPeriph_Driver\inc
  20              	@ -I .\stlib\STM32F10x_StdPeriph_Driver -I .\freertos\include
  21              	@ -I .\freertos\portable\GCC\ARM_CM3 -imultilib thumb/v7-m/nofp
  22              	@ -iprefix c:\program files (x86)\gnu tools arm embedded\9 2019-q4-major\bin\../lib/gcc/arm-none-ea
  23              	@ -isysroot c:\program files (x86)\gnu tools arm embedded\9 2019-q4-major\bin\../arm-none-eabi
  24              	@ -D__USES_INITFINI__ -D STM32F10X_HD -D USE_STDPERIPH_DRIVER
  25              	@ -D HSE_VALUE=8000000 -D RUN_FROM_FLASH=1
  26              	@ .\stlib\STM32F10x_StdPeriph_Driver\src\stm32f10x_fsmc.c -mcpu=cortex-m3
  27              	@ -mthumb -mfloat-abi=soft -march=armv7-m
  28              	@ -auxbase-strip .\stlib\STM32F10x_StdPeriph_Driver\src\stm32f10x_fsmc.o -g
  29              	@ -gdwarf-2 -Os -Wall -fomit-frame-pointer -fverbose-asm
  30              	@ options enabled:  -faggressive-loop-optimizations -fassume-phsa
  31              	@ -fauto-inc-dec -fbranch-count-reg -fcaller-saves -fcode-hoisting
  32              	@ -fcombine-stack-adjustments -fcommon -fcompare-elim -fcprop-registers
  33              	@ -fcrossjumping -fcse-follow-jumps -fdefer-pop
  34              	@ -fdelete-null-pointer-checks -fdevirtualize -fdevirtualize-speculatively
  35              	@ -fdwarf2-cfi-asm -fearly-inlining -feliminate-unused-debug-types
  36              	@ -fexpensive-optimizations -fforward-propagate -ffp-int-builtin-inexact
  37              	@ -ffunction-cse -fgcse -fgcse-lm -fgnu-runtime -fgnu-unique
  38              	@ -fguess-branch-probability -fhoist-adjacent-loads -fident -fif-conversion
  39              	@ -fif-conversion2 -findirect-inlining -finline -finline-atomics
  40              	@ -finline-functions -finline-functions-called-once
  41              	@ -finline-small-functions -fipa-bit-cp -fipa-cp -fipa-icf
  42              	@ -fipa-icf-functions -fipa-icf-variables -fipa-profile -fipa-pure-const
  43              	@ -fipa-ra -fipa-reference -fipa-reference-addressable -fipa-sra
  44              	@ -fipa-stack-alignment -fipa-vrp -fira-hoist-pressure
  45              	@ -fira-share-save-slots -fira-share-spill-slots
  46              	@ -fisolate-erroneous-paths-dereference -fivopts -fkeep-static-consts
  47              	@ -fleading-underscore -flifetime-dse -flra-remat -flto-odr-type-merging
  48              	@ -fmath-errno -fmerge-constants -fmerge-debug-strings
  49              	@ -fmove-loop-invariants -fomit-frame-pointer -foptimize-sibling-calls
  50              	@ -fpartial-inlining -fpeephole -fpeephole2 -fplt -fprefetch-loop-arrays
  51              	@ -freg-struct-return -freorder-blocks -freorder-functions
  52              	@ -frerun-cse-after-loop -fsched-critical-path-heuristic
  53              	@ -fsched-dep-count-heuristic -fsched-group-heuristic -fsched-interblock
  54              	@ -fsched-last-insn-heuristic -fsched-pressure -fsched-rank-heuristic
  55              	@ -fsched-spec -fsched-spec-insn-heuristic -fsched-stalled-insns-dep
  56              	@ -fschedule-insns2 -fsection-anchors -fsemantic-interposition
  57              	@ -fshow-column -fshrink-wrap-separate -fsigned-zeros
ARM GAS  C:\Users\skey\AppData\Local\Temp\ccFDdSGQ.s 			page 2


  58              	@ -fsplit-ivs-in-unroller -fsplit-wide-types -fssa-backprop -fssa-phiopt
  59              	@ -fstdarg-opt -fstore-merging -fstrict-aliasing
  60              	@ -fstrict-volatile-bitfields -fsync-libcalls -fthread-jumps
  61              	@ -ftoplevel-reorder -ftrapping-math -ftree-bit-ccp -ftree-builtin-call-dce
  62              	@ -ftree-ccp -ftree-ch -ftree-coalesce-vars -ftree-copy-prop -ftree-cselim
  63              	@ -ftree-dce -ftree-dominator-opts -ftree-dse -ftree-forwprop -ftree-fre
  64              	@ -ftree-loop-if-convert -ftree-loop-im -ftree-loop-ivcanon
  65              	@ -ftree-loop-optimize -ftree-parallelize-loops= -ftree-phiprop -ftree-pre
  66              	@ -ftree-pta -ftree-reassoc -ftree-scev-cprop -ftree-sink -ftree-slsr
  67              	@ -ftree-sra -ftree-switch-conversion -ftree-tail-merge -ftree-ter
  68              	@ -ftree-vrp -funit-at-a-time -fvar-tracking -fvar-tracking-assignments
  69              	@ -fverbose-asm -fzero-initialized-in-bss -masm-syntax-unified -mbe32
  70              	@ -mfix-cortex-m3-ldrd -mlittle-endian -mpic-data-is-text-relative
  71              	@ -msched-prolog -mthumb -munaligned-access -mvectorize-with-neon-quad
  72              	
  73              		.text
  74              	.Ltext0:
  75              		.cfi_sections	.debug_frame
  76              		.align	1
  77              		.global	FSMC_NORSRAMDeInit
  78              		.arch armv7-m
  79              		.syntax unified
  80              		.thumb
  81              		.thumb_func
  82              		.fpu softvfp
  83              		.type	FSMC_NORSRAMDeInit, %function
  84              	FSMC_NORSRAMDeInit:
  85              	.LVL0:
  86              	.LFB29:
  87              		.file 1 ".\\stlib\\STM32F10x_StdPeriph_Driver\\src\\stm32f10x_fsmc.c"
   1:.\stlib\STM32F10x_StdPeriph_Driver\src/stm32f10x_fsmc.c **** /**
   2:.\stlib\STM32F10x_StdPeriph_Driver\src/stm32f10x_fsmc.c ****   ******************************************************************************
   3:.\stlib\STM32F10x_StdPeriph_Driver\src/stm32f10x_fsmc.c ****   * @file    stm32f10x_fsmc.c
   4:.\stlib\STM32F10x_StdPeriph_Driver\src/stm32f10x_fsmc.c ****   * @author  MCD Application Team
   5:.\stlib\STM32F10x_StdPeriph_Driver\src/stm32f10x_fsmc.c ****   * @version V3.5.0
   6:.\stlib\STM32F10x_StdPeriph_Driver\src/stm32f10x_fsmc.c ****   * @date    11-March-2011
   7:.\stlib\STM32F10x_StdPeriph_Driver\src/stm32f10x_fsmc.c ****   * @brief   This file provides all the FSMC firmware functions.
   8:.\stlib\STM32F10x_StdPeriph_Driver\src/stm32f10x_fsmc.c ****   ******************************************************************************
   9:.\stlib\STM32F10x_StdPeriph_Driver\src/stm32f10x_fsmc.c ****   * @attention
  10:.\stlib\STM32F10x_StdPeriph_Driver\src/stm32f10x_fsmc.c ****   *
  11:.\stlib\STM32F10x_StdPeriph_Driver\src/stm32f10x_fsmc.c ****   * THE PRESENT FIRMWARE WHICH IS FOR GUIDANCE ONLY AIMS AT PROVIDING CUSTOMERS
  12:.\stlib\STM32F10x_StdPeriph_Driver\src/stm32f10x_fsmc.c ****   * WITH CODING INFORMATION REGARDING THEIR PRODUCTS IN ORDER FOR THEM TO SAVE
  13:.\stlib\STM32F10x_StdPeriph_Driver\src/stm32f10x_fsmc.c ****   * TIME. AS A RESULT, STMICROELECTRONICS SHALL NOT BE HELD LIABLE FOR ANY
  14:.\stlib\STM32F10x_StdPeriph_Driver\src/stm32f10x_fsmc.c ****   * DIRECT, INDIRECT OR CONSEQUENTIAL DAMAGES WITH RESPECT TO ANY CLAIMS ARISING
  15:.\stlib\STM32F10x_StdPeriph_Driver\src/stm32f10x_fsmc.c ****   * FROM THE CONTENT OF SUCH FIRMWARE AND/OR THE USE MADE BY CUSTOMERS OF THE
  16:.\stlib\STM32F10x_StdPeriph_Driver\src/stm32f10x_fsmc.c ****   * CODING INFORMATION CONTAINED HEREIN IN CONNECTION WITH THEIR PRODUCTS.
  17:.\stlib\STM32F10x_StdPeriph_Driver\src/stm32f10x_fsmc.c ****   *
  18:.\stlib\STM32F10x_StdPeriph_Driver\src/stm32f10x_fsmc.c ****   * <h2><center>&copy; COPYRIGHT 2011 STMicroelectronics</center></h2>
  19:.\stlib\STM32F10x_StdPeriph_Driver\src/stm32f10x_fsmc.c ****   ******************************************************************************
  20:.\stlib\STM32F10x_StdPeriph_Driver\src/stm32f10x_fsmc.c ****   */
  21:.\stlib\STM32F10x_StdPeriph_Driver\src/stm32f10x_fsmc.c **** 
  22:.\stlib\STM32F10x_StdPeriph_Driver\src/stm32f10x_fsmc.c **** /* Includes ------------------------------------------------------------------*/
  23:.\stlib\STM32F10x_StdPeriph_Driver\src/stm32f10x_fsmc.c **** #include "stm32f10x_fsmc.h"
  24:.\stlib\STM32F10x_StdPeriph_Driver\src/stm32f10x_fsmc.c **** #include "stm32f10x_rcc.h"
  25:.\stlib\STM32F10x_StdPeriph_Driver\src/stm32f10x_fsmc.c **** 
  26:.\stlib\STM32F10x_StdPeriph_Driver\src/stm32f10x_fsmc.c **** /** @addtogroup STM32F10x_StdPeriph_Driver
  27:.\stlib\STM32F10x_StdPeriph_Driver\src/stm32f10x_fsmc.c ****   * @{
ARM GAS  C:\Users\skey\AppData\Local\Temp\ccFDdSGQ.s 			page 3


  28:.\stlib\STM32F10x_StdPeriph_Driver\src/stm32f10x_fsmc.c ****   */
  29:.\stlib\STM32F10x_StdPeriph_Driver\src/stm32f10x_fsmc.c **** 
  30:.\stlib\STM32F10x_StdPeriph_Driver\src/stm32f10x_fsmc.c **** /** @defgroup FSMC 
  31:.\stlib\STM32F10x_StdPeriph_Driver\src/stm32f10x_fsmc.c ****   * @brief FSMC driver modules
  32:.\stlib\STM32F10x_StdPeriph_Driver\src/stm32f10x_fsmc.c ****   * @{
  33:.\stlib\STM32F10x_StdPeriph_Driver\src/stm32f10x_fsmc.c ****   */ 
  34:.\stlib\STM32F10x_StdPeriph_Driver\src/stm32f10x_fsmc.c **** 
  35:.\stlib\STM32F10x_StdPeriph_Driver\src/stm32f10x_fsmc.c **** /** @defgroup FSMC_Private_TypesDefinitions
  36:.\stlib\STM32F10x_StdPeriph_Driver\src/stm32f10x_fsmc.c ****   * @{
  37:.\stlib\STM32F10x_StdPeriph_Driver\src/stm32f10x_fsmc.c ****   */ 
  38:.\stlib\STM32F10x_StdPeriph_Driver\src/stm32f10x_fsmc.c **** /**
  39:.\stlib\STM32F10x_StdPeriph_Driver\src/stm32f10x_fsmc.c ****   * @}
  40:.\stlib\STM32F10x_StdPeriph_Driver\src/stm32f10x_fsmc.c ****   */
  41:.\stlib\STM32F10x_StdPeriph_Driver\src/stm32f10x_fsmc.c **** 
  42:.\stlib\STM32F10x_StdPeriph_Driver\src/stm32f10x_fsmc.c **** /** @defgroup FSMC_Private_Defines
  43:.\stlib\STM32F10x_StdPeriph_Driver\src/stm32f10x_fsmc.c ****   * @{
  44:.\stlib\STM32F10x_StdPeriph_Driver\src/stm32f10x_fsmc.c ****   */
  45:.\stlib\STM32F10x_StdPeriph_Driver\src/stm32f10x_fsmc.c **** 
  46:.\stlib\STM32F10x_StdPeriph_Driver\src/stm32f10x_fsmc.c **** /* --------------------- FSMC registers bit mask ---------------------------- */
  47:.\stlib\STM32F10x_StdPeriph_Driver\src/stm32f10x_fsmc.c **** 
  48:.\stlib\STM32F10x_StdPeriph_Driver\src/stm32f10x_fsmc.c **** /* FSMC BCRx Mask */
  49:.\stlib\STM32F10x_StdPeriph_Driver\src/stm32f10x_fsmc.c **** #define BCR_MBKEN_Set                       ((uint32_t)0x00000001)
  50:.\stlib\STM32F10x_StdPeriph_Driver\src/stm32f10x_fsmc.c **** #define BCR_MBKEN_Reset                     ((uint32_t)0x000FFFFE)
  51:.\stlib\STM32F10x_StdPeriph_Driver\src/stm32f10x_fsmc.c **** #define BCR_FACCEN_Set                      ((uint32_t)0x00000040)
  52:.\stlib\STM32F10x_StdPeriph_Driver\src/stm32f10x_fsmc.c **** 
  53:.\stlib\STM32F10x_StdPeriph_Driver\src/stm32f10x_fsmc.c **** /* FSMC PCRx Mask */
  54:.\stlib\STM32F10x_StdPeriph_Driver\src/stm32f10x_fsmc.c **** #define PCR_PBKEN_Set                       ((uint32_t)0x00000004)
  55:.\stlib\STM32F10x_StdPeriph_Driver\src/stm32f10x_fsmc.c **** #define PCR_PBKEN_Reset                     ((uint32_t)0x000FFFFB)
  56:.\stlib\STM32F10x_StdPeriph_Driver\src/stm32f10x_fsmc.c **** #define PCR_ECCEN_Set                       ((uint32_t)0x00000040)
  57:.\stlib\STM32F10x_StdPeriph_Driver\src/stm32f10x_fsmc.c **** #define PCR_ECCEN_Reset                     ((uint32_t)0x000FFFBF)
  58:.\stlib\STM32F10x_StdPeriph_Driver\src/stm32f10x_fsmc.c **** #define PCR_MemoryType_NAND                 ((uint32_t)0x00000008)
  59:.\stlib\STM32F10x_StdPeriph_Driver\src/stm32f10x_fsmc.c **** /**
  60:.\stlib\STM32F10x_StdPeriph_Driver\src/stm32f10x_fsmc.c ****   * @}
  61:.\stlib\STM32F10x_StdPeriph_Driver\src/stm32f10x_fsmc.c ****   */
  62:.\stlib\STM32F10x_StdPeriph_Driver\src/stm32f10x_fsmc.c **** 
  63:.\stlib\STM32F10x_StdPeriph_Driver\src/stm32f10x_fsmc.c **** /** @defgroup FSMC_Private_Macros
  64:.\stlib\STM32F10x_StdPeriph_Driver\src/stm32f10x_fsmc.c ****   * @{
  65:.\stlib\STM32F10x_StdPeriph_Driver\src/stm32f10x_fsmc.c ****   */
  66:.\stlib\STM32F10x_StdPeriph_Driver\src/stm32f10x_fsmc.c **** 
  67:.\stlib\STM32F10x_StdPeriph_Driver\src/stm32f10x_fsmc.c **** /**
  68:.\stlib\STM32F10x_StdPeriph_Driver\src/stm32f10x_fsmc.c ****   * @}
  69:.\stlib\STM32F10x_StdPeriph_Driver\src/stm32f10x_fsmc.c ****   */
  70:.\stlib\STM32F10x_StdPeriph_Driver\src/stm32f10x_fsmc.c **** 
  71:.\stlib\STM32F10x_StdPeriph_Driver\src/stm32f10x_fsmc.c **** /** @defgroup FSMC_Private_Variables
  72:.\stlib\STM32F10x_StdPeriph_Driver\src/stm32f10x_fsmc.c ****   * @{
  73:.\stlib\STM32F10x_StdPeriph_Driver\src/stm32f10x_fsmc.c ****   */
  74:.\stlib\STM32F10x_StdPeriph_Driver\src/stm32f10x_fsmc.c **** 
  75:.\stlib\STM32F10x_StdPeriph_Driver\src/stm32f10x_fsmc.c **** /**
  76:.\stlib\STM32F10x_StdPeriph_Driver\src/stm32f10x_fsmc.c ****   * @}
  77:.\stlib\STM32F10x_StdPeriph_Driver\src/stm32f10x_fsmc.c ****   */
  78:.\stlib\STM32F10x_StdPeriph_Driver\src/stm32f10x_fsmc.c **** 
  79:.\stlib\STM32F10x_StdPeriph_Driver\src/stm32f10x_fsmc.c **** /** @defgroup FSMC_Private_FunctionPrototypes
  80:.\stlib\STM32F10x_StdPeriph_Driver\src/stm32f10x_fsmc.c ****   * @{
  81:.\stlib\STM32F10x_StdPeriph_Driver\src/stm32f10x_fsmc.c ****   */
  82:.\stlib\STM32F10x_StdPeriph_Driver\src/stm32f10x_fsmc.c **** 
  83:.\stlib\STM32F10x_StdPeriph_Driver\src/stm32f10x_fsmc.c **** /**
  84:.\stlib\STM32F10x_StdPeriph_Driver\src/stm32f10x_fsmc.c ****   * @}
ARM GAS  C:\Users\skey\AppData\Local\Temp\ccFDdSGQ.s 			page 4


  85:.\stlib\STM32F10x_StdPeriph_Driver\src/stm32f10x_fsmc.c ****   */
  86:.\stlib\STM32F10x_StdPeriph_Driver\src/stm32f10x_fsmc.c **** 
  87:.\stlib\STM32F10x_StdPeriph_Driver\src/stm32f10x_fsmc.c **** /** @defgroup FSMC_Private_Functions
  88:.\stlib\STM32F10x_StdPeriph_Driver\src/stm32f10x_fsmc.c ****   * @{
  89:.\stlib\STM32F10x_StdPeriph_Driver\src/stm32f10x_fsmc.c ****   */
  90:.\stlib\STM32F10x_StdPeriph_Driver\src/stm32f10x_fsmc.c **** 
  91:.\stlib\STM32F10x_StdPeriph_Driver\src/stm32f10x_fsmc.c **** /**
  92:.\stlib\STM32F10x_StdPeriph_Driver\src/stm32f10x_fsmc.c ****   * @brief  Deinitializes the FSMC NOR/SRAM Banks registers to their default 
  93:.\stlib\STM32F10x_StdPeriph_Driver\src/stm32f10x_fsmc.c ****   *         reset values.
  94:.\stlib\STM32F10x_StdPeriph_Driver\src/stm32f10x_fsmc.c ****   * @param  FSMC_Bank: specifies the FSMC Bank to be used
  95:.\stlib\STM32F10x_StdPeriph_Driver\src/stm32f10x_fsmc.c ****   *   This parameter can be one of the following values:
  96:.\stlib\STM32F10x_StdPeriph_Driver\src/stm32f10x_fsmc.c ****   *     @arg FSMC_Bank1_NORSRAM1: FSMC Bank1 NOR/SRAM1  
  97:.\stlib\STM32F10x_StdPeriph_Driver\src/stm32f10x_fsmc.c ****   *     @arg FSMC_Bank1_NORSRAM2: FSMC Bank1 NOR/SRAM2 
  98:.\stlib\STM32F10x_StdPeriph_Driver\src/stm32f10x_fsmc.c ****   *     @arg FSMC_Bank1_NORSRAM3: FSMC Bank1 NOR/SRAM3 
  99:.\stlib\STM32F10x_StdPeriph_Driver\src/stm32f10x_fsmc.c ****   *     @arg FSMC_Bank1_NORSRAM4: FSMC Bank1 NOR/SRAM4 
 100:.\stlib\STM32F10x_StdPeriph_Driver\src/stm32f10x_fsmc.c ****   * @retval None
 101:.\stlib\STM32F10x_StdPeriph_Driver\src/stm32f10x_fsmc.c ****   */
 102:.\stlib\STM32F10x_StdPeriph_Driver\src/stm32f10x_fsmc.c **** void FSMC_NORSRAMDeInit(uint32_t FSMC_Bank)
 103:.\stlib\STM32F10x_StdPeriph_Driver\src/stm32f10x_fsmc.c **** {
  88              		.loc 1 103 1 view -0
  89              		.cfi_startproc
  90              		@ args = 0, pretend = 0, frame = 0
  91              		@ frame_needed = 0, uses_anonymous_args = 0
  92              		@ link register save eliminated.
 104:.\stlib\STM32F10x_StdPeriph_Driver\src/stm32f10x_fsmc.c ****   /* Check the parameter */
 105:.\stlib\STM32F10x_StdPeriph_Driver\src/stm32f10x_fsmc.c ****   assert_param(IS_FSMC_NORSRAM_BANK(FSMC_Bank));
  93              		.loc 1 105 3 view .LVU1
 106:.\stlib\STM32F10x_StdPeriph_Driver\src/stm32f10x_fsmc.c ****   
 107:.\stlib\STM32F10x_StdPeriph_Driver\src/stm32f10x_fsmc.c ****   /* FSMC_Bank1_NORSRAM1 */
 108:.\stlib\STM32F10x_StdPeriph_Driver\src/stm32f10x_fsmc.c ****   if(FSMC_Bank == FSMC_Bank1_NORSRAM1)
  94              		.loc 1 108 3 view .LVU2
  95 0000 4FF02043 		mov	r3, #-1610612736	@ tmp121,
  96              	@ .\stlib\STM32F10x_StdPeriph_Driver\src\stm32f10x_fsmc.c:108:   if(FSMC_Bank == FSMC_Bank1_NORSRAM
  97              		.loc 1 108 5 is_stmt 0 view .LVU3
  98 0004 58B9     		cbnz	r0, .L2	@ FSMC_Bank,
 109:.\stlib\STM32F10x_StdPeriph_Driver\src/stm32f10x_fsmc.c ****   {
 110:.\stlib\STM32F10x_StdPeriph_Driver\src/stm32f10x_fsmc.c ****     FSMC_Bank1->BTCR[FSMC_Bank] = 0x000030DB;    
  99              		.loc 1 110 5 is_stmt 1 view .LVU4
 100              	@ .\stlib\STM32F10x_StdPeriph_Driver\src\stm32f10x_fsmc.c:110:     FSMC_Bank1->BTCR[FSMC_Bank] = 0x
 101              		.loc 1 110 33 is_stmt 0 view .LVU5
 102 0006 43F2DB02 		movw	r2, #12507	@ tmp115,
 103 000a 1A60     		str	r2, [r3]	@ tmp115, MEM[(struct FSMC_Bank1_TypeDef *)2684354560B]
 104              	.L3:
 111:.\stlib\STM32F10x_StdPeriph_Driver\src/stm32f10x_fsmc.c ****   }
 112:.\stlib\STM32F10x_StdPeriph_Driver\src/stm32f10x_fsmc.c ****   /* FSMC_Bank1_NORSRAM2,  FSMC_Bank1_NORSRAM3 or FSMC_Bank1_NORSRAM4 */
 113:.\stlib\STM32F10x_StdPeriph_Driver\src/stm32f10x_fsmc.c ****   else
 114:.\stlib\STM32F10x_StdPeriph_Driver\src/stm32f10x_fsmc.c ****   {   
 115:.\stlib\STM32F10x_StdPeriph_Driver\src/stm32f10x_fsmc.c ****     FSMC_Bank1->BTCR[FSMC_Bank] = 0x000030D2; 
 116:.\stlib\STM32F10x_StdPeriph_Driver\src/stm32f10x_fsmc.c ****   }
 117:.\stlib\STM32F10x_StdPeriph_Driver\src/stm32f10x_fsmc.c ****   FSMC_Bank1->BTCR[FSMC_Bank + 1] = 0x0FFFFFFF;
 105              		.loc 1 117 3 is_stmt 1 view .LVU6
 106              	@ .\stlib\STM32F10x_StdPeriph_Driver\src\stm32f10x_fsmc.c:117:   FSMC_Bank1->BTCR[FSMC_Bank + 1] = 
 107              		.loc 1 117 35 is_stmt 0 view .LVU7
 108 000c 6FF07043 		mvn	r3, #-268435456	@ tmp118,
 109 0010 8000     		lsls	r0, r0, #2	@ _10, FSMC_Bank,
 110              	.LVL1:
 111              		.loc 1 117 35 view .LVU8
ARM GAS  C:\Users\skey\AppData\Local\Temp\ccFDdSGQ.s 			page 5


 112 0012 00F12040 		add	r0, r0, #-1610612736	@ _9, _10,
 113 0016 4360     		str	r3, [r0, #4]	@ tmp118, MEM[(struct FSMC_Bank1_TypeDef *)_9 + 4B]
 118:.\stlib\STM32F10x_StdPeriph_Driver\src/stm32f10x_fsmc.c ****   FSMC_Bank1E->BWTR[FSMC_Bank] = 0x0FFFFFFF;  
 114              		.loc 1 118 3 is_stmt 1 view .LVU9
 115              	@ .\stlib\STM32F10x_StdPeriph_Driver\src\stm32f10x_fsmc.c:118:   FSMC_Bank1E->BWTR[FSMC_Bank] = 0x0
 116              		.loc 1 118 32 is_stmt 0 view .LVU10
 117 0018 C0F80431 		str	r3, [r0, #260]	@ tmp118, MEM[(struct FSMC_Bank1E_TypeDef *)_12]
 118              	@ .\stlib\STM32F10x_StdPeriph_Driver\src\stm32f10x_fsmc.c:119: }
 119:.\stlib\STM32F10x_StdPeriph_Driver\src/stm32f10x_fsmc.c **** }
 119              		.loc 1 119 1 view .LVU11
 120 001c 7047     		bx	lr	@
 121              	.LVL2:
 122              	.L2:
 115:.\stlib\STM32F10x_StdPeriph_Driver\src/stm32f10x_fsmc.c ****   }
 123              		.loc 1 115 5 is_stmt 1 view .LVU12
 124              	@ .\stlib\STM32F10x_StdPeriph_Driver\src\stm32f10x_fsmc.c:115:     FSMC_Bank1->BTCR[FSMC_Bank] = 0x
 115:.\stlib\STM32F10x_StdPeriph_Driver\src/stm32f10x_fsmc.c ****   }
 125              		.loc 1 115 33 is_stmt 0 view .LVU13
 126 001e 43F2D202 		movw	r2, #12498	@ tmp117,
 127 0022 43F82020 		str	r2, [r3, r0, lsl #2]	@ tmp117, MEM[(struct FSMC_Bank1_TypeDef *)2684354560B]
 128 0026 F1E7     		b	.L3		@
 129              		.cfi_endproc
 130              	.LFE29:
 131              		.size	FSMC_NORSRAMDeInit, .-FSMC_NORSRAMDeInit
 132              		.align	1
 133              		.global	FSMC_NANDDeInit
 134              		.syntax unified
 135              		.thumb
 136              		.thumb_func
 137              		.fpu softvfp
 138              		.type	FSMC_NANDDeInit, %function
 139              	FSMC_NANDDeInit:
 140              	.LVL3:
 141              	.LFB30:
 120:.\stlib\STM32F10x_StdPeriph_Driver\src/stm32f10x_fsmc.c **** 
 121:.\stlib\STM32F10x_StdPeriph_Driver\src/stm32f10x_fsmc.c **** /**
 122:.\stlib\STM32F10x_StdPeriph_Driver\src/stm32f10x_fsmc.c ****   * @brief  Deinitializes the FSMC NAND Banks registers to their default reset values.
 123:.\stlib\STM32F10x_StdPeriph_Driver\src/stm32f10x_fsmc.c ****   * @param  FSMC_Bank: specifies the FSMC Bank to be used
 124:.\stlib\STM32F10x_StdPeriph_Driver\src/stm32f10x_fsmc.c ****   *   This parameter can be one of the following values:
 125:.\stlib\STM32F10x_StdPeriph_Driver\src/stm32f10x_fsmc.c ****   *     @arg FSMC_Bank2_NAND: FSMC Bank2 NAND 
 126:.\stlib\STM32F10x_StdPeriph_Driver\src/stm32f10x_fsmc.c ****   *     @arg FSMC_Bank3_NAND: FSMC Bank3 NAND 
 127:.\stlib\STM32F10x_StdPeriph_Driver\src/stm32f10x_fsmc.c ****   * @retval None
 128:.\stlib\STM32F10x_StdPeriph_Driver\src/stm32f10x_fsmc.c ****   */
 129:.\stlib\STM32F10x_StdPeriph_Driver\src/stm32f10x_fsmc.c **** void FSMC_NANDDeInit(uint32_t FSMC_Bank)
 130:.\stlib\STM32F10x_StdPeriph_Driver\src/stm32f10x_fsmc.c **** {
 142              		.loc 1 130 1 is_stmt 1 view -0
 143              		.cfi_startproc
 144              		@ args = 0, pretend = 0, frame = 0
 145              		@ frame_needed = 0, uses_anonymous_args = 0
 146              		@ link register save eliminated.
 131:.\stlib\STM32F10x_StdPeriph_Driver\src/stm32f10x_fsmc.c ****   /* Check the parameter */
 132:.\stlib\STM32F10x_StdPeriph_Driver\src/stm32f10x_fsmc.c ****   assert_param(IS_FSMC_NAND_BANK(FSMC_Bank));
 147              		.loc 1 132 3 view .LVU15
 133:.\stlib\STM32F10x_StdPeriph_Driver\src/stm32f10x_fsmc.c ****   
 134:.\stlib\STM32F10x_StdPeriph_Driver\src/stm32f10x_fsmc.c ****   if(FSMC_Bank == FSMC_Bank2_NAND)
 148              		.loc 1 134 3 view .LVU16
 149 0028 4022     		movs	r2, #64	@ tmp128,
ARM GAS  C:\Users\skey\AppData\Local\Temp\ccFDdSGQ.s 			page 6


 135:.\stlib\STM32F10x_StdPeriph_Driver\src/stm32f10x_fsmc.c ****   {
 136:.\stlib\STM32F10x_StdPeriph_Driver\src/stm32f10x_fsmc.c ****     /* Set the FSMC_Bank2 registers to their reset values */
 137:.\stlib\STM32F10x_StdPeriph_Driver\src/stm32f10x_fsmc.c ****     FSMC_Bank2->PCR2 = 0x00000018;
 150              		.loc 1 137 5 view .LVU17
 151 002a 1821     		movs	r1, #24	@ tmp127,
 152              	@ .\stlib\STM32F10x_StdPeriph_Driver\src\stm32f10x_fsmc.c:134:   if(FSMC_Bank == FSMC_Bank2_NAND)
 134:.\stlib\STM32F10x_StdPeriph_Driver\src/stm32f10x_fsmc.c ****   {
 153              		.loc 1 134 5 is_stmt 0 view .LVU18
 154 002c 1028     		cmp	r0, #16	@ tmp129,
 155              	@ .\stlib\STM32F10x_StdPeriph_Driver\src\stm32f10x_fsmc.c:137:     FSMC_Bank2->PCR2 = 0x00000018;
 156              		.loc 1 137 22 view .LVU19
 157 002e 0CBF     		ite	eq
 158 0030 044B     		ldreq	r3, .L8	@ tmp111,
 138:.\stlib\STM32F10x_StdPeriph_Driver\src/stm32f10x_fsmc.c ****     FSMC_Bank2->SR2 = 0x00000040;
 139:.\stlib\STM32F10x_StdPeriph_Driver\src/stm32f10x_fsmc.c ****     FSMC_Bank2->PMEM2 = 0xFCFCFCFC;
 140:.\stlib\STM32F10x_StdPeriph_Driver\src/stm32f10x_fsmc.c ****     FSMC_Bank2->PATT2 = 0xFCFCFCFC;  
 141:.\stlib\STM32F10x_StdPeriph_Driver\src/stm32f10x_fsmc.c ****   }
 142:.\stlib\STM32F10x_StdPeriph_Driver\src/stm32f10x_fsmc.c ****   /* FSMC_Bank3_NAND */  
 143:.\stlib\STM32F10x_StdPeriph_Driver\src/stm32f10x_fsmc.c ****   else
 144:.\stlib\STM32F10x_StdPeriph_Driver\src/stm32f10x_fsmc.c ****   {
 145:.\stlib\STM32F10x_StdPeriph_Driver\src/stm32f10x_fsmc.c ****     /* Set the FSMC_Bank3 registers to their reset values */
 146:.\stlib\STM32F10x_StdPeriph_Driver\src/stm32f10x_fsmc.c ****     FSMC_Bank3->PCR3 = 0x00000018;
 159              		.loc 1 146 5 is_stmt 1 view .LVU20
 160              	@ .\stlib\STM32F10x_StdPeriph_Driver\src\stm32f10x_fsmc.c:146:     FSMC_Bank3->PCR3 = 0x00000018;
 161              		.loc 1 146 22 is_stmt 0 view .LVU21
 162 0032 054B     		ldrne	r3, .L8+4	@ tmp119,
 163 0034 1960     		str	r1, [r3]	@ tmp127,
 147:.\stlib\STM32F10x_StdPeriph_Driver\src/stm32f10x_fsmc.c ****     FSMC_Bank3->SR3 = 0x00000040;
 164              		.loc 1 147 5 is_stmt 1 view .LVU22
 165              	@ .\stlib\STM32F10x_StdPeriph_Driver\src\stm32f10x_fsmc.c:147:     FSMC_Bank3->SR3 = 0x00000040;
 166              		.loc 1 147 21 is_stmt 0 view .LVU23
 167 0036 5A60     		str	r2, [r3, #4]	@ tmp128,
 148:.\stlib\STM32F10x_StdPeriph_Driver\src/stm32f10x_fsmc.c ****     FSMC_Bank3->PMEM3 = 0xFCFCFCFC;
 168              		.loc 1 148 5 is_stmt 1 view .LVU24
 169              	@ .\stlib\STM32F10x_StdPeriph_Driver\src\stm32f10x_fsmc.c:148:     FSMC_Bank3->PMEM3 = 0xFCFCFCFC;
 170              		.loc 1 148 23 is_stmt 0 view .LVU25
 171 0038 4FF0FC32 		mov	r2, #-50529028	@ tmp124,
 172 003c 9A60     		str	r2, [r3, #8]	@ tmp124,
 149:.\stlib\STM32F10x_StdPeriph_Driver\src/stm32f10x_fsmc.c ****     FSMC_Bank3->PATT3 = 0xFCFCFCFC; 
 173              		.loc 1 149 5 is_stmt 1 view .LVU26
 174              	@ .\stlib\STM32F10x_StdPeriph_Driver\src\stm32f10x_fsmc.c:149:     FSMC_Bank3->PATT3 = 0xFCFCFCFC; 
 175              		.loc 1 149 23 is_stmt 0 view .LVU27
 176 003e DA60     		str	r2, [r3, #12]	@ tmp124,
 177              	@ .\stlib\STM32F10x_StdPeriph_Driver\src\stm32f10x_fsmc.c:151: }
 150:.\stlib\STM32F10x_StdPeriph_Driver\src/stm32f10x_fsmc.c ****   }  
 151:.\stlib\STM32F10x_StdPeriph_Driver\src/stm32f10x_fsmc.c **** }
 178              		.loc 1 151 1 view .LVU28
 179 0040 7047     		bx	lr	@
 180              	.L9:
 181 0042 00BF     		.align	2
 182              	.L8:
 183 0044 600000A0 		.word	-1610612640
 184 0048 800000A0 		.word	-1610612608
 185              		.cfi_endproc
 186              	.LFE30:
 187              		.size	FSMC_NANDDeInit, .-FSMC_NANDDeInit
 188              		.align	1
ARM GAS  C:\Users\skey\AppData\Local\Temp\ccFDdSGQ.s 			page 7


 189              		.global	FSMC_PCCARDDeInit
 190              		.syntax unified
 191              		.thumb
 192              		.thumb_func
 193              		.fpu softvfp
 194              		.type	FSMC_PCCARDDeInit, %function
 195              	FSMC_PCCARDDeInit:
 196              	.LFB31:
 152:.\stlib\STM32F10x_StdPeriph_Driver\src/stm32f10x_fsmc.c **** 
 153:.\stlib\STM32F10x_StdPeriph_Driver\src/stm32f10x_fsmc.c **** /**
 154:.\stlib\STM32F10x_StdPeriph_Driver\src/stm32f10x_fsmc.c ****   * @brief  Deinitializes the FSMC PCCARD Bank registers to their default reset values.
 155:.\stlib\STM32F10x_StdPeriph_Driver\src/stm32f10x_fsmc.c ****   * @param  None                       
 156:.\stlib\STM32F10x_StdPeriph_Driver\src/stm32f10x_fsmc.c ****   * @retval None
 157:.\stlib\STM32F10x_StdPeriph_Driver\src/stm32f10x_fsmc.c ****   */
 158:.\stlib\STM32F10x_StdPeriph_Driver\src/stm32f10x_fsmc.c **** void FSMC_PCCARDDeInit(void)
 159:.\stlib\STM32F10x_StdPeriph_Driver\src/stm32f10x_fsmc.c **** {
 197              		.loc 1 159 1 is_stmt 1 view -0
 198              		.cfi_startproc
 199              		@ args = 0, pretend = 0, frame = 0
 200              		@ frame_needed = 0, uses_anonymous_args = 0
 201              		@ link register save eliminated.
 160:.\stlib\STM32F10x_StdPeriph_Driver\src/stm32f10x_fsmc.c ****   /* Set the FSMC_Bank4 registers to their reset values */
 161:.\stlib\STM32F10x_StdPeriph_Driver\src/stm32f10x_fsmc.c ****   FSMC_Bank4->PCR4 = 0x00000018; 
 202              		.loc 1 161 3 view .LVU30
 203              	@ .\stlib\STM32F10x_StdPeriph_Driver\src\stm32f10x_fsmc.c:161:   FSMC_Bank4->PCR4 = 0x00000018; 
 204              		.loc 1 161 20 is_stmt 0 view .LVU31
 205 004c 1822     		movs	r2, #24	@ tmp111,
 206 004e 054B     		ldr	r3, .L11	@ tmp110,
 207 0050 1A60     		str	r2, [r3]	@ tmp111, MEM[(struct FSMC_Bank4_TypeDef *)2684354720B].PCR4
 162:.\stlib\STM32F10x_StdPeriph_Driver\src/stm32f10x_fsmc.c ****   FSMC_Bank4->SR4 = 0x00000000;	
 208              		.loc 1 162 3 is_stmt 1 view .LVU32
 209              	@ .\stlib\STM32F10x_StdPeriph_Driver\src\stm32f10x_fsmc.c:162:   FSMC_Bank4->SR4 = 0x00000000;	
 210              		.loc 1 162 19 is_stmt 0 view .LVU33
 211 0052 0022     		movs	r2, #0	@ tmp113,
 212 0054 5A60     		str	r2, [r3, #4]	@ tmp113, MEM[(struct FSMC_Bank4_TypeDef *)2684354720B].SR4
 163:.\stlib\STM32F10x_StdPeriph_Driver\src/stm32f10x_fsmc.c ****   FSMC_Bank4->PMEM4 = 0xFCFCFCFC;
 213              		.loc 1 163 3 is_stmt 1 view .LVU34
 214              	@ .\stlib\STM32F10x_StdPeriph_Driver\src\stm32f10x_fsmc.c:163:   FSMC_Bank4->PMEM4 = 0xFCFCFCFC;
 215              		.loc 1 163 21 is_stmt 0 view .LVU35
 216 0056 4FF0FC32 		mov	r2, #-50529028	@ tmp115,
 217 005a 9A60     		str	r2, [r3, #8]	@ tmp115, MEM[(struct FSMC_Bank4_TypeDef *)2684354720B].PMEM4
 164:.\stlib\STM32F10x_StdPeriph_Driver\src/stm32f10x_fsmc.c ****   FSMC_Bank4->PATT4 = 0xFCFCFCFC;
 218              		.loc 1 164 3 is_stmt 1 view .LVU36
 219              	@ .\stlib\STM32F10x_StdPeriph_Driver\src\stm32f10x_fsmc.c:164:   FSMC_Bank4->PATT4 = 0xFCFCFCFC;
 220              		.loc 1 164 21 is_stmt 0 view .LVU37
 221 005c DA60     		str	r2, [r3, #12]	@ tmp115, MEM[(struct FSMC_Bank4_TypeDef *)2684354720B].PATT4
 165:.\stlib\STM32F10x_StdPeriph_Driver\src/stm32f10x_fsmc.c ****   FSMC_Bank4->PIO4 = 0xFCFCFCFC;
 222              		.loc 1 165 3 is_stmt 1 view .LVU38
 223              	@ .\stlib\STM32F10x_StdPeriph_Driver\src\stm32f10x_fsmc.c:165:   FSMC_Bank4->PIO4 = 0xFCFCFCFC;
 224              		.loc 1 165 20 is_stmt 0 view .LVU39
 225 005e 1A61     		str	r2, [r3, #16]	@ tmp115, MEM[(struct FSMC_Bank4_TypeDef *)2684354720B].PIO4
 226              	@ .\stlib\STM32F10x_StdPeriph_Driver\src\stm32f10x_fsmc.c:166: }
 166:.\stlib\STM32F10x_StdPeriph_Driver\src/stm32f10x_fsmc.c **** }
 227              		.loc 1 166 1 view .LVU40
 228 0060 7047     		bx	lr	@
 229              	.L12:
 230 0062 00BF     		.align	2
ARM GAS  C:\Users\skey\AppData\Local\Temp\ccFDdSGQ.s 			page 8


 231              	.L11:
 232 0064 A00000A0 		.word	-1610612576
 233              		.cfi_endproc
 234              	.LFE31:
 235              		.size	FSMC_PCCARDDeInit, .-FSMC_PCCARDDeInit
 236              		.align	1
 237              		.global	FSMC_NORSRAMInit
 238              		.syntax unified
 239              		.thumb
 240              		.thumb_func
 241              		.fpu softvfp
 242              		.type	FSMC_NORSRAMInit, %function
 243              	FSMC_NORSRAMInit:
 244              	.LVL4:
 245              	.LFB32:
 167:.\stlib\STM32F10x_StdPeriph_Driver\src/stm32f10x_fsmc.c **** 
 168:.\stlib\STM32F10x_StdPeriph_Driver\src/stm32f10x_fsmc.c **** /**
 169:.\stlib\STM32F10x_StdPeriph_Driver\src/stm32f10x_fsmc.c ****   * @brief  Initializes the FSMC NOR/SRAM Banks according to the specified
 170:.\stlib\STM32F10x_StdPeriph_Driver\src/stm32f10x_fsmc.c ****   *         parameters in the FSMC_NORSRAMInitStruct.
 171:.\stlib\STM32F10x_StdPeriph_Driver\src/stm32f10x_fsmc.c ****   * @param  FSMC_NORSRAMInitStruct : pointer to a FSMC_NORSRAMInitTypeDef
 172:.\stlib\STM32F10x_StdPeriph_Driver\src/stm32f10x_fsmc.c ****   *         structure that contains the configuration information for 
 173:.\stlib\STM32F10x_StdPeriph_Driver\src/stm32f10x_fsmc.c ****   *        the FSMC NOR/SRAM specified Banks.                       
 174:.\stlib\STM32F10x_StdPeriph_Driver\src/stm32f10x_fsmc.c ****   * @retval None
 175:.\stlib\STM32F10x_StdPeriph_Driver\src/stm32f10x_fsmc.c ****   */
 176:.\stlib\STM32F10x_StdPeriph_Driver\src/stm32f10x_fsmc.c **** void FSMC_NORSRAMInit(FSMC_NORSRAMInitTypeDef* FSMC_NORSRAMInitStruct)
 177:.\stlib\STM32F10x_StdPeriph_Driver\src/stm32f10x_fsmc.c **** { 
 246              		.loc 1 177 1 is_stmt 1 view -0
 247              		.cfi_startproc
 248              		@ args = 0, pretend = 0, frame = 0
 249              		@ frame_needed = 0, uses_anonymous_args = 0
 178:.\stlib\STM32F10x_StdPeriph_Driver\src/stm32f10x_fsmc.c ****   /* Check the parameters */
 179:.\stlib\STM32F10x_StdPeriph_Driver\src/stm32f10x_fsmc.c ****   assert_param(IS_FSMC_NORSRAM_BANK(FSMC_NORSRAMInitStruct->FSMC_Bank));
 250              		.loc 1 179 3 view .LVU42
 180:.\stlib\STM32F10x_StdPeriph_Driver\src/stm32f10x_fsmc.c ****   assert_param(IS_FSMC_MUX(FSMC_NORSRAMInitStruct->FSMC_DataAddressMux));
 251              		.loc 1 180 3 view .LVU43
 181:.\stlib\STM32F10x_StdPeriph_Driver\src/stm32f10x_fsmc.c ****   assert_param(IS_FSMC_MEMORY(FSMC_NORSRAMInitStruct->FSMC_MemoryType));
 252              		.loc 1 181 3 view .LVU44
 182:.\stlib\STM32F10x_StdPeriph_Driver\src/stm32f10x_fsmc.c ****   assert_param(IS_FSMC_MEMORY_WIDTH(FSMC_NORSRAMInitStruct->FSMC_MemoryDataWidth));
 253              		.loc 1 182 3 view .LVU45
 183:.\stlib\STM32F10x_StdPeriph_Driver\src/stm32f10x_fsmc.c ****   assert_param(IS_FSMC_BURSTMODE(FSMC_NORSRAMInitStruct->FSMC_BurstAccessMode));
 254              		.loc 1 183 3 view .LVU46
 184:.\stlib\STM32F10x_StdPeriph_Driver\src/stm32f10x_fsmc.c ****   assert_param(IS_FSMC_ASYNWAIT(FSMC_NORSRAMInitStruct->FSMC_AsynchronousWait));
 255              		.loc 1 184 3 view .LVU47
 185:.\stlib\STM32F10x_StdPeriph_Driver\src/stm32f10x_fsmc.c ****   assert_param(IS_FSMC_WAIT_POLARITY(FSMC_NORSRAMInitStruct->FSMC_WaitSignalPolarity));
 256              		.loc 1 185 3 view .LVU48
 186:.\stlib\STM32F10x_StdPeriph_Driver\src/stm32f10x_fsmc.c ****   assert_param(IS_FSMC_WRAP_MODE(FSMC_NORSRAMInitStruct->FSMC_WrapMode));
 257              		.loc 1 186 3 view .LVU49
 187:.\stlib\STM32F10x_StdPeriph_Driver\src/stm32f10x_fsmc.c ****   assert_param(IS_FSMC_WAIT_SIGNAL_ACTIVE(FSMC_NORSRAMInitStruct->FSMC_WaitSignalActive));
 258              		.loc 1 187 3 view .LVU50
 188:.\stlib\STM32F10x_StdPeriph_Driver\src/stm32f10x_fsmc.c ****   assert_param(IS_FSMC_WRITE_OPERATION(FSMC_NORSRAMInitStruct->FSMC_WriteOperation));
 259              		.loc 1 188 3 view .LVU51
 189:.\stlib\STM32F10x_StdPeriph_Driver\src/stm32f10x_fsmc.c ****   assert_param(IS_FSMC_WAITE_SIGNAL(FSMC_NORSRAMInitStruct->FSMC_WaitSignal));
 260              		.loc 1 189 3 view .LVU52
 190:.\stlib\STM32F10x_StdPeriph_Driver\src/stm32f10x_fsmc.c ****   assert_param(IS_FSMC_EXTENDED_MODE(FSMC_NORSRAMInitStruct->FSMC_ExtendedMode));
 261              		.loc 1 190 3 view .LVU53
 191:.\stlib\STM32F10x_StdPeriph_Driver\src/stm32f10x_fsmc.c ****   assert_param(IS_FSMC_WRITE_BURST(FSMC_NORSRAMInitStruct->FSMC_WriteBurst));  
 262              		.loc 1 191 3 view .LVU54
ARM GAS  C:\Users\skey\AppData\Local\Temp\ccFDdSGQ.s 			page 9


 192:.\stlib\STM32F10x_StdPeriph_Driver\src/stm32f10x_fsmc.c ****   assert_param(IS_FSMC_ADDRESS_SETUP_TIME(FSMC_NORSRAMInitStruct->FSMC_ReadWriteTimingStruct->FSMC_
 263              		.loc 1 192 3 view .LVU55
 193:.\stlib\STM32F10x_StdPeriph_Driver\src/stm32f10x_fsmc.c ****   assert_param(IS_FSMC_ADDRESS_HOLD_TIME(FSMC_NORSRAMInitStruct->FSMC_ReadWriteTimingStruct->FSMC_A
 264              		.loc 1 193 3 view .LVU56
 194:.\stlib\STM32F10x_StdPeriph_Driver\src/stm32f10x_fsmc.c ****   assert_param(IS_FSMC_DATASETUP_TIME(FSMC_NORSRAMInitStruct->FSMC_ReadWriteTimingStruct->FSMC_Data
 265              		.loc 1 194 3 view .LVU57
 195:.\stlib\STM32F10x_StdPeriph_Driver\src/stm32f10x_fsmc.c ****   assert_param(IS_FSMC_TURNAROUND_TIME(FSMC_NORSRAMInitStruct->FSMC_ReadWriteTimingStruct->FSMC_Bus
 266              		.loc 1 195 3 view .LVU58
 196:.\stlib\STM32F10x_StdPeriph_Driver\src/stm32f10x_fsmc.c ****   assert_param(IS_FSMC_CLK_DIV(FSMC_NORSRAMInitStruct->FSMC_ReadWriteTimingStruct->FSMC_CLKDivision
 267              		.loc 1 196 3 view .LVU59
 197:.\stlib\STM32F10x_StdPeriph_Driver\src/stm32f10x_fsmc.c ****   assert_param(IS_FSMC_DATA_LATENCY(FSMC_NORSRAMInitStruct->FSMC_ReadWriteTimingStruct->FSMC_DataLa
 268              		.loc 1 197 3 view .LVU60
 198:.\stlib\STM32F10x_StdPeriph_Driver\src/stm32f10x_fsmc.c ****   assert_param(IS_FSMC_ACCESS_MODE(FSMC_NORSRAMInitStruct->FSMC_ReadWriteTimingStruct->FSMC_AccessM
 269              		.loc 1 198 3 view .LVU61
 199:.\stlib\STM32F10x_StdPeriph_Driver\src/stm32f10x_fsmc.c ****   
 200:.\stlib\STM32F10x_StdPeriph_Driver\src/stm32f10x_fsmc.c ****   /* Bank1 NOR/SRAM control register configuration */ 
 201:.\stlib\STM32F10x_StdPeriph_Driver\src/stm32f10x_fsmc.c ****   FSMC_Bank1->BTCR[FSMC_NORSRAMInitStruct->FSMC_Bank] = 
 270              		.loc 1 201 3 view .LVU62
 271              	@ .\stlib\STM32F10x_StdPeriph_Driver\src\stm32f10x_fsmc.c:203:             FSMC_NORSRAMInitStruct->
 202:.\stlib\STM32F10x_StdPeriph_Driver\src/stm32f10x_fsmc.c ****             (uint32_t)FSMC_NORSRAMInitStruct->FSMC_DataAddressMux |
 203:.\stlib\STM32F10x_StdPeriph_Driver\src/stm32f10x_fsmc.c ****             FSMC_NORSRAMInitStruct->FSMC_MemoryType |
 272              		.loc 1 203 35 is_stmt 0 view .LVU63
 273 0068 8168     		ldr	r1, [r0, #8]	@ _2, FSMC_NORSRAMInitStruct_66(D)->FSMC_MemoryType
 274              	@ .\stlib\STM32F10x_StdPeriph_Driver\src\stm32f10x_fsmc.c:202:             (uint32_t)FSMC_NORSRAMIn
 202:.\stlib\STM32F10x_StdPeriph_Driver\src/stm32f10x_fsmc.c ****             (uint32_t)FSMC_NORSRAMInitStruct->FSMC_DataAddressMux |
 275              		.loc 1 202 67 view .LVU64
 276 006a 4368     		ldr	r3, [r0, #4]	@ FSMC_NORSRAMInitStruct_66(D)->FSMC_DataAddressMux, FSMC_NORSRAMInitStruct_66(D)
 277              	@ .\stlib\STM32F10x_StdPeriph_Driver\src\stm32f10x_fsmc.c:177: { 
 177:.\stlib\STM32F10x_StdPeriph_Driver\src/stm32f10x_fsmc.c ****   /* Check the parameters */
 278              		.loc 1 177 1 view .LVU65
 279 006c 30B5     		push	{r4, r5, lr}	@
 280              	.LCFI0:
 281              		.cfi_def_cfa_offset 12
 282              		.cfi_offset 4, -12
 283              		.cfi_offset 5, -8
 284              		.cfi_offset 14, -4
 285              	@ .\stlib\STM32F10x_StdPeriph_Driver\src\stm32f10x_fsmc.c:203:             FSMC_NORSRAMInitStruct->
 286              		.loc 1 203 53 view .LVU66
 287 006e C468     		ldr	r4, [r0, #12]	@ FSMC_NORSRAMInitStruct_66(D)->FSMC_MemoryDataWidth, FSMC_NORSRAMInitStruct_66(
 288              	@ .\stlib\STM32F10x_StdPeriph_Driver\src\stm32f10x_fsmc.c:202:             (uint32_t)FSMC_NORSRAMIn
 202:.\stlib\STM32F10x_StdPeriph_Driver\src/stm32f10x_fsmc.c ****             (uint32_t)FSMC_NORSRAMInitStruct->FSMC_DataAddressMux |
 289              		.loc 1 202 67 view .LVU67
 290 0070 0B43     		orrs	r3, r3, r1	@, tmp176, FSMC_NORSRAMInitStruct_66(D)->FSMC_DataAddressMux, _2
 291              	@ .\stlib\STM32F10x_StdPeriph_Driver\src\stm32f10x_fsmc.c:203:             FSMC_NORSRAMInitStruct->
 292              		.loc 1 203 53 view .LVU68
 293 0072 2343     		orrs	r3, r3, r4	@, tmp178, tmp176, FSMC_NORSRAMInitStruct_66(D)->FSMC_MemoryDataWidth
 294              	@ .\stlib\STM32F10x_StdPeriph_Driver\src\stm32f10x_fsmc.c:204:             FSMC_NORSRAMInitStruct->
 204:.\stlib\STM32F10x_StdPeriph_Driver\src/stm32f10x_fsmc.c ****             FSMC_NORSRAMInitStruct->FSMC_MemoryDataWidth |
 295              		.loc 1 204 58 view .LVU69
 296 0074 0469     		ldr	r4, [r0, #16]	@ FSMC_NORSRAMInitStruct_66(D)->FSMC_BurstAccessMode, FSMC_NORSRAMInitStruct_66(
 297              	@ .\stlib\STM32F10x_StdPeriph_Driver\src\stm32f10x_fsmc.c:212:             FSMC_NORSRAMInitStruct->
 205:.\stlib\STM32F10x_StdPeriph_Driver\src/stm32f10x_fsmc.c ****             FSMC_NORSRAMInitStruct->FSMC_BurstAccessMode |
 206:.\stlib\STM32F10x_StdPeriph_Driver\src/stm32f10x_fsmc.c ****             FSMC_NORSRAMInitStruct->FSMC_AsynchronousWait |
 207:.\stlib\STM32F10x_StdPeriph_Driver\src/stm32f10x_fsmc.c ****             FSMC_NORSRAMInitStruct->FSMC_WaitSignalPolarity |
 208:.\stlib\STM32F10x_StdPeriph_Driver\src/stm32f10x_fsmc.c ****             FSMC_NORSRAMInitStruct->FSMC_WrapMode |
 209:.\stlib\STM32F10x_StdPeriph_Driver\src/stm32f10x_fsmc.c ****             FSMC_NORSRAMInitStruct->FSMC_WaitSignalActive |
 210:.\stlib\STM32F10x_StdPeriph_Driver\src/stm32f10x_fsmc.c ****             FSMC_NORSRAMInitStruct->FSMC_WriteOperation |
ARM GAS  C:\Users\skey\AppData\Local\Temp\ccFDdSGQ.s 			page 10


 211:.\stlib\STM32F10x_StdPeriph_Driver\src/stm32f10x_fsmc.c ****             FSMC_NORSRAMInitStruct->FSMC_WaitSignal |
 212:.\stlib\STM32F10x_StdPeriph_Driver\src/stm32f10x_fsmc.c ****             FSMC_NORSRAMInitStruct->FSMC_ExtendedMode |
 298              		.loc 1 212 35 view .LVU70
 299 0076 C26A     		ldr	r2, [r0, #44]	@ _20, FSMC_NORSRAMInitStruct_66(D)->FSMC_ExtendedMode
 300              	@ .\stlib\STM32F10x_StdPeriph_Driver\src\stm32f10x_fsmc.c:204:             FSMC_NORSRAMInitStruct->
 204:.\stlib\STM32F10x_StdPeriph_Driver\src/stm32f10x_fsmc.c ****             FSMC_NORSRAMInitStruct->FSMC_MemoryDataWidth |
 301              		.loc 1 204 58 view .LVU71
 302 0078 2343     		orrs	r3, r3, r4	@, tmp180, tmp178, FSMC_NORSRAMInitStruct_66(D)->FSMC_BurstAccessMode
 303              	@ .\stlib\STM32F10x_StdPeriph_Driver\src\stm32f10x_fsmc.c:205:             FSMC_NORSRAMInitStruct->
 205:.\stlib\STM32F10x_StdPeriph_Driver\src/stm32f10x_fsmc.c ****             FSMC_NORSRAMInitStruct->FSMC_BurstAccessMode |
 304              		.loc 1 205 58 view .LVU72
 305 007a 4469     		ldr	r4, [r0, #20]	@ FSMC_NORSRAMInitStruct_66(D)->FSMC_AsynchronousWait, FSMC_NORSRAMInitStruct_66
 306              	@ .\stlib\STM32F10x_StdPeriph_Driver\src\stm32f10x_fsmc.c:215:   if(FSMC_NORSRAMInitStruct->FSMC_Me
 213:.\stlib\STM32F10x_StdPeriph_Driver\src/stm32f10x_fsmc.c ****             FSMC_NORSRAMInitStruct->FSMC_WriteBurst;
 214:.\stlib\STM32F10x_StdPeriph_Driver\src/stm32f10x_fsmc.c **** 
 215:.\stlib\STM32F10x_StdPeriph_Driver\src/stm32f10x_fsmc.c ****   if(FSMC_NORSRAMInitStruct->FSMC_MemoryType == FSMC_MemoryType_NOR)
 307              		.loc 1 215 5 view .LVU73
 308 007c 0829     		cmp	r1, #8	@ _2,
 309              	@ .\stlib\STM32F10x_StdPeriph_Driver\src\stm32f10x_fsmc.c:205:             FSMC_NORSRAMInitStruct->
 205:.\stlib\STM32F10x_StdPeriph_Driver\src/stm32f10x_fsmc.c ****             FSMC_NORSRAMInitStruct->FSMC_BurstAccessMode |
 310              		.loc 1 205 58 view .LVU74
 311 007e 43EA0403 		orr	r3, r3, r4	@ tmp182, tmp180, FSMC_NORSRAMInitStruct_66(D)->FSMC_AsynchronousWait
 312              	@ .\stlib\STM32F10x_StdPeriph_Driver\src\stm32f10x_fsmc.c:206:             FSMC_NORSRAMInitStruct->
 206:.\stlib\STM32F10x_StdPeriph_Driver\src/stm32f10x_fsmc.c ****             FSMC_NORSRAMInitStruct->FSMC_WaitSignalPolarity |
 313              		.loc 1 206 59 view .LVU75
 314 0082 8469     		ldr	r4, [r0, #24]	@ FSMC_NORSRAMInitStruct_66(D)->FSMC_WaitSignalPolarity, FSMC_NORSRAMInitStruct_
 315              	@ .\stlib\STM32F10x_StdPeriph_Driver\src\stm32f10x_fsmc.c:222:             (uint32_t)FSMC_NORSRAMIn
 216:.\stlib\STM32F10x_StdPeriph_Driver\src/stm32f10x_fsmc.c ****   {
 217:.\stlib\STM32F10x_StdPeriph_Driver\src/stm32f10x_fsmc.c ****     FSMC_Bank1->BTCR[FSMC_NORSRAMInitStruct->FSMC_Bank] |= (uint32_t)BCR_FACCEN_Set;
 218:.\stlib\STM32F10x_StdPeriph_Driver\src/stm32f10x_fsmc.c ****   }
 219:.\stlib\STM32F10x_StdPeriph_Driver\src/stm32f10x_fsmc.c ****   
 220:.\stlib\STM32F10x_StdPeriph_Driver\src/stm32f10x_fsmc.c ****   /* Bank1 NOR/SRAM timing register configuration */
 221:.\stlib\STM32F10x_StdPeriph_Driver\src/stm32f10x_fsmc.c ****   FSMC_Bank1->BTCR[FSMC_NORSRAMInitStruct->FSMC_Bank+1] = 
 222:.\stlib\STM32F10x_StdPeriph_Driver\src/stm32f10x_fsmc.c ****             (uint32_t)FSMC_NORSRAMInitStruct->FSMC_ReadWriteTimingStruct->FSMC_AddressSetupTime |
 316              		.loc 1 222 45 view .LVU76
 317 0084 416B     		ldr	r1, [r0, #52]	@ _27, FSMC_NORSRAMInitStruct_66(D)->FSMC_ReadWriteTimingStruct
 318              	@ .\stlib\STM32F10x_StdPeriph_Driver\src\stm32f10x_fsmc.c:206:             FSMC_NORSRAMInitStruct->
 206:.\stlib\STM32F10x_StdPeriph_Driver\src/stm32f10x_fsmc.c ****             FSMC_NORSRAMInitStruct->FSMC_WaitSignalPolarity |
 319              		.loc 1 206 59 view .LVU77
 320 0086 43EA0403 		orr	r3, r3, r4	@ tmp184, tmp182, FSMC_NORSRAMInitStruct_66(D)->FSMC_WaitSignalPolarity
 321              	@ .\stlib\STM32F10x_StdPeriph_Driver\src\stm32f10x_fsmc.c:207:             FSMC_NORSRAMInitStruct->
 207:.\stlib\STM32F10x_StdPeriph_Driver\src/stm32f10x_fsmc.c ****             FSMC_NORSRAMInitStruct->FSMC_WrapMode |
 322              		.loc 1 207 61 view .LVU78
 323 008a C469     		ldr	r4, [r0, #28]	@ FSMC_NORSRAMInitStruct_66(D)->FSMC_WrapMode, FSMC_NORSRAMInitStruct_66(D)->FSM
 324              	@ .\stlib\STM32F10x_StdPeriph_Driver\src\stm32f10x_fsmc.c:227:             (FSMC_NORSRAMInitStruct-
 223:.\stlib\STM32F10x_StdPeriph_Driver\src/stm32f10x_fsmc.c ****             (FSMC_NORSRAMInitStruct->FSMC_ReadWriteTimingStruct->FSMC_AddressHoldTime << 4) |
 224:.\stlib\STM32F10x_StdPeriph_Driver\src/stm32f10x_fsmc.c ****             (FSMC_NORSRAMInitStruct->FSMC_ReadWriteTimingStruct->FSMC_DataSetupTime << 8) |
 225:.\stlib\STM32F10x_StdPeriph_Driver\src/stm32f10x_fsmc.c ****             (FSMC_NORSRAMInitStruct->FSMC_ReadWriteTimingStruct->FSMC_BusTurnAroundDuration << 16) 
 226:.\stlib\STM32F10x_StdPeriph_Driver\src/stm32f10x_fsmc.c ****             (FSMC_NORSRAMInitStruct->FSMC_ReadWriteTimingStruct->FSMC_CLKDivision << 20) |
 227:.\stlib\STM32F10x_StdPeriph_Driver\src/stm32f10x_fsmc.c ****             (FSMC_NORSRAMInitStruct->FSMC_ReadWriteTimingStruct->FSMC_DataLatency << 24) |
 325              		.loc 1 227 90 view .LVU79
 326 008c 8D69     		ldr	r5, [r1, #24]	@ _27->FSMC_AccessMode, _27->FSMC_AccessMode
 327              	@ .\stlib\STM32F10x_StdPeriph_Driver\src\stm32f10x_fsmc.c:207:             FSMC_NORSRAMInitStruct->
 207:.\stlib\STM32F10x_StdPeriph_Driver\src/stm32f10x_fsmc.c ****             FSMC_NORSRAMInitStruct->FSMC_WrapMode |
 328              		.loc 1 207 61 view .LVU80
 329 008e 43EA0403 		orr	r3, r3, r4	@ tmp186, tmp184, FSMC_NORSRAMInitStruct_66(D)->FSMC_WrapMode
 330              	@ .\stlib\STM32F10x_StdPeriph_Driver\src\stm32f10x_fsmc.c:208:             FSMC_NORSRAMInitStruct->
ARM GAS  C:\Users\skey\AppData\Local\Temp\ccFDdSGQ.s 			page 11


 208:.\stlib\STM32F10x_StdPeriph_Driver\src/stm32f10x_fsmc.c ****             FSMC_NORSRAMInitStruct->FSMC_WaitSignalActive |
 331              		.loc 1 208 51 view .LVU81
 332 0092 046A     		ldr	r4, [r0, #32]	@ FSMC_NORSRAMInitStruct_66(D)->FSMC_WaitSignalActive, FSMC_NORSRAMInitStruct_66
 333 0094 43EA0403 		orr	r3, r3, r4	@ tmp188, tmp186, FSMC_NORSRAMInitStruct_66(D)->FSMC_WaitSignalActive
 334              	@ .\stlib\STM32F10x_StdPeriph_Driver\src\stm32f10x_fsmc.c:209:             FSMC_NORSRAMInitStruct->
 209:.\stlib\STM32F10x_StdPeriph_Driver\src/stm32f10x_fsmc.c ****             FSMC_NORSRAMInitStruct->FSMC_WriteOperation |
 335              		.loc 1 209 59 view .LVU82
 336 0098 446A     		ldr	r4, [r0, #36]	@ FSMC_NORSRAMInitStruct_66(D)->FSMC_WriteOperation, FSMC_NORSRAMInitStruct_66(D
 337 009a 43EA0403 		orr	r3, r3, r4	@ tmp190, tmp188, FSMC_NORSRAMInitStruct_66(D)->FSMC_WriteOperation
 338              	@ .\stlib\STM32F10x_StdPeriph_Driver\src\stm32f10x_fsmc.c:210:             FSMC_NORSRAMInitStruct->
 210:.\stlib\STM32F10x_StdPeriph_Driver\src/stm32f10x_fsmc.c ****             FSMC_NORSRAMInitStruct->FSMC_WaitSignal |
 339              		.loc 1 210 57 view .LVU83
 340 009e 846A     		ldr	r4, [r0, #40]	@ FSMC_NORSRAMInitStruct_66(D)->FSMC_WaitSignal, FSMC_NORSRAMInitStruct_66(D)->F
 341 00a0 43EA0403 		orr	r3, r3, r4	@ tmp192, tmp190, FSMC_NORSRAMInitStruct_66(D)->FSMC_WaitSignal
 342              	@ .\stlib\STM32F10x_StdPeriph_Driver\src\stm32f10x_fsmc.c:212:             FSMC_NORSRAMInitStruct->
 212:.\stlib\STM32F10x_StdPeriph_Driver\src/stm32f10x_fsmc.c ****             FSMC_NORSRAMInitStruct->FSMC_WriteBurst;
 343              		.loc 1 212 55 view .LVU84
 344 00a4 046B     		ldr	r4, [r0, #48]	@ FSMC_NORSRAMInitStruct_66(D)->FSMC_WriteBurst, FSMC_NORSRAMInitStruct_66(D)->F
 345              	@ .\stlib\STM32F10x_StdPeriph_Driver\src\stm32f10x_fsmc.c:211:             FSMC_NORSRAMInitStruct->
 211:.\stlib\STM32F10x_StdPeriph_Driver\src/stm32f10x_fsmc.c ****             FSMC_NORSRAMInitStruct->FSMC_ExtendedMode |
 346              		.loc 1 211 53 view .LVU85
 347 00a6 43EA0203 		orr	r3, r3, r2	@ tmp194, tmp192, _20
 348              	@ .\stlib\STM32F10x_StdPeriph_Driver\src\stm32f10x_fsmc.c:212:             FSMC_NORSRAMInitStruct->
 212:.\stlib\STM32F10x_StdPeriph_Driver\src/stm32f10x_fsmc.c ****             FSMC_NORSRAMInitStruct->FSMC_WriteBurst;
 349              		.loc 1 212 55 view .LVU86
 350 00aa 43EA0403 		orr	r3, r3, r4	@ _24, tmp194, FSMC_NORSRAMInitStruct_66(D)->FSMC_WriteBurst
 351 00ae 0468     		ldr	r4, [r0]	@ FSMC_NORSRAMInitStruct_66(D)->FSMC_Bank, FSMC_NORSRAMInitStruct_66(D)->FSMC_Bank
 352 00b0 4FEA8404 		lsl	r4, r4, #2	@ _31, FSMC_NORSRAMInitStruct_66(D)->FSMC_Bank,
 353 00b4 04F12044 		add	r4, r4, #-1610612736	@ _34, _31,
 354              	@ .\stlib\STM32F10x_StdPeriph_Driver\src\stm32f10x_fsmc.c:201:   FSMC_Bank1->BTCR[FSMC_NORSRAMInitS
 201:.\stlib\STM32F10x_StdPeriph_Driver\src/stm32f10x_fsmc.c ****             (uint32_t)FSMC_NORSRAMInitStruct->FSMC_DataAddressMux |
 355              		.loc 1 201 55 view .LVU87
 356 00b8 2360     		str	r3, [r4]	@ _24, MEM[(struct FSMC_Bank1_TypeDef *)_34]
 215:.\stlib\STM32F10x_StdPeriph_Driver\src/stm32f10x_fsmc.c ****   {
 357              		.loc 1 215 3 is_stmt 1 view .LVU88
 217:.\stlib\STM32F10x_StdPeriph_Driver\src/stm32f10x_fsmc.c ****   }
 358              		.loc 1 217 5 view .LVU89
 359              	@ .\stlib\STM32F10x_StdPeriph_Driver\src\stm32f10x_fsmc.c:217:     FSMC_Bank1->BTCR[FSMC_NORSRAMIni
 217:.\stlib\STM32F10x_StdPeriph_Driver\src/stm32f10x_fsmc.c ****   }
 360              		.loc 1 217 57 is_stmt 0 view .LVU90
 361 00ba 02BF     		ittt	eq
 362 00bc 2368     		ldreq	r3, [r4]	@ _25, MEM[(struct FSMC_Bank1_TypeDef *)_34]
 363 00be 43F04003 		orreq	r3, r3, #64	@ _26, _25,
 364 00c2 2360     		streq	r3, [r4]	@ _26, MEM[(struct FSMC_Bank1_TypeDef *)_34]
 221:.\stlib\STM32F10x_StdPeriph_Driver\src/stm32f10x_fsmc.c ****             (uint32_t)FSMC_NORSRAMInitStruct->FSMC_ReadWriteTimingStruct->FSMC_AddressSetupTime |
 365              		.loc 1 221 3 is_stmt 1 view .LVU91
 366              	@ .\stlib\STM32F10x_StdPeriph_Driver\src\stm32f10x_fsmc.c:227:             (FSMC_NORSRAMInitStruct-
 367              		.loc 1 227 90 is_stmt 0 view .LVU92
 368 00c4 0B68     		ldr	r3, [r1]	@ _27->FSMC_AddressSetupTime, _27->FSMC_AddressSetupTime
 369              	@ .\stlib\STM32F10x_StdPeriph_Driver\src\stm32f10x_fsmc.c:232:   if(FSMC_NORSRAMInitStruct->FSMC_Ex
 228:.\stlib\STM32F10x_StdPeriph_Driver\src/stm32f10x_fsmc.c ****              FSMC_NORSRAMInitStruct->FSMC_ReadWriteTimingStruct->FSMC_AccessMode;
 229:.\stlib\STM32F10x_StdPeriph_Driver\src/stm32f10x_fsmc.c ****             
 230:.\stlib\STM32F10x_StdPeriph_Driver\src/stm32f10x_fsmc.c ****     
 231:.\stlib\STM32F10x_StdPeriph_Driver\src/stm32f10x_fsmc.c ****   /* Bank1 NOR/SRAM timing register for write configuration, if extended mode is used */
 232:.\stlib\STM32F10x_StdPeriph_Driver\src/stm32f10x_fsmc.c ****   if(FSMC_NORSRAMInitStruct->FSMC_ExtendedMode == FSMC_ExtendedMode_Enable)
 370              		.loc 1 232 5 view .LVU93
 371 00c6 B2F5804F 		cmp	r2, #16384	@ _20,
ARM GAS  C:\Users\skey\AppData\Local\Temp\ccFDdSGQ.s 			page 12


 372              	@ .\stlib\STM32F10x_StdPeriph_Driver\src\stm32f10x_fsmc.c:227:             (FSMC_NORSRAMInitStruct-
 227:.\stlib\STM32F10x_StdPeriph_Driver\src/stm32f10x_fsmc.c ****              FSMC_NORSRAMInitStruct->FSMC_ReadWriteTimingStruct->FSMC_AccessMode;
 373              		.loc 1 227 90 view .LVU94
 374 00ca 43EA0503 		orr	r3, r3, r5	@ tmp197, _27->FSMC_AddressSetupTime, _27->FSMC_AccessMode
 375              	@ .\stlib\STM32F10x_StdPeriph_Driver\src\stm32f10x_fsmc.c:223:             (FSMC_NORSRAMInitStruct-
 223:.\stlib\STM32F10x_StdPeriph_Driver\src/stm32f10x_fsmc.c ****             (FSMC_NORSRAMInitStruct->FSMC_ReadWriteTimingStruct->FSMC_DataSetupTime << 8) |
 376              		.loc 1 223 87 view .LVU95
 377 00ce 4D68     		ldr	r5, [r1, #4]	@ _27->FSMC_AddressHoldTime, _27->FSMC_AddressHoldTime
 378              	@ .\stlib\STM32F10x_StdPeriph_Driver\src\stm32f10x_fsmc.c:227:             (FSMC_NORSRAMInitStruct-
 227:.\stlib\STM32F10x_StdPeriph_Driver\src/stm32f10x_fsmc.c ****              FSMC_NORSRAMInitStruct->FSMC_ReadWriteTimingStruct->FSMC_AccessMode;
 379              		.loc 1 227 90 view .LVU96
 380 00d0 43EA0513 		orr	r3, r3, r5, lsl #4	@ tmp202, tmp197, _27->FSMC_AddressHoldTime,
 381              	@ .\stlib\STM32F10x_StdPeriph_Driver\src\stm32f10x_fsmc.c:224:             (FSMC_NORSRAMInitStruct-
 224:.\stlib\STM32F10x_StdPeriph_Driver\src/stm32f10x_fsmc.c ****             (FSMC_NORSRAMInitStruct->FSMC_ReadWriteTimingStruct->FSMC_BusTurnAroundDuration << 16) 
 382              		.loc 1 224 85 view .LVU97
 383 00d4 8D68     		ldr	r5, [r1, #8]	@ _27->FSMC_DataSetupTime, _27->FSMC_DataSetupTime
 384              	@ .\stlib\STM32F10x_StdPeriph_Driver\src\stm32f10x_fsmc.c:227:             (FSMC_NORSRAMInitStruct-
 227:.\stlib\STM32F10x_StdPeriph_Driver\src/stm32f10x_fsmc.c ****              FSMC_NORSRAMInitStruct->FSMC_ReadWriteTimingStruct->FSMC_AccessMode;
 385              		.loc 1 227 90 view .LVU98
 386 00d6 43EA0523 		orr	r3, r3, r5, lsl #8	@ tmp205, tmp202, _27->FSMC_DataSetupTime,
 387              	@ .\stlib\STM32F10x_StdPeriph_Driver\src\stm32f10x_fsmc.c:225:             (FSMC_NORSRAMInitStruct-
 225:.\stlib\STM32F10x_StdPeriph_Driver\src/stm32f10x_fsmc.c ****             (FSMC_NORSRAMInitStruct->FSMC_ReadWriteTimingStruct->FSMC_CLKDivision << 20) |
 388              		.loc 1 225 93 view .LVU99
 389 00da CD68     		ldr	r5, [r1, #12]	@ _27->FSMC_BusTurnAroundDuration, _27->FSMC_BusTurnAroundDuration
 390              	@ .\stlib\STM32F10x_StdPeriph_Driver\src\stm32f10x_fsmc.c:227:             (FSMC_NORSRAMInitStruct-
 227:.\stlib\STM32F10x_StdPeriph_Driver\src/stm32f10x_fsmc.c ****              FSMC_NORSRAMInitStruct->FSMC_ReadWriteTimingStruct->FSMC_AccessMode;
 391              		.loc 1 227 90 view .LVU100
 392 00dc 43EA0543 		orr	r3, r3, r5, lsl #16	@ tmp208, tmp205, _27->FSMC_BusTurnAroundDuration,
 393              	@ .\stlib\STM32F10x_StdPeriph_Driver\src\stm32f10x_fsmc.c:226:             (FSMC_NORSRAMInitStruct-
 226:.\stlib\STM32F10x_StdPeriph_Driver\src/stm32f10x_fsmc.c ****             (FSMC_NORSRAMInitStruct->FSMC_ReadWriteTimingStruct->FSMC_DataLatency << 24) |
 394              		.loc 1 226 83 view .LVU101
 395 00e0 0D69     		ldr	r5, [r1, #16]	@ _27->FSMC_CLKDivision, _27->FSMC_CLKDivision
 396              	@ .\stlib\STM32F10x_StdPeriph_Driver\src\stm32f10x_fsmc.c:227:             (FSMC_NORSRAMInitStruct-
 227:.\stlib\STM32F10x_StdPeriph_Driver\src/stm32f10x_fsmc.c ****              FSMC_NORSRAMInitStruct->FSMC_ReadWriteTimingStruct->FSMC_AccessMode;
 397              		.loc 1 227 83 view .LVU102
 398 00e2 4969     		ldr	r1, [r1, #20]	@ _27->FSMC_DataLatency, _27->FSMC_DataLatency
 399              	@ .\stlib\STM32F10x_StdPeriph_Driver\src\stm32f10x_fsmc.c:227:             (FSMC_NORSRAMInitStruct-
 227:.\stlib\STM32F10x_StdPeriph_Driver\src/stm32f10x_fsmc.c ****              FSMC_NORSRAMInitStruct->FSMC_ReadWriteTimingStruct->FSMC_AccessMode;
 400              		.loc 1 227 90 view .LVU103
 401 00e4 43EA0553 		orr	r3, r3, r5, lsl #20	@ tmp211, tmp208, _27->FSMC_CLKDivision,
 402 00e8 43EA0163 		orr	r3, r3, r1, lsl #24	@ _46, tmp211, _27->FSMC_DataLatency,
 403              	@ .\stlib\STM32F10x_StdPeriph_Driver\src\stm32f10x_fsmc.c:221:   FSMC_Bank1->BTCR[FSMC_NORSRAMInitS
 221:.\stlib\STM32F10x_StdPeriph_Driver\src/stm32f10x_fsmc.c ****             (uint32_t)FSMC_NORSRAMInitStruct->FSMC_ReadWriteTimingStruct->FSMC_AddressSetupTime |
 404              		.loc 1 221 57 view .LVU104
 405 00ec 6360     		str	r3, [r4, #4]	@ _46, MEM[(struct FSMC_Bank1_TypeDef *)_34 + 4B]
 406              		.loc 1 232 3 is_stmt 1 view .LVU105
 407              	@ .\stlib\STM32F10x_StdPeriph_Driver\src\stm32f10x_fsmc.c:232:   if(FSMC_NORSRAMInitStruct->FSMC_Ex
 408              		.loc 1 232 5 is_stmt 0 view .LVU106
 409 00ee 12D1     		bne	.L15		@,
 233:.\stlib\STM32F10x_StdPeriph_Driver\src/stm32f10x_fsmc.c ****   {
 234:.\stlib\STM32F10x_StdPeriph_Driver\src/stm32f10x_fsmc.c ****     assert_param(IS_FSMC_ADDRESS_SETUP_TIME(FSMC_NORSRAMInitStruct->FSMC_WriteTimingStruct->FSMC_Ad
 410              		.loc 1 234 5 is_stmt 1 view .LVU107
 235:.\stlib\STM32F10x_StdPeriph_Driver\src/stm32f10x_fsmc.c ****     assert_param(IS_FSMC_ADDRESS_HOLD_TIME(FSMC_NORSRAMInitStruct->FSMC_WriteTimingStruct->FSMC_Add
 411              		.loc 1 235 5 view .LVU108
 236:.\stlib\STM32F10x_StdPeriph_Driver\src/stm32f10x_fsmc.c ****     assert_param(IS_FSMC_DATASETUP_TIME(FSMC_NORSRAMInitStruct->FSMC_WriteTimingStruct->FSMC_DataSe
 412              		.loc 1 236 5 view .LVU109
 237:.\stlib\STM32F10x_StdPeriph_Driver\src/stm32f10x_fsmc.c ****     assert_param(IS_FSMC_CLK_DIV(FSMC_NORSRAMInitStruct->FSMC_WriteTimingStruct->FSMC_CLKDivision))
ARM GAS  C:\Users\skey\AppData\Local\Temp\ccFDdSGQ.s 			page 13


 413              		.loc 1 237 5 view .LVU110
 238:.\stlib\STM32F10x_StdPeriph_Driver\src/stm32f10x_fsmc.c ****     assert_param(IS_FSMC_DATA_LATENCY(FSMC_NORSRAMInitStruct->FSMC_WriteTimingStruct->FSMC_DataLate
 414              		.loc 1 238 5 view .LVU111
 239:.\stlib\STM32F10x_StdPeriph_Driver\src/stm32f10x_fsmc.c ****     assert_param(IS_FSMC_ACCESS_MODE(FSMC_NORSRAMInitStruct->FSMC_WriteTimingStruct->FSMC_AccessMod
 415              		.loc 1 239 5 view .LVU112
 240:.\stlib\STM32F10x_StdPeriph_Driver\src/stm32f10x_fsmc.c ****     FSMC_Bank1E->BWTR[FSMC_NORSRAMInitStruct->FSMC_Bank] = 
 416              		.loc 1 240 5 view .LVU113
 417              	@ .\stlib\STM32F10x_StdPeriph_Driver\src\stm32f10x_fsmc.c:241:               (uint32_t)FSMC_NORSRAM
 241:.\stlib\STM32F10x_StdPeriph_Driver\src/stm32f10x_fsmc.c ****               (uint32_t)FSMC_NORSRAMInitStruct->FSMC_WriteTimingStruct->FSMC_AddressSetupTime |
 418              		.loc 1 241 47 is_stmt 0 view .LVU114
 419 00f0 826B     		ldr	r2, [r0, #56]	@ _47, FSMC_NORSRAMInitStruct_66(D)->FSMC_WriteTimingStruct
 420              	@ .\stlib\STM32F10x_StdPeriph_Driver\src\stm32f10x_fsmc.c:245:               (FSMC_NORSRAMInitStruc
 242:.\stlib\STM32F10x_StdPeriph_Driver\src/stm32f10x_fsmc.c ****               (FSMC_NORSRAMInitStruct->FSMC_WriteTimingStruct->FSMC_AddressHoldTime << 4 )|
 243:.\stlib\STM32F10x_StdPeriph_Driver\src/stm32f10x_fsmc.c ****               (FSMC_NORSRAMInitStruct->FSMC_WriteTimingStruct->FSMC_DataSetupTime << 8) |
 244:.\stlib\STM32F10x_StdPeriph_Driver\src/stm32f10x_fsmc.c ****               (FSMC_NORSRAMInitStruct->FSMC_WriteTimingStruct->FSMC_CLKDivision << 20) |
 245:.\stlib\STM32F10x_StdPeriph_Driver\src/stm32f10x_fsmc.c ****               (FSMC_NORSRAMInitStruct->FSMC_WriteTimingStruct->FSMC_DataLatency << 24) |
 421              		.loc 1 245 88 view .LVU115
 422 00f2 9169     		ldr	r1, [r2, #24]	@ _47->FSMC_AccessMode, _47->FSMC_AccessMode
 423 00f4 1368     		ldr	r3, [r2]	@ _47->FSMC_AddressSetupTime, _47->FSMC_AddressSetupTime
 424 00f6 0B43     		orrs	r3, r3, r1	@, tmp214, _47->FSMC_AddressSetupTime, _47->FSMC_AccessMode
 425              	@ .\stlib\STM32F10x_StdPeriph_Driver\src\stm32f10x_fsmc.c:242:               (FSMC_NORSRAMInitStruc
 242:.\stlib\STM32F10x_StdPeriph_Driver\src/stm32f10x_fsmc.c ****               (FSMC_NORSRAMInitStruct->FSMC_WriteTimingStruct->FSMC_AddressHoldTime << 4 )|
 426              		.loc 1 242 85 view .LVU116
 427 00f8 5168     		ldr	r1, [r2, #4]	@ _47->FSMC_AddressHoldTime, _47->FSMC_AddressHoldTime
 428              	@ .\stlib\STM32F10x_StdPeriph_Driver\src\stm32f10x_fsmc.c:245:               (FSMC_NORSRAMInitStruc
 429              		.loc 1 245 88 view .LVU117
 430 00fa 43EA0113 		orr	r3, r3, r1, lsl #4	@ tmp219, tmp214, _47->FSMC_AddressHoldTime,
 431              	@ .\stlib\STM32F10x_StdPeriph_Driver\src\stm32f10x_fsmc.c:243:               (FSMC_NORSRAMInitStruc
 243:.\stlib\STM32F10x_StdPeriph_Driver\src/stm32f10x_fsmc.c ****               (FSMC_NORSRAMInitStruct->FSMC_WriteTimingStruct->FSMC_CLKDivision << 20) |
 432              		.loc 1 243 83 view .LVU118
 433 00fe 9168     		ldr	r1, [r2, #8]	@ _47->FSMC_DataSetupTime, _47->FSMC_DataSetupTime
 434              	@ .\stlib\STM32F10x_StdPeriph_Driver\src\stm32f10x_fsmc.c:245:               (FSMC_NORSRAMInitStruc
 435              		.loc 1 245 88 view .LVU119
 436 0100 43EA0123 		orr	r3, r3, r1, lsl #8	@ tmp222, tmp219, _47->FSMC_DataSetupTime,
 437              	@ .\stlib\STM32F10x_StdPeriph_Driver\src\stm32f10x_fsmc.c:244:               (FSMC_NORSRAMInitStruc
 244:.\stlib\STM32F10x_StdPeriph_Driver\src/stm32f10x_fsmc.c ****               (FSMC_NORSRAMInitStruct->FSMC_WriteTimingStruct->FSMC_DataLatency << 24) |
 438              		.loc 1 244 81 view .LVU120
 439 0104 1169     		ldr	r1, [r2, #16]	@ _47->FSMC_CLKDivision, _47->FSMC_CLKDivision
 440              	@ .\stlib\STM32F10x_StdPeriph_Driver\src\stm32f10x_fsmc.c:245:               (FSMC_NORSRAMInitStruc
 441              		.loc 1 245 81 view .LVU121
 442 0106 5269     		ldr	r2, [r2, #20]	@ _47->FSMC_DataLatency, _47->FSMC_DataLatency
 443              	@ .\stlib\STM32F10x_StdPeriph_Driver\src\stm32f10x_fsmc.c:245:               (FSMC_NORSRAMInitStruc
 444              		.loc 1 245 88 view .LVU122
 445 0108 43EA0153 		orr	r3, r3, r1, lsl #20	@ tmp225, tmp222, _47->FSMC_CLKDivision,
 446 010c 43EA0263 		orr	r3, r3, r2, lsl #24	@ _62, tmp225, _47->FSMC_DataLatency,
 447              	.L17:
 448              	@ .\stlib\STM32F10x_StdPeriph_Driver\src\stm32f10x_fsmc.c:250:     FSMC_Bank1E->BWTR[FSMC_NORSRAMIn
 246:.\stlib\STM32F10x_StdPeriph_Driver\src/stm32f10x_fsmc.c ****                FSMC_NORSRAMInitStruct->FSMC_WriteTimingStruct->FSMC_AccessMode;
 247:.\stlib\STM32F10x_StdPeriph_Driver\src/stm32f10x_fsmc.c ****   }
 248:.\stlib\STM32F10x_StdPeriph_Driver\src/stm32f10x_fsmc.c ****   else
 249:.\stlib\STM32F10x_StdPeriph_Driver\src/stm32f10x_fsmc.c ****   {
 250:.\stlib\STM32F10x_StdPeriph_Driver\src/stm32f10x_fsmc.c ****     FSMC_Bank1E->BWTR[FSMC_NORSRAMInitStruct->FSMC_Bank] = 0x0FFFFFFF;
 449              		.loc 1 250 58 view .LVU123
 450 0110 C4F80431 		str	r3, [r4, #260]	@ tmp230,
 451              	@ .\stlib\STM32F10x_StdPeriph_Driver\src\stm32f10x_fsmc.c:252: }
 251:.\stlib\STM32F10x_StdPeriph_Driver\src/stm32f10x_fsmc.c ****   }
 252:.\stlib\STM32F10x_StdPeriph_Driver\src/stm32f10x_fsmc.c **** }
ARM GAS  C:\Users\skey\AppData\Local\Temp\ccFDdSGQ.s 			page 14


 452              		.loc 1 252 1 view .LVU124
 453 0114 30BD     		pop	{r4, r5, pc}	@
 454              	.L15:
 250:.\stlib\STM32F10x_StdPeriph_Driver\src/stm32f10x_fsmc.c ****   }
 455              		.loc 1 250 5 is_stmt 1 view .LVU125
 456              	@ .\stlib\STM32F10x_StdPeriph_Driver\src\stm32f10x_fsmc.c:250:     FSMC_Bank1E->BWTR[FSMC_NORSRAMIn
 250:.\stlib\STM32F10x_StdPeriph_Driver\src/stm32f10x_fsmc.c ****   }
 457              		.loc 1 250 58 is_stmt 0 view .LVU126
 458 0116 6FF07043 		mvn	r3, #-268435456	@ tmp230,
 459 011a F9E7     		b	.L17		@
 460              		.cfi_endproc
 461              	.LFE32:
 462              		.size	FSMC_NORSRAMInit, .-FSMC_NORSRAMInit
 463              		.align	1
 464              		.global	FSMC_NANDInit
 465              		.syntax unified
 466              		.thumb
 467              		.thumb_func
 468              		.fpu softvfp
 469              		.type	FSMC_NANDInit, %function
 470              	FSMC_NANDInit:
 471              	.LVL5:
 472              	.LFB33:
 253:.\stlib\STM32F10x_StdPeriph_Driver\src/stm32f10x_fsmc.c **** 
 254:.\stlib\STM32F10x_StdPeriph_Driver\src/stm32f10x_fsmc.c **** /**
 255:.\stlib\STM32F10x_StdPeriph_Driver\src/stm32f10x_fsmc.c ****   * @brief  Initializes the FSMC NAND Banks according to the specified 
 256:.\stlib\STM32F10x_StdPeriph_Driver\src/stm32f10x_fsmc.c ****   *         parameters in the FSMC_NANDInitStruct.
 257:.\stlib\STM32F10x_StdPeriph_Driver\src/stm32f10x_fsmc.c ****   * @param  FSMC_NANDInitStruct : pointer to a FSMC_NANDInitTypeDef 
 258:.\stlib\STM32F10x_StdPeriph_Driver\src/stm32f10x_fsmc.c ****   *         structure that contains the configuration information for the FSMC 
 259:.\stlib\STM32F10x_StdPeriph_Driver\src/stm32f10x_fsmc.c ****   *         NAND specified Banks.                       
 260:.\stlib\STM32F10x_StdPeriph_Driver\src/stm32f10x_fsmc.c ****   * @retval None
 261:.\stlib\STM32F10x_StdPeriph_Driver\src/stm32f10x_fsmc.c ****   */
 262:.\stlib\STM32F10x_StdPeriph_Driver\src/stm32f10x_fsmc.c **** void FSMC_NANDInit(FSMC_NANDInitTypeDef* FSMC_NANDInitStruct)
 263:.\stlib\STM32F10x_StdPeriph_Driver\src/stm32f10x_fsmc.c **** {
 473              		.loc 1 263 1 is_stmt 1 view -0
 474              		.cfi_startproc
 475              		@ args = 0, pretend = 0, frame = 0
 476              		@ frame_needed = 0, uses_anonymous_args = 0
 264:.\stlib\STM32F10x_StdPeriph_Driver\src/stm32f10x_fsmc.c ****   uint32_t tmppcr = 0x00000000, tmppmem = 0x00000000, tmppatt = 0x00000000; 
 477              		.loc 1 264 3 view .LVU128
 265:.\stlib\STM32F10x_StdPeriph_Driver\src/stm32f10x_fsmc.c ****     
 266:.\stlib\STM32F10x_StdPeriph_Driver\src/stm32f10x_fsmc.c ****   /* Check the parameters */
 267:.\stlib\STM32F10x_StdPeriph_Driver\src/stm32f10x_fsmc.c ****   assert_param( IS_FSMC_NAND_BANK(FSMC_NANDInitStruct->FSMC_Bank));
 478              		.loc 1 267 3 view .LVU129
 268:.\stlib\STM32F10x_StdPeriph_Driver\src/stm32f10x_fsmc.c ****   assert_param( IS_FSMC_WAIT_FEATURE(FSMC_NANDInitStruct->FSMC_Waitfeature));
 479              		.loc 1 268 3 view .LVU130
 269:.\stlib\STM32F10x_StdPeriph_Driver\src/stm32f10x_fsmc.c ****   assert_param( IS_FSMC_MEMORY_WIDTH(FSMC_NANDInitStruct->FSMC_MemoryDataWidth));
 480              		.loc 1 269 3 view .LVU131
 270:.\stlib\STM32F10x_StdPeriph_Driver\src/stm32f10x_fsmc.c ****   assert_param( IS_FSMC_ECC_STATE(FSMC_NANDInitStruct->FSMC_ECC));
 481              		.loc 1 270 3 view .LVU132
 271:.\stlib\STM32F10x_StdPeriph_Driver\src/stm32f10x_fsmc.c ****   assert_param( IS_FSMC_ECCPAGE_SIZE(FSMC_NANDInitStruct->FSMC_ECCPageSize));
 482              		.loc 1 271 3 view .LVU133
 272:.\stlib\STM32F10x_StdPeriph_Driver\src/stm32f10x_fsmc.c ****   assert_param( IS_FSMC_TCLR_TIME(FSMC_NANDInitStruct->FSMC_TCLRSetupTime));
 483              		.loc 1 272 3 view .LVU134
 273:.\stlib\STM32F10x_StdPeriph_Driver\src/stm32f10x_fsmc.c ****   assert_param( IS_FSMC_TAR_TIME(FSMC_NANDInitStruct->FSMC_TARSetupTime));
 484              		.loc 1 273 3 view .LVU135
 274:.\stlib\STM32F10x_StdPeriph_Driver\src/stm32f10x_fsmc.c ****   assert_param(IS_FSMC_SETUP_TIME(FSMC_NANDInitStruct->FSMC_CommonSpaceTimingStruct->FSMC_SetupTime
ARM GAS  C:\Users\skey\AppData\Local\Temp\ccFDdSGQ.s 			page 15


 485              		.loc 1 274 3 view .LVU136
 275:.\stlib\STM32F10x_StdPeriph_Driver\src/stm32f10x_fsmc.c ****   assert_param(IS_FSMC_WAIT_TIME(FSMC_NANDInitStruct->FSMC_CommonSpaceTimingStruct->FSMC_WaitSetupT
 486              		.loc 1 275 3 view .LVU137
 276:.\stlib\STM32F10x_StdPeriph_Driver\src/stm32f10x_fsmc.c ****   assert_param(IS_FSMC_HOLD_TIME(FSMC_NANDInitStruct->FSMC_CommonSpaceTimingStruct->FSMC_HoldSetupT
 487              		.loc 1 276 3 view .LVU138
 277:.\stlib\STM32F10x_StdPeriph_Driver\src/stm32f10x_fsmc.c ****   assert_param(IS_FSMC_HIZ_TIME(FSMC_NANDInitStruct->FSMC_CommonSpaceTimingStruct->FSMC_HiZSetupTim
 488              		.loc 1 277 3 view .LVU139
 278:.\stlib\STM32F10x_StdPeriph_Driver\src/stm32f10x_fsmc.c ****   assert_param(IS_FSMC_SETUP_TIME(FSMC_NANDInitStruct->FSMC_AttributeSpaceTimingStruct->FSMC_SetupT
 489              		.loc 1 278 3 view .LVU140
 279:.\stlib\STM32F10x_StdPeriph_Driver\src/stm32f10x_fsmc.c ****   assert_param(IS_FSMC_WAIT_TIME(FSMC_NANDInitStruct->FSMC_AttributeSpaceTimingStruct->FSMC_WaitSet
 490              		.loc 1 279 3 view .LVU141
 280:.\stlib\STM32F10x_StdPeriph_Driver\src/stm32f10x_fsmc.c ****   assert_param(IS_FSMC_HOLD_TIME(FSMC_NANDInitStruct->FSMC_AttributeSpaceTimingStruct->FSMC_HoldSet
 491              		.loc 1 280 3 view .LVU142
 281:.\stlib\STM32F10x_StdPeriph_Driver\src/stm32f10x_fsmc.c ****   assert_param(IS_FSMC_HIZ_TIME(FSMC_NANDInitStruct->FSMC_AttributeSpaceTimingStruct->FSMC_HiZSetup
 492              		.loc 1 281 3 view .LVU143
 282:.\stlib\STM32F10x_StdPeriph_Driver\src/stm32f10x_fsmc.c ****   
 283:.\stlib\STM32F10x_StdPeriph_Driver\src/stm32f10x_fsmc.c ****   /* Set the tmppcr value according to FSMC_NANDInitStruct parameters */
 284:.\stlib\STM32F10x_StdPeriph_Driver\src/stm32f10x_fsmc.c ****   tmppcr = (uint32_t)FSMC_NANDInitStruct->FSMC_Waitfeature |
 493              		.loc 1 284 3 view .LVU144
 494              	@ .\stlib\STM32F10x_StdPeriph_Driver\src\stm32f10x_fsmc.c:285:             PCR_MemoryType_NAND |
 285:.\stlib\STM32F10x_StdPeriph_Driver\src/stm32f10x_fsmc.c ****             PCR_MemoryType_NAND |
 495              		.loc 1 285 33 is_stmt 0 view .LVU145
 496 011c D0E90132 		ldrd	r3, r2, [r0, #4]	@ FSMC_NANDInitStruct_37(D)->FSMC_Waitfeature, FSMC_NANDInitStruct_37(D)->FS
 497 0120 1343     		orrs	r3, r3, r2	@, tmp148, FSMC_NANDInitStruct_37(D)->FSMC_Waitfeature, FSMC_NANDInitStruct_37(D)-
 498              	@ .\stlib\STM32F10x_StdPeriph_Driver\src\stm32f10x_fsmc.c:290:             (FSMC_NANDInitStruct->FS
 286:.\stlib\STM32F10x_StdPeriph_Driver\src/stm32f10x_fsmc.c ****             FSMC_NANDInitStruct->FSMC_MemoryDataWidth |
 287:.\stlib\STM32F10x_StdPeriph_Driver\src/stm32f10x_fsmc.c ****             FSMC_NANDInitStruct->FSMC_ECC |
 288:.\stlib\STM32F10x_StdPeriph_Driver\src/stm32f10x_fsmc.c ****             FSMC_NANDInitStruct->FSMC_ECCPageSize |
 289:.\stlib\STM32F10x_StdPeriph_Driver\src/stm32f10x_fsmc.c ****             (FSMC_NANDInitStruct->FSMC_TCLRSetupTime << 9 )|
 290:.\stlib\STM32F10x_StdPeriph_Driver\src/stm32f10x_fsmc.c ****             (FSMC_NANDInitStruct->FSMC_TARSetupTime << 13);
 499              		.loc 1 290 53 view .LVU146
 500 0122 8269     		ldr	r2, [r0, #24]	@ FSMC_NANDInitStruct_37(D)->FSMC_TARSetupTime, FSMC_NANDInitStruct_37(D)->FSMC_
 501              	@ .\stlib\STM32F10x_StdPeriph_Driver\src\stm32f10x_fsmc.c:263: {
 263:.\stlib\STM32F10x_StdPeriph_Driver\src/stm32f10x_fsmc.c ****   uint32_t tmppcr = 0x00000000, tmppmem = 0x00000000, tmppatt = 0x00000000; 
 502              		.loc 1 263 1 view .LVU147
 503 0124 30B5     		push	{r4, r5, lr}	@
 504              	.LCFI1:
 505              		.cfi_def_cfa_offset 12
 506              		.cfi_offset 4, -12
 507              		.cfi_offset 5, -8
 508              		.cfi_offset 14, -4
 509              	@ .\stlib\STM32F10x_StdPeriph_Driver\src\stm32f10x_fsmc.c:289:             (FSMC_NANDInitStruct->FS
 289:.\stlib\STM32F10x_StdPeriph_Driver\src/stm32f10x_fsmc.c ****             (FSMC_NANDInitStruct->FSMC_TARSetupTime << 13);
 510              		.loc 1 289 60 view .LVU148
 511 0126 43EA4233 		orr	r3, r3, r2, lsl #13	@ tmp153, tmp148, FSMC_NANDInitStruct_37(D)->FSMC_TARSetupTime,
 512 012a C268     		ldr	r2, [r0, #12]	@ FSMC_NANDInitStruct_37(D)->FSMC_ECC, FSMC_NANDInitStruct_37(D)->FSMC_ECC
 513              	@ .\stlib\STM32F10x_StdPeriph_Driver\src\stm32f10x_fsmc.c:293:   tmppmem = (uint32_t)FSMC_NANDInitS
 291:.\stlib\STM32F10x_StdPeriph_Driver\src/stm32f10x_fsmc.c ****             
 292:.\stlib\STM32F10x_StdPeriph_Driver\src/stm32f10x_fsmc.c ****   /* Set tmppmem value according to FSMC_CommonSpaceTimingStructure parameters */
 293:.\stlib\STM32F10x_StdPeriph_Driver\src/stm32f10x_fsmc.c ****   tmppmem = (uint32_t)FSMC_NANDInitStruct->FSMC_CommonSpaceTimingStruct->FSMC_SetupTime |
 514              		.loc 1 293 42 view .LVU149
 515 012c C469     		ldr	r4, [r0, #28]	@ _14, FSMC_NANDInitStruct_37(D)->FSMC_CommonSpaceTimingStruct
 516              	@ .\stlib\STM32F10x_StdPeriph_Driver\src\stm32f10x_fsmc.c:289:             (FSMC_NANDInitStruct->FS
 289:.\stlib\STM32F10x_StdPeriph_Driver\src/stm32f10x_fsmc.c ****             (FSMC_NANDInitStruct->FSMC_TARSetupTime << 13);
 517              		.loc 1 289 60 view .LVU150
 518 012e 1343     		orrs	r3, r3, r2	@, tmp154, tmp153, FSMC_NANDInitStruct_37(D)->FSMC_ECC
 519 0130 0269     		ldr	r2, [r0, #16]	@ FSMC_NANDInitStruct_37(D)->FSMC_ECCPageSize, FSMC_NANDInitStruct_37(D)->FSMC_E
ARM GAS  C:\Users\skey\AppData\Local\Temp\ccFDdSGQ.s 			page 16


 520 0132 1343     		orrs	r3, r3, r2	@, tmp156, tmp154, FSMC_NANDInitStruct_37(D)->FSMC_ECCPageSize
 521              	@ .\stlib\STM32F10x_StdPeriph_Driver\src\stm32f10x_fsmc.c:289:             (FSMC_NANDInitStruct->FS
 289:.\stlib\STM32F10x_StdPeriph_Driver\src/stm32f10x_fsmc.c ****             (FSMC_NANDInitStruct->FSMC_TARSetupTime << 13);
 522              		.loc 1 289 54 view .LVU151
 523 0134 4269     		ldr	r2, [r0, #20]	@ FSMC_NANDInitStruct_37(D)->FSMC_TCLRSetupTime, FSMC_NANDInitStruct_37(D)->FSMC
 524              	@ .\stlib\STM32F10x_StdPeriph_Driver\src\stm32f10x_fsmc.c:289:             (FSMC_NANDInitStruct->FS
 289:.\stlib\STM32F10x_StdPeriph_Driver\src/stm32f10x_fsmc.c ****             (FSMC_NANDInitStruct->FSMC_TARSetupTime << 13);
 525              		.loc 1 289 60 view .LVU152
 526 0136 43EA4223 		orr	r3, r3, r2, lsl #9	@ tmp160, tmp156, FSMC_NANDInitStruct_37(D)->FSMC_TCLRSetupTime,
 527              	@ .\stlib\STM32F10x_StdPeriph_Driver\src\stm32f10x_fsmc.c:295:             (FSMC_NANDInitStruct->FS
 294:.\stlib\STM32F10x_StdPeriph_Driver\src/stm32f10x_fsmc.c ****             (FSMC_NANDInitStruct->FSMC_CommonSpaceTimingStruct->FSMC_WaitSetupTime << 8) |
 295:.\stlib\STM32F10x_StdPeriph_Driver\src/stm32f10x_fsmc.c ****             (FSMC_NANDInitStruct->FSMC_CommonSpaceTimingStruct->FSMC_HoldSetupTime << 16)|
 528              		.loc 1 295 84 view .LVU153
 529 013a D4E90152 		ldrd	r5, r2, [r4, #4]	@ _14->FSMC_WaitSetupTime, _14->FSMC_HoldSetupTime, _14,
 530 013e 1104     		lsls	r1, r2, #16	@ tmp163, _14->FSMC_HoldSetupTime,
 531              	@ .\stlib\STM32F10x_StdPeriph_Driver\src\stm32f10x_fsmc.c:294:             (FSMC_NANDInitStruct->FS
 294:.\stlib\STM32F10x_StdPeriph_Driver\src/stm32f10x_fsmc.c ****             (FSMC_NANDInitStruct->FSMC_CommonSpaceTimingStruct->FSMC_WaitSetupTime << 8) |
 532              		.loc 1 294 90 view .LVU154
 533 0140 2268     		ldr	r2, [r4]	@ _14->FSMC_SetupTime, _14->FSMC_SetupTime
 534 0142 41EA0521 		orr	r1, r1, r5, lsl #8	@ tmp165, tmp163, _14->FSMC_WaitSetupTime,
 535 0146 1143     		orrs	r1, r1, r2	@, tmp166, tmp165, _14->FSMC_SetupTime
 536              	@ .\stlib\STM32F10x_StdPeriph_Driver\src\stm32f10x_fsmc.c:296:             (FSMC_NANDInitStruct->FS
 296:.\stlib\STM32F10x_StdPeriph_Driver\src/stm32f10x_fsmc.c ****             (FSMC_NANDInitStruct->FSMC_CommonSpaceTimingStruct->FSMC_HiZSetupTime << 24); 
 537              		.loc 1 296 83 view .LVU155
 538 0148 E268     		ldr	r2, [r4, #12]	@ _14->FSMC_HiZSetupTime, _14->FSMC_HiZSetupTime
 539              	@ .\stlib\STM32F10x_StdPeriph_Driver\src\stm32f10x_fsmc.c:299:   tmppatt = (uint32_t)FSMC_NANDInitS
 297:.\stlib\STM32F10x_StdPeriph_Driver\src/stm32f10x_fsmc.c ****             
 298:.\stlib\STM32F10x_StdPeriph_Driver\src/stm32f10x_fsmc.c ****   /* Set tmppatt value according to FSMC_AttributeSpaceTimingStructure parameters */
 299:.\stlib\STM32F10x_StdPeriph_Driver\src/stm32f10x_fsmc.c ****   tmppatt = (uint32_t)FSMC_NANDInitStruct->FSMC_AttributeSpaceTimingStruct->FSMC_SetupTime |
 540              		.loc 1 299 42 view .LVU156
 541 014a 046A     		ldr	r4, [r0, #32]	@ _24, FSMC_NANDInitStruct_37(D)->FSMC_AttributeSpaceTimingStruct
 542              	@ .\stlib\STM32F10x_StdPeriph_Driver\src\stm32f10x_fsmc.c:293:   tmppmem = (uint32_t)FSMC_NANDInitS
 293:.\stlib\STM32F10x_StdPeriph_Driver\src/stm32f10x_fsmc.c ****             (FSMC_NANDInitStruct->FSMC_CommonSpaceTimingStruct->FSMC_WaitSetupTime << 8) |
 543              		.loc 1 293 11 view .LVU157
 544 014c 41EA0261 		orr	r1, r1, r2, lsl #24	@ tmppmem, tmp166, _14->FSMC_HiZSetupTime,
 545              	@ .\stlib\STM32F10x_StdPeriph_Driver\src\stm32f10x_fsmc.c:304:   if(FSMC_NANDInitStruct->FSMC_Bank 
 300:.\stlib\STM32F10x_StdPeriph_Driver\src/stm32f10x_fsmc.c ****             (FSMC_NANDInitStruct->FSMC_AttributeSpaceTimingStruct->FSMC_WaitSetupTime << 8) |
 301:.\stlib\STM32F10x_StdPeriph_Driver\src/stm32f10x_fsmc.c ****             (FSMC_NANDInitStruct->FSMC_AttributeSpaceTimingStruct->FSMC_HoldSetupTime << 16)|
 302:.\stlib\STM32F10x_StdPeriph_Driver\src/stm32f10x_fsmc.c ****             (FSMC_NANDInitStruct->FSMC_AttributeSpaceTimingStruct->FSMC_HiZSetupTime << 24);
 303:.\stlib\STM32F10x_StdPeriph_Driver\src/stm32f10x_fsmc.c ****   
 304:.\stlib\STM32F10x_StdPeriph_Driver\src/stm32f10x_fsmc.c ****   if(FSMC_NANDInitStruct->FSMC_Bank == FSMC_Bank2_NAND)
 546              		.loc 1 304 5 view .LVU158
 547 0150 0068     		ldr	r0, [r0]	@ FSMC_NANDInitStruct_37(D)->FSMC_Bank, FSMC_NANDInitStruct_37(D)->FSMC_Bank
 548              	.LVL6:
 549              	@ .\stlib\STM32F10x_StdPeriph_Driver\src\stm32f10x_fsmc.c:301:             (FSMC_NANDInitStruct->FS
 301:.\stlib\STM32F10x_StdPeriph_Driver\src/stm32f10x_fsmc.c ****             (FSMC_NANDInitStruct->FSMC_AttributeSpaceTimingStruct->FSMC_HiZSetupTime << 24);
 550              		.loc 1 301 87 view .LVU159
 551 0152 D4E90152 		ldrd	r5, r2, [r4, #4]	@ _24->FSMC_WaitSetupTime, _24->FSMC_HoldSetupTime, _24,
 552 0156 1204     		lsls	r2, r2, #16	@ tmp172, _24->FSMC_HoldSetupTime,
 553              	@ .\stlib\STM32F10x_StdPeriph_Driver\src\stm32f10x_fsmc.c:300:             (FSMC_NANDInitStruct->FS
 300:.\stlib\STM32F10x_StdPeriph_Driver\src/stm32f10x_fsmc.c ****             (FSMC_NANDInitStruct->FSMC_AttributeSpaceTimingStruct->FSMC_WaitSetupTime << 8) |
 554              		.loc 1 300 93 view .LVU160
 555 0158 42EA0522 		orr	r2, r2, r5, lsl #8	@ tmp174, tmp172, _24->FSMC_WaitSetupTime,
 556 015c 2568     		ldr	r5, [r4]	@ _24->FSMC_SetupTime, _24->FSMC_SetupTime
 557              	@ .\stlib\STM32F10x_StdPeriph_Driver\src\stm32f10x_fsmc.c:304:   if(FSMC_NANDInitStruct->FSMC_Bank 
 558              		.loc 1 304 5 view .LVU161
 559 015e 1028     		cmp	r0, #16	@ FSMC_NANDInitStruct_37(D)->FSMC_Bank,
ARM GAS  C:\Users\skey\AppData\Local\Temp\ccFDdSGQ.s 			page 17


 560              	@ .\stlib\STM32F10x_StdPeriph_Driver\src\stm32f10x_fsmc.c:302:             (FSMC_NANDInitStruct->FS
 302:.\stlib\STM32F10x_StdPeriph_Driver\src/stm32f10x_fsmc.c ****   
 561              		.loc 1 302 86 view .LVU162
 562 0160 E468     		ldr	r4, [r4, #12]	@ _24->FSMC_HiZSetupTime, _24->FSMC_HiZSetupTime
 563              	@ .\stlib\STM32F10x_StdPeriph_Driver\src\stm32f10x_fsmc.c:307:     FSMC_Bank2->PCR2 = tmppcr;
 305:.\stlib\STM32F10x_StdPeriph_Driver\src/stm32f10x_fsmc.c ****   {
 306:.\stlib\STM32F10x_StdPeriph_Driver\src/stm32f10x_fsmc.c ****     /* FSMC_Bank2_NAND registers configuration */
 307:.\stlib\STM32F10x_StdPeriph_Driver\src/stm32f10x_fsmc.c ****     FSMC_Bank2->PCR2 = tmppcr;
 564              		.loc 1 307 22 view .LVU163
 565 0162 0CBF     		ite	eq
 566 0164 0548     		ldreq	r0, .L22	@ tmp180,
 567              	@ .\stlib\STM32F10x_StdPeriph_Driver\src\stm32f10x_fsmc.c:314:     FSMC_Bank3->PCR3 = tmppcr;
 308:.\stlib\STM32F10x_StdPeriph_Driver\src/stm32f10x_fsmc.c ****     FSMC_Bank2->PMEM2 = tmppmem;
 309:.\stlib\STM32F10x_StdPeriph_Driver\src/stm32f10x_fsmc.c ****     FSMC_Bank2->PATT2 = tmppatt;
 310:.\stlib\STM32F10x_StdPeriph_Driver\src/stm32f10x_fsmc.c ****   }
 311:.\stlib\STM32F10x_StdPeriph_Driver\src/stm32f10x_fsmc.c ****   else
 312:.\stlib\STM32F10x_StdPeriph_Driver\src/stm32f10x_fsmc.c ****   {
 313:.\stlib\STM32F10x_StdPeriph_Driver\src/stm32f10x_fsmc.c ****     /* FSMC_Bank3_NAND registers configuration */
 314:.\stlib\STM32F10x_StdPeriph_Driver\src/stm32f10x_fsmc.c ****     FSMC_Bank3->PCR3 = tmppcr;
 568              		.loc 1 314 22 view .LVU164
 569 0166 0648     		ldrne	r0, .L22+4	@ tmp183,
 570              	@ .\stlib\STM32F10x_StdPeriph_Driver\src\stm32f10x_fsmc.c:300:             (FSMC_NANDInitStruct->FS
 300:.\stlib\STM32F10x_StdPeriph_Driver\src/stm32f10x_fsmc.c ****             (FSMC_NANDInitStruct->FSMC_AttributeSpaceTimingStruct->FSMC_HoldSetupTime << 16)|
 571              		.loc 1 300 93 view .LVU165
 572 0168 2A43     		orrs	r2, r2, r5	@, tmp175, tmp174, _24->FSMC_SetupTime
 573              	@ .\stlib\STM32F10x_StdPeriph_Driver\src\stm32f10x_fsmc.c:284:   tmppcr = (uint32_t)FSMC_NANDInitSt
 284:.\stlib\STM32F10x_StdPeriph_Driver\src/stm32f10x_fsmc.c ****             PCR_MemoryType_NAND |
 574              		.loc 1 284 10 view .LVU166
 575 016a 43F00803 		orr	r3, r3, #8	@ tmppcr, tmp160,
 576              	.LVL7:
 293:.\stlib\STM32F10x_StdPeriph_Driver\src/stm32f10x_fsmc.c ****             (FSMC_NANDInitStruct->FSMC_CommonSpaceTimingStruct->FSMC_WaitSetupTime << 8) |
 577              		.loc 1 293 3 is_stmt 1 view .LVU167
 299:.\stlib\STM32F10x_StdPeriph_Driver\src/stm32f10x_fsmc.c ****             (FSMC_NANDInitStruct->FSMC_AttributeSpaceTimingStruct->FSMC_WaitSetupTime << 8) |
 578              		.loc 1 299 3 view .LVU168
 579              	@ .\stlib\STM32F10x_StdPeriph_Driver\src\stm32f10x_fsmc.c:299:   tmppatt = (uint32_t)FSMC_NANDInitS
 299:.\stlib\STM32F10x_StdPeriph_Driver\src/stm32f10x_fsmc.c ****             (FSMC_NANDInitStruct->FSMC_AttributeSpaceTimingStruct->FSMC_WaitSetupTime << 8) |
 580              		.loc 1 299 11 is_stmt 0 view .LVU169
 581 016e 42EA0462 		orr	r2, r2, r4, lsl #24	@ tmppatt, tmp175, _24->FSMC_HiZSetupTime,
 582              	.LVL8:
 304:.\stlib\STM32F10x_StdPeriph_Driver\src/stm32f10x_fsmc.c ****   {
 583              		.loc 1 304 3 is_stmt 1 view .LVU170
 307:.\stlib\STM32F10x_StdPeriph_Driver\src/stm32f10x_fsmc.c ****     FSMC_Bank2->PMEM2 = tmppmem;
 584              		.loc 1 307 5 view .LVU171
 585              		.loc 1 314 5 view .LVU172
 586              	@ .\stlib\STM32F10x_StdPeriph_Driver\src\stm32f10x_fsmc.c:314:     FSMC_Bank3->PCR3 = tmppcr;
 587              		.loc 1 314 22 is_stmt 0 view .LVU173
 588 0172 0360     		str	r3, [r0]	@ tmppcr,
 315:.\stlib\STM32F10x_StdPeriph_Driver\src/stm32f10x_fsmc.c ****     FSMC_Bank3->PMEM3 = tmppmem;
 589              		.loc 1 315 5 is_stmt 1 view .LVU174
 590              	@ .\stlib\STM32F10x_StdPeriph_Driver\src\stm32f10x_fsmc.c:315:     FSMC_Bank3->PMEM3 = tmppmem;
 591              		.loc 1 315 23 is_stmt 0 view .LVU175
 592 0174 8160     		str	r1, [r0, #8]	@ tmppmem,
 316:.\stlib\STM32F10x_StdPeriph_Driver\src/stm32f10x_fsmc.c ****     FSMC_Bank3->PATT3 = tmppatt;
 593              		.loc 1 316 5 is_stmt 1 view .LVU176
 594              	@ .\stlib\STM32F10x_StdPeriph_Driver\src\stm32f10x_fsmc.c:316:     FSMC_Bank3->PATT3 = tmppatt;
 595              		.loc 1 316 23 is_stmt 0 view .LVU177
 596 0176 C260     		str	r2, [r0, #12]	@ tmppatt,
ARM GAS  C:\Users\skey\AppData\Local\Temp\ccFDdSGQ.s 			page 18


 597              	@ .\stlib\STM32F10x_StdPeriph_Driver\src\stm32f10x_fsmc.c:318: }
 317:.\stlib\STM32F10x_StdPeriph_Driver\src/stm32f10x_fsmc.c ****   }
 318:.\stlib\STM32F10x_StdPeriph_Driver\src/stm32f10x_fsmc.c **** }
 598              		.loc 1 318 1 view .LVU178
 599 0178 30BD     		pop	{r4, r5, pc}	@
 600              	.L23:
 601 017a 00BF     		.align	2
 602              	.L22:
 603 017c 600000A0 		.word	-1610612640
 604 0180 800000A0 		.word	-1610612608
 605              		.cfi_endproc
 606              	.LFE33:
 607              		.size	FSMC_NANDInit, .-FSMC_NANDInit
 608              		.align	1
 609              		.global	FSMC_PCCARDInit
 610              		.syntax unified
 611              		.thumb
 612              		.thumb_func
 613              		.fpu softvfp
 614              		.type	FSMC_PCCARDInit, %function
 615              	FSMC_PCCARDInit:
 616              	.LVL9:
 617              	.LFB34:
 319:.\stlib\STM32F10x_StdPeriph_Driver\src/stm32f10x_fsmc.c **** 
 320:.\stlib\STM32F10x_StdPeriph_Driver\src/stm32f10x_fsmc.c **** /**
 321:.\stlib\STM32F10x_StdPeriph_Driver\src/stm32f10x_fsmc.c ****   * @brief  Initializes the FSMC PCCARD Bank according to the specified 
 322:.\stlib\STM32F10x_StdPeriph_Driver\src/stm32f10x_fsmc.c ****   *         parameters in the FSMC_PCCARDInitStruct.
 323:.\stlib\STM32F10x_StdPeriph_Driver\src/stm32f10x_fsmc.c ****   * @param  FSMC_PCCARDInitStruct : pointer to a FSMC_PCCARDInitTypeDef
 324:.\stlib\STM32F10x_StdPeriph_Driver\src/stm32f10x_fsmc.c ****   *         structure that contains the configuration information for the FSMC 
 325:.\stlib\STM32F10x_StdPeriph_Driver\src/stm32f10x_fsmc.c ****   *         PCCARD Bank.                       
 326:.\stlib\STM32F10x_StdPeriph_Driver\src/stm32f10x_fsmc.c ****   * @retval None
 327:.\stlib\STM32F10x_StdPeriph_Driver\src/stm32f10x_fsmc.c ****   */
 328:.\stlib\STM32F10x_StdPeriph_Driver\src/stm32f10x_fsmc.c **** void FSMC_PCCARDInit(FSMC_PCCARDInitTypeDef* FSMC_PCCARDInitStruct)
 329:.\stlib\STM32F10x_StdPeriph_Driver\src/stm32f10x_fsmc.c **** {
 618              		.loc 1 329 1 is_stmt 1 view -0
 619              		.cfi_startproc
 620              		@ args = 0, pretend = 0, frame = 0
 621              		@ frame_needed = 0, uses_anonymous_args = 0
 330:.\stlib\STM32F10x_StdPeriph_Driver\src/stm32f10x_fsmc.c ****   /* Check the parameters */
 331:.\stlib\STM32F10x_StdPeriph_Driver\src/stm32f10x_fsmc.c ****   assert_param(IS_FSMC_WAIT_FEATURE(FSMC_PCCARDInitStruct->FSMC_Waitfeature));
 622              		.loc 1 331 3 view .LVU180
 332:.\stlib\STM32F10x_StdPeriph_Driver\src/stm32f10x_fsmc.c ****   assert_param(IS_FSMC_TCLR_TIME(FSMC_PCCARDInitStruct->FSMC_TCLRSetupTime));
 623              		.loc 1 332 3 view .LVU181
 333:.\stlib\STM32F10x_StdPeriph_Driver\src/stm32f10x_fsmc.c ****   assert_param(IS_FSMC_TAR_TIME(FSMC_PCCARDInitStruct->FSMC_TARSetupTime));
 624              		.loc 1 333 3 view .LVU182
 334:.\stlib\STM32F10x_StdPeriph_Driver\src/stm32f10x_fsmc.c ****  
 335:.\stlib\STM32F10x_StdPeriph_Driver\src/stm32f10x_fsmc.c ****   assert_param(IS_FSMC_SETUP_TIME(FSMC_PCCARDInitStruct->FSMC_CommonSpaceTimingStruct->FSMC_SetupTi
 625              		.loc 1 335 3 view .LVU183
 336:.\stlib\STM32F10x_StdPeriph_Driver\src/stm32f10x_fsmc.c ****   assert_param(IS_FSMC_WAIT_TIME(FSMC_PCCARDInitStruct->FSMC_CommonSpaceTimingStruct->FSMC_WaitSetu
 626              		.loc 1 336 3 view .LVU184
 337:.\stlib\STM32F10x_StdPeriph_Driver\src/stm32f10x_fsmc.c ****   assert_param(IS_FSMC_HOLD_TIME(FSMC_PCCARDInitStruct->FSMC_CommonSpaceTimingStruct->FSMC_HoldSetu
 627              		.loc 1 337 3 view .LVU185
 338:.\stlib\STM32F10x_StdPeriph_Driver\src/stm32f10x_fsmc.c ****   assert_param(IS_FSMC_HIZ_TIME(FSMC_PCCARDInitStruct->FSMC_CommonSpaceTimingStruct->FSMC_HiZSetupT
 628              		.loc 1 338 3 view .LVU186
 339:.\stlib\STM32F10x_StdPeriph_Driver\src/stm32f10x_fsmc.c ****   
 340:.\stlib\STM32F10x_StdPeriph_Driver\src/stm32f10x_fsmc.c ****   assert_param(IS_FSMC_SETUP_TIME(FSMC_PCCARDInitStruct->FSMC_AttributeSpaceTimingStruct->FSMC_Setu
 629              		.loc 1 340 3 view .LVU187
ARM GAS  C:\Users\skey\AppData\Local\Temp\ccFDdSGQ.s 			page 19


 341:.\stlib\STM32F10x_StdPeriph_Driver\src/stm32f10x_fsmc.c ****   assert_param(IS_FSMC_WAIT_TIME(FSMC_PCCARDInitStruct->FSMC_AttributeSpaceTimingStruct->FSMC_WaitS
 630              		.loc 1 341 3 view .LVU188
 342:.\stlib\STM32F10x_StdPeriph_Driver\src/stm32f10x_fsmc.c ****   assert_param(IS_FSMC_HOLD_TIME(FSMC_PCCARDInitStruct->FSMC_AttributeSpaceTimingStruct->FSMC_HoldS
 631              		.loc 1 342 3 view .LVU189
 343:.\stlib\STM32F10x_StdPeriph_Driver\src/stm32f10x_fsmc.c ****   assert_param(IS_FSMC_HIZ_TIME(FSMC_PCCARDInitStruct->FSMC_AttributeSpaceTimingStruct->FSMC_HiZSet
 632              		.loc 1 343 3 view .LVU190
 344:.\stlib\STM32F10x_StdPeriph_Driver\src/stm32f10x_fsmc.c ****   assert_param(IS_FSMC_SETUP_TIME(FSMC_PCCARDInitStruct->FSMC_IOSpaceTimingStruct->FSMC_SetupTime))
 633              		.loc 1 344 3 view .LVU191
 345:.\stlib\STM32F10x_StdPeriph_Driver\src/stm32f10x_fsmc.c ****   assert_param(IS_FSMC_WAIT_TIME(FSMC_PCCARDInitStruct->FSMC_IOSpaceTimingStruct->FSMC_WaitSetupTim
 634              		.loc 1 345 3 view .LVU192
 346:.\stlib\STM32F10x_StdPeriph_Driver\src/stm32f10x_fsmc.c ****   assert_param(IS_FSMC_HOLD_TIME(FSMC_PCCARDInitStruct->FSMC_IOSpaceTimingStruct->FSMC_HoldSetupTim
 635              		.loc 1 346 3 view .LVU193
 347:.\stlib\STM32F10x_StdPeriph_Driver\src/stm32f10x_fsmc.c ****   assert_param(IS_FSMC_HIZ_TIME(FSMC_PCCARDInitStruct->FSMC_IOSpaceTimingStruct->FSMC_HiZSetupTime)
 636              		.loc 1 347 3 view .LVU194
 348:.\stlib\STM32F10x_StdPeriph_Driver\src/stm32f10x_fsmc.c ****   
 349:.\stlib\STM32F10x_StdPeriph_Driver\src/stm32f10x_fsmc.c ****   /* Set the PCR4 register value according to FSMC_PCCARDInitStruct parameters */
 350:.\stlib\STM32F10x_StdPeriph_Driver\src/stm32f10x_fsmc.c ****   FSMC_Bank4->PCR4 = (uint32_t)FSMC_PCCARDInitStruct->FSMC_Waitfeature |
 637              		.loc 1 350 3 view .LVU195
 638              	@ .\stlib\STM32F10x_StdPeriph_Driver\src\stm32f10x_fsmc.c:353:                      (FSMC_PCCARDIni
 351:.\stlib\STM32F10x_StdPeriph_Driver\src/stm32f10x_fsmc.c ****                      FSMC_MemoryDataWidth_16b |  
 352:.\stlib\STM32F10x_StdPeriph_Driver\src/stm32f10x_fsmc.c ****                      (FSMC_PCCARDInitStruct->FSMC_TCLRSetupTime << 9) |
 353:.\stlib\STM32F10x_StdPeriph_Driver\src/stm32f10x_fsmc.c ****                      (FSMC_PCCARDInitStruct->FSMC_TARSetupTime << 13);
 639              		.loc 1 353 64 is_stmt 0 view .LVU196
 640 0184 D0E90123 		ldrd	r2, r3, [r0, #4]	@ FSMC_PCCARDInitStruct_43(D)->FSMC_TCLRSetupTime, FSMC_PCCARDInitStruct_43(
 641 0188 5B03     		lsls	r3, r3, #13	@ tmp154, FSMC_PCCARDInitStruct_43(D)->FSMC_TARSetupTime,
 642              	@ .\stlib\STM32F10x_StdPeriph_Driver\src\stm32f10x_fsmc.c:352:                      (FSMC_PCCARDIni
 352:.\stlib\STM32F10x_StdPeriph_Driver\src/stm32f10x_fsmc.c ****                      (FSMC_PCCARDInitStruct->FSMC_TARSetupTime << 13);
 643              		.loc 1 352 71 view .LVU197
 644 018a 43EA4223 		orr	r3, r3, r2, lsl #9	@ tmp156, tmp154, FSMC_PCCARDInitStruct_43(D)->FSMC_TCLRSetupTime,
 645 018e 0268     		ldr	r2, [r0]	@ FSMC_PCCARDInitStruct_43(D)->FSMC_Waitfeature, FSMC_PCCARDInitStruct_43(D)->FSMC_Wa
 646              	@ .\stlib\STM32F10x_StdPeriph_Driver\src\stm32f10x_fsmc.c:356:   FSMC_Bank4->PMEM4 = (uint32_t)FSMC
 354:.\stlib\STM32F10x_StdPeriph_Driver\src/stm32f10x_fsmc.c ****             
 355:.\stlib\STM32F10x_StdPeriph_Driver\src/stm32f10x_fsmc.c ****   /* Set PMEM4 register value according to FSMC_CommonSpaceTimingStructure parameters */
 356:.\stlib\STM32F10x_StdPeriph_Driver\src/stm32f10x_fsmc.c ****   FSMC_Bank4->PMEM4 = (uint32_t)FSMC_PCCARDInitStruct->FSMC_CommonSpaceTimingStruct->FSMC_SetupTime
 647              		.loc 1 356 54 view .LVU198
 648 0190 C168     		ldr	r1, [r0, #12]	@ _9, FSMC_PCCARDInitStruct_43(D)->FSMC_CommonSpaceTimingStruct
 649              	@ .\stlib\STM32F10x_StdPeriph_Driver\src\stm32f10x_fsmc.c:352:                      (FSMC_PCCARDIni
 352:.\stlib\STM32F10x_StdPeriph_Driver\src/stm32f10x_fsmc.c ****                      (FSMC_PCCARDInitStruct->FSMC_TARSetupTime << 13);
 650              		.loc 1 352 71 view .LVU199
 651 0192 1343     		orrs	r3, r3, r2	@, tmp157, tmp156, FSMC_PCCARDInitStruct_43(D)->FSMC_Waitfeature
 652              	@ .\stlib\STM32F10x_StdPeriph_Driver\src\stm32f10x_fsmc.c:350:   FSMC_Bank4->PCR4 = (uint32_t)FSMC_
 350:.\stlib\STM32F10x_StdPeriph_Driver\src/stm32f10x_fsmc.c ****                      FSMC_MemoryDataWidth_16b |  
 653              		.loc 1 350 20 view .LVU200
 654 0194 144A     		ldr	r2, .L25	@ tmp159,
 655              	@ .\stlib\STM32F10x_StdPeriph_Driver\src\stm32f10x_fsmc.c:352:                      (FSMC_PCCARDIni
 352:.\stlib\STM32F10x_StdPeriph_Driver\src/stm32f10x_fsmc.c ****                      (FSMC_PCCARDInitStruct->FSMC_TARSetupTime << 13);
 656              		.loc 1 352 71 view .LVU201
 657 0196 43F01003 		orr	r3, r3, #16	@ _8, tmp157,
 658              	@ .\stlib\STM32F10x_StdPeriph_Driver\src\stm32f10x_fsmc.c:329: {
 329:.\stlib\STM32F10x_StdPeriph_Driver\src/stm32f10x_fsmc.c ****   /* Check the parameters */
 659              		.loc 1 329 1 view .LVU202
 660 019a 10B5     		push	{r4, lr}	@
 661              	.LCFI2:
 662              		.cfi_def_cfa_offset 8
 663              		.cfi_offset 4, -8
 664              		.cfi_offset 14, -4
 665              	@ .\stlib\STM32F10x_StdPeriph_Driver\src\stm32f10x_fsmc.c:350:   FSMC_Bank4->PCR4 = (uint32_t)FSMC_
ARM GAS  C:\Users\skey\AppData\Local\Temp\ccFDdSGQ.s 			page 20


 350:.\stlib\STM32F10x_StdPeriph_Driver\src/stm32f10x_fsmc.c ****                      FSMC_MemoryDataWidth_16b |  
 666              		.loc 1 350 20 view .LVU203
 667 019c 1360     		str	r3, [r2]	@ _8, MEM[(struct FSMC_Bank4_TypeDef *)2684354720B].PCR4
 668              		.loc 1 356 3 is_stmt 1 view .LVU204
 669              	@ .\stlib\STM32F10x_StdPeriph_Driver\src\stm32f10x_fsmc.c:358:                       (FSMC_PCCARDIn
 357:.\stlib\STM32F10x_StdPeriph_Driver\src/stm32f10x_fsmc.c ****                       (FSMC_PCCARDInitStruct->FSMC_CommonSpaceTimingStruct->FSMC_WaitSetupTime << 8
 358:.\stlib\STM32F10x_StdPeriph_Driver\src/stm32f10x_fsmc.c ****                       (FSMC_PCCARDInitStruct->FSMC_CommonSpaceTimingStruct->FSMC_HoldSetupTime << 1
 670              		.loc 1 358 96 is_stmt 0 view .LVU205
 671 019e D1E90143 		ldrd	r4, r3, [r1, #4]	@ _9->FSMC_WaitSetupTime, _9->FSMC_HoldSetupTime, _9,
 672 01a2 1B04     		lsls	r3, r3, #16	@ tmp162, _9->FSMC_HoldSetupTime,
 673              	@ .\stlib\STM32F10x_StdPeriph_Driver\src\stm32f10x_fsmc.c:357:                       (FSMC_PCCARDIn
 357:.\stlib\STM32F10x_StdPeriph_Driver\src/stm32f10x_fsmc.c ****                       (FSMC_PCCARDInitStruct->FSMC_CommonSpaceTimingStruct->FSMC_WaitSetupTime << 8
 674              		.loc 1 357 102 view .LVU206
 675 01a4 43EA0423 		orr	r3, r3, r4, lsl #8	@ tmp164, tmp162, _9->FSMC_WaitSetupTime,
 676 01a8 0C68     		ldr	r4, [r1]	@ _9->FSMC_SetupTime, _9->FSMC_SetupTime
 677              	@ .\stlib\STM32F10x_StdPeriph_Driver\src\stm32f10x_fsmc.c:359:                       (FSMC_PCCARDIn
 359:.\stlib\STM32F10x_StdPeriph_Driver\src/stm32f10x_fsmc.c ****                       (FSMC_PCCARDInitStruct->FSMC_CommonSpaceTimingStruct->FSMC_HiZSetupTime << 24
 678              		.loc 1 359 95 view .LVU207
 679 01aa C968     		ldr	r1, [r1, #12]	@ _9->FSMC_HiZSetupTime, _9->FSMC_HiZSetupTime
 680              	@ .\stlib\STM32F10x_StdPeriph_Driver\src\stm32f10x_fsmc.c:357:                       (FSMC_PCCARDIn
 357:.\stlib\STM32F10x_StdPeriph_Driver\src/stm32f10x_fsmc.c ****                       (FSMC_PCCARDInitStruct->FSMC_CommonSpaceTimingStruct->FSMC_WaitSetupTime << 8
 681              		.loc 1 357 102 view .LVU208
 682 01ac 2343     		orrs	r3, r3, r4	@, tmp165, tmp164, _9->FSMC_SetupTime
 683              	@ .\stlib\STM32F10x_StdPeriph_Driver\src\stm32f10x_fsmc.c:358:                       (FSMC_PCCARDIn
 358:.\stlib\STM32F10x_StdPeriph_Driver\src/stm32f10x_fsmc.c ****                       (FSMC_PCCARDInitStruct->FSMC_CommonSpaceTimingStruct->FSMC_HiZSetupTime << 24
 684              		.loc 1 358 102 view .LVU209
 685 01ae 43EA0163 		orr	r3, r3, r1, lsl #24	@ _19, tmp165, _9->FSMC_HiZSetupTime,
 686              	@ .\stlib\STM32F10x_StdPeriph_Driver\src\stm32f10x_fsmc.c:362:   FSMC_Bank4->PATT4 = (uint32_t)FSMC
 360:.\stlib\STM32F10x_StdPeriph_Driver\src/stm32f10x_fsmc.c ****             
 361:.\stlib\STM32F10x_StdPeriph_Driver\src/stm32f10x_fsmc.c ****   /* Set PATT4 register value according to FSMC_AttributeSpaceTimingStructure parameters */
 362:.\stlib\STM32F10x_StdPeriph_Driver\src/stm32f10x_fsmc.c ****   FSMC_Bank4->PATT4 = (uint32_t)FSMC_PCCARDInitStruct->FSMC_AttributeSpaceTimingStruct->FSMC_SetupT
 687              		.loc 1 362 54 view .LVU210
 688 01b2 0169     		ldr	r1, [r0, #16]	@ _20, FSMC_PCCARDInitStruct_43(D)->FSMC_AttributeSpaceTimingStruct
 689              	@ .\stlib\STM32F10x_StdPeriph_Driver\src\stm32f10x_fsmc.c:356:   FSMC_Bank4->PMEM4 = (uint32_t)FSMC
 356:.\stlib\STM32F10x_StdPeriph_Driver\src/stm32f10x_fsmc.c ****                       (FSMC_PCCARDInitStruct->FSMC_CommonSpaceTimingStruct->FSMC_WaitSetupTime << 8
 690              		.loc 1 356 21 view .LVU211
 691 01b4 9360     		str	r3, [r2, #8]	@ _19, MEM[(struct FSMC_Bank4_TypeDef *)2684354720B].PMEM4
 692              		.loc 1 362 3 is_stmt 1 view .LVU212
 693              	@ .\stlib\STM32F10x_StdPeriph_Driver\src\stm32f10x_fsmc.c:364:                       (FSMC_PCCARDIn
 363:.\stlib\STM32F10x_StdPeriph_Driver\src/stm32f10x_fsmc.c ****                       (FSMC_PCCARDInitStruct->FSMC_AttributeSpaceTimingStruct->FSMC_WaitSetupTime <
 364:.\stlib\STM32F10x_StdPeriph_Driver\src/stm32f10x_fsmc.c ****                       (FSMC_PCCARDInitStruct->FSMC_AttributeSpaceTimingStruct->FSMC_HoldSetupTime <
 694              		.loc 1 364 99 is_stmt 0 view .LVU213
 695 01b6 D1E90143 		ldrd	r4, r3, [r1, #4]	@ _20->FSMC_WaitSetupTime, _20->FSMC_HoldSetupTime, _20,
 696 01ba 1B04     		lsls	r3, r3, #16	@ tmp172, _20->FSMC_HoldSetupTime,
 697              	@ .\stlib\STM32F10x_StdPeriph_Driver\src\stm32f10x_fsmc.c:363:                       (FSMC_PCCARDIn
 363:.\stlib\STM32F10x_StdPeriph_Driver\src/stm32f10x_fsmc.c ****                       (FSMC_PCCARDInitStruct->FSMC_AttributeSpaceTimingStruct->FSMC_WaitSetupTime <
 698              		.loc 1 363 105 view .LVU214
 699 01bc 43EA0423 		orr	r3, r3, r4, lsl #8	@ tmp174, tmp172, _20->FSMC_WaitSetupTime,
 700 01c0 0C68     		ldr	r4, [r1]	@ _20->FSMC_SetupTime, _20->FSMC_SetupTime
 701              	@ .\stlib\STM32F10x_StdPeriph_Driver\src\stm32f10x_fsmc.c:365:                       (FSMC_PCCARDIn
 365:.\stlib\STM32F10x_StdPeriph_Driver\src/stm32f10x_fsmc.c ****                       (FSMC_PCCARDInitStruct->FSMC_AttributeSpaceTimingStruct->FSMC_HiZSetupTime <<
 702              		.loc 1 365 98 view .LVU215
 703 01c2 C968     		ldr	r1, [r1, #12]	@ _20->FSMC_HiZSetupTime, _20->FSMC_HiZSetupTime
 704              	@ .\stlib\STM32F10x_StdPeriph_Driver\src\stm32f10x_fsmc.c:363:                       (FSMC_PCCARDIn
 363:.\stlib\STM32F10x_StdPeriph_Driver\src/stm32f10x_fsmc.c ****                       (FSMC_PCCARDInitStruct->FSMC_AttributeSpaceTimingStruct->FSMC_WaitSetupTime <
 705              		.loc 1 363 105 view .LVU216
 706 01c4 2343     		orrs	r3, r3, r4	@, tmp175, tmp174, _20->FSMC_SetupTime
ARM GAS  C:\Users\skey\AppData\Local\Temp\ccFDdSGQ.s 			page 21


 707              	@ .\stlib\STM32F10x_StdPeriph_Driver\src\stm32f10x_fsmc.c:364:                       (FSMC_PCCARDIn
 364:.\stlib\STM32F10x_StdPeriph_Driver\src/stm32f10x_fsmc.c ****                       (FSMC_PCCARDInitStruct->FSMC_AttributeSpaceTimingStruct->FSMC_HiZSetupTime <<
 708              		.loc 1 364 105 view .LVU217
 709 01c6 43EA0163 		orr	r3, r3, r1, lsl #24	@ _30, tmp175, _20->FSMC_HiZSetupTime,
 710              	@ .\stlib\STM32F10x_StdPeriph_Driver\src\stm32f10x_fsmc.c:368:   FSMC_Bank4->PIO4 = (uint32_t)FSMC_
 366:.\stlib\STM32F10x_StdPeriph_Driver\src/stm32f10x_fsmc.c ****             
 367:.\stlib\STM32F10x_StdPeriph_Driver\src/stm32f10x_fsmc.c ****   /* Set PIO4 register value according to FSMC_IOSpaceTimingStructure parameters */
 368:.\stlib\STM32F10x_StdPeriph_Driver\src/stm32f10x_fsmc.c ****   FSMC_Bank4->PIO4 = (uint32_t)FSMC_PCCARDInitStruct->FSMC_IOSpaceTimingStruct->FSMC_SetupTime |
 711              		.loc 1 368 53 view .LVU218
 712 01ca 4169     		ldr	r1, [r0, #20]	@ _31, FSMC_PCCARDInitStruct_43(D)->FSMC_IOSpaceTimingStruct
 713              	@ .\stlib\STM32F10x_StdPeriph_Driver\src\stm32f10x_fsmc.c:362:   FSMC_Bank4->PATT4 = (uint32_t)FSMC
 362:.\stlib\STM32F10x_StdPeriph_Driver\src/stm32f10x_fsmc.c ****                       (FSMC_PCCARDInitStruct->FSMC_AttributeSpaceTimingStruct->FSMC_WaitSetupTime <
 714              		.loc 1 362 21 view .LVU219
 715 01cc D360     		str	r3, [r2, #12]	@ _30, MEM[(struct FSMC_Bank4_TypeDef *)2684354720B].PATT4
 716              		.loc 1 368 3 is_stmt 1 view .LVU220
 717              	@ .\stlib\STM32F10x_StdPeriph_Driver\src\stm32f10x_fsmc.c:370:                      (FSMC_PCCARDIni
 369:.\stlib\STM32F10x_StdPeriph_Driver\src/stm32f10x_fsmc.c ****                      (FSMC_PCCARDInitStruct->FSMC_IOSpaceTimingStruct->FSMC_WaitSetupTime << 8) |
 370:.\stlib\STM32F10x_StdPeriph_Driver\src/stm32f10x_fsmc.c ****                      (FSMC_PCCARDInitStruct->FSMC_IOSpaceTimingStruct->FSMC_HoldSetupTime << 16)|
 718              		.loc 1 370 91 is_stmt 0 view .LVU221
 719 01ce D1E90103 		ldrd	r0, r3, [r1, #4]	@ _31->FSMC_WaitSetupTime, _31->FSMC_HoldSetupTime, _31,
 720              	.LVL10:
 721              		.loc 1 370 91 view .LVU222
 722 01d2 1B04     		lsls	r3, r3, #16	@ tmp182, _31->FSMC_HoldSetupTime,
 723              	@ .\stlib\STM32F10x_StdPeriph_Driver\src\stm32f10x_fsmc.c:369:                      (FSMC_PCCARDIni
 369:.\stlib\STM32F10x_StdPeriph_Driver\src/stm32f10x_fsmc.c ****                      (FSMC_PCCARDInitStruct->FSMC_IOSpaceTimingStruct->FSMC_WaitSetupTime << 8) |
 724              		.loc 1 369 97 view .LVU223
 725 01d4 43EA0023 		orr	r3, r3, r0, lsl #8	@ tmp184, tmp182, _31->FSMC_WaitSetupTime,
 726 01d8 0868     		ldr	r0, [r1]	@ _31->FSMC_SetupTime, _31->FSMC_SetupTime
 727              	@ .\stlib\STM32F10x_StdPeriph_Driver\src\stm32f10x_fsmc.c:371:                      (FSMC_PCCARDIni
 371:.\stlib\STM32F10x_StdPeriph_Driver\src/stm32f10x_fsmc.c ****                      (FSMC_PCCARDInitStruct->FSMC_IOSpaceTimingStruct->FSMC_HiZSetupTime << 24);   
 728              		.loc 1 371 90 view .LVU224
 729 01da C968     		ldr	r1, [r1, #12]	@ _31->FSMC_HiZSetupTime, _31->FSMC_HiZSetupTime
 730              	@ .\stlib\STM32F10x_StdPeriph_Driver\src\stm32f10x_fsmc.c:369:                      (FSMC_PCCARDIni
 369:.\stlib\STM32F10x_StdPeriph_Driver\src/stm32f10x_fsmc.c ****                      (FSMC_PCCARDInitStruct->FSMC_IOSpaceTimingStruct->FSMC_WaitSetupTime << 8) |
 731              		.loc 1 369 97 view .LVU225
 732 01dc 0343     		orrs	r3, r3, r0	@, tmp185, tmp184, _31->FSMC_SetupTime
 733              	@ .\stlib\STM32F10x_StdPeriph_Driver\src\stm32f10x_fsmc.c:370:                      (FSMC_PCCARDIni
 370:.\stlib\STM32F10x_StdPeriph_Driver\src/stm32f10x_fsmc.c ****                      (FSMC_PCCARDInitStruct->FSMC_IOSpaceTimingStruct->FSMC_HiZSetupTime << 24);   
 734              		.loc 1 370 97 view .LVU226
 735 01de 43EA0163 		orr	r3, r3, r1, lsl #24	@ _41, tmp185, _31->FSMC_HiZSetupTime,
 736              	@ .\stlib\STM32F10x_StdPeriph_Driver\src\stm32f10x_fsmc.c:368:   FSMC_Bank4->PIO4 = (uint32_t)FSMC_
 368:.\stlib\STM32F10x_StdPeriph_Driver\src/stm32f10x_fsmc.c ****                      (FSMC_PCCARDInitStruct->FSMC_IOSpaceTimingStruct->FSMC_WaitSetupTime << 8) |
 737              		.loc 1 368 20 view .LVU227
 738 01e2 1361     		str	r3, [r2, #16]	@ _41, MEM[(struct FSMC_Bank4_TypeDef *)2684354720B].PIO4
 739              	@ .\stlib\STM32F10x_StdPeriph_Driver\src\stm32f10x_fsmc.c:372: }
 372:.\stlib\STM32F10x_StdPeriph_Driver\src/stm32f10x_fsmc.c **** }
 740              		.loc 1 372 1 view .LVU228
 741 01e4 10BD     		pop	{r4, pc}	@
 742              	.L26:
 743 01e6 00BF     		.align	2
 744              	.L25:
 745 01e8 A00000A0 		.word	-1610612576
 746              		.cfi_endproc
 747              	.LFE34:
 748              		.size	FSMC_PCCARDInit, .-FSMC_PCCARDInit
 749              		.align	1
 750              		.global	FSMC_NORSRAMStructInit
ARM GAS  C:\Users\skey\AppData\Local\Temp\ccFDdSGQ.s 			page 22


 751              		.syntax unified
 752              		.thumb
 753              		.thumb_func
 754              		.fpu softvfp
 755              		.type	FSMC_NORSRAMStructInit, %function
 756              	FSMC_NORSRAMStructInit:
 757              	.LVL11:
 758              	.LFB35:
 373:.\stlib\STM32F10x_StdPeriph_Driver\src/stm32f10x_fsmc.c **** 
 374:.\stlib\STM32F10x_StdPeriph_Driver\src/stm32f10x_fsmc.c **** /**
 375:.\stlib\STM32F10x_StdPeriph_Driver\src/stm32f10x_fsmc.c ****   * @brief  Fills each FSMC_NORSRAMInitStruct member with its default value.
 376:.\stlib\STM32F10x_StdPeriph_Driver\src/stm32f10x_fsmc.c ****   * @param  FSMC_NORSRAMInitStruct: pointer to a FSMC_NORSRAMInitTypeDef 
 377:.\stlib\STM32F10x_StdPeriph_Driver\src/stm32f10x_fsmc.c ****   *         structure which will be initialized.
 378:.\stlib\STM32F10x_StdPeriph_Driver\src/stm32f10x_fsmc.c ****   * @retval None
 379:.\stlib\STM32F10x_StdPeriph_Driver\src/stm32f10x_fsmc.c ****   */
 380:.\stlib\STM32F10x_StdPeriph_Driver\src/stm32f10x_fsmc.c **** void FSMC_NORSRAMStructInit(FSMC_NORSRAMInitTypeDef* FSMC_NORSRAMInitStruct)
 381:.\stlib\STM32F10x_StdPeriph_Driver\src/stm32f10x_fsmc.c **** {  
 759              		.loc 1 381 1 is_stmt 1 view -0
 760              		.cfi_startproc
 761              		@ args = 0, pretend = 0, frame = 0
 762              		@ frame_needed = 0, uses_anonymous_args = 0
 382:.\stlib\STM32F10x_StdPeriph_Driver\src/stm32f10x_fsmc.c ****   /* Reset NOR/SRAM Init structure parameters values */
 383:.\stlib\STM32F10x_StdPeriph_Driver\src/stm32f10x_fsmc.c ****   FSMC_NORSRAMInitStruct->FSMC_Bank = FSMC_Bank1_NORSRAM1;
 763              		.loc 1 383 3 view .LVU230
 764              	@ .\stlib\STM32F10x_StdPeriph_Driver\src\stm32f10x_fsmc.c:384:   FSMC_NORSRAMInitStruct->FSMC_DataA
 384:.\stlib\STM32F10x_StdPeriph_Driver\src/stm32f10x_fsmc.c ****   FSMC_NORSRAMInitStruct->FSMC_DataAddressMux = FSMC_DataAddressMux_Enable;
 765              		.loc 1 384 47 is_stmt 0 view .LVU231
 766 01ec 0023     		movs	r3, #0	@ tmp113,
 767 01ee 0222     		movs	r2, #2	@ tmp114,
 768              	@ .\stlib\STM32F10x_StdPeriph_Driver\src\stm32f10x_fsmc.c:393:   FSMC_NORSRAMInitStruct->FSMC_WaitS
 385:.\stlib\STM32F10x_StdPeriph_Driver\src/stm32f10x_fsmc.c ****   FSMC_NORSRAMInitStruct->FSMC_MemoryType = FSMC_MemoryType_SRAM;
 386:.\stlib\STM32F10x_StdPeriph_Driver\src/stm32f10x_fsmc.c ****   FSMC_NORSRAMInitStruct->FSMC_MemoryDataWidth = FSMC_MemoryDataWidth_8b;
 387:.\stlib\STM32F10x_StdPeriph_Driver\src/stm32f10x_fsmc.c ****   FSMC_NORSRAMInitStruct->FSMC_BurstAccessMode = FSMC_BurstAccessMode_Disable;
 388:.\stlib\STM32F10x_StdPeriph_Driver\src/stm32f10x_fsmc.c ****   FSMC_NORSRAMInitStruct->FSMC_AsynchronousWait = FSMC_AsynchronousWait_Disable;
 389:.\stlib\STM32F10x_StdPeriph_Driver\src/stm32f10x_fsmc.c ****   FSMC_NORSRAMInitStruct->FSMC_WaitSignalPolarity = FSMC_WaitSignalPolarity_Low;
 390:.\stlib\STM32F10x_StdPeriph_Driver\src/stm32f10x_fsmc.c ****   FSMC_NORSRAMInitStruct->FSMC_WrapMode = FSMC_WrapMode_Disable;
 391:.\stlib\STM32F10x_StdPeriph_Driver\src/stm32f10x_fsmc.c ****   FSMC_NORSRAMInitStruct->FSMC_WaitSignalActive = FSMC_WaitSignalActive_BeforeWaitState;
 392:.\stlib\STM32F10x_StdPeriph_Driver\src/stm32f10x_fsmc.c ****   FSMC_NORSRAMInitStruct->FSMC_WriteOperation = FSMC_WriteOperation_Enable;
 393:.\stlib\STM32F10x_StdPeriph_Driver\src/stm32f10x_fsmc.c ****   FSMC_NORSRAMInitStruct->FSMC_WaitSignal = FSMC_WaitSignal_Enable;
 769              		.loc 1 393 43 view .LVU232
 770 01f0 4FF48051 		mov	r1, #4096	@,
 771              	@ .\stlib\STM32F10x_StdPeriph_Driver\src\stm32f10x_fsmc.c:384:   FSMC_NORSRAMInitStruct->FSMC_DataA
 384:.\stlib\STM32F10x_StdPeriph_Driver\src/stm32f10x_fsmc.c ****   FSMC_NORSRAMInitStruct->FSMC_DataAddressMux = FSMC_DataAddressMux_Enable;
 772              		.loc 1 384 47 view .LVU233
 773 01f4 C0E90032 		strd	r3, r2, [r0]	@ tmp113, tmp114, FSMC_NORSRAMInitStruct
 385:.\stlib\STM32F10x_StdPeriph_Driver\src/stm32f10x_fsmc.c ****   FSMC_NORSRAMInitStruct->FSMC_MemoryType = FSMC_MemoryType_SRAM;
 774              		.loc 1 385 3 is_stmt 1 view .LVU234
 775              	@ .\stlib\STM32F10x_StdPeriph_Driver\src\stm32f10x_fsmc.c:393:   FSMC_NORSRAMInitStruct->FSMC_WaitS
 776              		.loc 1 393 43 is_stmt 0 view .LVU235
 777 01f8 4FF40052 		mov	r2, #8192	@ tmp123,
 778              	@ .\stlib\STM32F10x_StdPeriph_Driver\src\stm32f10x_fsmc.c:381: {  
 381:.\stlib\STM32F10x_StdPeriph_Driver\src/stm32f10x_fsmc.c ****   /* Reset NOR/SRAM Init structure parameters values */
 779              		.loc 1 381 1 view .LVU236
 780 01fc 10B5     		push	{r4, lr}	@
 781              	.LCFI3:
 782              		.cfi_def_cfa_offset 8
 783              		.cfi_offset 4, -8
ARM GAS  C:\Users\skey\AppData\Local\Temp\ccFDdSGQ.s 			page 23


 784              		.cfi_offset 14, -4
 785              	@ .\stlib\STM32F10x_StdPeriph_Driver\src\stm32f10x_fsmc.c:393:   FSMC_NORSRAMInitStruct->FSMC_WaitS
 786              		.loc 1 393 43 view .LVU237
 787 01fe C0E90912 		strd	r1, r2, [r0, #36]	@, tmp123, FSMC_NORSRAMInitStruct,
 788              	@ .\stlib\STM32F10x_StdPeriph_Driver\src\stm32f10x_fsmc.c:398:   FSMC_NORSRAMInitStruct->FSMC_ReadW
 394:.\stlib\STM32F10x_StdPeriph_Driver\src/stm32f10x_fsmc.c ****   FSMC_NORSRAMInitStruct->FSMC_ExtendedMode = FSMC_ExtendedMode_Disable;
 395:.\stlib\STM32F10x_StdPeriph_Driver\src/stm32f10x_fsmc.c ****   FSMC_NORSRAMInitStruct->FSMC_WriteBurst = FSMC_WriteBurst_Disable;
 396:.\stlib\STM32F10x_StdPeriph_Driver\src/stm32f10x_fsmc.c ****   FSMC_NORSRAMInitStruct->FSMC_ReadWriteTimingStruct->FSMC_AddressSetupTime = 0xF;
 397:.\stlib\STM32F10x_StdPeriph_Driver\src/stm32f10x_fsmc.c ****   FSMC_NORSRAMInitStruct->FSMC_ReadWriteTimingStruct->FSMC_AddressHoldTime = 0xF;
 398:.\stlib\STM32F10x_StdPeriph_Driver\src/stm32f10x_fsmc.c ****   FSMC_NORSRAMInitStruct->FSMC_ReadWriteTimingStruct->FSMC_DataSetupTime = 0xFF;
 789              		.loc 1 398 74 view .LVU238
 790 0202 FF24     		movs	r4, #255	@ tmp128,
 791              	@ .\stlib\STM32F10x_StdPeriph_Driver\src\stm32f10x_fsmc.c:396:   FSMC_NORSRAMInitStruct->FSMC_ReadW
 396:.\stlib\STM32F10x_StdPeriph_Driver\src/stm32f10x_fsmc.c ****   FSMC_NORSRAMInitStruct->FSMC_ReadWriteTimingStruct->FSMC_AddressHoldTime = 0xF;
 792              		.loc 1 396 77 view .LVU239
 793 0204 0F22     		movs	r2, #15	@ tmp126,
 794              	@ .\stlib\STM32F10x_StdPeriph_Driver\src\stm32f10x_fsmc.c:396:   FSMC_NORSRAMInitStruct->FSMC_ReadW
 396:.\stlib\STM32F10x_StdPeriph_Driver\src/stm32f10x_fsmc.c ****   FSMC_NORSRAMInitStruct->FSMC_ReadWriteTimingStruct->FSMC_AddressHoldTime = 0xF;
 795              		.loc 1 396 25 view .LVU240
 796 0206 416B     		ldr	r1, [r0, #52]	@ _1, FSMC_NORSRAMInitStruct_4(D)->FSMC_ReadWriteTimingStruct
 797              	@ .\stlib\STM32F10x_StdPeriph_Driver\src\stm32f10x_fsmc.c:386:   FSMC_NORSRAMInitStruct->FSMC_Memor
 386:.\stlib\STM32F10x_StdPeriph_Driver\src/stm32f10x_fsmc.c ****   FSMC_NORSRAMInitStruct->FSMC_BurstAccessMode = FSMC_BurstAccessMode_Disable;
 798              		.loc 1 386 48 view .LVU241
 799 0208 C0E90233 		strd	r3, r3, [r0, #8]	@ tmp113, tmp113, FSMC_NORSRAMInitStruct,
 387:.\stlib\STM32F10x_StdPeriph_Driver\src/stm32f10x_fsmc.c ****   FSMC_NORSRAMInitStruct->FSMC_AsynchronousWait = FSMC_AsynchronousWait_Disable;
 800              		.loc 1 387 3 is_stmt 1 view .LVU242
 801              	@ .\stlib\STM32F10x_StdPeriph_Driver\src\stm32f10x_fsmc.c:388:   FSMC_NORSRAMInitStruct->FSMC_Async
 388:.\stlib\STM32F10x_StdPeriph_Driver\src/stm32f10x_fsmc.c ****   FSMC_NORSRAMInitStruct->FSMC_WaitSignalPolarity = FSMC_WaitSignalPolarity_Low;
 802              		.loc 1 388 49 is_stmt 0 view .LVU243
 803 020c C0E90433 		strd	r3, r3, [r0, #16]	@ tmp113, tmp113, FSMC_NORSRAMInitStruct,
 389:.\stlib\STM32F10x_StdPeriph_Driver\src/stm32f10x_fsmc.c ****   FSMC_NORSRAMInitStruct->FSMC_WrapMode = FSMC_WrapMode_Disable;
 804              		.loc 1 389 3 is_stmt 1 view .LVU244
 805              	@ .\stlib\STM32F10x_StdPeriph_Driver\src\stm32f10x_fsmc.c:390:   FSMC_NORSRAMInitStruct->FSMC_WrapM
 390:.\stlib\STM32F10x_StdPeriph_Driver\src/stm32f10x_fsmc.c ****   FSMC_NORSRAMInitStruct->FSMC_WaitSignalActive = FSMC_WaitSignalActive_BeforeWaitState;
 806              		.loc 1 390 41 is_stmt 0 view .LVU245
 807 0210 C0E90633 		strd	r3, r3, [r0, #24]	@ tmp113, tmp113, FSMC_NORSRAMInitStruct,
 391:.\stlib\STM32F10x_StdPeriph_Driver\src/stm32f10x_fsmc.c ****   FSMC_NORSRAMInitStruct->FSMC_WriteOperation = FSMC_WriteOperation_Enable;
 808              		.loc 1 391 3 is_stmt 1 view .LVU246
 809              	@ .\stlib\STM32F10x_StdPeriph_Driver\src\stm32f10x_fsmc.c:395:   FSMC_NORSRAMInitStruct->FSMC_Write
 395:.\stlib\STM32F10x_StdPeriph_Driver\src/stm32f10x_fsmc.c ****   FSMC_NORSRAMInitStruct->FSMC_ReadWriteTimingStruct->FSMC_AddressSetupTime = 0xF;
 810              		.loc 1 395 43 is_stmt 0 view .LVU247
 811 0214 C0E90B33 		strd	r3, r3, [r0, #44]	@ tmp113, tmp113, FSMC_NORSRAMInitStruct,
 812              	@ .\stlib\STM32F10x_StdPeriph_Driver\src\stm32f10x_fsmc.c:391:   FSMC_NORSRAMInitStruct->FSMC_WaitS
 391:.\stlib\STM32F10x_StdPeriph_Driver\src/stm32f10x_fsmc.c ****   FSMC_NORSRAMInitStruct->FSMC_WriteOperation = FSMC_WriteOperation_Enable;
 813              		.loc 1 391 49 view .LVU248
 814 0218 0362     		str	r3, [r0, #32]	@ tmp113, FSMC_NORSRAMInitStruct_4(D)->FSMC_WaitSignalActive
 392:.\stlib\STM32F10x_StdPeriph_Driver\src/stm32f10x_fsmc.c ****   FSMC_NORSRAMInitStruct->FSMC_WaitSignal = FSMC_WaitSignal_Enable;
 815              		.loc 1 392 3 is_stmt 1 view .LVU249
 394:.\stlib\STM32F10x_StdPeriph_Driver\src/stm32f10x_fsmc.c ****   FSMC_NORSRAMInitStruct->FSMC_WriteBurst = FSMC_WriteBurst_Disable;
 816              		.loc 1 394 3 view .LVU250
 396:.\stlib\STM32F10x_StdPeriph_Driver\src/stm32f10x_fsmc.c ****   FSMC_NORSRAMInitStruct->FSMC_ReadWriteTimingStruct->FSMC_AddressHoldTime = 0xF;
 817              		.loc 1 396 3 view .LVU251
 818              	@ .\stlib\STM32F10x_StdPeriph_Driver\src\stm32f10x_fsmc.c:397:   FSMC_NORSRAMInitStruct->FSMC_ReadW
 397:.\stlib\STM32F10x_StdPeriph_Driver\src/stm32f10x_fsmc.c ****   FSMC_NORSRAMInitStruct->FSMC_ReadWriteTimingStruct->FSMC_DataSetupTime = 0xFF;
 819              		.loc 1 397 76 is_stmt 0 view .LVU252
 820 021a C1E90022 		strd	r2, r2, [r1]	@ tmp126, tmp126, _1
 821              		.loc 1 398 3 is_stmt 1 view .LVU253
ARM GAS  C:\Users\skey\AppData\Local\Temp\ccFDdSGQ.s 			page 24


 822              	@ .\stlib\STM32F10x_StdPeriph_Driver\src\stm32f10x_fsmc.c:399:   FSMC_NORSRAMInitStruct->FSMC_ReadW
 399:.\stlib\STM32F10x_StdPeriph_Driver\src/stm32f10x_fsmc.c ****   FSMC_NORSRAMInitStruct->FSMC_ReadWriteTimingStruct->FSMC_BusTurnAroundDuration = 0xF;
 823              		.loc 1 399 82 is_stmt 0 view .LVU254
 824 021e C1E90242 		strd	r4, r2, [r1, #8]	@ tmp128, tmp126, _1,
 400:.\stlib\STM32F10x_StdPeriph_Driver\src/stm32f10x_fsmc.c ****   FSMC_NORSRAMInitStruct->FSMC_ReadWriteTimingStruct->FSMC_CLKDivision = 0xF;
 825              		.loc 1 400 3 is_stmt 1 view .LVU255
 826              	@ .\stlib\STM32F10x_StdPeriph_Driver\src\stm32f10x_fsmc.c:401:   FSMC_NORSRAMInitStruct->FSMC_ReadW
 401:.\stlib\STM32F10x_StdPeriph_Driver\src/stm32f10x_fsmc.c ****   FSMC_NORSRAMInitStruct->FSMC_ReadWriteTimingStruct->FSMC_DataLatency = 0xF;
 827              		.loc 1 401 72 is_stmt 0 view .LVU256
 828 0222 C1E90422 		strd	r2, r2, [r1, #16]	@ tmp126, tmp126, _1,
 402:.\stlib\STM32F10x_StdPeriph_Driver\src/stm32f10x_fsmc.c ****   FSMC_NORSRAMInitStruct->FSMC_ReadWriteTimingStruct->FSMC_AccessMode = FSMC_AccessMode_A; 
 829              		.loc 1 402 3 is_stmt 1 view .LVU257
 830              	@ .\stlib\STM32F10x_StdPeriph_Driver\src\stm32f10x_fsmc.c:402:   FSMC_NORSRAMInitStruct->FSMC_ReadW
 831              		.loc 1 402 71 is_stmt 0 view .LVU258
 832 0226 8B61     		str	r3, [r1, #24]	@ tmp113, _1->FSMC_AccessMode
 403:.\stlib\STM32F10x_StdPeriph_Driver\src/stm32f10x_fsmc.c ****   FSMC_NORSRAMInitStruct->FSMC_WriteTimingStruct->FSMC_AddressSetupTime = 0xF;
 833              		.loc 1 403 3 is_stmt 1 view .LVU259
 834              	@ .\stlib\STM32F10x_StdPeriph_Driver\src\stm32f10x_fsmc.c:403:   FSMC_NORSRAMInitStruct->FSMC_Write
 835              		.loc 1 403 25 is_stmt 0 view .LVU260
 836 0228 816B     		ldr	r1, [r0, #56]	@ _2, FSMC_NORSRAMInitStruct_4(D)->FSMC_WriteTimingStruct
 837              	@ .\stlib\STM32F10x_StdPeriph_Driver\src\stm32f10x_fsmc.c:404:   FSMC_NORSRAMInitStruct->FSMC_Write
 404:.\stlib\STM32F10x_StdPeriph_Driver\src/stm32f10x_fsmc.c ****   FSMC_NORSRAMInitStruct->FSMC_WriteTimingStruct->FSMC_AddressHoldTime = 0xF;
 838              		.loc 1 404 72 view .LVU261
 839 022a C1E90022 		strd	r2, r2, [r1]	@ tmp126, tmp126, _2
 405:.\stlib\STM32F10x_StdPeriph_Driver\src/stm32f10x_fsmc.c ****   FSMC_NORSRAMInitStruct->FSMC_WriteTimingStruct->FSMC_DataSetupTime = 0xFF;
 840              		.loc 1 405 3 is_stmt 1 view .LVU262
 841              	@ .\stlib\STM32F10x_StdPeriph_Driver\src\stm32f10x_fsmc.c:406:   FSMC_NORSRAMInitStruct->FSMC_Write
 406:.\stlib\STM32F10x_StdPeriph_Driver\src/stm32f10x_fsmc.c ****   FSMC_NORSRAMInitStruct->FSMC_WriteTimingStruct->FSMC_BusTurnAroundDuration = 0xF;
 842              		.loc 1 406 78 is_stmt 0 view .LVU263
 843 022e C1E90242 		strd	r4, r2, [r1, #8]	@ tmp128, tmp126, _2,
 407:.\stlib\STM32F10x_StdPeriph_Driver\src/stm32f10x_fsmc.c ****   FSMC_NORSRAMInitStruct->FSMC_WriteTimingStruct->FSMC_CLKDivision = 0xF;
 844              		.loc 1 407 3 is_stmt 1 view .LVU264
 845              	@ .\stlib\STM32F10x_StdPeriph_Driver\src\stm32f10x_fsmc.c:408:   FSMC_NORSRAMInitStruct->FSMC_Write
 408:.\stlib\STM32F10x_StdPeriph_Driver\src/stm32f10x_fsmc.c ****   FSMC_NORSRAMInitStruct->FSMC_WriteTimingStruct->FSMC_DataLatency = 0xF;
 846              		.loc 1 408 68 is_stmt 0 view .LVU265
 847 0232 C1E90422 		strd	r2, r2, [r1, #16]	@ tmp126, tmp126, _2,
 409:.\stlib\STM32F10x_StdPeriph_Driver\src/stm32f10x_fsmc.c ****   FSMC_NORSRAMInitStruct->FSMC_WriteTimingStruct->FSMC_AccessMode = FSMC_AccessMode_A;
 848              		.loc 1 409 3 is_stmt 1 view .LVU266
 849              	@ .\stlib\STM32F10x_StdPeriph_Driver\src\stm32f10x_fsmc.c:409:   FSMC_NORSRAMInitStruct->FSMC_Write
 850              		.loc 1 409 67 is_stmt 0 view .LVU267
 851 0236 8B61     		str	r3, [r1, #24]	@ tmp113, _2->FSMC_AccessMode
 852              	@ .\stlib\STM32F10x_StdPeriph_Driver\src\stm32f10x_fsmc.c:410: }
 410:.\stlib\STM32F10x_StdPeriph_Driver\src/stm32f10x_fsmc.c **** }
 853              		.loc 1 410 1 view .LVU268
 854 0238 10BD     		pop	{r4, pc}	@
 855              		.cfi_endproc
 856              	.LFE35:
 857              		.size	FSMC_NORSRAMStructInit, .-FSMC_NORSRAMStructInit
 858              		.align	1
 859              		.global	FSMC_NANDStructInit
 860              		.syntax unified
 861              		.thumb
 862              		.thumb_func
 863              		.fpu softvfp
 864              		.type	FSMC_NANDStructInit, %function
 865              	FSMC_NANDStructInit:
 866              	.LVL12:
ARM GAS  C:\Users\skey\AppData\Local\Temp\ccFDdSGQ.s 			page 25


 867              	.LFB36:
 411:.\stlib\STM32F10x_StdPeriph_Driver\src/stm32f10x_fsmc.c **** 
 412:.\stlib\STM32F10x_StdPeriph_Driver\src/stm32f10x_fsmc.c **** /**
 413:.\stlib\STM32F10x_StdPeriph_Driver\src/stm32f10x_fsmc.c ****   * @brief  Fills each FSMC_NANDInitStruct member with its default value.
 414:.\stlib\STM32F10x_StdPeriph_Driver\src/stm32f10x_fsmc.c ****   * @param  FSMC_NANDInitStruct: pointer to a FSMC_NANDInitTypeDef 
 415:.\stlib\STM32F10x_StdPeriph_Driver\src/stm32f10x_fsmc.c ****   *         structure which will be initialized.
 416:.\stlib\STM32F10x_StdPeriph_Driver\src/stm32f10x_fsmc.c ****   * @retval None
 417:.\stlib\STM32F10x_StdPeriph_Driver\src/stm32f10x_fsmc.c ****   */
 418:.\stlib\STM32F10x_StdPeriph_Driver\src/stm32f10x_fsmc.c **** void FSMC_NANDStructInit(FSMC_NANDInitTypeDef* FSMC_NANDInitStruct)
 419:.\stlib\STM32F10x_StdPeriph_Driver\src/stm32f10x_fsmc.c **** { 
 868              		.loc 1 419 1 is_stmt 1 view -0
 869              		.cfi_startproc
 870              		@ args = 0, pretend = 0, frame = 0
 871              		@ frame_needed = 0, uses_anonymous_args = 0
 872              		@ link register save eliminated.
 420:.\stlib\STM32F10x_StdPeriph_Driver\src/stm32f10x_fsmc.c ****   /* Reset NAND Init structure parameters values */
 421:.\stlib\STM32F10x_StdPeriph_Driver\src/stm32f10x_fsmc.c ****   FSMC_NANDInitStruct->FSMC_Bank = FSMC_Bank2_NAND;
 873              		.loc 1 421 3 view .LVU270
 874              	@ .\stlib\STM32F10x_StdPeriph_Driver\src\stm32f10x_fsmc.c:422:   FSMC_NANDInitStruct->FSMC_Waitfeat
 422:.\stlib\STM32F10x_StdPeriph_Driver\src/stm32f10x_fsmc.c ****   FSMC_NANDInitStruct->FSMC_Waitfeature = FSMC_Waitfeature_Disable;
 875              		.loc 1 422 41 is_stmt 0 view .LVU271
 876 023a 0023     		movs	r3, #0	@ tmp114,
 877 023c 1022     		movs	r2, #16	@,
 878              	@ .\stlib\STM32F10x_StdPeriph_Driver\src\stm32f10x_fsmc.c:424:   FSMC_NANDInitStruct->FSMC_ECC = FS
 423:.\stlib\STM32F10x_StdPeriph_Driver\src/stm32f10x_fsmc.c ****   FSMC_NANDInitStruct->FSMC_MemoryDataWidth = FSMC_MemoryDataWidth_8b;
 424:.\stlib\STM32F10x_StdPeriph_Driver\src/stm32f10x_fsmc.c ****   FSMC_NANDInitStruct->FSMC_ECC = FSMC_ECC_Disable;
 879              		.loc 1 424 33 view .LVU272
 880 023e C0E90233 		strd	r3, r3, [r0, #8]	@ tmp114, tmp114, FSMC_NANDInitStruct,
 881              	@ .\stlib\STM32F10x_StdPeriph_Driver\src\stm32f10x_fsmc.c:422:   FSMC_NANDInitStruct->FSMC_Waitfeat
 422:.\stlib\STM32F10x_StdPeriph_Driver\src/stm32f10x_fsmc.c ****   FSMC_NANDInitStruct->FSMC_Waitfeature = FSMC_Waitfeature_Disable;
 882              		.loc 1 422 41 view .LVU273
 883 0242 C0E90023 		strd	r2, r3, [r0]	@, tmp114, FSMC_NANDInitStruct
 423:.\stlib\STM32F10x_StdPeriph_Driver\src/stm32f10x_fsmc.c ****   FSMC_NANDInitStruct->FSMC_MemoryDataWidth = FSMC_MemoryDataWidth_8b;
 884              		.loc 1 423 3 is_stmt 1 view .LVU274
 425:.\stlib\STM32F10x_StdPeriph_Driver\src/stm32f10x_fsmc.c ****   FSMC_NANDInitStruct->FSMC_ECCPageSize = FSMC_ECCPageSize_256Bytes;
 885              		.loc 1 425 3 view .LVU275
 886              	@ .\stlib\STM32F10x_StdPeriph_Driver\src\stm32f10x_fsmc.c:426:   FSMC_NANDInitStruct->FSMC_TCLRSetu
 426:.\stlib\STM32F10x_StdPeriph_Driver\src/stm32f10x_fsmc.c ****   FSMC_NANDInitStruct->FSMC_TCLRSetupTime = 0x0;
 887              		.loc 1 426 43 is_stmt 0 view .LVU276
 888 0246 C0E90433 		strd	r3, r3, [r0, #16]	@ tmp114, tmp114, FSMC_NANDInitStruct,
 427:.\stlib\STM32F10x_StdPeriph_Driver\src/stm32f10x_fsmc.c ****   FSMC_NANDInitStruct->FSMC_TARSetupTime = 0x0;
 889              		.loc 1 427 3 is_stmt 1 view .LVU277
 890              	@ .\stlib\STM32F10x_StdPeriph_Driver\src\stm32f10x_fsmc.c:427:   FSMC_NANDInitStruct->FSMC_TARSetup
 891              		.loc 1 427 42 is_stmt 0 view .LVU278
 892 024a 8361     		str	r3, [r0, #24]	@ tmp114, FSMC_NANDInitStruct_4(D)->FSMC_TARSetupTime
 428:.\stlib\STM32F10x_StdPeriph_Driver\src/stm32f10x_fsmc.c ****   FSMC_NANDInitStruct->FSMC_CommonSpaceTimingStruct->FSMC_SetupTime = 0xFC;
 893              		.loc 1 428 3 is_stmt 1 view .LVU279
 894              	@ .\stlib\STM32F10x_StdPeriph_Driver\src\stm32f10x_fsmc.c:428:   FSMC_NANDInitStruct->FSMC_CommonSp
 895              		.loc 1 428 69 is_stmt 0 view .LVU280
 896 024c FC23     		movs	r3, #252	@ tmp120,
 897              	@ .\stlib\STM32F10x_StdPeriph_Driver\src\stm32f10x_fsmc.c:428:   FSMC_NANDInitStruct->FSMC_CommonSp
 898              		.loc 1 428 22 view .LVU281
 899 024e C269     		ldr	r2, [r0, #28]	@ _1, FSMC_NANDInitStruct_4(D)->FSMC_CommonSpaceTimingStruct
 900              	@ .\stlib\STM32F10x_StdPeriph_Driver\src\stm32f10x_fsmc.c:429:   FSMC_NANDInitStruct->FSMC_CommonSp
 429:.\stlib\STM32F10x_StdPeriph_Driver\src/stm32f10x_fsmc.c ****   FSMC_NANDInitStruct->FSMC_CommonSpaceTimingStruct->FSMC_WaitSetupTime = 0xFC;
 901              		.loc 1 429 73 view .LVU282
 902 0250 C2E90033 		strd	r3, r3, [r2]	@ tmp120, tmp120, _1
ARM GAS  C:\Users\skey\AppData\Local\Temp\ccFDdSGQ.s 			page 26


 430:.\stlib\STM32F10x_StdPeriph_Driver\src/stm32f10x_fsmc.c ****   FSMC_NANDInitStruct->FSMC_CommonSpaceTimingStruct->FSMC_HoldSetupTime = 0xFC;
 903              		.loc 1 430 3 is_stmt 1 view .LVU283
 904              	@ .\stlib\STM32F10x_StdPeriph_Driver\src\stm32f10x_fsmc.c:431:   FSMC_NANDInitStruct->FSMC_CommonSp
 431:.\stlib\STM32F10x_StdPeriph_Driver\src/stm32f10x_fsmc.c ****   FSMC_NANDInitStruct->FSMC_CommonSpaceTimingStruct->FSMC_HiZSetupTime = 0xFC;
 905              		.loc 1 431 72 is_stmt 0 view .LVU284
 906 0254 C2E90233 		strd	r3, r3, [r2, #8]	@ tmp120, tmp120, _1,
 432:.\stlib\STM32F10x_StdPeriph_Driver\src/stm32f10x_fsmc.c ****   FSMC_NANDInitStruct->FSMC_AttributeSpaceTimingStruct->FSMC_SetupTime = 0xFC;
 907              		.loc 1 432 3 is_stmt 1 view .LVU285
 908              	@ .\stlib\STM32F10x_StdPeriph_Driver\src\stm32f10x_fsmc.c:432:   FSMC_NANDInitStruct->FSMC_Attribut
 909              		.loc 1 432 22 is_stmt 0 view .LVU286
 910 0258 026A     		ldr	r2, [r0, #32]	@ _2, FSMC_NANDInitStruct_4(D)->FSMC_AttributeSpaceTimingStruct
 911              	@ .\stlib\STM32F10x_StdPeriph_Driver\src\stm32f10x_fsmc.c:433:   FSMC_NANDInitStruct->FSMC_Attribut
 433:.\stlib\STM32F10x_StdPeriph_Driver\src/stm32f10x_fsmc.c ****   FSMC_NANDInitStruct->FSMC_AttributeSpaceTimingStruct->FSMC_WaitSetupTime = 0xFC;
 912              		.loc 1 433 76 view .LVU287
 913 025a C2E90033 		strd	r3, r3, [r2]	@ tmp120, tmp120, _2
 434:.\stlib\STM32F10x_StdPeriph_Driver\src/stm32f10x_fsmc.c ****   FSMC_NANDInitStruct->FSMC_AttributeSpaceTimingStruct->FSMC_HoldSetupTime = 0xFC;
 914              		.loc 1 434 3 is_stmt 1 view .LVU288
 915              	@ .\stlib\STM32F10x_StdPeriph_Driver\src\stm32f10x_fsmc.c:435:   FSMC_NANDInitStruct->FSMC_Attribut
 435:.\stlib\STM32F10x_StdPeriph_Driver\src/stm32f10x_fsmc.c ****   FSMC_NANDInitStruct->FSMC_AttributeSpaceTimingStruct->FSMC_HiZSetupTime = 0xFC;	  
 916              		.loc 1 435 75 is_stmt 0 view .LVU289
 917 025e C2E90233 		strd	r3, r3, [r2, #8]	@ tmp120, tmp120, _2,
 918              	@ .\stlib\STM32F10x_StdPeriph_Driver\src\stm32f10x_fsmc.c:436: }
 436:.\stlib\STM32F10x_StdPeriph_Driver\src/stm32f10x_fsmc.c **** }
 919              		.loc 1 436 1 view .LVU290
 920 0262 7047     		bx	lr	@
 921              		.cfi_endproc
 922              	.LFE36:
 923              		.size	FSMC_NANDStructInit, .-FSMC_NANDStructInit
 924              		.align	1
 925              		.global	FSMC_PCCARDStructInit
 926              		.syntax unified
 927              		.thumb
 928              		.thumb_func
 929              		.fpu softvfp
 930              		.type	FSMC_PCCARDStructInit, %function
 931              	FSMC_PCCARDStructInit:
 932              	.LVL13:
 933              	.LFB37:
 437:.\stlib\STM32F10x_StdPeriph_Driver\src/stm32f10x_fsmc.c **** 
 438:.\stlib\STM32F10x_StdPeriph_Driver\src/stm32f10x_fsmc.c **** /**
 439:.\stlib\STM32F10x_StdPeriph_Driver\src/stm32f10x_fsmc.c ****   * @brief  Fills each FSMC_PCCARDInitStruct member with its default value.
 440:.\stlib\STM32F10x_StdPeriph_Driver\src/stm32f10x_fsmc.c ****   * @param  FSMC_PCCARDInitStruct: pointer to a FSMC_PCCARDInitTypeDef 
 441:.\stlib\STM32F10x_StdPeriph_Driver\src/stm32f10x_fsmc.c ****   *         structure which will be initialized.
 442:.\stlib\STM32F10x_StdPeriph_Driver\src/stm32f10x_fsmc.c ****   * @retval None
 443:.\stlib\STM32F10x_StdPeriph_Driver\src/stm32f10x_fsmc.c ****   */
 444:.\stlib\STM32F10x_StdPeriph_Driver\src/stm32f10x_fsmc.c **** void FSMC_PCCARDStructInit(FSMC_PCCARDInitTypeDef* FSMC_PCCARDInitStruct)
 445:.\stlib\STM32F10x_StdPeriph_Driver\src/stm32f10x_fsmc.c **** {
 934              		.loc 1 445 1 is_stmt 1 view -0
 935              		.cfi_startproc
 936              		@ args = 0, pretend = 0, frame = 0
 937              		@ frame_needed = 0, uses_anonymous_args = 0
 938              		@ link register save eliminated.
 446:.\stlib\STM32F10x_StdPeriph_Driver\src/stm32f10x_fsmc.c ****   /* Reset PCCARD Init structure parameters values */
 447:.\stlib\STM32F10x_StdPeriph_Driver\src/stm32f10x_fsmc.c ****   FSMC_PCCARDInitStruct->FSMC_Waitfeature = FSMC_Waitfeature_Disable;
 939              		.loc 1 447 3 view .LVU292
 940              	@ .\stlib\STM32F10x_StdPeriph_Driver\src\stm32f10x_fsmc.c:447:   FSMC_PCCARDInitStruct->FSMC_Waitfe
 941              		.loc 1 447 43 is_stmt 0 view .LVU293
ARM GAS  C:\Users\skey\AppData\Local\Temp\ccFDdSGQ.s 			page 27


 942 0264 0023     		movs	r3, #0	@ tmp114,
 943              	@ .\stlib\STM32F10x_StdPeriph_Driver\src\stm32f10x_fsmc.c:448:   FSMC_PCCARDInitStruct->FSMC_TCLRSe
 448:.\stlib\STM32F10x_StdPeriph_Driver\src/stm32f10x_fsmc.c ****   FSMC_PCCARDInitStruct->FSMC_TCLRSetupTime = 0x0;
 944              		.loc 1 448 45 view .LVU294
 945 0266 C0E90033 		strd	r3, r3, [r0]	@ tmp114, tmp114, FSMC_PCCARDInitStruct
 449:.\stlib\STM32F10x_StdPeriph_Driver\src/stm32f10x_fsmc.c ****   FSMC_PCCARDInitStruct->FSMC_TARSetupTime = 0x0;
 946              		.loc 1 449 3 is_stmt 1 view .LVU295
 947              	@ .\stlib\STM32F10x_StdPeriph_Driver\src\stm32f10x_fsmc.c:449:   FSMC_PCCARDInitStruct->FSMC_TARSet
 948              		.loc 1 449 44 is_stmt 0 view .LVU296
 949 026a 8360     		str	r3, [r0, #8]	@ tmp114, FSMC_PCCARDInitStruct_5(D)->FSMC_TARSetupTime
 450:.\stlib\STM32F10x_StdPeriph_Driver\src/stm32f10x_fsmc.c ****   FSMC_PCCARDInitStruct->FSMC_CommonSpaceTimingStruct->FSMC_SetupTime = 0xFC;
 950              		.loc 1 450 3 is_stmt 1 view .LVU297
 951              	@ .\stlib\STM32F10x_StdPeriph_Driver\src\stm32f10x_fsmc.c:450:   FSMC_PCCARDInitStruct->FSMC_Common
 952              		.loc 1 450 71 is_stmt 0 view .LVU298
 953 026c FC23     		movs	r3, #252	@ tmp117,
 954              	@ .\stlib\STM32F10x_StdPeriph_Driver\src\stm32f10x_fsmc.c:450:   FSMC_PCCARDInitStruct->FSMC_Common
 955              		.loc 1 450 24 view .LVU299
 956 026e C268     		ldr	r2, [r0, #12]	@ _1, FSMC_PCCARDInitStruct_5(D)->FSMC_CommonSpaceTimingStruct
 957              	@ .\stlib\STM32F10x_StdPeriph_Driver\src\stm32f10x_fsmc.c:451:   FSMC_PCCARDInitStruct->FSMC_Common
 451:.\stlib\STM32F10x_StdPeriph_Driver\src/stm32f10x_fsmc.c ****   FSMC_PCCARDInitStruct->FSMC_CommonSpaceTimingStruct->FSMC_WaitSetupTime = 0xFC;
 958              		.loc 1 451 75 view .LVU300
 959 0270 C2E90033 		strd	r3, r3, [r2]	@ tmp117, tmp117, _1
 452:.\stlib\STM32F10x_StdPeriph_Driver\src/stm32f10x_fsmc.c ****   FSMC_PCCARDInitStruct->FSMC_CommonSpaceTimingStruct->FSMC_HoldSetupTime = 0xFC;
 960              		.loc 1 452 3 is_stmt 1 view .LVU301
 961              	@ .\stlib\STM32F10x_StdPeriph_Driver\src\stm32f10x_fsmc.c:453:   FSMC_PCCARDInitStruct->FSMC_Common
 453:.\stlib\STM32F10x_StdPeriph_Driver\src/stm32f10x_fsmc.c ****   FSMC_PCCARDInitStruct->FSMC_CommonSpaceTimingStruct->FSMC_HiZSetupTime = 0xFC;
 962              		.loc 1 453 74 is_stmt 0 view .LVU302
 963 0274 C2E90233 		strd	r3, r3, [r2, #8]	@ tmp117, tmp117, _1,
 454:.\stlib\STM32F10x_StdPeriph_Driver\src/stm32f10x_fsmc.c ****   FSMC_PCCARDInitStruct->FSMC_AttributeSpaceTimingStruct->FSMC_SetupTime = 0xFC;
 964              		.loc 1 454 3 is_stmt 1 view .LVU303
 965              	@ .\stlib\STM32F10x_StdPeriph_Driver\src\stm32f10x_fsmc.c:454:   FSMC_PCCARDInitStruct->FSMC_Attrib
 966              		.loc 1 454 24 is_stmt 0 view .LVU304
 967 0278 0269     		ldr	r2, [r0, #16]	@ _2, FSMC_PCCARDInitStruct_5(D)->FSMC_AttributeSpaceTimingStruct
 968              	@ .\stlib\STM32F10x_StdPeriph_Driver\src\stm32f10x_fsmc.c:455:   FSMC_PCCARDInitStruct->FSMC_Attrib
 455:.\stlib\STM32F10x_StdPeriph_Driver\src/stm32f10x_fsmc.c ****   FSMC_PCCARDInitStruct->FSMC_AttributeSpaceTimingStruct->FSMC_WaitSetupTime = 0xFC;
 969              		.loc 1 455 78 view .LVU305
 970 027a C2E90033 		strd	r3, r3, [r2]	@ tmp117, tmp117, _2
 456:.\stlib\STM32F10x_StdPeriph_Driver\src/stm32f10x_fsmc.c ****   FSMC_PCCARDInitStruct->FSMC_AttributeSpaceTimingStruct->FSMC_HoldSetupTime = 0xFC;
 971              		.loc 1 456 3 is_stmt 1 view .LVU306
 972              	@ .\stlib\STM32F10x_StdPeriph_Driver\src\stm32f10x_fsmc.c:457:   FSMC_PCCARDInitStruct->FSMC_Attrib
 457:.\stlib\STM32F10x_StdPeriph_Driver\src/stm32f10x_fsmc.c ****   FSMC_PCCARDInitStruct->FSMC_AttributeSpaceTimingStruct->FSMC_HiZSetupTime = 0xFC;	
 973              		.loc 1 457 77 is_stmt 0 view .LVU307
 974 027e C2E90233 		strd	r3, r3, [r2, #8]	@ tmp117, tmp117, _2,
 458:.\stlib\STM32F10x_StdPeriph_Driver\src/stm32f10x_fsmc.c ****   FSMC_PCCARDInitStruct->FSMC_IOSpaceTimingStruct->FSMC_SetupTime = 0xFC;
 975              		.loc 1 458 3 is_stmt 1 view .LVU308
 976              	@ .\stlib\STM32F10x_StdPeriph_Driver\src\stm32f10x_fsmc.c:458:   FSMC_PCCARDInitStruct->FSMC_IOSpac
 977              		.loc 1 458 24 is_stmt 0 view .LVU309
 978 0282 4269     		ldr	r2, [r0, #20]	@ _3, FSMC_PCCARDInitStruct_5(D)->FSMC_IOSpaceTimingStruct
 979              	@ .\stlib\STM32F10x_StdPeriph_Driver\src\stm32f10x_fsmc.c:459:   FSMC_PCCARDInitStruct->FSMC_IOSpac
 459:.\stlib\STM32F10x_StdPeriph_Driver\src/stm32f10x_fsmc.c ****   FSMC_PCCARDInitStruct->FSMC_IOSpaceTimingStruct->FSMC_WaitSetupTime = 0xFC;
 980              		.loc 1 459 71 view .LVU310
 981 0284 C2E90033 		strd	r3, r3, [r2]	@ tmp117, tmp117, _3
 460:.\stlib\STM32F10x_StdPeriph_Driver\src/stm32f10x_fsmc.c ****   FSMC_PCCARDInitStruct->FSMC_IOSpaceTimingStruct->FSMC_HoldSetupTime = 0xFC;
 982              		.loc 1 460 3 is_stmt 1 view .LVU311
 983              	@ .\stlib\STM32F10x_StdPeriph_Driver\src\stm32f10x_fsmc.c:461:   FSMC_PCCARDInitStruct->FSMC_IOSpac
 461:.\stlib\STM32F10x_StdPeriph_Driver\src/stm32f10x_fsmc.c ****   FSMC_PCCARDInitStruct->FSMC_IOSpaceTimingStruct->FSMC_HiZSetupTime = 0xFC;
 984              		.loc 1 461 70 is_stmt 0 view .LVU312
ARM GAS  C:\Users\skey\AppData\Local\Temp\ccFDdSGQ.s 			page 28


 985 0288 C2E90233 		strd	r3, r3, [r2, #8]	@ tmp117, tmp117, _3,
 986              	@ .\stlib\STM32F10x_StdPeriph_Driver\src\stm32f10x_fsmc.c:462: }
 462:.\stlib\STM32F10x_StdPeriph_Driver\src/stm32f10x_fsmc.c **** }
 987              		.loc 1 462 1 view .LVU313
 988 028c 7047     		bx	lr	@
 989              		.cfi_endproc
 990              	.LFE37:
 991              		.size	FSMC_PCCARDStructInit, .-FSMC_PCCARDStructInit
 992              		.align	1
 993              		.global	FSMC_NORSRAMCmd
 994              		.syntax unified
 995              		.thumb
 996              		.thumb_func
 997              		.fpu softvfp
 998              		.type	FSMC_NORSRAMCmd, %function
 999              	FSMC_NORSRAMCmd:
 1000              	.LVL14:
 1001              	.LFB38:
 463:.\stlib\STM32F10x_StdPeriph_Driver\src/stm32f10x_fsmc.c **** 
 464:.\stlib\STM32F10x_StdPeriph_Driver\src/stm32f10x_fsmc.c **** /**
 465:.\stlib\STM32F10x_StdPeriph_Driver\src/stm32f10x_fsmc.c ****   * @brief  Enables or disables the specified NOR/SRAM Memory Bank.
 466:.\stlib\STM32F10x_StdPeriph_Driver\src/stm32f10x_fsmc.c ****   * @param  FSMC_Bank: specifies the FSMC Bank to be used
 467:.\stlib\STM32F10x_StdPeriph_Driver\src/stm32f10x_fsmc.c ****   *   This parameter can be one of the following values:
 468:.\stlib\STM32F10x_StdPeriph_Driver\src/stm32f10x_fsmc.c ****   *     @arg FSMC_Bank1_NORSRAM1: FSMC Bank1 NOR/SRAM1  
 469:.\stlib\STM32F10x_StdPeriph_Driver\src/stm32f10x_fsmc.c ****   *     @arg FSMC_Bank1_NORSRAM2: FSMC Bank1 NOR/SRAM2 
 470:.\stlib\STM32F10x_StdPeriph_Driver\src/stm32f10x_fsmc.c ****   *     @arg FSMC_Bank1_NORSRAM3: FSMC Bank1 NOR/SRAM3 
 471:.\stlib\STM32F10x_StdPeriph_Driver\src/stm32f10x_fsmc.c ****   *     @arg FSMC_Bank1_NORSRAM4: FSMC Bank1 NOR/SRAM4 
 472:.\stlib\STM32F10x_StdPeriph_Driver\src/stm32f10x_fsmc.c ****   * @param  NewState: new state of the FSMC_Bank. This parameter can be: ENABLE or DISABLE.
 473:.\stlib\STM32F10x_StdPeriph_Driver\src/stm32f10x_fsmc.c ****   * @retval None
 474:.\stlib\STM32F10x_StdPeriph_Driver\src/stm32f10x_fsmc.c ****   */
 475:.\stlib\STM32F10x_StdPeriph_Driver\src/stm32f10x_fsmc.c **** void FSMC_NORSRAMCmd(uint32_t FSMC_Bank, FunctionalState NewState)
 476:.\stlib\STM32F10x_StdPeriph_Driver\src/stm32f10x_fsmc.c **** {
 1002              		.loc 1 476 1 is_stmt 1 view -0
 1003              		.cfi_startproc
 1004              		@ args = 0, pretend = 0, frame = 0
 1005              		@ frame_needed = 0, uses_anonymous_args = 0
 1006              		@ link register save eliminated.
 477:.\stlib\STM32F10x_StdPeriph_Driver\src/stm32f10x_fsmc.c ****   assert_param(IS_FSMC_NORSRAM_BANK(FSMC_Bank));
 1007              		.loc 1 477 3 view .LVU315
 478:.\stlib\STM32F10x_StdPeriph_Driver\src/stm32f10x_fsmc.c ****   assert_param(IS_FUNCTIONAL_STATE(NewState));
 1008              		.loc 1 478 3 view .LVU316
 479:.\stlib\STM32F10x_StdPeriph_Driver\src/stm32f10x_fsmc.c ****   
 480:.\stlib\STM32F10x_StdPeriph_Driver\src/stm32f10x_fsmc.c ****   if (NewState != DISABLE)
 1009              		.loc 1 480 3 view .LVU317
 1010 028e 8000     		lsls	r0, r0, #2	@ tmp123, tmp124,
 1011              	.LVL15:
 1012              		.loc 1 480 3 is_stmt 0 view .LVU318
 1013 0290 00F12040 		add	r0, r0, #-1610612736	@ _16, tmp123,
 1014              	@ .\stlib\STM32F10x_StdPeriph_Driver\src\stm32f10x_fsmc.c:480:   if (NewState != DISABLE)
 1015              		.loc 1 480 6 view .LVU319
 1016 0294 21B1     		cbz	r1, .L31	@ tmp125,
 481:.\stlib\STM32F10x_StdPeriph_Driver\src/stm32f10x_fsmc.c ****   {
 482:.\stlib\STM32F10x_StdPeriph_Driver\src/stm32f10x_fsmc.c ****     /* Enable the selected NOR/SRAM Bank by setting the PBKEN bit in the BCRx register */
 483:.\stlib\STM32F10x_StdPeriph_Driver\src/stm32f10x_fsmc.c ****     FSMC_Bank1->BTCR[FSMC_Bank] |= BCR_MBKEN_Set;
 1017              		.loc 1 483 5 is_stmt 1 view .LVU320
 1018              	@ .\stlib\STM32F10x_StdPeriph_Driver\src\stm32f10x_fsmc.c:483:     FSMC_Bank1->BTCR[FSMC_Bank] |= B
 1019              		.loc 1 483 33 is_stmt 0 view .LVU321
ARM GAS  C:\Users\skey\AppData\Local\Temp\ccFDdSGQ.s 			page 29


 1020 0296 0368     		ldr	r3, [r0]	@ _1, MEM[(struct FSMC_Bank1_TypeDef *)_16]
 1021 0298 43F00103 		orr	r3, r3, #1	@ _2, _1,
 1022              	.L33:
 1023              	@ .\stlib\STM32F10x_StdPeriph_Driver\src\stm32f10x_fsmc.c:488:     FSMC_Bank1->BTCR[FSMC_Bank] &= B
 484:.\stlib\STM32F10x_StdPeriph_Driver\src/stm32f10x_fsmc.c ****   }
 485:.\stlib\STM32F10x_StdPeriph_Driver\src/stm32f10x_fsmc.c ****   else
 486:.\stlib\STM32F10x_StdPeriph_Driver\src/stm32f10x_fsmc.c ****   {
 487:.\stlib\STM32F10x_StdPeriph_Driver\src/stm32f10x_fsmc.c ****     /* Disable the selected NOR/SRAM Bank by clearing the PBKEN bit in the BCRx register */
 488:.\stlib\STM32F10x_StdPeriph_Driver\src/stm32f10x_fsmc.c ****     FSMC_Bank1->BTCR[FSMC_Bank] &= BCR_MBKEN_Reset;
 1024              		.loc 1 488 33 view .LVU322
 1025 029c 0360     		str	r3, [r0]	@ _4,* _12
 1026              	@ .\stlib\STM32F10x_StdPeriph_Driver\src\stm32f10x_fsmc.c:490: }
 489:.\stlib\STM32F10x_StdPeriph_Driver\src/stm32f10x_fsmc.c ****   }
 490:.\stlib\STM32F10x_StdPeriph_Driver\src/stm32f10x_fsmc.c **** }
 1027              		.loc 1 490 1 view .LVU323
 1028 029e 7047     		bx	lr	@
 1029              	.L31:
 488:.\stlib\STM32F10x_StdPeriph_Driver\src/stm32f10x_fsmc.c ****   }
 1030              		.loc 1 488 5 is_stmt 1 view .LVU324
 1031              	@ .\stlib\STM32F10x_StdPeriph_Driver\src\stm32f10x_fsmc.c:488:     FSMC_Bank1->BTCR[FSMC_Bank] &= B
 488:.\stlib\STM32F10x_StdPeriph_Driver\src/stm32f10x_fsmc.c ****   }
 1032              		.loc 1 488 33 is_stmt 0 view .LVU325
 1033 02a0 0268     		ldr	r2, [r0]	@ _3, MEM[(struct FSMC_Bank1_TypeDef *)_12]
 1034 02a2 014B     		ldr	r3, .L34	@ _4,
 1035 02a4 1340     		ands	r3, r3, r2	@, _4, _4, _3
 1036 02a6 F9E7     		b	.L33		@
 1037              	.L35:
 1038              		.align	2
 1039              	.L34:
 1040 02a8 FEFF0F00 		.word	1048574
 1041              		.cfi_endproc
 1042              	.LFE38:
 1043              		.size	FSMC_NORSRAMCmd, .-FSMC_NORSRAMCmd
 1044              		.align	1
 1045              		.global	FSMC_NANDCmd
 1046              		.syntax unified
 1047              		.thumb
 1048              		.thumb_func
 1049              		.fpu softvfp
 1050              		.type	FSMC_NANDCmd, %function
 1051              	FSMC_NANDCmd:
 1052              	.LVL16:
 1053              	.LFB39:
 491:.\stlib\STM32F10x_StdPeriph_Driver\src/stm32f10x_fsmc.c **** 
 492:.\stlib\STM32F10x_StdPeriph_Driver\src/stm32f10x_fsmc.c **** /**
 493:.\stlib\STM32F10x_StdPeriph_Driver\src/stm32f10x_fsmc.c ****   * @brief  Enables or disables the specified NAND Memory Bank.
 494:.\stlib\STM32F10x_StdPeriph_Driver\src/stm32f10x_fsmc.c ****   * @param  FSMC_Bank: specifies the FSMC Bank to be used
 495:.\stlib\STM32F10x_StdPeriph_Driver\src/stm32f10x_fsmc.c ****   *   This parameter can be one of the following values:
 496:.\stlib\STM32F10x_StdPeriph_Driver\src/stm32f10x_fsmc.c ****   *     @arg FSMC_Bank2_NAND: FSMC Bank2 NAND 
 497:.\stlib\STM32F10x_StdPeriph_Driver\src/stm32f10x_fsmc.c ****   *     @arg FSMC_Bank3_NAND: FSMC Bank3 NAND
 498:.\stlib\STM32F10x_StdPeriph_Driver\src/stm32f10x_fsmc.c ****   * @param  NewState: new state of the FSMC_Bank. This parameter can be: ENABLE or DISABLE.
 499:.\stlib\STM32F10x_StdPeriph_Driver\src/stm32f10x_fsmc.c ****   * @retval None
 500:.\stlib\STM32F10x_StdPeriph_Driver\src/stm32f10x_fsmc.c ****   */
 501:.\stlib\STM32F10x_StdPeriph_Driver\src/stm32f10x_fsmc.c **** void FSMC_NANDCmd(uint32_t FSMC_Bank, FunctionalState NewState)
 502:.\stlib\STM32F10x_StdPeriph_Driver\src/stm32f10x_fsmc.c **** {
 1054              		.loc 1 502 1 is_stmt 1 view -0
 1055              		.cfi_startproc
ARM GAS  C:\Users\skey\AppData\Local\Temp\ccFDdSGQ.s 			page 30


 1056              		@ args = 0, pretend = 0, frame = 0
 1057              		@ frame_needed = 0, uses_anonymous_args = 0
 1058              		@ link register save eliminated.
 503:.\stlib\STM32F10x_StdPeriph_Driver\src/stm32f10x_fsmc.c ****   assert_param(IS_FSMC_NAND_BANK(FSMC_Bank));
 1059              		.loc 1 503 3 view .LVU327
 504:.\stlib\STM32F10x_StdPeriph_Driver\src/stm32f10x_fsmc.c ****   assert_param(IS_FUNCTIONAL_STATE(NewState));
 1060              		.loc 1 504 3 view .LVU328
 505:.\stlib\STM32F10x_StdPeriph_Driver\src/stm32f10x_fsmc.c ****   
 506:.\stlib\STM32F10x_StdPeriph_Driver\src/stm32f10x_fsmc.c ****   if (NewState != DISABLE)
 1061              		.loc 1 506 3 view .LVU329
 1062              	@ .\stlib\STM32F10x_StdPeriph_Driver\src\stm32f10x_fsmc.c:506:   if (NewState != DISABLE)
 1063              		.loc 1 506 6 is_stmt 0 view .LVU330
 1064 02ac 41B1     		cbz	r1, .L37	@ tmp132,
 507:.\stlib\STM32F10x_StdPeriph_Driver\src/stm32f10x_fsmc.c ****   {
 508:.\stlib\STM32F10x_StdPeriph_Driver\src/stm32f10x_fsmc.c ****     /* Enable the selected NAND Bank by setting the PBKEN bit in the PCRx register */
 509:.\stlib\STM32F10x_StdPeriph_Driver\src/stm32f10x_fsmc.c ****     if(FSMC_Bank == FSMC_Bank2_NAND)
 1065              		.loc 1 509 5 is_stmt 1 view .LVU331
 1066              	@ .\stlib\STM32F10x_StdPeriph_Driver\src\stm32f10x_fsmc.c:509:     if(FSMC_Bank == FSMC_Bank2_NAND)
 1067              		.loc 1 509 7 is_stmt 0 view .LVU332
 1068 02ae 1028     		cmp	r0, #16	@ FSMC_Bank,
 510:.\stlib\STM32F10x_StdPeriph_Driver\src/stm32f10x_fsmc.c ****     {
 511:.\stlib\STM32F10x_StdPeriph_Driver\src/stm32f10x_fsmc.c ****       FSMC_Bank2->PCR2 |= PCR_PBKEN_Set;
 1069              		.loc 1 511 7 is_stmt 1 view .LVU333
 1070              	@ .\stlib\STM32F10x_StdPeriph_Driver\src\stm32f10x_fsmc.c:511:       FSMC_Bank2->PCR2 |= PCR_PBKEN_
 1071              		.loc 1 511 24 is_stmt 0 view .LVU334
 1072 02b0 0CBF     		ite	eq
 1073 02b2 074A     		ldreq	r2, .L44	@ tmp120,
 512:.\stlib\STM32F10x_StdPeriph_Driver\src/stm32f10x_fsmc.c ****     }
 513:.\stlib\STM32F10x_StdPeriph_Driver\src/stm32f10x_fsmc.c ****     else
 514:.\stlib\STM32F10x_StdPeriph_Driver\src/stm32f10x_fsmc.c ****     {
 515:.\stlib\STM32F10x_StdPeriph_Driver\src/stm32f10x_fsmc.c ****       FSMC_Bank3->PCR3 |= PCR_PBKEN_Set;
 1074              		.loc 1 515 7 is_stmt 1 view .LVU335
 1075              	@ .\stlib\STM32F10x_StdPeriph_Driver\src\stm32f10x_fsmc.c:515:       FSMC_Bank3->PCR3 |= PCR_PBKEN_
 1076              		.loc 1 515 24 is_stmt 0 view .LVU336
 1077 02b4 074A     		ldrne	r2, .L44+4	@ tmp122,
 1078 02b6 1368     		ldr	r3, [r2]	@ _3,
 1079 02b8 43F00403 		orr	r3, r3, #4	@ _4, _3,
 1080              	.LVL17:
 1081              	.L41:
 1082              	@ .\stlib\STM32F10x_StdPeriph_Driver\src\stm32f10x_fsmc.c:527:       FSMC_Bank3->PCR3 &= PCR_PBKEN_
 516:.\stlib\STM32F10x_StdPeriph_Driver\src/stm32f10x_fsmc.c ****     }
 517:.\stlib\STM32F10x_StdPeriph_Driver\src/stm32f10x_fsmc.c ****   }
 518:.\stlib\STM32F10x_StdPeriph_Driver\src/stm32f10x_fsmc.c ****   else
 519:.\stlib\STM32F10x_StdPeriph_Driver\src/stm32f10x_fsmc.c ****   {
 520:.\stlib\STM32F10x_StdPeriph_Driver\src/stm32f10x_fsmc.c ****     /* Disable the selected NAND Bank by clearing the PBKEN bit in the PCRx register */
 521:.\stlib\STM32F10x_StdPeriph_Driver\src/stm32f10x_fsmc.c ****     if(FSMC_Bank == FSMC_Bank2_NAND)
 522:.\stlib\STM32F10x_StdPeriph_Driver\src/stm32f10x_fsmc.c ****     {
 523:.\stlib\STM32F10x_StdPeriph_Driver\src/stm32f10x_fsmc.c ****       FSMC_Bank2->PCR2 &= PCR_PBKEN_Reset;
 524:.\stlib\STM32F10x_StdPeriph_Driver\src/stm32f10x_fsmc.c ****     }
 525:.\stlib\STM32F10x_StdPeriph_Driver\src/stm32f10x_fsmc.c ****     else
 526:.\stlib\STM32F10x_StdPeriph_Driver\src/stm32f10x_fsmc.c ****     {
 527:.\stlib\STM32F10x_StdPeriph_Driver\src/stm32f10x_fsmc.c ****       FSMC_Bank3->PCR3 &= PCR_PBKEN_Reset;
 1083              		.loc 1 527 24 view .LVU337
 1084 02bc 1360     		str	r3, [r2]	@ _8,
 1085              	@ .\stlib\STM32F10x_StdPeriph_Driver\src\stm32f10x_fsmc.c:530: }
 528:.\stlib\STM32F10x_StdPeriph_Driver\src/stm32f10x_fsmc.c ****     }
 529:.\stlib\STM32F10x_StdPeriph_Driver\src/stm32f10x_fsmc.c ****   }
ARM GAS  C:\Users\skey\AppData\Local\Temp\ccFDdSGQ.s 			page 31


 530:.\stlib\STM32F10x_StdPeriph_Driver\src/stm32f10x_fsmc.c **** }
 1086              		.loc 1 530 1 view .LVU338
 1087 02be 7047     		bx	lr	@
 1088              	.LVL18:
 1089              	.L37:
 521:.\stlib\STM32F10x_StdPeriph_Driver\src/stm32f10x_fsmc.c ****     {
 1090              		.loc 1 521 5 is_stmt 1 view .LVU339
 1091              	@ .\stlib\STM32F10x_StdPeriph_Driver\src\stm32f10x_fsmc.c:521:     if(FSMC_Bank == FSMC_Bank2_NAND)
 521:.\stlib\STM32F10x_StdPeriph_Driver\src/stm32f10x_fsmc.c ****     {
 1092              		.loc 1 521 7 is_stmt 0 view .LVU340
 1093 02c0 1028     		cmp	r0, #16	@ FSMC_Bank,
 1094              	@ .\stlib\STM32F10x_StdPeriph_Driver\src\stm32f10x_fsmc.c:523:       FSMC_Bank2->PCR2 &= PCR_PBKEN_
 523:.\stlib\STM32F10x_StdPeriph_Driver\src/stm32f10x_fsmc.c ****     }
 1095              		.loc 1 523 24 view .LVU341
 1096 02c2 0CBF     		ite	eq
 1097 02c4 024A     		ldreq	r2, .L44	@ tmp124,
 1098              	@ .\stlib\STM32F10x_StdPeriph_Driver\src\stm32f10x_fsmc.c:527:       FSMC_Bank3->PCR3 &= PCR_PBKEN_
 527:.\stlib\STM32F10x_StdPeriph_Driver\src/stm32f10x_fsmc.c ****     }
 1099              		.loc 1 527 24 view .LVU342
 1100 02c6 034A     		ldrne	r2, .L44+4	@ tmp127,
 1101 02c8 0349     		ldr	r1, .L44+8	@ tmp130,
 1102              	.LVL19:
 523:.\stlib\STM32F10x_StdPeriph_Driver\src/stm32f10x_fsmc.c ****     }
 1103              		.loc 1 523 7 is_stmt 1 view .LVU343
 527:.\stlib\STM32F10x_StdPeriph_Driver\src/stm32f10x_fsmc.c ****     }
 1104              		.loc 1 527 7 view .LVU344
 1105              	@ .\stlib\STM32F10x_StdPeriph_Driver\src\stm32f10x_fsmc.c:527:       FSMC_Bank3->PCR3 &= PCR_PBKEN_
 527:.\stlib\STM32F10x_StdPeriph_Driver\src/stm32f10x_fsmc.c ****     }
 1106              		.loc 1 527 24 is_stmt 0 view .LVU345
 1107 02ca 1368     		ldr	r3, [r2]	@ _7,
 1108 02cc 0B40     		ands	r3, r3, r1	@, _8, _7, tmp130
 1109 02ce F5E7     		b	.L41		@
 1110              	.L45:
 1111              		.align	2
 1112              	.L44:
 1113 02d0 600000A0 		.word	-1610612640
 1114 02d4 800000A0 		.word	-1610612608
 1115 02d8 FBFF0F00 		.word	1048571
 1116              		.cfi_endproc
 1117              	.LFE39:
 1118              		.size	FSMC_NANDCmd, .-FSMC_NANDCmd
 1119              		.align	1
 1120              		.global	FSMC_PCCARDCmd
 1121              		.syntax unified
 1122              		.thumb
 1123              		.thumb_func
 1124              		.fpu softvfp
 1125              		.type	FSMC_PCCARDCmd, %function
 1126              	FSMC_PCCARDCmd:
 1127              	.LVL20:
 1128              	.LFB40:
 531:.\stlib\STM32F10x_StdPeriph_Driver\src/stm32f10x_fsmc.c **** 
 532:.\stlib\STM32F10x_StdPeriph_Driver\src/stm32f10x_fsmc.c **** /**
 533:.\stlib\STM32F10x_StdPeriph_Driver\src/stm32f10x_fsmc.c ****   * @brief  Enables or disables the PCCARD Memory Bank.
 534:.\stlib\STM32F10x_StdPeriph_Driver\src/stm32f10x_fsmc.c ****   * @param  NewState: new state of the PCCARD Memory Bank.  
 535:.\stlib\STM32F10x_StdPeriph_Driver\src/stm32f10x_fsmc.c ****   *   This parameter can be: ENABLE or DISABLE.
 536:.\stlib\STM32F10x_StdPeriph_Driver\src/stm32f10x_fsmc.c ****   * @retval None
ARM GAS  C:\Users\skey\AppData\Local\Temp\ccFDdSGQ.s 			page 32


 537:.\stlib\STM32F10x_StdPeriph_Driver\src/stm32f10x_fsmc.c ****   */
 538:.\stlib\STM32F10x_StdPeriph_Driver\src/stm32f10x_fsmc.c **** void FSMC_PCCARDCmd(FunctionalState NewState)
 539:.\stlib\STM32F10x_StdPeriph_Driver\src/stm32f10x_fsmc.c **** {
 1129              		.loc 1 539 1 is_stmt 1 view -0
 1130              		.cfi_startproc
 1131              		@ args = 0, pretend = 0, frame = 0
 1132              		@ frame_needed = 0, uses_anonymous_args = 0
 1133              		@ link register save eliminated.
 540:.\stlib\STM32F10x_StdPeriph_Driver\src/stm32f10x_fsmc.c ****   assert_param(IS_FUNCTIONAL_STATE(NewState));
 1134              		.loc 1 540 3 view .LVU347
 541:.\stlib\STM32F10x_StdPeriph_Driver\src/stm32f10x_fsmc.c ****   
 542:.\stlib\STM32F10x_StdPeriph_Driver\src/stm32f10x_fsmc.c ****   if (NewState != DISABLE)
 1135              		.loc 1 542 3 view .LVU348
 1136 02dc 054B     		ldr	r3, .L50	@ tmp120,
 1137              	@ .\stlib\STM32F10x_StdPeriph_Driver\src\stm32f10x_fsmc.c:542:   if (NewState != DISABLE)
 1138              		.loc 1 542 6 is_stmt 0 view .LVU349
 1139 02de 20B1     		cbz	r0, .L47	@ tmp121,
 543:.\stlib\STM32F10x_StdPeriph_Driver\src/stm32f10x_fsmc.c ****   {
 544:.\stlib\STM32F10x_StdPeriph_Driver\src/stm32f10x_fsmc.c ****     /* Enable the PCCARD Bank by setting the PBKEN bit in the PCR4 register */
 545:.\stlib\STM32F10x_StdPeriph_Driver\src/stm32f10x_fsmc.c ****     FSMC_Bank4->PCR4 |= PCR_PBKEN_Set;
 1140              		.loc 1 545 5 is_stmt 1 view .LVU350
 1141              	@ .\stlib\STM32F10x_StdPeriph_Driver\src\stm32f10x_fsmc.c:545:     FSMC_Bank4->PCR4 |= PCR_PBKEN_Se
 1142              		.loc 1 545 22 is_stmt 0 view .LVU351
 1143 02e0 1A68     		ldr	r2, [r3]	@ _1, MEM[(struct FSMC_Bank4_TypeDef *)2684354720B].PCR4
 1144 02e2 42F00402 		orr	r2, r2, #4	@ _2, _1,
 1145              	.L49:
 1146              	@ .\stlib\STM32F10x_StdPeriph_Driver\src\stm32f10x_fsmc.c:550:     FSMC_Bank4->PCR4 &= PCR_PBKEN_Re
 546:.\stlib\STM32F10x_StdPeriph_Driver\src/stm32f10x_fsmc.c ****   }
 547:.\stlib\STM32F10x_StdPeriph_Driver\src/stm32f10x_fsmc.c ****   else
 548:.\stlib\STM32F10x_StdPeriph_Driver\src/stm32f10x_fsmc.c ****   {
 549:.\stlib\STM32F10x_StdPeriph_Driver\src/stm32f10x_fsmc.c ****     /* Disable the PCCARD Bank by clearing the PBKEN bit in the PCR4 register */
 550:.\stlib\STM32F10x_StdPeriph_Driver\src/stm32f10x_fsmc.c ****     FSMC_Bank4->PCR4 &= PCR_PBKEN_Reset;
 1147              		.loc 1 550 22 view .LVU352
 1148 02e6 1A60     		str	r2, [r3]	@ _4,
 1149              	@ .\stlib\STM32F10x_StdPeriph_Driver\src\stm32f10x_fsmc.c:552: }
 551:.\stlib\STM32F10x_StdPeriph_Driver\src/stm32f10x_fsmc.c ****   }
 552:.\stlib\STM32F10x_StdPeriph_Driver\src/stm32f10x_fsmc.c **** }
 1150              		.loc 1 552 1 view .LVU353
 1151 02e8 7047     		bx	lr	@
 1152              	.L47:
 550:.\stlib\STM32F10x_StdPeriph_Driver\src/stm32f10x_fsmc.c ****   }
 1153              		.loc 1 550 5 is_stmt 1 view .LVU354
 1154              	@ .\stlib\STM32F10x_StdPeriph_Driver\src\stm32f10x_fsmc.c:550:     FSMC_Bank4->PCR4 &= PCR_PBKEN_Re
 550:.\stlib\STM32F10x_StdPeriph_Driver\src/stm32f10x_fsmc.c ****   }
 1155              		.loc 1 550 22 is_stmt 0 view .LVU355
 1156 02ea 1968     		ldr	r1, [r3]	@ _3, MEM[(struct FSMC_Bank4_TypeDef *)2684354720B].PCR4
 1157 02ec 024A     		ldr	r2, .L50+4	@ _4,
 1158 02ee 0A40     		ands	r2, r2, r1	@, _4, _4, _3
 1159 02f0 F9E7     		b	.L49		@
 1160              	.L51:
 1161 02f2 00BF     		.align	2
 1162              	.L50:
 1163 02f4 A00000A0 		.word	-1610612576
 1164 02f8 FBFF0F00 		.word	1048571
 1165              		.cfi_endproc
 1166              	.LFE40:
 1167              		.size	FSMC_PCCARDCmd, .-FSMC_PCCARDCmd
ARM GAS  C:\Users\skey\AppData\Local\Temp\ccFDdSGQ.s 			page 33


 1168              		.align	1
 1169              		.global	FSMC_NANDECCCmd
 1170              		.syntax unified
 1171              		.thumb
 1172              		.thumb_func
 1173              		.fpu softvfp
 1174              		.type	FSMC_NANDECCCmd, %function
 1175              	FSMC_NANDECCCmd:
 1176              	.LVL21:
 1177              	.LFB41:
 553:.\stlib\STM32F10x_StdPeriph_Driver\src/stm32f10x_fsmc.c **** 
 554:.\stlib\STM32F10x_StdPeriph_Driver\src/stm32f10x_fsmc.c **** /**
 555:.\stlib\STM32F10x_StdPeriph_Driver\src/stm32f10x_fsmc.c ****   * @brief  Enables or disables the FSMC NAND ECC feature.
 556:.\stlib\STM32F10x_StdPeriph_Driver\src/stm32f10x_fsmc.c ****   * @param  FSMC_Bank: specifies the FSMC Bank to be used
 557:.\stlib\STM32F10x_StdPeriph_Driver\src/stm32f10x_fsmc.c ****   *   This parameter can be one of the following values:
 558:.\stlib\STM32F10x_StdPeriph_Driver\src/stm32f10x_fsmc.c ****   *     @arg FSMC_Bank2_NAND: FSMC Bank2 NAND 
 559:.\stlib\STM32F10x_StdPeriph_Driver\src/stm32f10x_fsmc.c ****   *     @arg FSMC_Bank3_NAND: FSMC Bank3 NAND
 560:.\stlib\STM32F10x_StdPeriph_Driver\src/stm32f10x_fsmc.c ****   * @param  NewState: new state of the FSMC NAND ECC feature.  
 561:.\stlib\STM32F10x_StdPeriph_Driver\src/stm32f10x_fsmc.c ****   *   This parameter can be: ENABLE or DISABLE.
 562:.\stlib\STM32F10x_StdPeriph_Driver\src/stm32f10x_fsmc.c ****   * @retval None
 563:.\stlib\STM32F10x_StdPeriph_Driver\src/stm32f10x_fsmc.c ****   */
 564:.\stlib\STM32F10x_StdPeriph_Driver\src/stm32f10x_fsmc.c **** void FSMC_NANDECCCmd(uint32_t FSMC_Bank, FunctionalState NewState)
 565:.\stlib\STM32F10x_StdPeriph_Driver\src/stm32f10x_fsmc.c **** {
 1178              		.loc 1 565 1 is_stmt 1 view -0
 1179              		.cfi_startproc
 1180              		@ args = 0, pretend = 0, frame = 0
 1181              		@ frame_needed = 0, uses_anonymous_args = 0
 1182              		@ link register save eliminated.
 566:.\stlib\STM32F10x_StdPeriph_Driver\src/stm32f10x_fsmc.c ****   assert_param(IS_FSMC_NAND_BANK(FSMC_Bank));
 1183              		.loc 1 566 3 view .LVU357
 567:.\stlib\STM32F10x_StdPeriph_Driver\src/stm32f10x_fsmc.c ****   assert_param(IS_FUNCTIONAL_STATE(NewState));
 1184              		.loc 1 567 3 view .LVU358
 568:.\stlib\STM32F10x_StdPeriph_Driver\src/stm32f10x_fsmc.c ****   
 569:.\stlib\STM32F10x_StdPeriph_Driver\src/stm32f10x_fsmc.c ****   if (NewState != DISABLE)
 1185              		.loc 1 569 3 view .LVU359
 1186              	@ .\stlib\STM32F10x_StdPeriph_Driver\src\stm32f10x_fsmc.c:569:   if (NewState != DISABLE)
 1187              		.loc 1 569 6 is_stmt 0 view .LVU360
 1188 02fc 41B1     		cbz	r1, .L53	@ tmp132,
 570:.\stlib\STM32F10x_StdPeriph_Driver\src/stm32f10x_fsmc.c ****   {
 571:.\stlib\STM32F10x_StdPeriph_Driver\src/stm32f10x_fsmc.c ****     /* Enable the selected NAND Bank ECC function by setting the ECCEN bit in the PCRx register */
 572:.\stlib\STM32F10x_StdPeriph_Driver\src/stm32f10x_fsmc.c ****     if(FSMC_Bank == FSMC_Bank2_NAND)
 1189              		.loc 1 572 5 is_stmt 1 view .LVU361
 1190              	@ .\stlib\STM32F10x_StdPeriph_Driver\src\stm32f10x_fsmc.c:572:     if(FSMC_Bank == FSMC_Bank2_NAND)
 1191              		.loc 1 572 7 is_stmt 0 view .LVU362
 1192 02fe 1028     		cmp	r0, #16	@ FSMC_Bank,
 573:.\stlib\STM32F10x_StdPeriph_Driver\src/stm32f10x_fsmc.c ****     {
 574:.\stlib\STM32F10x_StdPeriph_Driver\src/stm32f10x_fsmc.c ****       FSMC_Bank2->PCR2 |= PCR_ECCEN_Set;
 1193              		.loc 1 574 7 is_stmt 1 view .LVU363
 1194              	@ .\stlib\STM32F10x_StdPeriph_Driver\src\stm32f10x_fsmc.c:574:       FSMC_Bank2->PCR2 |= PCR_ECCEN_
 1195              		.loc 1 574 24 is_stmt 0 view .LVU364
 1196 0300 0CBF     		ite	eq
 1197 0302 074A     		ldreq	r2, .L60	@ tmp120,
 575:.\stlib\STM32F10x_StdPeriph_Driver\src/stm32f10x_fsmc.c ****     }
 576:.\stlib\STM32F10x_StdPeriph_Driver\src/stm32f10x_fsmc.c ****     else
 577:.\stlib\STM32F10x_StdPeriph_Driver\src/stm32f10x_fsmc.c ****     {
 578:.\stlib\STM32F10x_StdPeriph_Driver\src/stm32f10x_fsmc.c ****       FSMC_Bank3->PCR3 |= PCR_ECCEN_Set;
 1198              		.loc 1 578 7 is_stmt 1 view .LVU365
ARM GAS  C:\Users\skey\AppData\Local\Temp\ccFDdSGQ.s 			page 34


 1199              	@ .\stlib\STM32F10x_StdPeriph_Driver\src\stm32f10x_fsmc.c:578:       FSMC_Bank3->PCR3 |= PCR_ECCEN_
 1200              		.loc 1 578 24 is_stmt 0 view .LVU366
 1201 0304 074A     		ldrne	r2, .L60+4	@ tmp122,
 1202 0306 1368     		ldr	r3, [r2]	@ _3,
 1203 0308 43F04003 		orr	r3, r3, #64	@ _4, _3,
 1204              	.LVL22:
 1205              	.L57:
 1206              	@ .\stlib\STM32F10x_StdPeriph_Driver\src\stm32f10x_fsmc.c:590:       FSMC_Bank3->PCR3 &= PCR_ECCEN_
 579:.\stlib\STM32F10x_StdPeriph_Driver\src/stm32f10x_fsmc.c ****     }
 580:.\stlib\STM32F10x_StdPeriph_Driver\src/stm32f10x_fsmc.c ****   }
 581:.\stlib\STM32F10x_StdPeriph_Driver\src/stm32f10x_fsmc.c ****   else
 582:.\stlib\STM32F10x_StdPeriph_Driver\src/stm32f10x_fsmc.c ****   {
 583:.\stlib\STM32F10x_StdPeriph_Driver\src/stm32f10x_fsmc.c ****     /* Disable the selected NAND Bank ECC function by clearing the ECCEN bit in the PCRx register *
 584:.\stlib\STM32F10x_StdPeriph_Driver\src/stm32f10x_fsmc.c ****     if(FSMC_Bank == FSMC_Bank2_NAND)
 585:.\stlib\STM32F10x_StdPeriph_Driver\src/stm32f10x_fsmc.c ****     {
 586:.\stlib\STM32F10x_StdPeriph_Driver\src/stm32f10x_fsmc.c ****       FSMC_Bank2->PCR2 &= PCR_ECCEN_Reset;
 587:.\stlib\STM32F10x_StdPeriph_Driver\src/stm32f10x_fsmc.c ****     }
 588:.\stlib\STM32F10x_StdPeriph_Driver\src/stm32f10x_fsmc.c ****     else
 589:.\stlib\STM32F10x_StdPeriph_Driver\src/stm32f10x_fsmc.c ****     {
 590:.\stlib\STM32F10x_StdPeriph_Driver\src/stm32f10x_fsmc.c ****       FSMC_Bank3->PCR3 &= PCR_ECCEN_Reset;
 1207              		.loc 1 590 24 view .LVU367
 1208 030c 1360     		str	r3, [r2]	@ _8,
 1209              	@ .\stlib\STM32F10x_StdPeriph_Driver\src\stm32f10x_fsmc.c:593: }
 591:.\stlib\STM32F10x_StdPeriph_Driver\src/stm32f10x_fsmc.c ****     }
 592:.\stlib\STM32F10x_StdPeriph_Driver\src/stm32f10x_fsmc.c ****   }
 593:.\stlib\STM32F10x_StdPeriph_Driver\src/stm32f10x_fsmc.c **** }
 1210              		.loc 1 593 1 view .LVU368
 1211 030e 7047     		bx	lr	@
 1212              	.LVL23:
 1213              	.L53:
 584:.\stlib\STM32F10x_StdPeriph_Driver\src/stm32f10x_fsmc.c ****     {
 1214              		.loc 1 584 5 is_stmt 1 view .LVU369
 1215              	@ .\stlib\STM32F10x_StdPeriph_Driver\src\stm32f10x_fsmc.c:584:     if(FSMC_Bank == FSMC_Bank2_NAND)
 584:.\stlib\STM32F10x_StdPeriph_Driver\src/stm32f10x_fsmc.c ****     {
 1216              		.loc 1 584 7 is_stmt 0 view .LVU370
 1217 0310 1028     		cmp	r0, #16	@ FSMC_Bank,
 1218              	@ .\stlib\STM32F10x_StdPeriph_Driver\src\stm32f10x_fsmc.c:586:       FSMC_Bank2->PCR2 &= PCR_ECCEN_
 586:.\stlib\STM32F10x_StdPeriph_Driver\src/stm32f10x_fsmc.c ****     }
 1219              		.loc 1 586 24 view .LVU371
 1220 0312 0CBF     		ite	eq
 1221 0314 024A     		ldreq	r2, .L60	@ tmp124,
 1222              	@ .\stlib\STM32F10x_StdPeriph_Driver\src\stm32f10x_fsmc.c:590:       FSMC_Bank3->PCR3 &= PCR_ECCEN_
 590:.\stlib\STM32F10x_StdPeriph_Driver\src/stm32f10x_fsmc.c ****     }
 1223              		.loc 1 590 24 view .LVU372
 1224 0316 034A     		ldrne	r2, .L60+4	@ tmp127,
 1225 0318 0349     		ldr	r1, .L60+8	@ tmp130,
 1226              	.LVL24:
 586:.\stlib\STM32F10x_StdPeriph_Driver\src/stm32f10x_fsmc.c ****     }
 1227              		.loc 1 586 7 is_stmt 1 view .LVU373
 590:.\stlib\STM32F10x_StdPeriph_Driver\src/stm32f10x_fsmc.c ****     }
 1228              		.loc 1 590 7 view .LVU374
 1229              	@ .\stlib\STM32F10x_StdPeriph_Driver\src\stm32f10x_fsmc.c:590:       FSMC_Bank3->PCR3 &= PCR_ECCEN_
 590:.\stlib\STM32F10x_StdPeriph_Driver\src/stm32f10x_fsmc.c ****     }
 1230              		.loc 1 590 24 is_stmt 0 view .LVU375
 1231 031a 1368     		ldr	r3, [r2]	@ _7,
 1232 031c 0B40     		ands	r3, r3, r1	@, _8, _7, tmp130
 1233 031e F5E7     		b	.L57		@
ARM GAS  C:\Users\skey\AppData\Local\Temp\ccFDdSGQ.s 			page 35


 1234              	.L61:
 1235              		.align	2
 1236              	.L60:
 1237 0320 600000A0 		.word	-1610612640
 1238 0324 800000A0 		.word	-1610612608
 1239 0328 BFFF0F00 		.word	1048511
 1240              		.cfi_endproc
 1241              	.LFE41:
 1242              		.size	FSMC_NANDECCCmd, .-FSMC_NANDECCCmd
 1243              		.align	1
 1244              		.global	FSMC_GetECC
 1245              		.syntax unified
 1246              		.thumb
 1247              		.thumb_func
 1248              		.fpu softvfp
 1249              		.type	FSMC_GetECC, %function
 1250              	FSMC_GetECC:
 1251              	.LVL25:
 1252              	.LFB42:
 594:.\stlib\STM32F10x_StdPeriph_Driver\src/stm32f10x_fsmc.c **** 
 595:.\stlib\STM32F10x_StdPeriph_Driver\src/stm32f10x_fsmc.c **** /**
 596:.\stlib\STM32F10x_StdPeriph_Driver\src/stm32f10x_fsmc.c ****   * @brief  Returns the error correction code register value.
 597:.\stlib\STM32F10x_StdPeriph_Driver\src/stm32f10x_fsmc.c ****   * @param  FSMC_Bank: specifies the FSMC Bank to be used
 598:.\stlib\STM32F10x_StdPeriph_Driver\src/stm32f10x_fsmc.c ****   *   This parameter can be one of the following values:
 599:.\stlib\STM32F10x_StdPeriph_Driver\src/stm32f10x_fsmc.c ****   *     @arg FSMC_Bank2_NAND: FSMC Bank2 NAND 
 600:.\stlib\STM32F10x_StdPeriph_Driver\src/stm32f10x_fsmc.c ****   *     @arg FSMC_Bank3_NAND: FSMC Bank3 NAND
 601:.\stlib\STM32F10x_StdPeriph_Driver\src/stm32f10x_fsmc.c ****   * @retval The Error Correction Code (ECC) value.
 602:.\stlib\STM32F10x_StdPeriph_Driver\src/stm32f10x_fsmc.c ****   */
 603:.\stlib\STM32F10x_StdPeriph_Driver\src/stm32f10x_fsmc.c **** uint32_t FSMC_GetECC(uint32_t FSMC_Bank)
 604:.\stlib\STM32F10x_StdPeriph_Driver\src/stm32f10x_fsmc.c **** {
 1253              		.loc 1 604 1 is_stmt 1 view -0
 1254              		.cfi_startproc
 1255              		@ args = 0, pretend = 0, frame = 0
 1256              		@ frame_needed = 0, uses_anonymous_args = 0
 1257              		@ link register save eliminated.
 605:.\stlib\STM32F10x_StdPeriph_Driver\src/stm32f10x_fsmc.c ****   uint32_t eccval = 0x00000000;
 1258              		.loc 1 605 3 view .LVU377
 606:.\stlib\STM32F10x_StdPeriph_Driver\src/stm32f10x_fsmc.c ****   
 607:.\stlib\STM32F10x_StdPeriph_Driver\src/stm32f10x_fsmc.c ****   if(FSMC_Bank == FSMC_Bank2_NAND)
 1259              		.loc 1 607 3 view .LVU378
 1260              	@ .\stlib\STM32F10x_StdPeriph_Driver\src\stm32f10x_fsmc.c:607:   if(FSMC_Bank == FSMC_Bank2_NAND)
 1261              		.loc 1 607 5 is_stmt 0 view .LVU379
 1262 032c 1028     		cmp	r0, #16	@ tmp115,
 608:.\stlib\STM32F10x_StdPeriph_Driver\src/stm32f10x_fsmc.c ****   {
 609:.\stlib\STM32F10x_StdPeriph_Driver\src/stm32f10x_fsmc.c ****     /* Get the ECCR2 register value */
 610:.\stlib\STM32F10x_StdPeriph_Driver\src/stm32f10x_fsmc.c ****     eccval = FSMC_Bank2->ECCR2;
 1263              		.loc 1 610 5 is_stmt 1 view .LVU380
 1264              	@ .\stlib\STM32F10x_StdPeriph_Driver\src\stm32f10x_fsmc.c:610:     eccval = FSMC_Bank2->ECCR2;
 1265              		.loc 1 610 12 is_stmt 0 view .LVU381
 1266 032e 0CBF     		ite	eq
 1267 0330 014B     		ldreq	r3, .L66	@ tmp112,
 611:.\stlib\STM32F10x_StdPeriph_Driver\src/stm32f10x_fsmc.c ****   }
 612:.\stlib\STM32F10x_StdPeriph_Driver\src/stm32f10x_fsmc.c ****   else
 613:.\stlib\STM32F10x_StdPeriph_Driver\src/stm32f10x_fsmc.c ****   {
 614:.\stlib\STM32F10x_StdPeriph_Driver\src/stm32f10x_fsmc.c ****     /* Get the ECCR3 register value */
 615:.\stlib\STM32F10x_StdPeriph_Driver\src/stm32f10x_fsmc.c ****     eccval = FSMC_Bank3->ECCR3;
 1268              		.loc 1 615 5 is_stmt 1 view .LVU382
ARM GAS  C:\Users\skey\AppData\Local\Temp\ccFDdSGQ.s 			page 36


 1269              	@ .\stlib\STM32F10x_StdPeriph_Driver\src\stm32f10x_fsmc.c:615:     eccval = FSMC_Bank3->ECCR3;
 1270              		.loc 1 615 12 is_stmt 0 view .LVU383
 1271 0332 024B     		ldrne	r3, .L66+4	@ tmp113,
 1272 0334 5869     		ldr	r0, [r3, #20]	@ <retval>,
 1273              	.LVL26:
 616:.\stlib\STM32F10x_StdPeriph_Driver\src/stm32f10x_fsmc.c ****   }
 617:.\stlib\STM32F10x_StdPeriph_Driver\src/stm32f10x_fsmc.c ****   /* Return the error correction code value */
 618:.\stlib\STM32F10x_StdPeriph_Driver\src/stm32f10x_fsmc.c ****   return(eccval);
 1274              		.loc 1 618 3 is_stmt 1 view .LVU384
 1275              	@ .\stlib\STM32F10x_StdPeriph_Driver\src\stm32f10x_fsmc.c:619: }
 619:.\stlib\STM32F10x_StdPeriph_Driver\src/stm32f10x_fsmc.c **** }
 1276              		.loc 1 619 1 is_stmt 0 view .LVU385
 1277 0336 7047     		bx	lr	@
 1278              	.L67:
 1279              		.align	2
 1280              	.L66:
 1281 0338 600000A0 		.word	-1610612640
 1282 033c 800000A0 		.word	-1610612608
 1283              		.cfi_endproc
 1284              	.LFE42:
 1285              		.size	FSMC_GetECC, .-FSMC_GetECC
 1286              		.align	1
 1287              		.global	FSMC_ITConfig
 1288              		.syntax unified
 1289              		.thumb
 1290              		.thumb_func
 1291              		.fpu softvfp
 1292              		.type	FSMC_ITConfig, %function
 1293              	FSMC_ITConfig:
 1294              	.LVL27:
 1295              	.LFB43:
 620:.\stlib\STM32F10x_StdPeriph_Driver\src/stm32f10x_fsmc.c **** 
 621:.\stlib\STM32F10x_StdPeriph_Driver\src/stm32f10x_fsmc.c **** /**
 622:.\stlib\STM32F10x_StdPeriph_Driver\src/stm32f10x_fsmc.c ****   * @brief  Enables or disables the specified FSMC interrupts.
 623:.\stlib\STM32F10x_StdPeriph_Driver\src/stm32f10x_fsmc.c ****   * @param  FSMC_Bank: specifies the FSMC Bank to be used
 624:.\stlib\STM32F10x_StdPeriph_Driver\src/stm32f10x_fsmc.c ****   *   This parameter can be one of the following values:
 625:.\stlib\STM32F10x_StdPeriph_Driver\src/stm32f10x_fsmc.c ****   *     @arg FSMC_Bank2_NAND: FSMC Bank2 NAND 
 626:.\stlib\STM32F10x_StdPeriph_Driver\src/stm32f10x_fsmc.c ****   *     @arg FSMC_Bank3_NAND: FSMC Bank3 NAND
 627:.\stlib\STM32F10x_StdPeriph_Driver\src/stm32f10x_fsmc.c ****   *     @arg FSMC_Bank4_PCCARD: FSMC Bank4 PCCARD
 628:.\stlib\STM32F10x_StdPeriph_Driver\src/stm32f10x_fsmc.c ****   * @param  FSMC_IT: specifies the FSMC interrupt sources to be enabled or disabled.
 629:.\stlib\STM32F10x_StdPeriph_Driver\src/stm32f10x_fsmc.c ****   *   This parameter can be any combination of the following values:
 630:.\stlib\STM32F10x_StdPeriph_Driver\src/stm32f10x_fsmc.c ****   *     @arg FSMC_IT_RisingEdge: Rising edge detection interrupt. 
 631:.\stlib\STM32F10x_StdPeriph_Driver\src/stm32f10x_fsmc.c ****   *     @arg FSMC_IT_Level: Level edge detection interrupt.
 632:.\stlib\STM32F10x_StdPeriph_Driver\src/stm32f10x_fsmc.c ****   *     @arg FSMC_IT_FallingEdge: Falling edge detection interrupt.
 633:.\stlib\STM32F10x_StdPeriph_Driver\src/stm32f10x_fsmc.c ****   * @param  NewState: new state of the specified FSMC interrupts.
 634:.\stlib\STM32F10x_StdPeriph_Driver\src/stm32f10x_fsmc.c ****   *   This parameter can be: ENABLE or DISABLE.
 635:.\stlib\STM32F10x_StdPeriph_Driver\src/stm32f10x_fsmc.c ****   * @retval None
 636:.\stlib\STM32F10x_StdPeriph_Driver\src/stm32f10x_fsmc.c ****   */
 637:.\stlib\STM32F10x_StdPeriph_Driver\src/stm32f10x_fsmc.c **** void FSMC_ITConfig(uint32_t FSMC_Bank, uint32_t FSMC_IT, FunctionalState NewState)
 638:.\stlib\STM32F10x_StdPeriph_Driver\src/stm32f10x_fsmc.c **** {
 1296              		.loc 1 638 1 is_stmt 1 view -0
 1297              		.cfi_startproc
 1298              		@ args = 0, pretend = 0, frame = 0
 1299              		@ frame_needed = 0, uses_anonymous_args = 0
 1300              		@ link register save eliminated.
 639:.\stlib\STM32F10x_StdPeriph_Driver\src/stm32f10x_fsmc.c ****   assert_param(IS_FSMC_IT_BANK(FSMC_Bank));
 1301              		.loc 1 639 3 view .LVU387
ARM GAS  C:\Users\skey\AppData\Local\Temp\ccFDdSGQ.s 			page 37


 640:.\stlib\STM32F10x_StdPeriph_Driver\src/stm32f10x_fsmc.c ****   assert_param(IS_FSMC_IT(FSMC_IT));	
 1302              		.loc 1 640 3 view .LVU388
 641:.\stlib\STM32F10x_StdPeriph_Driver\src/stm32f10x_fsmc.c ****   assert_param(IS_FUNCTIONAL_STATE(NewState));
 1303              		.loc 1 641 3 view .LVU389
 642:.\stlib\STM32F10x_StdPeriph_Driver\src/stm32f10x_fsmc.c ****   
 643:.\stlib\STM32F10x_StdPeriph_Driver\src/stm32f10x_fsmc.c ****   if (NewState != DISABLE)
 1304              		.loc 1 643 3 view .LVU390
 1305              	@ .\stlib\STM32F10x_StdPeriph_Driver\src\stm32f10x_fsmc.c:643:   if (NewState != DISABLE)
 1306              		.loc 1 643 6 is_stmt 0 view .LVU391
 1307 0340 62B1     		cbz	r2, .L69	@ tmp140,
 644:.\stlib\STM32F10x_StdPeriph_Driver\src/stm32f10x_fsmc.c ****   {
 645:.\stlib\STM32F10x_StdPeriph_Driver\src/stm32f10x_fsmc.c ****     /* Enable the selected FSMC_Bank2 interrupts */
 646:.\stlib\STM32F10x_StdPeriph_Driver\src/stm32f10x_fsmc.c ****     if(FSMC_Bank == FSMC_Bank2_NAND)
 1308              		.loc 1 646 5 is_stmt 1 view .LVU392
 1309              	@ .\stlib\STM32F10x_StdPeriph_Driver\src\stm32f10x_fsmc.c:646:     if(FSMC_Bank == FSMC_Bank2_NAND)
 1310              		.loc 1 646 7 is_stmt 0 view .LVU393
 1311 0342 1028     		cmp	r0, #16	@ FSMC_Bank,
 1312 0344 04D1     		bne	.L70		@,
 647:.\stlib\STM32F10x_StdPeriph_Driver\src/stm32f10x_fsmc.c ****     {
 648:.\stlib\STM32F10x_StdPeriph_Driver\src/stm32f10x_fsmc.c ****       FSMC_Bank2->SR2 |= FSMC_IT;
 1313              		.loc 1 648 7 is_stmt 1 view .LVU394
 1314              	@ .\stlib\STM32F10x_StdPeriph_Driver\src\stm32f10x_fsmc.c:648:       FSMC_Bank2->SR2 |= FSMC_IT;
 1315              		.loc 1 648 23 is_stmt 0 view .LVU395
 1316 0346 0C4A     		ldr	r2, .L78	@ tmp126,
 1317              	.LVL28:
 1318              	.L77:
 1319              	@ .\stlib\STM32F10x_StdPeriph_Driver\src\stm32f10x_fsmc.c:658:       FSMC_Bank4->SR4 |= FSMC_IT;   
 649:.\stlib\STM32F10x_StdPeriph_Driver\src/stm32f10x_fsmc.c ****     }
 650:.\stlib\STM32F10x_StdPeriph_Driver\src/stm32f10x_fsmc.c ****     /* Enable the selected FSMC_Bank3 interrupts */
 651:.\stlib\STM32F10x_StdPeriph_Driver\src/stm32f10x_fsmc.c ****     else if (FSMC_Bank == FSMC_Bank3_NAND)
 652:.\stlib\STM32F10x_StdPeriph_Driver\src/stm32f10x_fsmc.c ****     {
 653:.\stlib\STM32F10x_StdPeriph_Driver\src/stm32f10x_fsmc.c ****       FSMC_Bank3->SR3 |= FSMC_IT;
 654:.\stlib\STM32F10x_StdPeriph_Driver\src/stm32f10x_fsmc.c ****     }
 655:.\stlib\STM32F10x_StdPeriph_Driver\src/stm32f10x_fsmc.c ****     /* Enable the selected FSMC_Bank4 interrupts */
 656:.\stlib\STM32F10x_StdPeriph_Driver\src/stm32f10x_fsmc.c ****     else
 657:.\stlib\STM32F10x_StdPeriph_Driver\src/stm32f10x_fsmc.c ****     {
 658:.\stlib\STM32F10x_StdPeriph_Driver\src/stm32f10x_fsmc.c ****       FSMC_Bank4->SR4 |= FSMC_IT;    
 1320              		.loc 1 658 23 view .LVU396
 1321 0348 5368     		ldr	r3, [r2, #4]	@ _5,
 1322 034a 1943     		orrs	r1, r1, r3	@, _6, FSMC_IT, _5
 1323              	.LVL29:
 1324              	.L75:
 1325              	@ .\stlib\STM32F10x_StdPeriph_Driver\src\stm32f10x_fsmc.c:677:       FSMC_Bank4->SR4 &= (uint32_t)~
 659:.\stlib\STM32F10x_StdPeriph_Driver\src/stm32f10x_fsmc.c ****     }
 660:.\stlib\STM32F10x_StdPeriph_Driver\src/stm32f10x_fsmc.c ****   }
 661:.\stlib\STM32F10x_StdPeriph_Driver\src/stm32f10x_fsmc.c ****   else
 662:.\stlib\STM32F10x_StdPeriph_Driver\src/stm32f10x_fsmc.c ****   {
 663:.\stlib\STM32F10x_StdPeriph_Driver\src/stm32f10x_fsmc.c ****     /* Disable the selected FSMC_Bank2 interrupts */
 664:.\stlib\STM32F10x_StdPeriph_Driver\src/stm32f10x_fsmc.c ****     if(FSMC_Bank == FSMC_Bank2_NAND)
 665:.\stlib\STM32F10x_StdPeriph_Driver\src/stm32f10x_fsmc.c ****     {
 666:.\stlib\STM32F10x_StdPeriph_Driver\src/stm32f10x_fsmc.c ****       
 667:.\stlib\STM32F10x_StdPeriph_Driver\src/stm32f10x_fsmc.c ****       FSMC_Bank2->SR2 &= (uint32_t)~FSMC_IT;
 668:.\stlib\STM32F10x_StdPeriph_Driver\src/stm32f10x_fsmc.c ****     }
 669:.\stlib\STM32F10x_StdPeriph_Driver\src/stm32f10x_fsmc.c ****     /* Disable the selected FSMC_Bank3 interrupts */
 670:.\stlib\STM32F10x_StdPeriph_Driver\src/stm32f10x_fsmc.c ****     else if (FSMC_Bank == FSMC_Bank3_NAND)
 671:.\stlib\STM32F10x_StdPeriph_Driver\src/stm32f10x_fsmc.c ****     {
 672:.\stlib\STM32F10x_StdPeriph_Driver\src/stm32f10x_fsmc.c ****       FSMC_Bank3->SR3 &= (uint32_t)~FSMC_IT;
ARM GAS  C:\Users\skey\AppData\Local\Temp\ccFDdSGQ.s 			page 38


 673:.\stlib\STM32F10x_StdPeriph_Driver\src/stm32f10x_fsmc.c ****     }
 674:.\stlib\STM32F10x_StdPeriph_Driver\src/stm32f10x_fsmc.c ****     /* Disable the selected FSMC_Bank4 interrupts */
 675:.\stlib\STM32F10x_StdPeriph_Driver\src/stm32f10x_fsmc.c ****     else
 676:.\stlib\STM32F10x_StdPeriph_Driver\src/stm32f10x_fsmc.c ****     {
 677:.\stlib\STM32F10x_StdPeriph_Driver\src/stm32f10x_fsmc.c ****       FSMC_Bank4->SR4 &= (uint32_t)~FSMC_IT;    
 1326              		.loc 1 677 23 view .LVU397
 1327 034c 5160     		str	r1, [r2, #4]	@ _15,
 1328              	@ .\stlib\STM32F10x_StdPeriph_Driver\src\stm32f10x_fsmc.c:680: }
 678:.\stlib\STM32F10x_StdPeriph_Driver\src/stm32f10x_fsmc.c ****     }
 679:.\stlib\STM32F10x_StdPeriph_Driver\src/stm32f10x_fsmc.c ****   }
 680:.\stlib\STM32F10x_StdPeriph_Driver\src/stm32f10x_fsmc.c **** }
 1329              		.loc 1 680 1 view .LVU398
 1330 034e 7047     		bx	lr	@
 1331              	.LVL30:
 1332              	.L70:
 651:.\stlib\STM32F10x_StdPeriph_Driver\src/stm32f10x_fsmc.c ****     {
 1333              		.loc 1 651 10 is_stmt 1 view .LVU399
 1334              	@ .\stlib\STM32F10x_StdPeriph_Driver\src\stm32f10x_fsmc.c:651:     else if (FSMC_Bank == FSMC_Bank3
 651:.\stlib\STM32F10x_StdPeriph_Driver\src/stm32f10x_fsmc.c ****     {
 1335              		.loc 1 651 13 is_stmt 0 view .LVU400
 1336 0350 B0F5807F 		cmp	r0, #256	@ FSMC_Bank,
 653:.\stlib\STM32F10x_StdPeriph_Driver\src/stm32f10x_fsmc.c ****     }
 1337              		.loc 1 653 7 is_stmt 1 view .LVU401
 1338              	@ .\stlib\STM32F10x_StdPeriph_Driver\src\stm32f10x_fsmc.c:653:       FSMC_Bank3->SR3 |= FSMC_IT;
 653:.\stlib\STM32F10x_StdPeriph_Driver\src/stm32f10x_fsmc.c ****     }
 1339              		.loc 1 653 23 is_stmt 0 view .LVU402
 1340 0354 0CBF     		ite	eq
 1341 0356 094A     		ldreq	r2, .L78+4	@ tmp128,
 1342              	.LVL31:
 658:.\stlib\STM32F10x_StdPeriph_Driver\src/stm32f10x_fsmc.c ****     }
 1343              		.loc 1 658 7 is_stmt 1 view .LVU403
 1344              	@ .\stlib\STM32F10x_StdPeriph_Driver\src\stm32f10x_fsmc.c:658:       FSMC_Bank4->SR4 |= FSMC_IT;   
 658:.\stlib\STM32F10x_StdPeriph_Driver\src/stm32f10x_fsmc.c ****     }
 1345              		.loc 1 658 23 is_stmt 0 view .LVU404
 1346 0358 094A     		ldrne	r2, .L78+8	@ tmp130,
 1347 035a F5E7     		b	.L77		@
 1348              	.LVL32:
 1349              	.L69:
 664:.\stlib\STM32F10x_StdPeriph_Driver\src/stm32f10x_fsmc.c ****     {
 1350              		.loc 1 664 5 is_stmt 1 view .LVU405
 1351              	@ .\stlib\STM32F10x_StdPeriph_Driver\src\stm32f10x_fsmc.c:664:     if(FSMC_Bank == FSMC_Bank2_NAND)
 664:.\stlib\STM32F10x_StdPeriph_Driver\src/stm32f10x_fsmc.c ****     {
 1352              		.loc 1 664 7 is_stmt 0 view .LVU406
 1353 035c 1028     		cmp	r0, #16	@ FSMC_Bank,
 1354 035e 6FEA0101 		mvn	r1, r1	@ _28, FSMC_IT
 1355              	.LVL33:
 664:.\stlib\STM32F10x_StdPeriph_Driver\src/stm32f10x_fsmc.c ****     {
 1356              		.loc 1 664 7 view .LVU407
 1357 0362 03D1     		bne	.L73		@,
 667:.\stlib\STM32F10x_StdPeriph_Driver\src/stm32f10x_fsmc.c ****     }
 1358              		.loc 1 667 7 is_stmt 1 view .LVU408
 1359              	@ .\stlib\STM32F10x_StdPeriph_Driver\src\stm32f10x_fsmc.c:667:       FSMC_Bank2->SR2 &= (uint32_t)~
 667:.\stlib\STM32F10x_StdPeriph_Driver\src/stm32f10x_fsmc.c ****     }
 1360              		.loc 1 667 23 is_stmt 0 view .LVU409
 1361 0364 044A     		ldr	r2, .L78	@ tmp132,
 1362              	.LVL34:
 1363              	.L76:
ARM GAS  C:\Users\skey\AppData\Local\Temp\ccFDdSGQ.s 			page 39


 1364              	@ .\stlib\STM32F10x_StdPeriph_Driver\src\stm32f10x_fsmc.c:677:       FSMC_Bank4->SR4 &= (uint32_t)~
 677:.\stlib\STM32F10x_StdPeriph_Driver\src/stm32f10x_fsmc.c ****     }
 1365              		.loc 1 677 23 view .LVU410
 1366 0366 5368     		ldr	r3, [r2, #4]	@ _13,
 1367 0368 1940     		ands	r1, r1, r3	@, _15, _28, _13
 1368              	.LVL35:
 677:.\stlib\STM32F10x_StdPeriph_Driver\src/stm32f10x_fsmc.c ****     }
 1369              		.loc 1 677 23 view .LVU411
 1370 036a EFE7     		b	.L75		@
 1371              	.LVL36:
 1372              	.L73:
 670:.\stlib\STM32F10x_StdPeriph_Driver\src/stm32f10x_fsmc.c ****     {
 1373              		.loc 1 670 10 is_stmt 1 view .LVU412
 1374              	@ .\stlib\STM32F10x_StdPeriph_Driver\src\stm32f10x_fsmc.c:670:     else if (FSMC_Bank == FSMC_Bank3
 670:.\stlib\STM32F10x_StdPeriph_Driver\src/stm32f10x_fsmc.c ****     {
 1375              		.loc 1 670 13 is_stmt 0 view .LVU413
 1376 036c B0F5807F 		cmp	r0, #256	@ FSMC_Bank,
 672:.\stlib\STM32F10x_StdPeriph_Driver\src/stm32f10x_fsmc.c ****     }
 1377              		.loc 1 672 7 is_stmt 1 view .LVU414
 1378              	@ .\stlib\STM32F10x_StdPeriph_Driver\src\stm32f10x_fsmc.c:672:       FSMC_Bank3->SR3 &= (uint32_t)~
 672:.\stlib\STM32F10x_StdPeriph_Driver\src/stm32f10x_fsmc.c ****     }
 1379              		.loc 1 672 23 is_stmt 0 view .LVU415
 1380 0370 0CBF     		ite	eq
 1381 0372 024A     		ldreq	r2, .L78+4	@ tmp134,
 1382              	.LVL37:
 677:.\stlib\STM32F10x_StdPeriph_Driver\src/stm32f10x_fsmc.c ****     }
 1383              		.loc 1 677 7 is_stmt 1 view .LVU416
 1384              	@ .\stlib\STM32F10x_StdPeriph_Driver\src\stm32f10x_fsmc.c:677:       FSMC_Bank4->SR4 &= (uint32_t)~
 677:.\stlib\STM32F10x_StdPeriph_Driver\src/stm32f10x_fsmc.c ****     }
 1385              		.loc 1 677 23 is_stmt 0 view .LVU417
 1386 0374 024A     		ldrne	r2, .L78+8	@ tmp136,
 1387 0376 F6E7     		b	.L76		@
 1388              	.L79:
 1389              		.align	2
 1390              	.L78:
 1391 0378 600000A0 		.word	-1610612640
 1392 037c 800000A0 		.word	-1610612608
 1393 0380 A00000A0 		.word	-1610612576
 1394              		.cfi_endproc
 1395              	.LFE43:
 1396              		.size	FSMC_ITConfig, .-FSMC_ITConfig
 1397              		.align	1
 1398              		.global	FSMC_GetFlagStatus
 1399              		.syntax unified
 1400              		.thumb
 1401              		.thumb_func
 1402              		.fpu softvfp
 1403              		.type	FSMC_GetFlagStatus, %function
 1404              	FSMC_GetFlagStatus:
 1405              	.LVL38:
 1406              	.LFB44:
 681:.\stlib\STM32F10x_StdPeriph_Driver\src/stm32f10x_fsmc.c **** 
 682:.\stlib\STM32F10x_StdPeriph_Driver\src/stm32f10x_fsmc.c **** /**
 683:.\stlib\STM32F10x_StdPeriph_Driver\src/stm32f10x_fsmc.c ****   * @brief  Checks whether the specified FSMC flag is set or not.
 684:.\stlib\STM32F10x_StdPeriph_Driver\src/stm32f10x_fsmc.c ****   * @param  FSMC_Bank: specifies the FSMC Bank to be used
 685:.\stlib\STM32F10x_StdPeriph_Driver\src/stm32f10x_fsmc.c ****   *   This parameter can be one of the following values:
 686:.\stlib\STM32F10x_StdPeriph_Driver\src/stm32f10x_fsmc.c ****   *     @arg FSMC_Bank2_NAND: FSMC Bank2 NAND 
ARM GAS  C:\Users\skey\AppData\Local\Temp\ccFDdSGQ.s 			page 40


 687:.\stlib\STM32F10x_StdPeriph_Driver\src/stm32f10x_fsmc.c ****   *     @arg FSMC_Bank3_NAND: FSMC Bank3 NAND
 688:.\stlib\STM32F10x_StdPeriph_Driver\src/stm32f10x_fsmc.c ****   *     @arg FSMC_Bank4_PCCARD: FSMC Bank4 PCCARD
 689:.\stlib\STM32F10x_StdPeriph_Driver\src/stm32f10x_fsmc.c ****   * @param  FSMC_FLAG: specifies the flag to check.
 690:.\stlib\STM32F10x_StdPeriph_Driver\src/stm32f10x_fsmc.c ****   *   This parameter can be one of the following values:
 691:.\stlib\STM32F10x_StdPeriph_Driver\src/stm32f10x_fsmc.c ****   *     @arg FSMC_FLAG_RisingEdge: Rising egde detection Flag.
 692:.\stlib\STM32F10x_StdPeriph_Driver\src/stm32f10x_fsmc.c ****   *     @arg FSMC_FLAG_Level: Level detection Flag.
 693:.\stlib\STM32F10x_StdPeriph_Driver\src/stm32f10x_fsmc.c ****   *     @arg FSMC_FLAG_FallingEdge: Falling egde detection Flag.
 694:.\stlib\STM32F10x_StdPeriph_Driver\src/stm32f10x_fsmc.c ****   *     @arg FSMC_FLAG_FEMPT: Fifo empty Flag. 
 695:.\stlib\STM32F10x_StdPeriph_Driver\src/stm32f10x_fsmc.c ****   * @retval The new state of FSMC_FLAG (SET or RESET).
 696:.\stlib\STM32F10x_StdPeriph_Driver\src/stm32f10x_fsmc.c ****   */
 697:.\stlib\STM32F10x_StdPeriph_Driver\src/stm32f10x_fsmc.c **** FlagStatus FSMC_GetFlagStatus(uint32_t FSMC_Bank, uint32_t FSMC_FLAG)
 698:.\stlib\STM32F10x_StdPeriph_Driver\src/stm32f10x_fsmc.c **** {
 1407              		.loc 1 698 1 is_stmt 1 view -0
 1408              		.cfi_startproc
 1409              		@ args = 0, pretend = 0, frame = 0
 1410              		@ frame_needed = 0, uses_anonymous_args = 0
 1411              		@ link register save eliminated.
 699:.\stlib\STM32F10x_StdPeriph_Driver\src/stm32f10x_fsmc.c ****   FlagStatus bitstatus = RESET;
 1412              		.loc 1 699 3 view .LVU419
 700:.\stlib\STM32F10x_StdPeriph_Driver\src/stm32f10x_fsmc.c ****   uint32_t tmpsr = 0x00000000;
 1413              		.loc 1 700 3 view .LVU420
 701:.\stlib\STM32F10x_StdPeriph_Driver\src/stm32f10x_fsmc.c ****   
 702:.\stlib\STM32F10x_StdPeriph_Driver\src/stm32f10x_fsmc.c ****   /* Check the parameters */
 703:.\stlib\STM32F10x_StdPeriph_Driver\src/stm32f10x_fsmc.c ****   assert_param(IS_FSMC_GETFLAG_BANK(FSMC_Bank));
 1414              		.loc 1 703 3 view .LVU421
 704:.\stlib\STM32F10x_StdPeriph_Driver\src/stm32f10x_fsmc.c ****   assert_param(IS_FSMC_GET_FLAG(FSMC_FLAG));
 1415              		.loc 1 704 3 view .LVU422
 705:.\stlib\STM32F10x_StdPeriph_Driver\src/stm32f10x_fsmc.c ****   
 706:.\stlib\STM32F10x_StdPeriph_Driver\src/stm32f10x_fsmc.c ****   if(FSMC_Bank == FSMC_Bank2_NAND)
 1416              		.loc 1 706 3 view .LVU423
 1417              	@ .\stlib\STM32F10x_StdPeriph_Driver\src\stm32f10x_fsmc.c:706:   if(FSMC_Bank == FSMC_Bank2_NAND)
 1418              		.loc 1 706 5 is_stmt 0 view .LVU424
 1419 0384 1028     		cmp	r0, #16	@ FSMC_Bank,
 1420 0386 06D1     		bne	.L81		@,
 707:.\stlib\STM32F10x_StdPeriph_Driver\src/stm32f10x_fsmc.c ****   {
 708:.\stlib\STM32F10x_StdPeriph_Driver\src/stm32f10x_fsmc.c ****     tmpsr = FSMC_Bank2->SR2;
 1421              		.loc 1 708 5 is_stmt 1 view .LVU425
 1422              	@ .\stlib\STM32F10x_StdPeriph_Driver\src\stm32f10x_fsmc.c:708:     tmpsr = FSMC_Bank2->SR2;
 1423              		.loc 1 708 11 is_stmt 0 view .LVU426
 1424 0388 064B     		ldr	r3, .L85	@ tmp116,
 1425              	.L84:
 1426              	@ .\stlib\STM32F10x_StdPeriph_Driver\src\stm32f10x_fsmc.c:717:     tmpsr = FSMC_Bank4->SR4;
 709:.\stlib\STM32F10x_StdPeriph_Driver\src/stm32f10x_fsmc.c ****   }  
 710:.\stlib\STM32F10x_StdPeriph_Driver\src/stm32f10x_fsmc.c ****   else if(FSMC_Bank == FSMC_Bank3_NAND)
 711:.\stlib\STM32F10x_StdPeriph_Driver\src/stm32f10x_fsmc.c ****   {
 712:.\stlib\STM32F10x_StdPeriph_Driver\src/stm32f10x_fsmc.c ****     tmpsr = FSMC_Bank3->SR3;
 713:.\stlib\STM32F10x_StdPeriph_Driver\src/stm32f10x_fsmc.c ****   }
 714:.\stlib\STM32F10x_StdPeriph_Driver\src/stm32f10x_fsmc.c ****   /* FSMC_Bank4_PCCARD*/
 715:.\stlib\STM32F10x_StdPeriph_Driver\src/stm32f10x_fsmc.c ****   else
 716:.\stlib\STM32F10x_StdPeriph_Driver\src/stm32f10x_fsmc.c ****   {
 717:.\stlib\STM32F10x_StdPeriph_Driver\src/stm32f10x_fsmc.c ****     tmpsr = FSMC_Bank4->SR4;
 1427              		.loc 1 717 11 view .LVU427
 1428 038a 5B68     		ldr	r3, [r3, #4]	@ tmpsr,
 1429              	.LVL39:
 718:.\stlib\STM32F10x_StdPeriph_Driver\src/stm32f10x_fsmc.c ****   } 
 719:.\stlib\STM32F10x_StdPeriph_Driver\src/stm32f10x_fsmc.c ****   
 720:.\stlib\STM32F10x_StdPeriph_Driver\src/stm32f10x_fsmc.c ****   /* Get the flag status */
ARM GAS  C:\Users\skey\AppData\Local\Temp\ccFDdSGQ.s 			page 41


 721:.\stlib\STM32F10x_StdPeriph_Driver\src/stm32f10x_fsmc.c ****   if ((tmpsr & FSMC_FLAG) != (uint16_t)RESET )
 1430              		.loc 1 721 3 is_stmt 1 view .LVU428
 722:.\stlib\STM32F10x_StdPeriph_Driver\src/stm32f10x_fsmc.c ****   {
 723:.\stlib\STM32F10x_StdPeriph_Driver\src/stm32f10x_fsmc.c ****     bitstatus = SET;
 724:.\stlib\STM32F10x_StdPeriph_Driver\src/stm32f10x_fsmc.c ****   }
 725:.\stlib\STM32F10x_StdPeriph_Driver\src/stm32f10x_fsmc.c ****   else
 726:.\stlib\STM32F10x_StdPeriph_Driver\src/stm32f10x_fsmc.c ****   {
 727:.\stlib\STM32F10x_StdPeriph_Driver\src/stm32f10x_fsmc.c ****     bitstatus = RESET;
 728:.\stlib\STM32F10x_StdPeriph_Driver\src/stm32f10x_fsmc.c ****   }
 729:.\stlib\STM32F10x_StdPeriph_Driver\src/stm32f10x_fsmc.c ****   /* Return the flag status */
 730:.\stlib\STM32F10x_StdPeriph_Driver\src/stm32f10x_fsmc.c ****   return bitstatus;
 1431              		.loc 1 730 3 view .LVU429
 1432              	@ .\stlib\STM32F10x_StdPeriph_Driver\src\stm32f10x_fsmc.c:721:   if ((tmpsr & FSMC_FLAG) != (uint16
 721:.\stlib\STM32F10x_StdPeriph_Driver\src/stm32f10x_fsmc.c ****   {
 1433              		.loc 1 721 6 is_stmt 0 view .LVU430
 1434 038c 0B42     		tst	r3, r1	@ tmpsr, FSMC_FLAG
 1435              	@ .\stlib\STM32F10x_StdPeriph_Driver\src\stm32f10x_fsmc.c:731: }
 731:.\stlib\STM32F10x_StdPeriph_Driver\src/stm32f10x_fsmc.c **** }
 1436              		.loc 1 731 1 view .LVU431
 1437 038e 14BF     		ite	ne
 1438 0390 0120     		movne	r0, #1	@,
 1439              	.LVL40:
 1440              		.loc 1 731 1 view .LVU432
 1441 0392 0020     		moveq	r0, #0	@,
 1442 0394 7047     		bx	lr	@
 1443              	.LVL41:
 1444              	.L81:
 710:.\stlib\STM32F10x_StdPeriph_Driver\src/stm32f10x_fsmc.c ****   {
 1445              		.loc 1 710 8 is_stmt 1 view .LVU433
 1446              	@ .\stlib\STM32F10x_StdPeriph_Driver\src\stm32f10x_fsmc.c:710:   else if(FSMC_Bank == FSMC_Bank3_NA
 710:.\stlib\STM32F10x_StdPeriph_Driver\src/stm32f10x_fsmc.c ****   {
 1447              		.loc 1 710 10 is_stmt 0 view .LVU434
 1448 0396 B0F5807F 		cmp	r0, #256	@ FSMC_Bank,
 712:.\stlib\STM32F10x_StdPeriph_Driver\src/stm32f10x_fsmc.c ****   }
 1449              		.loc 1 712 5 is_stmt 1 view .LVU435
 1450              	@ .\stlib\STM32F10x_StdPeriph_Driver\src\stm32f10x_fsmc.c:712:     tmpsr = FSMC_Bank3->SR3;
 712:.\stlib\STM32F10x_StdPeriph_Driver\src/stm32f10x_fsmc.c ****   }
 1451              		.loc 1 712 11 is_stmt 0 view .LVU436
 1452 039a 0CBF     		ite	eq
 1453 039c 024B     		ldreq	r3, .L85+4	@ tmp117,
 717:.\stlib\STM32F10x_StdPeriph_Driver\src/stm32f10x_fsmc.c ****   } 
 1454              		.loc 1 717 5 is_stmt 1 view .LVU437
 1455              	@ .\stlib\STM32F10x_StdPeriph_Driver\src\stm32f10x_fsmc.c:717:     tmpsr = FSMC_Bank4->SR4;
 717:.\stlib\STM32F10x_StdPeriph_Driver\src/stm32f10x_fsmc.c ****   } 
 1456              		.loc 1 717 11 is_stmt 0 view .LVU438
 1457 039e 034B     		ldrne	r3, .L85+8	@ tmp118,
 1458 03a0 F3E7     		b	.L84		@
 1459              	.L86:
 1460 03a2 00BF     		.align	2
 1461              	.L85:
 1462 03a4 600000A0 		.word	-1610612640
 1463 03a8 800000A0 		.word	-1610612608
 1464 03ac A00000A0 		.word	-1610612576
 1465              		.cfi_endproc
 1466              	.LFE44:
 1467              		.size	FSMC_GetFlagStatus, .-FSMC_GetFlagStatus
 1468              		.align	1
ARM GAS  C:\Users\skey\AppData\Local\Temp\ccFDdSGQ.s 			page 42


 1469              		.global	FSMC_ClearFlag
 1470              		.syntax unified
 1471              		.thumb
 1472              		.thumb_func
 1473              		.fpu softvfp
 1474              		.type	FSMC_ClearFlag, %function
 1475              	FSMC_ClearFlag:
 1476              	.LVL42:
 1477              	.LFB45:
 732:.\stlib\STM32F10x_StdPeriph_Driver\src/stm32f10x_fsmc.c **** 
 733:.\stlib\STM32F10x_StdPeriph_Driver\src/stm32f10x_fsmc.c **** /**
 734:.\stlib\STM32F10x_StdPeriph_Driver\src/stm32f10x_fsmc.c ****   * @brief  Clears the FSMC's pending flags.
 735:.\stlib\STM32F10x_StdPeriph_Driver\src/stm32f10x_fsmc.c ****   * @param  FSMC_Bank: specifies the FSMC Bank to be used
 736:.\stlib\STM32F10x_StdPeriph_Driver\src/stm32f10x_fsmc.c ****   *   This parameter can be one of the following values:
 737:.\stlib\STM32F10x_StdPeriph_Driver\src/stm32f10x_fsmc.c ****   *     @arg FSMC_Bank2_NAND: FSMC Bank2 NAND 
 738:.\stlib\STM32F10x_StdPeriph_Driver\src/stm32f10x_fsmc.c ****   *     @arg FSMC_Bank3_NAND: FSMC Bank3 NAND
 739:.\stlib\STM32F10x_StdPeriph_Driver\src/stm32f10x_fsmc.c ****   *     @arg FSMC_Bank4_PCCARD: FSMC Bank4 PCCARD
 740:.\stlib\STM32F10x_StdPeriph_Driver\src/stm32f10x_fsmc.c ****   * @param  FSMC_FLAG: specifies the flag to clear.
 741:.\stlib\STM32F10x_StdPeriph_Driver\src/stm32f10x_fsmc.c ****   *   This parameter can be any combination of the following values:
 742:.\stlib\STM32F10x_StdPeriph_Driver\src/stm32f10x_fsmc.c ****   *     @arg FSMC_FLAG_RisingEdge: Rising egde detection Flag.
 743:.\stlib\STM32F10x_StdPeriph_Driver\src/stm32f10x_fsmc.c ****   *     @arg FSMC_FLAG_Level: Level detection Flag.
 744:.\stlib\STM32F10x_StdPeriph_Driver\src/stm32f10x_fsmc.c ****   *     @arg FSMC_FLAG_FallingEdge: Falling egde detection Flag.
 745:.\stlib\STM32F10x_StdPeriph_Driver\src/stm32f10x_fsmc.c ****   * @retval None
 746:.\stlib\STM32F10x_StdPeriph_Driver\src/stm32f10x_fsmc.c ****   */
 747:.\stlib\STM32F10x_StdPeriph_Driver\src/stm32f10x_fsmc.c **** void FSMC_ClearFlag(uint32_t FSMC_Bank, uint32_t FSMC_FLAG)
 748:.\stlib\STM32F10x_StdPeriph_Driver\src/stm32f10x_fsmc.c **** {
 1478              		.loc 1 748 1 is_stmt 1 view -0
 1479              		.cfi_startproc
 1480              		@ args = 0, pretend = 0, frame = 0
 1481              		@ frame_needed = 0, uses_anonymous_args = 0
 1482              		@ link register save eliminated.
 749:.\stlib\STM32F10x_StdPeriph_Driver\src/stm32f10x_fsmc.c ****  /* Check the parameters */
 750:.\stlib\STM32F10x_StdPeriph_Driver\src/stm32f10x_fsmc.c ****   assert_param(IS_FSMC_GETFLAG_BANK(FSMC_Bank));
 1483              		.loc 1 750 3 view .LVU440
 751:.\stlib\STM32F10x_StdPeriph_Driver\src/stm32f10x_fsmc.c ****   assert_param(IS_FSMC_CLEAR_FLAG(FSMC_FLAG)) ;
 1484              		.loc 1 751 3 view .LVU441
 752:.\stlib\STM32F10x_StdPeriph_Driver\src/stm32f10x_fsmc.c ****     
 753:.\stlib\STM32F10x_StdPeriph_Driver\src/stm32f10x_fsmc.c ****   if(FSMC_Bank == FSMC_Bank2_NAND)
 1485              		.loc 1 753 3 view .LVU442
 1486              	@ .\stlib\STM32F10x_StdPeriph_Driver\src\stm32f10x_fsmc.c:753:   if(FSMC_Bank == FSMC_Bank2_NAND)
 1487              		.loc 1 753 5 is_stmt 0 view .LVU443
 1488 03b0 1028     		cmp	r0, #16	@ FSMC_Bank,
 1489 03b2 6FEA0101 		mvn	r1, r1	@ _17, tmp126
 1490              	.LVL43:
 1491              		.loc 1 753 5 view .LVU444
 1492 03b6 04D1     		bne	.L88		@,
 754:.\stlib\STM32F10x_StdPeriph_Driver\src/stm32f10x_fsmc.c ****   {
 755:.\stlib\STM32F10x_StdPeriph_Driver\src/stm32f10x_fsmc.c ****     FSMC_Bank2->SR2 &= ~FSMC_FLAG; 
 1493              		.loc 1 755 5 is_stmt 1 view .LVU445
 1494              	@ .\stlib\STM32F10x_StdPeriph_Driver\src\stm32f10x_fsmc.c:755:     FSMC_Bank2->SR2 &= ~FSMC_FLAG; 
 1495              		.loc 1 755 21 is_stmt 0 view .LVU446
 1496 03b8 054A     		ldr	r2, .L92	@ tmp119,
 1497              	.L91:
 1498              	@ .\stlib\STM32F10x_StdPeriph_Driver\src\stm32f10x_fsmc.c:764:     FSMC_Bank4->SR4 &= ~FSMC_FLAG;
 756:.\stlib\STM32F10x_StdPeriph_Driver\src/stm32f10x_fsmc.c ****   }  
 757:.\stlib\STM32F10x_StdPeriph_Driver\src/stm32f10x_fsmc.c ****   else if(FSMC_Bank == FSMC_Bank3_NAND)
 758:.\stlib\STM32F10x_StdPeriph_Driver\src/stm32f10x_fsmc.c ****   {
ARM GAS  C:\Users\skey\AppData\Local\Temp\ccFDdSGQ.s 			page 43


 759:.\stlib\STM32F10x_StdPeriph_Driver\src/stm32f10x_fsmc.c ****     FSMC_Bank3->SR3 &= ~FSMC_FLAG;
 760:.\stlib\STM32F10x_StdPeriph_Driver\src/stm32f10x_fsmc.c ****   }
 761:.\stlib\STM32F10x_StdPeriph_Driver\src/stm32f10x_fsmc.c ****   /* FSMC_Bank4_PCCARD*/
 762:.\stlib\STM32F10x_StdPeriph_Driver\src/stm32f10x_fsmc.c ****   else
 763:.\stlib\STM32F10x_StdPeriph_Driver\src/stm32f10x_fsmc.c ****   {
 764:.\stlib\STM32F10x_StdPeriph_Driver\src/stm32f10x_fsmc.c ****     FSMC_Bank4->SR4 &= ~FSMC_FLAG;
 1499              		.loc 1 764 21 view .LVU447
 1500 03ba 5368     		ldr	r3, [r2, #4]	@ _7,
 1501 03bc 1940     		ands	r1, r1, r3	@, _9, _17, _7
 1502              	.LVL44:
 1503              		.loc 1 764 21 view .LVU448
 1504 03be 5160     		str	r1, [r2, #4]	@ _9,
 1505              	@ .\stlib\STM32F10x_StdPeriph_Driver\src\stm32f10x_fsmc.c:766: }
 765:.\stlib\STM32F10x_StdPeriph_Driver\src/stm32f10x_fsmc.c ****   }
 766:.\stlib\STM32F10x_StdPeriph_Driver\src/stm32f10x_fsmc.c **** }
 1506              		.loc 1 766 1 view .LVU449
 1507 03c0 7047     		bx	lr	@
 1508              	.L88:
 757:.\stlib\STM32F10x_StdPeriph_Driver\src/stm32f10x_fsmc.c ****   {
 1509              		.loc 1 757 8 is_stmt 1 view .LVU450
 1510              	@ .\stlib\STM32F10x_StdPeriph_Driver\src\stm32f10x_fsmc.c:757:   else if(FSMC_Bank == FSMC_Bank3_NA
 757:.\stlib\STM32F10x_StdPeriph_Driver\src/stm32f10x_fsmc.c ****   {
 1511              		.loc 1 757 10 is_stmt 0 view .LVU451
 1512 03c2 B0F5807F 		cmp	r0, #256	@ FSMC_Bank,
 759:.\stlib\STM32F10x_StdPeriph_Driver\src/stm32f10x_fsmc.c ****   }
 1513              		.loc 1 759 5 is_stmt 1 view .LVU452
 1514              	@ .\stlib\STM32F10x_StdPeriph_Driver\src\stm32f10x_fsmc.c:759:     FSMC_Bank3->SR3 &= ~FSMC_FLAG;
 759:.\stlib\STM32F10x_StdPeriph_Driver\src/stm32f10x_fsmc.c ****   }
 1515              		.loc 1 759 21 is_stmt 0 view .LVU453
 1516 03c6 0CBF     		ite	eq
 1517 03c8 024A     		ldreq	r2, .L92+4	@ tmp121,
 764:.\stlib\STM32F10x_StdPeriph_Driver\src/stm32f10x_fsmc.c ****   }
 1518              		.loc 1 764 5 is_stmt 1 view .LVU454
 1519              	@ .\stlib\STM32F10x_StdPeriph_Driver\src\stm32f10x_fsmc.c:764:     FSMC_Bank4->SR4 &= ~FSMC_FLAG;
 764:.\stlib\STM32F10x_StdPeriph_Driver\src/stm32f10x_fsmc.c ****   }
 1520              		.loc 1 764 21 is_stmt 0 view .LVU455
 1521 03ca 034A     		ldrne	r2, .L92+8	@ tmp123,
 1522 03cc F5E7     		b	.L91		@
 1523              	.L93:
 1524 03ce 00BF     		.align	2
 1525              	.L92:
 1526 03d0 600000A0 		.word	-1610612640
 1527 03d4 800000A0 		.word	-1610612608
 1528 03d8 A00000A0 		.word	-1610612576
 1529              		.cfi_endproc
 1530              	.LFE45:
 1531              		.size	FSMC_ClearFlag, .-FSMC_ClearFlag
 1532              		.align	1
 1533              		.global	FSMC_GetITStatus
 1534              		.syntax unified
 1535              		.thumb
 1536              		.thumb_func
 1537              		.fpu softvfp
 1538              		.type	FSMC_GetITStatus, %function
 1539              	FSMC_GetITStatus:
 1540              	.LVL45:
 1541              	.LFB46:
ARM GAS  C:\Users\skey\AppData\Local\Temp\ccFDdSGQ.s 			page 44


 767:.\stlib\STM32F10x_StdPeriph_Driver\src/stm32f10x_fsmc.c **** 
 768:.\stlib\STM32F10x_StdPeriph_Driver\src/stm32f10x_fsmc.c **** /**
 769:.\stlib\STM32F10x_StdPeriph_Driver\src/stm32f10x_fsmc.c ****   * @brief  Checks whether the specified FSMC interrupt has occurred or not.
 770:.\stlib\STM32F10x_StdPeriph_Driver\src/stm32f10x_fsmc.c ****   * @param  FSMC_Bank: specifies the FSMC Bank to be used
 771:.\stlib\STM32F10x_StdPeriph_Driver\src/stm32f10x_fsmc.c ****   *   This parameter can be one of the following values:
 772:.\stlib\STM32F10x_StdPeriph_Driver\src/stm32f10x_fsmc.c ****   *     @arg FSMC_Bank2_NAND: FSMC Bank2 NAND 
 773:.\stlib\STM32F10x_StdPeriph_Driver\src/stm32f10x_fsmc.c ****   *     @arg FSMC_Bank3_NAND: FSMC Bank3 NAND
 774:.\stlib\STM32F10x_StdPeriph_Driver\src/stm32f10x_fsmc.c ****   *     @arg FSMC_Bank4_PCCARD: FSMC Bank4 PCCARD
 775:.\stlib\STM32F10x_StdPeriph_Driver\src/stm32f10x_fsmc.c ****   * @param  FSMC_IT: specifies the FSMC interrupt source to check.
 776:.\stlib\STM32F10x_StdPeriph_Driver\src/stm32f10x_fsmc.c ****   *   This parameter can be one of the following values:
 777:.\stlib\STM32F10x_StdPeriph_Driver\src/stm32f10x_fsmc.c ****   *     @arg FSMC_IT_RisingEdge: Rising edge detection interrupt. 
 778:.\stlib\STM32F10x_StdPeriph_Driver\src/stm32f10x_fsmc.c ****   *     @arg FSMC_IT_Level: Level edge detection interrupt.
 779:.\stlib\STM32F10x_StdPeriph_Driver\src/stm32f10x_fsmc.c ****   *     @arg FSMC_IT_FallingEdge: Falling edge detection interrupt. 
 780:.\stlib\STM32F10x_StdPeriph_Driver\src/stm32f10x_fsmc.c ****   * @retval The new state of FSMC_IT (SET or RESET).
 781:.\stlib\STM32F10x_StdPeriph_Driver\src/stm32f10x_fsmc.c ****   */
 782:.\stlib\STM32F10x_StdPeriph_Driver\src/stm32f10x_fsmc.c **** ITStatus FSMC_GetITStatus(uint32_t FSMC_Bank, uint32_t FSMC_IT)
 783:.\stlib\STM32F10x_StdPeriph_Driver\src/stm32f10x_fsmc.c **** {
 1542              		.loc 1 783 1 is_stmt 1 view -0
 1543              		.cfi_startproc
 1544              		@ args = 0, pretend = 0, frame = 0
 1545              		@ frame_needed = 0, uses_anonymous_args = 0
 1546              		@ link register save eliminated.
 784:.\stlib\STM32F10x_StdPeriph_Driver\src/stm32f10x_fsmc.c ****   ITStatus bitstatus = RESET;
 1547              		.loc 1 784 3 view .LVU457
 785:.\stlib\STM32F10x_StdPeriph_Driver\src/stm32f10x_fsmc.c ****   uint32_t tmpsr = 0x0, itstatus = 0x0, itenable = 0x0; 
 1548              		.loc 1 785 3 view .LVU458
 786:.\stlib\STM32F10x_StdPeriph_Driver\src/stm32f10x_fsmc.c ****   
 787:.\stlib\STM32F10x_StdPeriph_Driver\src/stm32f10x_fsmc.c ****   /* Check the parameters */
 788:.\stlib\STM32F10x_StdPeriph_Driver\src/stm32f10x_fsmc.c ****   assert_param(IS_FSMC_IT_BANK(FSMC_Bank));
 1549              		.loc 1 788 3 view .LVU459
 789:.\stlib\STM32F10x_StdPeriph_Driver\src/stm32f10x_fsmc.c ****   assert_param(IS_FSMC_GET_IT(FSMC_IT));
 1550              		.loc 1 789 3 view .LVU460
 790:.\stlib\STM32F10x_StdPeriph_Driver\src/stm32f10x_fsmc.c ****   
 791:.\stlib\STM32F10x_StdPeriph_Driver\src/stm32f10x_fsmc.c ****   if(FSMC_Bank == FSMC_Bank2_NAND)
 1551              		.loc 1 791 3 view .LVU461
 1552              	@ .\stlib\STM32F10x_StdPeriph_Driver\src\stm32f10x_fsmc.c:791:   if(FSMC_Bank == FSMC_Bank2_NAND)
 1553              		.loc 1 791 5 is_stmt 0 view .LVU462
 1554 03dc 1028     		cmp	r0, #16	@ FSMC_Bank,
 1555 03de 0AD1     		bne	.L95		@,
 792:.\stlib\STM32F10x_StdPeriph_Driver\src/stm32f10x_fsmc.c ****   {
 793:.\stlib\STM32F10x_StdPeriph_Driver\src/stm32f10x_fsmc.c ****     tmpsr = FSMC_Bank2->SR2;
 1556              		.loc 1 793 5 is_stmt 1 view .LVU463
 1557              	@ .\stlib\STM32F10x_StdPeriph_Driver\src\stm32f10x_fsmc.c:793:     tmpsr = FSMC_Bank2->SR2;
 1558              		.loc 1 793 11 is_stmt 0 view .LVU464
 1559 03e0 084B     		ldr	r3, .L101	@ tmp118,
 1560              	.L100:
 1561              	@ .\stlib\STM32F10x_StdPeriph_Driver\src\stm32f10x_fsmc.c:802:     tmpsr = FSMC_Bank4->SR4;
 794:.\stlib\STM32F10x_StdPeriph_Driver\src/stm32f10x_fsmc.c ****   }  
 795:.\stlib\STM32F10x_StdPeriph_Driver\src/stm32f10x_fsmc.c ****   else if(FSMC_Bank == FSMC_Bank3_NAND)
 796:.\stlib\STM32F10x_StdPeriph_Driver\src/stm32f10x_fsmc.c ****   {
 797:.\stlib\STM32F10x_StdPeriph_Driver\src/stm32f10x_fsmc.c ****     tmpsr = FSMC_Bank3->SR3;
 798:.\stlib\STM32F10x_StdPeriph_Driver\src/stm32f10x_fsmc.c ****   }
 799:.\stlib\STM32F10x_StdPeriph_Driver\src/stm32f10x_fsmc.c ****   /* FSMC_Bank4_PCCARD*/
 800:.\stlib\STM32F10x_StdPeriph_Driver\src/stm32f10x_fsmc.c ****   else
 801:.\stlib\STM32F10x_StdPeriph_Driver\src/stm32f10x_fsmc.c ****   {
 802:.\stlib\STM32F10x_StdPeriph_Driver\src/stm32f10x_fsmc.c ****     tmpsr = FSMC_Bank4->SR4;
 1562              		.loc 1 802 11 view .LVU465
ARM GAS  C:\Users\skey\AppData\Local\Temp\ccFDdSGQ.s 			page 45


 1563 03e2 5B68     		ldr	r3, [r3, #4]	@ tmpsr,
 1564              	.LVL46:
 803:.\stlib\STM32F10x_StdPeriph_Driver\src/stm32f10x_fsmc.c ****   } 
 804:.\stlib\STM32F10x_StdPeriph_Driver\src/stm32f10x_fsmc.c ****   
 805:.\stlib\STM32F10x_StdPeriph_Driver\src/stm32f10x_fsmc.c ****   itstatus = tmpsr & FSMC_IT;
 1565              		.loc 1 805 3 is_stmt 1 view .LVU466
 806:.\stlib\STM32F10x_StdPeriph_Driver\src/stm32f10x_fsmc.c ****   
 807:.\stlib\STM32F10x_StdPeriph_Driver\src/stm32f10x_fsmc.c ****   itenable = tmpsr & (FSMC_IT >> 3);
 1566              		.loc 1 807 3 view .LVU467
 808:.\stlib\STM32F10x_StdPeriph_Driver\src/stm32f10x_fsmc.c ****   if ((itstatus != (uint32_t)RESET)  && (itenable != (uint32_t)RESET))
 1567              		.loc 1 808 3 view .LVU468
 1568              	@ .\stlib\STM32F10x_StdPeriph_Driver\src\stm32f10x_fsmc.c:808:   if ((itstatus != (uint32_t)RESET) 
 1569              		.loc 1 808 6 is_stmt 0 view .LVU469
 1570 03e4 13EA0100 		ands	r0, r3, r1	@ itstatus, tmpsr, FSMC_IT
 1571              	.LVL47:
 1572              		.loc 1 808 6 view .LVU470
 1573 03e8 04D0     		beq	.L98		@,
 1574              	@ .\stlib\STM32F10x_StdPeriph_Driver\src\stm32f10x_fsmc.c:808:   if ((itstatus != (uint32_t)RESET) 
 1575              		.loc 1 808 38 discriminator 1 view .LVU471
 1576 03ea 13EAD103 		ands	r3, r3, r1, lsr #3	@, tmp129, tmpsr, FSMC_IT,
 1577              	.LVL48:
 1578              	@ .\stlib\STM32F10x_StdPeriph_Driver\src\stm32f10x_fsmc.c:814:     bitstatus = RESET;
 809:.\stlib\STM32F10x_StdPeriph_Driver\src/stm32f10x_fsmc.c ****   {
 810:.\stlib\STM32F10x_StdPeriph_Driver\src/stm32f10x_fsmc.c ****     bitstatus = SET;
 811:.\stlib\STM32F10x_StdPeriph_Driver\src/stm32f10x_fsmc.c ****   }
 812:.\stlib\STM32F10x_StdPeriph_Driver\src/stm32f10x_fsmc.c ****   else
 813:.\stlib\STM32F10x_StdPeriph_Driver\src/stm32f10x_fsmc.c ****   {
 814:.\stlib\STM32F10x_StdPeriph_Driver\src/stm32f10x_fsmc.c ****     bitstatus = RESET;
 1579              		.loc 1 814 15 discriminator 1 view .LVU472
 1580 03ee 14BF     		ite	ne
 1581 03f0 0120     		movne	r0, #1	@ <retval>,
 1582              	.LVL49:
 1583              		.loc 1 814 15 discriminator 1 view .LVU473
 1584 03f2 0020     		moveq	r0, #0	@ <retval>,
 1585              	.L98:
 1586              	.LVL50:
 815:.\stlib\STM32F10x_StdPeriph_Driver\src/stm32f10x_fsmc.c ****   }
 816:.\stlib\STM32F10x_StdPeriph_Driver\src/stm32f10x_fsmc.c ****   return bitstatus; 
 1587              		.loc 1 816 3 is_stmt 1 view .LVU474
 1588              	@ .\stlib\STM32F10x_StdPeriph_Driver\src\stm32f10x_fsmc.c:817: }
 817:.\stlib\STM32F10x_StdPeriph_Driver\src/stm32f10x_fsmc.c **** }
 1589              		.loc 1 817 1 is_stmt 0 view .LVU475
 1590 03f4 7047     		bx	lr	@
 1591              	.LVL51:
 1592              	.L95:
 795:.\stlib\STM32F10x_StdPeriph_Driver\src/stm32f10x_fsmc.c ****   {
 1593              		.loc 1 795 8 is_stmt 1 view .LVU476
 1594              	@ .\stlib\STM32F10x_StdPeriph_Driver\src\stm32f10x_fsmc.c:795:   else if(FSMC_Bank == FSMC_Bank3_NA
 795:.\stlib\STM32F10x_StdPeriph_Driver\src/stm32f10x_fsmc.c ****   {
 1595              		.loc 1 795 10 is_stmt 0 view .LVU477
 1596 03f6 B0F5807F 		cmp	r0, #256	@ FSMC_Bank,
 797:.\stlib\STM32F10x_StdPeriph_Driver\src/stm32f10x_fsmc.c ****   }
 1597              		.loc 1 797 5 is_stmt 1 view .LVU478
 1598              	@ .\stlib\STM32F10x_StdPeriph_Driver\src\stm32f10x_fsmc.c:797:     tmpsr = FSMC_Bank3->SR3;
 797:.\stlib\STM32F10x_StdPeriph_Driver\src/stm32f10x_fsmc.c ****   }
 1599              		.loc 1 797 11 is_stmt 0 view .LVU479
 1600 03fa 0CBF     		ite	eq
ARM GAS  C:\Users\skey\AppData\Local\Temp\ccFDdSGQ.s 			page 46


 1601 03fc 024B     		ldreq	r3, .L101+4	@ tmp119,
 802:.\stlib\STM32F10x_StdPeriph_Driver\src/stm32f10x_fsmc.c ****   } 
 1602              		.loc 1 802 5 is_stmt 1 view .LVU480
 1603              	@ .\stlib\STM32F10x_StdPeriph_Driver\src\stm32f10x_fsmc.c:802:     tmpsr = FSMC_Bank4->SR4;
 802:.\stlib\STM32F10x_StdPeriph_Driver\src/stm32f10x_fsmc.c ****   } 
 1604              		.loc 1 802 11 is_stmt 0 view .LVU481
 1605 03fe 034B     		ldrne	r3, .L101+8	@ tmp120,
 1606 0400 EFE7     		b	.L100		@
 1607              	.L102:
 1608 0402 00BF     		.align	2
 1609              	.L101:
 1610 0404 600000A0 		.word	-1610612640
 1611 0408 800000A0 		.word	-1610612608
 1612 040c A00000A0 		.word	-1610612576
 1613              		.cfi_endproc
 1614              	.LFE46:
 1615              		.size	FSMC_GetITStatus, .-FSMC_GetITStatus
 1616              		.align	1
 1617              		.global	FSMC_ClearITPendingBit
 1618              		.syntax unified
 1619              		.thumb
 1620              		.thumb_func
 1621              		.fpu softvfp
 1622              		.type	FSMC_ClearITPendingBit, %function
 1623              	FSMC_ClearITPendingBit:
 1624              	.LVL52:
 1625              	.LFB47:
 818:.\stlib\STM32F10x_StdPeriph_Driver\src/stm32f10x_fsmc.c **** 
 819:.\stlib\STM32F10x_StdPeriph_Driver\src/stm32f10x_fsmc.c **** /**
 820:.\stlib\STM32F10x_StdPeriph_Driver\src/stm32f10x_fsmc.c ****   * @brief  Clears the FSMC's interrupt pending bits.
 821:.\stlib\STM32F10x_StdPeriph_Driver\src/stm32f10x_fsmc.c ****   * @param  FSMC_Bank: specifies the FSMC Bank to be used
 822:.\stlib\STM32F10x_StdPeriph_Driver\src/stm32f10x_fsmc.c ****   *   This parameter can be one of the following values:
 823:.\stlib\STM32F10x_StdPeriph_Driver\src/stm32f10x_fsmc.c ****   *     @arg FSMC_Bank2_NAND: FSMC Bank2 NAND 
 824:.\stlib\STM32F10x_StdPeriph_Driver\src/stm32f10x_fsmc.c ****   *     @arg FSMC_Bank3_NAND: FSMC Bank3 NAND
 825:.\stlib\STM32F10x_StdPeriph_Driver\src/stm32f10x_fsmc.c ****   *     @arg FSMC_Bank4_PCCARD: FSMC Bank4 PCCARD
 826:.\stlib\STM32F10x_StdPeriph_Driver\src/stm32f10x_fsmc.c ****   * @param  FSMC_IT: specifies the interrupt pending bit to clear.
 827:.\stlib\STM32F10x_StdPeriph_Driver\src/stm32f10x_fsmc.c ****   *   This parameter can be any combination of the following values:
 828:.\stlib\STM32F10x_StdPeriph_Driver\src/stm32f10x_fsmc.c ****   *     @arg FSMC_IT_RisingEdge: Rising edge detection interrupt. 
 829:.\stlib\STM32F10x_StdPeriph_Driver\src/stm32f10x_fsmc.c ****   *     @arg FSMC_IT_Level: Level edge detection interrupt.
 830:.\stlib\STM32F10x_StdPeriph_Driver\src/stm32f10x_fsmc.c ****   *     @arg FSMC_IT_FallingEdge: Falling edge detection interrupt.
 831:.\stlib\STM32F10x_StdPeriph_Driver\src/stm32f10x_fsmc.c ****   * @retval None
 832:.\stlib\STM32F10x_StdPeriph_Driver\src/stm32f10x_fsmc.c ****   */
 833:.\stlib\STM32F10x_StdPeriph_Driver\src/stm32f10x_fsmc.c **** void FSMC_ClearITPendingBit(uint32_t FSMC_Bank, uint32_t FSMC_IT)
 834:.\stlib\STM32F10x_StdPeriph_Driver\src/stm32f10x_fsmc.c **** {
 1626              		.loc 1 834 1 is_stmt 1 view -0
 1627              		.cfi_startproc
 1628              		@ args = 0, pretend = 0, frame = 0
 1629              		@ frame_needed = 0, uses_anonymous_args = 0
 1630              		@ link register save eliminated.
 835:.\stlib\STM32F10x_StdPeriph_Driver\src/stm32f10x_fsmc.c ****   /* Check the parameters */
 836:.\stlib\STM32F10x_StdPeriph_Driver\src/stm32f10x_fsmc.c ****   assert_param(IS_FSMC_IT_BANK(FSMC_Bank));
 1631              		.loc 1 836 3 view .LVU483
 837:.\stlib\STM32F10x_StdPeriph_Driver\src/stm32f10x_fsmc.c ****   assert_param(IS_FSMC_IT(FSMC_IT));
 1632              		.loc 1 837 3 view .LVU484
 838:.\stlib\STM32F10x_StdPeriph_Driver\src/stm32f10x_fsmc.c ****     
 839:.\stlib\STM32F10x_StdPeriph_Driver\src/stm32f10x_fsmc.c ****   if(FSMC_Bank == FSMC_Bank2_NAND)
 1633              		.loc 1 839 3 view .LVU485
ARM GAS  C:\Users\skey\AppData\Local\Temp\ccFDdSGQ.s 			page 47


 1634              	@ .\stlib\STM32F10x_StdPeriph_Driver\src\stm32f10x_fsmc.c:839:   if(FSMC_Bank == FSMC_Bank2_NAND)
 1635              		.loc 1 839 5 is_stmt 0 view .LVU486
 1636 0410 1028     		cmp	r0, #16	@ FSMC_Bank,
 1637 0412 6FEAD101 		mvn	r1, r1, lsr #3	@ _21, tmp128,
 1638              	.LVL53:
 1639              		.loc 1 839 5 view .LVU487
 1640 0416 04D1     		bne	.L104		@,
 840:.\stlib\STM32F10x_StdPeriph_Driver\src/stm32f10x_fsmc.c ****   {
 841:.\stlib\STM32F10x_StdPeriph_Driver\src/stm32f10x_fsmc.c ****     FSMC_Bank2->SR2 &= ~(FSMC_IT >> 3); 
 1641              		.loc 1 841 5 is_stmt 1 view .LVU488
 1642              	@ .\stlib\STM32F10x_StdPeriph_Driver\src\stm32f10x_fsmc.c:841:     FSMC_Bank2->SR2 &= ~(FSMC_IT >> 
 1643              		.loc 1 841 21 is_stmt 0 view .LVU489
 1644 0418 054A     		ldr	r2, .L108	@ tmp121,
 1645              	.L107:
 1646              	@ .\stlib\STM32F10x_StdPeriph_Driver\src\stm32f10x_fsmc.c:850:     FSMC_Bank4->SR4 &= ~(FSMC_IT >> 
 842:.\stlib\STM32F10x_StdPeriph_Driver\src/stm32f10x_fsmc.c ****   }  
 843:.\stlib\STM32F10x_StdPeriph_Driver\src/stm32f10x_fsmc.c ****   else if(FSMC_Bank == FSMC_Bank3_NAND)
 844:.\stlib\STM32F10x_StdPeriph_Driver\src/stm32f10x_fsmc.c ****   {
 845:.\stlib\STM32F10x_StdPeriph_Driver\src/stm32f10x_fsmc.c ****     FSMC_Bank3->SR3 &= ~(FSMC_IT >> 3);
 846:.\stlib\STM32F10x_StdPeriph_Driver\src/stm32f10x_fsmc.c ****   }
 847:.\stlib\STM32F10x_StdPeriph_Driver\src/stm32f10x_fsmc.c ****   /* FSMC_Bank4_PCCARD*/
 848:.\stlib\STM32F10x_StdPeriph_Driver\src/stm32f10x_fsmc.c ****   else
 849:.\stlib\STM32F10x_StdPeriph_Driver\src/stm32f10x_fsmc.c ****   {
 850:.\stlib\STM32F10x_StdPeriph_Driver\src/stm32f10x_fsmc.c ****     FSMC_Bank4->SR4 &= ~(FSMC_IT >> 3);
 1647              		.loc 1 850 21 view .LVU490
 1648 041a 5368     		ldr	r3, [r2, #4]	@ _9,
 1649 041c 1940     		ands	r1, r1, r3	@, _12, _21, _9
 1650 041e 5160     		str	r1, [r2, #4]	@ _12,
 1651              	@ .\stlib\STM32F10x_StdPeriph_Driver\src\stm32f10x_fsmc.c:852: }
 851:.\stlib\STM32F10x_StdPeriph_Driver\src/stm32f10x_fsmc.c ****   }
 852:.\stlib\STM32F10x_StdPeriph_Driver\src/stm32f10x_fsmc.c **** }
 1652              		.loc 1 852 1 view .LVU491
 1653 0420 7047     		bx	lr	@
 1654              	.L104:
 843:.\stlib\STM32F10x_StdPeriph_Driver\src/stm32f10x_fsmc.c ****   {
 1655              		.loc 1 843 8 is_stmt 1 view .LVU492
 1656              	@ .\stlib\STM32F10x_StdPeriph_Driver\src\stm32f10x_fsmc.c:843:   else if(FSMC_Bank == FSMC_Bank3_NA
 843:.\stlib\STM32F10x_StdPeriph_Driver\src/stm32f10x_fsmc.c ****   {
 1657              		.loc 1 843 10 is_stmt 0 view .LVU493
 1658 0422 B0F5807F 		cmp	r0, #256	@ FSMC_Bank,
 845:.\stlib\STM32F10x_StdPeriph_Driver\src/stm32f10x_fsmc.c ****   }
 1659              		.loc 1 845 5 is_stmt 1 view .LVU494
 1660              	@ .\stlib\STM32F10x_StdPeriph_Driver\src\stm32f10x_fsmc.c:845:     FSMC_Bank3->SR3 &= ~(FSMC_IT >> 
 845:.\stlib\STM32F10x_StdPeriph_Driver\src/stm32f10x_fsmc.c ****   }
 1661              		.loc 1 845 21 is_stmt 0 view .LVU495
 1662 0426 0CBF     		ite	eq
 1663 0428 024A     		ldreq	r2, .L108+4	@ tmp123,
 850:.\stlib\STM32F10x_StdPeriph_Driver\src/stm32f10x_fsmc.c ****   }
 1664              		.loc 1 850 5 is_stmt 1 view .LVU496
 1665              	@ .\stlib\STM32F10x_StdPeriph_Driver\src\stm32f10x_fsmc.c:850:     FSMC_Bank4->SR4 &= ~(FSMC_IT >> 
 850:.\stlib\STM32F10x_StdPeriph_Driver\src/stm32f10x_fsmc.c ****   }
 1666              		.loc 1 850 21 is_stmt 0 view .LVU497
 1667 042a 034A     		ldrne	r2, .L108+8	@ tmp125,
 1668 042c F5E7     		b	.L107		@
 1669              	.L109:
 1670 042e 00BF     		.align	2
 1671              	.L108:
ARM GAS  C:\Users\skey\AppData\Local\Temp\ccFDdSGQ.s 			page 48


 1672 0430 600000A0 		.word	-1610612640
 1673 0434 800000A0 		.word	-1610612608
 1674 0438 A00000A0 		.word	-1610612576
 1675              		.cfi_endproc
 1676              	.LFE47:
 1677              		.size	FSMC_ClearITPendingBit, .-FSMC_ClearITPendingBit
 1678              	.Letext0:
 1679              		.file 2 "c:\\program files (x86)\\gnu tools arm embedded\\9 2019-q4-major\\arm-none-eabi\\include\
 1680              		.file 3 "c:\\program files (x86)\\gnu tools arm embedded\\9 2019-q4-major\\arm-none-eabi\\include\
 1681              		.file 4 ".\\stlib\\CMSIS\\CM3\\CoreSupport/core_cm3.h"
 1682              		.file 5 ".\\stlib\\CMSIS\\CM3\\DeviceSupport\\ST\\STM32F10x/system_stm32f10x.h"
 1683              		.file 6 ".\\stlib\\CMSIS\\CM3\\DeviceSupport\\ST\\STM32F10x/stm32f10x.h"
 1684              		.file 7 ".\\stlib\\STM32F10x_StdPeriph_Driver\\inc/stm32f10x_fsmc.h"