ARM GAS  C:\Users\skey\AppData\Local\Temp\ccM7eg8C.s 			page 1


   1              		.cpu cortex-m3
   2              		.eabi_attribute 20, 1	@ Tag_ABI_FP_denormal
   3              		.eabi_attribute 21, 1	@ Tag_ABI_FP_exceptions
   4              		.eabi_attribute 23, 3	@ Tag_ABI_FP_number_model
   5              		.eabi_attribute 24, 1	@ Tag_ABI_align8_needed
   6              		.eabi_attribute 25, 1	@ Tag_ABI_align8_preserved
   7              		.eabi_attribute 26, 1	@ Tag_ABI_enum_size
   8              		.eabi_attribute 30, 4	@ Tag_ABI_optimization_goals
   9              		.eabi_attribute 34, 1	@ Tag_CPU_unaligned_access
  10              		.eabi_attribute 18, 4	@ Tag_ABI_PCS_wchar_t
  11              		.file	"stm32f10x_dbgmcu.c"
  12              	@ GNU C17 (GNU Tools for Arm Embedded Processors 9-2019-q4-major) version 9.2.1 20191025 (release) 
  13              	@	compiled by GNU C version 5.3.1 20160211, GMP version 6.1.0, MPFR version 3.1.4, MPC version 1.0.
  14              	
  15              	@ GGC heuristics: --param ggc-min-expand=100 --param ggc-min-heapsize=131072
  16              	@ options passed:  -I . -I .\usr_inc -I .\task_inc
  17              	@ -I .\stlib\CMSIS\CM3\CoreSupport
  18              	@ -I .\stlib\CMSIS\CM3\DeviceSupport\ST\STM32F10x
  19              	@ -I .\stlib\STM32F10x_StdPeriph_Driver\inc
  20              	@ -I .\stlib\STM32F10x_StdPeriph_Driver -I .\freertos\include
  21              	@ -I .\freertos\portable\GCC\ARM_CM3 -imultilib thumb/v7-m/nofp
  22              	@ -iprefix c:\program files (x86)\gnu tools arm embedded\9 2019-q4-major\bin\../lib/gcc/arm-none-ea
  23              	@ -isysroot c:\program files (x86)\gnu tools arm embedded\9 2019-q4-major\bin\../arm-none-eabi
  24              	@ -D__USES_INITFINI__ -D STM32F10X_HD -D USE_STDPERIPH_DRIVER
  25              	@ -D HSE_VALUE=8000000 -D RUN_FROM_FLASH=1
  26              	@ .\stlib\STM32F10x_StdPeriph_Driver\src\stm32f10x_dbgmcu.c -mcpu=cortex-m3
  27              	@ -mthumb -mfloat-abi=soft -march=armv7-m
  28              	@ -auxbase-strip .\stlib\STM32F10x_StdPeriph_Driver\src\stm32f10x_dbgmcu.o
  29              	@ -g -gdwarf-2 -Os -Wall -fomit-frame-pointer -fverbose-asm
  30              	@ options enabled:  -faggressive-loop-optimizations -fassume-phsa
  31              	@ -fauto-inc-dec -fbranch-count-reg -fcaller-saves -fcode-hoisting
  32              	@ -fcombine-stack-adjustments -fcommon -fcompare-elim -fcprop-registers
  33              	@ -fcrossjumping -fcse-follow-jumps -fdefer-pop
  34              	@ -fdelete-null-pointer-checks -fdevirtualize -fdevirtualize-speculatively
  35              	@ -fdwarf2-cfi-asm -fearly-inlining -feliminate-unused-debug-types
  36              	@ -fexpensive-optimizations -fforward-propagate -ffp-int-builtin-inexact
  37              	@ -ffunction-cse -fgcse -fgcse-lm -fgnu-runtime -fgnu-unique
  38              	@ -fguess-branch-probability -fhoist-adjacent-loads -fident -fif-conversion
  39              	@ -fif-conversion2 -findirect-inlining -finline -finline-atomics
  40              	@ -finline-functions -finline-functions-called-once
  41              	@ -finline-small-functions -fipa-bit-cp -fipa-cp -fipa-icf
  42              	@ -fipa-icf-functions -fipa-icf-variables -fipa-profile -fipa-pure-const
  43              	@ -fipa-ra -fipa-reference -fipa-reference-addressable -fipa-sra
  44              	@ -fipa-stack-alignment -fipa-vrp -fira-hoist-pressure
  45              	@ -fira-share-save-slots -fira-share-spill-slots
  46              	@ -fisolate-erroneous-paths-dereference -fivopts -fkeep-static-consts
  47              	@ -fleading-underscore -flifetime-dse -flra-remat -flto-odr-type-merging
  48              	@ -fmath-errno -fmerge-constants -fmerge-debug-strings
  49              	@ -fmove-loop-invariants -fomit-frame-pointer -foptimize-sibling-calls
  50              	@ -fpartial-inlining -fpeephole -fpeephole2 -fplt -fprefetch-loop-arrays
  51              	@ -freg-struct-return -freorder-blocks -freorder-functions
  52              	@ -frerun-cse-after-loop -fsched-critical-path-heuristic
  53              	@ -fsched-dep-count-heuristic -fsched-group-heuristic -fsched-interblock
  54              	@ -fsched-last-insn-heuristic -fsched-pressure -fsched-rank-heuristic
  55              	@ -fsched-spec -fsched-spec-insn-heuristic -fsched-stalled-insns-dep
  56              	@ -fschedule-insns2 -fsection-anchors -fsemantic-interposition
  57              	@ -fshow-column -fshrink-wrap-separate -fsigned-zeros
ARM GAS  C:\Users\skey\AppData\Local\Temp\ccM7eg8C.s 			page 2


  58              	@ -fsplit-ivs-in-unroller -fsplit-wide-types -fssa-backprop -fssa-phiopt
  59              	@ -fstdarg-opt -fstore-merging -fstrict-aliasing
  60              	@ -fstrict-volatile-bitfields -fsync-libcalls -fthread-jumps
  61              	@ -ftoplevel-reorder -ftrapping-math -ftree-bit-ccp -ftree-builtin-call-dce
  62              	@ -ftree-ccp -ftree-ch -ftree-coalesce-vars -ftree-copy-prop -ftree-cselim
  63              	@ -ftree-dce -ftree-dominator-opts -ftree-dse -ftree-forwprop -ftree-fre
  64              	@ -ftree-loop-if-convert -ftree-loop-im -ftree-loop-ivcanon
  65              	@ -ftree-loop-optimize -ftree-parallelize-loops= -ftree-phiprop -ftree-pre
  66              	@ -ftree-pta -ftree-reassoc -ftree-scev-cprop -ftree-sink -ftree-slsr
  67              	@ -ftree-sra -ftree-switch-conversion -ftree-tail-merge -ftree-ter
  68              	@ -ftree-vrp -funit-at-a-time -fvar-tracking -fvar-tracking-assignments
  69              	@ -fverbose-asm -fzero-initialized-in-bss -masm-syntax-unified -mbe32
  70              	@ -mfix-cortex-m3-ldrd -mlittle-endian -mpic-data-is-text-relative
  71              	@ -msched-prolog -mthumb -munaligned-access -mvectorize-with-neon-quad
  72              	
  73              		.text
  74              	.Ltext0:
  75              		.cfi_sections	.debug_frame
  76              		.align	1
  77              		.global	DBGMCU_GetREVID
  78              		.arch armv7-m
  79              		.syntax unified
  80              		.thumb
  81              		.thumb_func
  82              		.fpu softvfp
  83              		.type	DBGMCU_GetREVID, %function
  84              	DBGMCU_GetREVID:
  85              	.LFB29:
  86              		.file 1 ".\\stlib\\STM32F10x_StdPeriph_Driver\\src\\stm32f10x_dbgmcu.c"
   1:.\stlib\STM32F10x_StdPeriph_Driver\src/stm32f10x_dbgmcu.c **** /**
   2:.\stlib\STM32F10x_StdPeriph_Driver\src/stm32f10x_dbgmcu.c ****   ******************************************************************************
   3:.\stlib\STM32F10x_StdPeriph_Driver\src/stm32f10x_dbgmcu.c ****   * @file    stm32f10x_dbgmcu.c
   4:.\stlib\STM32F10x_StdPeriph_Driver\src/stm32f10x_dbgmcu.c ****   * @author  MCD Application Team
   5:.\stlib\STM32F10x_StdPeriph_Driver\src/stm32f10x_dbgmcu.c ****   * @version V3.5.0
   6:.\stlib\STM32F10x_StdPeriph_Driver\src/stm32f10x_dbgmcu.c ****   * @date    11-March-2011
   7:.\stlib\STM32F10x_StdPeriph_Driver\src/stm32f10x_dbgmcu.c ****   * @brief   This file provides all the DBGMCU firmware functions.
   8:.\stlib\STM32F10x_StdPeriph_Driver\src/stm32f10x_dbgmcu.c ****   ******************************************************************************
   9:.\stlib\STM32F10x_StdPeriph_Driver\src/stm32f10x_dbgmcu.c ****   * @attention
  10:.\stlib\STM32F10x_StdPeriph_Driver\src/stm32f10x_dbgmcu.c ****   *
  11:.\stlib\STM32F10x_StdPeriph_Driver\src/stm32f10x_dbgmcu.c ****   * THE PRESENT FIRMWARE WHICH IS FOR GUIDANCE ONLY AIMS AT PROVIDING CUSTOMERS
  12:.\stlib\STM32F10x_StdPeriph_Driver\src/stm32f10x_dbgmcu.c ****   * WITH CODING INFORMATION REGARDING THEIR PRODUCTS IN ORDER FOR THEM TO SAVE
  13:.\stlib\STM32F10x_StdPeriph_Driver\src/stm32f10x_dbgmcu.c ****   * TIME. AS A RESULT, STMICROELECTRONICS SHALL NOT BE HELD LIABLE FOR ANY
  14:.\stlib\STM32F10x_StdPeriph_Driver\src/stm32f10x_dbgmcu.c ****   * DIRECT, INDIRECT OR CONSEQUENTIAL DAMAGES WITH RESPECT TO ANY CLAIMS ARISING
  15:.\stlib\STM32F10x_StdPeriph_Driver\src/stm32f10x_dbgmcu.c ****   * FROM THE CONTENT OF SUCH FIRMWARE AND/OR THE USE MADE BY CUSTOMERS OF THE
  16:.\stlib\STM32F10x_StdPeriph_Driver\src/stm32f10x_dbgmcu.c ****   * CODING INFORMATION CONTAINED HEREIN IN CONNECTION WITH THEIR PRODUCTS.
  17:.\stlib\STM32F10x_StdPeriph_Driver\src/stm32f10x_dbgmcu.c ****   *
  18:.\stlib\STM32F10x_StdPeriph_Driver\src/stm32f10x_dbgmcu.c ****   * <h2><center>&copy; COPYRIGHT 2011 STMicroelectronics</center></h2>
  19:.\stlib\STM32F10x_StdPeriph_Driver\src/stm32f10x_dbgmcu.c ****   ******************************************************************************
  20:.\stlib\STM32F10x_StdPeriph_Driver\src/stm32f10x_dbgmcu.c ****   */
  21:.\stlib\STM32F10x_StdPeriph_Driver\src/stm32f10x_dbgmcu.c **** 
  22:.\stlib\STM32F10x_StdPeriph_Driver\src/stm32f10x_dbgmcu.c **** /* Includes ------------------------------------------------------------------*/
  23:.\stlib\STM32F10x_StdPeriph_Driver\src/stm32f10x_dbgmcu.c **** #include "stm32f10x_dbgmcu.h"
  24:.\stlib\STM32F10x_StdPeriph_Driver\src/stm32f10x_dbgmcu.c **** 
  25:.\stlib\STM32F10x_StdPeriph_Driver\src/stm32f10x_dbgmcu.c **** /** @addtogroup STM32F10x_StdPeriph_Driver
  26:.\stlib\STM32F10x_StdPeriph_Driver\src/stm32f10x_dbgmcu.c ****   * @{
  27:.\stlib\STM32F10x_StdPeriph_Driver\src/stm32f10x_dbgmcu.c ****   */
  28:.\stlib\STM32F10x_StdPeriph_Driver\src/stm32f10x_dbgmcu.c **** 
ARM GAS  C:\Users\skey\AppData\Local\Temp\ccM7eg8C.s 			page 3


  29:.\stlib\STM32F10x_StdPeriph_Driver\src/stm32f10x_dbgmcu.c **** /** @defgroup DBGMCU 
  30:.\stlib\STM32F10x_StdPeriph_Driver\src/stm32f10x_dbgmcu.c ****   * @brief DBGMCU driver modules
  31:.\stlib\STM32F10x_StdPeriph_Driver\src/stm32f10x_dbgmcu.c ****   * @{
  32:.\stlib\STM32F10x_StdPeriph_Driver\src/stm32f10x_dbgmcu.c ****   */ 
  33:.\stlib\STM32F10x_StdPeriph_Driver\src/stm32f10x_dbgmcu.c **** 
  34:.\stlib\STM32F10x_StdPeriph_Driver\src/stm32f10x_dbgmcu.c **** /** @defgroup DBGMCU_Private_TypesDefinitions
  35:.\stlib\STM32F10x_StdPeriph_Driver\src/stm32f10x_dbgmcu.c ****   * @{
  36:.\stlib\STM32F10x_StdPeriph_Driver\src/stm32f10x_dbgmcu.c ****   */
  37:.\stlib\STM32F10x_StdPeriph_Driver\src/stm32f10x_dbgmcu.c **** 
  38:.\stlib\STM32F10x_StdPeriph_Driver\src/stm32f10x_dbgmcu.c **** /**
  39:.\stlib\STM32F10x_StdPeriph_Driver\src/stm32f10x_dbgmcu.c ****   * @}
  40:.\stlib\STM32F10x_StdPeriph_Driver\src/stm32f10x_dbgmcu.c ****   */
  41:.\stlib\STM32F10x_StdPeriph_Driver\src/stm32f10x_dbgmcu.c **** 
  42:.\stlib\STM32F10x_StdPeriph_Driver\src/stm32f10x_dbgmcu.c **** /** @defgroup DBGMCU_Private_Defines
  43:.\stlib\STM32F10x_StdPeriph_Driver\src/stm32f10x_dbgmcu.c ****   * @{
  44:.\stlib\STM32F10x_StdPeriph_Driver\src/stm32f10x_dbgmcu.c ****   */
  45:.\stlib\STM32F10x_StdPeriph_Driver\src/stm32f10x_dbgmcu.c **** 
  46:.\stlib\STM32F10x_StdPeriph_Driver\src/stm32f10x_dbgmcu.c **** #define IDCODE_DEVID_MASK    ((uint32_t)0x00000FFF)
  47:.\stlib\STM32F10x_StdPeriph_Driver\src/stm32f10x_dbgmcu.c **** /**
  48:.\stlib\STM32F10x_StdPeriph_Driver\src/stm32f10x_dbgmcu.c ****   * @}
  49:.\stlib\STM32F10x_StdPeriph_Driver\src/stm32f10x_dbgmcu.c ****   */
  50:.\stlib\STM32F10x_StdPeriph_Driver\src/stm32f10x_dbgmcu.c **** 
  51:.\stlib\STM32F10x_StdPeriph_Driver\src/stm32f10x_dbgmcu.c **** /** @defgroup DBGMCU_Private_Macros
  52:.\stlib\STM32F10x_StdPeriph_Driver\src/stm32f10x_dbgmcu.c ****   * @{
  53:.\stlib\STM32F10x_StdPeriph_Driver\src/stm32f10x_dbgmcu.c ****   */
  54:.\stlib\STM32F10x_StdPeriph_Driver\src/stm32f10x_dbgmcu.c **** 
  55:.\stlib\STM32F10x_StdPeriph_Driver\src/stm32f10x_dbgmcu.c **** /**
  56:.\stlib\STM32F10x_StdPeriph_Driver\src/stm32f10x_dbgmcu.c ****   * @}
  57:.\stlib\STM32F10x_StdPeriph_Driver\src/stm32f10x_dbgmcu.c ****   */
  58:.\stlib\STM32F10x_StdPeriph_Driver\src/stm32f10x_dbgmcu.c **** 
  59:.\stlib\STM32F10x_StdPeriph_Driver\src/stm32f10x_dbgmcu.c **** /** @defgroup DBGMCU_Private_Variables
  60:.\stlib\STM32F10x_StdPeriph_Driver\src/stm32f10x_dbgmcu.c ****   * @{
  61:.\stlib\STM32F10x_StdPeriph_Driver\src/stm32f10x_dbgmcu.c ****   */
  62:.\stlib\STM32F10x_StdPeriph_Driver\src/stm32f10x_dbgmcu.c **** 
  63:.\stlib\STM32F10x_StdPeriph_Driver\src/stm32f10x_dbgmcu.c **** /**
  64:.\stlib\STM32F10x_StdPeriph_Driver\src/stm32f10x_dbgmcu.c ****   * @}
  65:.\stlib\STM32F10x_StdPeriph_Driver\src/stm32f10x_dbgmcu.c ****   */
  66:.\stlib\STM32F10x_StdPeriph_Driver\src/stm32f10x_dbgmcu.c **** 
  67:.\stlib\STM32F10x_StdPeriph_Driver\src/stm32f10x_dbgmcu.c **** /** @defgroup DBGMCU_Private_FunctionPrototypes
  68:.\stlib\STM32F10x_StdPeriph_Driver\src/stm32f10x_dbgmcu.c ****   * @{
  69:.\stlib\STM32F10x_StdPeriph_Driver\src/stm32f10x_dbgmcu.c ****   */
  70:.\stlib\STM32F10x_StdPeriph_Driver\src/stm32f10x_dbgmcu.c **** 
  71:.\stlib\STM32F10x_StdPeriph_Driver\src/stm32f10x_dbgmcu.c **** /**
  72:.\stlib\STM32F10x_StdPeriph_Driver\src/stm32f10x_dbgmcu.c ****   * @}
  73:.\stlib\STM32F10x_StdPeriph_Driver\src/stm32f10x_dbgmcu.c ****   */
  74:.\stlib\STM32F10x_StdPeriph_Driver\src/stm32f10x_dbgmcu.c **** 
  75:.\stlib\STM32F10x_StdPeriph_Driver\src/stm32f10x_dbgmcu.c **** /** @defgroup DBGMCU_Private_Functions
  76:.\stlib\STM32F10x_StdPeriph_Driver\src/stm32f10x_dbgmcu.c ****   * @{
  77:.\stlib\STM32F10x_StdPeriph_Driver\src/stm32f10x_dbgmcu.c ****   */
  78:.\stlib\STM32F10x_StdPeriph_Driver\src/stm32f10x_dbgmcu.c **** 
  79:.\stlib\STM32F10x_StdPeriph_Driver\src/stm32f10x_dbgmcu.c **** /**
  80:.\stlib\STM32F10x_StdPeriph_Driver\src/stm32f10x_dbgmcu.c ****   * @brief  Returns the device revision identifier.
  81:.\stlib\STM32F10x_StdPeriph_Driver\src/stm32f10x_dbgmcu.c ****   * @param  None
  82:.\stlib\STM32F10x_StdPeriph_Driver\src/stm32f10x_dbgmcu.c ****   * @retval Device revision identifier
  83:.\stlib\STM32F10x_StdPeriph_Driver\src/stm32f10x_dbgmcu.c ****   */
  84:.\stlib\STM32F10x_StdPeriph_Driver\src/stm32f10x_dbgmcu.c **** uint32_t DBGMCU_GetREVID(void)
  85:.\stlib\STM32F10x_StdPeriph_Driver\src/stm32f10x_dbgmcu.c **** {
ARM GAS  C:\Users\skey\AppData\Local\Temp\ccM7eg8C.s 			page 4


  87              		.loc 1 85 1 view -0
  88              		.cfi_startproc
  89              		@ args = 0, pretend = 0, frame = 0
  90              		@ frame_needed = 0, uses_anonymous_args = 0
  91              		@ link register save eliminated.
  86:.\stlib\STM32F10x_StdPeriph_Driver\src/stm32f10x_dbgmcu.c ****    return(DBGMCU->IDCODE >> 16);
  92              		.loc 1 86 4 view .LVU1
  93              	@ .\stlib\STM32F10x_StdPeriph_Driver\src\stm32f10x_dbgmcu.c:86:    return(DBGMCU->IDCODE >> 16);
  94              		.loc 1 86 17 is_stmt 0 view .LVU2
  95 0000 014B     		ldr	r3, .L2	@ tmp112,
  96 0002 1868     		ldr	r0, [r3]	@ _1, MEM[(struct DBGMCU_TypeDef *)3758366720B].IDCODE
  97              	@ .\stlib\STM32F10x_StdPeriph_Driver\src\stm32f10x_dbgmcu.c:87: }
  87:.\stlib\STM32F10x_StdPeriph_Driver\src/stm32f10x_dbgmcu.c **** }
  98              		.loc 1 87 1 view .LVU3
  99 0004 000C     		lsrs	r0, r0, #16	@, _1,
 100 0006 7047     		bx	lr	@
 101              	.L3:
 102              		.align	2
 103              	.L2:
 104 0008 002004E0 		.word	-536600576
 105              		.cfi_endproc
 106              	.LFE29:
 107              		.size	DBGMCU_GetREVID, .-DBGMCU_GetREVID
 108              		.align	1
 109              		.global	DBGMCU_GetDEVID
 110              		.syntax unified
 111              		.thumb
 112              		.thumb_func
 113              		.fpu softvfp
 114              		.type	DBGMCU_GetDEVID, %function
 115              	DBGMCU_GetDEVID:
 116              	.LFB30:
  88:.\stlib\STM32F10x_StdPeriph_Driver\src/stm32f10x_dbgmcu.c **** 
  89:.\stlib\STM32F10x_StdPeriph_Driver\src/stm32f10x_dbgmcu.c **** /**
  90:.\stlib\STM32F10x_StdPeriph_Driver\src/stm32f10x_dbgmcu.c ****   * @brief  Returns the device identifier.
  91:.\stlib\STM32F10x_StdPeriph_Driver\src/stm32f10x_dbgmcu.c ****   * @param  None
  92:.\stlib\STM32F10x_StdPeriph_Driver\src/stm32f10x_dbgmcu.c ****   * @retval Device identifier
  93:.\stlib\STM32F10x_StdPeriph_Driver\src/stm32f10x_dbgmcu.c ****   */
  94:.\stlib\STM32F10x_StdPeriph_Driver\src/stm32f10x_dbgmcu.c **** uint32_t DBGMCU_GetDEVID(void)
  95:.\stlib\STM32F10x_StdPeriph_Driver\src/stm32f10x_dbgmcu.c **** {
 117              		.loc 1 95 1 is_stmt 1 view -0
 118              		.cfi_startproc
 119              		@ args = 0, pretend = 0, frame = 0
 120              		@ frame_needed = 0, uses_anonymous_args = 0
 121              		@ link register save eliminated.
  96:.\stlib\STM32F10x_StdPeriph_Driver\src/stm32f10x_dbgmcu.c ****    return(DBGMCU->IDCODE & IDCODE_DEVID_MASK);
 122              		.loc 1 96 4 view .LVU5
 123              	@ .\stlib\STM32F10x_StdPeriph_Driver\src\stm32f10x_dbgmcu.c:96:    return(DBGMCU->IDCODE & IDCODE_D
 124              		.loc 1 96 17 is_stmt 0 view .LVU6
 125 000c 024B     		ldr	r3, .L5	@ tmp112,
 126 000e 1868     		ldr	r0, [r3]	@ _1, MEM[(struct DBGMCU_TypeDef *)3758366720B].IDCODE
 127              	@ .\stlib\STM32F10x_StdPeriph_Driver\src\stm32f10x_dbgmcu.c:97: }
  97:.\stlib\STM32F10x_StdPeriph_Driver\src/stm32f10x_dbgmcu.c **** }
 128              		.loc 1 97 1 view .LVU7
 129 0010 C0F30B00 		ubfx	r0, r0, #0, #12	@, _1,,
 130 0014 7047     		bx	lr	@
 131              	.L6:
ARM GAS  C:\Users\skey\AppData\Local\Temp\ccM7eg8C.s 			page 5


 132 0016 00BF     		.align	2
 133              	.L5:
 134 0018 002004E0 		.word	-536600576
 135              		.cfi_endproc
 136              	.LFE30:
 137              		.size	DBGMCU_GetDEVID, .-DBGMCU_GetDEVID
 138              		.align	1
 139              		.global	DBGMCU_Config
 140              		.syntax unified
 141              		.thumb
 142              		.thumb_func
 143              		.fpu softvfp
 144              		.type	DBGMCU_Config, %function
 145              	DBGMCU_Config:
 146              	.LVL0:
 147              	.LFB31:
  98:.\stlib\STM32F10x_StdPeriph_Driver\src/stm32f10x_dbgmcu.c **** 
  99:.\stlib\STM32F10x_StdPeriph_Driver\src/stm32f10x_dbgmcu.c **** /**
 100:.\stlib\STM32F10x_StdPeriph_Driver\src/stm32f10x_dbgmcu.c ****   * @brief  Configures the specified peripheral and low power mode behavior
 101:.\stlib\STM32F10x_StdPeriph_Driver\src/stm32f10x_dbgmcu.c ****   *   when the MCU under Debug mode.
 102:.\stlib\STM32F10x_StdPeriph_Driver\src/stm32f10x_dbgmcu.c ****   * @param  DBGMCU_Periph: specifies the peripheral and low power mode.
 103:.\stlib\STM32F10x_StdPeriph_Driver\src/stm32f10x_dbgmcu.c ****   *   This parameter can be any combination of the following values:
 104:.\stlib\STM32F10x_StdPeriph_Driver\src/stm32f10x_dbgmcu.c ****   *     @arg DBGMCU_SLEEP: Keep debugger connection during SLEEP mode              
 105:.\stlib\STM32F10x_StdPeriph_Driver\src/stm32f10x_dbgmcu.c ****   *     @arg DBGMCU_STOP: Keep debugger connection during STOP mode               
 106:.\stlib\STM32F10x_StdPeriph_Driver\src/stm32f10x_dbgmcu.c ****   *     @arg DBGMCU_STANDBY: Keep debugger connection during STANDBY mode            
 107:.\stlib\STM32F10x_StdPeriph_Driver\src/stm32f10x_dbgmcu.c ****   *     @arg DBGMCU_IWDG_STOP: Debug IWDG stopped when Core is halted          
 108:.\stlib\STM32F10x_StdPeriph_Driver\src/stm32f10x_dbgmcu.c ****   *     @arg DBGMCU_WWDG_STOP: Debug WWDG stopped when Core is halted          
 109:.\stlib\STM32F10x_StdPeriph_Driver\src/stm32f10x_dbgmcu.c ****   *     @arg DBGMCU_TIM1_STOP: TIM1 counter stopped when Core is halted          
 110:.\stlib\STM32F10x_StdPeriph_Driver\src/stm32f10x_dbgmcu.c ****   *     @arg DBGMCU_TIM2_STOP: TIM2 counter stopped when Core is halted          
 111:.\stlib\STM32F10x_StdPeriph_Driver\src/stm32f10x_dbgmcu.c ****   *     @arg DBGMCU_TIM3_STOP: TIM3 counter stopped when Core is halted          
 112:.\stlib\STM32F10x_StdPeriph_Driver\src/stm32f10x_dbgmcu.c ****   *     @arg DBGMCU_TIM4_STOP: TIM4 counter stopped when Core is halted          
 113:.\stlib\STM32F10x_StdPeriph_Driver\src/stm32f10x_dbgmcu.c ****   *     @arg DBGMCU_CAN1_STOP: Debug CAN2 stopped when Core is halted           
 114:.\stlib\STM32F10x_StdPeriph_Driver\src/stm32f10x_dbgmcu.c ****   *     @arg DBGMCU_I2C1_SMBUS_TIMEOUT: I2C1 SMBUS timeout mode stopped when Core is halted
 115:.\stlib\STM32F10x_StdPeriph_Driver\src/stm32f10x_dbgmcu.c ****   *     @arg DBGMCU_I2C2_SMBUS_TIMEOUT: I2C2 SMBUS timeout mode stopped when Core is halted
 116:.\stlib\STM32F10x_StdPeriph_Driver\src/stm32f10x_dbgmcu.c ****   *     @arg DBGMCU_TIM5_STOP: TIM5 counter stopped when Core is halted          
 117:.\stlib\STM32F10x_StdPeriph_Driver\src/stm32f10x_dbgmcu.c ****   *     @arg DBGMCU_TIM6_STOP: TIM6 counter stopped when Core is halted          
 118:.\stlib\STM32F10x_StdPeriph_Driver\src/stm32f10x_dbgmcu.c ****   *     @arg DBGMCU_TIM7_STOP: TIM7 counter stopped when Core is halted          
 119:.\stlib\STM32F10x_StdPeriph_Driver\src/stm32f10x_dbgmcu.c ****   *     @arg DBGMCU_TIM8_STOP: TIM8 counter stopped when Core is halted
 120:.\stlib\STM32F10x_StdPeriph_Driver\src/stm32f10x_dbgmcu.c ****   *     @arg DBGMCU_CAN2_STOP: Debug CAN2 stopped when Core is halted 
 121:.\stlib\STM32F10x_StdPeriph_Driver\src/stm32f10x_dbgmcu.c ****   *     @arg DBGMCU_TIM15_STOP: TIM15 counter stopped when Core is halted
 122:.\stlib\STM32F10x_StdPeriph_Driver\src/stm32f10x_dbgmcu.c ****   *     @arg DBGMCU_TIM16_STOP: TIM16 counter stopped when Core is halted
 123:.\stlib\STM32F10x_StdPeriph_Driver\src/stm32f10x_dbgmcu.c ****   *     @arg DBGMCU_TIM17_STOP: TIM17 counter stopped when Core is halted                
 124:.\stlib\STM32F10x_StdPeriph_Driver\src/stm32f10x_dbgmcu.c ****   *     @arg DBGMCU_TIM9_STOP: TIM9 counter stopped when Core is halted
 125:.\stlib\STM32F10x_StdPeriph_Driver\src/stm32f10x_dbgmcu.c ****   *     @arg DBGMCU_TIM10_STOP: TIM10 counter stopped when Core is halted
 126:.\stlib\STM32F10x_StdPeriph_Driver\src/stm32f10x_dbgmcu.c ****   *     @arg DBGMCU_TIM11_STOP: TIM11 counter stopped when Core is halted
 127:.\stlib\STM32F10x_StdPeriph_Driver\src/stm32f10x_dbgmcu.c ****   *     @arg DBGMCU_TIM12_STOP: TIM12 counter stopped when Core is halted
 128:.\stlib\STM32F10x_StdPeriph_Driver\src/stm32f10x_dbgmcu.c ****   *     @arg DBGMCU_TIM13_STOP: TIM13 counter stopped when Core is halted
 129:.\stlib\STM32F10x_StdPeriph_Driver\src/stm32f10x_dbgmcu.c ****   *     @arg DBGMCU_TIM14_STOP: TIM14 counter stopped when Core is halted
 130:.\stlib\STM32F10x_StdPeriph_Driver\src/stm32f10x_dbgmcu.c ****   * @param  NewState: new state of the specified peripheral in Debug mode.
 131:.\stlib\STM32F10x_StdPeriph_Driver\src/stm32f10x_dbgmcu.c ****   *   This parameter can be: ENABLE or DISABLE.
 132:.\stlib\STM32F10x_StdPeriph_Driver\src/stm32f10x_dbgmcu.c ****   * @retval None
 133:.\stlib\STM32F10x_StdPeriph_Driver\src/stm32f10x_dbgmcu.c ****   */
 134:.\stlib\STM32F10x_StdPeriph_Driver\src/stm32f10x_dbgmcu.c **** void DBGMCU_Config(uint32_t DBGMCU_Periph, FunctionalState NewState)
 135:.\stlib\STM32F10x_StdPeriph_Driver\src/stm32f10x_dbgmcu.c **** {
 148              		.loc 1 135 1 is_stmt 1 view -0
 149              		.cfi_startproc
 150              		@ args = 0, pretend = 0, frame = 0
ARM GAS  C:\Users\skey\AppData\Local\Temp\ccM7eg8C.s 			page 6


 151              		@ frame_needed = 0, uses_anonymous_args = 0
 152              		@ link register save eliminated.
 136:.\stlib\STM32F10x_StdPeriph_Driver\src/stm32f10x_dbgmcu.c ****   /* Check the parameters */
 137:.\stlib\STM32F10x_StdPeriph_Driver\src/stm32f10x_dbgmcu.c ****   assert_param(IS_DBGMCU_PERIPH(DBGMCU_Periph));
 153              		.loc 1 137 3 view .LVU9
 138:.\stlib\STM32F10x_StdPeriph_Driver\src/stm32f10x_dbgmcu.c ****   assert_param(IS_FUNCTIONAL_STATE(NewState));
 154              		.loc 1 138 3 view .LVU10
 139:.\stlib\STM32F10x_StdPeriph_Driver\src/stm32f10x_dbgmcu.c **** 
 140:.\stlib\STM32F10x_StdPeriph_Driver\src/stm32f10x_dbgmcu.c ****   if (NewState != DISABLE)
 155              		.loc 1 140 3 view .LVU11
 156 001c 044B     		ldr	r3, .L11	@ tmp122,
 157              	@ .\stlib\STM32F10x_StdPeriph_Driver\src\stm32f10x_dbgmcu.c:142:     DBGMCU->CR |= DBGMCU_Periph;
 141:.\stlib\STM32F10x_StdPeriph_Driver\src/stm32f10x_dbgmcu.c ****   {
 142:.\stlib\STM32F10x_StdPeriph_Driver\src/stm32f10x_dbgmcu.c ****     DBGMCU->CR |= DBGMCU_Periph;
 158              		.loc 1 142 16 is_stmt 0 view .LVU12
 159 001e 5A68     		ldr	r2, [r3, #4]	@ _1,
 160              	@ .\stlib\STM32F10x_StdPeriph_Driver\src\stm32f10x_dbgmcu.c:140:   if (NewState != DISABLE)
 140:.\stlib\STM32F10x_StdPeriph_Driver\src/stm32f10x_dbgmcu.c ****   {
 161              		.loc 1 140 6 view .LVU13
 162 0020 11B1     		cbz	r1, .L8	@ tmp124,
 163              		.loc 1 142 5 is_stmt 1 view .LVU14
 164              	@ .\stlib\STM32F10x_StdPeriph_Driver\src\stm32f10x_dbgmcu.c:142:     DBGMCU->CR |= DBGMCU_Periph;
 165              		.loc 1 142 16 is_stmt 0 view .LVU15
 166 0022 1043     		orrs	r0, r0, r2	@, _2, DBGMCU_Periph, _1
 167              	.LVL1:
 168              	.L10:
 169              	@ .\stlib\STM32F10x_StdPeriph_Driver\src\stm32f10x_dbgmcu.c:146:     DBGMCU->CR &= ~DBGMCU_Periph;
 143:.\stlib\STM32F10x_StdPeriph_Driver\src/stm32f10x_dbgmcu.c ****   }
 144:.\stlib\STM32F10x_StdPeriph_Driver\src/stm32f10x_dbgmcu.c ****   else
 145:.\stlib\STM32F10x_StdPeriph_Driver\src/stm32f10x_dbgmcu.c ****   {
 146:.\stlib\STM32F10x_StdPeriph_Driver\src/stm32f10x_dbgmcu.c ****     DBGMCU->CR &= ~DBGMCU_Periph;
 170              		.loc 1 146 16 view .LVU16
 171 0024 5860     		str	r0, [r3, #4]	@ _5,
 172              	@ .\stlib\STM32F10x_StdPeriph_Driver\src\stm32f10x_dbgmcu.c:148: }
 147:.\stlib\STM32F10x_StdPeriph_Driver\src/stm32f10x_dbgmcu.c ****   }
 148:.\stlib\STM32F10x_StdPeriph_Driver\src/stm32f10x_dbgmcu.c **** }
 173              		.loc 1 148 1 view .LVU17
 174 0026 7047     		bx	lr	@
 175              	.LVL2:
 176              	.L8:
 146:.\stlib\STM32F10x_StdPeriph_Driver\src/stm32f10x_dbgmcu.c ****   }
 177              		.loc 1 146 5 is_stmt 1 view .LVU18
 178              	@ .\stlib\STM32F10x_StdPeriph_Driver\src\stm32f10x_dbgmcu.c:146:     DBGMCU->CR &= ~DBGMCU_Periph;
 146:.\stlib\STM32F10x_StdPeriph_Driver\src/stm32f10x_dbgmcu.c ****   }
 179              		.loc 1 146 16 is_stmt 0 view .LVU19
 180 0028 22EA0000 		bic	r0, r2, r0	@ _5, _3, DBGMCU_Periph
 181              	.LVL3:
 146:.\stlib\STM32F10x_StdPeriph_Driver\src/stm32f10x_dbgmcu.c ****   }
 182              		.loc 1 146 16 view .LVU20
 183 002c FAE7     		b	.L10		@
 184              	.L12:
 185 002e 00BF     		.align	2
 186              	.L11:
 187 0030 002004E0 		.word	-536600576
 188              		.cfi_endproc
 189              	.LFE31:
 190              		.size	DBGMCU_Config, .-DBGMCU_Config
ARM GAS  C:\Users\skey\AppData\Local\Temp\ccM7eg8C.s 			page 7


 191              	.Letext0:
 192              		.file 2 "c:\\program files (x86)\\gnu tools arm embedded\\9 2019-q4-major\\arm-none-eabi\\include\
 193              		.file 3 "c:\\program files (x86)\\gnu tools arm embedded\\9 2019-q4-major\\arm-none-eabi\\include\
 194              		.file 4 ".\\stlib\\CMSIS\\CM3\\CoreSupport/core_cm3.h"
 195              		.file 5 ".\\stlib\\CMSIS\\CM3\\DeviceSupport\\ST\\STM32F10x/system_stm32f10x.h"
 196              		.file 6 ".\\stlib\\CMSIS\\CM3\\DeviceSupport\\ST\\STM32F10x/stm32f10x.h"