ARM GAS  C:\Users\skey\AppData\Local\Temp\ccDz30Qf.s 			page 1


   1              		.cpu cortex-m3
   2              		.eabi_attribute 20, 1	@ Tag_ABI_FP_denormal
   3              		.eabi_attribute 21, 1	@ Tag_ABI_FP_exceptions
   4              		.eabi_attribute 23, 3	@ Tag_ABI_FP_number_model
   5              		.eabi_attribute 24, 1	@ Tag_ABI_align8_needed
   6              		.eabi_attribute 25, 1	@ Tag_ABI_align8_preserved
   7              		.eabi_attribute 26, 1	@ Tag_ABI_enum_size
   8              		.eabi_attribute 30, 4	@ Tag_ABI_optimization_goals
   9              		.eabi_attribute 34, 1	@ Tag_CPU_unaligned_access
  10              		.eabi_attribute 18, 4	@ Tag_ABI_PCS_wchar_t
  11              		.file	"stm32f10x_cec.c"
  12              	@ GNU C17 (GNU Tools for Arm Embedded Processors 9-2019-q4-major) version 9.2.1 20191025 (release) 
  13              	@	compiled by GNU C version 5.3.1 20160211, GMP version 6.1.0, MPFR version 3.1.4, MPC version 1.0.
  14              	
  15              	@ GGC heuristics: --param ggc-min-expand=100 --param ggc-min-heapsize=131072
  16              	@ options passed:  -I . -I .\usr_inc -I .\task_inc
  17              	@ -I .\stlib\CMSIS\CM3\CoreSupport
  18              	@ -I .\stlib\CMSIS\CM3\DeviceSupport\ST\STM32F10x
  19              	@ -I .\stlib\STM32F10x_StdPeriph_Driver\inc
  20              	@ -I .\stlib\STM32F10x_StdPeriph_Driver -I .\freertos\include
  21              	@ -I .\freertos\portable\GCC\ARM_CM3 -imultilib thumb/v7-m/nofp
  22              	@ -iprefix c:\program files (x86)\gnu tools arm embedded\9 2019-q4-major\bin\../lib/gcc/arm-none-ea
  23              	@ -isysroot c:\program files (x86)\gnu tools arm embedded\9 2019-q4-major\bin\../arm-none-eabi
  24              	@ -D__USES_INITFINI__ -D STM32F10X_HD -D USE_STDPERIPH_DRIVER
  25              	@ -D HSE_VALUE=8000000 -D RUN_FROM_FLASH=1
  26              	@ .\stlib\STM32F10x_StdPeriph_Driver\src\stm32f10x_cec.c -mcpu=cortex-m3
  27              	@ -mthumb -mfloat-abi=soft -march=armv7-m
  28              	@ -auxbase-strip .\stlib\STM32F10x_StdPeriph_Driver\src\stm32f10x_cec.o -g
  29              	@ -gdwarf-2 -Os -Wall -fomit-frame-pointer -fverbose-asm
  30              	@ options enabled:  -faggressive-loop-optimizations -fassume-phsa
  31              	@ -fauto-inc-dec -fbranch-count-reg -fcaller-saves -fcode-hoisting
  32              	@ -fcombine-stack-adjustments -fcommon -fcompare-elim -fcprop-registers
  33              	@ -fcrossjumping -fcse-follow-jumps -fdefer-pop
  34              	@ -fdelete-null-pointer-checks -fdevirtualize -fdevirtualize-speculatively
  35              	@ -fdwarf2-cfi-asm -fearly-inlining -feliminate-unused-debug-types
  36              	@ -fexpensive-optimizations -fforward-propagate -ffp-int-builtin-inexact
  37              	@ -ffunction-cse -fgcse -fgcse-lm -fgnu-runtime -fgnu-unique
  38              	@ -fguess-branch-probability -fhoist-adjacent-loads -fident -fif-conversion
  39              	@ -fif-conversion2 -findirect-inlining -finline -finline-atomics
  40              	@ -finline-functions -finline-functions-called-once
  41              	@ -finline-small-functions -fipa-bit-cp -fipa-cp -fipa-icf
  42              	@ -fipa-icf-functions -fipa-icf-variables -fipa-profile -fipa-pure-const
  43              	@ -fipa-ra -fipa-reference -fipa-reference-addressable -fipa-sra
  44              	@ -fipa-stack-alignment -fipa-vrp -fira-hoist-pressure
  45              	@ -fira-share-save-slots -fira-share-spill-slots
  46              	@ -fisolate-erroneous-paths-dereference -fivopts -fkeep-static-consts
  47              	@ -fleading-underscore -flifetime-dse -flra-remat -flto-odr-type-merging
  48              	@ -fmath-errno -fmerge-constants -fmerge-debug-strings
  49              	@ -fmove-loop-invariants -fomit-frame-pointer -foptimize-sibling-calls
  50              	@ -fpartial-inlining -fpeephole -fpeephole2 -fplt -fprefetch-loop-arrays
  51              	@ -freg-struct-return -freorder-blocks -freorder-functions
  52              	@ -frerun-cse-after-loop -fsched-critical-path-heuristic
  53              	@ -fsched-dep-count-heuristic -fsched-group-heuristic -fsched-interblock
  54              	@ -fsched-last-insn-heuristic -fsched-pressure -fsched-rank-heuristic
  55              	@ -fsched-spec -fsched-spec-insn-heuristic -fsched-stalled-insns-dep
  56              	@ -fschedule-insns2 -fsection-anchors -fsemantic-interposition
  57              	@ -fshow-column -fshrink-wrap-separate -fsigned-zeros
ARM GAS  C:\Users\skey\AppData\Local\Temp\ccDz30Qf.s 			page 2


  58              	@ -fsplit-ivs-in-unroller -fsplit-wide-types -fssa-backprop -fssa-phiopt
  59              	@ -fstdarg-opt -fstore-merging -fstrict-aliasing
  60              	@ -fstrict-volatile-bitfields -fsync-libcalls -fthread-jumps
  61              	@ -ftoplevel-reorder -ftrapping-math -ftree-bit-ccp -ftree-builtin-call-dce
  62              	@ -ftree-ccp -ftree-ch -ftree-coalesce-vars -ftree-copy-prop -ftree-cselim
  63              	@ -ftree-dce -ftree-dominator-opts -ftree-dse -ftree-forwprop -ftree-fre
  64              	@ -ftree-loop-if-convert -ftree-loop-im -ftree-loop-ivcanon
  65              	@ -ftree-loop-optimize -ftree-parallelize-loops= -ftree-phiprop -ftree-pre
  66              	@ -ftree-pta -ftree-reassoc -ftree-scev-cprop -ftree-sink -ftree-slsr
  67              	@ -ftree-sra -ftree-switch-conversion -ftree-tail-merge -ftree-ter
  68              	@ -ftree-vrp -funit-at-a-time -fvar-tracking -fvar-tracking-assignments
  69              	@ -fverbose-asm -fzero-initialized-in-bss -masm-syntax-unified -mbe32
  70              	@ -mfix-cortex-m3-ldrd -mlittle-endian -mpic-data-is-text-relative
  71              	@ -msched-prolog -mthumb -munaligned-access -mvectorize-with-neon-quad
  72              	
  73              		.text
  74              	.Ltext0:
  75              		.cfi_sections	.debug_frame
  76              		.align	1
  77              		.global	CEC_DeInit
  78              		.arch armv7-m
  79              		.syntax unified
  80              		.thumb
  81              		.thumb_func
  82              		.fpu softvfp
  83              		.type	CEC_DeInit, %function
  84              	CEC_DeInit:
  85              	.LFB29:
  86              		.file 1 ".\\stlib\\STM32F10x_StdPeriph_Driver\\src\\stm32f10x_cec.c"
   1:.\stlib\STM32F10x_StdPeriph_Driver\src/stm32f10x_cec.c **** /**
   2:.\stlib\STM32F10x_StdPeriph_Driver\src/stm32f10x_cec.c ****   ******************************************************************************
   3:.\stlib\STM32F10x_StdPeriph_Driver\src/stm32f10x_cec.c ****   * @file    stm32f10x_cec.c
   4:.\stlib\STM32F10x_StdPeriph_Driver\src/stm32f10x_cec.c ****   * @author  MCD Application Team
   5:.\stlib\STM32F10x_StdPeriph_Driver\src/stm32f10x_cec.c ****   * @version V3.5.0
   6:.\stlib\STM32F10x_StdPeriph_Driver\src/stm32f10x_cec.c ****   * @date    11-March-2011
   7:.\stlib\STM32F10x_StdPeriph_Driver\src/stm32f10x_cec.c ****   * @brief   This file provides all the CEC firmware functions.
   8:.\stlib\STM32F10x_StdPeriph_Driver\src/stm32f10x_cec.c ****   ******************************************************************************
   9:.\stlib\STM32F10x_StdPeriph_Driver\src/stm32f10x_cec.c ****   * @attention
  10:.\stlib\STM32F10x_StdPeriph_Driver\src/stm32f10x_cec.c ****   *
  11:.\stlib\STM32F10x_StdPeriph_Driver\src/stm32f10x_cec.c ****   * THE PRESENT FIRMWARE WHICH IS FOR GUIDANCE ONLY AIMS AT PROVIDING CUSTOMERS
  12:.\stlib\STM32F10x_StdPeriph_Driver\src/stm32f10x_cec.c ****   * WITH CODING INFORMATION REGARDING THEIR PRODUCTS IN ORDER FOR THEM TO SAVE
  13:.\stlib\STM32F10x_StdPeriph_Driver\src/stm32f10x_cec.c ****   * TIME. AS A RESULT, STMICROELECTRONICS SHALL NOT BE HELD LIABLE FOR ANY
  14:.\stlib\STM32F10x_StdPeriph_Driver\src/stm32f10x_cec.c ****   * DIRECT, INDIRECT OR CONSEQUENTIAL DAMAGES WITH RESPECT TO ANY CLAIMS ARISING
  15:.\stlib\STM32F10x_StdPeriph_Driver\src/stm32f10x_cec.c ****   * FROM THE CONTENT OF SUCH FIRMWARE AND/OR THE USE MADE BY CUSTOMERS OF THE
  16:.\stlib\STM32F10x_StdPeriph_Driver\src/stm32f10x_cec.c ****   * CODING INFORMATION CONTAINED HEREIN IN CONNECTION WITH THEIR PRODUCTS.
  17:.\stlib\STM32F10x_StdPeriph_Driver\src/stm32f10x_cec.c ****   *
  18:.\stlib\STM32F10x_StdPeriph_Driver\src/stm32f10x_cec.c ****   * <h2><center>&copy; COPYRIGHT 2011 STMicroelectronics</center></h2>
  19:.\stlib\STM32F10x_StdPeriph_Driver\src/stm32f10x_cec.c ****   ******************************************************************************
  20:.\stlib\STM32F10x_StdPeriph_Driver\src/stm32f10x_cec.c ****   */
  21:.\stlib\STM32F10x_StdPeriph_Driver\src/stm32f10x_cec.c **** 
  22:.\stlib\STM32F10x_StdPeriph_Driver\src/stm32f10x_cec.c **** /* Includes ------------------------------------------------------------------*/
  23:.\stlib\STM32F10x_StdPeriph_Driver\src/stm32f10x_cec.c **** #include "stm32f10x_cec.h"
  24:.\stlib\STM32F10x_StdPeriph_Driver\src/stm32f10x_cec.c **** #include "stm32f10x_rcc.h"
  25:.\stlib\STM32F10x_StdPeriph_Driver\src/stm32f10x_cec.c **** 
  26:.\stlib\STM32F10x_StdPeriph_Driver\src/stm32f10x_cec.c **** /** @addtogroup STM32F10x_StdPeriph_Driver
  27:.\stlib\STM32F10x_StdPeriph_Driver\src/stm32f10x_cec.c ****   * @{
  28:.\stlib\STM32F10x_StdPeriph_Driver\src/stm32f10x_cec.c ****   */
ARM GAS  C:\Users\skey\AppData\Local\Temp\ccDz30Qf.s 			page 3


  29:.\stlib\STM32F10x_StdPeriph_Driver\src/stm32f10x_cec.c **** 
  30:.\stlib\STM32F10x_StdPeriph_Driver\src/stm32f10x_cec.c **** /** @defgroup CEC 
  31:.\stlib\STM32F10x_StdPeriph_Driver\src/stm32f10x_cec.c ****   * @brief CEC driver modules
  32:.\stlib\STM32F10x_StdPeriph_Driver\src/stm32f10x_cec.c ****   * @{
  33:.\stlib\STM32F10x_StdPeriph_Driver\src/stm32f10x_cec.c ****   */
  34:.\stlib\STM32F10x_StdPeriph_Driver\src/stm32f10x_cec.c **** 
  35:.\stlib\STM32F10x_StdPeriph_Driver\src/stm32f10x_cec.c **** /** @defgroup CEC_Private_TypesDefinitions
  36:.\stlib\STM32F10x_StdPeriph_Driver\src/stm32f10x_cec.c ****   * @{
  37:.\stlib\STM32F10x_StdPeriph_Driver\src/stm32f10x_cec.c ****   */
  38:.\stlib\STM32F10x_StdPeriph_Driver\src/stm32f10x_cec.c **** 
  39:.\stlib\STM32F10x_StdPeriph_Driver\src/stm32f10x_cec.c **** /**
  40:.\stlib\STM32F10x_StdPeriph_Driver\src/stm32f10x_cec.c ****   * @}
  41:.\stlib\STM32F10x_StdPeriph_Driver\src/stm32f10x_cec.c ****   */
  42:.\stlib\STM32F10x_StdPeriph_Driver\src/stm32f10x_cec.c **** 
  43:.\stlib\STM32F10x_StdPeriph_Driver\src/stm32f10x_cec.c **** 
  44:.\stlib\STM32F10x_StdPeriph_Driver\src/stm32f10x_cec.c **** /** @defgroup CEC_Private_Defines
  45:.\stlib\STM32F10x_StdPeriph_Driver\src/stm32f10x_cec.c ****   * @{
  46:.\stlib\STM32F10x_StdPeriph_Driver\src/stm32f10x_cec.c ****   */ 
  47:.\stlib\STM32F10x_StdPeriph_Driver\src/stm32f10x_cec.c **** 
  48:.\stlib\STM32F10x_StdPeriph_Driver\src/stm32f10x_cec.c **** /* ------------ CEC registers bit address in the alias region ----------- */
  49:.\stlib\STM32F10x_StdPeriph_Driver\src/stm32f10x_cec.c **** #define CEC_OFFSET                (CEC_BASE - PERIPH_BASE)
  50:.\stlib\STM32F10x_StdPeriph_Driver\src/stm32f10x_cec.c **** 
  51:.\stlib\STM32F10x_StdPeriph_Driver\src/stm32f10x_cec.c **** /* --- CFGR Register ---*/
  52:.\stlib\STM32F10x_StdPeriph_Driver\src/stm32f10x_cec.c **** 
  53:.\stlib\STM32F10x_StdPeriph_Driver\src/stm32f10x_cec.c **** /* Alias word address of PE bit */
  54:.\stlib\STM32F10x_StdPeriph_Driver\src/stm32f10x_cec.c **** #define CFGR_OFFSET                 (CEC_OFFSET + 0x00)
  55:.\stlib\STM32F10x_StdPeriph_Driver\src/stm32f10x_cec.c **** #define PE_BitNumber                0x00
  56:.\stlib\STM32F10x_StdPeriph_Driver\src/stm32f10x_cec.c **** #define CFGR_PE_BB                  (PERIPH_BB_BASE + (CFGR_OFFSET * 32) + (PE_BitNumber * 4))
  57:.\stlib\STM32F10x_StdPeriph_Driver\src/stm32f10x_cec.c **** 
  58:.\stlib\STM32F10x_StdPeriph_Driver\src/stm32f10x_cec.c **** /* Alias word address of IE bit */
  59:.\stlib\STM32F10x_StdPeriph_Driver\src/stm32f10x_cec.c **** #define IE_BitNumber                0x01
  60:.\stlib\STM32F10x_StdPeriph_Driver\src/stm32f10x_cec.c **** #define CFGR_IE_BB                  (PERIPH_BB_BASE + (CFGR_OFFSET * 32) + (IE_BitNumber * 4))
  61:.\stlib\STM32F10x_StdPeriph_Driver\src/stm32f10x_cec.c **** 
  62:.\stlib\STM32F10x_StdPeriph_Driver\src/stm32f10x_cec.c **** /* --- CSR Register ---*/
  63:.\stlib\STM32F10x_StdPeriph_Driver\src/stm32f10x_cec.c **** 
  64:.\stlib\STM32F10x_StdPeriph_Driver\src/stm32f10x_cec.c **** /* Alias word address of TSOM bit */
  65:.\stlib\STM32F10x_StdPeriph_Driver\src/stm32f10x_cec.c **** #define CSR_OFFSET                  (CEC_OFFSET + 0x10)
  66:.\stlib\STM32F10x_StdPeriph_Driver\src/stm32f10x_cec.c **** #define TSOM_BitNumber              0x00
  67:.\stlib\STM32F10x_StdPeriph_Driver\src/stm32f10x_cec.c **** #define CSR_TSOM_BB                 (PERIPH_BB_BASE + (CSR_OFFSET * 32) + (TSOM_BitNumber * 4))
  68:.\stlib\STM32F10x_StdPeriph_Driver\src/stm32f10x_cec.c **** 
  69:.\stlib\STM32F10x_StdPeriph_Driver\src/stm32f10x_cec.c **** /* Alias word address of TEOM bit */
  70:.\stlib\STM32F10x_StdPeriph_Driver\src/stm32f10x_cec.c **** #define TEOM_BitNumber              0x01
  71:.\stlib\STM32F10x_StdPeriph_Driver\src/stm32f10x_cec.c **** #define CSR_TEOM_BB                 (PERIPH_BB_BASE + (CSR_OFFSET * 32) + (TEOM_BitNumber * 4))
  72:.\stlib\STM32F10x_StdPeriph_Driver\src/stm32f10x_cec.c ****   
  73:.\stlib\STM32F10x_StdPeriph_Driver\src/stm32f10x_cec.c **** #define CFGR_CLEAR_Mask            (uint8_t)(0xF3)        /* CFGR register Mask */
  74:.\stlib\STM32F10x_StdPeriph_Driver\src/stm32f10x_cec.c **** #define FLAG_Mask                  ((uint32_t)0x00FFFFFF) /* CEC FLAG mask */
  75:.\stlib\STM32F10x_StdPeriph_Driver\src/stm32f10x_cec.c ****  
  76:.\stlib\STM32F10x_StdPeriph_Driver\src/stm32f10x_cec.c **** /**
  77:.\stlib\STM32F10x_StdPeriph_Driver\src/stm32f10x_cec.c ****   * @}
  78:.\stlib\STM32F10x_StdPeriph_Driver\src/stm32f10x_cec.c ****   */ 
  79:.\stlib\STM32F10x_StdPeriph_Driver\src/stm32f10x_cec.c **** 
  80:.\stlib\STM32F10x_StdPeriph_Driver\src/stm32f10x_cec.c **** 
  81:.\stlib\STM32F10x_StdPeriph_Driver\src/stm32f10x_cec.c **** /** @defgroup CEC_Private_Macros
  82:.\stlib\STM32F10x_StdPeriph_Driver\src/stm32f10x_cec.c ****   * @{
  83:.\stlib\STM32F10x_StdPeriph_Driver\src/stm32f10x_cec.c ****   */ 
  84:.\stlib\STM32F10x_StdPeriph_Driver\src/stm32f10x_cec.c **** 
  85:.\stlib\STM32F10x_StdPeriph_Driver\src/stm32f10x_cec.c **** /**
ARM GAS  C:\Users\skey\AppData\Local\Temp\ccDz30Qf.s 			page 4


  86:.\stlib\STM32F10x_StdPeriph_Driver\src/stm32f10x_cec.c ****   * @}
  87:.\stlib\STM32F10x_StdPeriph_Driver\src/stm32f10x_cec.c ****   */ 
  88:.\stlib\STM32F10x_StdPeriph_Driver\src/stm32f10x_cec.c **** 
  89:.\stlib\STM32F10x_StdPeriph_Driver\src/stm32f10x_cec.c **** 
  90:.\stlib\STM32F10x_StdPeriph_Driver\src/stm32f10x_cec.c **** /** @defgroup CEC_Private_Variables
  91:.\stlib\STM32F10x_StdPeriph_Driver\src/stm32f10x_cec.c ****   * @{
  92:.\stlib\STM32F10x_StdPeriph_Driver\src/stm32f10x_cec.c ****   */ 
  93:.\stlib\STM32F10x_StdPeriph_Driver\src/stm32f10x_cec.c **** 
  94:.\stlib\STM32F10x_StdPeriph_Driver\src/stm32f10x_cec.c **** /**
  95:.\stlib\STM32F10x_StdPeriph_Driver\src/stm32f10x_cec.c ****   * @}
  96:.\stlib\STM32F10x_StdPeriph_Driver\src/stm32f10x_cec.c ****   */ 
  97:.\stlib\STM32F10x_StdPeriph_Driver\src/stm32f10x_cec.c **** 
  98:.\stlib\STM32F10x_StdPeriph_Driver\src/stm32f10x_cec.c **** 
  99:.\stlib\STM32F10x_StdPeriph_Driver\src/stm32f10x_cec.c **** /** @defgroup CEC_Private_FunctionPrototypes
 100:.\stlib\STM32F10x_StdPeriph_Driver\src/stm32f10x_cec.c ****   * @{
 101:.\stlib\STM32F10x_StdPeriph_Driver\src/stm32f10x_cec.c ****   */
 102:.\stlib\STM32F10x_StdPeriph_Driver\src/stm32f10x_cec.c ****  
 103:.\stlib\STM32F10x_StdPeriph_Driver\src/stm32f10x_cec.c **** /**
 104:.\stlib\STM32F10x_StdPeriph_Driver\src/stm32f10x_cec.c ****   * @}
 105:.\stlib\STM32F10x_StdPeriph_Driver\src/stm32f10x_cec.c ****   */ 
 106:.\stlib\STM32F10x_StdPeriph_Driver\src/stm32f10x_cec.c **** 
 107:.\stlib\STM32F10x_StdPeriph_Driver\src/stm32f10x_cec.c **** 
 108:.\stlib\STM32F10x_StdPeriph_Driver\src/stm32f10x_cec.c **** /** @defgroup CEC_Private_Functions
 109:.\stlib\STM32F10x_StdPeriph_Driver\src/stm32f10x_cec.c ****   * @{
 110:.\stlib\STM32F10x_StdPeriph_Driver\src/stm32f10x_cec.c ****   */ 
 111:.\stlib\STM32F10x_StdPeriph_Driver\src/stm32f10x_cec.c **** 
 112:.\stlib\STM32F10x_StdPeriph_Driver\src/stm32f10x_cec.c **** /**
 113:.\stlib\STM32F10x_StdPeriph_Driver\src/stm32f10x_cec.c ****   * @brief  Deinitializes the CEC peripheral registers to their default reset 
 114:.\stlib\STM32F10x_StdPeriph_Driver\src/stm32f10x_cec.c ****   *         values.
 115:.\stlib\STM32F10x_StdPeriph_Driver\src/stm32f10x_cec.c ****   * @param  None
 116:.\stlib\STM32F10x_StdPeriph_Driver\src/stm32f10x_cec.c ****   * @retval None
 117:.\stlib\STM32F10x_StdPeriph_Driver\src/stm32f10x_cec.c ****   */
 118:.\stlib\STM32F10x_StdPeriph_Driver\src/stm32f10x_cec.c **** void CEC_DeInit(void)
 119:.\stlib\STM32F10x_StdPeriph_Driver\src/stm32f10x_cec.c **** {
  87              		.loc 1 119 1 view -0
  88              		.cfi_startproc
  89              		@ args = 0, pretend = 0, frame = 0
  90              		@ frame_needed = 0, uses_anonymous_args = 0
 120:.\stlib\STM32F10x_StdPeriph_Driver\src/stm32f10x_cec.c ****   /* Enable CEC reset state */
 121:.\stlib\STM32F10x_StdPeriph_Driver\src/stm32f10x_cec.c ****   RCC_APB1PeriphResetCmd(RCC_APB1Periph_CEC, ENABLE);  
  91              		.loc 1 121 3 view .LVU1
  92              	@ .\stlib\STM32F10x_StdPeriph_Driver\src\stm32f10x_cec.c:119: {
 119:.\stlib\STM32F10x_StdPeriph_Driver\src/stm32f10x_cec.c ****   /* Enable CEC reset state */
  93              		.loc 1 119 1 is_stmt 0 view .LVU2
  94 0000 08B5     		push	{r3, lr}	@
  95              	.LCFI0:
  96              		.cfi_def_cfa_offset 8
  97              		.cfi_offset 3, -8
  98              		.cfi_offset 14, -4
  99              	@ .\stlib\STM32F10x_StdPeriph_Driver\src\stm32f10x_cec.c:121:   RCC_APB1PeriphResetCmd(RCC_APB1Peri
 100              		.loc 1 121 3 view .LVU3
 101 0002 0121     		movs	r1, #1	@,
 102 0004 4FF08040 		mov	r0, #1073741824	@,
 103 0008 FFF7FEFF 		bl	RCC_APB1PeriphResetCmd		@
 104              	.LVL0:
 122:.\stlib\STM32F10x_StdPeriph_Driver\src/stm32f10x_cec.c ****   /* Release CEC from reset state */
 123:.\stlib\STM32F10x_StdPeriph_Driver\src/stm32f10x_cec.c ****   RCC_APB1PeriphResetCmd(RCC_APB1Periph_CEC, DISABLE); 
ARM GAS  C:\Users\skey\AppData\Local\Temp\ccDz30Qf.s 			page 5


 105              		.loc 1 123 3 is_stmt 1 view .LVU4
 106              	@ .\stlib\STM32F10x_StdPeriph_Driver\src\stm32f10x_cec.c:124: }
 124:.\stlib\STM32F10x_StdPeriph_Driver\src/stm32f10x_cec.c **** }
 107              		.loc 1 124 1 is_stmt 0 view .LVU5
 108 000c BDE80840 		pop	{r3, lr}	@
 109              	.LCFI1:
 110              		.cfi_restore 14
 111              		.cfi_restore 3
 112              		.cfi_def_cfa_offset 0
 113              	@ .\stlib\STM32F10x_StdPeriph_Driver\src\stm32f10x_cec.c:123:   RCC_APB1PeriphResetCmd(RCC_APB1Peri
 123:.\stlib\STM32F10x_StdPeriph_Driver\src/stm32f10x_cec.c **** }
 114              		.loc 1 123 3 view .LVU6
 115 0010 0021     		movs	r1, #0	@,
 116 0012 4FF08040 		mov	r0, #1073741824	@,
 117 0016 FFF7FEBF 		b	RCC_APB1PeriphResetCmd		@
 118              	.LVL1:
 119              		.cfi_endproc
 120              	.LFE29:
 121              		.size	CEC_DeInit, .-CEC_DeInit
 122              		.align	1
 123              		.global	CEC_Init
 124              		.syntax unified
 125              		.thumb
 126              		.thumb_func
 127              		.fpu softvfp
 128              		.type	CEC_Init, %function
 129              	CEC_Init:
 130              	.LVL2:
 131              	.LFB30:
 125:.\stlib\STM32F10x_StdPeriph_Driver\src/stm32f10x_cec.c **** 
 126:.\stlib\STM32F10x_StdPeriph_Driver\src/stm32f10x_cec.c **** 
 127:.\stlib\STM32F10x_StdPeriph_Driver\src/stm32f10x_cec.c **** /**
 128:.\stlib\STM32F10x_StdPeriph_Driver\src/stm32f10x_cec.c ****   * @brief  Initializes the CEC peripheral according to the specified 
 129:.\stlib\STM32F10x_StdPeriph_Driver\src/stm32f10x_cec.c ****   *         parameters in the CEC_InitStruct.
 130:.\stlib\STM32F10x_StdPeriph_Driver\src/stm32f10x_cec.c ****   * @param  CEC_InitStruct: pointer to an CEC_InitTypeDef structure that
 131:.\stlib\STM32F10x_StdPeriph_Driver\src/stm32f10x_cec.c ****   *         contains the configuration information for the specified
 132:.\stlib\STM32F10x_StdPeriph_Driver\src/stm32f10x_cec.c ****   *         CEC peripheral.
 133:.\stlib\STM32F10x_StdPeriph_Driver\src/stm32f10x_cec.c ****   * @retval None
 134:.\stlib\STM32F10x_StdPeriph_Driver\src/stm32f10x_cec.c ****   */
 135:.\stlib\STM32F10x_StdPeriph_Driver\src/stm32f10x_cec.c **** void CEC_Init(CEC_InitTypeDef* CEC_InitStruct)
 136:.\stlib\STM32F10x_StdPeriph_Driver\src/stm32f10x_cec.c **** {
 132              		.loc 1 136 1 is_stmt 1 view -0
 133              		.cfi_startproc
 134              		@ args = 0, pretend = 0, frame = 0
 135              		@ frame_needed = 0, uses_anonymous_args = 0
 136              		@ link register save eliminated.
 137:.\stlib\STM32F10x_StdPeriph_Driver\src/stm32f10x_cec.c ****   uint16_t tmpreg = 0;
 137              		.loc 1 137 3 view .LVU8
 138:.\stlib\STM32F10x_StdPeriph_Driver\src/stm32f10x_cec.c ****  
 139:.\stlib\STM32F10x_StdPeriph_Driver\src/stm32f10x_cec.c ****   /* Check the parameters */
 140:.\stlib\STM32F10x_StdPeriph_Driver\src/stm32f10x_cec.c ****   assert_param(IS_CEC_BIT_TIMING_ERROR_MODE(CEC_InitStruct->CEC_BitTimingMode)); 
 138              		.loc 1 140 3 view .LVU9
 141:.\stlib\STM32F10x_StdPeriph_Driver\src/stm32f10x_cec.c ****   assert_param(IS_CEC_BIT_PERIOD_ERROR_MODE(CEC_InitStruct->CEC_BitPeriodMode));
 139              		.loc 1 141 3 view .LVU10
 142:.\stlib\STM32F10x_StdPeriph_Driver\src/stm32f10x_cec.c ****      
 143:.\stlib\STM32F10x_StdPeriph_Driver\src/stm32f10x_cec.c ****   /*---------------------------- CEC CFGR Configuration -----------------*/
 144:.\stlib\STM32F10x_StdPeriph_Driver\src/stm32f10x_cec.c ****   /* Get the CEC CFGR value */
ARM GAS  C:\Users\skey\AppData\Local\Temp\ccDz30Qf.s 			page 6


 145:.\stlib\STM32F10x_StdPeriph_Driver\src/stm32f10x_cec.c ****   tmpreg = CEC->CFGR;
 140              		.loc 1 145 3 view .LVU11
 141              	@ .\stlib\STM32F10x_StdPeriph_Driver\src\stm32f10x_cec.c:145:   tmpreg = CEC->CFGR;
 142              		.loc 1 145 15 is_stmt 0 view .LVU12
 143 001a 0549     		ldr	r1, .L3	@ tmp119,
 144              	@ .\stlib\STM32F10x_StdPeriph_Driver\src\stm32f10x_cec.c:151:   tmpreg |= (uint16_t)(CEC_InitStruct
 146:.\stlib\STM32F10x_StdPeriph_Driver\src/stm32f10x_cec.c ****   
 147:.\stlib\STM32F10x_StdPeriph_Driver\src/stm32f10x_cec.c ****   /* Clear BTEM and BPEM bits */
 148:.\stlib\STM32F10x_StdPeriph_Driver\src/stm32f10x_cec.c ****   tmpreg &= CFGR_CLEAR_Mask;
 149:.\stlib\STM32F10x_StdPeriph_Driver\src/stm32f10x_cec.c ****   
 150:.\stlib\STM32F10x_StdPeriph_Driver\src/stm32f10x_cec.c ****   /* Configure CEC: Bit Timing Error and Bit Period Error */
 151:.\stlib\STM32F10x_StdPeriph_Driver\src/stm32f10x_cec.c ****   tmpreg |= (uint16_t)(CEC_InitStruct->CEC_BitTimingMode | CEC_InitStruct->CEC_BitPeriodMode);
 145              		.loc 1 151 13 view .LVU13
 146 001c 0288     		ldrh	r2, [r0]	@, CEC_InitStruct_9(D)->CEC_BitTimingMode
 147              	@ .\stlib\STM32F10x_StdPeriph_Driver\src\stm32f10x_cec.c:145:   tmpreg = CEC->CFGR;
 145:.\stlib\STM32F10x_StdPeriph_Driver\src/stm32f10x_cec.c ****   
 148              		.loc 1 145 15 view .LVU14
 149 001e 0B68     		ldr	r3, [r1]	@ _1, MEM[(struct CEC_TypeDef *)1073772544B].CFGR
 150              	.LVL3:
 148:.\stlib\STM32F10x_StdPeriph_Driver\src/stm32f10x_cec.c ****   
 151              		.loc 1 148 3 is_stmt 1 view .LVU15
 152              	@ .\stlib\STM32F10x_StdPeriph_Driver\src\stm32f10x_cec.c:151:   tmpreg |= (uint16_t)(CEC_InitStruct
 153              		.loc 1 151 13 is_stmt 0 view .LVU16
 154 0020 4088     		ldrh	r0, [r0, #2]	@, CEC_InitStruct_9(D)->CEC_BitPeriodMode
 155              	.LVL4:
 156              	@ .\stlib\STM32F10x_StdPeriph_Driver\src\stm32f10x_cec.c:148:   tmpreg &= CFGR_CLEAR_Mask;
 148:.\stlib\STM32F10x_StdPeriph_Driver\src/stm32f10x_cec.c ****   
 157              		.loc 1 148 10 view .LVU17
 158 0022 03F0F303 		and	r3, r3, #243	@ tmpreg, _1,
 159              	.LVL5:
 160              		.loc 1 151 3 is_stmt 1 view .LVU18
 152:.\stlib\STM32F10x_StdPeriph_Driver\src/stm32f10x_cec.c **** 
 153:.\stlib\STM32F10x_StdPeriph_Driver\src/stm32f10x_cec.c ****   /* Write to CEC CFGR  register*/
 154:.\stlib\STM32F10x_StdPeriph_Driver\src/stm32f10x_cec.c ****   CEC->CFGR = tmpreg;
 161              		.loc 1 154 3 view .LVU19
 162              	@ .\stlib\STM32F10x_StdPeriph_Driver\src\stm32f10x_cec.c:151:   tmpreg |= (uint16_t)(CEC_InitStruct
 151:.\stlib\STM32F10x_StdPeriph_Driver\src/stm32f10x_cec.c **** 
 163              		.loc 1 151 13 is_stmt 0 view .LVU20
 164 0026 0243     		orrs	r2, r2, r0	@, tmp123, CEC_InitStruct_9(D)->CEC_BitTimingMode, CEC_InitStruct_9(D)->CEC_BitPer
 165              	@ .\stlib\STM32F10x_StdPeriph_Driver\src\stm32f10x_cec.c:151:   tmpreg |= (uint16_t)(CEC_InitStruct
 151:.\stlib\STM32F10x_StdPeriph_Driver\src/stm32f10x_cec.c **** 
 166              		.loc 1 151 10 view .LVU21
 167 0028 1343     		orrs	r3, r3, r2	@, tmp125, tmpreg, tmp123
 168              	@ .\stlib\STM32F10x_StdPeriph_Driver\src\stm32f10x_cec.c:154:   CEC->CFGR = tmpreg;
 169              		.loc 1 154 13 view .LVU22
 170 002a 9BB2     		uxth	r3, r3	@ _5, tmp125
 171 002c 0B60     		str	r3, [r1]	@ _5, MEM[(struct CEC_TypeDef *)1073772544B].CFGR
 172              	@ .\stlib\STM32F10x_StdPeriph_Driver\src\stm32f10x_cec.c:156: }
 155:.\stlib\STM32F10x_StdPeriph_Driver\src/stm32f10x_cec.c ****   
 156:.\stlib\STM32F10x_StdPeriph_Driver\src/stm32f10x_cec.c **** }
 173              		.loc 1 156 1 view .LVU23
 174 002e 7047     		bx	lr	@
 175              	.L4:
 176              		.align	2
 177              	.L3:
 178 0030 00780040 		.word	1073772544
 179              		.cfi_endproc
ARM GAS  C:\Users\skey\AppData\Local\Temp\ccDz30Qf.s 			page 7


 180              	.LFE30:
 181              		.size	CEC_Init, .-CEC_Init
 182              		.align	1
 183              		.global	CEC_Cmd
 184              		.syntax unified
 185              		.thumb
 186              		.thumb_func
 187              		.fpu softvfp
 188              		.type	CEC_Cmd, %function
 189              	CEC_Cmd:
 190              	.LVL6:
 191              	.LFB31:
 157:.\stlib\STM32F10x_StdPeriph_Driver\src/stm32f10x_cec.c **** 
 158:.\stlib\STM32F10x_StdPeriph_Driver\src/stm32f10x_cec.c **** /**
 159:.\stlib\STM32F10x_StdPeriph_Driver\src/stm32f10x_cec.c ****   * @brief  Enables or disables the specified CEC peripheral.
 160:.\stlib\STM32F10x_StdPeriph_Driver\src/stm32f10x_cec.c ****   * @param  NewState: new state of the CEC peripheral. 
 161:.\stlib\STM32F10x_StdPeriph_Driver\src/stm32f10x_cec.c ****   *     This parameter can be: ENABLE or DISABLE.
 162:.\stlib\STM32F10x_StdPeriph_Driver\src/stm32f10x_cec.c ****   * @retval None
 163:.\stlib\STM32F10x_StdPeriph_Driver\src/stm32f10x_cec.c ****   */
 164:.\stlib\STM32F10x_StdPeriph_Driver\src/stm32f10x_cec.c **** void CEC_Cmd(FunctionalState NewState)
 165:.\stlib\STM32F10x_StdPeriph_Driver\src/stm32f10x_cec.c **** {
 192              		.loc 1 165 1 is_stmt 1 view -0
 193              		.cfi_startproc
 194              		@ args = 0, pretend = 0, frame = 0
 195              		@ frame_needed = 0, uses_anonymous_args = 0
 196              		@ link register save eliminated.
 166:.\stlib\STM32F10x_StdPeriph_Driver\src/stm32f10x_cec.c ****   /* Check the parameters */
 167:.\stlib\STM32F10x_StdPeriph_Driver\src/stm32f10x_cec.c ****   assert_param(IS_FUNCTIONAL_STATE(NewState));
 197              		.loc 1 167 3 view .LVU25
 168:.\stlib\STM32F10x_StdPeriph_Driver\src/stm32f10x_cec.c **** 
 169:.\stlib\STM32F10x_StdPeriph_Driver\src/stm32f10x_cec.c ****   *(__IO uint32_t *) CFGR_PE_BB = (uint32_t)NewState;
 198              		.loc 1 169 3 view .LVU26
 199              	@ .\stlib\STM32F10x_StdPeriph_Driver\src\stm32f10x_cec.c:169:   *(__IO uint32_t *) CFGR_PE_BB = (ui
 200              		.loc 1 169 33 is_stmt 0 view .LVU27
 201 0034 034B     		ldr	r3, .L9	@ tmp114,
 202 0036 1860     		str	r0, [r3]	@ NewState, MEM[(volatile uint32_t *)1108279296B]
 170:.\stlib\STM32F10x_StdPeriph_Driver\src/stm32f10x_cec.c **** 
 171:.\stlib\STM32F10x_StdPeriph_Driver\src/stm32f10x_cec.c ****   if(NewState == DISABLE)
 203              		.loc 1 171 3 is_stmt 1 view .LVU28
 204              	@ .\stlib\STM32F10x_StdPeriph_Driver\src\stm32f10x_cec.c:171:   if(NewState == DISABLE)
 205              		.loc 1 171 5 is_stmt 0 view .LVU29
 206 0038 18B9     		cbnz	r0, .L5	@ NewState,
 207              	@ .\stlib\STM32F10x_StdPeriph_Driver\src\stm32f10x_cec.c:174:     while((CEC->CFGR & CEC_CFGR_PE) !
 172:.\stlib\STM32F10x_StdPeriph_Driver\src/stm32f10x_cec.c ****   {
 173:.\stlib\STM32F10x_StdPeriph_Driver\src/stm32f10x_cec.c ****     /* Wait until the PE bit is cleared by hardware (Idle Line detected) */
 174:.\stlib\STM32F10x_StdPeriph_Driver\src/stm32f10x_cec.c ****     while((CEC->CFGR & CEC_CFGR_PE) != (uint32_t)RESET)
 208              		.loc 1 174 15 view .LVU30
 209 003a 034A     		ldr	r2, .L9+4	@ tmp115,
 210              	.L7:
 175:.\stlib\STM32F10x_StdPeriph_Driver\src/stm32f10x_cec.c ****     {
 176:.\stlib\STM32F10x_StdPeriph_Driver\src/stm32f10x_cec.c ****     }  
 211              		.loc 1 176 5 is_stmt 1 discriminator 1 view .LVU31
 174:.\stlib\STM32F10x_StdPeriph_Driver\src/stm32f10x_cec.c ****     {
 212              		.loc 1 174 10 discriminator 1 view .LVU32
 213              	@ .\stlib\STM32F10x_StdPeriph_Driver\src\stm32f10x_cec.c:174:     while((CEC->CFGR & CEC_CFGR_PE) !
 174:.\stlib\STM32F10x_StdPeriph_Driver\src/stm32f10x_cec.c ****     {
 214              		.loc 1 174 15 is_stmt 0 discriminator 1 view .LVU33
ARM GAS  C:\Users\skey\AppData\Local\Temp\ccDz30Qf.s 			page 8


 215 003c 1368     		ldr	r3, [r2]	@ _2, MEM[(struct CEC_TypeDef *)1073772544B].CFGR
 216              	@ .\stlib\STM32F10x_StdPeriph_Driver\src\stm32f10x_cec.c:174:     while((CEC->CFGR & CEC_CFGR_PE) !
 174:.\stlib\STM32F10x_StdPeriph_Driver\src/stm32f10x_cec.c ****     {
 217              		.loc 1 174 10 discriminator 1 view .LVU34
 218 003e DB07     		lsls	r3, r3, #31	@, _2,
 219 0040 FCD4     		bmi	.L7		@,
 220              	.L5:
 221              	@ .\stlib\STM32F10x_StdPeriph_Driver\src\stm32f10x_cec.c:178: }
 177:.\stlib\STM32F10x_StdPeriph_Driver\src/stm32f10x_cec.c ****   }  
 178:.\stlib\STM32F10x_StdPeriph_Driver\src/stm32f10x_cec.c **** }
 222              		.loc 1 178 1 view .LVU35
 223 0042 7047     		bx	lr	@
 224              	.L10:
 225              		.align	2
 226              	.L9:
 227 0044 00000F42 		.word	1108279296
 228 0048 00780040 		.word	1073772544
 229              		.cfi_endproc
 230              	.LFE31:
 231              		.size	CEC_Cmd, .-CEC_Cmd
 232              		.align	1
 233              		.global	CEC_ITConfig
 234              		.syntax unified
 235              		.thumb
 236              		.thumb_func
 237              		.fpu softvfp
 238              		.type	CEC_ITConfig, %function
 239              	CEC_ITConfig:
 240              	.LVL7:
 241              	.LFB32:
 179:.\stlib\STM32F10x_StdPeriph_Driver\src/stm32f10x_cec.c **** 
 180:.\stlib\STM32F10x_StdPeriph_Driver\src/stm32f10x_cec.c **** /**
 181:.\stlib\STM32F10x_StdPeriph_Driver\src/stm32f10x_cec.c ****   * @brief  Enables or disables the CEC interrupt.
 182:.\stlib\STM32F10x_StdPeriph_Driver\src/stm32f10x_cec.c ****   * @param  NewState: new state of the CEC interrupt.
 183:.\stlib\STM32F10x_StdPeriph_Driver\src/stm32f10x_cec.c ****   *   This parameter can be: ENABLE or DISABLE.
 184:.\stlib\STM32F10x_StdPeriph_Driver\src/stm32f10x_cec.c ****   * @retval None
 185:.\stlib\STM32F10x_StdPeriph_Driver\src/stm32f10x_cec.c ****   */
 186:.\stlib\STM32F10x_StdPeriph_Driver\src/stm32f10x_cec.c **** void CEC_ITConfig(FunctionalState NewState)
 187:.\stlib\STM32F10x_StdPeriph_Driver\src/stm32f10x_cec.c **** {
 242              		.loc 1 187 1 is_stmt 1 view -0
 243              		.cfi_startproc
 244              		@ args = 0, pretend = 0, frame = 0
 245              		@ frame_needed = 0, uses_anonymous_args = 0
 246              		@ link register save eliminated.
 188:.\stlib\STM32F10x_StdPeriph_Driver\src/stm32f10x_cec.c ****   /* Check the parameters */
 189:.\stlib\STM32F10x_StdPeriph_Driver\src/stm32f10x_cec.c ****   assert_param(IS_FUNCTIONAL_STATE(NewState));
 247              		.loc 1 189 3 view .LVU37
 190:.\stlib\STM32F10x_StdPeriph_Driver\src/stm32f10x_cec.c **** 
 191:.\stlib\STM32F10x_StdPeriph_Driver\src/stm32f10x_cec.c ****   *(__IO uint32_t *) CFGR_IE_BB = (uint32_t)NewState;
 248              		.loc 1 191 3 view .LVU38
 249              	@ .\stlib\STM32F10x_StdPeriph_Driver\src\stm32f10x_cec.c:191:   *(__IO uint32_t *) CFGR_IE_BB = (ui
 250              		.loc 1 191 33 is_stmt 0 view .LVU39
 251 004c 014B     		ldr	r3, .L12	@ tmp112,
 252 004e 1860     		str	r0, [r3]	@ NewState, MEM[(volatile uint32_t *)1108279300B]
 253              	@ .\stlib\STM32F10x_StdPeriph_Driver\src\stm32f10x_cec.c:192: }
 192:.\stlib\STM32F10x_StdPeriph_Driver\src/stm32f10x_cec.c **** }
 254              		.loc 1 192 1 view .LVU40
ARM GAS  C:\Users\skey\AppData\Local\Temp\ccDz30Qf.s 			page 9


 255 0050 7047     		bx	lr	@
 256              	.L13:
 257 0052 00BF     		.align	2
 258              	.L12:
 259 0054 04000F42 		.word	1108279300
 260              		.cfi_endproc
 261              	.LFE32:
 262              		.size	CEC_ITConfig, .-CEC_ITConfig
 263              		.align	1
 264              		.global	CEC_OwnAddressConfig
 265              		.syntax unified
 266              		.thumb
 267              		.thumb_func
 268              		.fpu softvfp
 269              		.type	CEC_OwnAddressConfig, %function
 270              	CEC_OwnAddressConfig:
 271              	.LVL8:
 272              	.LFB33:
 193:.\stlib\STM32F10x_StdPeriph_Driver\src/stm32f10x_cec.c **** 
 194:.\stlib\STM32F10x_StdPeriph_Driver\src/stm32f10x_cec.c **** /**
 195:.\stlib\STM32F10x_StdPeriph_Driver\src/stm32f10x_cec.c ****   * @brief  Defines the Own Address of the CEC device.
 196:.\stlib\STM32F10x_StdPeriph_Driver\src/stm32f10x_cec.c ****   * @param  CEC_OwnAddress: The CEC own address
 197:.\stlib\STM32F10x_StdPeriph_Driver\src/stm32f10x_cec.c ****   * @retval None
 198:.\stlib\STM32F10x_StdPeriph_Driver\src/stm32f10x_cec.c ****   */
 199:.\stlib\STM32F10x_StdPeriph_Driver\src/stm32f10x_cec.c **** void CEC_OwnAddressConfig(uint8_t CEC_OwnAddress)
 200:.\stlib\STM32F10x_StdPeriph_Driver\src/stm32f10x_cec.c **** {
 273              		.loc 1 200 1 is_stmt 1 view -0
 274              		.cfi_startproc
 275              		@ args = 0, pretend = 0, frame = 0
 276              		@ frame_needed = 0, uses_anonymous_args = 0
 277              		@ link register save eliminated.
 201:.\stlib\STM32F10x_StdPeriph_Driver\src/stm32f10x_cec.c ****   /* Check the parameters */
 202:.\stlib\STM32F10x_StdPeriph_Driver\src/stm32f10x_cec.c ****   assert_param(IS_CEC_ADDRESS(CEC_OwnAddress));
 278              		.loc 1 202 3 view .LVU42
 203:.\stlib\STM32F10x_StdPeriph_Driver\src/stm32f10x_cec.c **** 
 204:.\stlib\STM32F10x_StdPeriph_Driver\src/stm32f10x_cec.c ****   /* Set the CEC own address */
 205:.\stlib\STM32F10x_StdPeriph_Driver\src/stm32f10x_cec.c ****   CEC->OAR = CEC_OwnAddress;
 279              		.loc 1 205 3 view .LVU43
 280              	@ .\stlib\STM32F10x_StdPeriph_Driver\src\stm32f10x_cec.c:205:   CEC->OAR = CEC_OwnAddress;
 281              		.loc 1 205 12 is_stmt 0 view .LVU44
 282 0058 014B     		ldr	r3, .L15	@ tmp112,
 283 005a 5860     		str	r0, [r3, #4]	@ CEC_OwnAddress, MEM[(struct CEC_TypeDef *)1073772544B].OAR
 284              	@ .\stlib\STM32F10x_StdPeriph_Driver\src\stm32f10x_cec.c:206: }
 206:.\stlib\STM32F10x_StdPeriph_Driver\src/stm32f10x_cec.c **** }
 285              		.loc 1 206 1 view .LVU45
 286 005c 7047     		bx	lr	@
 287              	.L16:
 288 005e 00BF     		.align	2
 289              	.L15:
 290 0060 00780040 		.word	1073772544
 291              		.cfi_endproc
 292              	.LFE33:
 293              		.size	CEC_OwnAddressConfig, .-CEC_OwnAddressConfig
 294              		.align	1
 295              		.global	CEC_SetPrescaler
 296              		.syntax unified
 297              		.thumb
ARM GAS  C:\Users\skey\AppData\Local\Temp\ccDz30Qf.s 			page 10


 298              		.thumb_func
 299              		.fpu softvfp
 300              		.type	CEC_SetPrescaler, %function
 301              	CEC_SetPrescaler:
 302              	.LVL9:
 303              	.LFB34:
 207:.\stlib\STM32F10x_StdPeriph_Driver\src/stm32f10x_cec.c **** 
 208:.\stlib\STM32F10x_StdPeriph_Driver\src/stm32f10x_cec.c **** /**
 209:.\stlib\STM32F10x_StdPeriph_Driver\src/stm32f10x_cec.c ****   * @brief  Sets the CEC prescaler value.
 210:.\stlib\STM32F10x_StdPeriph_Driver\src/stm32f10x_cec.c ****   * @param  CEC_Prescaler: CEC prescaler new value
 211:.\stlib\STM32F10x_StdPeriph_Driver\src/stm32f10x_cec.c ****   * @retval None
 212:.\stlib\STM32F10x_StdPeriph_Driver\src/stm32f10x_cec.c ****   */
 213:.\stlib\STM32F10x_StdPeriph_Driver\src/stm32f10x_cec.c **** void CEC_SetPrescaler(uint16_t CEC_Prescaler)
 214:.\stlib\STM32F10x_StdPeriph_Driver\src/stm32f10x_cec.c **** {
 304              		.loc 1 214 1 is_stmt 1 view -0
 305              		.cfi_startproc
 306              		@ args = 0, pretend = 0, frame = 0
 307              		@ frame_needed = 0, uses_anonymous_args = 0
 308              		@ link register save eliminated.
 215:.\stlib\STM32F10x_StdPeriph_Driver\src/stm32f10x_cec.c ****   /* Check the parameters */
 216:.\stlib\STM32F10x_StdPeriph_Driver\src/stm32f10x_cec.c ****   assert_param(IS_CEC_PRESCALER(CEC_Prescaler));
 309              		.loc 1 216 3 view .LVU47
 217:.\stlib\STM32F10x_StdPeriph_Driver\src/stm32f10x_cec.c **** 
 218:.\stlib\STM32F10x_StdPeriph_Driver\src/stm32f10x_cec.c ****   /* Set the  Prescaler value*/
 219:.\stlib\STM32F10x_StdPeriph_Driver\src/stm32f10x_cec.c ****   CEC->PRES = CEC_Prescaler;
 310              		.loc 1 219 3 view .LVU48
 311              	@ .\stlib\STM32F10x_StdPeriph_Driver\src\stm32f10x_cec.c:219:   CEC->PRES = CEC_Prescaler;
 312              		.loc 1 219 13 is_stmt 0 view .LVU49
 313 0064 014B     		ldr	r3, .L18	@ tmp112,
 314 0066 9860     		str	r0, [r3, #8]	@ CEC_Prescaler, MEM[(struct CEC_TypeDef *)1073772544B].PRES
 315              	@ .\stlib\STM32F10x_StdPeriph_Driver\src\stm32f10x_cec.c:220: }
 220:.\stlib\STM32F10x_StdPeriph_Driver\src/stm32f10x_cec.c **** }
 316              		.loc 1 220 1 view .LVU50
 317 0068 7047     		bx	lr	@
 318              	.L19:
 319 006a 00BF     		.align	2
 320              	.L18:
 321 006c 00780040 		.word	1073772544
 322              		.cfi_endproc
 323              	.LFE34:
 324              		.size	CEC_SetPrescaler, .-CEC_SetPrescaler
 325              		.align	1
 326              		.global	CEC_SendDataByte
 327              		.syntax unified
 328              		.thumb
 329              		.thumb_func
 330              		.fpu softvfp
 331              		.type	CEC_SendDataByte, %function
 332              	CEC_SendDataByte:
 333              	.LVL10:
 334              	.LFB35:
 221:.\stlib\STM32F10x_StdPeriph_Driver\src/stm32f10x_cec.c **** 
 222:.\stlib\STM32F10x_StdPeriph_Driver\src/stm32f10x_cec.c **** /**
 223:.\stlib\STM32F10x_StdPeriph_Driver\src/stm32f10x_cec.c ****   * @brief  Transmits single data through the CEC peripheral.
 224:.\stlib\STM32F10x_StdPeriph_Driver\src/stm32f10x_cec.c ****   * @param  Data: the data to transmit.
 225:.\stlib\STM32F10x_StdPeriph_Driver\src/stm32f10x_cec.c ****   * @retval None
 226:.\stlib\STM32F10x_StdPeriph_Driver\src/stm32f10x_cec.c ****   */
ARM GAS  C:\Users\skey\AppData\Local\Temp\ccDz30Qf.s 			page 11


 227:.\stlib\STM32F10x_StdPeriph_Driver\src/stm32f10x_cec.c **** void CEC_SendDataByte(uint8_t Data)
 228:.\stlib\STM32F10x_StdPeriph_Driver\src/stm32f10x_cec.c **** {  
 335              		.loc 1 228 1 is_stmt 1 view -0
 336              		.cfi_startproc
 337              		@ args = 0, pretend = 0, frame = 0
 338              		@ frame_needed = 0, uses_anonymous_args = 0
 339              		@ link register save eliminated.
 229:.\stlib\STM32F10x_StdPeriph_Driver\src/stm32f10x_cec.c ****   /* Transmit Data */
 230:.\stlib\STM32F10x_StdPeriph_Driver\src/stm32f10x_cec.c ****   CEC->TXD = Data ;
 340              		.loc 1 230 3 view .LVU52
 341              	@ .\stlib\STM32F10x_StdPeriph_Driver\src\stm32f10x_cec.c:230:   CEC->TXD = Data ;
 342              		.loc 1 230 12 is_stmt 0 view .LVU53
 343 0070 014B     		ldr	r3, .L21	@ tmp112,
 344 0072 5861     		str	r0, [r3, #20]	@ Data, MEM[(struct CEC_TypeDef *)1073772544B].TXD
 345              	@ .\stlib\STM32F10x_StdPeriph_Driver\src\stm32f10x_cec.c:231: }
 231:.\stlib\STM32F10x_StdPeriph_Driver\src/stm32f10x_cec.c **** }
 346              		.loc 1 231 1 view .LVU54
 347 0074 7047     		bx	lr	@
 348              	.L22:
 349 0076 00BF     		.align	2
 350              	.L21:
 351 0078 00780040 		.word	1073772544
 352              		.cfi_endproc
 353              	.LFE35:
 354              		.size	CEC_SendDataByte, .-CEC_SendDataByte
 355              		.align	1
 356              		.global	CEC_ReceiveDataByte
 357              		.syntax unified
 358              		.thumb
 359              		.thumb_func
 360              		.fpu softvfp
 361              		.type	CEC_ReceiveDataByte, %function
 362              	CEC_ReceiveDataByte:
 363              	.LFB36:
 232:.\stlib\STM32F10x_StdPeriph_Driver\src/stm32f10x_cec.c **** 
 233:.\stlib\STM32F10x_StdPeriph_Driver\src/stm32f10x_cec.c **** 
 234:.\stlib\STM32F10x_StdPeriph_Driver\src/stm32f10x_cec.c **** /**
 235:.\stlib\STM32F10x_StdPeriph_Driver\src/stm32f10x_cec.c ****   * @brief  Returns the most recent received data by the CEC peripheral.
 236:.\stlib\STM32F10x_StdPeriph_Driver\src/stm32f10x_cec.c ****   * @param  None
 237:.\stlib\STM32F10x_StdPeriph_Driver\src/stm32f10x_cec.c ****   * @retval The received data.
 238:.\stlib\STM32F10x_StdPeriph_Driver\src/stm32f10x_cec.c ****   */
 239:.\stlib\STM32F10x_StdPeriph_Driver\src/stm32f10x_cec.c **** uint8_t CEC_ReceiveDataByte(void)
 240:.\stlib\STM32F10x_StdPeriph_Driver\src/stm32f10x_cec.c **** {
 364              		.loc 1 240 1 is_stmt 1 view -0
 365              		.cfi_startproc
 366              		@ args = 0, pretend = 0, frame = 0
 367              		@ frame_needed = 0, uses_anonymous_args = 0
 368              		@ link register save eliminated.
 241:.\stlib\STM32F10x_StdPeriph_Driver\src/stm32f10x_cec.c ****   /* Receive Data */
 242:.\stlib\STM32F10x_StdPeriph_Driver\src/stm32f10x_cec.c ****   return (uint8_t)(CEC->RXD);
 369              		.loc 1 242 3 view .LVU56
 370              	@ .\stlib\STM32F10x_StdPeriph_Driver\src\stm32f10x_cec.c:242:   return (uint8_t)(CEC->RXD);
 371              		.loc 1 242 23 is_stmt 0 view .LVU57
 372 007c 014B     		ldr	r3, .L24	@ tmp112,
 373 007e 9869     		ldr	r0, [r3, #24]	@ _1, MEM[(struct CEC_TypeDef *)1073772544B].RXD
 374              	@ .\stlib\STM32F10x_StdPeriph_Driver\src\stm32f10x_cec.c:243: }
 243:.\stlib\STM32F10x_StdPeriph_Driver\src/stm32f10x_cec.c **** }
ARM GAS  C:\Users\skey\AppData\Local\Temp\ccDz30Qf.s 			page 12


 375              		.loc 1 243 1 view .LVU58
 376 0080 C0B2     		uxtb	r0, r0	@, _1
 377 0082 7047     		bx	lr	@
 378              	.L25:
 379              		.align	2
 380              	.L24:
 381 0084 00780040 		.word	1073772544
 382              		.cfi_endproc
 383              	.LFE36:
 384              		.size	CEC_ReceiveDataByte, .-CEC_ReceiveDataByte
 385              		.align	1
 386              		.global	CEC_StartOfMessage
 387              		.syntax unified
 388              		.thumb
 389              		.thumb_func
 390              		.fpu softvfp
 391              		.type	CEC_StartOfMessage, %function
 392              	CEC_StartOfMessage:
 393              	.LFB37:
 244:.\stlib\STM32F10x_StdPeriph_Driver\src/stm32f10x_cec.c **** 
 245:.\stlib\STM32F10x_StdPeriph_Driver\src/stm32f10x_cec.c **** /**
 246:.\stlib\STM32F10x_StdPeriph_Driver\src/stm32f10x_cec.c ****   * @brief  Starts a new message.
 247:.\stlib\STM32F10x_StdPeriph_Driver\src/stm32f10x_cec.c ****   * @param  None
 248:.\stlib\STM32F10x_StdPeriph_Driver\src/stm32f10x_cec.c ****   * @retval None
 249:.\stlib\STM32F10x_StdPeriph_Driver\src/stm32f10x_cec.c ****   */
 250:.\stlib\STM32F10x_StdPeriph_Driver\src/stm32f10x_cec.c **** void CEC_StartOfMessage(void)
 251:.\stlib\STM32F10x_StdPeriph_Driver\src/stm32f10x_cec.c **** {  
 394              		.loc 1 251 1 is_stmt 1 view -0
 395              		.cfi_startproc
 396              		@ args = 0, pretend = 0, frame = 0
 397              		@ frame_needed = 0, uses_anonymous_args = 0
 398              		@ link register save eliminated.
 252:.\stlib\STM32F10x_StdPeriph_Driver\src/stm32f10x_cec.c ****   /* Starts of new message */
 253:.\stlib\STM32F10x_StdPeriph_Driver\src/stm32f10x_cec.c ****   *(__IO uint32_t *) CSR_TSOM_BB = (uint32_t)0x1;
 399              		.loc 1 253 3 view .LVU60
 400              	@ .\stlib\STM32F10x_StdPeriph_Driver\src\stm32f10x_cec.c:253:   *(__IO uint32_t *) CSR_TSOM_BB = (u
 401              		.loc 1 253 34 is_stmt 0 view .LVU61
 402 0088 0122     		movs	r2, #1	@ tmp111,
 403 008a 014B     		ldr	r3, .L27	@ tmp110,
 404 008c 1A60     		str	r2, [r3]	@ tmp111, MEM[(volatile uint32_t *)1108279808B]
 405              	@ .\stlib\STM32F10x_StdPeriph_Driver\src\stm32f10x_cec.c:254: }
 254:.\stlib\STM32F10x_StdPeriph_Driver\src/stm32f10x_cec.c **** }
 406              		.loc 1 254 1 view .LVU62
 407 008e 7047     		bx	lr	@
 408              	.L28:
 409              		.align	2
 410              	.L27:
 411 0090 00020F42 		.word	1108279808
 412              		.cfi_endproc
 413              	.LFE37:
 414              		.size	CEC_StartOfMessage, .-CEC_StartOfMessage
 415              		.align	1
 416              		.global	CEC_EndOfMessageCmd
 417              		.syntax unified
 418              		.thumb
 419              		.thumb_func
 420              		.fpu softvfp
ARM GAS  C:\Users\skey\AppData\Local\Temp\ccDz30Qf.s 			page 13


 421              		.type	CEC_EndOfMessageCmd, %function
 422              	CEC_EndOfMessageCmd:
 423              	.LVL11:
 424              	.LFB38:
 255:.\stlib\STM32F10x_StdPeriph_Driver\src/stm32f10x_cec.c **** 
 256:.\stlib\STM32F10x_StdPeriph_Driver\src/stm32f10x_cec.c **** /**
 257:.\stlib\STM32F10x_StdPeriph_Driver\src/stm32f10x_cec.c ****   * @brief  Transmits message with or without an EOM bit.
 258:.\stlib\STM32F10x_StdPeriph_Driver\src/stm32f10x_cec.c ****   * @param  NewState: new state of the CEC Tx End Of Message. 
 259:.\stlib\STM32F10x_StdPeriph_Driver\src/stm32f10x_cec.c ****   *     This parameter can be: ENABLE or DISABLE.
 260:.\stlib\STM32F10x_StdPeriph_Driver\src/stm32f10x_cec.c ****   * @retval None
 261:.\stlib\STM32F10x_StdPeriph_Driver\src/stm32f10x_cec.c ****   */
 262:.\stlib\STM32F10x_StdPeriph_Driver\src/stm32f10x_cec.c **** void CEC_EndOfMessageCmd(FunctionalState NewState)
 263:.\stlib\STM32F10x_StdPeriph_Driver\src/stm32f10x_cec.c **** {   
 425              		.loc 1 263 1 is_stmt 1 view -0
 426              		.cfi_startproc
 427              		@ args = 0, pretend = 0, frame = 0
 428              		@ frame_needed = 0, uses_anonymous_args = 0
 429              		@ link register save eliminated.
 264:.\stlib\STM32F10x_StdPeriph_Driver\src/stm32f10x_cec.c ****   /* Check the parameters */
 265:.\stlib\STM32F10x_StdPeriph_Driver\src/stm32f10x_cec.c ****   assert_param(IS_FUNCTIONAL_STATE(NewState));
 430              		.loc 1 265 3 view .LVU64
 266:.\stlib\STM32F10x_StdPeriph_Driver\src/stm32f10x_cec.c ****   
 267:.\stlib\STM32F10x_StdPeriph_Driver\src/stm32f10x_cec.c ****   /* The data byte will be transmitted with or without an EOM bit*/
 268:.\stlib\STM32F10x_StdPeriph_Driver\src/stm32f10x_cec.c ****   *(__IO uint32_t *) CSR_TEOM_BB = (uint32_t)NewState;
 431              		.loc 1 268 3 view .LVU65
 432              	@ .\stlib\STM32F10x_StdPeriph_Driver\src\stm32f10x_cec.c:268:   *(__IO uint32_t *) CSR_TEOM_BB = (u
 433              		.loc 1 268 34 is_stmt 0 view .LVU66
 434 0094 014B     		ldr	r3, .L30	@ tmp112,
 435 0096 1860     		str	r0, [r3]	@ NewState, MEM[(volatile uint32_t *)1108279812B]
 436              	@ .\stlib\STM32F10x_StdPeriph_Driver\src\stm32f10x_cec.c:269: }
 269:.\stlib\STM32F10x_StdPeriph_Driver\src/stm32f10x_cec.c **** }
 437              		.loc 1 269 1 view .LVU67
 438 0098 7047     		bx	lr	@
 439              	.L31:
 440 009a 00BF     		.align	2
 441              	.L30:
 442 009c 04020F42 		.word	1108279812
 443              		.cfi_endproc
 444              	.LFE38:
 445              		.size	CEC_EndOfMessageCmd, .-CEC_EndOfMessageCmd
 446              		.align	1
 447              		.global	CEC_GetFlagStatus
 448              		.syntax unified
 449              		.thumb
 450              		.thumb_func
 451              		.fpu softvfp
 452              		.type	CEC_GetFlagStatus, %function
 453              	CEC_GetFlagStatus:
 454              	.LVL12:
 455              	.LFB39:
 270:.\stlib\STM32F10x_StdPeriph_Driver\src/stm32f10x_cec.c **** 
 271:.\stlib\STM32F10x_StdPeriph_Driver\src/stm32f10x_cec.c **** /**
 272:.\stlib\STM32F10x_StdPeriph_Driver\src/stm32f10x_cec.c ****   * @brief  Gets the CEC flag status
 273:.\stlib\STM32F10x_StdPeriph_Driver\src/stm32f10x_cec.c ****   * @param  CEC_FLAG: specifies the CEC flag to check. 
 274:.\stlib\STM32F10x_StdPeriph_Driver\src/stm32f10x_cec.c ****   *   This parameter can be one of the following values:
 275:.\stlib\STM32F10x_StdPeriph_Driver\src/stm32f10x_cec.c ****   *     @arg CEC_FLAG_BTE: Bit Timing Error
 276:.\stlib\STM32F10x_StdPeriph_Driver\src/stm32f10x_cec.c ****   *     @arg CEC_FLAG_BPE: Bit Period Error
ARM GAS  C:\Users\skey\AppData\Local\Temp\ccDz30Qf.s 			page 14


 277:.\stlib\STM32F10x_StdPeriph_Driver\src/stm32f10x_cec.c ****   *     @arg CEC_FLAG_RBTFE: Rx Block Transfer Finished Error
 278:.\stlib\STM32F10x_StdPeriph_Driver\src/stm32f10x_cec.c ****   *     @arg CEC_FLAG_SBE: Start Bit Error
 279:.\stlib\STM32F10x_StdPeriph_Driver\src/stm32f10x_cec.c ****   *     @arg CEC_FLAG_ACKE: Block Acknowledge Error
 280:.\stlib\STM32F10x_StdPeriph_Driver\src/stm32f10x_cec.c ****   *     @arg CEC_FLAG_LINE: Line Error
 281:.\stlib\STM32F10x_StdPeriph_Driver\src/stm32f10x_cec.c ****   *     @arg CEC_FLAG_TBTFE: Tx Block Transfer Finished Error
 282:.\stlib\STM32F10x_StdPeriph_Driver\src/stm32f10x_cec.c ****   *     @arg CEC_FLAG_TEOM: Tx End Of Message 
 283:.\stlib\STM32F10x_StdPeriph_Driver\src/stm32f10x_cec.c ****   *     @arg CEC_FLAG_TERR: Tx Error
 284:.\stlib\STM32F10x_StdPeriph_Driver\src/stm32f10x_cec.c ****   *     @arg CEC_FLAG_TBTRF: Tx Byte Transfer Request or Block Transfer Finished
 285:.\stlib\STM32F10x_StdPeriph_Driver\src/stm32f10x_cec.c ****   *     @arg CEC_FLAG_RSOM: Rx Start Of Message
 286:.\stlib\STM32F10x_StdPeriph_Driver\src/stm32f10x_cec.c ****   *     @arg CEC_FLAG_REOM: Rx End Of Message
 287:.\stlib\STM32F10x_StdPeriph_Driver\src/stm32f10x_cec.c ****   *     @arg CEC_FLAG_RERR: Rx Error
 288:.\stlib\STM32F10x_StdPeriph_Driver\src/stm32f10x_cec.c ****   *     @arg CEC_FLAG_RBTF: Rx Byte/Block Transfer Finished
 289:.\stlib\STM32F10x_StdPeriph_Driver\src/stm32f10x_cec.c ****   * @retval The new state of CEC_FLAG (SET or RESET)
 290:.\stlib\STM32F10x_StdPeriph_Driver\src/stm32f10x_cec.c ****   */
 291:.\stlib\STM32F10x_StdPeriph_Driver\src/stm32f10x_cec.c **** FlagStatus CEC_GetFlagStatus(uint32_t CEC_FLAG) 
 292:.\stlib\STM32F10x_StdPeriph_Driver\src/stm32f10x_cec.c **** {
 456              		.loc 1 292 1 is_stmt 1 view -0
 457              		.cfi_startproc
 458              		@ args = 0, pretend = 0, frame = 0
 459              		@ frame_needed = 0, uses_anonymous_args = 0
 460              		@ link register save eliminated.
 293:.\stlib\STM32F10x_StdPeriph_Driver\src/stm32f10x_cec.c ****   FlagStatus bitstatus = RESET;
 461              		.loc 1 293 3 view .LVU69
 294:.\stlib\STM32F10x_StdPeriph_Driver\src/stm32f10x_cec.c ****   uint32_t cecreg = 0, cecbase = 0;
 462              		.loc 1 294 3 view .LVU70
 295:.\stlib\STM32F10x_StdPeriph_Driver\src/stm32f10x_cec.c ****   
 296:.\stlib\STM32F10x_StdPeriph_Driver\src/stm32f10x_cec.c ****   /* Check the parameters */
 297:.\stlib\STM32F10x_StdPeriph_Driver\src/stm32f10x_cec.c ****   assert_param(IS_CEC_GET_FLAG(CEC_FLAG));
 463              		.loc 1 297 3 view .LVU71
 298:.\stlib\STM32F10x_StdPeriph_Driver\src/stm32f10x_cec.c ****  
 299:.\stlib\STM32F10x_StdPeriph_Driver\src/stm32f10x_cec.c ****   /* Get the CEC peripheral base address */
 300:.\stlib\STM32F10x_StdPeriph_Driver\src/stm32f10x_cec.c ****   cecbase = (uint32_t)(CEC_BASE);
 464              		.loc 1 300 3 view .LVU72
 301:.\stlib\STM32F10x_StdPeriph_Driver\src/stm32f10x_cec.c ****   
 302:.\stlib\STM32F10x_StdPeriph_Driver\src/stm32f10x_cec.c ****   /* Read flag register index */
 303:.\stlib\STM32F10x_StdPeriph_Driver\src/stm32f10x_cec.c ****   cecreg = CEC_FLAG >> 28;
 465              		.loc 1 303 3 view .LVU73
 304:.\stlib\STM32F10x_StdPeriph_Driver\src/stm32f10x_cec.c ****   
 305:.\stlib\STM32F10x_StdPeriph_Driver\src/stm32f10x_cec.c ****   /* Get bit[23:0] of the flag */
 306:.\stlib\STM32F10x_StdPeriph_Driver\src/stm32f10x_cec.c ****   CEC_FLAG &= FLAG_Mask;
 466              		.loc 1 306 3 view .LVU74
 467              	@ .\stlib\STM32F10x_StdPeriph_Driver\src\stm32f10x_cec.c:308:   if(cecreg != 0)
 307:.\stlib\STM32F10x_StdPeriph_Driver\src/stm32f10x_cec.c ****   
 308:.\stlib\STM32F10x_StdPeriph_Driver\src/stm32f10x_cec.c ****   if(cecreg != 0)
 468              		.loc 1 308 5 is_stmt 0 view .LVU75
 469 00a0 020F     		lsrs	r2, r0, #28	@ tmp125, CEC_FLAG,
 470              	@ .\stlib\STM32F10x_StdPeriph_Driver\src\stm32f10x_cec.c:314:     cecbase += 0xC;
 309:.\stlib\STM32F10x_StdPeriph_Driver\src/stm32f10x_cec.c ****   {
 310:.\stlib\STM32F10x_StdPeriph_Driver\src/stm32f10x_cec.c ****     /* Flag in CEC ESR Register */
 311:.\stlib\STM32F10x_StdPeriph_Driver\src/stm32f10x_cec.c ****     CEC_FLAG = (uint32_t)(CEC_FLAG >> 16);
 312:.\stlib\STM32F10x_StdPeriph_Driver\src/stm32f10x_cec.c ****     
 313:.\stlib\STM32F10x_StdPeriph_Driver\src/stm32f10x_cec.c ****     /* Get the CEC ESR register address */
 314:.\stlib\STM32F10x_StdPeriph_Driver\src/stm32f10x_cec.c ****     cecbase += 0xC;
 471              		.loc 1 314 13 view .LVU76
 472 00a2 14BF     		ite	ne
 473 00a4 054A     		ldrne	r2, .L35	@ cecbase,
 474              	@ .\stlib\STM32F10x_StdPeriph_Driver\src\stm32f10x_cec.c:319:     cecbase += 0x10;
ARM GAS  C:\Users\skey\AppData\Local\Temp\ccDz30Qf.s 			page 15


 315:.\stlib\STM32F10x_StdPeriph_Driver\src/stm32f10x_cec.c ****   }
 316:.\stlib\STM32F10x_StdPeriph_Driver\src/stm32f10x_cec.c ****   else
 317:.\stlib\STM32F10x_StdPeriph_Driver\src/stm32f10x_cec.c ****   {
 318:.\stlib\STM32F10x_StdPeriph_Driver\src/stm32f10x_cec.c ****     /* Get the CEC CSR register address */
 319:.\stlib\STM32F10x_StdPeriph_Driver\src/stm32f10x_cec.c ****     cecbase += 0x10;
 475              		.loc 1 319 13 view .LVU77
 476 00a6 064A     		ldreq	r2, .L35+4	@ cecbase,
 477              	@ .\stlib\STM32F10x_StdPeriph_Driver\src\stm32f10x_cec.c:306:   CEC_FLAG &= FLAG_Mask;
 306:.\stlib\STM32F10x_StdPeriph_Driver\src/stm32f10x_cec.c ****   
 478              		.loc 1 306 12 view .LVU78
 479 00a8 20F07F43 		bic	r3, r0, #-16777216	@ CEC_FLAG, CEC_FLAG,
 480              	.LVL13:
 308:.\stlib\STM32F10x_StdPeriph_Driver\src/stm32f10x_cec.c ****   {
 481              		.loc 1 308 3 is_stmt 1 view .LVU79
 311:.\stlib\STM32F10x_StdPeriph_Driver\src/stm32f10x_cec.c ****     
 482              		.loc 1 311 5 view .LVU80
 483              	@ .\stlib\STM32F10x_StdPeriph_Driver\src\stm32f10x_cec.c:322:   if(((*(__IO uint32_t *)cecbase) & C
 320:.\stlib\STM32F10x_StdPeriph_Driver\src/stm32f10x_cec.c ****   }
 321:.\stlib\STM32F10x_StdPeriph_Driver\src/stm32f10x_cec.c ****   
 322:.\stlib\STM32F10x_StdPeriph_Driver\src/stm32f10x_cec.c ****   if(((*(__IO uint32_t *)cecbase) & CEC_FLAG) != (uint32_t)RESET)
 484              		.loc 1 322 8 is_stmt 0 view .LVU81
 485 00ac 1268     		ldr	r2, [r2]	@ _2, *cecbase.0_1
 486              	@ .\stlib\STM32F10x_StdPeriph_Driver\src\stm32f10x_cec.c:311:     CEC_FLAG = (uint32_t)(CEC_FLAG >>
 311:.\stlib\STM32F10x_StdPeriph_Driver\src/stm32f10x_cec.c ****     
 487              		.loc 1 311 14 view .LVU82
 488 00ae 18BF     		it	ne
 489 00b0 1B0C     		lsrne	r3, r3, #16	@ CEC_FLAG, CEC_FLAG,
 490              	.LVL14:
 314:.\stlib\STM32F10x_StdPeriph_Driver\src/stm32f10x_cec.c ****   }
 491              		.loc 1 314 5 is_stmt 1 view .LVU83
 492              		.loc 1 322 3 view .LVU84
 323:.\stlib\STM32F10x_StdPeriph_Driver\src/stm32f10x_cec.c ****   {
 324:.\stlib\STM32F10x_StdPeriph_Driver\src/stm32f10x_cec.c ****     /* CEC_FLAG is set */
 325:.\stlib\STM32F10x_StdPeriph_Driver\src/stm32f10x_cec.c ****     bitstatus = SET;
 326:.\stlib\STM32F10x_StdPeriph_Driver\src/stm32f10x_cec.c ****   }
 327:.\stlib\STM32F10x_StdPeriph_Driver\src/stm32f10x_cec.c ****   else
 328:.\stlib\STM32F10x_StdPeriph_Driver\src/stm32f10x_cec.c ****   {
 329:.\stlib\STM32F10x_StdPeriph_Driver\src/stm32f10x_cec.c ****     /* CEC_FLAG is reset */
 330:.\stlib\STM32F10x_StdPeriph_Driver\src/stm32f10x_cec.c ****     bitstatus = RESET;
 331:.\stlib\STM32F10x_StdPeriph_Driver\src/stm32f10x_cec.c ****   }
 332:.\stlib\STM32F10x_StdPeriph_Driver\src/stm32f10x_cec.c ****   
 333:.\stlib\STM32F10x_StdPeriph_Driver\src/stm32f10x_cec.c ****   /* Return the CEC_FLAG status */
 334:.\stlib\STM32F10x_StdPeriph_Driver\src/stm32f10x_cec.c ****   return  bitstatus;
 493              		.loc 1 334 3 view .LVU85
 494              	@ .\stlib\STM32F10x_StdPeriph_Driver\src\stm32f10x_cec.c:322:   if(((*(__IO uint32_t *)cecbase) & C
 322:.\stlib\STM32F10x_StdPeriph_Driver\src/stm32f10x_cec.c ****   {
 495              		.loc 1 322 5 is_stmt 0 view .LVU86
 496 00b2 1A42     		tst	r2, r3	@ _2, CEC_FLAG
 497              	@ .\stlib\STM32F10x_StdPeriph_Driver\src\stm32f10x_cec.c:335: }
 335:.\stlib\STM32F10x_StdPeriph_Driver\src/stm32f10x_cec.c **** }
 498              		.loc 1 335 1 view .LVU87
 499 00b4 14BF     		ite	ne
 500 00b6 0120     		movne	r0, #1	@,
 501              	.LVL15:
 502              		.loc 1 335 1 view .LVU88
 503 00b8 0020     		moveq	r0, #0	@,
 504 00ba 7047     		bx	lr	@
ARM GAS  C:\Users\skey\AppData\Local\Temp\ccDz30Qf.s 			page 16


 505              	.L36:
 506              		.align	2
 507              	.L35:
 508 00bc 0C780040 		.word	1073772556
 509 00c0 10780040 		.word	1073772560
 510              		.cfi_endproc
 511              	.LFE39:
 512              		.size	CEC_GetFlagStatus, .-CEC_GetFlagStatus
 513              		.align	1
 514              		.global	CEC_ClearFlag
 515              		.syntax unified
 516              		.thumb
 517              		.thumb_func
 518              		.fpu softvfp
 519              		.type	CEC_ClearFlag, %function
 520              	CEC_ClearFlag:
 521              	.LVL16:
 522              	.LFB40:
 336:.\stlib\STM32F10x_StdPeriph_Driver\src/stm32f10x_cec.c **** 
 337:.\stlib\STM32F10x_StdPeriph_Driver\src/stm32f10x_cec.c **** /**
 338:.\stlib\STM32F10x_StdPeriph_Driver\src/stm32f10x_cec.c ****   * @brief  Clears the CEC's pending flags.
 339:.\stlib\STM32F10x_StdPeriph_Driver\src/stm32f10x_cec.c ****   * @param  CEC_FLAG: specifies the flag to clear. 
 340:.\stlib\STM32F10x_StdPeriph_Driver\src/stm32f10x_cec.c ****   *   This parameter can be any combination of the following values:
 341:.\stlib\STM32F10x_StdPeriph_Driver\src/stm32f10x_cec.c ****   *     @arg CEC_FLAG_TERR: Tx Error
 342:.\stlib\STM32F10x_StdPeriph_Driver\src/stm32f10x_cec.c ****   *     @arg CEC_FLAG_TBTRF: Tx Byte Transfer Request or Block Transfer Finished
 343:.\stlib\STM32F10x_StdPeriph_Driver\src/stm32f10x_cec.c ****   *     @arg CEC_FLAG_RSOM: Rx Start Of Message
 344:.\stlib\STM32F10x_StdPeriph_Driver\src/stm32f10x_cec.c ****   *     @arg CEC_FLAG_REOM: Rx End Of Message
 345:.\stlib\STM32F10x_StdPeriph_Driver\src/stm32f10x_cec.c ****   *     @arg CEC_FLAG_RERR: Rx Error
 346:.\stlib\STM32F10x_StdPeriph_Driver\src/stm32f10x_cec.c ****   *     @arg CEC_FLAG_RBTF: Rx Byte/Block Transfer Finished
 347:.\stlib\STM32F10x_StdPeriph_Driver\src/stm32f10x_cec.c ****   * @retval None
 348:.\stlib\STM32F10x_StdPeriph_Driver\src/stm32f10x_cec.c ****   */
 349:.\stlib\STM32F10x_StdPeriph_Driver\src/stm32f10x_cec.c **** void CEC_ClearFlag(uint32_t CEC_FLAG)
 350:.\stlib\STM32F10x_StdPeriph_Driver\src/stm32f10x_cec.c **** { 
 523              		.loc 1 350 1 is_stmt 1 view -0
 524              		.cfi_startproc
 525              		@ args = 0, pretend = 0, frame = 0
 526              		@ frame_needed = 0, uses_anonymous_args = 0
 351:.\stlib\STM32F10x_StdPeriph_Driver\src/stm32f10x_cec.c ****   uint32_t tmp = 0x0;
 527              		.loc 1 351 3 view .LVU90
 352:.\stlib\STM32F10x_StdPeriph_Driver\src/stm32f10x_cec.c ****   
 353:.\stlib\STM32F10x_StdPeriph_Driver\src/stm32f10x_cec.c ****   /* Check the parameters */
 354:.\stlib\STM32F10x_StdPeriph_Driver\src/stm32f10x_cec.c ****   assert_param(IS_CEC_CLEAR_FLAG(CEC_FLAG));
 528              		.loc 1 354 3 view .LVU91
 355:.\stlib\STM32F10x_StdPeriph_Driver\src/stm32f10x_cec.c **** 
 356:.\stlib\STM32F10x_StdPeriph_Driver\src/stm32f10x_cec.c ****   tmp = CEC->CSR & 0x2;
 529              		.loc 1 356 3 view .LVU92
 530              	@ .\stlib\STM32F10x_StdPeriph_Driver\src\stm32f10x_cec.c:359:   CEC->CSR &= (uint32_t)(((~(uint32_t
 357:.\stlib\STM32F10x_StdPeriph_Driver\src/stm32f10x_cec.c ****        
 358:.\stlib\STM32F10x_StdPeriph_Driver\src/stm32f10x_cec.c ****   /* Clear the selected CEC flags */
 359:.\stlib\STM32F10x_StdPeriph_Driver\src/stm32f10x_cec.c ****   CEC->CSR &= (uint32_t)(((~(uint32_t)CEC_FLAG) & 0xFFFFFFFC) | tmp);
 531              		.loc 1 359 28 is_stmt 0 view .LVU93
 532 00c4 C343     		mvns	r3, r0	@ tmp120, tmp125
 533              	@ .\stlib\STM32F10x_StdPeriph_Driver\src\stm32f10x_cec.c:356:   tmp = CEC->CSR & 0x2;
 356:.\stlib\STM32F10x_StdPeriph_Driver\src/stm32f10x_cec.c ****        
 534              		.loc 1 356 12 view .LVU94
 535 00c6 064A     		ldr	r2, .L38	@ tmp118,
 536              	@ .\stlib\STM32F10x_StdPeriph_Driver\src\stm32f10x_cec.c:350: { 
ARM GAS  C:\Users\skey\AppData\Local\Temp\ccDz30Qf.s 			page 17


 350:.\stlib\STM32F10x_StdPeriph_Driver\src/stm32f10x_cec.c ****   uint32_t tmp = 0x0;
 537              		.loc 1 350 1 view .LVU95
 538 00c8 10B5     		push	{r4, lr}	@
 539              	.LCFI2:
 540              		.cfi_def_cfa_offset 8
 541              		.cfi_offset 4, -8
 542              		.cfi_offset 14, -4
 543              	@ .\stlib\STM32F10x_StdPeriph_Driver\src\stm32f10x_cec.c:356:   tmp = CEC->CSR & 0x2;
 356:.\stlib\STM32F10x_StdPeriph_Driver\src/stm32f10x_cec.c ****        
 544              		.loc 1 356 12 view .LVU96
 545 00ca 1169     		ldr	r1, [r2, #16]	@ _1, MEM[(struct CEC_TypeDef *)1073772544B].CSR
 546              	.LVL17:
 547              		.loc 1 359 3 is_stmt 1 view .LVU97
 548              	@ .\stlib\STM32F10x_StdPeriph_Driver\src\stm32f10x_cec.c:359:   CEC->CSR &= (uint32_t)(((~(uint32_t
 549              		.loc 1 359 49 is_stmt 0 view .LVU98
 550 00cc 23F00303 		bic	r3, r3, #3	@ tmp121, tmp120,
 551              	@ .\stlib\STM32F10x_StdPeriph_Driver\src\stm32f10x_cec.c:359:   CEC->CSR &= (uint32_t)(((~(uint32_t
 552              		.loc 1 359 12 view .LVU99
 553 00d0 1469     		ldr	r4, [r2, #16]	@ _2, MEM[(struct CEC_TypeDef *)1073772544B].CSR
 554              	@ .\stlib\STM32F10x_StdPeriph_Driver\src\stm32f10x_cec.c:356:   tmp = CEC->CSR & 0x2;
 356:.\stlib\STM32F10x_StdPeriph_Driver\src/stm32f10x_cec.c ****        
 555              		.loc 1 356 7 view .LVU100
 556 00d2 01F00201 		and	r1, r1, #2	@ tmp, _1,
 557              	.LVL18:
 558              	@ .\stlib\STM32F10x_StdPeriph_Driver\src\stm32f10x_cec.c:359:   CEC->CSR &= (uint32_t)(((~(uint32_t
 559              		.loc 1 359 15 view .LVU101
 560 00d6 0B43     		orrs	r3, r3, r1	@, tmp123, tmp121, tmp
 561              	@ .\stlib\STM32F10x_StdPeriph_Driver\src\stm32f10x_cec.c:359:   CEC->CSR &= (uint32_t)(((~(uint32_t
 562              		.loc 1 359 12 view .LVU102
 563 00d8 2340     		ands	r3, r3, r4	@, _6, tmp123, _2
 564 00da 1361     		str	r3, [r2, #16]	@ _6, MEM[(struct CEC_TypeDef *)1073772544B].CSR
 565              	@ .\stlib\STM32F10x_StdPeriph_Driver\src\stm32f10x_cec.c:360: }
 360:.\stlib\STM32F10x_StdPeriph_Driver\src/stm32f10x_cec.c **** }
 566              		.loc 1 360 1 view .LVU103
 567 00dc 10BD     		pop	{r4, pc}	@
 568              	.L39:
 569 00de 00BF     		.align	2
 570              	.L38:
 571 00e0 00780040 		.word	1073772544
 572              		.cfi_endproc
 573              	.LFE40:
 574              		.size	CEC_ClearFlag, .-CEC_ClearFlag
 575              		.align	1
 576              		.global	CEC_GetITStatus
 577              		.syntax unified
 578              		.thumb
 579              		.thumb_func
 580              		.fpu softvfp
 581              		.type	CEC_GetITStatus, %function
 582              	CEC_GetITStatus:
 583              	.LVL19:
 584              	.LFB41:
 361:.\stlib\STM32F10x_StdPeriph_Driver\src/stm32f10x_cec.c **** 
 362:.\stlib\STM32F10x_StdPeriph_Driver\src/stm32f10x_cec.c **** /**
 363:.\stlib\STM32F10x_StdPeriph_Driver\src/stm32f10x_cec.c ****   * @brief  Checks whether the specified CEC interrupt has occurred or not.
 364:.\stlib\STM32F10x_StdPeriph_Driver\src/stm32f10x_cec.c ****   * @param  CEC_IT: specifies the CEC interrupt source to check. 
 365:.\stlib\STM32F10x_StdPeriph_Driver\src/stm32f10x_cec.c ****   *   This parameter can be one of the following values:
ARM GAS  C:\Users\skey\AppData\Local\Temp\ccDz30Qf.s 			page 18


 366:.\stlib\STM32F10x_StdPeriph_Driver\src/stm32f10x_cec.c ****   *     @arg CEC_IT_TERR: Tx Error
 367:.\stlib\STM32F10x_StdPeriph_Driver\src/stm32f10x_cec.c ****   *     @arg CEC_IT_TBTF: Tx Block Transfer Finished
 368:.\stlib\STM32F10x_StdPeriph_Driver\src/stm32f10x_cec.c ****   *     @arg CEC_IT_RERR: Rx Error
 369:.\stlib\STM32F10x_StdPeriph_Driver\src/stm32f10x_cec.c ****   *     @arg CEC_IT_RBTF: Rx Block Transfer Finished
 370:.\stlib\STM32F10x_StdPeriph_Driver\src/stm32f10x_cec.c ****   * @retval The new state of CEC_IT (SET or RESET).
 371:.\stlib\STM32F10x_StdPeriph_Driver\src/stm32f10x_cec.c ****   */
 372:.\stlib\STM32F10x_StdPeriph_Driver\src/stm32f10x_cec.c **** ITStatus CEC_GetITStatus(uint8_t CEC_IT)
 373:.\stlib\STM32F10x_StdPeriph_Driver\src/stm32f10x_cec.c **** {
 585              		.loc 1 373 1 is_stmt 1 view -0
 586              		.cfi_startproc
 587              		@ args = 0, pretend = 0, frame = 0
 588              		@ frame_needed = 0, uses_anonymous_args = 0
 589              		@ link register save eliminated.
 374:.\stlib\STM32F10x_StdPeriph_Driver\src/stm32f10x_cec.c ****   ITStatus bitstatus = RESET;
 590              		.loc 1 374 3 view .LVU105
 375:.\stlib\STM32F10x_StdPeriph_Driver\src/stm32f10x_cec.c ****   uint32_t enablestatus = 0;
 591              		.loc 1 375 3 view .LVU106
 376:.\stlib\STM32F10x_StdPeriph_Driver\src/stm32f10x_cec.c ****   
 377:.\stlib\STM32F10x_StdPeriph_Driver\src/stm32f10x_cec.c ****   /* Check the parameters */
 378:.\stlib\STM32F10x_StdPeriph_Driver\src/stm32f10x_cec.c ****    assert_param(IS_CEC_GET_IT(CEC_IT));
 592              		.loc 1 378 4 view .LVU107
 379:.\stlib\STM32F10x_StdPeriph_Driver\src/stm32f10x_cec.c ****    
 380:.\stlib\STM32F10x_StdPeriph_Driver\src/stm32f10x_cec.c ****   /* Get the CEC IT enable bit status */
 381:.\stlib\STM32F10x_StdPeriph_Driver\src/stm32f10x_cec.c ****   enablestatus = (CEC->CFGR & (uint8_t)CEC_CFGR_IE) ;
 593              		.loc 1 381 3 view .LVU108
 594              	@ .\stlib\STM32F10x_StdPeriph_Driver\src\stm32f10x_cec.c:381:   enablestatus = (CEC->CFGR & (uint8_
 595              		.loc 1 381 22 is_stmt 0 view .LVU109
 596 00e4 034B     		ldr	r3, .L43	@ tmp118,
 597 00e6 1A68     		ldr	r2, [r3]	@ _1, MEM[(struct CEC_TypeDef *)1073772544B].CFGR
 598              	.LVL20:
 382:.\stlib\STM32F10x_StdPeriph_Driver\src/stm32f10x_cec.c ****   
 383:.\stlib\STM32F10x_StdPeriph_Driver\src/stm32f10x_cec.c ****   /* Check the status of the specified CEC interrupt */
 384:.\stlib\STM32F10x_StdPeriph_Driver\src/stm32f10x_cec.c ****   if (((CEC->CSR & CEC_IT) != (uint32_t)RESET) && enablestatus)
 599              		.loc 1 384 3 is_stmt 1 view .LVU110
 600              	@ .\stlib\STM32F10x_StdPeriph_Driver\src\stm32f10x_cec.c:384:   if (((CEC->CSR & CEC_IT) != (uint32
 601              		.loc 1 384 12 is_stmt 0 view .LVU111
 602 00e8 1B69     		ldr	r3, [r3, #16]	@ _2, MEM[(struct CEC_TypeDef *)1073772544B].CSR
 603              	@ .\stlib\STM32F10x_StdPeriph_Driver\src\stm32f10x_cec.c:384:   if (((CEC->CSR & CEC_IT) != (uint32
 604              		.loc 1 384 6 view .LVU112
 605 00ea 1840     		ands	r0, r0, r3	@ tmp120, tmp125, _2
 606              	.LVL21:
 607              	@ .\stlib\STM32F10x_StdPeriph_Driver\src\stm32f10x_cec.c:392:     bitstatus = RESET;
 385:.\stlib\STM32F10x_StdPeriph_Driver\src/stm32f10x_cec.c ****   {
 386:.\stlib\STM32F10x_StdPeriph_Driver\src/stm32f10x_cec.c ****     /* CEC_IT is set */
 387:.\stlib\STM32F10x_StdPeriph_Driver\src/stm32f10x_cec.c ****     bitstatus = SET;
 388:.\stlib\STM32F10x_StdPeriph_Driver\src/stm32f10x_cec.c ****   }
 389:.\stlib\STM32F10x_StdPeriph_Driver\src/stm32f10x_cec.c ****   else
 390:.\stlib\STM32F10x_StdPeriph_Driver\src/stm32f10x_cec.c ****   {
 391:.\stlib\STM32F10x_StdPeriph_Driver\src/stm32f10x_cec.c ****     /* CEC_IT is reset */
 392:.\stlib\STM32F10x_StdPeriph_Driver\src/stm32f10x_cec.c ****     bitstatus = RESET;
 608              		.loc 1 392 15 view .LVU113
 609 00ec 18BF     		it	ne
 610 00ee C2F34000 		ubfxne	r0, r2, #1, #1	@ <retval>, _1,,
 611              	.LVL22:
 393:.\stlib\STM32F10x_StdPeriph_Driver\src/stm32f10x_cec.c ****   }
 394:.\stlib\STM32F10x_StdPeriph_Driver\src/stm32f10x_cec.c ****   /* Return the CEC_IT status */
 395:.\stlib\STM32F10x_StdPeriph_Driver\src/stm32f10x_cec.c ****   return  bitstatus;
ARM GAS  C:\Users\skey\AppData\Local\Temp\ccDz30Qf.s 			page 19


 612              		.loc 1 395 3 is_stmt 1 view .LVU114
 613              	@ .\stlib\STM32F10x_StdPeriph_Driver\src\stm32f10x_cec.c:396: }
 396:.\stlib\STM32F10x_StdPeriph_Driver\src/stm32f10x_cec.c **** }
 614              		.loc 1 396 1 is_stmt 0 view .LVU115
 615 00f2 7047     		bx	lr	@
 616              	.L44:
 617              		.align	2
 618              	.L43:
 619 00f4 00780040 		.word	1073772544
 620              		.cfi_endproc
 621              	.LFE41:
 622              		.size	CEC_GetITStatus, .-CEC_GetITStatus
 623              		.align	1
 624              		.global	CEC_ClearITPendingBit
 625              		.syntax unified
 626              		.thumb
 627              		.thumb_func
 628              		.fpu softvfp
 629              		.type	CEC_ClearITPendingBit, %function
 630              	CEC_ClearITPendingBit:
 631              	.LVL23:
 632              	.LFB42:
 397:.\stlib\STM32F10x_StdPeriph_Driver\src/stm32f10x_cec.c **** 
 398:.\stlib\STM32F10x_StdPeriph_Driver\src/stm32f10x_cec.c **** /**
 399:.\stlib\STM32F10x_StdPeriph_Driver\src/stm32f10x_cec.c ****   * @brief  Clears the CEC's interrupt pending bits.
 400:.\stlib\STM32F10x_StdPeriph_Driver\src/stm32f10x_cec.c ****   * @param  CEC_IT: specifies the CEC interrupt pending bit to clear.
 401:.\stlib\STM32F10x_StdPeriph_Driver\src/stm32f10x_cec.c ****   *   This parameter can be any combination of the following values:
 402:.\stlib\STM32F10x_StdPeriph_Driver\src/stm32f10x_cec.c ****   *     @arg CEC_IT_TERR: Tx Error
 403:.\stlib\STM32F10x_StdPeriph_Driver\src/stm32f10x_cec.c ****   *     @arg CEC_IT_TBTF: Tx Block Transfer Finished
 404:.\stlib\STM32F10x_StdPeriph_Driver\src/stm32f10x_cec.c ****   *     @arg CEC_IT_RERR: Rx Error
 405:.\stlib\STM32F10x_StdPeriph_Driver\src/stm32f10x_cec.c ****   *     @arg CEC_IT_RBTF: Rx Block Transfer Finished
 406:.\stlib\STM32F10x_StdPeriph_Driver\src/stm32f10x_cec.c ****   * @retval None
 407:.\stlib\STM32F10x_StdPeriph_Driver\src/stm32f10x_cec.c ****   */
 408:.\stlib\STM32F10x_StdPeriph_Driver\src/stm32f10x_cec.c **** void CEC_ClearITPendingBit(uint16_t CEC_IT)
 409:.\stlib\STM32F10x_StdPeriph_Driver\src/stm32f10x_cec.c **** {
 633              		.loc 1 409 1 is_stmt 1 view -0
 634              		.cfi_startproc
 635              		@ args = 0, pretend = 0, frame = 0
 636              		@ frame_needed = 0, uses_anonymous_args = 0
 410:.\stlib\STM32F10x_StdPeriph_Driver\src/stm32f10x_cec.c ****   uint32_t tmp = 0x0;
 637              		.loc 1 410 3 view .LVU117
 411:.\stlib\STM32F10x_StdPeriph_Driver\src/stm32f10x_cec.c ****   
 412:.\stlib\STM32F10x_StdPeriph_Driver\src/stm32f10x_cec.c ****   /* Check the parameters */
 413:.\stlib\STM32F10x_StdPeriph_Driver\src/stm32f10x_cec.c ****   assert_param(IS_CEC_GET_IT(CEC_IT));
 638              		.loc 1 413 3 view .LVU118
 414:.\stlib\STM32F10x_StdPeriph_Driver\src/stm32f10x_cec.c ****   
 415:.\stlib\STM32F10x_StdPeriph_Driver\src/stm32f10x_cec.c ****   tmp = CEC->CSR & 0x2;
 639              		.loc 1 415 3 view .LVU119
 640              	@ .\stlib\STM32F10x_StdPeriph_Driver\src\stm32f10x_cec.c:418:   CEC->CSR &= (uint32_t)(((~(uint32_t
 416:.\stlib\STM32F10x_StdPeriph_Driver\src/stm32f10x_cec.c ****   
 417:.\stlib\STM32F10x_StdPeriph_Driver\src/stm32f10x_cec.c ****   /* Clear the selected CEC interrupt pending bits */
 418:.\stlib\STM32F10x_StdPeriph_Driver\src/stm32f10x_cec.c ****   CEC->CSR &= (uint32_t)(((~(uint32_t)CEC_IT) & 0xFFFFFFFC) | tmp);
 641              		.loc 1 418 28 is_stmt 0 view .LVU120
 642 00f8 C343     		mvns	r3, r0	@ tmp121, tmp126
 643              	@ .\stlib\STM32F10x_StdPeriph_Driver\src\stm32f10x_cec.c:415:   tmp = CEC->CSR & 0x2;
 415:.\stlib\STM32F10x_StdPeriph_Driver\src/stm32f10x_cec.c ****   
 644              		.loc 1 415 12 view .LVU121
ARM GAS  C:\Users\skey\AppData\Local\Temp\ccDz30Qf.s 			page 20


 645 00fa 064A     		ldr	r2, .L46	@ tmp119,
 646              	@ .\stlib\STM32F10x_StdPeriph_Driver\src\stm32f10x_cec.c:409: {
 409:.\stlib\STM32F10x_StdPeriph_Driver\src/stm32f10x_cec.c ****   uint32_t tmp = 0x0;
 647              		.loc 1 409 1 view .LVU122
 648 00fc 10B5     		push	{r4, lr}	@
 649              	.LCFI3:
 650              		.cfi_def_cfa_offset 8
 651              		.cfi_offset 4, -8
 652              		.cfi_offset 14, -4
 653              	@ .\stlib\STM32F10x_StdPeriph_Driver\src\stm32f10x_cec.c:415:   tmp = CEC->CSR & 0x2;
 415:.\stlib\STM32F10x_StdPeriph_Driver\src/stm32f10x_cec.c ****   
 654              		.loc 1 415 12 view .LVU123
 655 00fe 1169     		ldr	r1, [r2, #16]	@ _1, MEM[(struct CEC_TypeDef *)1073772544B].CSR
 656              	.LVL24:
 657              		.loc 1 418 3 is_stmt 1 view .LVU124
 658              	@ .\stlib\STM32F10x_StdPeriph_Driver\src\stm32f10x_cec.c:418:   CEC->CSR &= (uint32_t)(((~(uint32_t
 659              		.loc 1 418 47 is_stmt 0 view .LVU125
 660 0100 23F00303 		bic	r3, r3, #3	@ tmp122, tmp121,
 661              	@ .\stlib\STM32F10x_StdPeriph_Driver\src\stm32f10x_cec.c:418:   CEC->CSR &= (uint32_t)(((~(uint32_t
 662              		.loc 1 418 12 view .LVU126
 663 0104 1469     		ldr	r4, [r2, #16]	@ _2, MEM[(struct CEC_TypeDef *)1073772544B].CSR
 664              	@ .\stlib\STM32F10x_StdPeriph_Driver\src\stm32f10x_cec.c:415:   tmp = CEC->CSR & 0x2;
 415:.\stlib\STM32F10x_StdPeriph_Driver\src/stm32f10x_cec.c ****   
 665              		.loc 1 415 7 view .LVU127
 666 0106 01F00201 		and	r1, r1, #2	@ tmp, _1,
 667              	.LVL25:
 668              	@ .\stlib\STM32F10x_StdPeriph_Driver\src\stm32f10x_cec.c:418:   CEC->CSR &= (uint32_t)(((~(uint32_t
 669              		.loc 1 418 15 view .LVU128
 670 010a 0B43     		orrs	r3, r3, r1	@, tmp124, tmp122, tmp
 671              	@ .\stlib\STM32F10x_StdPeriph_Driver\src\stm32f10x_cec.c:418:   CEC->CSR &= (uint32_t)(((~(uint32_t
 672              		.loc 1 418 12 view .LVU129
 673 010c 2340     		ands	r3, r3, r4	@, _7, tmp124, _2
 674 010e 1361     		str	r3, [r2, #16]	@ _7, MEM[(struct CEC_TypeDef *)1073772544B].CSR
 675              	@ .\stlib\STM32F10x_StdPeriph_Driver\src\stm32f10x_cec.c:419: }
 419:.\stlib\STM32F10x_StdPeriph_Driver\src/stm32f10x_cec.c **** }
 676              		.loc 1 419 1 view .LVU130
 677 0110 10BD     		pop	{r4, pc}	@
 678              	.L47:
 679 0112 00BF     		.align	2
 680              	.L46:
 681 0114 00780040 		.word	1073772544
 682              		.cfi_endproc
 683              	.LFE42:
 684              		.size	CEC_ClearITPendingBit, .-CEC_ClearITPendingBit
 685              	.Letext0:
 686              		.file 2 "c:\\program files (x86)\\gnu tools arm embedded\\9 2019-q4-major\\arm-none-eabi\\include\
 687              		.file 3 "c:\\program files (x86)\\gnu tools arm embedded\\9 2019-q4-major\\arm-none-eabi\\include\
 688              		.file 4 ".\\stlib\\CMSIS\\CM3\\CoreSupport/core_cm3.h"
 689              		.file 5 ".\\stlib\\CMSIS\\CM3\\DeviceSupport\\ST\\STM32F10x/system_stm32f10x.h"
 690              		.file 6 ".\\stlib\\CMSIS\\CM3\\DeviceSupport\\ST\\STM32F10x/stm32f10x.h"
 691              		.file 7 ".\\stlib\\STM32F10x_StdPeriph_Driver\\inc/stm32f10x_cec.h"
 692              		.file 8 ".\\stlib\\STM32F10x_StdPeriph_Driver\\inc/stm32f10x_rcc.h"
 693              		.section	.debug_info,"",%progbits
 694              	.Ldebug_info0:
 695 0000 14050000 		.4byte	0x514
 696 0004 0200     		.2byte	0x2
 697 0006 00000000 		.4byte	.Ldebug_abbrev0
ARM GAS  C:\Users\skey\AppData\Local\Temp\ccDz30Qf.s 			page 21


 698 000a 04       		.byte	0x4
 699 000b 01       		.uleb128 0x1
 700 000c 54000000 		.4byte	.LASF53
 701 0010 0C       		.byte	0xc
 702 0011 C9020000 		.4byte	.LASF54
 703 0015 31000000 		.4byte	.LASF55
 704 0019 00000000 		.4byte	.Ltext0
 705 001d 18010000 		.4byte	.Letext0
 706 0021 00000000 		.4byte	.Ldebug_line0
 707 0025 02       		.uleb128 0x2
 708 0026 01       		.byte	0x1
 709 0027 06       		.byte	0x6
 710 0028 1B020000 		.4byte	.LASF0
 711 002c 03       		.uleb128 0x3
 712 002d C9010000 		.4byte	.LASF3
 713 0031 02       		.byte	0x2
 714 0032 2B       		.byte	0x2b
 715 0033 18       		.byte	0x18
 716 0034 38000000 		.4byte	0x38
 717 0038 02       		.uleb128 0x2
 718 0039 01       		.byte	0x1
 719 003a 08       		.byte	0x8
 720 003b 0D020000 		.4byte	.LASF1
 721 003f 02       		.uleb128 0x2
 722 0040 02       		.byte	0x2
 723 0041 05       		.byte	0x5
 724 0042 1B010000 		.4byte	.LASF2
 725 0046 03       		.uleb128 0x3
 726 0047 10010000 		.4byte	.LASF4
 727 004b 02       		.byte	0x2
 728 004c 39       		.byte	0x39
 729 004d 19       		.byte	0x19
 730 004e 52000000 		.4byte	0x52
 731 0052 02       		.uleb128 0x2
 732 0053 02       		.byte	0x2
 733 0054 07       		.byte	0x7
 734 0055 6E020000 		.4byte	.LASF5
 735 0059 02       		.uleb128 0x2
 736 005a 04       		.byte	0x4
 737 005b 05       		.byte	0x5
 738 005c B9010000 		.4byte	.LASF6
 739 0060 03       		.uleb128 0x3
 740 0061 F6000000 		.4byte	.LASF7
 741 0065 02       		.byte	0x2
 742 0066 4F       		.byte	0x4f
 743 0067 19       		.byte	0x19
 744 0068 6C000000 		.4byte	0x6c
 745 006c 02       		.uleb128 0x2
 746 006d 04       		.byte	0x4
 747 006e 07       		.byte	0x7
 748 006f 00030000 		.4byte	.LASF8
 749 0073 02       		.uleb128 0x2
 750 0074 08       		.byte	0x8
 751 0075 05       		.byte	0x5
 752 0076 70010000 		.4byte	.LASF9
 753 007a 02       		.uleb128 0x2
 754 007b 08       		.byte	0x8
ARM GAS  C:\Users\skey\AppData\Local\Temp\ccDz30Qf.s 			page 22


 755 007c 07       		.byte	0x7
 756 007d 2F020000 		.4byte	.LASF10
 757 0081 04       		.uleb128 0x4
 758 0082 04       		.byte	0x4
 759 0083 05       		.byte	0x5
 760 0084 696E7400 		.ascii	"int\000"
 761 0088 05       		.uleb128 0x5
 762 0089 81000000 		.4byte	0x81
 763 008d 02       		.uleb128 0x2
 764 008e 04       		.byte	0x4
 765 008f 07       		.byte	0x7
 766 0090 4F020000 		.4byte	.LASF11
 767 0094 03       		.uleb128 0x3
 768 0095 31010000 		.4byte	.LASF12
 769 0099 03       		.byte	0x3
 770 009a 18       		.byte	0x18
 771 009b 13       		.byte	0x13
 772 009c 2C000000 		.4byte	0x2c
 773 00a0 03       		.uleb128 0x3
 774 00a1 C0020000 		.4byte	.LASF13
 775 00a5 03       		.byte	0x3
 776 00a6 24       		.byte	0x24
 777 00a7 14       		.byte	0x14
 778 00a8 46000000 		.4byte	0x46
 779 00ac 03       		.uleb128 0x3
 780 00ad 46020000 		.4byte	.LASF14
 781 00b1 03       		.byte	0x3
 782 00b2 30       		.byte	0x30
 783 00b3 14       		.byte	0x14
 784 00b4 60000000 		.4byte	0x60
 785 00b8 05       		.uleb128 0x5
 786 00b9 AC000000 		.4byte	0xac
 787 00bd 06       		.uleb128 0x6
 788 00be 84030000 		.4byte	.LASF15
 789 00c2 04       		.byte	0x4
 790 00c3 CE06     		.2byte	0x6ce
 791 00c5 15       		.byte	0x15
 792 00c6 88000000 		.4byte	0x88
 793 00ca 01       		.byte	0x1
 794 00cb 01       		.byte	0x1
 795 00cc 07       		.uleb128 0x7
 796 00cd 9B020000 		.4byte	.LASF16
 797 00d1 05       		.byte	0x5
 798 00d2 35       		.byte	0x35
 799 00d3 11       		.byte	0x11
 800 00d4 AC000000 		.4byte	0xac
 801 00d8 01       		.byte	0x1
 802 00d9 01       		.byte	0x1
 803 00da 08       		.uleb128 0x8
 804 00db 07       		.byte	0x7
 805 00dc 01       		.byte	0x1
 806 00dd 38000000 		.4byte	0x38
 807 00e1 06       		.byte	0x6
 808 00e2 0702     		.2byte	0x207
 809 00e4 0E       		.byte	0xe
 810 00e5 F6000000 		.4byte	0xf6
 811 00e9 09       		.uleb128 0x9
ARM GAS  C:\Users\skey\AppData\Local\Temp\ccDz30Qf.s 			page 23


 812 00ea 2C030000 		.4byte	.LASF17
 813 00ee 00       		.byte	0
 814 00ef 0A       		.uleb128 0xa
 815 00f0 53455400 		.ascii	"SET\000"
 816 00f4 01       		.byte	0x1
 817 00f5 00       		.byte	0
 818 00f6 0B       		.uleb128 0xb
 819 00f7 A5030000 		.4byte	.LASF18
 820 00fb 06       		.byte	0x6
 821 00fc 0702     		.2byte	0x207
 822 00fe 28       		.byte	0x28
 823 00ff DA000000 		.4byte	0xda
 824 0103 0B       		.uleb128 0xb
 825 0104 B0010000 		.4byte	.LASF19
 826 0108 06       		.byte	0x6
 827 0109 0702     		.2byte	0x207
 828 010b 34       		.byte	0x34
 829 010c DA000000 		.4byte	0xda
 830 0110 08       		.uleb128 0x8
 831 0111 07       		.byte	0x7
 832 0112 01       		.byte	0x1
 833 0113 38000000 		.4byte	0x38
 834 0117 06       		.byte	0x6
 835 0118 0902     		.2byte	0x209
 836 011a 0E       		.byte	0xe
 837 011b 2C010000 		.4byte	0x12c
 838 011f 09       		.uleb128 0x9
 839 0120 4A010000 		.4byte	.LASF20
 840 0124 00       		.byte	0
 841 0125 09       		.uleb128 0x9
 842 0126 2A010000 		.4byte	.LASF21
 843 012a 01       		.byte	0x1
 844 012b 00       		.byte	0
 845 012c 0B       		.uleb128 0xb
 846 012d A0010000 		.4byte	.LASF22
 847 0131 06       		.byte	0x6
 848 0132 0902     		.2byte	0x209
 849 0134 2F       		.byte	0x2f
 850 0135 10010000 		.4byte	0x110
 851 0139 0C       		.uleb128 0xc
 852 013a 1C       		.byte	0x1c
 853 013b 06       		.byte	0x6
 854 013c E002     		.2byte	0x2e0
 855 013e 09       		.byte	0x9
 856 013f B4010000 		.4byte	0x1b4
 857 0143 0D       		.uleb128 0xd
 858 0144 25010000 		.4byte	.LASF23
 859 0148 06       		.byte	0x6
 860 0149 E202     		.2byte	0x2e2
 861 014b 11       		.byte	0x11
 862 014c B8000000 		.4byte	0xb8
 863 0150 02       		.byte	0x2
 864 0151 23       		.byte	0x23
 865 0152 00       		.uleb128 0
 866 0153 0E       		.uleb128 0xe
 867 0154 4F415200 		.ascii	"OAR\000"
 868 0158 06       		.byte	0x6
ARM GAS  C:\Users\skey\AppData\Local\Temp\ccDz30Qf.s 			page 24


 869 0159 E302     		.2byte	0x2e3
 870 015b 11       		.byte	0x11
 871 015c B8000000 		.4byte	0xb8
 872 0160 02       		.byte	0x2
 873 0161 23       		.byte	0x23
 874 0162 04       		.uleb128 0x4
 875 0163 0D       		.uleb128 0xd
 876 0164 8D020000 		.4byte	.LASF24
 877 0168 06       		.byte	0x6
 878 0169 E402     		.2byte	0x2e4
 879 016b 11       		.byte	0x11
 880 016c B8000000 		.4byte	0xb8
 881 0170 02       		.byte	0x2
 882 0171 23       		.byte	0x23
 883 0172 08       		.uleb128 0x8
 884 0173 0E       		.uleb128 0xe
 885 0174 45535200 		.ascii	"ESR\000"
 886 0178 06       		.byte	0x6
 887 0179 E502     		.2byte	0x2e5
 888 017b 11       		.byte	0x11
 889 017c B8000000 		.4byte	0xb8
 890 0180 02       		.byte	0x2
 891 0181 23       		.byte	0x23
 892 0182 0C       		.uleb128 0xc
 893 0183 0E       		.uleb128 0xe
 894 0184 43535200 		.ascii	"CSR\000"
 895 0188 06       		.byte	0x6
 896 0189 E602     		.2byte	0x2e6
 897 018b 11       		.byte	0x11
 898 018c B8000000 		.4byte	0xb8
 899 0190 02       		.byte	0x2
 900 0191 23       		.byte	0x23
 901 0192 10       		.uleb128 0x10
 902 0193 0E       		.uleb128 0xe
 903 0194 54584400 		.ascii	"TXD\000"
 904 0198 06       		.byte	0x6
 905 0199 E702     		.2byte	0x2e7
 906 019b 11       		.byte	0x11
 907 019c B8000000 		.4byte	0xb8
 908 01a0 02       		.byte	0x2
 909 01a1 23       		.byte	0x23
 910 01a2 14       		.uleb128 0x14
 911 01a3 0E       		.uleb128 0xe
 912 01a4 52584400 		.ascii	"RXD\000"
 913 01a8 06       		.byte	0x6
 914 01a9 E802     		.2byte	0x2e8
 915 01ab 11       		.byte	0x11
 916 01ac B8000000 		.4byte	0xb8
 917 01b0 02       		.byte	0x2
 918 01b1 23       		.byte	0x23
 919 01b2 18       		.uleb128 0x18
 920 01b3 00       		.byte	0
 921 01b4 0B       		.uleb128 0xb
 922 01b5 81020000 		.4byte	.LASF25
 923 01b9 06       		.byte	0x6
 924 01ba E902     		.2byte	0x2e9
 925 01bc 03       		.byte	0x3
ARM GAS  C:\Users\skey\AppData\Local\Temp\ccDz30Qf.s 			page 25


 926 01bd 39010000 		.4byte	0x139
 927 01c1 0F       		.uleb128 0xf
 928 01c2 04       		.byte	0x4
 929 01c3 07       		.byte	0x7
 930 01c4 32       		.byte	0x32
 931 01c5 09       		.byte	0x9
 932 01c6 E9010000 		.4byte	0x1e9
 933 01ca 10       		.uleb128 0x10
 934 01cb 5C020000 		.4byte	.LASF26
 935 01cf 07       		.byte	0x7
 936 01d0 34       		.byte	0x34
 937 01d1 0C       		.byte	0xc
 938 01d2 A0000000 		.4byte	0xa0
 939 01d6 02       		.byte	0x2
 940 01d7 23       		.byte	0x23
 941 01d8 00       		.uleb128 0
 942 01d9 10       		.uleb128 0x10
 943 01da E9010000 		.4byte	.LASF27
 944 01de 07       		.byte	0x7
 945 01df 36       		.byte	0x36
 946 01e0 0C       		.byte	0xc
 947 01e1 A0000000 		.4byte	0xa0
 948 01e5 02       		.byte	0x2
 949 01e6 23       		.byte	0x23
 950 01e7 02       		.uleb128 0x2
 951 01e8 00       		.byte	0
 952 01e9 03       		.uleb128 0x3
 953 01ea 66030000 		.4byte	.LASF28
 954 01ee 07       		.byte	0x7
 955 01ef 38       		.byte	0x38
 956 01f0 02       		.byte	0x2
 957 01f1 C1010000 		.4byte	0x1c1
 958 01f5 11       		.uleb128 0x11
 959 01f6 01       		.byte	0x1
 960 01f7 1B000000 		.4byte	.LASF31
 961 01fb 01       		.byte	0x1
 962 01fc 9801     		.2byte	0x198
 963 01fe 06       		.byte	0x6
 964 01ff 01       		.byte	0x1
 965 0200 F8000000 		.4byte	.LFB42
 966 0204 18010000 		.4byte	.LFE42
 967 0208 00000000 		.4byte	.LLST12
 968 020c 01       		.byte	0x1
 969 020d 36020000 		.4byte	0x236
 970 0211 12       		.uleb128 0x12
 971 0212 12030000 		.4byte	.LASF33
 972 0216 01       		.byte	0x1
 973 0217 9801     		.2byte	0x198
 974 0219 25       		.byte	0x25
 975 021a A0000000 		.4byte	0xa0
 976 021e 01       		.byte	0x1
 977 021f 50       		.byte	0x50
 978 0220 13       		.uleb128 0x13
 979 0221 746D7000 		.ascii	"tmp\000"
 980 0225 01       		.byte	0x1
 981 0226 9A01     		.2byte	0x19a
 982 0228 0C       		.byte	0xc
ARM GAS  C:\Users\skey\AppData\Local\Temp\ccDz30Qf.s 			page 26


 983 0229 AC000000 		.4byte	0xac
 984 022d 26000000 		.4byte	.LLST13
 985 0231 20000000 		.4byte	.LVUS13
 986 0235 00       		.byte	0
 987 0236 14       		.uleb128 0x14
 988 0237 01       		.byte	0x1
 989 0238 B9030000 		.4byte	.LASF35
 990 023c 01       		.byte	0x1
 991 023d 7401     		.2byte	0x174
 992 023f 0A       		.byte	0xa
 993 0240 01       		.byte	0x1
 994 0241 03010000 		.4byte	0x103
 995 0245 E4000000 		.4byte	.LFB41
 996 0249 F8000000 		.4byte	.LFE41
 997 024d 02       		.byte	0x2
 998 024e 7D       		.byte	0x7d
 999 024f 00       		.sleb128 0
 1000 0250 01       		.byte	0x1
 1001 0251 95020000 		.4byte	0x295
 1002 0255 15       		.uleb128 0x15
 1003 0256 12030000 		.4byte	.LASF33
 1004 025a 01       		.byte	0x1
 1005 025b 7401     		.2byte	0x174
 1006 025d 22       		.byte	0x22
 1007 025e 94000000 		.4byte	0x94
 1008 0262 58000000 		.4byte	.LLST9
 1009 0266 54000000 		.4byte	.LVUS9
 1010 026a 16       		.uleb128 0x16
 1011 026b DF010000 		.4byte	.LASF29
 1012 026f 01       		.byte	0x1
 1013 0270 7601     		.2byte	0x176
 1014 0272 0C       		.byte	0xc
 1015 0273 03010000 		.4byte	0x103
 1016 0277 7D000000 		.4byte	.LLST10
 1017 027b 79000000 		.4byte	.LVUS10
 1018 027f 16       		.uleb128 0x16
 1019 0280 52010000 		.4byte	.LASF30
 1020 0284 01       		.byte	0x1
 1021 0285 7701     		.2byte	0x177
 1022 0287 0C       		.byte	0xc
 1023 0288 AC000000 		.4byte	0xac
 1024 028c A0000000 		.4byte	.LLST11
 1025 0290 9C000000 		.4byte	.LVUS11
 1026 0294 00       		.byte	0
 1027 0295 11       		.uleb128 0x11
 1028 0296 01       		.byte	0x1
 1029 0297 0D000000 		.4byte	.LASF32
 1030 029b 01       		.byte	0x1
 1031 029c 5D01     		.2byte	0x15d
 1032 029e 06       		.byte	0x6
 1033 029f 01       		.byte	0x1
 1034 02a0 C4000000 		.4byte	.LFB40
 1035 02a4 E4000000 		.4byte	.LFE40
 1036 02a8 C3000000 		.4byte	.LLST7
 1037 02ac 01       		.byte	0x1
 1038 02ad D6020000 		.4byte	0x2d6
 1039 02b1 12       		.uleb128 0x12
ARM GAS  C:\Users\skey\AppData\Local\Temp\ccDz30Qf.s 			page 27


 1040 02b2 B0030000 		.4byte	.LASF34
 1041 02b6 01       		.byte	0x1
 1042 02b7 5D01     		.2byte	0x15d
 1043 02b9 1D       		.byte	0x1d
 1044 02ba AC000000 		.4byte	0xac
 1045 02be 01       		.byte	0x1
 1046 02bf 50       		.byte	0x50
 1047 02c0 13       		.uleb128 0x13
 1048 02c1 746D7000 		.ascii	"tmp\000"
 1049 02c5 01       		.byte	0x1
 1050 02c6 5F01     		.2byte	0x15f
 1051 02c8 0C       		.byte	0xc
 1052 02c9 AC000000 		.4byte	0xac
 1053 02cd E9000000 		.4byte	.LLST8
 1054 02d1 E3000000 		.4byte	.LVUS8
 1055 02d5 00       		.byte	0
 1056 02d6 14       		.uleb128 0x14
 1057 02d7 01       		.byte	0x1
 1058 02d8 FB010000 		.4byte	.LASF36
 1059 02dc 01       		.byte	0x1
 1060 02dd 2301     		.2byte	0x123
 1061 02df 0C       		.byte	0xc
 1062 02e0 01       		.byte	0x1
 1063 02e1 F6000000 		.4byte	0xf6
 1064 02e5 A0000000 		.4byte	.LFB39
 1065 02e9 C4000000 		.4byte	.LFE39
 1066 02ed 02       		.byte	0x2
 1067 02ee 7D       		.byte	0x7d
 1068 02ef 00       		.sleb128 0
 1069 02f0 01       		.byte	0x1
 1070 02f1 4A030000 		.4byte	0x34a
 1071 02f5 15       		.uleb128 0x15
 1072 02f6 B0030000 		.4byte	.LASF34
 1073 02fa 01       		.byte	0x1
 1074 02fb 2301     		.2byte	0x123
 1075 02fd 27       		.byte	0x27
 1076 02fe AC000000 		.4byte	0xac
 1077 0302 1B010000 		.4byte	.LLST3
 1078 0306 17010000 		.4byte	.LVUS3
 1079 030a 16       		.uleb128 0x16
 1080 030b DF010000 		.4byte	.LASF29
 1081 030f 01       		.byte	0x1
 1082 0310 2501     		.2byte	0x125
 1083 0312 0E       		.byte	0xe
 1084 0313 F6000000 		.4byte	0xf6
 1085 0317 3D010000 		.4byte	.LLST4
 1086 031b 39010000 		.4byte	.LVUS4
 1087 031f 16       		.uleb128 0x16
 1088 0320 C2010000 		.4byte	.LASF37
 1089 0324 01       		.byte	0x1
 1090 0325 2601     		.2byte	0x126
 1091 0327 0C       		.byte	0xc
 1092 0328 AC000000 		.4byte	0xac
 1093 032c 69010000 		.4byte	.LLST5
 1094 0330 63010000 		.4byte	.LVUS5
 1095 0334 16       		.uleb128 0x16
 1096 0335 27020000 		.4byte	.LASF38
ARM GAS  C:\Users\skey\AppData\Local\Temp\ccDz30Qf.s 			page 28


 1097 0339 01       		.byte	0x1
 1098 033a 2601     		.2byte	0x126
 1099 033c 18       		.byte	0x18
 1100 033d AC000000 		.4byte	0xac
 1101 0341 A0010000 		.4byte	.LLST6
 1102 0345 9C010000 		.4byte	.LVUS6
 1103 0349 00       		.byte	0
 1104 034a 17       		.uleb128 0x17
 1105 034b 01       		.byte	0x1
 1106 034c 91030000 		.4byte	.LASF39
 1107 0350 01       		.byte	0x1
 1108 0351 0601     		.2byte	0x106
 1109 0353 06       		.byte	0x6
 1110 0354 01       		.byte	0x1
 1111 0355 94000000 		.4byte	.LFB38
 1112 0359 A0000000 		.4byte	.LFE38
 1113 035d 02       		.byte	0x2
 1114 035e 7D       		.byte	0x7d
 1115 035f 00       		.sleb128 0
 1116 0360 01       		.byte	0x1
 1117 0361 75030000 		.4byte	0x375
 1118 0365 12       		.uleb128 0x12
 1119 0366 41010000 		.4byte	.LASF40
 1120 036a 01       		.byte	0x1
 1121 036b 0601     		.2byte	0x106
 1122 036d 2A       		.byte	0x2a
 1123 036e 2C010000 		.4byte	0x12c
 1124 0372 01       		.byte	0x1
 1125 0373 50       		.byte	0x50
 1126 0374 00       		.byte	0
 1127 0375 18       		.uleb128 0x18
 1128 0376 01       		.byte	0x1
 1129 0377 19030000 		.4byte	.LASF56
 1130 037b 01       		.byte	0x1
 1131 037c FA       		.byte	0xfa
 1132 037d 06       		.byte	0x6
 1133 037e 01       		.byte	0x1
 1134 037f 88000000 		.4byte	.LFB37
 1135 0383 94000000 		.4byte	.LFE37
 1136 0387 02       		.byte	0x2
 1137 0388 7D       		.byte	0x7d
 1138 0389 00       		.sleb128 0
 1139 038a 01       		.byte	0x1
 1140 038b 19       		.uleb128 0x19
 1141 038c 01       		.byte	0x1
 1142 038d 52030000 		.4byte	.LASF57
 1143 0391 01       		.byte	0x1
 1144 0392 EF       		.byte	0xef
 1145 0393 09       		.byte	0x9
 1146 0394 01       		.byte	0x1
 1147 0395 94000000 		.4byte	0x94
 1148 0399 7C000000 		.4byte	.LFB36
 1149 039d 88000000 		.4byte	.LFE36
 1150 03a1 02       		.byte	0x2
 1151 03a2 7D       		.byte	0x7d
 1152 03a3 00       		.sleb128 0
 1153 03a4 01       		.byte	0x1
ARM GAS  C:\Users\skey\AppData\Local\Temp\ccDz30Qf.s 			page 29


 1154 03a5 1A       		.uleb128 0x1a
 1155 03a6 01       		.byte	0x1
 1156 03a7 41030000 		.4byte	.LASF41
 1157 03ab 01       		.byte	0x1
 1158 03ac E3       		.byte	0xe3
 1159 03ad 06       		.byte	0x6
 1160 03ae 01       		.byte	0x1
 1161 03af 70000000 		.4byte	.LFB35
 1162 03b3 7C000000 		.4byte	.LFE35
 1163 03b7 02       		.byte	0x2
 1164 03b8 7D       		.byte	0x7d
 1165 03b9 00       		.sleb128 0
 1166 03ba 01       		.byte	0x1
 1167 03bb CE030000 		.4byte	0x3ce
 1168 03bf 1B       		.uleb128 0x1b
 1169 03c0 D3010000 		.4byte	.LASF42
 1170 03c4 01       		.byte	0x1
 1171 03c5 E3       		.byte	0xe3
 1172 03c6 1F       		.byte	0x1f
 1173 03c7 94000000 		.4byte	0x94
 1174 03cb 01       		.byte	0x1
 1175 03cc 50       		.byte	0x50
 1176 03cd 00       		.byte	0
 1177 03ce 1A       		.uleb128 0x1a
 1178 03cf 01       		.byte	0x1
 1179 03d0 5F010000 		.4byte	.LASF43
 1180 03d4 01       		.byte	0x1
 1181 03d5 D5       		.byte	0xd5
 1182 03d6 06       		.byte	0x6
 1183 03d7 01       		.byte	0x1
 1184 03d8 64000000 		.4byte	.LFB34
 1185 03dc 70000000 		.4byte	.LFE34
 1186 03e0 02       		.byte	0x2
 1187 03e1 7D       		.byte	0x7d
 1188 03e2 00       		.sleb128 0
 1189 03e3 01       		.byte	0x1
 1190 03e4 F7030000 		.4byte	0x3f7
 1191 03e8 1B       		.uleb128 0x1b
 1192 03e9 76030000 		.4byte	.LASF44
 1193 03ed 01       		.byte	0x1
 1194 03ee D5       		.byte	0xd5
 1195 03ef 20       		.byte	0x20
 1196 03f0 A0000000 		.4byte	0xa0
 1197 03f4 01       		.byte	0x1
 1198 03f5 50       		.byte	0x50
 1199 03f6 00       		.byte	0
 1200 03f7 1A       		.uleb128 0x1a
 1201 03f8 01       		.byte	0x1
 1202 03f9 AB020000 		.4byte	.LASF45
 1203 03fd 01       		.byte	0x1
 1204 03fe C7       		.byte	0xc7
 1205 03ff 06       		.byte	0x6
 1206 0400 01       		.byte	0x1
 1207 0401 58000000 		.4byte	.LFB33
 1208 0405 64000000 		.4byte	.LFE33
 1209 0409 02       		.byte	0x2
 1210 040a 7D       		.byte	0x7d
ARM GAS  C:\Users\skey\AppData\Local\Temp\ccDz30Qf.s 			page 30


 1211 040b 00       		.sleb128 0
 1212 040c 01       		.byte	0x1
 1213 040d 20040000 		.4byte	0x420
 1214 0411 1B       		.uleb128 0x1b
 1215 0412 32030000 		.4byte	.LASF46
 1216 0416 01       		.byte	0x1
 1217 0417 C7       		.byte	0xc7
 1218 0418 23       		.byte	0x23
 1219 0419 94000000 		.4byte	0x94
 1220 041d 01       		.byte	0x1
 1221 041e 50       		.byte	0x50
 1222 041f 00       		.byte	0
 1223 0420 1A       		.uleb128 0x1a
 1224 0421 01       		.byte	0x1
 1225 0422 00000000 		.4byte	.LASF47
 1226 0426 01       		.byte	0x1
 1227 0427 BA       		.byte	0xba
 1228 0428 06       		.byte	0x6
 1229 0429 01       		.byte	0x1
 1230 042a 4C000000 		.4byte	.LFB32
 1231 042e 58000000 		.4byte	.LFE32
 1232 0432 02       		.byte	0x2
 1233 0433 7D       		.byte	0x7d
 1234 0434 00       		.sleb128 0
 1235 0435 01       		.byte	0x1
 1236 0436 49040000 		.4byte	0x449
 1237 043a 1B       		.uleb128 0x1b
 1238 043b 41010000 		.4byte	.LASF40
 1239 043f 01       		.byte	0x1
 1240 0440 BA       		.byte	0xba
 1241 0441 23       		.byte	0x23
 1242 0442 2C010000 		.4byte	0x12c
 1243 0446 01       		.byte	0x1
 1244 0447 50       		.byte	0x50
 1245 0448 00       		.byte	0
 1246 0449 1A       		.uleb128 0x1a
 1247 044a 01       		.byte	0x1
 1248 044b 39010000 		.4byte	.LASF48
 1249 044f 01       		.byte	0x1
 1250 0450 A4       		.byte	0xa4
 1251 0451 06       		.byte	0x6
 1252 0452 01       		.byte	0x1
 1253 0453 34000000 		.4byte	.LFB31
 1254 0457 4C000000 		.4byte	.LFE31
 1255 045b 02       		.byte	0x2
 1256 045c 7D       		.byte	0x7d
 1257 045d 00       		.sleb128 0
 1258 045e 01       		.byte	0x1
 1259 045f 72040000 		.4byte	0x472
 1260 0463 1B       		.uleb128 0x1b
 1261 0464 41010000 		.4byte	.LASF40
 1262 0468 01       		.byte	0x1
 1263 0469 A4       		.byte	0xa4
 1264 046a 1E       		.byte	0x1e
 1265 046b 2C010000 		.4byte	0x12c
 1266 046f 01       		.byte	0x1
 1267 0470 50       		.byte	0x50
ARM GAS  C:\Users\skey\AppData\Local\Temp\ccDz30Qf.s 			page 31


 1268 0471 00       		.byte	0
 1269 0472 1A       		.uleb128 0x1a
 1270 0473 01       		.byte	0x1
 1271 0474 92020000 		.4byte	.LASF49
 1272 0478 01       		.byte	0x1
 1273 0479 87       		.byte	0x87
 1274 047a 06       		.byte	0x6
 1275 047b 01       		.byte	0x1
 1276 047c 1A000000 		.4byte	.LFB30
 1277 0480 34000000 		.4byte	.LFE30
 1278 0484 02       		.byte	0x2
 1279 0485 7D       		.byte	0x7d
 1280 0486 00       		.sleb128 0
 1281 0487 01       		.byte	0x1
 1282 0488 B5040000 		.4byte	0x4b5
 1283 048c 1C       		.uleb128 0x1c
 1284 048d 01010000 		.4byte	.LASF50
 1285 0491 01       		.byte	0x1
 1286 0492 87       		.byte	0x87
 1287 0493 20       		.byte	0x20
 1288 0494 B5040000 		.4byte	0x4b5
 1289 0498 C8010000 		.4byte	.LLST1
 1290 049c C4010000 		.4byte	.LVUS1
 1291 04a0 1D       		.uleb128 0x1d
 1292 04a1 D8010000 		.4byte	.LASF51
 1293 04a5 01       		.byte	0x1
 1294 04a6 89       		.byte	0x89
 1295 04a7 0C       		.byte	0xc
 1296 04a8 A0000000 		.4byte	0xa0
 1297 04ac ED010000 		.4byte	.LLST2
 1298 04b0 E9010000 		.4byte	.LVUS2
 1299 04b4 00       		.byte	0
 1300 04b5 1E       		.uleb128 0x1e
 1301 04b6 04       		.byte	0x4
 1302 04b7 E9010000 		.4byte	0x1e9
 1303 04bb 1F       		.uleb128 0x1f
 1304 04bc 01       		.byte	0x1
 1305 04bd 7E010000 		.4byte	.LASF52
 1306 04c1 01       		.byte	0x1
 1307 04c2 76       		.byte	0x76
 1308 04c3 06       		.byte	0x6
 1309 04c4 01       		.byte	0x1
 1310 04c5 00000000 		.4byte	.LFB29
 1311 04c9 1A000000 		.4byte	.LFE29
 1312 04cd 0C020000 		.4byte	.LLST0
 1313 04d1 01       		.byte	0x1
 1314 04d2 08050000 		.4byte	0x508
 1315 04d6 20       		.uleb128 0x20
 1316 04d7 0C000000 		.4byte	.LVL0
 1317 04db 08050000 		.4byte	0x508
 1318 04df F0040000 		.4byte	0x4f0
 1319 04e3 21       		.uleb128 0x21
 1320 04e4 01       		.byte	0x1
 1321 04e5 50       		.byte	0x50
 1322 04e6 03       		.byte	0x3
 1323 04e7 40       		.byte	0x40
 1324 04e8 4A       		.byte	0x4a
ARM GAS  C:\Users\skey\AppData\Local\Temp\ccDz30Qf.s 			page 32


 1325 04e9 24       		.byte	0x24
 1326 04ea 21       		.uleb128 0x21
 1327 04eb 01       		.byte	0x1
 1328 04ec 51       		.byte	0x51
 1329 04ed 01       		.byte	0x1
 1330 04ee 31       		.byte	0x31
 1331 04ef 00       		.byte	0
 1332 04f0 22       		.uleb128 0x22
 1333 04f1 1A000000 		.4byte	.LVL1
 1334 04f5 01       		.byte	0x1
 1335 04f6 08050000 		.4byte	0x508
 1336 04fa 21       		.uleb128 0x21
 1337 04fb 01       		.byte	0x1
 1338 04fc 50       		.byte	0x50
 1339 04fd 03       		.byte	0x3
 1340 04fe 40       		.byte	0x40
 1341 04ff 4A       		.byte	0x4a
 1342 0500 24       		.byte	0x24
 1343 0501 21       		.uleb128 0x21
 1344 0502 01       		.byte	0x1
 1345 0503 51       		.byte	0x51
 1346 0504 01       		.byte	0x1
 1347 0505 30       		.byte	0x30
 1348 0506 00       		.byte	0
 1349 0507 00       		.byte	0
 1350 0508 23       		.uleb128 0x23
 1351 0509 01       		.byte	0x1
 1352 050a 01       		.byte	0x1
 1353 050b 89010000 		.4byte	.LASF58
 1354 050f 89010000 		.4byte	.LASF58
 1355 0513 08       		.byte	0x8
 1356 0514 BD02     		.2byte	0x2bd
 1357 0516 06       		.byte	0x6
 1358 0517 00       		.byte	0
 1359              		.section	.debug_abbrev,"",%progbits
 1360              	.Ldebug_abbrev0:
 1361 0000 01       		.uleb128 0x1
 1362 0001 11       		.uleb128 0x11
 1363 0002 01       		.byte	0x1
 1364 0003 25       		.uleb128 0x25
 1365 0004 0E       		.uleb128 0xe
 1366 0005 13       		.uleb128 0x13
 1367 0006 0B       		.uleb128 0xb
 1368 0007 03       		.uleb128 0x3
 1369 0008 0E       		.uleb128 0xe
 1370 0009 1B       		.uleb128 0x1b
 1371 000a 0E       		.uleb128 0xe
 1372 000b 11       		.uleb128 0x11
 1373 000c 01       		.uleb128 0x1
 1374 000d 12       		.uleb128 0x12
 1375 000e 01       		.uleb128 0x1
 1376 000f 10       		.uleb128 0x10
 1377 0010 06       		.uleb128 0x6
 1378 0011 00       		.byte	0
 1379 0012 00       		.byte	0
 1380 0013 02       		.uleb128 0x2
 1381 0014 24       		.uleb128 0x24
ARM GAS  C:\Users\skey\AppData\Local\Temp\ccDz30Qf.s 			page 33


 1382 0015 00       		.byte	0
 1383 0016 0B       		.uleb128 0xb
 1384 0017 0B       		.uleb128 0xb
 1385 0018 3E       		.uleb128 0x3e
 1386 0019 0B       		.uleb128 0xb
 1387 001a 03       		.uleb128 0x3
 1388 001b 0E       		.uleb128 0xe
 1389 001c 00       		.byte	0
 1390 001d 00       		.byte	0
 1391 001e 03       		.uleb128 0x3
 1392 001f 16       		.uleb128 0x16
 1393 0020 00       		.byte	0
 1394 0021 03       		.uleb128 0x3
 1395 0022 0E       		.uleb128 0xe
 1396 0023 3A       		.uleb128 0x3a
 1397 0024 0B       		.uleb128 0xb
 1398 0025 3B       		.uleb128 0x3b
 1399 0026 0B       		.uleb128 0xb
 1400 0027 39       		.uleb128 0x39
 1401 0028 0B       		.uleb128 0xb
 1402 0029 49       		.uleb128 0x49
 1403 002a 13       		.uleb128 0x13
 1404 002b 00       		.byte	0
 1405 002c 00       		.byte	0
 1406 002d 04       		.uleb128 0x4
 1407 002e 24       		.uleb128 0x24
 1408 002f 00       		.byte	0
 1409 0030 0B       		.uleb128 0xb
 1410 0031 0B       		.uleb128 0xb
 1411 0032 3E       		.uleb128 0x3e
 1412 0033 0B       		.uleb128 0xb
 1413 0034 03       		.uleb128 0x3
 1414 0035 08       		.uleb128 0x8
 1415 0036 00       		.byte	0
 1416 0037 00       		.byte	0
 1417 0038 05       		.uleb128 0x5
 1418 0039 35       		.uleb128 0x35
 1419 003a 00       		.byte	0
 1420 003b 49       		.uleb128 0x49
 1421 003c 13       		.uleb128 0x13
 1422 003d 00       		.byte	0
 1423 003e 00       		.byte	0
 1424 003f 06       		.uleb128 0x6
 1425 0040 34       		.uleb128 0x34
 1426 0041 00       		.byte	0
 1427 0042 03       		.uleb128 0x3
 1428 0043 0E       		.uleb128 0xe
 1429 0044 3A       		.uleb128 0x3a
 1430 0045 0B       		.uleb128 0xb
 1431 0046 3B       		.uleb128 0x3b
 1432 0047 05       		.uleb128 0x5
 1433 0048 39       		.uleb128 0x39
 1434 0049 0B       		.uleb128 0xb
 1435 004a 49       		.uleb128 0x49
 1436 004b 13       		.uleb128 0x13
 1437 004c 3F       		.uleb128 0x3f
 1438 004d 0C       		.uleb128 0xc
ARM GAS  C:\Users\skey\AppData\Local\Temp\ccDz30Qf.s 			page 34


 1439 004e 3C       		.uleb128 0x3c
 1440 004f 0C       		.uleb128 0xc
 1441 0050 00       		.byte	0
 1442 0051 00       		.byte	0
 1443 0052 07       		.uleb128 0x7
 1444 0053 34       		.uleb128 0x34
 1445 0054 00       		.byte	0
 1446 0055 03       		.uleb128 0x3
 1447 0056 0E       		.uleb128 0xe
 1448 0057 3A       		.uleb128 0x3a
 1449 0058 0B       		.uleb128 0xb
 1450 0059 3B       		.uleb128 0x3b
 1451 005a 0B       		.uleb128 0xb
 1452 005b 39       		.uleb128 0x39
 1453 005c 0B       		.uleb128 0xb
 1454 005d 49       		.uleb128 0x49
 1455 005e 13       		.uleb128 0x13
 1456 005f 3F       		.uleb128 0x3f
 1457 0060 0C       		.uleb128 0xc
 1458 0061 3C       		.uleb128 0x3c
 1459 0062 0C       		.uleb128 0xc
 1460 0063 00       		.byte	0
 1461 0064 00       		.byte	0
 1462 0065 08       		.uleb128 0x8
 1463 0066 04       		.uleb128 0x4
 1464 0067 01       		.byte	0x1
 1465 0068 3E       		.uleb128 0x3e
 1466 0069 0B       		.uleb128 0xb
 1467 006a 0B       		.uleb128 0xb
 1468 006b 0B       		.uleb128 0xb
 1469 006c 49       		.uleb128 0x49
 1470 006d 13       		.uleb128 0x13
 1471 006e 3A       		.uleb128 0x3a
 1472 006f 0B       		.uleb128 0xb
 1473 0070 3B       		.uleb128 0x3b
 1474 0071 05       		.uleb128 0x5
 1475 0072 39       		.uleb128 0x39
 1476 0073 0B       		.uleb128 0xb
 1477 0074 01       		.uleb128 0x1
 1478 0075 13       		.uleb128 0x13
 1479 0076 00       		.byte	0
 1480 0077 00       		.byte	0
 1481 0078 09       		.uleb128 0x9
 1482 0079 28       		.uleb128 0x28
 1483 007a 00       		.byte	0
 1484 007b 03       		.uleb128 0x3
 1485 007c 0E       		.uleb128 0xe
 1486 007d 1C       		.uleb128 0x1c
 1487 007e 0B       		.uleb128 0xb
 1488 007f 00       		.byte	0
 1489 0080 00       		.byte	0
 1490 0081 0A       		.uleb128 0xa
 1491 0082 28       		.uleb128 0x28
 1492 0083 00       		.byte	0
 1493 0084 03       		.uleb128 0x3
 1494 0085 08       		.uleb128 0x8
 1495 0086 1C       		.uleb128 0x1c
ARM GAS  C:\Users\skey\AppData\Local\Temp\ccDz30Qf.s 			page 35


 1496 0087 0B       		.uleb128 0xb
 1497 0088 00       		.byte	0
 1498 0089 00       		.byte	0
 1499 008a 0B       		.uleb128 0xb
 1500 008b 16       		.uleb128 0x16
 1501 008c 00       		.byte	0
 1502 008d 03       		.uleb128 0x3
 1503 008e 0E       		.uleb128 0xe
 1504 008f 3A       		.uleb128 0x3a
 1505 0090 0B       		.uleb128 0xb
 1506 0091 3B       		.uleb128 0x3b
 1507 0092 05       		.uleb128 0x5
 1508 0093 39       		.uleb128 0x39
 1509 0094 0B       		.uleb128 0xb
 1510 0095 49       		.uleb128 0x49
 1511 0096 13       		.uleb128 0x13
 1512 0097 00       		.byte	0
 1513 0098 00       		.byte	0
 1514 0099 0C       		.uleb128 0xc
 1515 009a 13       		.uleb128 0x13
 1516 009b 01       		.byte	0x1
 1517 009c 0B       		.uleb128 0xb
 1518 009d 0B       		.uleb128 0xb
 1519 009e 3A       		.uleb128 0x3a
 1520 009f 0B       		.uleb128 0xb
 1521 00a0 3B       		.uleb128 0x3b
 1522 00a1 05       		.uleb128 0x5
 1523 00a2 39       		.uleb128 0x39
 1524 00a3 0B       		.uleb128 0xb
 1525 00a4 01       		.uleb128 0x1
 1526 00a5 13       		.uleb128 0x13
 1527 00a6 00       		.byte	0
 1528 00a7 00       		.byte	0
 1529 00a8 0D       		.uleb128 0xd
 1530 00a9 0D       		.uleb128 0xd
 1531 00aa 00       		.byte	0
 1532 00ab 03       		.uleb128 0x3
 1533 00ac 0E       		.uleb128 0xe
 1534 00ad 3A       		.uleb128 0x3a
 1535 00ae 0B       		.uleb128 0xb
 1536 00af 3B       		.uleb128 0x3b
 1537 00b0 05       		.uleb128 0x5
 1538 00b1 39       		.uleb128 0x39
 1539 00b2 0B       		.uleb128 0xb
 1540 00b3 49       		.uleb128 0x49
 1541 00b4 13       		.uleb128 0x13
 1542 00b5 38       		.uleb128 0x38
 1543 00b6 0A       		.uleb128 0xa
 1544 00b7 00       		.byte	0
 1545 00b8 00       		.byte	0
 1546 00b9 0E       		.uleb128 0xe
 1547 00ba 0D       		.uleb128 0xd
 1548 00bb 00       		.byte	0
 1549 00bc 03       		.uleb128 0x3
 1550 00bd 08       		.uleb128 0x8
 1551 00be 3A       		.uleb128 0x3a
 1552 00bf 0B       		.uleb128 0xb
ARM GAS  C:\Users\skey\AppData\Local\Temp\ccDz30Qf.s 			page 36


 1553 00c0 3B       		.uleb128 0x3b
 1554 00c1 05       		.uleb128 0x5
 1555 00c2 39       		.uleb128 0x39
 1556 00c3 0B       		.uleb128 0xb
 1557 00c4 49       		.uleb128 0x49
 1558 00c5 13       		.uleb128 0x13
 1559 00c6 38       		.uleb128 0x38
 1560 00c7 0A       		.uleb128 0xa
 1561 00c8 00       		.byte	0
 1562 00c9 00       		.byte	0
 1563 00ca 0F       		.uleb128 0xf
 1564 00cb 13       		.uleb128 0x13
 1565 00cc 01       		.byte	0x1
 1566 00cd 0B       		.uleb128 0xb
 1567 00ce 0B       		.uleb128 0xb
 1568 00cf 3A       		.uleb128 0x3a
 1569 00d0 0B       		.uleb128 0xb
 1570 00d1 3B       		.uleb128 0x3b
 1571 00d2 0B       		.uleb128 0xb
 1572 00d3 39       		.uleb128 0x39
 1573 00d4 0B       		.uleb128 0xb
 1574 00d5 01       		.uleb128 0x1
 1575 00d6 13       		.uleb128 0x13
 1576 00d7 00       		.byte	0
 1577 00d8 00       		.byte	0
 1578 00d9 10       		.uleb128 0x10
 1579 00da 0D       		.uleb128 0xd
 1580 00db 00       		.byte	0
 1581 00dc 03       		.uleb128 0x3
 1582 00dd 0E       		.uleb128 0xe
 1583 00de 3A       		.uleb128 0x3a
 1584 00df 0B       		.uleb128 0xb
 1585 00e0 3B       		.uleb128 0x3b
 1586 00e1 0B       		.uleb128 0xb
 1587 00e2 39       		.uleb128 0x39
 1588 00e3 0B       		.uleb128 0xb
 1589 00e4 49       		.uleb128 0x49
 1590 00e5 13       		.uleb128 0x13
 1591 00e6 38       		.uleb128 0x38
 1592 00e7 0A       		.uleb128 0xa
 1593 00e8 00       		.byte	0
 1594 00e9 00       		.byte	0
 1595 00ea 11       		.uleb128 0x11
 1596 00eb 2E       		.uleb128 0x2e
 1597 00ec 01       		.byte	0x1
 1598 00ed 3F       		.uleb128 0x3f
 1599 00ee 0C       		.uleb128 0xc
 1600 00ef 03       		.uleb128 0x3
 1601 00f0 0E       		.uleb128 0xe
 1602 00f1 3A       		.uleb128 0x3a
 1603 00f2 0B       		.uleb128 0xb
 1604 00f3 3B       		.uleb128 0x3b
 1605 00f4 05       		.uleb128 0x5
 1606 00f5 39       		.uleb128 0x39
 1607 00f6 0B       		.uleb128 0xb
 1608 00f7 27       		.uleb128 0x27
 1609 00f8 0C       		.uleb128 0xc
ARM GAS  C:\Users\skey\AppData\Local\Temp\ccDz30Qf.s 			page 37


 1610 00f9 11       		.uleb128 0x11
 1611 00fa 01       		.uleb128 0x1
 1612 00fb 12       		.uleb128 0x12
 1613 00fc 01       		.uleb128 0x1
 1614 00fd 40       		.uleb128 0x40
 1615 00fe 06       		.uleb128 0x6
 1616 00ff 9742     		.uleb128 0x2117
 1617 0101 0C       		.uleb128 0xc
 1618 0102 01       		.uleb128 0x1
 1619 0103 13       		.uleb128 0x13
 1620 0104 00       		.byte	0
 1621 0105 00       		.byte	0
 1622 0106 12       		.uleb128 0x12
 1623 0107 05       		.uleb128 0x5
 1624 0108 00       		.byte	0
 1625 0109 03       		.uleb128 0x3
 1626 010a 0E       		.uleb128 0xe
 1627 010b 3A       		.uleb128 0x3a
 1628 010c 0B       		.uleb128 0xb
 1629 010d 3B       		.uleb128 0x3b
 1630 010e 05       		.uleb128 0x5
 1631 010f 39       		.uleb128 0x39
 1632 0110 0B       		.uleb128 0xb
 1633 0111 49       		.uleb128 0x49
 1634 0112 13       		.uleb128 0x13
 1635 0113 02       		.uleb128 0x2
 1636 0114 0A       		.uleb128 0xa
 1637 0115 00       		.byte	0
 1638 0116 00       		.byte	0
 1639 0117 13       		.uleb128 0x13
 1640 0118 34       		.uleb128 0x34
 1641 0119 00       		.byte	0
 1642 011a 03       		.uleb128 0x3
 1643 011b 08       		.uleb128 0x8
 1644 011c 3A       		.uleb128 0x3a
 1645 011d 0B       		.uleb128 0xb
 1646 011e 3B       		.uleb128 0x3b
 1647 011f 05       		.uleb128 0x5
 1648 0120 39       		.uleb128 0x39
 1649 0121 0B       		.uleb128 0xb
 1650 0122 49       		.uleb128 0x49
 1651 0123 13       		.uleb128 0x13
 1652 0124 02       		.uleb128 0x2
 1653 0125 06       		.uleb128 0x6
 1654 0126 B742     		.uleb128 0x2137
 1655 0128 06       		.uleb128 0x6
 1656 0129 00       		.byte	0
 1657 012a 00       		.byte	0
 1658 012b 14       		.uleb128 0x14
 1659 012c 2E       		.uleb128 0x2e
 1660 012d 01       		.byte	0x1
 1661 012e 3F       		.uleb128 0x3f
 1662 012f 0C       		.uleb128 0xc
 1663 0130 03       		.uleb128 0x3
 1664 0131 0E       		.uleb128 0xe
 1665 0132 3A       		.uleb128 0x3a
 1666 0133 0B       		.uleb128 0xb
ARM GAS  C:\Users\skey\AppData\Local\Temp\ccDz30Qf.s 			page 38


 1667 0134 3B       		.uleb128 0x3b
 1668 0135 05       		.uleb128 0x5
 1669 0136 39       		.uleb128 0x39
 1670 0137 0B       		.uleb128 0xb
 1671 0138 27       		.uleb128 0x27
 1672 0139 0C       		.uleb128 0xc
 1673 013a 49       		.uleb128 0x49
 1674 013b 13       		.uleb128 0x13
 1675 013c 11       		.uleb128 0x11
 1676 013d 01       		.uleb128 0x1
 1677 013e 12       		.uleb128 0x12
 1678 013f 01       		.uleb128 0x1
 1679 0140 40       		.uleb128 0x40
 1680 0141 0A       		.uleb128 0xa
 1681 0142 9742     		.uleb128 0x2117
 1682 0144 0C       		.uleb128 0xc
 1683 0145 01       		.uleb128 0x1
 1684 0146 13       		.uleb128 0x13
 1685 0147 00       		.byte	0
 1686 0148 00       		.byte	0
 1687 0149 15       		.uleb128 0x15
 1688 014a 05       		.uleb128 0x5
 1689 014b 00       		.byte	0
 1690 014c 03       		.uleb128 0x3
 1691 014d 0E       		.uleb128 0xe
 1692 014e 3A       		.uleb128 0x3a
 1693 014f 0B       		.uleb128 0xb
 1694 0150 3B       		.uleb128 0x3b
 1695 0151 05       		.uleb128 0x5
 1696 0152 39       		.uleb128 0x39
 1697 0153 0B       		.uleb128 0xb
 1698 0154 49       		.uleb128 0x49
 1699 0155 13       		.uleb128 0x13
 1700 0156 02       		.uleb128 0x2
 1701 0157 06       		.uleb128 0x6
 1702 0158 B742     		.uleb128 0x2137
 1703 015a 06       		.uleb128 0x6
 1704 015b 00       		.byte	0
 1705 015c 00       		.byte	0
 1706 015d 16       		.uleb128 0x16
 1707 015e 34       		.uleb128 0x34
 1708 015f 00       		.byte	0
 1709 0160 03       		.uleb128 0x3
 1710 0161 0E       		.uleb128 0xe
 1711 0162 3A       		.uleb128 0x3a
 1712 0163 0B       		.uleb128 0xb
 1713 0164 3B       		.uleb128 0x3b
 1714 0165 05       		.uleb128 0x5
 1715 0166 39       		.uleb128 0x39
 1716 0167 0B       		.uleb128 0xb
 1717 0168 49       		.uleb128 0x49
 1718 0169 13       		.uleb128 0x13
 1719 016a 02       		.uleb128 0x2
 1720 016b 06       		.uleb128 0x6
 1721 016c B742     		.uleb128 0x2137
 1722 016e 06       		.uleb128 0x6
 1723 016f 00       		.byte	0
ARM GAS  C:\Users\skey\AppData\Local\Temp\ccDz30Qf.s 			page 39


 1724 0170 00       		.byte	0
 1725 0171 17       		.uleb128 0x17
 1726 0172 2E       		.uleb128 0x2e
 1727 0173 01       		.byte	0x1
 1728 0174 3F       		.uleb128 0x3f
 1729 0175 0C       		.uleb128 0xc
 1730 0176 03       		.uleb128 0x3
 1731 0177 0E       		.uleb128 0xe
 1732 0178 3A       		.uleb128 0x3a
 1733 0179 0B       		.uleb128 0xb
 1734 017a 3B       		.uleb128 0x3b
 1735 017b 05       		.uleb128 0x5
 1736 017c 39       		.uleb128 0x39
 1737 017d 0B       		.uleb128 0xb
 1738 017e 27       		.uleb128 0x27
 1739 017f 0C       		.uleb128 0xc
 1740 0180 11       		.uleb128 0x11
 1741 0181 01       		.uleb128 0x1
 1742 0182 12       		.uleb128 0x12
 1743 0183 01       		.uleb128 0x1
 1744 0184 40       		.uleb128 0x40
 1745 0185 0A       		.uleb128 0xa
 1746 0186 9742     		.uleb128 0x2117
 1747 0188 0C       		.uleb128 0xc
 1748 0189 01       		.uleb128 0x1
 1749 018a 13       		.uleb128 0x13
 1750 018b 00       		.byte	0
 1751 018c 00       		.byte	0
 1752 018d 18       		.uleb128 0x18
 1753 018e 2E       		.uleb128 0x2e
 1754 018f 00       		.byte	0
 1755 0190 3F       		.uleb128 0x3f
 1756 0191 0C       		.uleb128 0xc
 1757 0192 03       		.uleb128 0x3
 1758 0193 0E       		.uleb128 0xe
 1759 0194 3A       		.uleb128 0x3a
 1760 0195 0B       		.uleb128 0xb
 1761 0196 3B       		.uleb128 0x3b
 1762 0197 0B       		.uleb128 0xb
 1763 0198 39       		.uleb128 0x39
 1764 0199 0B       		.uleb128 0xb
 1765 019a 27       		.uleb128 0x27
 1766 019b 0C       		.uleb128 0xc
 1767 019c 11       		.uleb128 0x11
 1768 019d 01       		.uleb128 0x1
 1769 019e 12       		.uleb128 0x12
 1770 019f 01       		.uleb128 0x1
 1771 01a0 40       		.uleb128 0x40
 1772 01a1 0A       		.uleb128 0xa
 1773 01a2 9742     		.uleb128 0x2117
 1774 01a4 0C       		.uleb128 0xc
 1775 01a5 00       		.byte	0
 1776 01a6 00       		.byte	0
 1777 01a7 19       		.uleb128 0x19
 1778 01a8 2E       		.uleb128 0x2e
 1779 01a9 00       		.byte	0
 1780 01aa 3F       		.uleb128 0x3f
ARM GAS  C:\Users\skey\AppData\Local\Temp\ccDz30Qf.s 			page 40


 1781 01ab 0C       		.uleb128 0xc
 1782 01ac 03       		.uleb128 0x3
 1783 01ad 0E       		.uleb128 0xe
 1784 01ae 3A       		.uleb128 0x3a
 1785 01af 0B       		.uleb128 0xb
 1786 01b0 3B       		.uleb128 0x3b
 1787 01b1 0B       		.uleb128 0xb
 1788 01b2 39       		.uleb128 0x39
 1789 01b3 0B       		.uleb128 0xb
 1790 01b4 27       		.uleb128 0x27
 1791 01b5 0C       		.uleb128 0xc
 1792 01b6 49       		.uleb128 0x49
 1793 01b7 13       		.uleb128 0x13
 1794 01b8 11       		.uleb128 0x11
 1795 01b9 01       		.uleb128 0x1
 1796 01ba 12       		.uleb128 0x12
 1797 01bb 01       		.uleb128 0x1
 1798 01bc 40       		.uleb128 0x40
 1799 01bd 0A       		.uleb128 0xa
 1800 01be 9742     		.uleb128 0x2117
 1801 01c0 0C       		.uleb128 0xc
 1802 01c1 00       		.byte	0
 1803 01c2 00       		.byte	0
 1804 01c3 1A       		.uleb128 0x1a
 1805 01c4 2E       		.uleb128 0x2e
 1806 01c5 01       		.byte	0x1
 1807 01c6 3F       		.uleb128 0x3f
 1808 01c7 0C       		.uleb128 0xc
 1809 01c8 03       		.uleb128 0x3
 1810 01c9 0E       		.uleb128 0xe
 1811 01ca 3A       		.uleb128 0x3a
 1812 01cb 0B       		.uleb128 0xb
 1813 01cc 3B       		.uleb128 0x3b
 1814 01cd 0B       		.uleb128 0xb
 1815 01ce 39       		.uleb128 0x39
 1816 01cf 0B       		.uleb128 0xb
 1817 01d0 27       		.uleb128 0x27
 1818 01d1 0C       		.uleb128 0xc
 1819 01d2 11       		.uleb128 0x11
 1820 01d3 01       		.uleb128 0x1
 1821 01d4 12       		.uleb128 0x12
 1822 01d5 01       		.uleb128 0x1
 1823 01d6 40       		.uleb128 0x40
 1824 01d7 0A       		.uleb128 0xa
 1825 01d8 9742     		.uleb128 0x2117
 1826 01da 0C       		.uleb128 0xc
 1827 01db 01       		.uleb128 0x1
 1828 01dc 13       		.uleb128 0x13
 1829 01dd 00       		.byte	0
 1830 01de 00       		.byte	0
 1831 01df 1B       		.uleb128 0x1b
 1832 01e0 05       		.uleb128 0x5
 1833 01e1 00       		.byte	0
 1834 01e2 03       		.uleb128 0x3
 1835 01e3 0E       		.uleb128 0xe
 1836 01e4 3A       		.uleb128 0x3a
 1837 01e5 0B       		.uleb128 0xb
ARM GAS  C:\Users\skey\AppData\Local\Temp\ccDz30Qf.s 			page 41


 1838 01e6 3B       		.uleb128 0x3b
 1839 01e7 0B       		.uleb128 0xb
 1840 01e8 39       		.uleb128 0x39
 1841 01e9 0B       		.uleb128 0xb
 1842 01ea 49       		.uleb128 0x49
 1843 01eb 13       		.uleb128 0x13
 1844 01ec 02       		.uleb128 0x2
 1845 01ed 0A       		.uleb128 0xa
 1846 01ee 00       		.byte	0
 1847 01ef 00       		.byte	0
 1848 01f0 1C       		.uleb128 0x1c
 1849 01f1 05       		.uleb128 0x5
 1850 01f2 00       		.byte	0
 1851 01f3 03       		.uleb128 0x3
 1852 01f4 0E       		.uleb128 0xe
 1853 01f5 3A       		.uleb128 0x3a
 1854 01f6 0B       		.uleb128 0xb
 1855 01f7 3B       		.uleb128 0x3b
 1856 01f8 0B       		.uleb128 0xb
 1857 01f9 39       		.uleb128 0x39
 1858 01fa 0B       		.uleb128 0xb
 1859 01fb 49       		.uleb128 0x49
 1860 01fc 13       		.uleb128 0x13
 1861 01fd 02       		.uleb128 0x2
 1862 01fe 06       		.uleb128 0x6
 1863 01ff B742     		.uleb128 0x2137
 1864 0201 06       		.uleb128 0x6
 1865 0202 00       		.byte	0
 1866 0203 00       		.byte	0
 1867 0204 1D       		.uleb128 0x1d
 1868 0205 34       		.uleb128 0x34
 1869 0206 00       		.byte	0
 1870 0207 03       		.uleb128 0x3
 1871 0208 0E       		.uleb128 0xe
 1872 0209 3A       		.uleb128 0x3a
 1873 020a 0B       		.uleb128 0xb
 1874 020b 3B       		.uleb128 0x3b
 1875 020c 0B       		.uleb128 0xb
 1876 020d 39       		.uleb128 0x39
 1877 020e 0B       		.uleb128 0xb
 1878 020f 49       		.uleb128 0x49
 1879 0210 13       		.uleb128 0x13
 1880 0211 02       		.uleb128 0x2
 1881 0212 06       		.uleb128 0x6
 1882 0213 B742     		.uleb128 0x2137
 1883 0215 06       		.uleb128 0x6
 1884 0216 00       		.byte	0
 1885 0217 00       		.byte	0
 1886 0218 1E       		.uleb128 0x1e
 1887 0219 0F       		.uleb128 0xf
 1888 021a 00       		.byte	0
 1889 021b 0B       		.uleb128 0xb
 1890 021c 0B       		.uleb128 0xb
 1891 021d 49       		.uleb128 0x49
 1892 021e 13       		.uleb128 0x13
 1893 021f 00       		.byte	0
 1894 0220 00       		.byte	0
ARM GAS  C:\Users\skey\AppData\Local\Temp\ccDz30Qf.s 			page 42


 1895 0221 1F       		.uleb128 0x1f
 1896 0222 2E       		.uleb128 0x2e
 1897 0223 01       		.byte	0x1
 1898 0224 3F       		.uleb128 0x3f
 1899 0225 0C       		.uleb128 0xc
 1900 0226 03       		.uleb128 0x3
 1901 0227 0E       		.uleb128 0xe
 1902 0228 3A       		.uleb128 0x3a
 1903 0229 0B       		.uleb128 0xb
 1904 022a 3B       		.uleb128 0x3b
 1905 022b 0B       		.uleb128 0xb
 1906 022c 39       		.uleb128 0x39
 1907 022d 0B       		.uleb128 0xb
 1908 022e 27       		.uleb128 0x27
 1909 022f 0C       		.uleb128 0xc
 1910 0230 11       		.uleb128 0x11
 1911 0231 01       		.uleb128 0x1
 1912 0232 12       		.uleb128 0x12
 1913 0233 01       		.uleb128 0x1
 1914 0234 40       		.uleb128 0x40
 1915 0235 06       		.uleb128 0x6
 1916 0236 9742     		.uleb128 0x2117
 1917 0238 0C       		.uleb128 0xc
 1918 0239 01       		.uleb128 0x1
 1919 023a 13       		.uleb128 0x13
 1920 023b 00       		.byte	0
 1921 023c 00       		.byte	0
 1922 023d 20       		.uleb128 0x20
 1923 023e 898201   		.uleb128 0x4109
 1924 0241 01       		.byte	0x1
 1925 0242 11       		.uleb128 0x11
 1926 0243 01       		.uleb128 0x1
 1927 0244 31       		.uleb128 0x31
 1928 0245 13       		.uleb128 0x13
 1929 0246 01       		.uleb128 0x1
 1930 0247 13       		.uleb128 0x13
 1931 0248 00       		.byte	0
 1932 0249 00       		.byte	0
 1933 024a 21       		.uleb128 0x21
 1934 024b 8A8201   		.uleb128 0x410a
 1935 024e 00       		.byte	0
 1936 024f 02       		.uleb128 0x2
 1937 0250 0A       		.uleb128 0xa
 1938 0251 9142     		.uleb128 0x2111
 1939 0253 0A       		.uleb128 0xa
 1940 0254 00       		.byte	0
 1941 0255 00       		.byte	0
 1942 0256 22       		.uleb128 0x22
 1943 0257 898201   		.uleb128 0x4109
 1944 025a 01       		.byte	0x1
 1945 025b 11       		.uleb128 0x11
 1946 025c 01       		.uleb128 0x1
 1947 025d 9542     		.uleb128 0x2115
 1948 025f 0C       		.uleb128 0xc
 1949 0260 31       		.uleb128 0x31
 1950 0261 13       		.uleb128 0x13
 1951 0262 00       		.byte	0
ARM GAS  C:\Users\skey\AppData\Local\Temp\ccDz30Qf.s 			page 43


 1952 0263 00       		.byte	0
 1953 0264 23       		.uleb128 0x23
 1954 0265 2E       		.uleb128 0x2e
 1955 0266 00       		.byte	0
 1956 0267 3F       		.uleb128 0x3f
 1957 0268 0C       		.uleb128 0xc
 1958 0269 3C       		.uleb128 0x3c
 1959 026a 0C       		.uleb128 0xc
 1960 026b 8740     		.uleb128 0x2007
 1961 026d 0E       		.uleb128 0xe
 1962 026e 03       		.uleb128 0x3
 1963 026f 0E       		.uleb128 0xe
 1964 0270 3A       		.uleb128 0x3a
 1965 0271 0B       		.uleb128 0xb
 1966 0272 3B       		.uleb128 0x3b
 1967 0273 05       		.uleb128 0x5
 1968 0274 39       		.uleb128 0x39
 1969 0275 0B       		.uleb128 0xb
 1970 0276 00       		.byte	0
 1971 0277 00       		.byte	0
 1972 0278 00       		.byte	0
 1973              		.section	.debug_loc,"",%progbits
 1974              	.Ldebug_loc0:
 1975              	.LLST12:
 1976 0000 F8000000 		.4byte	.LFB42-.Ltext0
 1977 0004 FE000000 		.4byte	.LCFI3-.Ltext0
 1978 0008 0200     		.2byte	0x2
 1979 000a 7D       		.byte	0x7d
 1980 000b 00       		.sleb128 0
 1981 000c FE000000 		.4byte	.LCFI3-.Ltext0
 1982 0010 18010000 		.4byte	.LFE42-.Ltext0
 1983 0014 0200     		.2byte	0x2
 1984 0016 7D       		.byte	0x7d
 1985 0017 08       		.sleb128 8
 1986 0018 00000000 		.4byte	0
 1987 001c 00000000 		.4byte	0
 1988              	.LVUS13:
 1989 0020 02       		.uleb128 .LVU118
 1990 0021 00       		.uleb128 .LVU124
 1991 0022 00       		.uleb128 .LVU124
 1992 0023 00       		.uleb128 .LVU128
 1993 0024 00       		.uleb128 .LVU128
 1994 0025 00       		.uleb128 0
 1995              	.LLST13:
 1996 0026 F8000000 		.4byte	.LVL23-.Ltext0
 1997 002a 00010000 		.4byte	.LVL24-.Ltext0
 1998 002e 0200     		.2byte	0x2
 1999 0030 30       		.byte	0x30
 2000 0031 9F       		.byte	0x9f
 2001 0032 00010000 		.4byte	.LVL24-.Ltext0
 2002 0036 0A010000 		.4byte	.LVL25-.Ltext0
 2003 003a 0500     		.2byte	0x5
 2004 003c 71       		.byte	0x71
 2005 003d 00       		.sleb128 0
 2006 003e 32       		.byte	0x32
 2007 003f 1A       		.byte	0x1a
 2008 0040 9F       		.byte	0x9f
ARM GAS  C:\Users\skey\AppData\Local\Temp\ccDz30Qf.s 			page 44


 2009 0041 0A010000 		.4byte	.LVL25-.Ltext0
 2010 0045 18010000 		.4byte	.LFE42-.Ltext0
 2011 0049 0100     		.2byte	0x1
 2012 004b 51       		.byte	0x51
 2013 004c 00000000 		.4byte	0
 2014 0050 00000000 		.4byte	0
 2015              	.LVUS9:
 2016 0054 00       		.uleb128 0
 2017 0055 00       		.uleb128 .LVU113
 2018 0056 00       		.uleb128 .LVU113
 2019 0057 00       		.uleb128 0
 2020              	.LLST9:
 2021 0058 E4000000 		.4byte	.LVL19-.Ltext0
 2022 005c EC000000 		.4byte	.LVL21-.Ltext0
 2023 0060 0100     		.2byte	0x1
 2024 0062 50       		.byte	0x50
 2025 0063 EC000000 		.4byte	.LVL21-.Ltext0
 2026 0067 F8000000 		.4byte	.LFE41-.Ltext0
 2027 006b 0400     		.2byte	0x4
 2028 006d F3       		.byte	0xf3
 2029 006e 01       		.uleb128 0x1
 2030 006f 50       		.byte	0x50
 2031 0070 9F       		.byte	0x9f
 2032 0071 00000000 		.4byte	0
 2033 0075 00000000 		.4byte	0
 2034              	.LVUS10:
 2035 0079 02       		.uleb128 .LVU106
 2036 007a 00       		.uleb128 .LVU114
 2037 007b 00       		.uleb128 .LVU114
 2038 007c 00       		.uleb128 0
 2039              	.LLST10:
 2040 007d E4000000 		.4byte	.LVL19-.Ltext0
 2041 0081 F2000000 		.4byte	.LVL22-.Ltext0
 2042 0085 0200     		.2byte	0x2
 2043 0087 30       		.byte	0x30
 2044 0088 9F       		.byte	0x9f
 2045 0089 F2000000 		.4byte	.LVL22-.Ltext0
 2046 008d F8000000 		.4byte	.LFE41-.Ltext0
 2047 0091 0100     		.2byte	0x1
 2048 0093 50       		.byte	0x50
 2049 0094 00000000 		.4byte	0
 2050 0098 00000000 		.4byte	0
 2051              	.LVUS11:
 2052 009c 03       		.uleb128 .LVU107
 2053 009d 00       		.uleb128 .LVU110
 2054 009e 00       		.uleb128 .LVU110
 2055 009f 00       		.uleb128 0
 2056              	.LLST11:
 2057 00a0 E4000000 		.4byte	.LVL19-.Ltext0
 2058 00a4 E8000000 		.4byte	.LVL20-.Ltext0
 2059 00a8 0200     		.2byte	0x2
 2060 00aa 30       		.byte	0x30
 2061 00ab 9F       		.byte	0x9f
 2062 00ac E8000000 		.4byte	.LVL20-.Ltext0
 2063 00b0 F8000000 		.4byte	.LFE41-.Ltext0
 2064 00b4 0500     		.2byte	0x5
 2065 00b6 72       		.byte	0x72
ARM GAS  C:\Users\skey\AppData\Local\Temp\ccDz30Qf.s 			page 45


 2066 00b7 00       		.sleb128 0
 2067 00b8 32       		.byte	0x32
 2068 00b9 1A       		.byte	0x1a
 2069 00ba 9F       		.byte	0x9f
 2070 00bb 00000000 		.4byte	0
 2071 00bf 00000000 		.4byte	0
 2072              	.LLST7:
 2073 00c3 C4000000 		.4byte	.LFB40-.Ltext0
 2074 00c7 CA000000 		.4byte	.LCFI2-.Ltext0
 2075 00cb 0200     		.2byte	0x2
 2076 00cd 7D       		.byte	0x7d
 2077 00ce 00       		.sleb128 0
 2078 00cf CA000000 		.4byte	.LCFI2-.Ltext0
 2079 00d3 E4000000 		.4byte	.LFE40-.Ltext0
 2080 00d7 0200     		.2byte	0x2
 2081 00d9 7D       		.byte	0x7d
 2082 00da 08       		.sleb128 8
 2083 00db 00000000 		.4byte	0
 2084 00df 00000000 		.4byte	0
 2085              	.LVUS8:
 2086 00e3 02       		.uleb128 .LVU91
 2087 00e4 00       		.uleb128 .LVU97
 2088 00e5 00       		.uleb128 .LVU97
 2089 00e6 00       		.uleb128 .LVU101
 2090 00e7 00       		.uleb128 .LVU101
 2091 00e8 00       		.uleb128 0
 2092              	.LLST8:
 2093 00e9 C4000000 		.4byte	.LVL16-.Ltext0
 2094 00ed CC000000 		.4byte	.LVL17-.Ltext0
 2095 00f1 0200     		.2byte	0x2
 2096 00f3 30       		.byte	0x30
 2097 00f4 9F       		.byte	0x9f
 2098 00f5 CC000000 		.4byte	.LVL17-.Ltext0
 2099 00f9 D6000000 		.4byte	.LVL18-.Ltext0
 2100 00fd 0500     		.2byte	0x5
 2101 00ff 71       		.byte	0x71
 2102 0100 00       		.sleb128 0
 2103 0101 32       		.byte	0x32
 2104 0102 1A       		.byte	0x1a
 2105 0103 9F       		.byte	0x9f
 2106 0104 D6000000 		.4byte	.LVL18-.Ltext0
 2107 0108 E4000000 		.4byte	.LFE40-.Ltext0
 2108 010c 0100     		.2byte	0x1
 2109 010e 51       		.byte	0x51
 2110 010f 00000000 		.4byte	0
 2111 0113 00000000 		.4byte	0
 2112              	.LVUS3:
 2113 0117 00       		.uleb128 0
 2114 0118 00       		.uleb128 .LVU79
 2115 0119 00       		.uleb128 .LVU79
 2116 011a 00       		.uleb128 0
 2117              	.LLST3:
 2118 011b A0000000 		.4byte	.LVL12-.Ltext0
 2119 011f AC000000 		.4byte	.LVL13-.Ltext0
 2120 0123 0100     		.2byte	0x1
 2121 0125 50       		.byte	0x50
 2122 0126 AC000000 		.4byte	.LVL13-.Ltext0
ARM GAS  C:\Users\skey\AppData\Local\Temp\ccDz30Qf.s 			page 46


 2123 012a C4000000 		.4byte	.LFE39-.Ltext0
 2124 012e 0100     		.2byte	0x1
 2125 0130 53       		.byte	0x53
 2126 0131 00000000 		.4byte	0
 2127 0135 00000000 		.4byte	0
 2128              	.LVUS4:
 2129 0139 02       		.uleb128 .LVU70
 2130 013a 02       		.uleb128 .LVU85
 2131 013b 02       		.uleb128 .LVU85
 2132 013c 00       		.uleb128 0
 2133              	.LLST4:
 2134 013d A0000000 		.4byte	.LVL12-.Ltext0
 2135 0141 B2000000 		.4byte	.LVL14-.Ltext0
 2136 0145 0200     		.2byte	0x2
 2137 0147 30       		.byte	0x30
 2138 0148 9F       		.byte	0x9f
 2139 0149 B2000000 		.4byte	.LVL14-.Ltext0
 2140 014d C4000000 		.4byte	.LFE39-.Ltext0
 2141 0151 0800     		.2byte	0x8
 2142 0153 72       		.byte	0x72
 2143 0154 00       		.sleb128 0
 2144 0155 73       		.byte	0x73
 2145 0156 00       		.sleb128 0
 2146 0157 1A       		.byte	0x1a
 2147 0158 30       		.byte	0x30
 2148 0159 2E       		.byte	0x2e
 2149 015a 9F       		.byte	0x9f
 2150 015b 00000000 		.4byte	0
 2151 015f 00000000 		.4byte	0
 2152              	.LVUS5:
 2153 0163 03       		.uleb128 .LVU71
 2154 0164 06       		.uleb128 .LVU74
 2155 0165 06       		.uleb128 .LVU74
 2156 0166 00       		.uleb128 .LVU88
 2157 0167 00       		.uleb128 .LVU88
 2158 0168 00       		.uleb128 0
 2159              	.LLST5:
 2160 0169 A0000000 		.4byte	.LVL12-.Ltext0
 2161 016d A0000000 		.4byte	.LVL12-.Ltext0
 2162 0171 0200     		.2byte	0x2
 2163 0173 30       		.byte	0x30
 2164 0174 9F       		.byte	0x9f
 2165 0175 A0000000 		.4byte	.LVL12-.Ltext0
 2166 0179 B8000000 		.4byte	.LVL15-.Ltext0
 2167 017d 0500     		.2byte	0x5
 2168 017f 70       		.byte	0x70
 2169 0180 00       		.sleb128 0
 2170 0181 4C       		.byte	0x4c
 2171 0182 25       		.byte	0x25
 2172 0183 9F       		.byte	0x9f
 2173 0184 B8000000 		.4byte	.LVL15-.Ltext0
 2174 0188 C4000000 		.4byte	.LFE39-.Ltext0
 2175 018c 0600     		.2byte	0x6
 2176 018e F3       		.byte	0xf3
 2177 018f 01       		.uleb128 0x1
 2178 0190 50       		.byte	0x50
 2179 0191 4C       		.byte	0x4c
ARM GAS  C:\Users\skey\AppData\Local\Temp\ccDz30Qf.s 			page 47


 2180 0192 25       		.byte	0x25
 2181 0193 9F       		.byte	0x9f
 2182 0194 00000000 		.4byte	0
 2183 0198 00000000 		.4byte	0
 2184              	.LVUS6:
 2185 019c 03       		.uleb128 .LVU71
 2186 019d 05       		.uleb128 .LVU73
 2187 019e 05       		.uleb128 .LVU73
 2188 019f 01       		.uleb128 .LVU84
 2189              	.LLST6:
 2190 01a0 A0000000 		.4byte	.LVL12-.Ltext0
 2191 01a4 A0000000 		.4byte	.LVL12-.Ltext0
 2192 01a8 0200     		.2byte	0x2
 2193 01aa 30       		.byte	0x30
 2194 01ab 9F       		.byte	0x9f
 2195 01ac A0000000 		.4byte	.LVL12-.Ltext0
 2196 01b0 B2000000 		.4byte	.LVL14-.Ltext0
 2197 01b4 0600     		.2byte	0x6
 2198 01b6 0C       		.byte	0xc
 2199 01b7 00780040 		.4byte	0x40007800
 2200 01bb 9F       		.byte	0x9f
 2201 01bc 00000000 		.4byte	0
 2202 01c0 00000000 		.4byte	0
 2203              	.LVUS1:
 2204 01c4 00       		.uleb128 0
 2205 01c5 00       		.uleb128 .LVU17
 2206 01c6 00       		.uleb128 .LVU17
 2207 01c7 00       		.uleb128 0
 2208              	.LLST1:
 2209 01c8 1A000000 		.4byte	.LVL2-.Ltext0
 2210 01cc 22000000 		.4byte	.LVL4-.Ltext0
 2211 01d0 0100     		.2byte	0x1
 2212 01d2 50       		.byte	0x50
 2213 01d3 22000000 		.4byte	.LVL4-.Ltext0
 2214 01d7 34000000 		.4byte	.LFE30-.Ltext0
 2215 01db 0400     		.2byte	0x4
 2216 01dd F3       		.byte	0xf3
 2217 01de 01       		.uleb128 0x1
 2218 01df 50       		.byte	0x50
 2219 01e0 9F       		.byte	0x9f
 2220 01e1 00000000 		.4byte	0
 2221 01e5 00000000 		.4byte	0
 2222              	.LVUS2:
 2223 01e9 02       		.uleb128 .LVU9
 2224 01ea 00       		.uleb128 .LVU15
 2225 01eb 00       		.uleb128 .LVU15
 2226 01ec 01       		.uleb128 .LVU19
 2227              	.LLST2:
 2228 01ed 1A000000 		.4byte	.LVL2-.Ltext0
 2229 01f1 20000000 		.4byte	.LVL3-.Ltext0
 2230 01f5 0200     		.2byte	0x2
 2231 01f7 30       		.byte	0x30
 2232 01f8 9F       		.byte	0x9f
 2233 01f9 20000000 		.4byte	.LVL3-.Ltext0
 2234 01fd 26000000 		.4byte	.LVL5-.Ltext0
 2235 0201 0100     		.2byte	0x1
 2236 0203 53       		.byte	0x53
ARM GAS  C:\Users\skey\AppData\Local\Temp\ccDz30Qf.s 			page 48


 2237 0204 00000000 		.4byte	0
 2238 0208 00000000 		.4byte	0
 2239              	.LLST0:
 2240 020c 00000000 		.4byte	.LFB29-.Ltext0
 2241 0210 02000000 		.4byte	.LCFI0-.Ltext0
 2242 0214 0200     		.2byte	0x2
 2243 0216 7D       		.byte	0x7d
 2244 0217 00       		.sleb128 0
 2245 0218 02000000 		.4byte	.LCFI0-.Ltext0
 2246 021c 10000000 		.4byte	.LCFI1-.Ltext0
 2247 0220 0200     		.2byte	0x2
 2248 0222 7D       		.byte	0x7d
 2249 0223 08       		.sleb128 8
 2250 0224 10000000 		.4byte	.LCFI1-.Ltext0
 2251 0228 1A000000 		.4byte	.LFE29-.Ltext0
 2252 022c 0200     		.2byte	0x2
 2253 022e 7D       		.byte	0x7d
 2254 022f 00       		.sleb128 0
 2255 0230 00000000 		.4byte	0
 2256 0234 00000000 		.4byte	0
 2257              		.section	.debug_aranges,"",%progbits
 2258 0000 1C000000 		.4byte	0x1c
 2259 0004 0200     		.2byte	0x2
 2260 0006 00000000 		.4byte	.Ldebug_info0
 2261 000a 04       		.byte	0x4
 2262 000b 00       		.byte	0
 2263 000c 0000     		.2byte	0
 2264 000e 0000     		.2byte	0
 2265 0010 00000000 		.4byte	.Ltext0
 2266 0014 18010000 		.4byte	.Letext0-.Ltext0
 2267 0018 00000000 		.4byte	0
 2268 001c 00000000 		.4byte	0
 2269              		.section	.debug_line,"",%progbits
 2270              	.Ldebug_line0:
 2271 0000 05040000 		.section	.debug_str,"MS",%progbits,1
 2271      0300ED01 
 2271      00000201 
 2271      FB0E0D00 
 2271      01010101 
 2272              	.LASF47:
 2273 0000 4345435F 		.ascii	"CEC_ITConfig\000"
 2273      4954436F 
 2273      6E666967 
 2273      00
 2274              	.LASF32:
 2275 000d 4345435F 		.ascii	"CEC_ClearFlag\000"
 2275      436C6561 
 2275      72466C61 
 2275      6700
 2276              	.LASF31:
 2277 001b 4345435F 		.ascii	"CEC_ClearITPendingBit\000"
 2277      436C6561 
 2277      72495450 
 2277      656E6469 
 2277      6E674269 
 2278              	.LASF55:
 2279 0031 443A5C53 		.ascii	"D:\\STM32_Freertos_GCC_Makefile_Win\000"
ARM GAS  C:\Users\skey\AppData\Local\Temp\ccDz30Qf.s 			page 49


 2279      544D3332 
 2279      5F467265 
 2279      6572746F 
 2279      735F4743 
 2280              	.LASF53:
 2281 0054 474E5520 		.ascii	"GNU C17 9.2.1 20191025 (release) [ARM/arm-9-branch "
 2281      43313720 
 2281      392E322E 
 2281      31203230 
 2281      31393130 
 2282 0087 72657669 		.ascii	"revision 277599] -mcpu=cortex-m3 -mthumb -mfloat-ab"
 2282      73696F6E 
 2282      20323737 
 2282      3539395D 
 2282      202D6D63 
 2283 00ba 693D736F 		.ascii	"i=soft -march=armv7-m -g -gdwarf-2 -Os -fomit-frame"
 2283      6674202D 
 2283      6D617263 
 2283      683D6172 
 2283      6D76372D 
 2284 00ed 2D706F69 		.ascii	"-pointer\000"
 2284      6E746572 
 2284      00
 2285              	.LASF7:
 2286 00f6 5F5F7569 		.ascii	"__uint32_t\000"
 2286      6E743332 
 2286      5F7400
 2287              	.LASF50:
 2288 0101 4345435F 		.ascii	"CEC_InitStruct\000"
 2288      496E6974 
 2288      53747275 
 2288      637400
 2289              	.LASF4:
 2290 0110 5F5F7569 		.ascii	"__uint16_t\000"
 2290      6E743136 
 2290      5F7400
 2291              	.LASF2:
 2292 011b 73686F72 		.ascii	"short int\000"
 2292      7420696E 
 2292      7400
 2293              	.LASF23:
 2294 0125 43464752 		.ascii	"CFGR\000"
 2294      00
 2295              	.LASF21:
 2296 012a 454E4142 		.ascii	"ENABLE\000"
 2296      4C4500
 2297              	.LASF12:
 2298 0131 75696E74 		.ascii	"uint8_t\000"
 2298      385F7400 
 2299              	.LASF48:
 2300 0139 4345435F 		.ascii	"CEC_Cmd\000"
 2300      436D6400 
 2301              	.LASF40:
 2302 0141 4E657753 		.ascii	"NewState\000"
 2302      74617465 
 2302      00
 2303              	.LASF20:
ARM GAS  C:\Users\skey\AppData\Local\Temp\ccDz30Qf.s 			page 50


 2304 014a 44495341 		.ascii	"DISABLE\000"
 2304      424C4500 
 2305              	.LASF30:
 2306 0152 656E6162 		.ascii	"enablestatus\000"
 2306      6C657374 
 2306      61747573 
 2306      00
 2307              	.LASF43:
 2308 015f 4345435F 		.ascii	"CEC_SetPrescaler\000"
 2308      53657450 
 2308      72657363 
 2308      616C6572 
 2308      00
 2309              	.LASF9:
 2310 0170 6C6F6E67 		.ascii	"long long int\000"
 2310      206C6F6E 
 2310      6720696E 
 2310      7400
 2311              	.LASF52:
 2312 017e 4345435F 		.ascii	"CEC_DeInit\000"
 2312      4465496E 
 2312      697400
 2313              	.LASF58:
 2314 0189 5243435F 		.ascii	"RCC_APB1PeriphResetCmd\000"
 2314      41504231 
 2314      50657269 
 2314      70685265 
 2314      73657443 
 2315              	.LASF22:
 2316 01a0 46756E63 		.ascii	"FunctionalState\000"
 2316      74696F6E 
 2316      616C5374 
 2316      61746500 
 2317              	.LASF19:
 2318 01b0 49545374 		.ascii	"ITStatus\000"
 2318      61747573 
 2318      00
 2319              	.LASF6:
 2320 01b9 6C6F6E67 		.ascii	"long int\000"
 2320      20696E74 
 2320      00
 2321              	.LASF37:
 2322 01c2 63656372 		.ascii	"cecreg\000"
 2322      656700
 2323              	.LASF3:
 2324 01c9 5F5F7569 		.ascii	"__uint8_t\000"
 2324      6E74385F 
 2324      7400
 2325              	.LASF42:
 2326 01d3 44617461 		.ascii	"Data\000"
 2326      00
 2327              	.LASF51:
 2328 01d8 746D7072 		.ascii	"tmpreg\000"
 2328      656700
 2329              	.LASF29:
 2330 01df 62697473 		.ascii	"bitstatus\000"
 2330      74617475 
ARM GAS  C:\Users\skey\AppData\Local\Temp\ccDz30Qf.s 			page 51


 2330      7300
 2331              	.LASF27:
 2332 01e9 4345435F 		.ascii	"CEC_BitPeriodMode\000"
 2332      42697450 
 2332      6572696F 
 2332      644D6F64 
 2332      6500
 2333              	.LASF36:
 2334 01fb 4345435F 		.ascii	"CEC_GetFlagStatus\000"
 2334      47657446 
 2334      6C616753 
 2334      74617475 
 2334      7300
 2335              	.LASF1:
 2336 020d 756E7369 		.ascii	"unsigned char\000"
 2336      676E6564 
 2336      20636861 
 2336      7200
 2337              	.LASF0:
 2338 021b 7369676E 		.ascii	"signed char\000"
 2338      65642063 
 2338      68617200 
 2339              	.LASF38:
 2340 0227 63656362 		.ascii	"cecbase\000"
 2340      61736500 
 2341              	.LASF10:
 2342 022f 6C6F6E67 		.ascii	"long long unsigned int\000"
 2342      206C6F6E 
 2342      6720756E 
 2342      7369676E 
 2342      65642069 
 2343              	.LASF14:
 2344 0246 75696E74 		.ascii	"uint32_t\000"
 2344      33325F74 
 2344      00
 2345              	.LASF11:
 2346 024f 756E7369 		.ascii	"unsigned int\000"
 2346      676E6564 
 2346      20696E74 
 2346      00
 2347              	.LASF26:
 2348 025c 4345435F 		.ascii	"CEC_BitTimingMode\000"
 2348      42697454 
 2348      696D696E 
 2348      674D6F64 
 2348      6500
 2349              	.LASF5:
 2350 026e 73686F72 		.ascii	"short unsigned int\000"
 2350      7420756E 
 2350      7369676E 
 2350      65642069 
 2350      6E7400
 2351              	.LASF25:
 2352 0281 4345435F 		.ascii	"CEC_TypeDef\000"
 2352      54797065 
 2352      44656600 
 2353              	.LASF24:
ARM GAS  C:\Users\skey\AppData\Local\Temp\ccDz30Qf.s 			page 52


 2354 028d 50524553 		.ascii	"PRES\000"
 2354      00
 2355              	.LASF49:
 2356 0292 4345435F 		.ascii	"CEC_Init\000"
 2356      496E6974 
 2356      00
 2357              	.LASF16:
 2358 029b 53797374 		.ascii	"SystemCoreClock\000"
 2358      656D436F 
 2358      7265436C 
 2358      6F636B00 
 2359              	.LASF45:
 2360 02ab 4345435F 		.ascii	"CEC_OwnAddressConfig\000"
 2360      4F776E41 
 2360      64647265 
 2360      7373436F 
 2360      6E666967 
 2361              	.LASF13:
 2362 02c0 75696E74 		.ascii	"uint16_t\000"
 2362      31365F74 
 2362      00
 2363              	.LASF54:
 2364 02c9 2E5C7374 		.ascii	".\\stlib\\STM32F10x_StdPeriph_Driver\\src\\stm32f10"
 2364      6C69625C 
 2364      53544D33 
 2364      32463130 
 2364      785F5374 
 2365 02f8 785F6365 		.ascii	"x_cec.c\000"
 2365      632E6300 
 2366              	.LASF8:
 2367 0300 6C6F6E67 		.ascii	"long unsigned int\000"
 2367      20756E73 
 2367      69676E65 
 2367      6420696E 
 2367      7400
 2368              	.LASF33:
 2369 0312 4345435F 		.ascii	"CEC_IT\000"
 2369      495400
 2370              	.LASF56:
 2371 0319 4345435F 		.ascii	"CEC_StartOfMessage\000"
 2371      53746172 
 2371      744F664D 
 2371      65737361 
 2371      676500
 2372              	.LASF17:
 2373 032c 52455345 		.ascii	"RESET\000"
 2373      5400
 2374              	.LASF46:
 2375 0332 4345435F 		.ascii	"CEC_OwnAddress\000"
 2375      4F776E41 
 2375      64647265 
 2375      737300
 2376              	.LASF41:
 2377 0341 4345435F 		.ascii	"CEC_SendDataByte\000"
 2377      53656E64 
 2377      44617461 
 2377      42797465 
ARM GAS  C:\Users\skey\AppData\Local\Temp\ccDz30Qf.s 			page 53


 2377      00
 2378              	.LASF57:
 2379 0352 4345435F 		.ascii	"CEC_ReceiveDataByte\000"
 2379      52656365 
 2379      69766544 
 2379      61746142 
 2379      79746500 
 2380              	.LASF28:
 2381 0366 4345435F 		.ascii	"CEC_InitTypeDef\000"
 2381      496E6974 
 2381      54797065 
 2381      44656600 
 2382              	.LASF44:
 2383 0376 4345435F 		.ascii	"CEC_Prescaler\000"
 2383      50726573 
 2383      63616C65 
 2383      7200
 2384              	.LASF15:
 2385 0384 49544D5F 		.ascii	"ITM_RxBuffer\000"
 2385      52784275 
 2385      66666572 
 2385      00
 2386              	.LASF39:
 2387 0391 4345435F 		.ascii	"CEC_EndOfMessageCmd\000"
 2387      456E644F 
 2387      664D6573 
 2387      73616765 
 2387      436D6400 
 2388              	.LASF18:
 2389 03a5 466C6167 		.ascii	"FlagStatus\000"
 2389      53746174 
 2389      757300
 2390              	.LASF34:
 2391 03b0 4345435F 		.ascii	"CEC_FLAG\000"
 2391      464C4147 
 2391      00
 2392              	.LASF35:
 2393 03b9 4345435F 		.ascii	"CEC_GetITStatus\000"
 2393      47657449 
 2393      54537461 
 2393      74757300 
 2394              		.ident	"GCC: (GNU Tools for Arm Embedded Processors 9-2019-q4-major) 9.2.1 20191025 (release) [ARM
ARM GAS  C:\Users\skey\AppData\Local\Temp\ccDz30Qf.s 			page 54


DEFINED SYMBOLS
                            *ABS*:00000000 stm32f10x_cec.c
C:\Users\skey\AppData\Local\Temp\ccDz30Qf.s:76     .text:00000000 $t
C:\Users\skey\AppData\Local\Temp\ccDz30Qf.s:84     .text:00000000 CEC_DeInit
C:\Users\skey\AppData\Local\Temp\ccDz30Qf.s:129    .text:0000001a CEC_Init
C:\Users\skey\AppData\Local\Temp\ccDz30Qf.s:178    .text:00000030 $d
C:\Users\skey\AppData\Local\Temp\ccDz30Qf.s:182    .text:00000034 $t
C:\Users\skey\AppData\Local\Temp\ccDz30Qf.s:189    .text:00000034 CEC_Cmd
C:\Users\skey\AppData\Local\Temp\ccDz30Qf.s:227    .text:00000044 $d
C:\Users\skey\AppData\Local\Temp\ccDz30Qf.s:232    .text:0000004c $t
C:\Users\skey\AppData\Local\Temp\ccDz30Qf.s:239    .text:0000004c CEC_ITConfig
C:\Users\skey\AppData\Local\Temp\ccDz30Qf.s:259    .text:00000054 $d
C:\Users\skey\AppData\Local\Temp\ccDz30Qf.s:263    .text:00000058 $t
C:\Users\skey\AppData\Local\Temp\ccDz30Qf.s:270    .text:00000058 CEC_OwnAddressConfig
C:\Users\skey\AppData\Local\Temp\ccDz30Qf.s:290    .text:00000060 $d
C:\Users\skey\AppData\Local\Temp\ccDz30Qf.s:294    .text:00000064 $t
C:\Users\skey\AppData\Local\Temp\ccDz30Qf.s:301    .text:00000064 CEC_SetPrescaler
C:\Users\skey\AppData\Local\Temp\ccDz30Qf.s:321    .text:0000006c $d
C:\Users\skey\AppData\Local\Temp\ccDz30Qf.s:325    .text:00000070 $t
C:\Users\skey\AppData\Local\Temp\ccDz30Qf.s:332    .text:00000070 CEC_SendDataByte
C:\Users\skey\AppData\Local\Temp\ccDz30Qf.s:351    .text:00000078 $d
C:\Users\skey\AppData\Local\Temp\ccDz30Qf.s:355    .text:0000007c $t
C:\Users\skey\AppData\Local\Temp\ccDz30Qf.s:362    .text:0000007c CEC_ReceiveDataByte
C:\Users\skey\AppData\Local\Temp\ccDz30Qf.s:381    .text:00000084 $d
C:\Users\skey\AppData\Local\Temp\ccDz30Qf.s:385    .text:00000088 $t
C:\Users\skey\AppData\Local\Temp\ccDz30Qf.s:392    .text:00000088 CEC_StartOfMessage
C:\Users\skey\AppData\Local\Temp\ccDz30Qf.s:411    .text:00000090 $d
C:\Users\skey\AppData\Local\Temp\ccDz30Qf.s:415    .text:00000094 $t
C:\Users\skey\AppData\Local\Temp\ccDz30Qf.s:422    .text:00000094 CEC_EndOfMessageCmd
C:\Users\skey\AppData\Local\Temp\ccDz30Qf.s:442    .text:0000009c $d
C:\Users\skey\AppData\Local\Temp\ccDz30Qf.s:446    .text:000000a0 $t
C:\Users\skey\AppData\Local\Temp\ccDz30Qf.s:453    .text:000000a0 CEC_GetFlagStatus
C:\Users\skey\AppData\Local\Temp\ccDz30Qf.s:508    .text:000000bc $d
C:\Users\skey\AppData\Local\Temp\ccDz30Qf.s:513    .text:000000c4 $t
C:\Users\skey\AppData\Local\Temp\ccDz30Qf.s:520    .text:000000c4 CEC_ClearFlag
C:\Users\skey\AppData\Local\Temp\ccDz30Qf.s:571    .text:000000e0 $d
C:\Users\skey\AppData\Local\Temp\ccDz30Qf.s:575    .text:000000e4 $t
C:\Users\skey\AppData\Local\Temp\ccDz30Qf.s:582    .text:000000e4 CEC_GetITStatus
C:\Users\skey\AppData\Local\Temp\ccDz30Qf.s:619    .text:000000f4 $d
C:\Users\skey\AppData\Local\Temp\ccDz30Qf.s:623    .text:000000f8 $t
C:\Users\skey\AppData\Local\Temp\ccDz30Qf.s:630    .text:000000f8 CEC_ClearITPendingBit
C:\Users\skey\AppData\Local\Temp\ccDz30Qf.s:681    .text:00000114 $d

UNDEFINED SYMBOLS
RCC_APB1PeriphResetCmd
