ARM GAS  C:\Users\skey\AppData\Local\Temp\ccLMmMAg.s 			page 1


   1              		.cpu cortex-m3
   2              		.eabi_attribute 20, 1	@ Tag_ABI_FP_denormal
   3              		.eabi_attribute 21, 1	@ Tag_ABI_FP_exceptions
   4              		.eabi_attribute 23, 3	@ Tag_ABI_FP_number_model
   5              		.eabi_attribute 24, 1	@ Tag_ABI_align8_needed
   6              		.eabi_attribute 25, 1	@ Tag_ABI_align8_preserved
   7              		.eabi_attribute 26, 1	@ Tag_ABI_enum_size
   8              		.eabi_attribute 30, 4	@ Tag_ABI_optimization_goals
   9              		.eabi_attribute 34, 1	@ Tag_CPU_unaligned_access
  10              		.eabi_attribute 18, 4	@ Tag_ABI_PCS_wchar_t
  11              		.file	"stm32f10x_gpio.c"
  12              	@ GNU C17 (GNU Tools for Arm Embedded Processors 9-2019-q4-major) version 9.2.1 20191025 (release) 
  13              	@	compiled by GNU C version 5.3.1 20160211, GMP version 6.1.0, MPFR version 3.1.4, MPC version 1.0.
  14              	
  15              	@ GGC heuristics: --param ggc-min-expand=100 --param ggc-min-heapsize=131072
  16              	@ options passed:  -I . -I .\usr_inc -I .\task_inc
  17              	@ -I .\stlib\CMSIS\CM3\CoreSupport
  18              	@ -I .\stlib\CMSIS\CM3\DeviceSupport\ST\STM32F10x
  19              	@ -I .\stlib\STM32F10x_StdPeriph_Driver\inc
  20              	@ -I .\stlib\STM32F10x_StdPeriph_Driver -I .\freertos\include
  21              	@ -I .\freertos\portable\GCC\ARM_CM3 -imultilib thumb/v7-m/nofp
  22              	@ -iprefix c:\program files (x86)\gnu tools arm embedded\9 2019-q4-major\bin\../lib/gcc/arm-none-ea
  23              	@ -isysroot c:\program files (x86)\gnu tools arm embedded\9 2019-q4-major\bin\../arm-none-eabi
  24              	@ -D__USES_INITFINI__ -D STM32F10X_HD -D USE_STDPERIPH_DRIVER
  25              	@ -D HSE_VALUE=8000000 -D RUN_FROM_FLASH=1
  26              	@ .\stlib\STM32F10x_StdPeriph_Driver\src\stm32f10x_gpio.c -mcpu=cortex-m3
  27              	@ -mthumb -mfloat-abi=soft -march=armv7-m
  28              	@ -auxbase-strip .\stlib\STM32F10x_StdPeriph_Driver\src\stm32f10x_gpio.o -g
  29              	@ -gdwarf-2 -Os -Wall -fomit-frame-pointer -fverbose-asm
  30              	@ options enabled:  -faggressive-loop-optimizations -fassume-phsa
  31              	@ -fauto-inc-dec -fbranch-count-reg -fcaller-saves -fcode-hoisting
  32              	@ -fcombine-stack-adjustments -fcommon -fcompare-elim -fcprop-registers
  33              	@ -fcrossjumping -fcse-follow-jumps -fdefer-pop
  34              	@ -fdelete-null-pointer-checks -fdevirtualize -fdevirtualize-speculatively
  35              	@ -fdwarf2-cfi-asm -fearly-inlining -feliminate-unused-debug-types
  36              	@ -fexpensive-optimizations -fforward-propagate -ffp-int-builtin-inexact
  37              	@ -ffunction-cse -fgcse -fgcse-lm -fgnu-runtime -fgnu-unique
  38              	@ -fguess-branch-probability -fhoist-adjacent-loads -fident -fif-conversion
  39              	@ -fif-conversion2 -findirect-inlining -finline -finline-atomics
  40              	@ -finline-functions -finline-functions-called-once
  41              	@ -finline-small-functions -fipa-bit-cp -fipa-cp -fipa-icf
  42              	@ -fipa-icf-functions -fipa-icf-variables -fipa-profile -fipa-pure-const
  43              	@ -fipa-ra -fipa-reference -fipa-reference-addressable -fipa-sra
  44              	@ -fipa-stack-alignment -fipa-vrp -fira-hoist-pressure
  45              	@ -fira-share-save-slots -fira-share-spill-slots
  46              	@ -fisolate-erroneous-paths-dereference -fivopts -fkeep-static-consts
  47              	@ -fleading-underscore -flifetime-dse -flra-remat -flto-odr-type-merging
  48              	@ -fmath-errno -fmerge-constants -fmerge-debug-strings
  49              	@ -fmove-loop-invariants -fomit-frame-pointer -foptimize-sibling-calls
  50              	@ -fpartial-inlining -fpeephole -fpeephole2 -fplt -fprefetch-loop-arrays
  51              	@ -freg-struct-return -freorder-blocks -freorder-functions
  52              	@ -frerun-cse-after-loop -fsched-critical-path-heuristic
  53              	@ -fsched-dep-count-heuristic -fsched-group-heuristic -fsched-interblock
  54              	@ -fsched-last-insn-heuristic -fsched-pressure -fsched-rank-heuristic
  55              	@ -fsched-spec -fsched-spec-insn-heuristic -fsched-stalled-insns-dep
  56              	@ -fschedule-insns2 -fsection-anchors -fsemantic-interposition
  57              	@ -fshow-column -fshrink-wrap-separate -fsigned-zeros
ARM GAS  C:\Users\skey\AppData\Local\Temp\ccLMmMAg.s 			page 2


  58              	@ -fsplit-ivs-in-unroller -fsplit-wide-types -fssa-backprop -fssa-phiopt
  59              	@ -fstdarg-opt -fstore-merging -fstrict-aliasing
  60              	@ -fstrict-volatile-bitfields -fsync-libcalls -fthread-jumps
  61              	@ -ftoplevel-reorder -ftrapping-math -ftree-bit-ccp -ftree-builtin-call-dce
  62              	@ -ftree-ccp -ftree-ch -ftree-coalesce-vars -ftree-copy-prop -ftree-cselim
  63              	@ -ftree-dce -ftree-dominator-opts -ftree-dse -ftree-forwprop -ftree-fre
  64              	@ -ftree-loop-if-convert -ftree-loop-im -ftree-loop-ivcanon
  65              	@ -ftree-loop-optimize -ftree-parallelize-loops= -ftree-phiprop -ftree-pre
  66              	@ -ftree-pta -ftree-reassoc -ftree-scev-cprop -ftree-sink -ftree-slsr
  67              	@ -ftree-sra -ftree-switch-conversion -ftree-tail-merge -ftree-ter
  68              	@ -ftree-vrp -funit-at-a-time -fvar-tracking -fvar-tracking-assignments
  69              	@ -fverbose-asm -fzero-initialized-in-bss -masm-syntax-unified -mbe32
  70              	@ -mfix-cortex-m3-ldrd -mlittle-endian -mpic-data-is-text-relative
  71              	@ -msched-prolog -mthumb -munaligned-access -mvectorize-with-neon-quad
  72              	
  73              		.text
  74              	.Ltext0:
  75              		.cfi_sections	.debug_frame
  76              		.align	1
  77              		.global	GPIO_DeInit
  78              		.arch armv7-m
  79              		.syntax unified
  80              		.thumb
  81              		.thumb_func
  82              		.fpu softvfp
  83              		.type	GPIO_DeInit, %function
  84              	GPIO_DeInit:
  85              	.LVL0:
  86              	.LFB29:
  87              		.file 1 ".\\stlib\\STM32F10x_StdPeriph_Driver\\src\\stm32f10x_gpio.c"
   1:.\stlib\STM32F10x_StdPeriph_Driver\src/stm32f10x_gpio.c **** /**
   2:.\stlib\STM32F10x_StdPeriph_Driver\src/stm32f10x_gpio.c ****   ******************************************************************************
   3:.\stlib\STM32F10x_StdPeriph_Driver\src/stm32f10x_gpio.c ****   * @file    stm32f10x_gpio.c
   4:.\stlib\STM32F10x_StdPeriph_Driver\src/stm32f10x_gpio.c ****   * @author  MCD Application Team
   5:.\stlib\STM32F10x_StdPeriph_Driver\src/stm32f10x_gpio.c ****   * @version V3.5.0
   6:.\stlib\STM32F10x_StdPeriph_Driver\src/stm32f10x_gpio.c ****   * @date    11-March-2011
   7:.\stlib\STM32F10x_StdPeriph_Driver\src/stm32f10x_gpio.c ****   * @brief   This file provides all the GPIO firmware functions.
   8:.\stlib\STM32F10x_StdPeriph_Driver\src/stm32f10x_gpio.c ****   ******************************************************************************
   9:.\stlib\STM32F10x_StdPeriph_Driver\src/stm32f10x_gpio.c ****   * @attention
  10:.\stlib\STM32F10x_StdPeriph_Driver\src/stm32f10x_gpio.c ****   *
  11:.\stlib\STM32F10x_StdPeriph_Driver\src/stm32f10x_gpio.c ****   * THE PRESENT FIRMWARE WHICH IS FOR GUIDANCE ONLY AIMS AT PROVIDING CUSTOMERS
  12:.\stlib\STM32F10x_StdPeriph_Driver\src/stm32f10x_gpio.c ****   * WITH CODING INFORMATION REGARDING THEIR PRODUCTS IN ORDER FOR THEM TO SAVE
  13:.\stlib\STM32F10x_StdPeriph_Driver\src/stm32f10x_gpio.c ****   * TIME. AS A RESULT, STMICROELECTRONICS SHALL NOT BE HELD LIABLE FOR ANY
  14:.\stlib\STM32F10x_StdPeriph_Driver\src/stm32f10x_gpio.c ****   * DIRECT, INDIRECT OR CONSEQUENTIAL DAMAGES WITH RESPECT TO ANY CLAIMS ARISING
  15:.\stlib\STM32F10x_StdPeriph_Driver\src/stm32f10x_gpio.c ****   * FROM THE CONTENT OF SUCH FIRMWARE AND/OR THE USE MADE BY CUSTOMERS OF THE
  16:.\stlib\STM32F10x_StdPeriph_Driver\src/stm32f10x_gpio.c ****   * CODING INFORMATION CONTAINED HEREIN IN CONNECTION WITH THEIR PRODUCTS.
  17:.\stlib\STM32F10x_StdPeriph_Driver\src/stm32f10x_gpio.c ****   *
  18:.\stlib\STM32F10x_StdPeriph_Driver\src/stm32f10x_gpio.c ****   * <h2><center>&copy; COPYRIGHT 2011 STMicroelectronics</center></h2>
  19:.\stlib\STM32F10x_StdPeriph_Driver\src/stm32f10x_gpio.c ****   ******************************************************************************
  20:.\stlib\STM32F10x_StdPeriph_Driver\src/stm32f10x_gpio.c ****   */
  21:.\stlib\STM32F10x_StdPeriph_Driver\src/stm32f10x_gpio.c **** 
  22:.\stlib\STM32F10x_StdPeriph_Driver\src/stm32f10x_gpio.c **** /* Includes ------------------------------------------------------------------*/
  23:.\stlib\STM32F10x_StdPeriph_Driver\src/stm32f10x_gpio.c **** #include "stm32f10x_gpio.h"
  24:.\stlib\STM32F10x_StdPeriph_Driver\src/stm32f10x_gpio.c **** #include "stm32f10x_rcc.h"
  25:.\stlib\STM32F10x_StdPeriph_Driver\src/stm32f10x_gpio.c **** 
  26:.\stlib\STM32F10x_StdPeriph_Driver\src/stm32f10x_gpio.c **** /** @addtogroup STM32F10x_StdPeriph_Driver
  27:.\stlib\STM32F10x_StdPeriph_Driver\src/stm32f10x_gpio.c ****   * @{
ARM GAS  C:\Users\skey\AppData\Local\Temp\ccLMmMAg.s 			page 3


  28:.\stlib\STM32F10x_StdPeriph_Driver\src/stm32f10x_gpio.c ****   */
  29:.\stlib\STM32F10x_StdPeriph_Driver\src/stm32f10x_gpio.c **** 
  30:.\stlib\STM32F10x_StdPeriph_Driver\src/stm32f10x_gpio.c **** /** @defgroup GPIO 
  31:.\stlib\STM32F10x_StdPeriph_Driver\src/stm32f10x_gpio.c ****   * @brief GPIO driver modules
  32:.\stlib\STM32F10x_StdPeriph_Driver\src/stm32f10x_gpio.c ****   * @{
  33:.\stlib\STM32F10x_StdPeriph_Driver\src/stm32f10x_gpio.c ****   */ 
  34:.\stlib\STM32F10x_StdPeriph_Driver\src/stm32f10x_gpio.c **** 
  35:.\stlib\STM32F10x_StdPeriph_Driver\src/stm32f10x_gpio.c **** /** @defgroup GPIO_Private_TypesDefinitions
  36:.\stlib\STM32F10x_StdPeriph_Driver\src/stm32f10x_gpio.c ****   * @{
  37:.\stlib\STM32F10x_StdPeriph_Driver\src/stm32f10x_gpio.c ****   */
  38:.\stlib\STM32F10x_StdPeriph_Driver\src/stm32f10x_gpio.c **** 
  39:.\stlib\STM32F10x_StdPeriph_Driver\src/stm32f10x_gpio.c **** /**
  40:.\stlib\STM32F10x_StdPeriph_Driver\src/stm32f10x_gpio.c ****   * @}
  41:.\stlib\STM32F10x_StdPeriph_Driver\src/stm32f10x_gpio.c ****   */
  42:.\stlib\STM32F10x_StdPeriph_Driver\src/stm32f10x_gpio.c **** 
  43:.\stlib\STM32F10x_StdPeriph_Driver\src/stm32f10x_gpio.c **** /** @defgroup GPIO_Private_Defines
  44:.\stlib\STM32F10x_StdPeriph_Driver\src/stm32f10x_gpio.c ****   * @{
  45:.\stlib\STM32F10x_StdPeriph_Driver\src/stm32f10x_gpio.c ****   */
  46:.\stlib\STM32F10x_StdPeriph_Driver\src/stm32f10x_gpio.c **** 
  47:.\stlib\STM32F10x_StdPeriph_Driver\src/stm32f10x_gpio.c **** /* ------------ RCC registers bit address in the alias region ----------------*/
  48:.\stlib\STM32F10x_StdPeriph_Driver\src/stm32f10x_gpio.c **** #define AFIO_OFFSET                 (AFIO_BASE - PERIPH_BASE)
  49:.\stlib\STM32F10x_StdPeriph_Driver\src/stm32f10x_gpio.c **** 
  50:.\stlib\STM32F10x_StdPeriph_Driver\src/stm32f10x_gpio.c **** /* --- EVENTCR Register -----*/
  51:.\stlib\STM32F10x_StdPeriph_Driver\src/stm32f10x_gpio.c **** 
  52:.\stlib\STM32F10x_StdPeriph_Driver\src/stm32f10x_gpio.c **** /* Alias word address of EVOE bit */
  53:.\stlib\STM32F10x_StdPeriph_Driver\src/stm32f10x_gpio.c **** #define EVCR_OFFSET                 (AFIO_OFFSET + 0x00)
  54:.\stlib\STM32F10x_StdPeriph_Driver\src/stm32f10x_gpio.c **** #define EVOE_BitNumber              ((uint8_t)0x07)
  55:.\stlib\STM32F10x_StdPeriph_Driver\src/stm32f10x_gpio.c **** #define EVCR_EVOE_BB                (PERIPH_BB_BASE + (EVCR_OFFSET * 32) + (EVOE_BitNumber * 4))
  56:.\stlib\STM32F10x_StdPeriph_Driver\src/stm32f10x_gpio.c **** 
  57:.\stlib\STM32F10x_StdPeriph_Driver\src/stm32f10x_gpio.c **** 
  58:.\stlib\STM32F10x_StdPeriph_Driver\src/stm32f10x_gpio.c **** /* ---  MAPR Register ---*/ 
  59:.\stlib\STM32F10x_StdPeriph_Driver\src/stm32f10x_gpio.c **** /* Alias word address of MII_RMII_SEL bit */ 
  60:.\stlib\STM32F10x_StdPeriph_Driver\src/stm32f10x_gpio.c **** #define MAPR_OFFSET                 (AFIO_OFFSET + 0x04) 
  61:.\stlib\STM32F10x_StdPeriph_Driver\src/stm32f10x_gpio.c **** #define MII_RMII_SEL_BitNumber      ((u8)0x17) 
  62:.\stlib\STM32F10x_StdPeriph_Driver\src/stm32f10x_gpio.c **** #define MAPR_MII_RMII_SEL_BB        (PERIPH_BB_BASE + (MAPR_OFFSET * 32) + (MII_RMII_SEL_BitNumber 
  63:.\stlib\STM32F10x_StdPeriph_Driver\src/stm32f10x_gpio.c **** 
  64:.\stlib\STM32F10x_StdPeriph_Driver\src/stm32f10x_gpio.c **** 
  65:.\stlib\STM32F10x_StdPeriph_Driver\src/stm32f10x_gpio.c **** #define EVCR_PORTPINCONFIG_MASK     ((uint16_t)0xFF80)
  66:.\stlib\STM32F10x_StdPeriph_Driver\src/stm32f10x_gpio.c **** #define LSB_MASK                    ((uint16_t)0xFFFF)
  67:.\stlib\STM32F10x_StdPeriph_Driver\src/stm32f10x_gpio.c **** #define DBGAFR_POSITION_MASK        ((uint32_t)0x000F0000)
  68:.\stlib\STM32F10x_StdPeriph_Driver\src/stm32f10x_gpio.c **** #define DBGAFR_SWJCFG_MASK          ((uint32_t)0xF0FFFFFF)
  69:.\stlib\STM32F10x_StdPeriph_Driver\src/stm32f10x_gpio.c **** #define DBGAFR_LOCATION_MASK        ((uint32_t)0x00200000)
  70:.\stlib\STM32F10x_StdPeriph_Driver\src/stm32f10x_gpio.c **** #define DBGAFR_NUMBITS_MASK         ((uint32_t)0x00100000)
  71:.\stlib\STM32F10x_StdPeriph_Driver\src/stm32f10x_gpio.c **** /**
  72:.\stlib\STM32F10x_StdPeriph_Driver\src/stm32f10x_gpio.c ****   * @}
  73:.\stlib\STM32F10x_StdPeriph_Driver\src/stm32f10x_gpio.c ****   */
  74:.\stlib\STM32F10x_StdPeriph_Driver\src/stm32f10x_gpio.c **** 
  75:.\stlib\STM32F10x_StdPeriph_Driver\src/stm32f10x_gpio.c **** /** @defgroup GPIO_Private_Macros
  76:.\stlib\STM32F10x_StdPeriph_Driver\src/stm32f10x_gpio.c ****   * @{
  77:.\stlib\STM32F10x_StdPeriph_Driver\src/stm32f10x_gpio.c ****   */
  78:.\stlib\STM32F10x_StdPeriph_Driver\src/stm32f10x_gpio.c **** 
  79:.\stlib\STM32F10x_StdPeriph_Driver\src/stm32f10x_gpio.c **** /**
  80:.\stlib\STM32F10x_StdPeriph_Driver\src/stm32f10x_gpio.c ****   * @}
  81:.\stlib\STM32F10x_StdPeriph_Driver\src/stm32f10x_gpio.c ****   */
  82:.\stlib\STM32F10x_StdPeriph_Driver\src/stm32f10x_gpio.c **** 
  83:.\stlib\STM32F10x_StdPeriph_Driver\src/stm32f10x_gpio.c **** /** @defgroup GPIO_Private_Variables
  84:.\stlib\STM32F10x_StdPeriph_Driver\src/stm32f10x_gpio.c ****   * @{
ARM GAS  C:\Users\skey\AppData\Local\Temp\ccLMmMAg.s 			page 4


  85:.\stlib\STM32F10x_StdPeriph_Driver\src/stm32f10x_gpio.c ****   */
  86:.\stlib\STM32F10x_StdPeriph_Driver\src/stm32f10x_gpio.c **** 
  87:.\stlib\STM32F10x_StdPeriph_Driver\src/stm32f10x_gpio.c **** /**
  88:.\stlib\STM32F10x_StdPeriph_Driver\src/stm32f10x_gpio.c ****   * @}
  89:.\stlib\STM32F10x_StdPeriph_Driver\src/stm32f10x_gpio.c ****   */
  90:.\stlib\STM32F10x_StdPeriph_Driver\src/stm32f10x_gpio.c **** 
  91:.\stlib\STM32F10x_StdPeriph_Driver\src/stm32f10x_gpio.c **** /** @defgroup GPIO_Private_FunctionPrototypes
  92:.\stlib\STM32F10x_StdPeriph_Driver\src/stm32f10x_gpio.c ****   * @{
  93:.\stlib\STM32F10x_StdPeriph_Driver\src/stm32f10x_gpio.c ****   */
  94:.\stlib\STM32F10x_StdPeriph_Driver\src/stm32f10x_gpio.c **** 
  95:.\stlib\STM32F10x_StdPeriph_Driver\src/stm32f10x_gpio.c **** /**
  96:.\stlib\STM32F10x_StdPeriph_Driver\src/stm32f10x_gpio.c ****   * @}
  97:.\stlib\STM32F10x_StdPeriph_Driver\src/stm32f10x_gpio.c ****   */
  98:.\stlib\STM32F10x_StdPeriph_Driver\src/stm32f10x_gpio.c **** 
  99:.\stlib\STM32F10x_StdPeriph_Driver\src/stm32f10x_gpio.c **** /** @defgroup GPIO_Private_Functions
 100:.\stlib\STM32F10x_StdPeriph_Driver\src/stm32f10x_gpio.c ****   * @{
 101:.\stlib\STM32F10x_StdPeriph_Driver\src/stm32f10x_gpio.c ****   */
 102:.\stlib\STM32F10x_StdPeriph_Driver\src/stm32f10x_gpio.c **** 
 103:.\stlib\STM32F10x_StdPeriph_Driver\src/stm32f10x_gpio.c **** /**
 104:.\stlib\STM32F10x_StdPeriph_Driver\src/stm32f10x_gpio.c ****   * @brief  Deinitializes the GPIOx peripheral registers to their default reset values.
 105:.\stlib\STM32F10x_StdPeriph_Driver\src/stm32f10x_gpio.c ****   * @param  GPIOx: where x can be (A..G) to select the GPIO peripheral.
 106:.\stlib\STM32F10x_StdPeriph_Driver\src/stm32f10x_gpio.c ****   * @retval None
 107:.\stlib\STM32F10x_StdPeriph_Driver\src/stm32f10x_gpio.c ****   */
 108:.\stlib\STM32F10x_StdPeriph_Driver\src/stm32f10x_gpio.c **** void GPIO_DeInit(GPIO_TypeDef* GPIOx)
 109:.\stlib\STM32F10x_StdPeriph_Driver\src/stm32f10x_gpio.c **** {
  88              		.loc 1 109 1 view -0
  89              		.cfi_startproc
  90              		@ args = 0, pretend = 0, frame = 0
  91              		@ frame_needed = 0, uses_anonymous_args = 0
 110:.\stlib\STM32F10x_StdPeriph_Driver\src/stm32f10x_gpio.c ****   /* Check the parameters */
 111:.\stlib\STM32F10x_StdPeriph_Driver\src/stm32f10x_gpio.c ****   assert_param(IS_GPIO_ALL_PERIPH(GPIOx));
  92              		.loc 1 111 3 view .LVU1
 112:.\stlib\STM32F10x_StdPeriph_Driver\src/stm32f10x_gpio.c ****   
 113:.\stlib\STM32F10x_StdPeriph_Driver\src/stm32f10x_gpio.c ****   if (GPIOx == GPIOA)
  93              		.loc 1 113 3 view .LVU2
  94              	@ .\stlib\STM32F10x_StdPeriph_Driver\src\stm32f10x_gpio.c:109: {
 109:.\stlib\STM32F10x_StdPeriph_Driver\src/stm32f10x_gpio.c ****   /* Check the parameters */
  95              		.loc 1 109 1 is_stmt 0 view .LVU3
  96 0000 08B5     		push	{r3, lr}	@
  97              	.LCFI0:
  98              		.cfi_def_cfa_offset 8
  99              		.cfi_offset 3, -8
 100              		.cfi_offset 14, -4
 101              	@ .\stlib\STM32F10x_StdPeriph_Driver\src\stm32f10x_gpio.c:113:   if (GPIOx == GPIOA)
 102              		.loc 1 113 6 view .LVU4
 103 0002 264B     		ldr	r3, .L10	@ tmp111,
 104 0004 9842     		cmp	r0, r3	@ GPIOx, tmp111
 105 0006 09D1     		bne	.L2		@,
 114:.\stlib\STM32F10x_StdPeriph_Driver\src/stm32f10x_gpio.c ****   {
 115:.\stlib\STM32F10x_StdPeriph_Driver\src/stm32f10x_gpio.c ****     RCC_APB2PeriphResetCmd(RCC_APB2Periph_GPIOA, ENABLE);
 106              		.loc 1 115 5 is_stmt 1 view .LVU5
 107 0008 0121     		movs	r1, #1	@,
 108 000a 0420     		movs	r0, #4	@,
 109              	.LVL1:
 110              		.loc 1 115 5 is_stmt 0 view .LVU6
 111 000c FFF7FEFF 		bl	RCC_APB2PeriphResetCmd		@
 112              	.LVL2:
ARM GAS  C:\Users\skey\AppData\Local\Temp\ccLMmMAg.s 			page 5


 116:.\stlib\STM32F10x_StdPeriph_Driver\src/stm32f10x_gpio.c ****     RCC_APB2PeriphResetCmd(RCC_APB2Periph_GPIOA, DISABLE);
 113              		.loc 1 116 5 is_stmt 1 view .LVU7
 114 0010 0021     		movs	r1, #0	@,
 115 0012 0420     		movs	r0, #4	@,
 116              	.L9:
 117              	@ .\stlib\STM32F10x_StdPeriph_Driver\src\stm32f10x_gpio.c:151: }
 117:.\stlib\STM32F10x_StdPeriph_Driver\src/stm32f10x_gpio.c ****   }
 118:.\stlib\STM32F10x_StdPeriph_Driver\src/stm32f10x_gpio.c ****   else if (GPIOx == GPIOB)
 119:.\stlib\STM32F10x_StdPeriph_Driver\src/stm32f10x_gpio.c ****   {
 120:.\stlib\STM32F10x_StdPeriph_Driver\src/stm32f10x_gpio.c ****     RCC_APB2PeriphResetCmd(RCC_APB2Periph_GPIOB, ENABLE);
 121:.\stlib\STM32F10x_StdPeriph_Driver\src/stm32f10x_gpio.c ****     RCC_APB2PeriphResetCmd(RCC_APB2Periph_GPIOB, DISABLE);
 122:.\stlib\STM32F10x_StdPeriph_Driver\src/stm32f10x_gpio.c ****   }
 123:.\stlib\STM32F10x_StdPeriph_Driver\src/stm32f10x_gpio.c ****   else if (GPIOx == GPIOC)
 124:.\stlib\STM32F10x_StdPeriph_Driver\src/stm32f10x_gpio.c ****   {
 125:.\stlib\STM32F10x_StdPeriph_Driver\src/stm32f10x_gpio.c ****     RCC_APB2PeriphResetCmd(RCC_APB2Periph_GPIOC, ENABLE);
 126:.\stlib\STM32F10x_StdPeriph_Driver\src/stm32f10x_gpio.c ****     RCC_APB2PeriphResetCmd(RCC_APB2Periph_GPIOC, DISABLE);
 127:.\stlib\STM32F10x_StdPeriph_Driver\src/stm32f10x_gpio.c ****   }
 128:.\stlib\STM32F10x_StdPeriph_Driver\src/stm32f10x_gpio.c ****   else if (GPIOx == GPIOD)
 129:.\stlib\STM32F10x_StdPeriph_Driver\src/stm32f10x_gpio.c ****   {
 130:.\stlib\STM32F10x_StdPeriph_Driver\src/stm32f10x_gpio.c ****     RCC_APB2PeriphResetCmd(RCC_APB2Periph_GPIOD, ENABLE);
 131:.\stlib\STM32F10x_StdPeriph_Driver\src/stm32f10x_gpio.c ****     RCC_APB2PeriphResetCmd(RCC_APB2Periph_GPIOD, DISABLE);
 132:.\stlib\STM32F10x_StdPeriph_Driver\src/stm32f10x_gpio.c ****   }    
 133:.\stlib\STM32F10x_StdPeriph_Driver\src/stm32f10x_gpio.c ****   else if (GPIOx == GPIOE)
 134:.\stlib\STM32F10x_StdPeriph_Driver\src/stm32f10x_gpio.c ****   {
 135:.\stlib\STM32F10x_StdPeriph_Driver\src/stm32f10x_gpio.c ****     RCC_APB2PeriphResetCmd(RCC_APB2Periph_GPIOE, ENABLE);
 136:.\stlib\STM32F10x_StdPeriph_Driver\src/stm32f10x_gpio.c ****     RCC_APB2PeriphResetCmd(RCC_APB2Periph_GPIOE, DISABLE);
 137:.\stlib\STM32F10x_StdPeriph_Driver\src/stm32f10x_gpio.c ****   } 
 138:.\stlib\STM32F10x_StdPeriph_Driver\src/stm32f10x_gpio.c ****   else if (GPIOx == GPIOF)
 139:.\stlib\STM32F10x_StdPeriph_Driver\src/stm32f10x_gpio.c ****   {
 140:.\stlib\STM32F10x_StdPeriph_Driver\src/stm32f10x_gpio.c ****     RCC_APB2PeriphResetCmd(RCC_APB2Periph_GPIOF, ENABLE);
 141:.\stlib\STM32F10x_StdPeriph_Driver\src/stm32f10x_gpio.c ****     RCC_APB2PeriphResetCmd(RCC_APB2Periph_GPIOF, DISABLE);
 142:.\stlib\STM32F10x_StdPeriph_Driver\src/stm32f10x_gpio.c ****   }
 143:.\stlib\STM32F10x_StdPeriph_Driver\src/stm32f10x_gpio.c ****   else
 144:.\stlib\STM32F10x_StdPeriph_Driver\src/stm32f10x_gpio.c ****   {
 145:.\stlib\STM32F10x_StdPeriph_Driver\src/stm32f10x_gpio.c ****     if (GPIOx == GPIOG)
 146:.\stlib\STM32F10x_StdPeriph_Driver\src/stm32f10x_gpio.c ****     {
 147:.\stlib\STM32F10x_StdPeriph_Driver\src/stm32f10x_gpio.c ****       RCC_APB2PeriphResetCmd(RCC_APB2Periph_GPIOG, ENABLE);
 148:.\stlib\STM32F10x_StdPeriph_Driver\src/stm32f10x_gpio.c ****       RCC_APB2PeriphResetCmd(RCC_APB2Periph_GPIOG, DISABLE);
 149:.\stlib\STM32F10x_StdPeriph_Driver\src/stm32f10x_gpio.c ****     }
 150:.\stlib\STM32F10x_StdPeriph_Driver\src/stm32f10x_gpio.c ****   }
 151:.\stlib\STM32F10x_StdPeriph_Driver\src/stm32f10x_gpio.c **** }
 118              		.loc 1 151 1 is_stmt 0 view .LVU8
 119 0014 BDE80840 		pop	{r3, lr}	@
 120              	.LCFI1:
 121              		.cfi_remember_state
 122              		.cfi_restore 14
 123              		.cfi_restore 3
 124              		.cfi_def_cfa_offset 0
 125              	@ .\stlib\STM32F10x_StdPeriph_Driver\src\stm32f10x_gpio.c:148:       RCC_APB2PeriphResetCmd(RCC_APB
 148:.\stlib\STM32F10x_StdPeriph_Driver\src/stm32f10x_gpio.c ****     }
 126              		.loc 1 148 7 view .LVU9
 127 0018 FFF7FEBF 		b	RCC_APB2PeriphResetCmd		@
 128              	.LVL3:
 129              	.L2:
 130              	.LCFI2:
 131              		.cfi_restore_state
 118:.\stlib\STM32F10x_StdPeriph_Driver\src/stm32f10x_gpio.c ****   {
ARM GAS  C:\Users\skey\AppData\Local\Temp\ccLMmMAg.s 			page 6


 132              		.loc 1 118 8 is_stmt 1 view .LVU10
 133              	@ .\stlib\STM32F10x_StdPeriph_Driver\src\stm32f10x_gpio.c:118:   else if (GPIOx == GPIOB)
 118:.\stlib\STM32F10x_StdPeriph_Driver\src/stm32f10x_gpio.c ****   {
 134              		.loc 1 118 11 is_stmt 0 view .LVU11
 135 001c 204B     		ldr	r3, .L10+4	@ tmp112,
 136 001e 9842     		cmp	r0, r3	@ GPIOx, tmp112
 137 0020 06D1     		bne	.L3		@,
 120:.\stlib\STM32F10x_StdPeriph_Driver\src/stm32f10x_gpio.c ****     RCC_APB2PeriphResetCmd(RCC_APB2Periph_GPIOB, DISABLE);
 138              		.loc 1 120 5 is_stmt 1 view .LVU12
 139 0022 0121     		movs	r1, #1	@,
 140 0024 0820     		movs	r0, #8	@,
 141              	.LVL4:
 120:.\stlib\STM32F10x_StdPeriph_Driver\src/stm32f10x_gpio.c ****     RCC_APB2PeriphResetCmd(RCC_APB2Periph_GPIOB, DISABLE);
 142              		.loc 1 120 5 is_stmt 0 view .LVU13
 143 0026 FFF7FEFF 		bl	RCC_APB2PeriphResetCmd		@
 144              	.LVL5:
 121:.\stlib\STM32F10x_StdPeriph_Driver\src/stm32f10x_gpio.c ****   }
 145              		.loc 1 121 5 is_stmt 1 view .LVU14
 146 002a 0021     		movs	r1, #0	@,
 147 002c 0820     		movs	r0, #8	@,
 148 002e F1E7     		b	.L9		@
 149              	.LVL6:
 150              	.L3:
 123:.\stlib\STM32F10x_StdPeriph_Driver\src/stm32f10x_gpio.c ****   {
 151              		.loc 1 123 8 view .LVU15
 152              	@ .\stlib\STM32F10x_StdPeriph_Driver\src\stm32f10x_gpio.c:123:   else if (GPIOx == GPIOC)
 123:.\stlib\STM32F10x_StdPeriph_Driver\src/stm32f10x_gpio.c ****   {
 153              		.loc 1 123 11 is_stmt 0 view .LVU16
 154 0030 1C4B     		ldr	r3, .L10+8	@ tmp113,
 155 0032 9842     		cmp	r0, r3	@ GPIOx, tmp113
 156 0034 06D1     		bne	.L4		@,
 125:.\stlib\STM32F10x_StdPeriph_Driver\src/stm32f10x_gpio.c ****     RCC_APB2PeriphResetCmd(RCC_APB2Periph_GPIOC, DISABLE);
 157              		.loc 1 125 5 is_stmt 1 view .LVU17
 158 0036 0121     		movs	r1, #1	@,
 159 0038 1020     		movs	r0, #16	@,
 160              	.LVL7:
 125:.\stlib\STM32F10x_StdPeriph_Driver\src/stm32f10x_gpio.c ****     RCC_APB2PeriphResetCmd(RCC_APB2Periph_GPIOC, DISABLE);
 161              		.loc 1 125 5 is_stmt 0 view .LVU18
 162 003a FFF7FEFF 		bl	RCC_APB2PeriphResetCmd		@
 163              	.LVL8:
 126:.\stlib\STM32F10x_StdPeriph_Driver\src/stm32f10x_gpio.c ****   }
 164              		.loc 1 126 5 is_stmt 1 view .LVU19
 165 003e 0021     		movs	r1, #0	@,
 166 0040 1020     		movs	r0, #16	@,
 167 0042 E7E7     		b	.L9		@
 168              	.LVL9:
 169              	.L4:
 128:.\stlib\STM32F10x_StdPeriph_Driver\src/stm32f10x_gpio.c ****   {
 170              		.loc 1 128 8 view .LVU20
 171              	@ .\stlib\STM32F10x_StdPeriph_Driver\src\stm32f10x_gpio.c:128:   else if (GPIOx == GPIOD)
 128:.\stlib\STM32F10x_StdPeriph_Driver\src/stm32f10x_gpio.c ****   {
 172              		.loc 1 128 11 is_stmt 0 view .LVU21
 173 0044 184B     		ldr	r3, .L10+12	@ tmp114,
 174 0046 9842     		cmp	r0, r3	@ GPIOx, tmp114
 175 0048 06D1     		bne	.L5		@,
 130:.\stlib\STM32F10x_StdPeriph_Driver\src/stm32f10x_gpio.c ****     RCC_APB2PeriphResetCmd(RCC_APB2Periph_GPIOD, DISABLE);
 176              		.loc 1 130 5 is_stmt 1 view .LVU22
ARM GAS  C:\Users\skey\AppData\Local\Temp\ccLMmMAg.s 			page 7


 177 004a 0121     		movs	r1, #1	@,
 178 004c 2020     		movs	r0, #32	@,
 179              	.LVL10:
 130:.\stlib\STM32F10x_StdPeriph_Driver\src/stm32f10x_gpio.c ****     RCC_APB2PeriphResetCmd(RCC_APB2Periph_GPIOD, DISABLE);
 180              		.loc 1 130 5 is_stmt 0 view .LVU23
 181 004e FFF7FEFF 		bl	RCC_APB2PeriphResetCmd		@
 182              	.LVL11:
 131:.\stlib\STM32F10x_StdPeriph_Driver\src/stm32f10x_gpio.c ****   }    
 183              		.loc 1 131 5 is_stmt 1 view .LVU24
 184 0052 0021     		movs	r1, #0	@,
 185 0054 2020     		movs	r0, #32	@,
 186 0056 DDE7     		b	.L9		@
 187              	.LVL12:
 188              	.L5:
 133:.\stlib\STM32F10x_StdPeriph_Driver\src/stm32f10x_gpio.c ****   {
 189              		.loc 1 133 8 view .LVU25
 190              	@ .\stlib\STM32F10x_StdPeriph_Driver\src\stm32f10x_gpio.c:133:   else if (GPIOx == GPIOE)
 133:.\stlib\STM32F10x_StdPeriph_Driver\src/stm32f10x_gpio.c ****   {
 191              		.loc 1 133 11 is_stmt 0 view .LVU26
 192 0058 144B     		ldr	r3, .L10+16	@ tmp115,
 193 005a 9842     		cmp	r0, r3	@ GPIOx, tmp115
 194 005c 06D1     		bne	.L6		@,
 135:.\stlib\STM32F10x_StdPeriph_Driver\src/stm32f10x_gpio.c ****     RCC_APB2PeriphResetCmd(RCC_APB2Periph_GPIOE, DISABLE);
 195              		.loc 1 135 5 is_stmt 1 view .LVU27
 196 005e 0121     		movs	r1, #1	@,
 197 0060 4020     		movs	r0, #64	@,
 198              	.LVL13:
 135:.\stlib\STM32F10x_StdPeriph_Driver\src/stm32f10x_gpio.c ****     RCC_APB2PeriphResetCmd(RCC_APB2Periph_GPIOE, DISABLE);
 199              		.loc 1 135 5 is_stmt 0 view .LVU28
 200 0062 FFF7FEFF 		bl	RCC_APB2PeriphResetCmd		@
 201              	.LVL14:
 136:.\stlib\STM32F10x_StdPeriph_Driver\src/stm32f10x_gpio.c ****   } 
 202              		.loc 1 136 5 is_stmt 1 view .LVU29
 203 0066 0021     		movs	r1, #0	@,
 204 0068 4020     		movs	r0, #64	@,
 205 006a D3E7     		b	.L9		@
 206              	.LVL15:
 207              	.L6:
 138:.\stlib\STM32F10x_StdPeriph_Driver\src/stm32f10x_gpio.c ****   {
 208              		.loc 1 138 8 view .LVU30
 209              	@ .\stlib\STM32F10x_StdPeriph_Driver\src\stm32f10x_gpio.c:138:   else if (GPIOx == GPIOF)
 138:.\stlib\STM32F10x_StdPeriph_Driver\src/stm32f10x_gpio.c ****   {
 210              		.loc 1 138 11 is_stmt 0 view .LVU31
 211 006c 104B     		ldr	r3, .L10+20	@ tmp116,
 212 006e 9842     		cmp	r0, r3	@ GPIOx, tmp116
 213 0070 06D1     		bne	.L7		@,
 140:.\stlib\STM32F10x_StdPeriph_Driver\src/stm32f10x_gpio.c ****     RCC_APB2PeriphResetCmd(RCC_APB2Periph_GPIOF, DISABLE);
 214              		.loc 1 140 5 is_stmt 1 view .LVU32
 215 0072 0121     		movs	r1, #1	@,
 216 0074 8020     		movs	r0, #128	@,
 217              	.LVL16:
 140:.\stlib\STM32F10x_StdPeriph_Driver\src/stm32f10x_gpio.c ****     RCC_APB2PeriphResetCmd(RCC_APB2Periph_GPIOF, DISABLE);
 218              		.loc 1 140 5 is_stmt 0 view .LVU33
 219 0076 FFF7FEFF 		bl	RCC_APB2PeriphResetCmd		@
 220              	.LVL17:
 141:.\stlib\STM32F10x_StdPeriph_Driver\src/stm32f10x_gpio.c ****   }
 221              		.loc 1 141 5 is_stmt 1 view .LVU34
ARM GAS  C:\Users\skey\AppData\Local\Temp\ccLMmMAg.s 			page 8


 222 007a 0021     		movs	r1, #0	@,
 223 007c 8020     		movs	r0, #128	@,
 224 007e C9E7     		b	.L9		@
 225              	.LVL18:
 226              	.L7:
 145:.\stlib\STM32F10x_StdPeriph_Driver\src/stm32f10x_gpio.c ****     {
 227              		.loc 1 145 5 view .LVU35
 228              	@ .\stlib\STM32F10x_StdPeriph_Driver\src\stm32f10x_gpio.c:145:     if (GPIOx == GPIOG)
 145:.\stlib\STM32F10x_StdPeriph_Driver\src/stm32f10x_gpio.c ****     {
 229              		.loc 1 145 8 is_stmt 0 view .LVU36
 230 0080 0C4B     		ldr	r3, .L10+24	@ tmp117,
 231 0082 9842     		cmp	r0, r3	@ GPIOx, tmp117
 232 0084 08D1     		bne	.L1		@,
 147:.\stlib\STM32F10x_StdPeriph_Driver\src/stm32f10x_gpio.c ****       RCC_APB2PeriphResetCmd(RCC_APB2Periph_GPIOG, DISABLE);
 233              		.loc 1 147 7 is_stmt 1 view .LVU37
 234 0086 0121     		movs	r1, #1	@,
 235 0088 4FF48070 		mov	r0, #256	@,
 236              	.LVL19:
 147:.\stlib\STM32F10x_StdPeriph_Driver\src/stm32f10x_gpio.c ****       RCC_APB2PeriphResetCmd(RCC_APB2Periph_GPIOG, DISABLE);
 237              		.loc 1 147 7 is_stmt 0 view .LVU38
 238 008c FFF7FEFF 		bl	RCC_APB2PeriphResetCmd		@
 239              	.LVL20:
 148:.\stlib\STM32F10x_StdPeriph_Driver\src/stm32f10x_gpio.c ****     }
 240              		.loc 1 148 7 is_stmt 1 view .LVU39
 241 0090 0021     		movs	r1, #0	@,
 242 0092 4FF48070 		mov	r0, #256	@,
 243 0096 BDE7     		b	.L9		@
 244              	.LVL21:
 245              	.L1:
 246              	@ .\stlib\STM32F10x_StdPeriph_Driver\src\stm32f10x_gpio.c:151: }
 247              		.loc 1 151 1 is_stmt 0 view .LVU40
 248 0098 08BD     		pop	{r3, pc}	@
 249              	.L11:
 250 009a 00BF     		.align	2
 251              	.L10:
 252 009c 00080140 		.word	1073809408
 253 00a0 000C0140 		.word	1073810432
 254 00a4 00100140 		.word	1073811456
 255 00a8 00140140 		.word	1073812480
 256 00ac 00180140 		.word	1073813504
 257 00b0 001C0140 		.word	1073814528
 258 00b4 00200140 		.word	1073815552
 259              		.cfi_endproc
 260              	.LFE29:
 261              		.size	GPIO_DeInit, .-GPIO_DeInit
 262              		.align	1
 263              		.global	GPIO_AFIODeInit
 264              		.syntax unified
 265              		.thumb
 266              		.thumb_func
 267              		.fpu softvfp
 268              		.type	GPIO_AFIODeInit, %function
 269              	GPIO_AFIODeInit:
 270              	.LFB30:
 152:.\stlib\STM32F10x_StdPeriph_Driver\src/stm32f10x_gpio.c **** 
 153:.\stlib\STM32F10x_StdPeriph_Driver\src/stm32f10x_gpio.c **** /**
 154:.\stlib\STM32F10x_StdPeriph_Driver\src/stm32f10x_gpio.c ****   * @brief  Deinitializes the Alternate Functions (remap, event control
ARM GAS  C:\Users\skey\AppData\Local\Temp\ccLMmMAg.s 			page 9


 155:.\stlib\STM32F10x_StdPeriph_Driver\src/stm32f10x_gpio.c ****   *   and EXTI configuration) registers to their default reset values.
 156:.\stlib\STM32F10x_StdPeriph_Driver\src/stm32f10x_gpio.c ****   * @param  None
 157:.\stlib\STM32F10x_StdPeriph_Driver\src/stm32f10x_gpio.c ****   * @retval None
 158:.\stlib\STM32F10x_StdPeriph_Driver\src/stm32f10x_gpio.c ****   */
 159:.\stlib\STM32F10x_StdPeriph_Driver\src/stm32f10x_gpio.c **** void GPIO_AFIODeInit(void)
 160:.\stlib\STM32F10x_StdPeriph_Driver\src/stm32f10x_gpio.c **** {
 271              		.loc 1 160 1 is_stmt 1 view -0
 272              		.cfi_startproc
 273              		@ args = 0, pretend = 0, frame = 0
 274              		@ frame_needed = 0, uses_anonymous_args = 0
 161:.\stlib\STM32F10x_StdPeriph_Driver\src/stm32f10x_gpio.c ****   RCC_APB2PeriphResetCmd(RCC_APB2Periph_AFIO, ENABLE);
 275              		.loc 1 161 3 view .LVU42
 276 00b8 0121     		movs	r1, #1	@,
 277              	@ .\stlib\STM32F10x_StdPeriph_Driver\src\stm32f10x_gpio.c:160: {
 160:.\stlib\STM32F10x_StdPeriph_Driver\src/stm32f10x_gpio.c ****   RCC_APB2PeriphResetCmd(RCC_APB2Periph_AFIO, ENABLE);
 278              		.loc 1 160 1 is_stmt 0 view .LVU43
 279 00ba 08B5     		push	{r3, lr}	@
 280              	.LCFI3:
 281              		.cfi_def_cfa_offset 8
 282              		.cfi_offset 3, -8
 283              		.cfi_offset 14, -4
 284              	@ .\stlib\STM32F10x_StdPeriph_Driver\src\stm32f10x_gpio.c:161:   RCC_APB2PeriphResetCmd(RCC_APB2Per
 285              		.loc 1 161 3 view .LVU44
 286 00bc 0846     		mov	r0, r1	@,
 287 00be FFF7FEFF 		bl	RCC_APB2PeriphResetCmd		@
 288              	.LVL22:
 162:.\stlib\STM32F10x_StdPeriph_Driver\src/stm32f10x_gpio.c ****   RCC_APB2PeriphResetCmd(RCC_APB2Periph_AFIO, DISABLE);
 289              		.loc 1 162 3 is_stmt 1 view .LVU45
 290              	@ .\stlib\STM32F10x_StdPeriph_Driver\src\stm32f10x_gpio.c:163: }
 163:.\stlib\STM32F10x_StdPeriph_Driver\src/stm32f10x_gpio.c **** }
 291              		.loc 1 163 1 is_stmt 0 view .LVU46
 292 00c2 BDE80840 		pop	{r3, lr}	@
 293              	.LCFI4:
 294              		.cfi_restore 14
 295              		.cfi_restore 3
 296              		.cfi_def_cfa_offset 0
 297              	@ .\stlib\STM32F10x_StdPeriph_Driver\src\stm32f10x_gpio.c:162:   RCC_APB2PeriphResetCmd(RCC_APB2Per
 162:.\stlib\STM32F10x_StdPeriph_Driver\src/stm32f10x_gpio.c ****   RCC_APB2PeriphResetCmd(RCC_APB2Periph_AFIO, DISABLE);
 298              		.loc 1 162 3 view .LVU47
 299 00c6 0021     		movs	r1, #0	@,
 300 00c8 0120     		movs	r0, #1	@,
 301 00ca FFF7FEBF 		b	RCC_APB2PeriphResetCmd		@
 302              	.LVL23:
 303              		.cfi_endproc
 304              	.LFE30:
 305              		.size	GPIO_AFIODeInit, .-GPIO_AFIODeInit
 306              		.align	1
 307              		.global	GPIO_Init
 308              		.syntax unified
 309              		.thumb
 310              		.thumb_func
 311              		.fpu softvfp
 312              		.type	GPIO_Init, %function
 313              	GPIO_Init:
 314              	.LVL24:
 315              	.LFB31:
 164:.\stlib\STM32F10x_StdPeriph_Driver\src/stm32f10x_gpio.c **** 
ARM GAS  C:\Users\skey\AppData\Local\Temp\ccLMmMAg.s 			page 10


 165:.\stlib\STM32F10x_StdPeriph_Driver\src/stm32f10x_gpio.c **** /**
 166:.\stlib\STM32F10x_StdPeriph_Driver\src/stm32f10x_gpio.c ****   * @brief  Initializes the GPIOx peripheral according to the specified
 167:.\stlib\STM32F10x_StdPeriph_Driver\src/stm32f10x_gpio.c ****   *         parameters in the GPIO_InitStruct.
 168:.\stlib\STM32F10x_StdPeriph_Driver\src/stm32f10x_gpio.c ****   * @param  GPIOx: where x can be (A..G) to select the GPIO peripheral.
 169:.\stlib\STM32F10x_StdPeriph_Driver\src/stm32f10x_gpio.c ****   * @param  GPIO_InitStruct: pointer to a GPIO_InitTypeDef structure that
 170:.\stlib\STM32F10x_StdPeriph_Driver\src/stm32f10x_gpio.c ****   *         contains the configuration information for the specified GPIO peripheral.
 171:.\stlib\STM32F10x_StdPeriph_Driver\src/stm32f10x_gpio.c ****   * @retval None
 172:.\stlib\STM32F10x_StdPeriph_Driver\src/stm32f10x_gpio.c ****   */
 173:.\stlib\STM32F10x_StdPeriph_Driver\src/stm32f10x_gpio.c **** void GPIO_Init(GPIO_TypeDef* GPIOx, GPIO_InitTypeDef* GPIO_InitStruct)
 174:.\stlib\STM32F10x_StdPeriph_Driver\src/stm32f10x_gpio.c **** {
 316              		.loc 1 174 1 is_stmt 1 view -0
 317              		.cfi_startproc
 318              		@ args = 0, pretend = 0, frame = 0
 319              		@ frame_needed = 0, uses_anonymous_args = 0
 175:.\stlib\STM32F10x_StdPeriph_Driver\src/stm32f10x_gpio.c ****   uint32_t currentmode = 0x00, currentpin = 0x00, pinpos = 0x00, pos = 0x00;
 320              		.loc 1 175 3 view .LVU49
 176:.\stlib\STM32F10x_StdPeriph_Driver\src/stm32f10x_gpio.c ****   uint32_t tmpreg = 0x00, pinmask = 0x00;
 321              		.loc 1 176 3 view .LVU50
 177:.\stlib\STM32F10x_StdPeriph_Driver\src/stm32f10x_gpio.c ****   /* Check the parameters */
 178:.\stlib\STM32F10x_StdPeriph_Driver\src/stm32f10x_gpio.c ****   assert_param(IS_GPIO_ALL_PERIPH(GPIOx));
 322              		.loc 1 178 3 view .LVU51
 179:.\stlib\STM32F10x_StdPeriph_Driver\src/stm32f10x_gpio.c ****   assert_param(IS_GPIO_MODE(GPIO_InitStruct->GPIO_Mode));
 323              		.loc 1 179 3 view .LVU52
 180:.\stlib\STM32F10x_StdPeriph_Driver\src/stm32f10x_gpio.c ****   assert_param(IS_GPIO_PIN(GPIO_InitStruct->GPIO_Pin));  
 324              		.loc 1 180 3 view .LVU53
 181:.\stlib\STM32F10x_StdPeriph_Driver\src/stm32f10x_gpio.c ****   
 182:.\stlib\STM32F10x_StdPeriph_Driver\src/stm32f10x_gpio.c **** /*---------------------------- GPIO Mode Configuration -----------------------*/
 183:.\stlib\STM32F10x_StdPeriph_Driver\src/stm32f10x_gpio.c ****   currentmode = ((uint32_t)GPIO_InitStruct->GPIO_Mode) & ((uint32_t)0x0F);
 325              		.loc 1 183 3 view .LVU54
 326              	@ .\stlib\STM32F10x_StdPeriph_Driver\src\stm32f10x_gpio.c:174: {
 174:.\stlib\STM32F10x_StdPeriph_Driver\src/stm32f10x_gpio.c ****   uint32_t currentmode = 0x00, currentpin = 0x00, pinpos = 0x00, pos = 0x00;
 327              		.loc 1 174 1 is_stmt 0 view .LVU55
 328 00ce 2DE9F041 		push	{r4, r5, r6, r7, r8, lr}	@
 329              	.LCFI5:
 330              		.cfi_def_cfa_offset 24
 331              		.cfi_offset 4, -24
 332              		.cfi_offset 5, -20
 333              		.cfi_offset 6, -16
 334              		.cfi_offset 7, -12
 335              		.cfi_offset 8, -8
 336              		.cfi_offset 14, -4
 337              	@ .\stlib\STM32F10x_StdPeriph_Driver\src\stm32f10x_gpio.c:183:   currentmode = ((uint32_t)GPIO_Init
 338              		.loc 1 183 43 view .LVU56
 339 00d2 CB78     		ldrb	r3, [r1, #3]	@ zero_extendqisi2	@ _1, GPIO_InitStruct_32(D)->GPIO_Mode
 340              	@ .\stlib\STM32F10x_StdPeriph_Driver\src\stm32f10x_gpio.c:193:   if (((uint32_t)GPIO_InitStruct->GP
 184:.\stlib\STM32F10x_StdPeriph_Driver\src/stm32f10x_gpio.c ****   if ((((uint32_t)GPIO_InitStruct->GPIO_Mode) & ((uint32_t)0x10)) != 0x00)
 185:.\stlib\STM32F10x_StdPeriph_Driver\src/stm32f10x_gpio.c ****   { 
 186:.\stlib\STM32F10x_StdPeriph_Driver\src/stm32f10x_gpio.c ****     /* Check the parameters */
 187:.\stlib\STM32F10x_StdPeriph_Driver\src/stm32f10x_gpio.c ****     assert_param(IS_GPIO_SPEED(GPIO_InitStruct->GPIO_Speed));
 188:.\stlib\STM32F10x_StdPeriph_Driver\src/stm32f10x_gpio.c ****     /* Output mode */
 189:.\stlib\STM32F10x_StdPeriph_Driver\src/stm32f10x_gpio.c ****     currentmode |= (uint32_t)GPIO_InitStruct->GPIO_Speed;
 190:.\stlib\STM32F10x_StdPeriph_Driver\src/stm32f10x_gpio.c ****   }
 191:.\stlib\STM32F10x_StdPeriph_Driver\src/stm32f10x_gpio.c **** /*---------------------------- GPIO CRL Configuration ------------------------*/
 192:.\stlib\STM32F10x_StdPeriph_Driver\src/stm32f10x_gpio.c ****   /* Configure the eight low port pins */
 193:.\stlib\STM32F10x_StdPeriph_Driver\src/stm32f10x_gpio.c ****   if (((uint32_t)GPIO_InitStruct->GPIO_Pin & ((uint32_t)0x00FF)) != 0x00)
 341              		.loc 1 193 33 view .LVU57
 342 00d4 0E88     		ldrh	r6, [r1]	@ _6, GPIO_InitStruct_32(D)->GPIO_Pin
ARM GAS  C:\Users\skey\AppData\Local\Temp\ccLMmMAg.s 			page 11


 343              	@ .\stlib\STM32F10x_StdPeriph_Driver\src\stm32f10x_gpio.c:184:   if ((((uint32_t)GPIO_InitStruct->G
 184:.\stlib\STM32F10x_StdPeriph_Driver\src/stm32f10x_gpio.c ****   if ((((uint32_t)GPIO_InitStruct->GPIO_Mode) & ((uint32_t)0x10)) != 0x00)
 344              		.loc 1 184 6 view .LVU58
 345 00d6 DA06     		lsls	r2, r3, #27	@, _1,
 346 00d8 48BF     		it	mi
 347 00da 8A78     		ldrbmi	r2, [r1, #2]	@ zero_extendqisi2	@ GPIO_InitStruct_32(D)->GPIO_Speed, GPIO_InitStruct_32(D)-
 348 00dc 03F00F05 		and	r5, r3, #15	@ _2, _1,
 349              	.LVL25:
 184:.\stlib\STM32F10x_StdPeriph_Driver\src/stm32f10x_gpio.c ****   if ((((uint32_t)GPIO_InitStruct->GPIO_Mode) & ((uint32_t)0x10)) != 0x00)
 350              		.loc 1 184 3 is_stmt 1 view .LVU59
 187:.\stlib\STM32F10x_StdPeriph_Driver\src/stm32f10x_gpio.c ****     /* Output mode */
 351              		.loc 1 187 5 view .LVU60
 189:.\stlib\STM32F10x_StdPeriph_Driver\src/stm32f10x_gpio.c ****   }
 352              		.loc 1 189 5 view .LVU61
 189:.\stlib\STM32F10x_StdPeriph_Driver\src/stm32f10x_gpio.c ****   }
 353              		.loc 1 189 5 is_stmt 0 view .LVU62
 354 00e0 48BF     		it	mi
 355 00e2 1543     		orrmi	r5, r5, r2	@ _2, _2, GPIO_InitStruct_32(D)->GPIO_Speed
 356              	.LVL26:
 357              		.loc 1 193 3 is_stmt 1 view .LVU63
 358              	@ .\stlib\STM32F10x_StdPeriph_Driver\src\stm32f10x_gpio.c:193:   if (((uint32_t)GPIO_InitStruct->GP
 359              		.loc 1 193 6 is_stmt 0 view .LVU64
 360 00e4 0A78     		ldrb	r2, [r1]	@ zero_extendqisi2	@ _6, GPIO_InitStruct_32(D)->GPIO_Pin
 361              	.LVL27:
 362              		.loc 1 193 6 view .LVU65
 363 00e6 D2B1     		cbz	r2, .L15	@ _6,
 194:.\stlib\STM32F10x_StdPeriph_Driver\src/stm32f10x_gpio.c ****   {
 195:.\stlib\STM32F10x_StdPeriph_Driver\src/stm32f10x_gpio.c ****     tmpreg = GPIOx->CRL;
 364              		.loc 1 195 5 is_stmt 1 view .LVU66
 365              	@ .\stlib\STM32F10x_StdPeriph_Driver\src\stm32f10x_gpio.c:196:     for (pinpos = 0x00; pinpos < 0x0
 196:.\stlib\STM32F10x_StdPeriph_Driver\src/stm32f10x_gpio.c ****     for (pinpos = 0x00; pinpos < 0x08; pinpos++)
 366              		.loc 1 196 17 is_stmt 0 view .LVU67
 367 00e8 0021     		movs	r1, #0	@ pinpos,
 368              	.LVL28:
 369              	@ .\stlib\STM32F10x_StdPeriph_Driver\src\stm32f10x_gpio.c:198:       pos = ((uint32_t)0x01) << pinp
 197:.\stlib\STM32F10x_StdPeriph_Driver\src/stm32f10x_gpio.c ****     {
 198:.\stlib\STM32F10x_StdPeriph_Driver\src/stm32f10x_gpio.c ****       pos = ((uint32_t)0x01) << pinpos;
 370              		.loc 1 198 11 view .LVU68
 371 00ea 4FF0010C 		mov	ip, #1	@ tmp149,
 372              	@ .\stlib\STM32F10x_StdPeriph_Driver\src\stm32f10x_gpio.c:205:         pinmask = ((uint32_t)0x0F) <
 199:.\stlib\STM32F10x_StdPeriph_Driver\src/stm32f10x_gpio.c ****       /* Get the port pins position */
 200:.\stlib\STM32F10x_StdPeriph_Driver\src/stm32f10x_gpio.c ****       currentpin = (GPIO_InitStruct->GPIO_Pin) & pos;
 201:.\stlib\STM32F10x_StdPeriph_Driver\src/stm32f10x_gpio.c ****       if (currentpin == pos)
 202:.\stlib\STM32F10x_StdPeriph_Driver\src/stm32f10x_gpio.c ****       {
 203:.\stlib\STM32F10x_StdPeriph_Driver\src/stm32f10x_gpio.c ****         pos = pinpos << 2;
 204:.\stlib\STM32F10x_StdPeriph_Driver\src/stm32f10x_gpio.c ****         /* Clear the corresponding low control register bits */
 205:.\stlib\STM32F10x_StdPeriph_Driver\src/stm32f10x_gpio.c ****         pinmask = ((uint32_t)0x0F) << pos;
 373              		.loc 1 205 17 view .LVU69
 374 00ee 4FF00F0E 		mov	lr, #15	@ tmp165,
 375              	@ .\stlib\STM32F10x_StdPeriph_Driver\src\stm32f10x_gpio.c:195:     tmpreg = GPIOx->CRL;
 195:.\stlib\STM32F10x_StdPeriph_Driver\src/stm32f10x_gpio.c ****     for (pinpos = 0x00; pinpos < 0x08; pinpos++)
 376              		.loc 1 195 12 view .LVU70
 377 00f2 0268     		ldr	r2, [r0]	@ tmpreg, GPIOx_33(D)->CRL
 378              	.LVL29:
 196:.\stlib\STM32F10x_StdPeriph_Driver\src/stm32f10x_gpio.c ****     {
 379              		.loc 1 196 5 is_stmt 1 view .LVU71
 196:.\stlib\STM32F10x_StdPeriph_Driver\src/stm32f10x_gpio.c ****     {
ARM GAS  C:\Users\skey\AppData\Local\Temp\ccLMmMAg.s 			page 12


 380              		.loc 1 196 25 view .LVU72
 381              	.L18:
 198:.\stlib\STM32F10x_StdPeriph_Driver\src/stm32f10x_gpio.c ****       /* Get the port pins position */
 382              		.loc 1 198 7 view .LVU73
 383              	@ .\stlib\STM32F10x_StdPeriph_Driver\src\stm32f10x_gpio.c:198:       pos = ((uint32_t)0x01) << pinp
 198:.\stlib\STM32F10x_StdPeriph_Driver\src/stm32f10x_gpio.c ****       /* Get the port pins position */
 384              		.loc 1 198 11 is_stmt 0 view .LVU74
 385 00f4 0CFA01F7 		lsl	r7, ip, r1	@ pos, tmp149, pinpos
 386              	.LVL30:
 200:.\stlib\STM32F10x_StdPeriph_Driver\src/stm32f10x_gpio.c ****       if (currentpin == pos)
 387              		.loc 1 200 7 is_stmt 1 view .LVU75
 201:.\stlib\STM32F10x_StdPeriph_Driver\src/stm32f10x_gpio.c ****       {
 388              		.loc 1 201 7 view .LVU76
 389              	@ .\stlib\STM32F10x_StdPeriph_Driver\src\stm32f10x_gpio.c:201:       if (currentpin == pos)
 201:.\stlib\STM32F10x_StdPeriph_Driver\src/stm32f10x_gpio.c ****       {
 390              		.loc 1 201 10 is_stmt 0 view .LVU77
 391 00f8 37EA0604 		bics	r4, r7, r6	@ tmp170, pos, _6
 392 00fc 0BD1     		bne	.L16		@,
 203:.\stlib\STM32F10x_StdPeriph_Driver\src/stm32f10x_gpio.c ****         /* Clear the corresponding low control register bits */
 393              		.loc 1 203 9 is_stmt 1 view .LVU78
 394 00fe 8C00     		lsls	r4, r1, #2	@ _21, pinpos,
 395              	.LVL31:
 396              		.loc 1 205 9 view .LVU79
 206:.\stlib\STM32F10x_StdPeriph_Driver\src/stm32f10x_gpio.c ****         tmpreg &= ~pinmask;
 397              		.loc 1 206 9 view .LVU80
 398              	@ .\stlib\STM32F10x_StdPeriph_Driver\src\stm32f10x_gpio.c:205:         pinmask = ((uint32_t)0x0F) <
 205:.\stlib\STM32F10x_StdPeriph_Driver\src/stm32f10x_gpio.c ****         tmpreg &= ~pinmask;
 399              		.loc 1 205 17 is_stmt 0 view .LVU81
 400 0100 0EFA04F8 		lsl	r8, lr, r4	@ pinmask, tmp165, _21
 401              	@ .\stlib\STM32F10x_StdPeriph_Driver\src\stm32f10x_gpio.c:206:         tmpreg &= ~pinmask;
 402              		.loc 1 206 16 view .LVU82
 403 0104 22EA0802 		bic	r2, r2, r8	@ tmpreg, tmpreg, pinmask
 404              	.LVL32:
 207:.\stlib\STM32F10x_StdPeriph_Driver\src/stm32f10x_gpio.c ****         /* Write the mode configuration in the corresponding bits */
 208:.\stlib\STM32F10x_StdPeriph_Driver\src/stm32f10x_gpio.c ****         tmpreg |= (currentmode << pos);
 405              		.loc 1 208 9 is_stmt 1 view .LVU83
 406              	@ .\stlib\STM32F10x_StdPeriph_Driver\src\stm32f10x_gpio.c:208:         tmpreg |= (currentmode << po
 407              		.loc 1 208 32 is_stmt 0 view .LVU84
 408 0108 05FA04F4 		lsl	r4, r5, r4	@ tmp154, _2, _21
 409              	.LVL33:
 410              	@ .\stlib\STM32F10x_StdPeriph_Driver\src\stm32f10x_gpio.c:210:         if (GPIO_InitStruct->GPIO_Mo
 209:.\stlib\STM32F10x_StdPeriph_Driver\src/stm32f10x_gpio.c ****         /* Reset the corresponding ODR bit */
 210:.\stlib\STM32F10x_StdPeriph_Driver\src/stm32f10x_gpio.c ****         if (GPIO_InitStruct->GPIO_Mode == GPIO_Mode_IPD)
 411              		.loc 1 210 12 view .LVU85
 412 010c 282B     		cmp	r3, #40	@ _1,
 413              	@ .\stlib\STM32F10x_StdPeriph_Driver\src\stm32f10x_gpio.c:208:         tmpreg |= (currentmode << po
 208:.\stlib\STM32F10x_StdPeriph_Driver\src/stm32f10x_gpio.c ****         /* Reset the corresponding ODR bit */
 414              		.loc 1 208 16 view .LVU86
 415 010e 42EA0402 		orr	r2, r2, r4	@ tmpreg, tmpreg, tmp154
 416              	.LVL34:
 417              		.loc 1 210 9 is_stmt 1 view .LVU87
 418              	@ .\stlib\STM32F10x_StdPeriph_Driver\src\stm32f10x_gpio.c:210:         if (GPIO_InitStruct->GPIO_Mo
 419              		.loc 1 210 12 is_stmt 0 view .LVU88
 420 0112 24D1     		bne	.L17		@,
 211:.\stlib\STM32F10x_StdPeriph_Driver\src/stm32f10x_gpio.c ****         {
 212:.\stlib\STM32F10x_StdPeriph_Driver\src/stm32f10x_gpio.c ****           GPIOx->BRR = (((uint32_t)0x01) << pinpos);
 421              		.loc 1 212 11 is_stmt 1 view .LVU89
ARM GAS  C:\Users\skey\AppData\Local\Temp\ccLMmMAg.s 			page 13


 422              	@ .\stlib\STM32F10x_StdPeriph_Driver\src\stm32f10x_gpio.c:212:           GPIOx->BRR = (((uint32_t)0
 423              		.loc 1 212 22 is_stmt 0 view .LVU90
 424 0114 4761     		str	r7, [r0, #20]	@ pos, GPIOx_33(D)->BRR
 425              	.LVL35:
 426              	.L16:
 196:.\stlib\STM32F10x_StdPeriph_Driver\src/stm32f10x_gpio.c ****     {
 427              		.loc 1 196 40 is_stmt 1 discriminator 2 view .LVU91
 428              	@ .\stlib\STM32F10x_StdPeriph_Driver\src\stm32f10x_gpio.c:196:     for (pinpos = 0x00; pinpos < 0x0
 196:.\stlib\STM32F10x_StdPeriph_Driver\src/stm32f10x_gpio.c ****     {
 429              		.loc 1 196 46 is_stmt 0 discriminator 2 view .LVU92
 430 0116 0131     		adds	r1, r1, #1	@ pinpos, pinpos,
 431              	.LVL36:
 196:.\stlib\STM32F10x_StdPeriph_Driver\src/stm32f10x_gpio.c ****     {
 432              		.loc 1 196 25 is_stmt 1 discriminator 2 view .LVU93
 433              	@ .\stlib\STM32F10x_StdPeriph_Driver\src\stm32f10x_gpio.c:196:     for (pinpos = 0x00; pinpos < 0x0
 196:.\stlib\STM32F10x_StdPeriph_Driver\src/stm32f10x_gpio.c ****     {
 434              		.loc 1 196 5 is_stmt 0 discriminator 2 view .LVU94
 435 0118 0829     		cmp	r1, #8	@ pinpos,
 436 011a EBD1     		bne	.L18		@,
 213:.\stlib\STM32F10x_StdPeriph_Driver\src/stm32f10x_gpio.c ****         }
 214:.\stlib\STM32F10x_StdPeriph_Driver\src/stm32f10x_gpio.c ****         else
 215:.\stlib\STM32F10x_StdPeriph_Driver\src/stm32f10x_gpio.c ****         {
 216:.\stlib\STM32F10x_StdPeriph_Driver\src/stm32f10x_gpio.c ****           /* Set the corresponding ODR bit */
 217:.\stlib\STM32F10x_StdPeriph_Driver\src/stm32f10x_gpio.c ****           if (GPIO_InitStruct->GPIO_Mode == GPIO_Mode_IPU)
 218:.\stlib\STM32F10x_StdPeriph_Driver\src/stm32f10x_gpio.c ****           {
 219:.\stlib\STM32F10x_StdPeriph_Driver\src/stm32f10x_gpio.c ****             GPIOx->BSRR = (((uint32_t)0x01) << pinpos);
 220:.\stlib\STM32F10x_StdPeriph_Driver\src/stm32f10x_gpio.c ****           }
 221:.\stlib\STM32F10x_StdPeriph_Driver\src/stm32f10x_gpio.c ****         }
 222:.\stlib\STM32F10x_StdPeriph_Driver\src/stm32f10x_gpio.c ****       }
 223:.\stlib\STM32F10x_StdPeriph_Driver\src/stm32f10x_gpio.c ****     }
 224:.\stlib\STM32F10x_StdPeriph_Driver\src/stm32f10x_gpio.c ****     GPIOx->CRL = tmpreg;
 437              		.loc 1 224 5 is_stmt 1 view .LVU95
 438              	@ .\stlib\STM32F10x_StdPeriph_Driver\src\stm32f10x_gpio.c:224:     GPIOx->CRL = tmpreg;
 439              		.loc 1 224 16 is_stmt 0 view .LVU96
 440 011c 0260     		str	r2, [r0]	@ tmpreg, GPIOx_33(D)->CRL
 441              	.LVL37:
 442              	.L15:
 225:.\stlib\STM32F10x_StdPeriph_Driver\src/stm32f10x_gpio.c ****   }
 226:.\stlib\STM32F10x_StdPeriph_Driver\src/stm32f10x_gpio.c **** /*---------------------------- GPIO CRH Configuration ------------------------*/
 227:.\stlib\STM32F10x_StdPeriph_Driver\src/stm32f10x_gpio.c ****   /* Configure the eight high port pins */
 228:.\stlib\STM32F10x_StdPeriph_Driver\src/stm32f10x_gpio.c ****   if (GPIO_InitStruct->GPIO_Pin > 0x00FF)
 443              		.loc 1 228 3 is_stmt 1 view .LVU97
 444              	@ .\stlib\STM32F10x_StdPeriph_Driver\src\stm32f10x_gpio.c:228:   if (GPIO_InitStruct->GPIO_Pin > 0x
 445              		.loc 1 228 6 is_stmt 0 view .LVU98
 446 011e FF2E     		cmp	r6, #255	@ _6,
 447 0120 1BD9     		bls	.L13		@,
 229:.\stlib\STM32F10x_StdPeriph_Driver\src/stm32f10x_gpio.c ****   {
 230:.\stlib\STM32F10x_StdPeriph_Driver\src/stm32f10x_gpio.c ****     tmpreg = GPIOx->CRH;
 448              		.loc 1 230 5 is_stmt 1 view .LVU99
 449              	@ .\stlib\STM32F10x_StdPeriph_Driver\src\stm32f10x_gpio.c:230:     tmpreg = GPIOx->CRH;
 450              		.loc 1 230 12 is_stmt 0 view .LVU100
 451 0122 0824     		movs	r4, #8	@ ivtmp.31,
 452              	@ .\stlib\STM32F10x_StdPeriph_Driver\src\stm32f10x_gpio.c:233:       pos = (((uint32_t)0x01) << (pi
 231:.\stlib\STM32F10x_StdPeriph_Driver\src/stm32f10x_gpio.c ****     for (pinpos = 0x00; pinpos < 0x08; pinpos++)
 232:.\stlib\STM32F10x_StdPeriph_Driver\src/stm32f10x_gpio.c ****     {
 233:.\stlib\STM32F10x_StdPeriph_Driver\src/stm32f10x_gpio.c ****       pos = (((uint32_t)0x01) << (pinpos + 0x08));
 453              		.loc 1 233 11 view .LVU101
ARM GAS  C:\Users\skey\AppData\Local\Temp\ccLMmMAg.s 			page 14


 454 0124 4FF0010C 		mov	ip, #1	@ tmp157,
 455              	@ .\stlib\STM32F10x_StdPeriph_Driver\src\stm32f10x_gpio.c:240:         pinmask = ((uint32_t)0x0F) <
 234:.\stlib\STM32F10x_StdPeriph_Driver\src/stm32f10x_gpio.c ****       /* Get the port pins position */
 235:.\stlib\STM32F10x_StdPeriph_Driver\src/stm32f10x_gpio.c ****       currentpin = ((GPIO_InitStruct->GPIO_Pin) & pos);
 236:.\stlib\STM32F10x_StdPeriph_Driver\src/stm32f10x_gpio.c ****       if (currentpin == pos)
 237:.\stlib\STM32F10x_StdPeriph_Driver\src/stm32f10x_gpio.c ****       {
 238:.\stlib\STM32F10x_StdPeriph_Driver\src/stm32f10x_gpio.c ****         pos = pinpos << 2;
 239:.\stlib\STM32F10x_StdPeriph_Driver\src/stm32f10x_gpio.c ****         /* Clear the corresponding high control register bits */
 240:.\stlib\STM32F10x_StdPeriph_Driver\src/stm32f10x_gpio.c ****         pinmask = ((uint32_t)0x0F) << pos;
 456              		.loc 1 240 17 view .LVU102
 457 0128 4FF00F0E 		mov	lr, #15	@ tmp164,
 458              	@ .\stlib\STM32F10x_StdPeriph_Driver\src\stm32f10x_gpio.c:230:     tmpreg = GPIOx->CRH;
 230:.\stlib\STM32F10x_StdPeriph_Driver\src/stm32f10x_gpio.c ****     for (pinpos = 0x00; pinpos < 0x08; pinpos++)
 459              		.loc 1 230 12 view .LVU103
 460 012c 4168     		ldr	r1, [r0, #4]	@ tmpreg, GPIOx_33(D)->CRH
 461              	.LVL38:
 231:.\stlib\STM32F10x_StdPeriph_Driver\src/stm32f10x_gpio.c ****     for (pinpos = 0x00; pinpos < 0x08; pinpos++)
 462              		.loc 1 231 5 is_stmt 1 view .LVU104
 231:.\stlib\STM32F10x_StdPeriph_Driver\src/stm32f10x_gpio.c ****     for (pinpos = 0x00; pinpos < 0x08; pinpos++)
 463              		.loc 1 231 25 view .LVU105
 464              	.L22:
 233:.\stlib\STM32F10x_StdPeriph_Driver\src/stm32f10x_gpio.c ****       /* Get the port pins position */
 465              		.loc 1 233 7 view .LVU106
 466              	@ .\stlib\STM32F10x_StdPeriph_Driver\src\stm32f10x_gpio.c:233:       pos = (((uint32_t)0x01) << (pi
 233:.\stlib\STM32F10x_StdPeriph_Driver\src/stm32f10x_gpio.c ****       /* Get the port pins position */
 467              		.loc 1 233 11 is_stmt 0 view .LVU107
 468 012e 0CFA04F7 		lsl	r7, ip, r4	@ pos, tmp157, ivtmp.31
 469              	.LVL39:
 235:.\stlib\STM32F10x_StdPeriph_Driver\src/stm32f10x_gpio.c ****       if (currentpin == pos)
 470              		.loc 1 235 7 is_stmt 1 view .LVU108
 236:.\stlib\STM32F10x_StdPeriph_Driver\src/stm32f10x_gpio.c ****       {
 471              		.loc 1 236 7 view .LVU109
 472              	@ .\stlib\STM32F10x_StdPeriph_Driver\src\stm32f10x_gpio.c:236:       if (currentpin == pos)
 236:.\stlib\STM32F10x_StdPeriph_Driver\src/stm32f10x_gpio.c ****       {
 473              		.loc 1 236 10 is_stmt 0 view .LVU110
 474 0132 37EA0602 		bics	r2, r7, r6	@ tmp171, pos, _6
 475 0136 0CD1     		bne	.L20		@,
 238:.\stlib\STM32F10x_StdPeriph_Driver\src/stm32f10x_gpio.c ****         /* Clear the corresponding high control register bits */
 476              		.loc 1 238 9 is_stmt 1 view .LVU111
 477 0138 A200     		lsls	r2, r4, #2	@ tmp159, ivtmp.31,
 478 013a 203A     		subs	r2, r2, #32	@ _73, tmp159,
 479              	.LVL40:
 480              		.loc 1 240 9 view .LVU112
 241:.\stlib\STM32F10x_StdPeriph_Driver\src/stm32f10x_gpio.c ****         tmpreg &= ~pinmask;
 481              		.loc 1 241 9 view .LVU113
 482              	@ .\stlib\STM32F10x_StdPeriph_Driver\src\stm32f10x_gpio.c:240:         pinmask = ((uint32_t)0x0F) <
 240:.\stlib\STM32F10x_StdPeriph_Driver\src/stm32f10x_gpio.c ****         tmpreg &= ~pinmask;
 483              		.loc 1 240 17 is_stmt 0 view .LVU114
 484 013c 0EFA02F8 		lsl	r8, lr, r2	@ pinmask, tmp164, _73
 485              	@ .\stlib\STM32F10x_StdPeriph_Driver\src\stm32f10x_gpio.c:241:         tmpreg &= ~pinmask;
 486              		.loc 1 241 16 view .LVU115
 487 0140 21EA0801 		bic	r1, r1, r8	@ tmpreg, tmpreg, pinmask
 488              	.LVL41:
 242:.\stlib\STM32F10x_StdPeriph_Driver\src/stm32f10x_gpio.c ****         /* Write the mode configuration in the corresponding bits */
 243:.\stlib\STM32F10x_StdPeriph_Driver\src/stm32f10x_gpio.c ****         tmpreg |= (currentmode << pos);
 489              		.loc 1 243 9 is_stmt 1 view .LVU116
 490              	@ .\stlib\STM32F10x_StdPeriph_Driver\src\stm32f10x_gpio.c:243:         tmpreg |= (currentmode << po
ARM GAS  C:\Users\skey\AppData\Local\Temp\ccLMmMAg.s 			page 15


 491              		.loc 1 243 32 is_stmt 0 view .LVU117
 492 0144 05FA02F2 		lsl	r2, r5, r2	@ tmp163, _2, _73
 493              	.LVL42:
 494              	@ .\stlib\STM32F10x_StdPeriph_Driver\src\stm32f10x_gpio.c:245:         if (GPIO_InitStruct->GPIO_Mo
 244:.\stlib\STM32F10x_StdPeriph_Driver\src/stm32f10x_gpio.c ****         /* Reset the corresponding ODR bit */
 245:.\stlib\STM32F10x_StdPeriph_Driver\src/stm32f10x_gpio.c ****         if (GPIO_InitStruct->GPIO_Mode == GPIO_Mode_IPD)
 495              		.loc 1 245 12 view .LVU118
 496 0148 282B     		cmp	r3, #40	@ _1,
 497              	@ .\stlib\STM32F10x_StdPeriph_Driver\src\stm32f10x_gpio.c:243:         tmpreg |= (currentmode << po
 243:.\stlib\STM32F10x_StdPeriph_Driver\src/stm32f10x_gpio.c ****         /* Reset the corresponding ODR bit */
 498              		.loc 1 243 16 view .LVU119
 499 014a 41EA0201 		orr	r1, r1, r2	@ tmpreg, tmpreg, tmp163
 500              	.LVL43:
 501              		.loc 1 245 9 is_stmt 1 view .LVU120
 502              	@ .\stlib\STM32F10x_StdPeriph_Driver\src\stm32f10x_gpio.c:245:         if (GPIO_InitStruct->GPIO_Mo
 503              		.loc 1 245 12 is_stmt 0 view .LVU121
 504 014e 0AD1     		bne	.L21		@,
 246:.\stlib\STM32F10x_StdPeriph_Driver\src/stm32f10x_gpio.c ****         {
 247:.\stlib\STM32F10x_StdPeriph_Driver\src/stm32f10x_gpio.c ****           GPIOx->BRR = (((uint32_t)0x01) << (pinpos + 0x08));
 505              		.loc 1 247 11 is_stmt 1 view .LVU122
 506              	@ .\stlib\STM32F10x_StdPeriph_Driver\src\stm32f10x_gpio.c:247:           GPIOx->BRR = (((uint32_t)0
 507              		.loc 1 247 22 is_stmt 0 view .LVU123
 508 0150 4761     		str	r7, [r0, #20]	@ pos, GPIOx_33(D)->BRR
 248:.\stlib\STM32F10x_StdPeriph_Driver\src/stm32f10x_gpio.c ****         }
 249:.\stlib\STM32F10x_StdPeriph_Driver\src/stm32f10x_gpio.c ****         /* Set the corresponding ODR bit */
 250:.\stlib\STM32F10x_StdPeriph_Driver\src/stm32f10x_gpio.c ****         if (GPIO_InitStruct->GPIO_Mode == GPIO_Mode_IPU)
 509              		.loc 1 250 9 is_stmt 1 view .LVU124
 510              	.LVL44:
 511              	.L20:
 231:.\stlib\STM32F10x_StdPeriph_Driver\src/stm32f10x_gpio.c ****     {
 512              		.loc 1 231 40 discriminator 2 view .LVU125
 231:.\stlib\STM32F10x_StdPeriph_Driver\src/stm32f10x_gpio.c ****     {
 513              		.loc 1 231 25 discriminator 2 view .LVU126
 514 0152 0134     		adds	r4, r4, #1	@ ivtmp.31, ivtmp.31,
 515              	.LVL45:
 516              	@ .\stlib\STM32F10x_StdPeriph_Driver\src\stm32f10x_gpio.c:231:     for (pinpos = 0x00; pinpos < 0x0
 231:.\stlib\STM32F10x_StdPeriph_Driver\src/stm32f10x_gpio.c ****     {
 517              		.loc 1 231 5 is_stmt 0 discriminator 2 view .LVU127
 518 0154 102C     		cmp	r4, #16	@ ivtmp.31,
 519 0156 EAD1     		bne	.L22		@,
 251:.\stlib\STM32F10x_StdPeriph_Driver\src/stm32f10x_gpio.c ****         {
 252:.\stlib\STM32F10x_StdPeriph_Driver\src/stm32f10x_gpio.c ****           GPIOx->BSRR = (((uint32_t)0x01) << (pinpos + 0x08));
 253:.\stlib\STM32F10x_StdPeriph_Driver\src/stm32f10x_gpio.c ****         }
 254:.\stlib\STM32F10x_StdPeriph_Driver\src/stm32f10x_gpio.c ****       }
 255:.\stlib\STM32F10x_StdPeriph_Driver\src/stm32f10x_gpio.c ****     }
 256:.\stlib\STM32F10x_StdPeriph_Driver\src/stm32f10x_gpio.c ****     GPIOx->CRH = tmpreg;
 520              		.loc 1 256 5 is_stmt 1 view .LVU128
 521              	@ .\stlib\STM32F10x_StdPeriph_Driver\src\stm32f10x_gpio.c:256:     GPIOx->CRH = tmpreg;
 522              		.loc 1 256 16 is_stmt 0 view .LVU129
 523 0158 4160     		str	r1, [r0, #4]	@ tmpreg, GPIOx_33(D)->CRH
 524              	.LVL46:
 525              	.L13:
 526              	@ .\stlib\STM32F10x_StdPeriph_Driver\src\stm32f10x_gpio.c:258: }
 257:.\stlib\STM32F10x_StdPeriph_Driver\src/stm32f10x_gpio.c ****   }
 258:.\stlib\STM32F10x_StdPeriph_Driver\src/stm32f10x_gpio.c **** }
 527              		.loc 1 258 1 view .LVU130
 528 015a BDE8F081 		pop	{r4, r5, r6, r7, r8, pc}	@
ARM GAS  C:\Users\skey\AppData\Local\Temp\ccLMmMAg.s 			page 16


 529              	.LVL47:
 530              	.L17:
 217:.\stlib\STM32F10x_StdPeriph_Driver\src/stm32f10x_gpio.c ****           {
 531              		.loc 1 217 11 is_stmt 1 view .LVU131
 532              	@ .\stlib\STM32F10x_StdPeriph_Driver\src\stm32f10x_gpio.c:217:           if (GPIO_InitStruct->GPIO_
 217:.\stlib\STM32F10x_StdPeriph_Driver\src/stm32f10x_gpio.c ****           {
 533              		.loc 1 217 14 is_stmt 0 view .LVU132
 534 015e 482B     		cmp	r3, #72	@ _1,
 219:.\stlib\STM32F10x_StdPeriph_Driver\src/stm32f10x_gpio.c ****           }
 535              		.loc 1 219 13 is_stmt 1 view .LVU133
 536              	@ .\stlib\STM32F10x_StdPeriph_Driver\src\stm32f10x_gpio.c:219:             GPIOx->BSRR = (((uint32_
 219:.\stlib\STM32F10x_StdPeriph_Driver\src/stm32f10x_gpio.c ****           }
 537              		.loc 1 219 25 is_stmt 0 view .LVU134
 538 0160 08BF     		it	eq
 539 0162 0761     		streq	r7, [r0, #16]	@ pos, GPIOx_33(D)->BSRR
 540 0164 D7E7     		b	.L16		@
 541              	.LVL48:
 542              	.L21:
 250:.\stlib\STM32F10x_StdPeriph_Driver\src/stm32f10x_gpio.c ****         {
 543              		.loc 1 250 9 is_stmt 1 view .LVU135
 544              	@ .\stlib\STM32F10x_StdPeriph_Driver\src\stm32f10x_gpio.c:250:         if (GPIO_InitStruct->GPIO_Mo
 250:.\stlib\STM32F10x_StdPeriph_Driver\src/stm32f10x_gpio.c ****         {
 545              		.loc 1 250 12 is_stmt 0 view .LVU136
 546 0166 482B     		cmp	r3, #72	@ _1,
 252:.\stlib\STM32F10x_StdPeriph_Driver\src/stm32f10x_gpio.c ****         }
 547              		.loc 1 252 11 is_stmt 1 view .LVU137
 548              	@ .\stlib\STM32F10x_StdPeriph_Driver\src\stm32f10x_gpio.c:252:           GPIOx->BSRR = (((uint32_t)
 252:.\stlib\STM32F10x_StdPeriph_Driver\src/stm32f10x_gpio.c ****         }
 549              		.loc 1 252 23 is_stmt 0 view .LVU138
 550 0168 08BF     		it	eq
 551 016a 0761     		streq	r7, [r0, #16]	@ pos, GPIOx_33(D)->BSRR
 552 016c F1E7     		b	.L20		@
 553              		.cfi_endproc
 554              	.LFE31:
 555              		.size	GPIO_Init, .-GPIO_Init
 556              		.align	1
 557              		.global	GPIO_StructInit
 558              		.syntax unified
 559              		.thumb
 560              		.thumb_func
 561              		.fpu softvfp
 562              		.type	GPIO_StructInit, %function
 563              	GPIO_StructInit:
 564              	.LVL49:
 565              	.LFB32:
 259:.\stlib\STM32F10x_StdPeriph_Driver\src/stm32f10x_gpio.c **** 
 260:.\stlib\STM32F10x_StdPeriph_Driver\src/stm32f10x_gpio.c **** /**
 261:.\stlib\STM32F10x_StdPeriph_Driver\src/stm32f10x_gpio.c ****   * @brief  Fills each GPIO_InitStruct member with its default value.
 262:.\stlib\STM32F10x_StdPeriph_Driver\src/stm32f10x_gpio.c ****   * @param  GPIO_InitStruct : pointer to a GPIO_InitTypeDef structure which will
 263:.\stlib\STM32F10x_StdPeriph_Driver\src/stm32f10x_gpio.c ****   *         be initialized.
 264:.\stlib\STM32F10x_StdPeriph_Driver\src/stm32f10x_gpio.c ****   * @retval None
 265:.\stlib\STM32F10x_StdPeriph_Driver\src/stm32f10x_gpio.c ****   */
 266:.\stlib\STM32F10x_StdPeriph_Driver\src/stm32f10x_gpio.c **** void GPIO_StructInit(GPIO_InitTypeDef* GPIO_InitStruct)
 267:.\stlib\STM32F10x_StdPeriph_Driver\src/stm32f10x_gpio.c **** {
 566              		.loc 1 267 1 is_stmt 1 view -0
 567              		.cfi_startproc
 568              		@ args = 0, pretend = 0, frame = 0
ARM GAS  C:\Users\skey\AppData\Local\Temp\ccLMmMAg.s 			page 17


 569              		@ frame_needed = 0, uses_anonymous_args = 0
 570              		@ link register save eliminated.
 268:.\stlib\STM32F10x_StdPeriph_Driver\src/stm32f10x_gpio.c ****   /* Reset GPIO init structure parameters values */
 269:.\stlib\STM32F10x_StdPeriph_Driver\src/stm32f10x_gpio.c ****   GPIO_InitStruct->GPIO_Pin  = GPIO_Pin_All;
 571              		.loc 1 269 3 view .LVU140
 270:.\stlib\STM32F10x_StdPeriph_Driver\src/stm32f10x_gpio.c ****   GPIO_InitStruct->GPIO_Speed = GPIO_Speed_2MHz;
 572              		.loc 1 270 3 view .LVU141
 271:.\stlib\STM32F10x_StdPeriph_Driver\src/stm32f10x_gpio.c ****   GPIO_InitStruct->GPIO_Mode = GPIO_Mode_IN_FLOATING;
 573              		.loc 1 271 3 view .LVU142
 574              	@ .\stlib\STM32F10x_StdPeriph_Driver\src\stm32f10x_gpio.c:269:   GPIO_InitStruct->GPIO_Pin  = GPIO_
 269:.\stlib\STM32F10x_StdPeriph_Driver\src/stm32f10x_gpio.c ****   GPIO_InitStruct->GPIO_Speed = GPIO_Speed_2MHz;
 575              		.loc 1 269 30 is_stmt 0 view .LVU143
 576 016e 4FF6FF73 		movw	r3, #65535	@ tmp112,
 577 0172 0380     		strh	r3, [r0]	@ movhi	@ tmp112, GPIO_InitStruct_2(D)->GPIO_Pin
 578              	@ .\stlib\STM32F10x_StdPeriph_Driver\src\stm32f10x_gpio.c:270:   GPIO_InitStruct->GPIO_Speed = GPIO
 270:.\stlib\STM32F10x_StdPeriph_Driver\src/stm32f10x_gpio.c ****   GPIO_InitStruct->GPIO_Speed = GPIO_Speed_2MHz;
 579              		.loc 1 270 31 view .LVU144
 580 0174 40F20243 		movw	r3, #1026	@ tmp114,
 581 0178 4380     		strh	r3, [r0, #2]	@ movhi	@ tmp114, MEM[(void *)GPIO_InitStruct_2(D) + 2B]
 582              	@ .\stlib\STM32F10x_StdPeriph_Driver\src\stm32f10x_gpio.c:272: }
 272:.\stlib\STM32F10x_StdPeriph_Driver\src/stm32f10x_gpio.c **** }
 583              		.loc 1 272 1 view .LVU145
 584 017a 7047     		bx	lr	@
 585              		.cfi_endproc
 586              	.LFE32:
 587              		.size	GPIO_StructInit, .-GPIO_StructInit
 588              		.align	1
 589              		.global	GPIO_ReadInputDataBit
 590              		.syntax unified
 591              		.thumb
 592              		.thumb_func
 593              		.fpu softvfp
 594              		.type	GPIO_ReadInputDataBit, %function
 595              	GPIO_ReadInputDataBit:
 596              	.LVL50:
 597              	.LFB33:
 273:.\stlib\STM32F10x_StdPeriph_Driver\src/stm32f10x_gpio.c **** 
 274:.\stlib\STM32F10x_StdPeriph_Driver\src/stm32f10x_gpio.c **** /**
 275:.\stlib\STM32F10x_StdPeriph_Driver\src/stm32f10x_gpio.c ****   * @brief  Reads the specified input port pin.
 276:.\stlib\STM32F10x_StdPeriph_Driver\src/stm32f10x_gpio.c ****   * @param  GPIOx: where x can be (A..G) to select the GPIO peripheral.
 277:.\stlib\STM32F10x_StdPeriph_Driver\src/stm32f10x_gpio.c ****   * @param  GPIO_Pin:  specifies the port bit to read.
 278:.\stlib\STM32F10x_StdPeriph_Driver\src/stm32f10x_gpio.c ****   *   This parameter can be GPIO_Pin_x where x can be (0..15).
 279:.\stlib\STM32F10x_StdPeriph_Driver\src/stm32f10x_gpio.c ****   * @retval The input port pin value.
 280:.\stlib\STM32F10x_StdPeriph_Driver\src/stm32f10x_gpio.c ****   */
 281:.\stlib\STM32F10x_StdPeriph_Driver\src/stm32f10x_gpio.c **** uint8_t GPIO_ReadInputDataBit(GPIO_TypeDef* GPIOx, uint16_t GPIO_Pin)
 282:.\stlib\STM32F10x_StdPeriph_Driver\src/stm32f10x_gpio.c **** {
 598              		.loc 1 282 1 is_stmt 1 view -0
 599              		.cfi_startproc
 600              		@ args = 0, pretend = 0, frame = 0
 601              		@ frame_needed = 0, uses_anonymous_args = 0
 602              		@ link register save eliminated.
 283:.\stlib\STM32F10x_StdPeriph_Driver\src/stm32f10x_gpio.c ****   uint8_t bitstatus = 0x00;
 603              		.loc 1 283 3 view .LVU147
 284:.\stlib\STM32F10x_StdPeriph_Driver\src/stm32f10x_gpio.c ****   
 285:.\stlib\STM32F10x_StdPeriph_Driver\src/stm32f10x_gpio.c ****   /* Check the parameters */
 286:.\stlib\STM32F10x_StdPeriph_Driver\src/stm32f10x_gpio.c ****   assert_param(IS_GPIO_ALL_PERIPH(GPIOx));
 604              		.loc 1 286 3 view .LVU148
ARM GAS  C:\Users\skey\AppData\Local\Temp\ccLMmMAg.s 			page 18


 287:.\stlib\STM32F10x_StdPeriph_Driver\src/stm32f10x_gpio.c ****   assert_param(IS_GET_GPIO_PIN(GPIO_Pin)); 
 605              		.loc 1 287 3 view .LVU149
 288:.\stlib\STM32F10x_StdPeriph_Driver\src/stm32f10x_gpio.c ****   
 289:.\stlib\STM32F10x_StdPeriph_Driver\src/stm32f10x_gpio.c ****   if ((GPIOx->IDR & GPIO_Pin) != (uint32_t)Bit_RESET)
 606              		.loc 1 289 3 view .LVU150
 607              	@ .\stlib\STM32F10x_StdPeriph_Driver\src\stm32f10x_gpio.c:289:   if ((GPIOx->IDR & GPIO_Pin) != (ui
 608              		.loc 1 289 13 is_stmt 0 view .LVU151
 609 017c 8368     		ldr	r3, [r0, #8]	@ _1, GPIOx_6(D)->IDR
 610              	.LVL51:
 290:.\stlib\STM32F10x_StdPeriph_Driver\src/stm32f10x_gpio.c ****   {
 291:.\stlib\STM32F10x_StdPeriph_Driver\src/stm32f10x_gpio.c ****     bitstatus = (uint8_t)Bit_SET;
 292:.\stlib\STM32F10x_StdPeriph_Driver\src/stm32f10x_gpio.c ****   }
 293:.\stlib\STM32F10x_StdPeriph_Driver\src/stm32f10x_gpio.c ****   else
 294:.\stlib\STM32F10x_StdPeriph_Driver\src/stm32f10x_gpio.c ****   {
 295:.\stlib\STM32F10x_StdPeriph_Driver\src/stm32f10x_gpio.c ****     bitstatus = (uint8_t)Bit_RESET;
 296:.\stlib\STM32F10x_StdPeriph_Driver\src/stm32f10x_gpio.c ****   }
 297:.\stlib\STM32F10x_StdPeriph_Driver\src/stm32f10x_gpio.c ****   return bitstatus;
 611              		.loc 1 297 3 is_stmt 1 view .LVU152
 612              	@ .\stlib\STM32F10x_StdPeriph_Driver\src\stm32f10x_gpio.c:289:   if ((GPIOx->IDR & GPIO_Pin) != (ui
 289:.\stlib\STM32F10x_StdPeriph_Driver\src/stm32f10x_gpio.c ****   {
 613              		.loc 1 289 6 is_stmt 0 view .LVU153
 614 017e 1942     		tst	r1, r3	@ tmp122, _1
 615              	@ .\stlib\STM32F10x_StdPeriph_Driver\src\stm32f10x_gpio.c:298: }
 298:.\stlib\STM32F10x_StdPeriph_Driver\src/stm32f10x_gpio.c **** }
 616              		.loc 1 298 1 view .LVU154
 617 0180 14BF     		ite	ne
 618 0182 0120     		movne	r0, #1	@,
 619              	.LVL52:
 620              		.loc 1 298 1 view .LVU155
 621 0184 0020     		moveq	r0, #0	@,
 622 0186 7047     		bx	lr	@
 623              		.cfi_endproc
 624              	.LFE33:
 625              		.size	GPIO_ReadInputDataBit, .-GPIO_ReadInputDataBit
 626              		.align	1
 627              		.global	GPIO_ReadInputData
 628              		.syntax unified
 629              		.thumb
 630              		.thumb_func
 631              		.fpu softvfp
 632              		.type	GPIO_ReadInputData, %function
 633              	GPIO_ReadInputData:
 634              	.LVL53:
 635              	.LFB34:
 299:.\stlib\STM32F10x_StdPeriph_Driver\src/stm32f10x_gpio.c **** 
 300:.\stlib\STM32F10x_StdPeriph_Driver\src/stm32f10x_gpio.c **** /**
 301:.\stlib\STM32F10x_StdPeriph_Driver\src/stm32f10x_gpio.c ****   * @brief  Reads the specified GPIO input data port.
 302:.\stlib\STM32F10x_StdPeriph_Driver\src/stm32f10x_gpio.c ****   * @param  GPIOx: where x can be (A..G) to select the GPIO peripheral.
 303:.\stlib\STM32F10x_StdPeriph_Driver\src/stm32f10x_gpio.c ****   * @retval GPIO input data port value.
 304:.\stlib\STM32F10x_StdPeriph_Driver\src/stm32f10x_gpio.c ****   */
 305:.\stlib\STM32F10x_StdPeriph_Driver\src/stm32f10x_gpio.c **** uint16_t GPIO_ReadInputData(GPIO_TypeDef* GPIOx)
 306:.\stlib\STM32F10x_StdPeriph_Driver\src/stm32f10x_gpio.c **** {
 636              		.loc 1 306 1 is_stmt 1 view -0
 637              		.cfi_startproc
 638              		@ args = 0, pretend = 0, frame = 0
 639              		@ frame_needed = 0, uses_anonymous_args = 0
 640              		@ link register save eliminated.
ARM GAS  C:\Users\skey\AppData\Local\Temp\ccLMmMAg.s 			page 19


 307:.\stlib\STM32F10x_StdPeriph_Driver\src/stm32f10x_gpio.c ****   /* Check the parameters */
 308:.\stlib\STM32F10x_StdPeriph_Driver\src/stm32f10x_gpio.c ****   assert_param(IS_GPIO_ALL_PERIPH(GPIOx));
 641              		.loc 1 308 3 view .LVU157
 309:.\stlib\STM32F10x_StdPeriph_Driver\src/stm32f10x_gpio.c ****   
 310:.\stlib\STM32F10x_StdPeriph_Driver\src/stm32f10x_gpio.c ****   return ((uint16_t)GPIOx->IDR);
 642              		.loc 1 310 3 view .LVU158
 643              	@ .\stlib\STM32F10x_StdPeriph_Driver\src\stm32f10x_gpio.c:310:   return ((uint16_t)GPIOx->IDR);
 644              		.loc 1 310 26 is_stmt 0 view .LVU159
 645 0188 8068     		ldr	r0, [r0, #8]	@ _1, GPIOx_3(D)->IDR
 646              	.LVL54:
 647              	@ .\stlib\STM32F10x_StdPeriph_Driver\src\stm32f10x_gpio.c:311: }
 311:.\stlib\STM32F10x_StdPeriph_Driver\src/stm32f10x_gpio.c **** }
 648              		.loc 1 311 1 view .LVU160
 649 018a 80B2     		uxth	r0, r0	@, _1
 650 018c 7047     		bx	lr	@
 651              		.cfi_endproc
 652              	.LFE34:
 653              		.size	GPIO_ReadInputData, .-GPIO_ReadInputData
 654              		.align	1
 655              		.global	GPIO_ReadOutputDataBit
 656              		.syntax unified
 657              		.thumb
 658              		.thumb_func
 659              		.fpu softvfp
 660              		.type	GPIO_ReadOutputDataBit, %function
 661              	GPIO_ReadOutputDataBit:
 662              	.LVL55:
 663              	.LFB35:
 312:.\stlib\STM32F10x_StdPeriph_Driver\src/stm32f10x_gpio.c **** 
 313:.\stlib\STM32F10x_StdPeriph_Driver\src/stm32f10x_gpio.c **** /**
 314:.\stlib\STM32F10x_StdPeriph_Driver\src/stm32f10x_gpio.c ****   * @brief  Reads the specified output data port bit.
 315:.\stlib\STM32F10x_StdPeriph_Driver\src/stm32f10x_gpio.c ****   * @param  GPIOx: where x can be (A..G) to select the GPIO peripheral.
 316:.\stlib\STM32F10x_StdPeriph_Driver\src/stm32f10x_gpio.c ****   * @param  GPIO_Pin:  specifies the port bit to read.
 317:.\stlib\STM32F10x_StdPeriph_Driver\src/stm32f10x_gpio.c ****   *   This parameter can be GPIO_Pin_x where x can be (0..15).
 318:.\stlib\STM32F10x_StdPeriph_Driver\src/stm32f10x_gpio.c ****   * @retval The output port pin value.
 319:.\stlib\STM32F10x_StdPeriph_Driver\src/stm32f10x_gpio.c ****   */
 320:.\stlib\STM32F10x_StdPeriph_Driver\src/stm32f10x_gpio.c **** uint8_t GPIO_ReadOutputDataBit(GPIO_TypeDef* GPIOx, uint16_t GPIO_Pin)
 321:.\stlib\STM32F10x_StdPeriph_Driver\src/stm32f10x_gpio.c **** {
 664              		.loc 1 321 1 is_stmt 1 view -0
 665              		.cfi_startproc
 666              		@ args = 0, pretend = 0, frame = 0
 667              		@ frame_needed = 0, uses_anonymous_args = 0
 668              		@ link register save eliminated.
 322:.\stlib\STM32F10x_StdPeriph_Driver\src/stm32f10x_gpio.c ****   uint8_t bitstatus = 0x00;
 669              		.loc 1 322 3 view .LVU162
 323:.\stlib\STM32F10x_StdPeriph_Driver\src/stm32f10x_gpio.c ****   /* Check the parameters */
 324:.\stlib\STM32F10x_StdPeriph_Driver\src/stm32f10x_gpio.c ****   assert_param(IS_GPIO_ALL_PERIPH(GPIOx));
 670              		.loc 1 324 3 view .LVU163
 325:.\stlib\STM32F10x_StdPeriph_Driver\src/stm32f10x_gpio.c ****   assert_param(IS_GET_GPIO_PIN(GPIO_Pin)); 
 671              		.loc 1 325 3 view .LVU164
 326:.\stlib\STM32F10x_StdPeriph_Driver\src/stm32f10x_gpio.c ****   
 327:.\stlib\STM32F10x_StdPeriph_Driver\src/stm32f10x_gpio.c ****   if ((GPIOx->ODR & GPIO_Pin) != (uint32_t)Bit_RESET)
 672              		.loc 1 327 3 view .LVU165
 673              	@ .\stlib\STM32F10x_StdPeriph_Driver\src\stm32f10x_gpio.c:327:   if ((GPIOx->ODR & GPIO_Pin) != (ui
 674              		.loc 1 327 13 is_stmt 0 view .LVU166
 675 018e C368     		ldr	r3, [r0, #12]	@ _1, GPIOx_6(D)->ODR
 676              	.LVL56:
ARM GAS  C:\Users\skey\AppData\Local\Temp\ccLMmMAg.s 			page 20


 328:.\stlib\STM32F10x_StdPeriph_Driver\src/stm32f10x_gpio.c ****   {
 329:.\stlib\STM32F10x_StdPeriph_Driver\src/stm32f10x_gpio.c ****     bitstatus = (uint8_t)Bit_SET;
 330:.\stlib\STM32F10x_StdPeriph_Driver\src/stm32f10x_gpio.c ****   }
 331:.\stlib\STM32F10x_StdPeriph_Driver\src/stm32f10x_gpio.c ****   else
 332:.\stlib\STM32F10x_StdPeriph_Driver\src/stm32f10x_gpio.c ****   {
 333:.\stlib\STM32F10x_StdPeriph_Driver\src/stm32f10x_gpio.c ****     bitstatus = (uint8_t)Bit_RESET;
 334:.\stlib\STM32F10x_StdPeriph_Driver\src/stm32f10x_gpio.c ****   }
 335:.\stlib\STM32F10x_StdPeriph_Driver\src/stm32f10x_gpio.c ****   return bitstatus;
 677              		.loc 1 335 3 is_stmt 1 view .LVU167
 678              	@ .\stlib\STM32F10x_StdPeriph_Driver\src\stm32f10x_gpio.c:327:   if ((GPIOx->ODR & GPIO_Pin) != (ui
 327:.\stlib\STM32F10x_StdPeriph_Driver\src/stm32f10x_gpio.c ****   {
 679              		.loc 1 327 6 is_stmt 0 view .LVU168
 680 0190 1942     		tst	r1, r3	@ tmp122, _1
 681              	@ .\stlib\STM32F10x_StdPeriph_Driver\src\stm32f10x_gpio.c:336: }
 336:.\stlib\STM32F10x_StdPeriph_Driver\src/stm32f10x_gpio.c **** }
 682              		.loc 1 336 1 view .LVU169
 683 0192 14BF     		ite	ne
 684 0194 0120     		movne	r0, #1	@,
 685              	.LVL57:
 686              		.loc 1 336 1 view .LVU170
 687 0196 0020     		moveq	r0, #0	@,
 688 0198 7047     		bx	lr	@
 689              		.cfi_endproc
 690              	.LFE35:
 691              		.size	GPIO_ReadOutputDataBit, .-GPIO_ReadOutputDataBit
 692              		.align	1
 693              		.global	GPIO_ReadOutputData
 694              		.syntax unified
 695              		.thumb
 696              		.thumb_func
 697              		.fpu softvfp
 698              		.type	GPIO_ReadOutputData, %function
 699              	GPIO_ReadOutputData:
 700              	.LVL58:
 701              	.LFB36:
 337:.\stlib\STM32F10x_StdPeriph_Driver\src/stm32f10x_gpio.c **** 
 338:.\stlib\STM32F10x_StdPeriph_Driver\src/stm32f10x_gpio.c **** /**
 339:.\stlib\STM32F10x_StdPeriph_Driver\src/stm32f10x_gpio.c ****   * @brief  Reads the specified GPIO output data port.
 340:.\stlib\STM32F10x_StdPeriph_Driver\src/stm32f10x_gpio.c ****   * @param  GPIOx: where x can be (A..G) to select the GPIO peripheral.
 341:.\stlib\STM32F10x_StdPeriph_Driver\src/stm32f10x_gpio.c ****   * @retval GPIO output data port value.
 342:.\stlib\STM32F10x_StdPeriph_Driver\src/stm32f10x_gpio.c ****   */
 343:.\stlib\STM32F10x_StdPeriph_Driver\src/stm32f10x_gpio.c **** uint16_t GPIO_ReadOutputData(GPIO_TypeDef* GPIOx)
 344:.\stlib\STM32F10x_StdPeriph_Driver\src/stm32f10x_gpio.c **** {
 702              		.loc 1 344 1 is_stmt 1 view -0
 703              		.cfi_startproc
 704              		@ args = 0, pretend = 0, frame = 0
 705              		@ frame_needed = 0, uses_anonymous_args = 0
 706              		@ link register save eliminated.
 345:.\stlib\STM32F10x_StdPeriph_Driver\src/stm32f10x_gpio.c ****   /* Check the parameters */
 346:.\stlib\STM32F10x_StdPeriph_Driver\src/stm32f10x_gpio.c ****   assert_param(IS_GPIO_ALL_PERIPH(GPIOx));
 707              		.loc 1 346 3 view .LVU172
 347:.\stlib\STM32F10x_StdPeriph_Driver\src/stm32f10x_gpio.c ****     
 348:.\stlib\STM32F10x_StdPeriph_Driver\src/stm32f10x_gpio.c ****   return ((uint16_t)GPIOx->ODR);
 708              		.loc 1 348 3 view .LVU173
 709              	@ .\stlib\STM32F10x_StdPeriph_Driver\src\stm32f10x_gpio.c:348:   return ((uint16_t)GPIOx->ODR);
 710              		.loc 1 348 26 is_stmt 0 view .LVU174
 711 019a C068     		ldr	r0, [r0, #12]	@ _1, GPIOx_3(D)->ODR
ARM GAS  C:\Users\skey\AppData\Local\Temp\ccLMmMAg.s 			page 21


 712              	.LVL59:
 713              	@ .\stlib\STM32F10x_StdPeriph_Driver\src\stm32f10x_gpio.c:349: }
 349:.\stlib\STM32F10x_StdPeriph_Driver\src/stm32f10x_gpio.c **** }
 714              		.loc 1 349 1 view .LVU175
 715 019c 80B2     		uxth	r0, r0	@, _1
 716 019e 7047     		bx	lr	@
 717              		.cfi_endproc
 718              	.LFE36:
 719              		.size	GPIO_ReadOutputData, .-GPIO_ReadOutputData
 720              		.align	1
 721              		.global	GPIO_SetBits
 722              		.syntax unified
 723              		.thumb
 724              		.thumb_func
 725              		.fpu softvfp
 726              		.type	GPIO_SetBits, %function
 727              	GPIO_SetBits:
 728              	.LVL60:
 729              	.LFB37:
 350:.\stlib\STM32F10x_StdPeriph_Driver\src/stm32f10x_gpio.c **** 
 351:.\stlib\STM32F10x_StdPeriph_Driver\src/stm32f10x_gpio.c **** /**
 352:.\stlib\STM32F10x_StdPeriph_Driver\src/stm32f10x_gpio.c ****   * @brief  Sets the selected data port bits.
 353:.\stlib\STM32F10x_StdPeriph_Driver\src/stm32f10x_gpio.c ****   * @param  GPIOx: where x can be (A..G) to select the GPIO peripheral.
 354:.\stlib\STM32F10x_StdPeriph_Driver\src/stm32f10x_gpio.c ****   * @param  GPIO_Pin: specifies the port bits to be written.
 355:.\stlib\STM32F10x_StdPeriph_Driver\src/stm32f10x_gpio.c ****   *   This parameter can be any combination of GPIO_Pin_x where x can be (0..15).
 356:.\stlib\STM32F10x_StdPeriph_Driver\src/stm32f10x_gpio.c ****   * @retval None
 357:.\stlib\STM32F10x_StdPeriph_Driver\src/stm32f10x_gpio.c ****   */
 358:.\stlib\STM32F10x_StdPeriph_Driver\src/stm32f10x_gpio.c **** void GPIO_SetBits(GPIO_TypeDef* GPIOx, uint16_t GPIO_Pin)
 359:.\stlib\STM32F10x_StdPeriph_Driver\src/stm32f10x_gpio.c **** {
 730              		.loc 1 359 1 is_stmt 1 view -0
 731              		.cfi_startproc
 732              		@ args = 0, pretend = 0, frame = 0
 733              		@ frame_needed = 0, uses_anonymous_args = 0
 734              		@ link register save eliminated.
 360:.\stlib\STM32F10x_StdPeriph_Driver\src/stm32f10x_gpio.c ****   /* Check the parameters */
 361:.\stlib\STM32F10x_StdPeriph_Driver\src/stm32f10x_gpio.c ****   assert_param(IS_GPIO_ALL_PERIPH(GPIOx));
 735              		.loc 1 361 3 view .LVU177
 362:.\stlib\STM32F10x_StdPeriph_Driver\src/stm32f10x_gpio.c ****   assert_param(IS_GPIO_PIN(GPIO_Pin));
 736              		.loc 1 362 3 view .LVU178
 363:.\stlib\STM32F10x_StdPeriph_Driver\src/stm32f10x_gpio.c ****   
 364:.\stlib\STM32F10x_StdPeriph_Driver\src/stm32f10x_gpio.c ****   GPIOx->BSRR = GPIO_Pin;
 737              		.loc 1 364 3 view .LVU179
 738              	@ .\stlib\STM32F10x_StdPeriph_Driver\src\stm32f10x_gpio.c:364:   GPIOx->BSRR = GPIO_Pin;
 739              		.loc 1 364 15 is_stmt 0 view .LVU180
 740 01a0 0161     		str	r1, [r0, #16]	@ GPIO_Pin, GPIOx_4(D)->BSRR
 741              	@ .\stlib\STM32F10x_StdPeriph_Driver\src\stm32f10x_gpio.c:365: }
 365:.\stlib\STM32F10x_StdPeriph_Driver\src/stm32f10x_gpio.c **** }
 742              		.loc 1 365 1 view .LVU181
 743 01a2 7047     		bx	lr	@
 744              		.cfi_endproc
 745              	.LFE37:
 746              		.size	GPIO_SetBits, .-GPIO_SetBits
 747              		.align	1
 748              		.global	GPIO_ResetBits
 749              		.syntax unified
 750              		.thumb
 751              		.thumb_func
ARM GAS  C:\Users\skey\AppData\Local\Temp\ccLMmMAg.s 			page 22


 752              		.fpu softvfp
 753              		.type	GPIO_ResetBits, %function
 754              	GPIO_ResetBits:
 755              	.LVL61:
 756              	.LFB38:
 366:.\stlib\STM32F10x_StdPeriph_Driver\src/stm32f10x_gpio.c **** 
 367:.\stlib\STM32F10x_StdPeriph_Driver\src/stm32f10x_gpio.c **** /**
 368:.\stlib\STM32F10x_StdPeriph_Driver\src/stm32f10x_gpio.c ****   * @brief  Clears the selected data port bits.
 369:.\stlib\STM32F10x_StdPeriph_Driver\src/stm32f10x_gpio.c ****   * @param  GPIOx: where x can be (A..G) to select the GPIO peripheral.
 370:.\stlib\STM32F10x_StdPeriph_Driver\src/stm32f10x_gpio.c ****   * @param  GPIO_Pin: specifies the port bits to be written.
 371:.\stlib\STM32F10x_StdPeriph_Driver\src/stm32f10x_gpio.c ****   *   This parameter can be any combination of GPIO_Pin_x where x can be (0..15).
 372:.\stlib\STM32F10x_StdPeriph_Driver\src/stm32f10x_gpio.c ****   * @retval None
 373:.\stlib\STM32F10x_StdPeriph_Driver\src/stm32f10x_gpio.c ****   */
 374:.\stlib\STM32F10x_StdPeriph_Driver\src/stm32f10x_gpio.c **** void GPIO_ResetBits(GPIO_TypeDef* GPIOx, uint16_t GPIO_Pin)
 375:.\stlib\STM32F10x_StdPeriph_Driver\src/stm32f10x_gpio.c **** {
 757              		.loc 1 375 1 is_stmt 1 view -0
 758              		.cfi_startproc
 759              		@ args = 0, pretend = 0, frame = 0
 760              		@ frame_needed = 0, uses_anonymous_args = 0
 761              		@ link register save eliminated.
 376:.\stlib\STM32F10x_StdPeriph_Driver\src/stm32f10x_gpio.c ****   /* Check the parameters */
 377:.\stlib\STM32F10x_StdPeriph_Driver\src/stm32f10x_gpio.c ****   assert_param(IS_GPIO_ALL_PERIPH(GPIOx));
 762              		.loc 1 377 3 view .LVU183
 378:.\stlib\STM32F10x_StdPeriph_Driver\src/stm32f10x_gpio.c ****   assert_param(IS_GPIO_PIN(GPIO_Pin));
 763              		.loc 1 378 3 view .LVU184
 379:.\stlib\STM32F10x_StdPeriph_Driver\src/stm32f10x_gpio.c ****   
 380:.\stlib\STM32F10x_StdPeriph_Driver\src/stm32f10x_gpio.c ****   GPIOx->BRR = GPIO_Pin;
 764              		.loc 1 380 3 view .LVU185
 765              	@ .\stlib\STM32F10x_StdPeriph_Driver\src\stm32f10x_gpio.c:380:   GPIOx->BRR = GPIO_Pin;
 766              		.loc 1 380 14 is_stmt 0 view .LVU186
 767 01a4 4161     		str	r1, [r0, #20]	@ GPIO_Pin, GPIOx_4(D)->BRR
 768              	@ .\stlib\STM32F10x_StdPeriph_Driver\src\stm32f10x_gpio.c:381: }
 381:.\stlib\STM32F10x_StdPeriph_Driver\src/stm32f10x_gpio.c **** }
 769              		.loc 1 381 1 view .LVU187
 770 01a6 7047     		bx	lr	@
 771              		.cfi_endproc
 772              	.LFE38:
 773              		.size	GPIO_ResetBits, .-GPIO_ResetBits
 774              		.align	1
 775              		.global	GPIO_WriteBit
 776              		.syntax unified
 777              		.thumb
 778              		.thumb_func
 779              		.fpu softvfp
 780              		.type	GPIO_WriteBit, %function
 781              	GPIO_WriteBit:
 782              	.LVL62:
 783              	.LFB39:
 382:.\stlib\STM32F10x_StdPeriph_Driver\src/stm32f10x_gpio.c **** 
 383:.\stlib\STM32F10x_StdPeriph_Driver\src/stm32f10x_gpio.c **** /**
 384:.\stlib\STM32F10x_StdPeriph_Driver\src/stm32f10x_gpio.c ****   * @brief  Sets or clears the selected data port bit.
 385:.\stlib\STM32F10x_StdPeriph_Driver\src/stm32f10x_gpio.c ****   * @param  GPIOx: where x can be (A..G) to select the GPIO peripheral.
 386:.\stlib\STM32F10x_StdPeriph_Driver\src/stm32f10x_gpio.c ****   * @param  GPIO_Pin: specifies the port bit to be written.
 387:.\stlib\STM32F10x_StdPeriph_Driver\src/stm32f10x_gpio.c ****   *   This parameter can be one of GPIO_Pin_x where x can be (0..15).
 388:.\stlib\STM32F10x_StdPeriph_Driver\src/stm32f10x_gpio.c ****   * @param  BitVal: specifies the value to be written to the selected bit.
 389:.\stlib\STM32F10x_StdPeriph_Driver\src/stm32f10x_gpio.c ****   *   This parameter can be one of the BitAction enum values:
 390:.\stlib\STM32F10x_StdPeriph_Driver\src/stm32f10x_gpio.c ****   *     @arg Bit_RESET: to clear the port pin
ARM GAS  C:\Users\skey\AppData\Local\Temp\ccLMmMAg.s 			page 23


 391:.\stlib\STM32F10x_StdPeriph_Driver\src/stm32f10x_gpio.c ****   *     @arg Bit_SET: to set the port pin
 392:.\stlib\STM32F10x_StdPeriph_Driver\src/stm32f10x_gpio.c ****   * @retval None
 393:.\stlib\STM32F10x_StdPeriph_Driver\src/stm32f10x_gpio.c ****   */
 394:.\stlib\STM32F10x_StdPeriph_Driver\src/stm32f10x_gpio.c **** void GPIO_WriteBit(GPIO_TypeDef* GPIOx, uint16_t GPIO_Pin, BitAction BitVal)
 395:.\stlib\STM32F10x_StdPeriph_Driver\src/stm32f10x_gpio.c **** {
 784              		.loc 1 395 1 is_stmt 1 view -0
 785              		.cfi_startproc
 786              		@ args = 0, pretend = 0, frame = 0
 787              		@ frame_needed = 0, uses_anonymous_args = 0
 788              		@ link register save eliminated.
 396:.\stlib\STM32F10x_StdPeriph_Driver\src/stm32f10x_gpio.c ****   /* Check the parameters */
 397:.\stlib\STM32F10x_StdPeriph_Driver\src/stm32f10x_gpio.c ****   assert_param(IS_GPIO_ALL_PERIPH(GPIOx));
 789              		.loc 1 397 3 view .LVU189
 398:.\stlib\STM32F10x_StdPeriph_Driver\src/stm32f10x_gpio.c ****   assert_param(IS_GET_GPIO_PIN(GPIO_Pin));
 790              		.loc 1 398 3 view .LVU190
 399:.\stlib\STM32F10x_StdPeriph_Driver\src/stm32f10x_gpio.c ****   assert_param(IS_GPIO_BIT_ACTION(BitVal)); 
 791              		.loc 1 399 3 view .LVU191
 400:.\stlib\STM32F10x_StdPeriph_Driver\src/stm32f10x_gpio.c ****   
 401:.\stlib\STM32F10x_StdPeriph_Driver\src/stm32f10x_gpio.c ****   if (BitVal != Bit_RESET)
 792              		.loc 1 401 3 view .LVU192
 793              	@ .\stlib\STM32F10x_StdPeriph_Driver\src\stm32f10x_gpio.c:401:   if (BitVal != Bit_RESET)
 794              		.loc 1 401 6 is_stmt 0 view .LVU193
 795 01a8 0AB1     		cbz	r2, .L39	@ tmp116,
 402:.\stlib\STM32F10x_StdPeriph_Driver\src/stm32f10x_gpio.c ****   {
 403:.\stlib\STM32F10x_StdPeriph_Driver\src/stm32f10x_gpio.c ****     GPIOx->BSRR = GPIO_Pin;
 796              		.loc 1 403 5 is_stmt 1 view .LVU194
 797              	@ .\stlib\STM32F10x_StdPeriph_Driver\src\stm32f10x_gpio.c:403:     GPIOx->BSRR = GPIO_Pin;
 798              		.loc 1 403 17 is_stmt 0 view .LVU195
 799 01aa 0161     		str	r1, [r0, #16]	@ GPIO_Pin, GPIOx_7(D)->BSRR
 800 01ac 7047     		bx	lr	@
 801              	.L39:
 404:.\stlib\STM32F10x_StdPeriph_Driver\src/stm32f10x_gpio.c ****   }
 405:.\stlib\STM32F10x_StdPeriph_Driver\src/stm32f10x_gpio.c ****   else
 406:.\stlib\STM32F10x_StdPeriph_Driver\src/stm32f10x_gpio.c ****   {
 407:.\stlib\STM32F10x_StdPeriph_Driver\src/stm32f10x_gpio.c ****     GPIOx->BRR = GPIO_Pin;
 802              		.loc 1 407 5 is_stmt 1 view .LVU196
 803              	@ .\stlib\STM32F10x_StdPeriph_Driver\src\stm32f10x_gpio.c:407:     GPIOx->BRR = GPIO_Pin;
 804              		.loc 1 407 16 is_stmt 0 view .LVU197
 805 01ae 4161     		str	r1, [r0, #20]	@ GPIO_Pin, GPIOx_7(D)->BRR
 806              	@ .\stlib\STM32F10x_StdPeriph_Driver\src\stm32f10x_gpio.c:409: }
 408:.\stlib\STM32F10x_StdPeriph_Driver\src/stm32f10x_gpio.c ****   }
 409:.\stlib\STM32F10x_StdPeriph_Driver\src/stm32f10x_gpio.c **** }
 807              		.loc 1 409 1 view .LVU198
 808 01b0 7047     		bx	lr	@
 809              		.cfi_endproc
 810              	.LFE39:
 811              		.size	GPIO_WriteBit, .-GPIO_WriteBit
 812              		.align	1
 813              		.global	GPIO_Write
 814              		.syntax unified
 815              		.thumb
 816              		.thumb_func
 817              		.fpu softvfp
 818              		.type	GPIO_Write, %function
 819              	GPIO_Write:
 820              	.LVL63:
 821              	.LFB40:
ARM GAS  C:\Users\skey\AppData\Local\Temp\ccLMmMAg.s 			page 24


 410:.\stlib\STM32F10x_StdPeriph_Driver\src/stm32f10x_gpio.c **** 
 411:.\stlib\STM32F10x_StdPeriph_Driver\src/stm32f10x_gpio.c **** /**
 412:.\stlib\STM32F10x_StdPeriph_Driver\src/stm32f10x_gpio.c ****   * @brief  Writes data to the specified GPIO data port.
 413:.\stlib\STM32F10x_StdPeriph_Driver\src/stm32f10x_gpio.c ****   * @param  GPIOx: where x can be (A..G) to select the GPIO peripheral.
 414:.\stlib\STM32F10x_StdPeriph_Driver\src/stm32f10x_gpio.c ****   * @param  PortVal: specifies the value to be written to the port output data register.
 415:.\stlib\STM32F10x_StdPeriph_Driver\src/stm32f10x_gpio.c ****   * @retval None
 416:.\stlib\STM32F10x_StdPeriph_Driver\src/stm32f10x_gpio.c ****   */
 417:.\stlib\STM32F10x_StdPeriph_Driver\src/stm32f10x_gpio.c **** void GPIO_Write(GPIO_TypeDef* GPIOx, uint16_t PortVal)
 418:.\stlib\STM32F10x_StdPeriph_Driver\src/stm32f10x_gpio.c **** {
 822              		.loc 1 418 1 is_stmt 1 view -0
 823              		.cfi_startproc
 824              		@ args = 0, pretend = 0, frame = 0
 825              		@ frame_needed = 0, uses_anonymous_args = 0
 826              		@ link register save eliminated.
 419:.\stlib\STM32F10x_StdPeriph_Driver\src/stm32f10x_gpio.c ****   /* Check the parameters */
 420:.\stlib\STM32F10x_StdPeriph_Driver\src/stm32f10x_gpio.c ****   assert_param(IS_GPIO_ALL_PERIPH(GPIOx));
 827              		.loc 1 420 3 view .LVU200
 421:.\stlib\STM32F10x_StdPeriph_Driver\src/stm32f10x_gpio.c ****   
 422:.\stlib\STM32F10x_StdPeriph_Driver\src/stm32f10x_gpio.c ****   GPIOx->ODR = PortVal;
 828              		.loc 1 422 3 view .LVU201
 829              	@ .\stlib\STM32F10x_StdPeriph_Driver\src\stm32f10x_gpio.c:422:   GPIOx->ODR = PortVal;
 830              		.loc 1 422 14 is_stmt 0 view .LVU202
 831 01b2 C160     		str	r1, [r0, #12]	@ PortVal, GPIOx_4(D)->ODR
 832              	@ .\stlib\STM32F10x_StdPeriph_Driver\src\stm32f10x_gpio.c:423: }
 423:.\stlib\STM32F10x_StdPeriph_Driver\src/stm32f10x_gpio.c **** }
 833              		.loc 1 423 1 view .LVU203
 834 01b4 7047     		bx	lr	@
 835              		.cfi_endproc
 836              	.LFE40:
 837              		.size	GPIO_Write, .-GPIO_Write
 838              		.align	1
 839              		.global	GPIO_PinLockConfig
 840              		.syntax unified
 841              		.thumb
 842              		.thumb_func
 843              		.fpu softvfp
 844              		.type	GPIO_PinLockConfig, %function
 845              	GPIO_PinLockConfig:
 846              	.LVL64:
 847              	.LFB41:
 424:.\stlib\STM32F10x_StdPeriph_Driver\src/stm32f10x_gpio.c **** 
 425:.\stlib\STM32F10x_StdPeriph_Driver\src/stm32f10x_gpio.c **** /**
 426:.\stlib\STM32F10x_StdPeriph_Driver\src/stm32f10x_gpio.c ****   * @brief  Locks GPIO Pins configuration registers.
 427:.\stlib\STM32F10x_StdPeriph_Driver\src/stm32f10x_gpio.c ****   * @param  GPIOx: where x can be (A..G) to select the GPIO peripheral.
 428:.\stlib\STM32F10x_StdPeriph_Driver\src/stm32f10x_gpio.c ****   * @param  GPIO_Pin: specifies the port bit to be written.
 429:.\stlib\STM32F10x_StdPeriph_Driver\src/stm32f10x_gpio.c ****   *   This parameter can be any combination of GPIO_Pin_x where x can be (0..15).
 430:.\stlib\STM32F10x_StdPeriph_Driver\src/stm32f10x_gpio.c ****   * @retval None
 431:.\stlib\STM32F10x_StdPeriph_Driver\src/stm32f10x_gpio.c ****   */
 432:.\stlib\STM32F10x_StdPeriph_Driver\src/stm32f10x_gpio.c **** void GPIO_PinLockConfig(GPIO_TypeDef* GPIOx, uint16_t GPIO_Pin)
 433:.\stlib\STM32F10x_StdPeriph_Driver\src/stm32f10x_gpio.c **** {
 848              		.loc 1 433 1 is_stmt 1 view -0
 849              		.cfi_startproc
 850              		@ args = 0, pretend = 0, frame = 0
 851              		@ frame_needed = 0, uses_anonymous_args = 0
 852              		@ link register save eliminated.
 434:.\stlib\STM32F10x_StdPeriph_Driver\src/stm32f10x_gpio.c ****   uint32_t tmp = 0x00010000;
 853              		.loc 1 434 3 view .LVU205
ARM GAS  C:\Users\skey\AppData\Local\Temp\ccLMmMAg.s 			page 25


 435:.\stlib\STM32F10x_StdPeriph_Driver\src/stm32f10x_gpio.c ****   
 436:.\stlib\STM32F10x_StdPeriph_Driver\src/stm32f10x_gpio.c ****   /* Check the parameters */
 437:.\stlib\STM32F10x_StdPeriph_Driver\src/stm32f10x_gpio.c ****   assert_param(IS_GPIO_ALL_PERIPH(GPIOx));
 854              		.loc 1 437 3 view .LVU206
 438:.\stlib\STM32F10x_StdPeriph_Driver\src/stm32f10x_gpio.c ****   assert_param(IS_GPIO_PIN(GPIO_Pin));
 855              		.loc 1 438 3 view .LVU207
 439:.\stlib\STM32F10x_StdPeriph_Driver\src/stm32f10x_gpio.c ****   
 440:.\stlib\STM32F10x_StdPeriph_Driver\src/stm32f10x_gpio.c ****   tmp |= GPIO_Pin;
 856              		.loc 1 440 3 view .LVU208
 857              	@ .\stlib\STM32F10x_StdPeriph_Driver\src\stm32f10x_gpio.c:440:   tmp |= GPIO_Pin;
 858              		.loc 1 440 7 is_stmt 0 view .LVU209
 859 01b6 41F48033 		orr	r3, r1, #65536	@ tmp, GPIO_Pin,
 860              	.LVL65:
 441:.\stlib\STM32F10x_StdPeriph_Driver\src/stm32f10x_gpio.c ****   /* Set LCKK bit */
 442:.\stlib\STM32F10x_StdPeriph_Driver\src/stm32f10x_gpio.c ****   GPIOx->LCKR = tmp;
 861              		.loc 1 442 3 is_stmt 1 view .LVU210
 862              	@ .\stlib\STM32F10x_StdPeriph_Driver\src\stm32f10x_gpio.c:442:   GPIOx->LCKR = tmp;
 863              		.loc 1 442 15 is_stmt 0 view .LVU211
 864 01ba 8361     		str	r3, [r0, #24]	@ tmp, GPIOx_5(D)->LCKR
 443:.\stlib\STM32F10x_StdPeriph_Driver\src/stm32f10x_gpio.c ****   /* Reset LCKK bit */
 444:.\stlib\STM32F10x_StdPeriph_Driver\src/stm32f10x_gpio.c ****   GPIOx->LCKR =  GPIO_Pin;
 865              		.loc 1 444 3 is_stmt 1 view .LVU212
 866              	@ .\stlib\STM32F10x_StdPeriph_Driver\src\stm32f10x_gpio.c:444:   GPIOx->LCKR =  GPIO_Pin;
 867              		.loc 1 444 15 is_stmt 0 view .LVU213
 868 01bc 8161     		str	r1, [r0, #24]	@ GPIO_Pin, GPIOx_5(D)->LCKR
 445:.\stlib\STM32F10x_StdPeriph_Driver\src/stm32f10x_gpio.c ****   /* Set LCKK bit */
 446:.\stlib\STM32F10x_StdPeriph_Driver\src/stm32f10x_gpio.c ****   GPIOx->LCKR = tmp;
 869              		.loc 1 446 3 is_stmt 1 view .LVU214
 870              	@ .\stlib\STM32F10x_StdPeriph_Driver\src\stm32f10x_gpio.c:446:   GPIOx->LCKR = tmp;
 871              		.loc 1 446 15 is_stmt 0 view .LVU215
 872 01be 8361     		str	r3, [r0, #24]	@ tmp, GPIOx_5(D)->LCKR
 447:.\stlib\STM32F10x_StdPeriph_Driver\src/stm32f10x_gpio.c ****   /* Read LCKK bit*/
 448:.\stlib\STM32F10x_StdPeriph_Driver\src/stm32f10x_gpio.c ****   tmp = GPIOx->LCKR;
 873              		.loc 1 448 3 is_stmt 1 view .LVU216
 874              	@ .\stlib\STM32F10x_StdPeriph_Driver\src\stm32f10x_gpio.c:448:   tmp = GPIOx->LCKR;
 875              		.loc 1 448 7 is_stmt 0 view .LVU217
 876 01c0 8369     		ldr	r3, [r0, #24]	@ tmp, GPIOx_5(D)->LCKR
 877              	.LVL66:
 449:.\stlib\STM32F10x_StdPeriph_Driver\src/stm32f10x_gpio.c ****   /* Read LCKK bit*/
 450:.\stlib\STM32F10x_StdPeriph_Driver\src/stm32f10x_gpio.c ****   tmp = GPIOx->LCKR;
 878              		.loc 1 450 3 is_stmt 1 view .LVU218
 879              	@ .\stlib\STM32F10x_StdPeriph_Driver\src\stm32f10x_gpio.c:450:   tmp = GPIOx->LCKR;
 880              		.loc 1 450 7 is_stmt 0 view .LVU219
 881 01c2 8369     		ldr	r3, [r0, #24]	@ tmp, GPIOx_5(D)->LCKR
 882              	@ .\stlib\STM32F10x_StdPeriph_Driver\src\stm32f10x_gpio.c:451: }
 451:.\stlib\STM32F10x_StdPeriph_Driver\src/stm32f10x_gpio.c **** }
 883              		.loc 1 451 1 view .LVU220
 884 01c4 7047     		bx	lr	@
 885              		.cfi_endproc
 886              	.LFE41:
 887              		.size	GPIO_PinLockConfig, .-GPIO_PinLockConfig
 888              		.align	1
 889              		.global	GPIO_EventOutputConfig
 890              		.syntax unified
 891              		.thumb
 892              		.thumb_func
 893              		.fpu softvfp
ARM GAS  C:\Users\skey\AppData\Local\Temp\ccLMmMAg.s 			page 26


 894              		.type	GPIO_EventOutputConfig, %function
 895              	GPIO_EventOutputConfig:
 896              	.LVL67:
 897              	.LFB42:
 452:.\stlib\STM32F10x_StdPeriph_Driver\src/stm32f10x_gpio.c **** 
 453:.\stlib\STM32F10x_StdPeriph_Driver\src/stm32f10x_gpio.c **** /**
 454:.\stlib\STM32F10x_StdPeriph_Driver\src/stm32f10x_gpio.c ****   * @brief  Selects the GPIO pin used as Event output.
 455:.\stlib\STM32F10x_StdPeriph_Driver\src/stm32f10x_gpio.c ****   * @param  GPIO_PortSource: selects the GPIO port to be used as source
 456:.\stlib\STM32F10x_StdPeriph_Driver\src/stm32f10x_gpio.c ****   *   for Event output.
 457:.\stlib\STM32F10x_StdPeriph_Driver\src/stm32f10x_gpio.c ****   *   This parameter can be GPIO_PortSourceGPIOx where x can be (A..E).
 458:.\stlib\STM32F10x_StdPeriph_Driver\src/stm32f10x_gpio.c ****   * @param  GPIO_PinSource: specifies the pin for the Event output.
 459:.\stlib\STM32F10x_StdPeriph_Driver\src/stm32f10x_gpio.c ****   *   This parameter can be GPIO_PinSourcex where x can be (0..15).
 460:.\stlib\STM32F10x_StdPeriph_Driver\src/stm32f10x_gpio.c ****   * @retval None
 461:.\stlib\STM32F10x_StdPeriph_Driver\src/stm32f10x_gpio.c ****   */
 462:.\stlib\STM32F10x_StdPeriph_Driver\src/stm32f10x_gpio.c **** void GPIO_EventOutputConfig(uint8_t GPIO_PortSource, uint8_t GPIO_PinSource)
 463:.\stlib\STM32F10x_StdPeriph_Driver\src/stm32f10x_gpio.c **** {
 898              		.loc 1 463 1 is_stmt 1 view -0
 899              		.cfi_startproc
 900              		@ args = 0, pretend = 0, frame = 0
 901              		@ frame_needed = 0, uses_anonymous_args = 0
 902              		@ link register save eliminated.
 464:.\stlib\STM32F10x_StdPeriph_Driver\src/stm32f10x_gpio.c ****   uint32_t tmpreg = 0x00;
 903              		.loc 1 464 3 view .LVU222
 465:.\stlib\STM32F10x_StdPeriph_Driver\src/stm32f10x_gpio.c ****   /* Check the parameters */
 466:.\stlib\STM32F10x_StdPeriph_Driver\src/stm32f10x_gpio.c ****   assert_param(IS_GPIO_EVENTOUT_PORT_SOURCE(GPIO_PortSource));
 904              		.loc 1 466 3 view .LVU223
 467:.\stlib\STM32F10x_StdPeriph_Driver\src/stm32f10x_gpio.c ****   assert_param(IS_GPIO_PIN_SOURCE(GPIO_PinSource));
 905              		.loc 1 467 3 view .LVU224
 468:.\stlib\STM32F10x_StdPeriph_Driver\src/stm32f10x_gpio.c ****     
 469:.\stlib\STM32F10x_StdPeriph_Driver\src/stm32f10x_gpio.c ****   tmpreg = AFIO->EVCR;
 906              		.loc 1 469 3 view .LVU225
 907              	@ .\stlib\STM32F10x_StdPeriph_Driver\src\stm32f10x_gpio.c:469:   tmpreg = AFIO->EVCR;
 908              		.loc 1 469 10 is_stmt 0 view .LVU226
 909 01c6 054A     		ldr	r2, .L44	@ tmp119,
 910 01c8 1368     		ldr	r3, [r2]	@ tmpreg, MEM[(struct AFIO_TypeDef *)1073807360B].EVCR
 911              	.LVL68:
 470:.\stlib\STM32F10x_StdPeriph_Driver\src/stm32f10x_gpio.c ****   /* Clear the PORT[6:4] and PIN[3:0] bits */
 471:.\stlib\STM32F10x_StdPeriph_Driver\src/stm32f10x_gpio.c ****   tmpreg &= EVCR_PORTPINCONFIG_MASK;
 912              		.loc 1 471 3 is_stmt 1 view .LVU227
 472:.\stlib\STM32F10x_StdPeriph_Driver\src/stm32f10x_gpio.c ****   tmpreg |= (uint32_t)GPIO_PortSource << 0x04;
 913              		.loc 1 472 3 view .LVU228
 473:.\stlib\STM32F10x_StdPeriph_Driver\src/stm32f10x_gpio.c ****   tmpreg |= GPIO_PinSource;
 914              		.loc 1 473 3 view .LVU229
 915              	@ .\stlib\STM32F10x_StdPeriph_Driver\src\stm32f10x_gpio.c:471:   tmpreg &= EVCR_PORTPINCONFIG_MASK;
 471:.\stlib\STM32F10x_StdPeriph_Driver\src/stm32f10x_gpio.c ****   tmpreg |= (uint32_t)GPIO_PortSource << 0x04;
 916              		.loc 1 471 10 is_stmt 0 view .LVU230
 917 01ca 23F07F03 		bic	r3, r3, #127	@ tmpreg, tmpreg,
 918              	.LVL69:
 471:.\stlib\STM32F10x_StdPeriph_Driver\src/stm32f10x_gpio.c ****   tmpreg |= (uint32_t)GPIO_PortSource << 0x04;
 919              		.loc 1 471 10 view .LVU231
 920 01ce 1B04     		lsls	r3, r3, #16	@ tmpreg, tmpreg,
 921 01d0 1B0C     		lsrs	r3, r3, #16	@ tmpreg, tmpreg,
 922 01d2 0B43     		orrs	r3, r3, r1	@, _12, tmpreg, tmp125
 923              	@ .\stlib\STM32F10x_StdPeriph_Driver\src\stm32f10x_gpio.c:473:   tmpreg |= GPIO_PinSource;
 924              		.loc 1 473 10 view .LVU232
 925 01d4 43EA0013 		orr	r3, r3, r0, lsl #4	@ tmpreg, _12, tmp124,
 926              	.LVL70:
ARM GAS  C:\Users\skey\AppData\Local\Temp\ccLMmMAg.s 			page 27


 474:.\stlib\STM32F10x_StdPeriph_Driver\src/stm32f10x_gpio.c ****   AFIO->EVCR = tmpreg;
 927              		.loc 1 474 3 is_stmt 1 view .LVU233
 928              	@ .\stlib\STM32F10x_StdPeriph_Driver\src\stm32f10x_gpio.c:474:   AFIO->EVCR = tmpreg;
 929              		.loc 1 474 14 is_stmt 0 view .LVU234
 930 01d8 1360     		str	r3, [r2]	@ tmpreg, MEM[(struct AFIO_TypeDef *)1073807360B].EVCR
 931              	@ .\stlib\STM32F10x_StdPeriph_Driver\src\stm32f10x_gpio.c:475: }
 475:.\stlib\STM32F10x_StdPeriph_Driver\src/stm32f10x_gpio.c **** }
 932              		.loc 1 475 1 view .LVU235
 933 01da 7047     		bx	lr	@
 934              	.L45:
 935              		.align	2
 936              	.L44:
 937 01dc 00000140 		.word	1073807360
 938              		.cfi_endproc
 939              	.LFE42:
 940              		.size	GPIO_EventOutputConfig, .-GPIO_EventOutputConfig
 941              		.align	1
 942              		.global	GPIO_EventOutputCmd
 943              		.syntax unified
 944              		.thumb
 945              		.thumb_func
 946              		.fpu softvfp
 947              		.type	GPIO_EventOutputCmd, %function
 948              	GPIO_EventOutputCmd:
 949              	.LVL71:
 950              	.LFB43:
 476:.\stlib\STM32F10x_StdPeriph_Driver\src/stm32f10x_gpio.c **** 
 477:.\stlib\STM32F10x_StdPeriph_Driver\src/stm32f10x_gpio.c **** /**
 478:.\stlib\STM32F10x_StdPeriph_Driver\src/stm32f10x_gpio.c ****   * @brief  Enables or disables the Event Output.
 479:.\stlib\STM32F10x_StdPeriph_Driver\src/stm32f10x_gpio.c ****   * @param  NewState: new state of the Event output.
 480:.\stlib\STM32F10x_StdPeriph_Driver\src/stm32f10x_gpio.c ****   *   This parameter can be: ENABLE or DISABLE.
 481:.\stlib\STM32F10x_StdPeriph_Driver\src/stm32f10x_gpio.c ****   * @retval None
 482:.\stlib\STM32F10x_StdPeriph_Driver\src/stm32f10x_gpio.c ****   */
 483:.\stlib\STM32F10x_StdPeriph_Driver\src/stm32f10x_gpio.c **** void GPIO_EventOutputCmd(FunctionalState NewState)
 484:.\stlib\STM32F10x_StdPeriph_Driver\src/stm32f10x_gpio.c **** {
 951              		.loc 1 484 1 is_stmt 1 view -0
 952              		.cfi_startproc
 953              		@ args = 0, pretend = 0, frame = 0
 954              		@ frame_needed = 0, uses_anonymous_args = 0
 955              		@ link register save eliminated.
 485:.\stlib\STM32F10x_StdPeriph_Driver\src/stm32f10x_gpio.c ****   /* Check the parameters */
 486:.\stlib\STM32F10x_StdPeriph_Driver\src/stm32f10x_gpio.c ****   assert_param(IS_FUNCTIONAL_STATE(NewState));
 956              		.loc 1 486 3 view .LVU237
 487:.\stlib\STM32F10x_StdPeriph_Driver\src/stm32f10x_gpio.c ****   
 488:.\stlib\STM32F10x_StdPeriph_Driver\src/stm32f10x_gpio.c ****   *(__IO uint32_t *) EVCR_EVOE_BB = (uint32_t)NewState;
 957              		.loc 1 488 3 view .LVU238
 958              	@ .\stlib\STM32F10x_StdPeriph_Driver\src\stm32f10x_gpio.c:488:   *(__IO uint32_t *) EVCR_EVOE_BB = 
 959              		.loc 1 488 35 is_stmt 0 view .LVU239
 960 01e0 014B     		ldr	r3, .L47	@ tmp112,
 961 01e2 1860     		str	r0, [r3]	@ NewState, MEM[(volatile uint32_t *)1109393436B]
 962              	@ .\stlib\STM32F10x_StdPeriph_Driver\src\stm32f10x_gpio.c:489: }
 489:.\stlib\STM32F10x_StdPeriph_Driver\src/stm32f10x_gpio.c **** }
 963              		.loc 1 489 1 view .LVU240
 964 01e4 7047     		bx	lr	@
 965              	.L48:
 966 01e6 00BF     		.align	2
 967              	.L47:
ARM GAS  C:\Users\skey\AppData\Local\Temp\ccLMmMAg.s 			page 28


 968 01e8 1C002042 		.word	1109393436
 969              		.cfi_endproc
 970              	.LFE43:
 971              		.size	GPIO_EventOutputCmd, .-GPIO_EventOutputCmd
 972              		.align	1
 973              		.global	GPIO_PinRemapConfig
 974              		.syntax unified
 975              		.thumb
 976              		.thumb_func
 977              		.fpu softvfp
 978              		.type	GPIO_PinRemapConfig, %function
 979              	GPIO_PinRemapConfig:
 980              	.LVL72:
 981              	.LFB44:
 490:.\stlib\STM32F10x_StdPeriph_Driver\src/stm32f10x_gpio.c **** 
 491:.\stlib\STM32F10x_StdPeriph_Driver\src/stm32f10x_gpio.c **** /**
 492:.\stlib\STM32F10x_StdPeriph_Driver\src/stm32f10x_gpio.c ****   * @brief  Changes the mapping of the specified pin.
 493:.\stlib\STM32F10x_StdPeriph_Driver\src/stm32f10x_gpio.c ****   * @param  GPIO_Remap: selects the pin to remap.
 494:.\stlib\STM32F10x_StdPeriph_Driver\src/stm32f10x_gpio.c ****   *   This parameter can be one of the following values:
 495:.\stlib\STM32F10x_StdPeriph_Driver\src/stm32f10x_gpio.c ****   *     @arg GPIO_Remap_SPI1             : SPI1 Alternate Function mapping
 496:.\stlib\STM32F10x_StdPeriph_Driver\src/stm32f10x_gpio.c ****   *     @arg GPIO_Remap_I2C1             : I2C1 Alternate Function mapping
 497:.\stlib\STM32F10x_StdPeriph_Driver\src/stm32f10x_gpio.c ****   *     @arg GPIO_Remap_USART1           : USART1 Alternate Function mapping
 498:.\stlib\STM32F10x_StdPeriph_Driver\src/stm32f10x_gpio.c ****   *     @arg GPIO_Remap_USART2           : USART2 Alternate Function mapping
 499:.\stlib\STM32F10x_StdPeriph_Driver\src/stm32f10x_gpio.c ****   *     @arg GPIO_PartialRemap_USART3    : USART3 Partial Alternate Function mapping
 500:.\stlib\STM32F10x_StdPeriph_Driver\src/stm32f10x_gpio.c ****   *     @arg GPIO_FullRemap_USART3       : USART3 Full Alternate Function mapping
 501:.\stlib\STM32F10x_StdPeriph_Driver\src/stm32f10x_gpio.c ****   *     @arg GPIO_PartialRemap_TIM1      : TIM1 Partial Alternate Function mapping
 502:.\stlib\STM32F10x_StdPeriph_Driver\src/stm32f10x_gpio.c ****   *     @arg GPIO_FullRemap_TIM1         : TIM1 Full Alternate Function mapping
 503:.\stlib\STM32F10x_StdPeriph_Driver\src/stm32f10x_gpio.c ****   *     @arg GPIO_PartialRemap1_TIM2     : TIM2 Partial1 Alternate Function mapping
 504:.\stlib\STM32F10x_StdPeriph_Driver\src/stm32f10x_gpio.c ****   *     @arg GPIO_PartialRemap2_TIM2     : TIM2 Partial2 Alternate Function mapping
 505:.\stlib\STM32F10x_StdPeriph_Driver\src/stm32f10x_gpio.c ****   *     @arg GPIO_FullRemap_TIM2         : TIM2 Full Alternate Function mapping
 506:.\stlib\STM32F10x_StdPeriph_Driver\src/stm32f10x_gpio.c ****   *     @arg GPIO_PartialRemap_TIM3      : TIM3 Partial Alternate Function mapping
 507:.\stlib\STM32F10x_StdPeriph_Driver\src/stm32f10x_gpio.c ****   *     @arg GPIO_FullRemap_TIM3         : TIM3 Full Alternate Function mapping
 508:.\stlib\STM32F10x_StdPeriph_Driver\src/stm32f10x_gpio.c ****   *     @arg GPIO_Remap_TIM4             : TIM4 Alternate Function mapping
 509:.\stlib\STM32F10x_StdPeriph_Driver\src/stm32f10x_gpio.c ****   *     @arg GPIO_Remap1_CAN1            : CAN1 Alternate Function mapping
 510:.\stlib\STM32F10x_StdPeriph_Driver\src/stm32f10x_gpio.c ****   *     @arg GPIO_Remap2_CAN1            : CAN1 Alternate Function mapping
 511:.\stlib\STM32F10x_StdPeriph_Driver\src/stm32f10x_gpio.c ****   *     @arg GPIO_Remap_PD01             : PD01 Alternate Function mapping
 512:.\stlib\STM32F10x_StdPeriph_Driver\src/stm32f10x_gpio.c ****   *     @arg GPIO_Remap_TIM5CH4_LSI      : LSI connected to TIM5 Channel4 input capture for calibra
 513:.\stlib\STM32F10x_StdPeriph_Driver\src/stm32f10x_gpio.c ****   *     @arg GPIO_Remap_ADC1_ETRGINJ     : ADC1 External Trigger Injected Conversion remapping
 514:.\stlib\STM32F10x_StdPeriph_Driver\src/stm32f10x_gpio.c ****   *     @arg GPIO_Remap_ADC1_ETRGREG     : ADC1 External Trigger Regular Conversion remapping
 515:.\stlib\STM32F10x_StdPeriph_Driver\src/stm32f10x_gpio.c ****   *     @arg GPIO_Remap_ADC2_ETRGINJ     : ADC2 External Trigger Injected Conversion remapping
 516:.\stlib\STM32F10x_StdPeriph_Driver\src/stm32f10x_gpio.c ****   *     @arg GPIO_Remap_ADC2_ETRGREG     : ADC2 External Trigger Regular Conversion remapping
 517:.\stlib\STM32F10x_StdPeriph_Driver\src/stm32f10x_gpio.c ****   *     @arg GPIO_Remap_ETH              : Ethernet remapping (only for Connectivity line devices)
 518:.\stlib\STM32F10x_StdPeriph_Driver\src/stm32f10x_gpio.c ****   *     @arg GPIO_Remap_CAN2             : CAN2 remapping (only for Connectivity line devices)
 519:.\stlib\STM32F10x_StdPeriph_Driver\src/stm32f10x_gpio.c ****   *     @arg GPIO_Remap_SWJ_NoJTRST      : Full SWJ Enabled (JTAG-DP + SW-DP) but without JTRST
 520:.\stlib\STM32F10x_StdPeriph_Driver\src/stm32f10x_gpio.c ****   *     @arg GPIO_Remap_SWJ_JTAGDisable  : JTAG-DP Disabled and SW-DP Enabled
 521:.\stlib\STM32F10x_StdPeriph_Driver\src/stm32f10x_gpio.c ****   *     @arg GPIO_Remap_SWJ_Disable      : Full SWJ Disabled (JTAG-DP + SW-DP)
 522:.\stlib\STM32F10x_StdPeriph_Driver\src/stm32f10x_gpio.c ****   *     @arg GPIO_Remap_SPI3             : SPI3/I2S3 Alternate Function mapping (only for Connectiv
 523:.\stlib\STM32F10x_StdPeriph_Driver\src/stm32f10x_gpio.c ****   *                                        When the SPI3/I2S3 is remapped using this function, the 
 524:.\stlib\STM32F10x_StdPeriph_Driver\src/stm32f10x_gpio.c ****   *                                        to Full SWJ Enabled (JTAG-DP + SW-DP) but without JTRST.
 525:.\stlib\STM32F10x_StdPeriph_Driver\src/stm32f10x_gpio.c ****   *     @arg GPIO_Remap_TIM2ITR1_PTP_SOF : Ethernet PTP output or USB OTG SOF (Start of Frame) conn
 526:.\stlib\STM32F10x_StdPeriph_Driver\src/stm32f10x_gpio.c ****   *                                        to TIM2 Internal Trigger 1 for calibration (only for Con
 527:.\stlib\STM32F10x_StdPeriph_Driver\src/stm32f10x_gpio.c ****   *                                        If the GPIO_Remap_TIM2ITR1_PTP_SOF is enabled the TIM2 I
 528:.\stlib\STM32F10x_StdPeriph_Driver\src/stm32f10x_gpio.c ****   *                                        Ethernet PTP output. When Reset TIM2 ITR1 is connected t
 529:.\stlib\STM32F10x_StdPeriph_Driver\src/stm32f10x_gpio.c ****   *     @arg GPIO_Remap_PTP_PPS          : Ethernet MAC PPS_PTS output on PB05 (only for Connectivi
 530:.\stlib\STM32F10x_StdPeriph_Driver\src/stm32f10x_gpio.c ****   *     @arg GPIO_Remap_TIM15            : TIM15 Alternate Function mapping (only for Value line de
 531:.\stlib\STM32F10x_StdPeriph_Driver\src/stm32f10x_gpio.c ****   *     @arg GPIO_Remap_TIM16            : TIM16 Alternate Function mapping (only for Value line de
 532:.\stlib\STM32F10x_StdPeriph_Driver\src/stm32f10x_gpio.c ****   *     @arg GPIO_Remap_TIM17            : TIM17 Alternate Function mapping (only for Value line de
ARM GAS  C:\Users\skey\AppData\Local\Temp\ccLMmMAg.s 			page 29


 533:.\stlib\STM32F10x_StdPeriph_Driver\src/stm32f10x_gpio.c ****   *     @arg GPIO_Remap_CEC              : CEC Alternate Function mapping (only for Value line devi
 534:.\stlib\STM32F10x_StdPeriph_Driver\src/stm32f10x_gpio.c ****   *     @arg GPIO_Remap_TIM1_DMA         : TIM1 DMA requests mapping (only for Value line devices)
 535:.\stlib\STM32F10x_StdPeriph_Driver\src/stm32f10x_gpio.c ****   *     @arg GPIO_Remap_TIM9             : TIM9 Alternate Function mapping (only for XL-density dev
 536:.\stlib\STM32F10x_StdPeriph_Driver\src/stm32f10x_gpio.c ****   *     @arg GPIO_Remap_TIM10            : TIM10 Alternate Function mapping (only for XL-density de
 537:.\stlib\STM32F10x_StdPeriph_Driver\src/stm32f10x_gpio.c ****   *     @arg GPIO_Remap_TIM11            : TIM11 Alternate Function mapping (only for XL-density de
 538:.\stlib\STM32F10x_StdPeriph_Driver\src/stm32f10x_gpio.c ****   *     @arg GPIO_Remap_TIM13            : TIM13 Alternate Function mapping (only for High density 
 539:.\stlib\STM32F10x_StdPeriph_Driver\src/stm32f10x_gpio.c ****   *     @arg GPIO_Remap_TIM14            : TIM14 Alternate Function mapping (only for High density 
 540:.\stlib\STM32F10x_StdPeriph_Driver\src/stm32f10x_gpio.c ****   *     @arg GPIO_Remap_FSMC_NADV        : FSMC_NADV Alternate Function mapping (only for High dens
 541:.\stlib\STM32F10x_StdPeriph_Driver\src/stm32f10x_gpio.c ****   *     @arg GPIO_Remap_TIM67_DAC_DMA    : TIM6/TIM7 and DAC DMA requests remapping (only for High 
 542:.\stlib\STM32F10x_StdPeriph_Driver\src/stm32f10x_gpio.c ****   *     @arg GPIO_Remap_TIM12            : TIM12 Alternate Function mapping (only for High density 
 543:.\stlib\STM32F10x_StdPeriph_Driver\src/stm32f10x_gpio.c ****   *     @arg GPIO_Remap_MISC             : Miscellaneous Remap (DMA2 Channel5 Position and DAC Trig
 544:.\stlib\STM32F10x_StdPeriph_Driver\src/stm32f10x_gpio.c ****   *                                        only for High density Value line devices)     
 545:.\stlib\STM32F10x_StdPeriph_Driver\src/stm32f10x_gpio.c ****   * @param  NewState: new state of the port pin remapping.
 546:.\stlib\STM32F10x_StdPeriph_Driver\src/stm32f10x_gpio.c ****   *   This parameter can be: ENABLE or DISABLE.
 547:.\stlib\STM32F10x_StdPeriph_Driver\src/stm32f10x_gpio.c ****   * @retval None
 548:.\stlib\STM32F10x_StdPeriph_Driver\src/stm32f10x_gpio.c ****   */
 549:.\stlib\STM32F10x_StdPeriph_Driver\src/stm32f10x_gpio.c **** void GPIO_PinRemapConfig(uint32_t GPIO_Remap, FunctionalState NewState)
 550:.\stlib\STM32F10x_StdPeriph_Driver\src/stm32f10x_gpio.c **** {
 982              		.loc 1 550 1 is_stmt 1 view -0
 983              		.cfi_startproc
 984              		@ args = 0, pretend = 0, frame = 0
 985              		@ frame_needed = 0, uses_anonymous_args = 0
 551:.\stlib\STM32F10x_StdPeriph_Driver\src/stm32f10x_gpio.c ****   uint32_t tmp = 0x00, tmp1 = 0x00, tmpreg = 0x00, tmpmask = 0x00;
 986              		.loc 1 551 3 view .LVU242
 552:.\stlib\STM32F10x_StdPeriph_Driver\src/stm32f10x_gpio.c **** 
 553:.\stlib\STM32F10x_StdPeriph_Driver\src/stm32f10x_gpio.c ****   /* Check the parameters */
 554:.\stlib\STM32F10x_StdPeriph_Driver\src/stm32f10x_gpio.c ****   assert_param(IS_GPIO_REMAP(GPIO_Remap));
 987              		.loc 1 554 3 view .LVU243
 555:.\stlib\STM32F10x_StdPeriph_Driver\src/stm32f10x_gpio.c ****   assert_param(IS_FUNCTIONAL_STATE(NewState));  
 988              		.loc 1 555 3 view .LVU244
 556:.\stlib\STM32F10x_StdPeriph_Driver\src/stm32f10x_gpio.c ****   
 557:.\stlib\STM32F10x_StdPeriph_Driver\src/stm32f10x_gpio.c ****   if((GPIO_Remap & 0x80000000) == 0x80000000)
 989              		.loc 1 557 3 view .LVU245
 990              	@ .\stlib\STM32F10x_StdPeriph_Driver\src\stm32f10x_gpio.c:557:   if((GPIO_Remap & 0x80000000) == 0x
 991              		.loc 1 557 5 is_stmt 0 view .LVU246
 992 01ec 0028     		cmp	r0, #0	@ GPIO_Remap
 993              		.loc 1 557 5 view .LVU247
 994 01ee 164A     		ldr	r2, .L62	@ tmp154,
 558:.\stlib\STM32F10x_StdPeriph_Driver\src/stm32f10x_gpio.c ****   {
 559:.\stlib\STM32F10x_StdPeriph_Driver\src/stm32f10x_gpio.c ****     tmpreg = AFIO->MAPR2;
 995              		.loc 1 559 5 is_stmt 1 view .LVU248
 996              	@ .\stlib\STM32F10x_StdPeriph_Driver\src\stm32f10x_gpio.c:550: {
 550:.\stlib\STM32F10x_StdPeriph_Driver\src/stm32f10x_gpio.c ****   uint32_t tmp = 0x00, tmp1 = 0x00, tmpreg = 0x00, tmpmask = 0x00;
 997              		.loc 1 550 1 is_stmt 0 view .LVU249
 998 01f0 30B5     		push	{r4, r5, lr}	@
 999              	.LCFI6:
 1000              		.cfi_def_cfa_offset 12
 1001              		.cfi_offset 4, -12
 1002              		.cfi_offset 5, -8
 1003              		.cfi_offset 14, -4
 1004              	@ .\stlib\STM32F10x_StdPeriph_Driver\src\stm32f10x_gpio.c:569:   if ((GPIO_Remap & (DBGAFR_LOCATION
 560:.\stlib\STM32F10x_StdPeriph_Driver\src/stm32f10x_gpio.c ****   }
 561:.\stlib\STM32F10x_StdPeriph_Driver\src/stm32f10x_gpio.c ****   else
 562:.\stlib\STM32F10x_StdPeriph_Driver\src/stm32f10x_gpio.c ****   {
 563:.\stlib\STM32F10x_StdPeriph_Driver\src/stm32f10x_gpio.c ****     tmpreg = AFIO->MAPR;
 564:.\stlib\STM32F10x_StdPeriph_Driver\src/stm32f10x_gpio.c ****   }
 565:.\stlib\STM32F10x_StdPeriph_Driver\src/stm32f10x_gpio.c **** 
ARM GAS  C:\Users\skey\AppData\Local\Temp\ccLMmMAg.s 			page 30


 566:.\stlib\STM32F10x_StdPeriph_Driver\src/stm32f10x_gpio.c ****   tmpmask = (GPIO_Remap & DBGAFR_POSITION_MASK) >> 0x10;
 567:.\stlib\STM32F10x_StdPeriph_Driver\src/stm32f10x_gpio.c ****   tmp = GPIO_Remap & LSB_MASK;
 568:.\stlib\STM32F10x_StdPeriph_Driver\src/stm32f10x_gpio.c **** 
 569:.\stlib\STM32F10x_StdPeriph_Driver\src/stm32f10x_gpio.c ****   if ((GPIO_Remap & (DBGAFR_LOCATION_MASK | DBGAFR_NUMBITS_MASK)) == (DBGAFR_LOCATION_MASK | DBGAFR
 1005              		.loc 1 569 19 view .LVU250
 1006 01f2 00F44015 		and	r5, r0, #3145728	@ tmp136, GPIO_Remap,
 1007              	@ .\stlib\STM32F10x_StdPeriph_Driver\src\stm32f10x_gpio.c:559:     tmpreg = AFIO->MAPR2;
 559:.\stlib\STM32F10x_StdPeriph_Driver\src/stm32f10x_gpio.c ****   }
 1008              		.loc 1 559 12 view .LVU251
 1009 01f6 B4BF     		ite	lt
 1010 01f8 D369     		ldrlt	r3, [r2, #28]	@ tmpreg, MEM[(struct AFIO_TypeDef *)1073807360B].MAPR2
 1011              	.LVL73:
 563:.\stlib\STM32F10x_StdPeriph_Driver\src/stm32f10x_gpio.c ****   }
 1012              		.loc 1 563 5 is_stmt 1 view .LVU252
 1013              	@ .\stlib\STM32F10x_StdPeriph_Driver\src\stm32f10x_gpio.c:563:     tmpreg = AFIO->MAPR;
 563:.\stlib\STM32F10x_StdPeriph_Driver\src/stm32f10x_gpio.c ****   }
 1014              		.loc 1 563 12 is_stmt 0 view .LVU253
 1015 01fa 5368     		ldrge	r3, [r2, #4]	@ tmpreg, MEM[(struct AFIO_TypeDef *)1073807360B].MAPR
 1016              	.LVL74:
 566:.\stlib\STM32F10x_StdPeriph_Driver\src/stm32f10x_gpio.c ****   tmp = GPIO_Remap & LSB_MASK;
 1017              		.loc 1 566 3 is_stmt 1 view .LVU254
 567:.\stlib\STM32F10x_StdPeriph_Driver\src/stm32f10x_gpio.c **** 
 1018              		.loc 1 567 3 view .LVU255
 1019              	@ .\stlib\STM32F10x_StdPeriph_Driver\src\stm32f10x_gpio.c:569:   if ((GPIO_Remap & (DBGAFR_LOCATION
 1020              		.loc 1 569 6 is_stmt 0 view .LVU256
 1021 01fc B5F5401F 		cmp	r5, #3145728	@ tmp136,
 1022              	@ .\stlib\STM32F10x_StdPeriph_Driver\src\stm32f10x_gpio.c:567:   tmp = GPIO_Remap & LSB_MASK;
 567:.\stlib\STM32F10x_StdPeriph_Driver\src/stm32f10x_gpio.c **** 
 1023              		.loc 1 567 7 view .LVU257
 1024 0200 84B2     		uxth	r4, r0	@ tmp, GPIO_Remap
 1025              	.LVL75:
 1026              		.loc 1 569 3 is_stmt 1 view .LVU258
 1027              	@ .\stlib\STM32F10x_StdPeriph_Driver\src\stm32f10x_gpio.c:569:   if ((GPIO_Remap & (DBGAFR_LOCATION
 1028              		.loc 1 569 6 is_stmt 0 view .LVU259
 1029 0202 10D1     		bne	.L52		@,
 570:.\stlib\STM32F10x_StdPeriph_Driver\src/stm32f10x_gpio.c ****   {
 571:.\stlib\STM32F10x_StdPeriph_Driver\src/stm32f10x_gpio.c ****     tmpreg &= DBGAFR_SWJCFG_MASK;
 1030              		.loc 1 571 5 is_stmt 1 view .LVU260
 1031              	@ .\stlib\STM32F10x_StdPeriph_Driver\src\stm32f10x_gpio.c:572:     AFIO->MAPR &= DBGAFR_SWJCFG_MASK
 572:.\stlib\STM32F10x_StdPeriph_Driver\src/stm32f10x_gpio.c ****     AFIO->MAPR &= DBGAFR_SWJCFG_MASK;
 1032              		.loc 1 572 16 is_stmt 0 view .LVU261
 1033 0204 5568     		ldr	r5, [r2, #4]	@ _4, MEM[(struct AFIO_TypeDef *)1073807360B].MAPR
 1034              	@ .\stlib\STM32F10x_StdPeriph_Driver\src\stm32f10x_gpio.c:571:     tmpreg &= DBGAFR_SWJCFG_MASK;
 571:.\stlib\STM32F10x_StdPeriph_Driver\src/stm32f10x_gpio.c ****     AFIO->MAPR &= DBGAFR_SWJCFG_MASK;
 1035              		.loc 1 571 12 view .LVU262
 1036 0206 23F07063 		bic	r3, r3, #251658240	@ tmpreg, tmpreg,
 1037              	.LVL76:
 1038              		.loc 1 572 5 is_stmt 1 view .LVU263
 1039              	@ .\stlib\STM32F10x_StdPeriph_Driver\src\stm32f10x_gpio.c:572:     AFIO->MAPR &= DBGAFR_SWJCFG_MASK
 1040              		.loc 1 572 16 is_stmt 0 view .LVU264
 1041 020a 25F07065 		bic	r5, r5, #251658240	@ _5, _4,
 1042 020e 5560     		str	r5, [r2, #4]	@ _5, MEM[(struct AFIO_TypeDef *)1073807360B].MAPR
 1043              	.LVL77:
 1044              	.L53:
 573:.\stlib\STM32F10x_StdPeriph_Driver\src/stm32f10x_gpio.c ****   }
 574:.\stlib\STM32F10x_StdPeriph_Driver\src/stm32f10x_gpio.c ****   else if ((GPIO_Remap & DBGAFR_NUMBITS_MASK) == DBGAFR_NUMBITS_MASK)
 575:.\stlib\STM32F10x_StdPeriph_Driver\src/stm32f10x_gpio.c ****   {
ARM GAS  C:\Users\skey\AppData\Local\Temp\ccLMmMAg.s 			page 31


 576:.\stlib\STM32F10x_StdPeriph_Driver\src/stm32f10x_gpio.c ****     tmp1 = ((uint32_t)0x03) << tmpmask;
 577:.\stlib\STM32F10x_StdPeriph_Driver\src/stm32f10x_gpio.c ****     tmpreg &= ~tmp1;
 578:.\stlib\STM32F10x_StdPeriph_Driver\src/stm32f10x_gpio.c ****     tmpreg |= ~DBGAFR_SWJCFG_MASK;
 579:.\stlib\STM32F10x_StdPeriph_Driver\src/stm32f10x_gpio.c ****   }
 580:.\stlib\STM32F10x_StdPeriph_Driver\src/stm32f10x_gpio.c ****   else
 581:.\stlib\STM32F10x_StdPeriph_Driver\src/stm32f10x_gpio.c ****   {
 582:.\stlib\STM32F10x_StdPeriph_Driver\src/stm32f10x_gpio.c ****     tmpreg &= ~(tmp << ((GPIO_Remap >> 0x15)*0x10));
 583:.\stlib\STM32F10x_StdPeriph_Driver\src/stm32f10x_gpio.c ****     tmpreg |= ~DBGAFR_SWJCFG_MASK;
 584:.\stlib\STM32F10x_StdPeriph_Driver\src/stm32f10x_gpio.c ****   }
 585:.\stlib\STM32F10x_StdPeriph_Driver\src/stm32f10x_gpio.c **** 
 586:.\stlib\STM32F10x_StdPeriph_Driver\src/stm32f10x_gpio.c ****   if (NewState != DISABLE)
 1045              		.loc 1 586 3 is_stmt 1 view .LVU265
 1046              	@ .\stlib\STM32F10x_StdPeriph_Driver\src\stm32f10x_gpio.c:586:   if (NewState != DISABLE)
 1047              		.loc 1 586 6 is_stmt 0 view .LVU266
 1048 0210 19B1     		cbz	r1, .L55	@ NewState,
 587:.\stlib\STM32F10x_StdPeriph_Driver\src/stm32f10x_gpio.c ****   {
 588:.\stlib\STM32F10x_StdPeriph_Driver\src/stm32f10x_gpio.c ****     tmpreg |= (tmp << ((GPIO_Remap >> 0x15)*0x10));
 1049              		.loc 1 588 5 is_stmt 1 view .LVU267
 1050              	@ .\stlib\STM32F10x_StdPeriph_Driver\src\stm32f10x_gpio.c:588:     tmpreg |= (tmp << ((GPIO_Remap >
 1051              		.loc 1 588 36 is_stmt 0 view .LVU268
 1052 0212 420D     		lsrs	r2, r0, #21	@ tmp149, GPIO_Remap,
 1053              	@ .\stlib\STM32F10x_StdPeriph_Driver\src\stm32f10x_gpio.c:588:     tmpreg |= (tmp << ((GPIO_Remap >
 1054              		.loc 1 588 44 view .LVU269
 1055 0214 1201     		lsls	r2, r2, #4	@ tmp150, tmp149,
 1056              	@ .\stlib\STM32F10x_StdPeriph_Driver\src\stm32f10x_gpio.c:588:     tmpreg |= (tmp << ((GPIO_Remap >
 1057              		.loc 1 588 20 view .LVU270
 1058 0216 9440     		lsls	r4, r4, r2	@ tmp151, tmp, tmp150
 1059              	.LVL78:
 1060              	@ .\stlib\STM32F10x_StdPeriph_Driver\src\stm32f10x_gpio.c:588:     tmpreg |= (tmp << ((GPIO_Remap >
 1061              		.loc 1 588 12 view .LVU271
 1062 0218 2343     		orrs	r3, r3, r4	@, tmpreg, tmpreg, tmp151
 1063              	.LVL79:
 1064              	.L55:
 589:.\stlib\STM32F10x_StdPeriph_Driver\src/stm32f10x_gpio.c ****   }
 590:.\stlib\STM32F10x_StdPeriph_Driver\src/stm32f10x_gpio.c **** 
 591:.\stlib\STM32F10x_StdPeriph_Driver\src/stm32f10x_gpio.c ****   if((GPIO_Remap & 0x80000000) == 0x80000000)
 1065              		.loc 1 591 3 is_stmt 1 view .LVU272
 1066 021a 0B4A     		ldr	r2, .L62	@ tmp155,
 592:.\stlib\STM32F10x_StdPeriph_Driver\src/stm32f10x_gpio.c ****   {
 593:.\stlib\STM32F10x_StdPeriph_Driver\src/stm32f10x_gpio.c ****     AFIO->MAPR2 = tmpreg;
 1067              		.loc 1 593 5 view .LVU273
 1068              	@ .\stlib\STM32F10x_StdPeriph_Driver\src\stm32f10x_gpio.c:591:   if((GPIO_Remap & 0x80000000) == 0x
 591:.\stlib\STM32F10x_StdPeriph_Driver\src/stm32f10x_gpio.c ****   {
 1069              		.loc 1 591 5 is_stmt 0 view .LVU274
 1070 021c 0028     		cmp	r0, #0	@ GPIO_Remap,
 1071              	@ .\stlib\STM32F10x_StdPeriph_Driver\src\stm32f10x_gpio.c:593:     AFIO->MAPR2 = tmpreg;
 1072              		.loc 1 593 17 view .LVU275
 1073 021e B4BF     		ite	lt
 1074 0220 D361     		strlt	r3, [r2, #28]	@ tmpreg, MEM[(struct AFIO_TypeDef *)1073807360B].MAPR2
 594:.\stlib\STM32F10x_StdPeriph_Driver\src/stm32f10x_gpio.c ****   }
 595:.\stlib\STM32F10x_StdPeriph_Driver\src/stm32f10x_gpio.c ****   else
 596:.\stlib\STM32F10x_StdPeriph_Driver\src/stm32f10x_gpio.c ****   {
 597:.\stlib\STM32F10x_StdPeriph_Driver\src/stm32f10x_gpio.c ****     AFIO->MAPR = tmpreg;
 1075              		.loc 1 597 5 is_stmt 1 view .LVU276
 1076              	@ .\stlib\STM32F10x_StdPeriph_Driver\src\stm32f10x_gpio.c:597:     AFIO->MAPR = tmpreg;
 1077              		.loc 1 597 16 is_stmt 0 view .LVU277
 1078 0222 5360     		strge	r3, [r2, #4]	@ tmpreg, MEM[(struct AFIO_TypeDef *)1073807360B].MAPR
ARM GAS  C:\Users\skey\AppData\Local\Temp\ccLMmMAg.s 			page 32


 1079              	@ .\stlib\STM32F10x_StdPeriph_Driver\src\stm32f10x_gpio.c:599: }
 598:.\stlib\STM32F10x_StdPeriph_Driver\src/stm32f10x_gpio.c ****   }  
 599:.\stlib\STM32F10x_StdPeriph_Driver\src/stm32f10x_gpio.c **** }
 1080              		.loc 1 599 1 view .LVU278
 1081 0224 30BD     		pop	{r4, r5, pc}	@
 1082              	.LVL80:
 1083              	.L52:
 574:.\stlib\STM32F10x_StdPeriph_Driver\src/stm32f10x_gpio.c ****   {
 1084              		.loc 1 574 8 is_stmt 1 view .LVU279
 1085              	@ .\stlib\STM32F10x_StdPeriph_Driver\src\stm32f10x_gpio.c:574:   else if ((GPIO_Remap & DBGAFR_NUMB
 574:.\stlib\STM32F10x_StdPeriph_Driver\src/stm32f10x_gpio.c ****   {
 1086              		.loc 1 574 11 is_stmt 0 view .LVU280
 1087 0226 C202     		lsls	r2, r0, #11	@, GPIO_Remap,
 576:.\stlib\STM32F10x_StdPeriph_Driver\src/stm32f10x_gpio.c ****     tmpreg &= ~tmp1;
 1088              		.loc 1 576 5 is_stmt 1 view .LVU281
 1089              	.LVL81:
 577:.\stlib\STM32F10x_StdPeriph_Driver\src/stm32f10x_gpio.c ****     tmpreg |= ~DBGAFR_SWJCFG_MASK;
 1090              		.loc 1 577 5 view .LVU282
 1091              	@ .\stlib\STM32F10x_StdPeriph_Driver\src\stm32f10x_gpio.c:576:     tmp1 = ((uint32_t)0x03) << tmpma
 576:.\stlib\STM32F10x_StdPeriph_Driver\src/stm32f10x_gpio.c ****     tmpreg &= ~tmp1;
 1092              		.loc 1 576 10 is_stmt 0 view .LVU283
 1093 0228 4DBF     		iteet	mi
 1094 022a 0322     		movmi	r2, #3	@ tmp143,
 1095              	@ .\stlib\STM32F10x_StdPeriph_Driver\src\stm32f10x_gpio.c:582:     tmpreg &= ~(tmp << ((GPIO_Remap 
 582:.\stlib\STM32F10x_StdPeriph_Driver\src/stm32f10x_gpio.c ****     tmpreg |= ~DBGAFR_SWJCFG_MASK;
 1096              		.loc 1 582 37 view .LVU284
 1097 022c 420D     		lsrpl	r2, r0, #21	@ tmp145, GPIO_Remap,
 1098              	@ .\stlib\STM32F10x_StdPeriph_Driver\src\stm32f10x_gpio.c:582:     tmpreg &= ~(tmp << ((GPIO_Remap 
 582:.\stlib\STM32F10x_StdPeriph_Driver\src/stm32f10x_gpio.c ****     tmpreg |= ~DBGAFR_SWJCFG_MASK;
 1099              		.loc 1 582 45 view .LVU285
 1100 022e 1201     		lslpl	r2, r2, #4	@ tmp146, tmp145,
 1101              	@ .\stlib\STM32F10x_StdPeriph_Driver\src\stm32f10x_gpio.c:566:   tmpmask = (GPIO_Remap & DBGAFR_POS
 566:.\stlib\STM32F10x_StdPeriph_Driver\src/stm32f10x_gpio.c ****   tmp = GPIO_Remap & LSB_MASK;
 1102              		.loc 1 566 11 view .LVU286
 1103 0230 C0F30345 		ubfxmi	r5, r0, #16, #4	@ tmpmask, GPIO_Remap,,
 1104              	@ .\stlib\STM32F10x_StdPeriph_Driver\src\stm32f10x_gpio.c:576:     tmp1 = ((uint32_t)0x03) << tmpma
 576:.\stlib\STM32F10x_StdPeriph_Driver\src/stm32f10x_gpio.c ****     tmpreg &= ~tmp1;
 1105              		.loc 1 576 10 view .LVU287
 1106 0234 4CBF     		ite	mi
 1107 0236 AA40     		lslmi	r2, r2, r5	@ tmp1, tmp143, tmpmask
 582:.\stlib\STM32F10x_StdPeriph_Driver\src/stm32f10x_gpio.c ****     tmpreg |= ~DBGAFR_SWJCFG_MASK;
 1108              		.loc 1 582 5 is_stmt 1 view .LVU288
 1109              	@ .\stlib\STM32F10x_StdPeriph_Driver\src\stm32f10x_gpio.c:582:     tmpreg &= ~(tmp << ((GPIO_Remap 
 582:.\stlib\STM32F10x_StdPeriph_Driver\src/stm32f10x_gpio.c ****     tmpreg |= ~DBGAFR_SWJCFG_MASK;
 1110              		.loc 1 582 21 is_stmt 0 view .LVU289
 1111 0238 04FA02F2 		lslpl	r2, r4, r2	@ tmp147, tmp, tmp146
 1112              	@ .\stlib\STM32F10x_StdPeriph_Driver\src\stm32f10x_gpio.c:582:     tmpreg &= ~(tmp << ((GPIO_Remap 
 582:.\stlib\STM32F10x_StdPeriph_Driver\src/stm32f10x_gpio.c ****     tmpreg |= ~DBGAFR_SWJCFG_MASK;
 1113              		.loc 1 582 12 view .LVU290
 1114 023c 23EA0203 		bic	r3, r3, r2	@ tmpreg, tmpreg, tmp147
 1115              	.LVL82:
 583:.\stlib\STM32F10x_StdPeriph_Driver\src/stm32f10x_gpio.c ****   }
 1116              		.loc 1 583 5 is_stmt 1 view .LVU291
 1117              	@ .\stlib\STM32F10x_StdPeriph_Driver\src\stm32f10x_gpio.c:583:     tmpreg |= ~DBGAFR_SWJCFG_MASK;
 583:.\stlib\STM32F10x_StdPeriph_Driver\src/stm32f10x_gpio.c ****   }
 1118              		.loc 1 583 12 is_stmt 0 view .LVU292
 1119 0240 43F07063 		orr	r3, r3, #251658240	@ tmpreg, tmpreg,
ARM GAS  C:\Users\skey\AppData\Local\Temp\ccLMmMAg.s 			page 33


 1120              	.LVL83:
 583:.\stlib\STM32F10x_StdPeriph_Driver\src/stm32f10x_gpio.c ****   }
 1121              		.loc 1 583 12 view .LVU293
 1122 0244 E4E7     		b	.L53		@
 1123              	.L63:
 1124 0246 00BF     		.align	2
 1125              	.L62:
 1126 0248 00000140 		.word	1073807360
 1127              		.cfi_endproc
 1128              	.LFE44:
 1129              		.size	GPIO_PinRemapConfig, .-GPIO_PinRemapConfig
 1130              		.align	1
 1131              		.global	GPIO_EXTILineConfig
 1132              		.syntax unified
 1133              		.thumb
 1134              		.thumb_func
 1135              		.fpu softvfp
 1136              		.type	GPIO_EXTILineConfig, %function
 1137              	GPIO_EXTILineConfig:
 1138              	.LVL84:
 1139              	.LFB45:
 600:.\stlib\STM32F10x_StdPeriph_Driver\src/stm32f10x_gpio.c **** 
 601:.\stlib\STM32F10x_StdPeriph_Driver\src/stm32f10x_gpio.c **** /**
 602:.\stlib\STM32F10x_StdPeriph_Driver\src/stm32f10x_gpio.c ****   * @brief  Selects the GPIO pin used as EXTI Line.
 603:.\stlib\STM32F10x_StdPeriph_Driver\src/stm32f10x_gpio.c ****   * @param  GPIO_PortSource: selects the GPIO port to be used as source for EXTI lines.
 604:.\stlib\STM32F10x_StdPeriph_Driver\src/stm32f10x_gpio.c ****   *   This parameter can be GPIO_PortSourceGPIOx where x can be (A..G).
 605:.\stlib\STM32F10x_StdPeriph_Driver\src/stm32f10x_gpio.c ****   * @param  GPIO_PinSource: specifies the EXTI line to be configured.
 606:.\stlib\STM32F10x_StdPeriph_Driver\src/stm32f10x_gpio.c ****   *   This parameter can be GPIO_PinSourcex where x can be (0..15).
 607:.\stlib\STM32F10x_StdPeriph_Driver\src/stm32f10x_gpio.c ****   * @retval None
 608:.\stlib\STM32F10x_StdPeriph_Driver\src/stm32f10x_gpio.c ****   */
 609:.\stlib\STM32F10x_StdPeriph_Driver\src/stm32f10x_gpio.c **** void GPIO_EXTILineConfig(uint8_t GPIO_PortSource, uint8_t GPIO_PinSource)
 610:.\stlib\STM32F10x_StdPeriph_Driver\src/stm32f10x_gpio.c **** {
 1140              		.loc 1 610 1 is_stmt 1 view -0
 1141              		.cfi_startproc
 1142              		@ args = 0, pretend = 0, frame = 0
 1143              		@ frame_needed = 0, uses_anonymous_args = 0
 611:.\stlib\STM32F10x_StdPeriph_Driver\src/stm32f10x_gpio.c ****   uint32_t tmp = 0x00;
 1144              		.loc 1 611 3 view .LVU295
 612:.\stlib\STM32F10x_StdPeriph_Driver\src/stm32f10x_gpio.c ****   /* Check the parameters */
 613:.\stlib\STM32F10x_StdPeriph_Driver\src/stm32f10x_gpio.c ****   assert_param(IS_GPIO_EXTI_PORT_SOURCE(GPIO_PortSource));
 1145              		.loc 1 613 3 view .LVU296
 614:.\stlib\STM32F10x_StdPeriph_Driver\src/stm32f10x_gpio.c ****   assert_param(IS_GPIO_PIN_SOURCE(GPIO_PinSource));
 1146              		.loc 1 614 3 view .LVU297
 615:.\stlib\STM32F10x_StdPeriph_Driver\src/stm32f10x_gpio.c ****   
 616:.\stlib\STM32F10x_StdPeriph_Driver\src/stm32f10x_gpio.c ****   tmp = ((uint32_t)0x0F) << (0x04 * (GPIO_PinSource & (uint8_t)0x03));
 1147              		.loc 1 616 3 view .LVU298
 1148              	@ .\stlib\STM32F10x_StdPeriph_Driver\src\stm32f10x_gpio.c:610: {
 610:.\stlib\STM32F10x_StdPeriph_Driver\src/stm32f10x_gpio.c ****   uint32_t tmp = 0x00;
 1149              		.loc 1 610 1 is_stmt 0 view .LVU299
 1150 024c 10B5     		push	{r4, lr}	@
 1151              	.LCFI7:
 1152              		.cfi_def_cfa_offset 8
 1153              		.cfi_offset 4, -8
 1154              		.cfi_offset 14, -4
 1155              	@ .\stlib\STM32F10x_StdPeriph_Driver\src\stm32f10x_gpio.c:616:   tmp = ((uint32_t)0x0F) << (0x04 * 
 1156              		.loc 1 616 7 view .LVU300
 1157 024e 0F24     		movs	r4, #15	@ tmp134,
ARM GAS  C:\Users\skey\AppData\Local\Temp\ccLMmMAg.s 			page 34


 1158              	@ .\stlib\STM32F10x_StdPeriph_Driver\src\stm32f10x_gpio.c:616:   tmp = ((uint32_t)0x0F) << (0x04 * 
 1159              		.loc 1 616 53 view .LVU301
 1160 0250 01F00303 		and	r3, r1, #3	@ tmp128, GPIO_PinSource,
 1161 0254 01F0FC01 		and	r1, r1, #252	@ tmp131, GPIO_PinSource,
 1162              	.LVL85:
 1163              		.loc 1 616 53 view .LVU302
 1164 0258 01F18041 		add	r1, r1, #1073741824	@ _21, tmp131,
 1165 025c 01F58031 		add	r1, r1, #65536	@ _21, _21,
 1166              	@ .\stlib\STM32F10x_StdPeriph_Driver\src\stm32f10x_gpio.c:617:   AFIO->EXTICR[GPIO_PinSource >> 0x0
 617:.\stlib\STM32F10x_StdPeriph_Driver\src/stm32f10x_gpio.c ****   AFIO->EXTICR[GPIO_PinSource >> 0x02] &= ~tmp;
 1167              		.loc 1 617 40 view .LVU303
 1168 0260 8A68     		ldr	r2, [r1, #8]	@ _5, MEM[(struct AFIO_TypeDef *)_21 + 8B]
 1169              	@ .\stlib\STM32F10x_StdPeriph_Driver\src\stm32f10x_gpio.c:616:   tmp = ((uint32_t)0x0F) << (0x04 * 
 616:.\stlib\STM32F10x_StdPeriph_Driver\src/stm32f10x_gpio.c ****   AFIO->EXTICR[GPIO_PinSource >> 0x02] &= ~tmp;
 1170              		.loc 1 616 35 view .LVU304
 1171 0262 9B00     		lsls	r3, r3, #2	@ _2, tmp128,
 1172              	.LVL86:
 1173              		.loc 1 617 3 is_stmt 1 view .LVU305
 1174              	@ .\stlib\STM32F10x_StdPeriph_Driver\src\stm32f10x_gpio.c:616:   tmp = ((uint32_t)0x0F) << (0x04 * 
 616:.\stlib\STM32F10x_StdPeriph_Driver\src/stm32f10x_gpio.c ****   AFIO->EXTICR[GPIO_PinSource >> 0x02] &= ~tmp;
 1175              		.loc 1 616 7 is_stmt 0 view .LVU306
 1176 0264 9C40     		lsls	r4, r4, r3	@ tmp, tmp134, _2
 1177              	.LVL87:
 1178              	@ .\stlib\STM32F10x_StdPeriph_Driver\src\stm32f10x_gpio.c:617:   AFIO->EXTICR[GPIO_PinSource >> 0x0
 1179              		.loc 1 617 40 view .LVU307
 1180 0266 22EA0402 		bic	r2, r2, r4	@ _7, _5, tmp
 1181 026a 8A60     		str	r2, [r1, #8]	@ _7, MEM[(struct AFIO_TypeDef *)_21 + 8B]
 618:.\stlib\STM32F10x_StdPeriph_Driver\src/stm32f10x_gpio.c ****   AFIO->EXTICR[GPIO_PinSource >> 0x02] |= (((uint32_t)GPIO_PortSource) << (0x04 * (GPIO_PinSource &
 1182              		.loc 1 618 3 is_stmt 1 view .LVU308
 1183              	@ .\stlib\STM32F10x_StdPeriph_Driver\src\stm32f10x_gpio.c:618:   AFIO->EXTICR[GPIO_PinSource >> 0x0
 1184              		.loc 1 618 40 is_stmt 0 view .LVU309
 1185 026c 8A68     		ldr	r2, [r1, #8]	@ _8, MEM[(struct AFIO_TypeDef *)_21 + 8B]
 1186              	@ .\stlib\STM32F10x_StdPeriph_Driver\src\stm32f10x_gpio.c:618:   AFIO->EXTICR[GPIO_PinSource >> 0x0
 1187              		.loc 1 618 72 view .LVU310
 1188 026e 9840     		lsls	r0, r0, r3	@ tmp136, tmp137, _2
 1189              	.LVL88:
 1190              	@ .\stlib\STM32F10x_StdPeriph_Driver\src\stm32f10x_gpio.c:618:   AFIO->EXTICR[GPIO_PinSource >> 0x0
 1191              		.loc 1 618 40 view .LVU311
 1192 0270 1043     		orrs	r0, r0, r2	@, _11, tmp136, _8
 1193 0272 8860     		str	r0, [r1, #8]	@ _11, MEM[(struct AFIO_TypeDef *)_21 + 8B]
 1194              	@ .\stlib\STM32F10x_StdPeriph_Driver\src\stm32f10x_gpio.c:619: }
 619:.\stlib\STM32F10x_StdPeriph_Driver\src/stm32f10x_gpio.c **** }
 1195              		.loc 1 619 1 view .LVU312
 1196 0274 10BD     		pop	{r4, pc}	@
 1197              		.loc 1 619 1 view .LVU313
 1198              		.cfi_endproc
 1199              	.LFE45:
 1200              		.size	GPIO_EXTILineConfig, .-GPIO_EXTILineConfig
 1201              		.align	1
 1202              		.global	GPIO_ETH_MediaInterfaceConfig
 1203              		.syntax unified
 1204              		.thumb
 1205              		.thumb_func
 1206              		.fpu softvfp
 1207              		.type	GPIO_ETH_MediaInterfaceConfig, %function
 1208              	GPIO_ETH_MediaInterfaceConfig:
 1209              	.LVL89:
ARM GAS  C:\Users\skey\AppData\Local\Temp\ccLMmMAg.s 			page 35


 1210              	.LFB46:
 620:.\stlib\STM32F10x_StdPeriph_Driver\src/stm32f10x_gpio.c **** 
 621:.\stlib\STM32F10x_StdPeriph_Driver\src/stm32f10x_gpio.c **** /**
 622:.\stlib\STM32F10x_StdPeriph_Driver\src/stm32f10x_gpio.c ****   * @brief  Selects the Ethernet media interface.
 623:.\stlib\STM32F10x_StdPeriph_Driver\src/stm32f10x_gpio.c ****   * @note   This function applies only to STM32 Connectivity line devices.  
 624:.\stlib\STM32F10x_StdPeriph_Driver\src/stm32f10x_gpio.c ****   * @param  GPIO_ETH_MediaInterface: specifies the Media Interface mode.
 625:.\stlib\STM32F10x_StdPeriph_Driver\src/stm32f10x_gpio.c ****   *   This parameter can be one of the following values:
 626:.\stlib\STM32F10x_StdPeriph_Driver\src/stm32f10x_gpio.c ****   *     @arg GPIO_ETH_MediaInterface_MII: MII mode
 627:.\stlib\STM32F10x_StdPeriph_Driver\src/stm32f10x_gpio.c ****   *     @arg GPIO_ETH_MediaInterface_RMII: RMII mode    
 628:.\stlib\STM32F10x_StdPeriph_Driver\src/stm32f10x_gpio.c ****   * @retval None
 629:.\stlib\STM32F10x_StdPeriph_Driver\src/stm32f10x_gpio.c ****   */
 630:.\stlib\STM32F10x_StdPeriph_Driver\src/stm32f10x_gpio.c **** void GPIO_ETH_MediaInterfaceConfig(uint32_t GPIO_ETH_MediaInterface) 
 631:.\stlib\STM32F10x_StdPeriph_Driver\src/stm32f10x_gpio.c **** { 
 1211              		.loc 1 631 1 is_stmt 1 view -0
 1212              		.cfi_startproc
 1213              		@ args = 0, pretend = 0, frame = 0
 1214              		@ frame_needed = 0, uses_anonymous_args = 0
 1215              		@ link register save eliminated.
 632:.\stlib\STM32F10x_StdPeriph_Driver\src/stm32f10x_gpio.c ****   assert_param(IS_GPIO_ETH_MEDIA_INTERFACE(GPIO_ETH_MediaInterface)); 
 1216              		.loc 1 632 3 view .LVU315
 633:.\stlib\STM32F10x_StdPeriph_Driver\src/stm32f10x_gpio.c **** 
 634:.\stlib\STM32F10x_StdPeriph_Driver\src/stm32f10x_gpio.c ****   /* Configure MII_RMII selection bit */ 
 635:.\stlib\STM32F10x_StdPeriph_Driver\src/stm32f10x_gpio.c ****   *(__IO uint32_t *) MAPR_MII_RMII_SEL_BB = GPIO_ETH_MediaInterface; 
 1217              		.loc 1 635 3 view .LVU316
 1218              	@ .\stlib\STM32F10x_StdPeriph_Driver\src\stm32f10x_gpio.c:635:   *(__IO uint32_t *) MAPR_MII_RMII_S
 1219              		.loc 1 635 43 is_stmt 0 view .LVU317
 1220 0276 014B     		ldr	r3, .L66	@ tmp111,
 1221 0278 1860     		str	r0, [r3]	@ GPIO_ETH_MediaInterface, MEM[(volatile uint32_t *)1109393628B]
 1222              	@ .\stlib\STM32F10x_StdPeriph_Driver\src\stm32f10x_gpio.c:636: }
 636:.\stlib\STM32F10x_StdPeriph_Driver\src/stm32f10x_gpio.c **** }
 1223              		.loc 1 636 1 view .LVU318
 1224 027a 7047     		bx	lr	@
 1225              	.L67:
 1226              		.align	2
 1227              	.L66:
 1228 027c DC002042 		.word	1109393628
 1229              		.cfi_endproc
 1230              	.LFE46:
 1231              		.size	GPIO_ETH_MediaInterfaceConfig, .-GPIO_ETH_MediaInterfaceConfig
 1232              	.Letext0:
 1233              		.file 2 "c:\\program files (x86)\\gnu tools arm embedded\\9 2019-q4-major\\arm-none-eabi\\include\
 1234              		.file 3 "c:\\program files (x86)\\gnu tools arm embedded\\9 2019-q4-major\\arm-none-eabi\\include\
 1235              		.file 4 ".\\stlib\\CMSIS\\CM3\\CoreSupport/core_cm3.h"
 1236              		.file 5 ".\\stlib\\CMSIS\\CM3\\DeviceSupport\\ST\\STM32F10x/system_stm32f10x.h"
 1237              		.file 6 ".\\stlib\\CMSIS\\CM3\\DeviceSupport\\ST\\STM32F10x/stm32f10x.h"
 1238              		.file 7 ".\\stlib\\STM32F10x_StdPeriph_Driver\\inc/stm32f10x_gpio.h"
 1239              		.file 8 ".\\stlib\\STM32F10x_StdPeriph_Driver\\inc/stm32f10x_rcc.h"