ARM GAS  C:\Users\skey\AppData\Local\Temp\cchabaxk.s 			page 1


   1              		.cpu cortex-m3
   2              		.eabi_attribute 20, 1	@ Tag_ABI_FP_denormal
   3              		.eabi_attribute 21, 1	@ Tag_ABI_FP_exceptions
   4              		.eabi_attribute 23, 3	@ Tag_ABI_FP_number_model
   5              		.eabi_attribute 24, 1	@ Tag_ABI_align8_needed
   6              		.eabi_attribute 25, 1	@ Tag_ABI_align8_preserved
   7              		.eabi_attribute 26, 1	@ Tag_ABI_enum_size
   8              		.eabi_attribute 30, 4	@ Tag_ABI_optimization_goals
   9              		.eabi_attribute 34, 1	@ Tag_CPU_unaligned_access
  10              		.eabi_attribute 18, 4	@ Tag_ABI_PCS_wchar_t
  11              		.file	"stm32f10x_spi.c"
  12              	@ GNU C17 (GNU Tools for Arm Embedded Processors 9-2019-q4-major) version 9.2.1 20191025 (release) 
  13              	@	compiled by GNU C version 5.3.1 20160211, GMP version 6.1.0, MPFR version 3.1.4, MPC version 1.0.
  14              	
  15              	@ GGC heuristics: --param ggc-min-expand=100 --param ggc-min-heapsize=131072
  16              	@ options passed:  -I . -I .\usr_inc -I .\task_inc
  17              	@ -I .\stlib\CMSIS\CM3\CoreSupport
  18              	@ -I .\stlib\CMSIS\CM3\DeviceSupport\ST\STM32F10x
  19              	@ -I .\stlib\STM32F10x_StdPeriph_Driver\inc
  20              	@ -I .\stlib\STM32F10x_StdPeriph_Driver -I .\freertos\include
  21              	@ -I .\freertos\portable\GCC\ARM_CM3 -imultilib thumb/v7-m/nofp
  22              	@ -iprefix c:\program files (x86)\gnu tools arm embedded\9 2019-q4-major\bin\../lib/gcc/arm-none-ea
  23              	@ -isysroot c:\program files (x86)\gnu tools arm embedded\9 2019-q4-major\bin\../arm-none-eabi
  24              	@ -D__USES_INITFINI__ -D STM32F10X_HD -D USE_STDPERIPH_DRIVER
  25              	@ -D HSE_VALUE=8000000 -D RUN_FROM_FLASH=1
  26              	@ .\stlib\STM32F10x_StdPeriph_Driver\src\stm32f10x_spi.c -mcpu=cortex-m3
  27              	@ -mthumb -mfloat-abi=soft -march=armv7-m
  28              	@ -auxbase-strip .\stlib\STM32F10x_StdPeriph_Driver\src\stm32f10x_spi.o -g
  29              	@ -gdwarf-2 -Os -Wall -fomit-frame-pointer -fverbose-asm
  30              	@ options enabled:  -faggressive-loop-optimizations -fassume-phsa
  31              	@ -fauto-inc-dec -fbranch-count-reg -fcaller-saves -fcode-hoisting
  32              	@ -fcombine-stack-adjustments -fcommon -fcompare-elim -fcprop-registers
  33              	@ -fcrossjumping -fcse-follow-jumps -fdefer-pop
  34              	@ -fdelete-null-pointer-checks -fdevirtualize -fdevirtualize-speculatively
  35              	@ -fdwarf2-cfi-asm -fearly-inlining -feliminate-unused-debug-types
  36              	@ -fexpensive-optimizations -fforward-propagate -ffp-int-builtin-inexact
  37              	@ -ffunction-cse -fgcse -fgcse-lm -fgnu-runtime -fgnu-unique
  38              	@ -fguess-branch-probability -fhoist-adjacent-loads -fident -fif-conversion
  39              	@ -fif-conversion2 -findirect-inlining -finline -finline-atomics
  40              	@ -finline-functions -finline-functions-called-once
  41              	@ -finline-small-functions -fipa-bit-cp -fipa-cp -fipa-icf
  42              	@ -fipa-icf-functions -fipa-icf-variables -fipa-profile -fipa-pure-const
  43              	@ -fipa-ra -fipa-reference -fipa-reference-addressable -fipa-sra
  44              	@ -fipa-stack-alignment -fipa-vrp -fira-hoist-pressure
  45              	@ -fira-share-save-slots -fira-share-spill-slots
  46              	@ -fisolate-erroneous-paths-dereference -fivopts -fkeep-static-consts
  47              	@ -fleading-underscore -flifetime-dse -flra-remat -flto-odr-type-merging
  48              	@ -fmath-errno -fmerge-constants -fmerge-debug-strings
  49              	@ -fmove-loop-invariants -fomit-frame-pointer -foptimize-sibling-calls
  50              	@ -fpartial-inlining -fpeephole -fpeephole2 -fplt -fprefetch-loop-arrays
  51              	@ -freg-struct-return -freorder-blocks -freorder-functions
  52              	@ -frerun-cse-after-loop -fsched-critical-path-heuristic
  53              	@ -fsched-dep-count-heuristic -fsched-group-heuristic -fsched-interblock
  54              	@ -fsched-last-insn-heuristic -fsched-pressure -fsched-rank-heuristic
  55              	@ -fsched-spec -fsched-spec-insn-heuristic -fsched-stalled-insns-dep
  56              	@ -fschedule-insns2 -fsection-anchors -fsemantic-interposition
  57              	@ -fshow-column -fshrink-wrap-separate -fsigned-zeros
ARM GAS  C:\Users\skey\AppData\Local\Temp\cchabaxk.s 			page 2


  58              	@ -fsplit-ivs-in-unroller -fsplit-wide-types -fssa-backprop -fssa-phiopt
  59              	@ -fstdarg-opt -fstore-merging -fstrict-aliasing
  60              	@ -fstrict-volatile-bitfields -fsync-libcalls -fthread-jumps
  61              	@ -ftoplevel-reorder -ftrapping-math -ftree-bit-ccp -ftree-builtin-call-dce
  62              	@ -ftree-ccp -ftree-ch -ftree-coalesce-vars -ftree-copy-prop -ftree-cselim
  63              	@ -ftree-dce -ftree-dominator-opts -ftree-dse -ftree-forwprop -ftree-fre
  64              	@ -ftree-loop-if-convert -ftree-loop-im -ftree-loop-ivcanon
  65              	@ -ftree-loop-optimize -ftree-parallelize-loops= -ftree-phiprop -ftree-pre
  66              	@ -ftree-pta -ftree-reassoc -ftree-scev-cprop -ftree-sink -ftree-slsr
  67              	@ -ftree-sra -ftree-switch-conversion -ftree-tail-merge -ftree-ter
  68              	@ -ftree-vrp -funit-at-a-time -fvar-tracking -fvar-tracking-assignments
  69              	@ -fverbose-asm -fzero-initialized-in-bss -masm-syntax-unified -mbe32
  70              	@ -mfix-cortex-m3-ldrd -mlittle-endian -mpic-data-is-text-relative
  71              	@ -msched-prolog -mthumb -munaligned-access -mvectorize-with-neon-quad
  72              	
  73              		.text
  74              	.Ltext0:
  75              		.cfi_sections	.debug_frame
  76              		.align	1
  77              		.global	SPI_I2S_DeInit
  78              		.arch armv7-m
  79              		.syntax unified
  80              		.thumb
  81              		.thumb_func
  82              		.fpu softvfp
  83              		.type	SPI_I2S_DeInit, %function
  84              	SPI_I2S_DeInit:
  85              	.LVL0:
  86              	.LFB29:
  87              		.file 1 ".\\stlib\\STM32F10x_StdPeriph_Driver\\src\\stm32f10x_spi.c"
   1:.\stlib\STM32F10x_StdPeriph_Driver\src/stm32f10x_spi.c **** /**
   2:.\stlib\STM32F10x_StdPeriph_Driver\src/stm32f10x_spi.c ****   ******************************************************************************
   3:.\stlib\STM32F10x_StdPeriph_Driver\src/stm32f10x_spi.c ****   * @file    stm32f10x_spi.c
   4:.\stlib\STM32F10x_StdPeriph_Driver\src/stm32f10x_spi.c ****   * @author  MCD Application Team
   5:.\stlib\STM32F10x_StdPeriph_Driver\src/stm32f10x_spi.c ****   * @version V3.5.0
   6:.\stlib\STM32F10x_StdPeriph_Driver\src/stm32f10x_spi.c ****   * @date    11-March-2011
   7:.\stlib\STM32F10x_StdPeriph_Driver\src/stm32f10x_spi.c ****   * @brief   This file provides all the SPI firmware functions.
   8:.\stlib\STM32F10x_StdPeriph_Driver\src/stm32f10x_spi.c ****   ******************************************************************************
   9:.\stlib\STM32F10x_StdPeriph_Driver\src/stm32f10x_spi.c ****   * @attention
  10:.\stlib\STM32F10x_StdPeriph_Driver\src/stm32f10x_spi.c ****   *
  11:.\stlib\STM32F10x_StdPeriph_Driver\src/stm32f10x_spi.c ****   * THE PRESENT FIRMWARE WHICH IS FOR GUIDANCE ONLY AIMS AT PROVIDING CUSTOMERS
  12:.\stlib\STM32F10x_StdPeriph_Driver\src/stm32f10x_spi.c ****   * WITH CODING INFORMATION REGARDING THEIR PRODUCTS IN ORDER FOR THEM TO SAVE
  13:.\stlib\STM32F10x_StdPeriph_Driver\src/stm32f10x_spi.c ****   * TIME. AS A RESULT, STMICROELECTRONICS SHALL NOT BE HELD LIABLE FOR ANY
  14:.\stlib\STM32F10x_StdPeriph_Driver\src/stm32f10x_spi.c ****   * DIRECT, INDIRECT OR CONSEQUENTIAL DAMAGES WITH RESPECT TO ANY CLAIMS ARISING
  15:.\stlib\STM32F10x_StdPeriph_Driver\src/stm32f10x_spi.c ****   * FROM THE CONTENT OF SUCH FIRMWARE AND/OR THE USE MADE BY CUSTOMERS OF THE
  16:.\stlib\STM32F10x_StdPeriph_Driver\src/stm32f10x_spi.c ****   * CODING INFORMATION CONTAINED HEREIN IN CONNECTION WITH THEIR PRODUCTS.
  17:.\stlib\STM32F10x_StdPeriph_Driver\src/stm32f10x_spi.c ****   *
  18:.\stlib\STM32F10x_StdPeriph_Driver\src/stm32f10x_spi.c ****   * <h2><center>&copy; COPYRIGHT 2011 STMicroelectronics</center></h2>
  19:.\stlib\STM32F10x_StdPeriph_Driver\src/stm32f10x_spi.c ****   ******************************************************************************
  20:.\stlib\STM32F10x_StdPeriph_Driver\src/stm32f10x_spi.c ****   */
  21:.\stlib\STM32F10x_StdPeriph_Driver\src/stm32f10x_spi.c **** 
  22:.\stlib\STM32F10x_StdPeriph_Driver\src/stm32f10x_spi.c **** /* Includes ------------------------------------------------------------------*/
  23:.\stlib\STM32F10x_StdPeriph_Driver\src/stm32f10x_spi.c **** #include "stm32f10x_spi.h"
  24:.\stlib\STM32F10x_StdPeriph_Driver\src/stm32f10x_spi.c **** #include "stm32f10x_rcc.h"
  25:.\stlib\STM32F10x_StdPeriph_Driver\src/stm32f10x_spi.c **** 
  26:.\stlib\STM32F10x_StdPeriph_Driver\src/stm32f10x_spi.c **** /** @addtogroup STM32F10x_StdPeriph_Driver
  27:.\stlib\STM32F10x_StdPeriph_Driver\src/stm32f10x_spi.c ****   * @{
ARM GAS  C:\Users\skey\AppData\Local\Temp\cchabaxk.s 			page 3


  28:.\stlib\STM32F10x_StdPeriph_Driver\src/stm32f10x_spi.c ****   */
  29:.\stlib\STM32F10x_StdPeriph_Driver\src/stm32f10x_spi.c **** 
  30:.\stlib\STM32F10x_StdPeriph_Driver\src/stm32f10x_spi.c **** /** @defgroup SPI 
  31:.\stlib\STM32F10x_StdPeriph_Driver\src/stm32f10x_spi.c ****   * @brief SPI driver modules
  32:.\stlib\STM32F10x_StdPeriph_Driver\src/stm32f10x_spi.c ****   * @{
  33:.\stlib\STM32F10x_StdPeriph_Driver\src/stm32f10x_spi.c ****   */ 
  34:.\stlib\STM32F10x_StdPeriph_Driver\src/stm32f10x_spi.c **** 
  35:.\stlib\STM32F10x_StdPeriph_Driver\src/stm32f10x_spi.c **** /** @defgroup SPI_Private_TypesDefinitions
  36:.\stlib\STM32F10x_StdPeriph_Driver\src/stm32f10x_spi.c ****   * @{
  37:.\stlib\STM32F10x_StdPeriph_Driver\src/stm32f10x_spi.c ****   */
  38:.\stlib\STM32F10x_StdPeriph_Driver\src/stm32f10x_spi.c **** 
  39:.\stlib\STM32F10x_StdPeriph_Driver\src/stm32f10x_spi.c **** /**
  40:.\stlib\STM32F10x_StdPeriph_Driver\src/stm32f10x_spi.c ****   * @}
  41:.\stlib\STM32F10x_StdPeriph_Driver\src/stm32f10x_spi.c ****   */ 
  42:.\stlib\STM32F10x_StdPeriph_Driver\src/stm32f10x_spi.c **** 
  43:.\stlib\STM32F10x_StdPeriph_Driver\src/stm32f10x_spi.c **** 
  44:.\stlib\STM32F10x_StdPeriph_Driver\src/stm32f10x_spi.c **** /** @defgroup SPI_Private_Defines
  45:.\stlib\STM32F10x_StdPeriph_Driver\src/stm32f10x_spi.c ****   * @{
  46:.\stlib\STM32F10x_StdPeriph_Driver\src/stm32f10x_spi.c ****   */
  47:.\stlib\STM32F10x_StdPeriph_Driver\src/stm32f10x_spi.c **** 
  48:.\stlib\STM32F10x_StdPeriph_Driver\src/stm32f10x_spi.c **** /* SPI SPE mask */
  49:.\stlib\STM32F10x_StdPeriph_Driver\src/stm32f10x_spi.c **** #define CR1_SPE_Set          ((uint16_t)0x0040)
  50:.\stlib\STM32F10x_StdPeriph_Driver\src/stm32f10x_spi.c **** #define CR1_SPE_Reset        ((uint16_t)0xFFBF)
  51:.\stlib\STM32F10x_StdPeriph_Driver\src/stm32f10x_spi.c **** 
  52:.\stlib\STM32F10x_StdPeriph_Driver\src/stm32f10x_spi.c **** /* I2S I2SE mask */
  53:.\stlib\STM32F10x_StdPeriph_Driver\src/stm32f10x_spi.c **** #define I2SCFGR_I2SE_Set     ((uint16_t)0x0400)
  54:.\stlib\STM32F10x_StdPeriph_Driver\src/stm32f10x_spi.c **** #define I2SCFGR_I2SE_Reset   ((uint16_t)0xFBFF)
  55:.\stlib\STM32F10x_StdPeriph_Driver\src/stm32f10x_spi.c **** 
  56:.\stlib\STM32F10x_StdPeriph_Driver\src/stm32f10x_spi.c **** /* SPI CRCNext mask */
  57:.\stlib\STM32F10x_StdPeriph_Driver\src/stm32f10x_spi.c **** #define CR1_CRCNext_Set      ((uint16_t)0x1000)
  58:.\stlib\STM32F10x_StdPeriph_Driver\src/stm32f10x_spi.c **** 
  59:.\stlib\STM32F10x_StdPeriph_Driver\src/stm32f10x_spi.c **** /* SPI CRCEN mask */
  60:.\stlib\STM32F10x_StdPeriph_Driver\src/stm32f10x_spi.c **** #define CR1_CRCEN_Set        ((uint16_t)0x2000)
  61:.\stlib\STM32F10x_StdPeriph_Driver\src/stm32f10x_spi.c **** #define CR1_CRCEN_Reset      ((uint16_t)0xDFFF)
  62:.\stlib\STM32F10x_StdPeriph_Driver\src/stm32f10x_spi.c **** 
  63:.\stlib\STM32F10x_StdPeriph_Driver\src/stm32f10x_spi.c **** /* SPI SSOE mask */
  64:.\stlib\STM32F10x_StdPeriph_Driver\src/stm32f10x_spi.c **** #define CR2_SSOE_Set         ((uint16_t)0x0004)
  65:.\stlib\STM32F10x_StdPeriph_Driver\src/stm32f10x_spi.c **** #define CR2_SSOE_Reset       ((uint16_t)0xFFFB)
  66:.\stlib\STM32F10x_StdPeriph_Driver\src/stm32f10x_spi.c **** 
  67:.\stlib\STM32F10x_StdPeriph_Driver\src/stm32f10x_spi.c **** /* SPI registers Masks */
  68:.\stlib\STM32F10x_StdPeriph_Driver\src/stm32f10x_spi.c **** #define CR1_CLEAR_Mask       ((uint16_t)0x3040)
  69:.\stlib\STM32F10x_StdPeriph_Driver\src/stm32f10x_spi.c **** #define I2SCFGR_CLEAR_Mask   ((uint16_t)0xF040)
  70:.\stlib\STM32F10x_StdPeriph_Driver\src/stm32f10x_spi.c **** 
  71:.\stlib\STM32F10x_StdPeriph_Driver\src/stm32f10x_spi.c **** /* SPI or I2S mode selection masks */
  72:.\stlib\STM32F10x_StdPeriph_Driver\src/stm32f10x_spi.c **** #define SPI_Mode_Select      ((uint16_t)0xF7FF)
  73:.\stlib\STM32F10x_StdPeriph_Driver\src/stm32f10x_spi.c **** #define I2S_Mode_Select      ((uint16_t)0x0800) 
  74:.\stlib\STM32F10x_StdPeriph_Driver\src/stm32f10x_spi.c **** 
  75:.\stlib\STM32F10x_StdPeriph_Driver\src/stm32f10x_spi.c **** /* I2S clock source selection masks */
  76:.\stlib\STM32F10x_StdPeriph_Driver\src/stm32f10x_spi.c **** #define I2S2_CLOCK_SRC       ((uint32_t)(0x00020000))
  77:.\stlib\STM32F10x_StdPeriph_Driver\src/stm32f10x_spi.c **** #define I2S3_CLOCK_SRC       ((uint32_t)(0x00040000))
  78:.\stlib\STM32F10x_StdPeriph_Driver\src/stm32f10x_spi.c **** #define I2S_MUL_MASK         ((uint32_t)(0x0000F000))
  79:.\stlib\STM32F10x_StdPeriph_Driver\src/stm32f10x_spi.c **** #define I2S_DIV_MASK         ((uint32_t)(0x000000F0))
  80:.\stlib\STM32F10x_StdPeriph_Driver\src/stm32f10x_spi.c **** 
  81:.\stlib\STM32F10x_StdPeriph_Driver\src/stm32f10x_spi.c **** /**
  82:.\stlib\STM32F10x_StdPeriph_Driver\src/stm32f10x_spi.c ****   * @}
  83:.\stlib\STM32F10x_StdPeriph_Driver\src/stm32f10x_spi.c ****   */
  84:.\stlib\STM32F10x_StdPeriph_Driver\src/stm32f10x_spi.c **** 
ARM GAS  C:\Users\skey\AppData\Local\Temp\cchabaxk.s 			page 4


  85:.\stlib\STM32F10x_StdPeriph_Driver\src/stm32f10x_spi.c **** /** @defgroup SPI_Private_Macros
  86:.\stlib\STM32F10x_StdPeriph_Driver\src/stm32f10x_spi.c ****   * @{
  87:.\stlib\STM32F10x_StdPeriph_Driver\src/stm32f10x_spi.c ****   */
  88:.\stlib\STM32F10x_StdPeriph_Driver\src/stm32f10x_spi.c **** 
  89:.\stlib\STM32F10x_StdPeriph_Driver\src/stm32f10x_spi.c **** /**
  90:.\stlib\STM32F10x_StdPeriph_Driver\src/stm32f10x_spi.c ****   * @}
  91:.\stlib\STM32F10x_StdPeriph_Driver\src/stm32f10x_spi.c ****   */
  92:.\stlib\STM32F10x_StdPeriph_Driver\src/stm32f10x_spi.c **** 
  93:.\stlib\STM32F10x_StdPeriph_Driver\src/stm32f10x_spi.c **** /** @defgroup SPI_Private_Variables
  94:.\stlib\STM32F10x_StdPeriph_Driver\src/stm32f10x_spi.c ****   * @{
  95:.\stlib\STM32F10x_StdPeriph_Driver\src/stm32f10x_spi.c ****   */
  96:.\stlib\STM32F10x_StdPeriph_Driver\src/stm32f10x_spi.c **** 
  97:.\stlib\STM32F10x_StdPeriph_Driver\src/stm32f10x_spi.c **** /**
  98:.\stlib\STM32F10x_StdPeriph_Driver\src/stm32f10x_spi.c ****   * @}
  99:.\stlib\STM32F10x_StdPeriph_Driver\src/stm32f10x_spi.c ****   */
 100:.\stlib\STM32F10x_StdPeriph_Driver\src/stm32f10x_spi.c **** 
 101:.\stlib\STM32F10x_StdPeriph_Driver\src/stm32f10x_spi.c **** /** @defgroup SPI_Private_FunctionPrototypes
 102:.\stlib\STM32F10x_StdPeriph_Driver\src/stm32f10x_spi.c ****   * @{
 103:.\stlib\STM32F10x_StdPeriph_Driver\src/stm32f10x_spi.c ****   */
 104:.\stlib\STM32F10x_StdPeriph_Driver\src/stm32f10x_spi.c **** 
 105:.\stlib\STM32F10x_StdPeriph_Driver\src/stm32f10x_spi.c **** /**
 106:.\stlib\STM32F10x_StdPeriph_Driver\src/stm32f10x_spi.c ****   * @}
 107:.\stlib\STM32F10x_StdPeriph_Driver\src/stm32f10x_spi.c ****   */
 108:.\stlib\STM32F10x_StdPeriph_Driver\src/stm32f10x_spi.c **** 
 109:.\stlib\STM32F10x_StdPeriph_Driver\src/stm32f10x_spi.c **** /** @defgroup SPI_Private_Functions
 110:.\stlib\STM32F10x_StdPeriph_Driver\src/stm32f10x_spi.c ****   * @{
 111:.\stlib\STM32F10x_StdPeriph_Driver\src/stm32f10x_spi.c ****   */
 112:.\stlib\STM32F10x_StdPeriph_Driver\src/stm32f10x_spi.c **** 
 113:.\stlib\STM32F10x_StdPeriph_Driver\src/stm32f10x_spi.c **** /**
 114:.\stlib\STM32F10x_StdPeriph_Driver\src/stm32f10x_spi.c ****   * @brief  Deinitializes the SPIx peripheral registers to their default
 115:.\stlib\STM32F10x_StdPeriph_Driver\src/stm32f10x_spi.c ****   *         reset values (Affects also the I2Ss).
 116:.\stlib\STM32F10x_StdPeriph_Driver\src/stm32f10x_spi.c ****   * @param  SPIx: where x can be 1, 2 or 3 to select the SPI peripheral.
 117:.\stlib\STM32F10x_StdPeriph_Driver\src/stm32f10x_spi.c ****   * @retval None
 118:.\stlib\STM32F10x_StdPeriph_Driver\src/stm32f10x_spi.c ****   */
 119:.\stlib\STM32F10x_StdPeriph_Driver\src/stm32f10x_spi.c **** void SPI_I2S_DeInit(SPI_TypeDef* SPIx)
 120:.\stlib\STM32F10x_StdPeriph_Driver\src/stm32f10x_spi.c **** {
  88              		.loc 1 120 1 view -0
  89              		.cfi_startproc
  90              		@ args = 0, pretend = 0, frame = 0
  91              		@ frame_needed = 0, uses_anonymous_args = 0
 121:.\stlib\STM32F10x_StdPeriph_Driver\src/stm32f10x_spi.c ****   /* Check the parameters */
 122:.\stlib\STM32F10x_StdPeriph_Driver\src/stm32f10x_spi.c ****   assert_param(IS_SPI_ALL_PERIPH(SPIx));
  92              		.loc 1 122 3 view .LVU1
 123:.\stlib\STM32F10x_StdPeriph_Driver\src/stm32f10x_spi.c **** 
 124:.\stlib\STM32F10x_StdPeriph_Driver\src/stm32f10x_spi.c ****   if (SPIx == SPI1)
  93              		.loc 1 124 3 view .LVU2
  94              	@ .\stlib\STM32F10x_StdPeriph_Driver\src\stm32f10x_spi.c:120: {
 120:.\stlib\STM32F10x_StdPeriph_Driver\src/stm32f10x_spi.c ****   /* Check the parameters */
  95              		.loc 1 120 1 is_stmt 0 view .LVU3
  96 0000 08B5     		push	{r3, lr}	@
  97              	.LCFI0:
  98              		.cfi_def_cfa_offset 8
  99              		.cfi_offset 3, -8
 100              		.cfi_offset 14, -4
 101              	@ .\stlib\STM32F10x_StdPeriph_Driver\src\stm32f10x_spi.c:124:   if (SPIx == SPI1)
 102              		.loc 1 124 6 view .LVU4
 103 0002 154B     		ldr	r3, .L6	@ tmp111,
ARM GAS  C:\Users\skey\AppData\Local\Temp\cchabaxk.s 			page 5


 104 0004 9842     		cmp	r0, r3	@ SPIx, tmp111
 105 0006 0BD1     		bne	.L2		@,
 125:.\stlib\STM32F10x_StdPeriph_Driver\src/stm32f10x_spi.c ****   {
 126:.\stlib\STM32F10x_StdPeriph_Driver\src/stm32f10x_spi.c ****     /* Enable SPI1 reset state */
 127:.\stlib\STM32F10x_StdPeriph_Driver\src/stm32f10x_spi.c ****     RCC_APB2PeriphResetCmd(RCC_APB2Periph_SPI1, ENABLE);
 106              		.loc 1 127 5 is_stmt 1 view .LVU5
 107 0008 0121     		movs	r1, #1	@,
 108 000a 4FF48050 		mov	r0, #4096	@,
 109              	.LVL1:
 110              		.loc 1 127 5 is_stmt 0 view .LVU6
 111 000e FFF7FEFF 		bl	RCC_APB2PeriphResetCmd		@
 112              	.LVL2:
 128:.\stlib\STM32F10x_StdPeriph_Driver\src/stm32f10x_spi.c ****     /* Release SPI1 from reset state */
 129:.\stlib\STM32F10x_StdPeriph_Driver\src/stm32f10x_spi.c ****     RCC_APB2PeriphResetCmd(RCC_APB2Periph_SPI1, DISABLE);
 113              		.loc 1 129 5 is_stmt 1 view .LVU7
 114              	@ .\stlib\STM32F10x_StdPeriph_Driver\src\stm32f10x_spi.c:148: }
 130:.\stlib\STM32F10x_StdPeriph_Driver\src/stm32f10x_spi.c ****   }
 131:.\stlib\STM32F10x_StdPeriph_Driver\src/stm32f10x_spi.c ****   else if (SPIx == SPI2)
 132:.\stlib\STM32F10x_StdPeriph_Driver\src/stm32f10x_spi.c ****   {
 133:.\stlib\STM32F10x_StdPeriph_Driver\src/stm32f10x_spi.c ****     /* Enable SPI2 reset state */
 134:.\stlib\STM32F10x_StdPeriph_Driver\src/stm32f10x_spi.c ****     RCC_APB1PeriphResetCmd(RCC_APB1Periph_SPI2, ENABLE);
 135:.\stlib\STM32F10x_StdPeriph_Driver\src/stm32f10x_spi.c ****     /* Release SPI2 from reset state */
 136:.\stlib\STM32F10x_StdPeriph_Driver\src/stm32f10x_spi.c ****     RCC_APB1PeriphResetCmd(RCC_APB1Periph_SPI2, DISABLE);
 137:.\stlib\STM32F10x_StdPeriph_Driver\src/stm32f10x_spi.c ****   }
 138:.\stlib\STM32F10x_StdPeriph_Driver\src/stm32f10x_spi.c ****   else
 139:.\stlib\STM32F10x_StdPeriph_Driver\src/stm32f10x_spi.c ****   {
 140:.\stlib\STM32F10x_StdPeriph_Driver\src/stm32f10x_spi.c ****     if (SPIx == SPI3)
 141:.\stlib\STM32F10x_StdPeriph_Driver\src/stm32f10x_spi.c ****     {
 142:.\stlib\STM32F10x_StdPeriph_Driver\src/stm32f10x_spi.c ****       /* Enable SPI3 reset state */
 143:.\stlib\STM32F10x_StdPeriph_Driver\src/stm32f10x_spi.c ****       RCC_APB1PeriphResetCmd(RCC_APB1Periph_SPI3, ENABLE);
 144:.\stlib\STM32F10x_StdPeriph_Driver\src/stm32f10x_spi.c ****       /* Release SPI3 from reset state */
 145:.\stlib\STM32F10x_StdPeriph_Driver\src/stm32f10x_spi.c ****       RCC_APB1PeriphResetCmd(RCC_APB1Periph_SPI3, DISABLE);
 146:.\stlib\STM32F10x_StdPeriph_Driver\src/stm32f10x_spi.c ****     }
 147:.\stlib\STM32F10x_StdPeriph_Driver\src/stm32f10x_spi.c ****   }
 148:.\stlib\STM32F10x_StdPeriph_Driver\src/stm32f10x_spi.c **** }
 115              		.loc 1 148 1 is_stmt 0 view .LVU8
 116 0012 BDE80840 		pop	{r3, lr}	@
 117              	.LCFI1:
 118              		.cfi_remember_state
 119              		.cfi_restore 14
 120              		.cfi_restore 3
 121              		.cfi_def_cfa_offset 0
 122              	@ .\stlib\STM32F10x_StdPeriph_Driver\src\stm32f10x_spi.c:129:     RCC_APB2PeriphResetCmd(RCC_APB2Pe
 129:.\stlib\STM32F10x_StdPeriph_Driver\src/stm32f10x_spi.c ****   }
 123              		.loc 1 129 5 view .LVU9
 124 0016 0021     		movs	r1, #0	@,
 125 0018 4FF48050 		mov	r0, #4096	@,
 126 001c FFF7FEBF 		b	RCC_APB2PeriphResetCmd		@
 127              	.LVL3:
 128              	.L2:
 129              	.LCFI2:
 130              		.cfi_restore_state
 131:.\stlib\STM32F10x_StdPeriph_Driver\src/stm32f10x_spi.c ****   {
 131              		.loc 1 131 8 is_stmt 1 view .LVU10
 132              	@ .\stlib\STM32F10x_StdPeriph_Driver\src\stm32f10x_spi.c:131:   else if (SPIx == SPI2)
 131:.\stlib\STM32F10x_StdPeriph_Driver\src/stm32f10x_spi.c ****   {
 133              		.loc 1 131 11 is_stmt 0 view .LVU11
ARM GAS  C:\Users\skey\AppData\Local\Temp\cchabaxk.s 			page 6


 134 0020 0E4B     		ldr	r3, .L6+4	@ tmp112,
 135 0022 9842     		cmp	r0, r3	@ SPIx, tmp112
 136 0024 0BD1     		bne	.L3		@,
 134:.\stlib\STM32F10x_StdPeriph_Driver\src/stm32f10x_spi.c ****     /* Release SPI2 from reset state */
 137              		.loc 1 134 5 is_stmt 1 view .LVU12
 138 0026 0121     		movs	r1, #1	@,
 139 0028 4FF48040 		mov	r0, #16384	@,
 140              	.LVL4:
 134:.\stlib\STM32F10x_StdPeriph_Driver\src/stm32f10x_spi.c ****     /* Release SPI2 from reset state */
 141              		.loc 1 134 5 is_stmt 0 view .LVU13
 142 002c FFF7FEFF 		bl	RCC_APB1PeriphResetCmd		@
 143              	.LVL5:
 136:.\stlib\STM32F10x_StdPeriph_Driver\src/stm32f10x_spi.c ****   }
 144              		.loc 1 136 5 is_stmt 1 view .LVU14
 145 0030 0021     		movs	r1, #0	@,
 146 0032 4FF48040 		mov	r0, #16384	@,
 147              	.L5:
 148              	@ .\stlib\STM32F10x_StdPeriph_Driver\src\stm32f10x_spi.c:148: }
 149              		.loc 1 148 1 is_stmt 0 view .LVU15
 150 0036 BDE80840 		pop	{r3, lr}	@
 151              	.LCFI3:
 152              		.cfi_remember_state
 153              		.cfi_restore 14
 154              		.cfi_restore 3
 155              		.cfi_def_cfa_offset 0
 156              	@ .\stlib\STM32F10x_StdPeriph_Driver\src\stm32f10x_spi.c:145:       RCC_APB1PeriphResetCmd(RCC_APB1
 145:.\stlib\STM32F10x_StdPeriph_Driver\src/stm32f10x_spi.c ****     }
 157              		.loc 1 145 7 view .LVU16
 158 003a FFF7FEBF 		b	RCC_APB1PeriphResetCmd		@
 159              	.LVL6:
 160              	.L3:
 161              	.LCFI4:
 162              		.cfi_restore_state
 140:.\stlib\STM32F10x_StdPeriph_Driver\src/stm32f10x_spi.c ****     {
 163              		.loc 1 140 5 is_stmt 1 view .LVU17
 164              	@ .\stlib\STM32F10x_StdPeriph_Driver\src\stm32f10x_spi.c:140:     if (SPIx == SPI3)
 140:.\stlib\STM32F10x_StdPeriph_Driver\src/stm32f10x_spi.c ****     {
 165              		.loc 1 140 8 is_stmt 0 view .LVU18
 166 003e 084B     		ldr	r3, .L6+8	@ tmp113,
 167 0040 9842     		cmp	r0, r3	@ SPIx, tmp113
 168 0042 08D1     		bne	.L1		@,
 143:.\stlib\STM32F10x_StdPeriph_Driver\src/stm32f10x_spi.c ****       /* Release SPI3 from reset state */
 169              		.loc 1 143 7 is_stmt 1 view .LVU19
 170 0044 0121     		movs	r1, #1	@,
 171 0046 4FF40040 		mov	r0, #32768	@,
 172              	.LVL7:
 143:.\stlib\STM32F10x_StdPeriph_Driver\src/stm32f10x_spi.c ****       /* Release SPI3 from reset state */
 173              		.loc 1 143 7 is_stmt 0 view .LVU20
 174 004a FFF7FEFF 		bl	RCC_APB1PeriphResetCmd		@
 175              	.LVL8:
 145:.\stlib\STM32F10x_StdPeriph_Driver\src/stm32f10x_spi.c ****     }
 176              		.loc 1 145 7 is_stmt 1 view .LVU21
 177 004e 0021     		movs	r1, #0	@,
 178 0050 4FF40040 		mov	r0, #32768	@,
 179 0054 EFE7     		b	.L5		@
 180              	.LVL9:
 181              	.L1:
ARM GAS  C:\Users\skey\AppData\Local\Temp\cchabaxk.s 			page 7


 182              	@ .\stlib\STM32F10x_StdPeriph_Driver\src\stm32f10x_spi.c:148: }
 183              		.loc 1 148 1 is_stmt 0 view .LVU22
 184 0056 08BD     		pop	{r3, pc}	@
 185              	.L7:
 186              		.align	2
 187              	.L6:
 188 0058 00300140 		.word	1073819648
 189 005c 00380040 		.word	1073756160
 190 0060 003C0040 		.word	1073757184
 191              		.cfi_endproc
 192              	.LFE29:
 193              		.size	SPI_I2S_DeInit, .-SPI_I2S_DeInit
 194              		.align	1
 195              		.global	SPI_Init
 196              		.syntax unified
 197              		.thumb
 198              		.thumb_func
 199              		.fpu softvfp
 200              		.type	SPI_Init, %function
 201              	SPI_Init:
 202              	.LVL10:
 203              	.LFB30:
 149:.\stlib\STM32F10x_StdPeriph_Driver\src/stm32f10x_spi.c **** 
 150:.\stlib\STM32F10x_StdPeriph_Driver\src/stm32f10x_spi.c **** /**
 151:.\stlib\STM32F10x_StdPeriph_Driver\src/stm32f10x_spi.c ****   * @brief  Initializes the SPIx peripheral according to the specified 
 152:.\stlib\STM32F10x_StdPeriph_Driver\src/stm32f10x_spi.c ****   *         parameters in the SPI_InitStruct.
 153:.\stlib\STM32F10x_StdPeriph_Driver\src/stm32f10x_spi.c ****   * @param  SPIx: where x can be 1, 2 or 3 to select the SPI peripheral.
 154:.\stlib\STM32F10x_StdPeriph_Driver\src/stm32f10x_spi.c ****   * @param  SPI_InitStruct: pointer to a SPI_InitTypeDef structure that
 155:.\stlib\STM32F10x_StdPeriph_Driver\src/stm32f10x_spi.c ****   *         contains the configuration information for the specified SPI peripheral.
 156:.\stlib\STM32F10x_StdPeriph_Driver\src/stm32f10x_spi.c ****   * @retval None
 157:.\stlib\STM32F10x_StdPeriph_Driver\src/stm32f10x_spi.c ****   */
 158:.\stlib\STM32F10x_StdPeriph_Driver\src/stm32f10x_spi.c **** void SPI_Init(SPI_TypeDef* SPIx, SPI_InitTypeDef* SPI_InitStruct)
 159:.\stlib\STM32F10x_StdPeriph_Driver\src/stm32f10x_spi.c **** {
 204              		.loc 1 159 1 is_stmt 1 view -0
 205              		.cfi_startproc
 206              		@ args = 0, pretend = 0, frame = 0
 207              		@ frame_needed = 0, uses_anonymous_args = 0
 160:.\stlib\STM32F10x_StdPeriph_Driver\src/stm32f10x_spi.c ****   uint16_t tmpreg = 0;
 208              		.loc 1 160 3 view .LVU24
 161:.\stlib\STM32F10x_StdPeriph_Driver\src/stm32f10x_spi.c ****   
 162:.\stlib\STM32F10x_StdPeriph_Driver\src/stm32f10x_spi.c ****   /* check the parameters */
 163:.\stlib\STM32F10x_StdPeriph_Driver\src/stm32f10x_spi.c ****   assert_param(IS_SPI_ALL_PERIPH(SPIx));   
 209              		.loc 1 163 3 view .LVU25
 164:.\stlib\STM32F10x_StdPeriph_Driver\src/stm32f10x_spi.c ****   
 165:.\stlib\STM32F10x_StdPeriph_Driver\src/stm32f10x_spi.c ****   /* Check the SPI parameters */
 166:.\stlib\STM32F10x_StdPeriph_Driver\src/stm32f10x_spi.c ****   assert_param(IS_SPI_DIRECTION_MODE(SPI_InitStruct->SPI_Direction));
 210              		.loc 1 166 3 view .LVU26
 167:.\stlib\STM32F10x_StdPeriph_Driver\src/stm32f10x_spi.c ****   assert_param(IS_SPI_MODE(SPI_InitStruct->SPI_Mode));
 211              		.loc 1 167 3 view .LVU27
 168:.\stlib\STM32F10x_StdPeriph_Driver\src/stm32f10x_spi.c ****   assert_param(IS_SPI_DATASIZE(SPI_InitStruct->SPI_DataSize));
 212              		.loc 1 168 3 view .LVU28
 169:.\stlib\STM32F10x_StdPeriph_Driver\src/stm32f10x_spi.c ****   assert_param(IS_SPI_CPOL(SPI_InitStruct->SPI_CPOL));
 213              		.loc 1 169 3 view .LVU29
 170:.\stlib\STM32F10x_StdPeriph_Driver\src/stm32f10x_spi.c ****   assert_param(IS_SPI_CPHA(SPI_InitStruct->SPI_CPHA));
 214              		.loc 1 170 3 view .LVU30
 171:.\stlib\STM32F10x_StdPeriph_Driver\src/stm32f10x_spi.c ****   assert_param(IS_SPI_NSS(SPI_InitStruct->SPI_NSS));
 215              		.loc 1 171 3 view .LVU31
ARM GAS  C:\Users\skey\AppData\Local\Temp\cchabaxk.s 			page 8


 172:.\stlib\STM32F10x_StdPeriph_Driver\src/stm32f10x_spi.c ****   assert_param(IS_SPI_BAUDRATE_PRESCALER(SPI_InitStruct->SPI_BaudRatePrescaler));
 216              		.loc 1 172 3 view .LVU32
 173:.\stlib\STM32F10x_StdPeriph_Driver\src/stm32f10x_spi.c ****   assert_param(IS_SPI_FIRST_BIT(SPI_InitStruct->SPI_FirstBit));
 217              		.loc 1 173 3 view .LVU33
 174:.\stlib\STM32F10x_StdPeriph_Driver\src/stm32f10x_spi.c ****   assert_param(IS_SPI_CRC_POLYNOMIAL(SPI_InitStruct->SPI_CRCPolynomial));
 218              		.loc 1 174 3 view .LVU34
 175:.\stlib\STM32F10x_StdPeriph_Driver\src/stm32f10x_spi.c **** 
 176:.\stlib\STM32F10x_StdPeriph_Driver\src/stm32f10x_spi.c **** /*---------------------------- SPIx CR1 Configuration ------------------------*/
 177:.\stlib\STM32F10x_StdPeriph_Driver\src/stm32f10x_spi.c ****   /* Get the SPIx CR1 value */
 178:.\stlib\STM32F10x_StdPeriph_Driver\src/stm32f10x_spi.c ****   tmpreg = SPIx->CR1;
 219              		.loc 1 178 3 view .LVU35
 220              	@ .\stlib\STM32F10x_StdPeriph_Driver\src\stm32f10x_spi.c:178:   tmpreg = SPIx->CR1;
 221              		.loc 1 178 10 is_stmt 0 view .LVU36
 222 0064 0388     		ldrh	r3, [r0]	@, SPIx_20(D)->CR1
 223              	.LVL11:
 179:.\stlib\STM32F10x_StdPeriph_Driver\src/stm32f10x_spi.c ****   /* Clear BIDIMode, BIDIOE, RxONLY, SSM, SSI, LSBFirst, BR, MSTR, CPOL and CPHA bits */
 180:.\stlib\STM32F10x_StdPeriph_Driver\src/stm32f10x_spi.c ****   tmpreg &= CR1_CLEAR_Mask;
 224              		.loc 1 180 3 is_stmt 1 view .LVU37
 225              	@ .\stlib\STM32F10x_StdPeriph_Driver\src\stm32f10x_spi.c:159: {
 159:.\stlib\STM32F10x_StdPeriph_Driver\src/stm32f10x_spi.c ****   uint16_t tmpreg = 0;
 226              		.loc 1 159 1 is_stmt 0 view .LVU38
 227 0066 10B5     		push	{r4, lr}	@
 228              	.LCFI5:
 229              		.cfi_def_cfa_offset 8
 230              		.cfi_offset 4, -8
 231              		.cfi_offset 14, -4
 232              	@ .\stlib\STM32F10x_StdPeriph_Driver\src\stm32f10x_spi.c:180:   tmpreg &= CR1_CLEAR_Mask;
 233              		.loc 1 180 10 view .LVU39
 234 0068 03F44152 		and	r2, r3, #12352	@ tmpreg, SPIx_20(D)->CR1,
 235              	.LVL12:
 181:.\stlib\STM32F10x_StdPeriph_Driver\src/stm32f10x_spi.c ****   /* Configure SPIx: direction, NSS management, first transmitted bit, BaudRate prescaler
 182:.\stlib\STM32F10x_StdPeriph_Driver\src/stm32f10x_spi.c ****      master/salve mode, CPOL and CPHA */
 183:.\stlib\STM32F10x_StdPeriph_Driver\src/stm32f10x_spi.c ****   /* Set BIDImode, BIDIOE and RxONLY bits according to SPI_Direction value */
 184:.\stlib\STM32F10x_StdPeriph_Driver\src/stm32f10x_spi.c ****   /* Set SSM, SSI and MSTR bits according to SPI_Mode and SPI_NSS values */
 185:.\stlib\STM32F10x_StdPeriph_Driver\src/stm32f10x_spi.c ****   /* Set LSBFirst bit according to SPI_FirstBit value */
 186:.\stlib\STM32F10x_StdPeriph_Driver\src/stm32f10x_spi.c ****   /* Set BR bits according to SPI_BaudRatePrescaler value */
 187:.\stlib\STM32F10x_StdPeriph_Driver\src/stm32f10x_spi.c ****   /* Set CPOL bit according to SPI_CPOL value */
 188:.\stlib\STM32F10x_StdPeriph_Driver\src/stm32f10x_spi.c ****   /* Set CPHA bit according to SPI_CPHA value */
 189:.\stlib\STM32F10x_StdPeriph_Driver\src/stm32f10x_spi.c ****   tmpreg |= (uint16_t)((uint32_t)SPI_InitStruct->SPI_Direction | SPI_InitStruct->SPI_Mode |
 236              		.loc 1 189 3 is_stmt 1 view .LVU40
 237              	@ .\stlib\STM32F10x_StdPeriph_Driver\src\stm32f10x_spi.c:189:   tmpreg |= (uint16_t)((uint32_t)SPI_
 238              		.loc 1 189 13 is_stmt 0 view .LVU41
 239 006c 4C88     		ldrh	r4, [r1, #2]	@, SPI_InitStruct_23(D)->SPI_Mode
 240 006e 0B88     		ldrh	r3, [r1]	@, SPI_InitStruct_23(D)->SPI_Direction
 241 0070 2343     		orrs	r3, r3, r4	@, tmp137, SPI_InitStruct_23(D)->SPI_Direction, SPI_InitStruct_23(D)->SPI_Mode
 242 0072 8C88     		ldrh	r4, [r1, #4]	@, SPI_InitStruct_23(D)->SPI_DataSize
 243 0074 2343     		orrs	r3, r3, r4	@, tmp140, tmp137, SPI_InitStruct_23(D)->SPI_DataSize
 244 0076 CC88     		ldrh	r4, [r1, #6]	@, SPI_InitStruct_23(D)->SPI_CPOL
 245 0078 2343     		orrs	r3, r3, r4	@, tmp143, tmp140, SPI_InitStruct_23(D)->SPI_CPOL
 246 007a 0C89     		ldrh	r4, [r1, #8]	@, SPI_InitStruct_23(D)->SPI_CPHA
 247 007c 2343     		orrs	r3, r3, r4	@, tmp146, tmp143, SPI_InitStruct_23(D)->SPI_CPHA
 248 007e 4C89     		ldrh	r4, [r1, #10]	@, SPI_InitStruct_23(D)->SPI_NSS
 249 0080 2343     		orrs	r3, r3, r4	@, tmp149, tmp146, SPI_InitStruct_23(D)->SPI_NSS
 250 0082 8C89     		ldrh	r4, [r1, #12]	@, SPI_InitStruct_23(D)->SPI_BaudRatePrescaler
 251 0084 2343     		orrs	r3, r3, r4	@, tmp152, tmp149, SPI_InitStruct_23(D)->SPI_BaudRatePrescaler
 252 0086 CC89     		ldrh	r4, [r1, #14]	@, SPI_InitStruct_23(D)->SPI_FirstBit
 253 0088 2343     		orrs	r3, r3, r4	@, tmp155, tmp152, SPI_InitStruct_23(D)->SPI_FirstBit
ARM GAS  C:\Users\skey\AppData\Local\Temp\cchabaxk.s 			page 9


 254              	@ .\stlib\STM32F10x_StdPeriph_Driver\src\stm32f10x_spi.c:189:   tmpreg |= (uint16_t)((uint32_t)SPI_
 255              		.loc 1 189 10 view .LVU42
 256 008a 1343     		orrs	r3, r3, r2	@, tmp157, tmp155, tmpreg
 257 008c 9BB2     		uxth	r3, r3	@ tmpreg, tmp157
 258              	.LVL13:
 190:.\stlib\STM32F10x_StdPeriph_Driver\src/stm32f10x_spi.c ****                   SPI_InitStruct->SPI_DataSize | SPI_InitStruct->SPI_CPOL |  
 191:.\stlib\STM32F10x_StdPeriph_Driver\src/stm32f10x_spi.c ****                   SPI_InitStruct->SPI_CPHA | SPI_InitStruct->SPI_NSS |  
 192:.\stlib\STM32F10x_StdPeriph_Driver\src/stm32f10x_spi.c ****                   SPI_InitStruct->SPI_BaudRatePrescaler | SPI_InitStruct->SPI_FirstBit);
 193:.\stlib\STM32F10x_StdPeriph_Driver\src/stm32f10x_spi.c ****   /* Write to SPIx CR1 */
 194:.\stlib\STM32F10x_StdPeriph_Driver\src/stm32f10x_spi.c ****   SPIx->CR1 = tmpreg;
 259              		.loc 1 194 3 is_stmt 1 view .LVU43
 260              	@ .\stlib\STM32F10x_StdPeriph_Driver\src\stm32f10x_spi.c:194:   SPIx->CR1 = tmpreg;
 261              		.loc 1 194 13 is_stmt 0 view .LVU44
 262 008e 0380     		strh	r3, [r0]	@ movhi	@ tmpreg, SPIx_20(D)->CR1
 195:.\stlib\STM32F10x_StdPeriph_Driver\src/stm32f10x_spi.c ****   
 196:.\stlib\STM32F10x_StdPeriph_Driver\src/stm32f10x_spi.c ****   /* Activate the SPI mode (Reset I2SMOD bit in I2SCFGR register) */
 197:.\stlib\STM32F10x_StdPeriph_Driver\src/stm32f10x_spi.c ****   SPIx->I2SCFGR &= SPI_Mode_Select;		
 263              		.loc 1 197 3 is_stmt 1 view .LVU45
 264              	@ .\stlib\STM32F10x_StdPeriph_Driver\src\stm32f10x_spi.c:197:   SPIx->I2SCFGR &= SPI_Mode_Select;		
 265              		.loc 1 197 17 is_stmt 0 view .LVU46
 266 0090 838B     		ldrh	r3, [r0, #28]	@, SPIx_20(D)->I2SCFGR
 267              	.LVL14:
 268              		.loc 1 197 17 view .LVU47
 269 0092 23F40063 		bic	r3, r3, #2048	@ _17, SPIx_20(D)->I2SCFGR,
 270 0096 1B04     		lsls	r3, r3, #16	@ _17, _17,
 271 0098 1B0C     		lsrs	r3, r3, #16	@ _17, _17,
 272 009a 8383     		strh	r3, [r0, #28]	@ movhi	@ _17, SPIx_20(D)->I2SCFGR
 273              	.LVL15:
 198:.\stlib\STM32F10x_StdPeriph_Driver\src/stm32f10x_spi.c **** 
 199:.\stlib\STM32F10x_StdPeriph_Driver\src/stm32f10x_spi.c **** /*---------------------------- SPIx CRCPOLY Configuration --------------------*/
 200:.\stlib\STM32F10x_StdPeriph_Driver\src/stm32f10x_spi.c ****   /* Write to SPIx CRCPOLY */
 201:.\stlib\STM32F10x_StdPeriph_Driver\src/stm32f10x_spi.c ****   SPIx->CRCPR = SPI_InitStruct->SPI_CRCPolynomial;
 274              		.loc 1 201 3 is_stmt 1 view .LVU48
 275              	@ .\stlib\STM32F10x_StdPeriph_Driver\src\stm32f10x_spi.c:201:   SPIx->CRCPR = SPI_InitStruct->SPI_C
 276              		.loc 1 201 31 is_stmt 0 view .LVU49
 277 009c 0B8A     		ldrh	r3, [r1, #16]	@ _18, SPI_InitStruct_23(D)->SPI_CRCPolynomial
 278              	@ .\stlib\STM32F10x_StdPeriph_Driver\src\stm32f10x_spi.c:201:   SPIx->CRCPR = SPI_InitStruct->SPI_C
 279              		.loc 1 201 15 view .LVU50
 280 009e 0382     		strh	r3, [r0, #16]	@ movhi	@ _18, SPIx_20(D)->CRCPR
 281              	@ .\stlib\STM32F10x_StdPeriph_Driver\src\stm32f10x_spi.c:202: }
 202:.\stlib\STM32F10x_StdPeriph_Driver\src/stm32f10x_spi.c **** }
 282              		.loc 1 202 1 view .LVU51
 283 00a0 10BD     		pop	{r4, pc}	@
 284              		.loc 1 202 1 view .LVU52
 285              		.cfi_endproc
 286              	.LFE30:
 287              		.size	SPI_Init, .-SPI_Init
 288              		.align	1
 289              		.global	I2S_Init
 290              		.syntax unified
 291              		.thumb
 292              		.thumb_func
 293              		.fpu softvfp
 294              		.type	I2S_Init, %function
 295              	I2S_Init:
 296              	.LVL16:
 297              	.LFB31:
ARM GAS  C:\Users\skey\AppData\Local\Temp\cchabaxk.s 			page 10


 203:.\stlib\STM32F10x_StdPeriph_Driver\src/stm32f10x_spi.c **** 
 204:.\stlib\STM32F10x_StdPeriph_Driver\src/stm32f10x_spi.c **** /**
 205:.\stlib\STM32F10x_StdPeriph_Driver\src/stm32f10x_spi.c ****   * @brief  Initializes the SPIx peripheral according to the specified 
 206:.\stlib\STM32F10x_StdPeriph_Driver\src/stm32f10x_spi.c ****   *         parameters in the I2S_InitStruct.
 207:.\stlib\STM32F10x_StdPeriph_Driver\src/stm32f10x_spi.c ****   * @param  SPIx: where x can be  2 or 3 to select the SPI peripheral
 208:.\stlib\STM32F10x_StdPeriph_Driver\src/stm32f10x_spi.c ****   *         (configured in I2S mode).
 209:.\stlib\STM32F10x_StdPeriph_Driver\src/stm32f10x_spi.c ****   * @param  I2S_InitStruct: pointer to an I2S_InitTypeDef structure that
 210:.\stlib\STM32F10x_StdPeriph_Driver\src/stm32f10x_spi.c ****   *         contains the configuration information for the specified SPI peripheral
 211:.\stlib\STM32F10x_StdPeriph_Driver\src/stm32f10x_spi.c ****   *         configured in I2S mode.
 212:.\stlib\STM32F10x_StdPeriph_Driver\src/stm32f10x_spi.c ****   * @note
 213:.\stlib\STM32F10x_StdPeriph_Driver\src/stm32f10x_spi.c ****   *  The function calculates the optimal prescaler needed to obtain the most 
 214:.\stlib\STM32F10x_StdPeriph_Driver\src/stm32f10x_spi.c ****   *  accurate audio frequency (depending on the I2S clock source, the PLL values 
 215:.\stlib\STM32F10x_StdPeriph_Driver\src/stm32f10x_spi.c ****   *  and the product configuration). But in case the prescaler value is greater 
 216:.\stlib\STM32F10x_StdPeriph_Driver\src/stm32f10x_spi.c ****   *  than 511, the default value (0x02) will be configured instead.  *   
 217:.\stlib\STM32F10x_StdPeriph_Driver\src/stm32f10x_spi.c ****   * @retval None
 218:.\stlib\STM32F10x_StdPeriph_Driver\src/stm32f10x_spi.c ****   */
 219:.\stlib\STM32F10x_StdPeriph_Driver\src/stm32f10x_spi.c **** void I2S_Init(SPI_TypeDef* SPIx, I2S_InitTypeDef* I2S_InitStruct)
 220:.\stlib\STM32F10x_StdPeriph_Driver\src/stm32f10x_spi.c **** {
 298              		.loc 1 220 1 is_stmt 1 view -0
 299              		.cfi_startproc
 300              		@ args = 0, pretend = 0, frame = 24
 301              		@ frame_needed = 0, uses_anonymous_args = 0
 221:.\stlib\STM32F10x_StdPeriph_Driver\src/stm32f10x_spi.c ****   uint16_t tmpreg = 0, i2sdiv = 2, i2sodd = 0, packetlength = 1;
 302              		.loc 1 221 3 view .LVU54
 222:.\stlib\STM32F10x_StdPeriph_Driver\src/stm32f10x_spi.c ****   uint32_t tmp = 0;
 303              		.loc 1 222 3 view .LVU55
 223:.\stlib\STM32F10x_StdPeriph_Driver\src/stm32f10x_spi.c ****   RCC_ClocksTypeDef RCC_Clocks;
 304              		.loc 1 223 3 view .LVU56
 224:.\stlib\STM32F10x_StdPeriph_Driver\src/stm32f10x_spi.c ****   uint32_t sourceclock = 0;
 305              		.loc 1 224 3 view .LVU57
 225:.\stlib\STM32F10x_StdPeriph_Driver\src/stm32f10x_spi.c ****   
 226:.\stlib\STM32F10x_StdPeriph_Driver\src/stm32f10x_spi.c ****   /* Check the I2S parameters */
 227:.\stlib\STM32F10x_StdPeriph_Driver\src/stm32f10x_spi.c ****   assert_param(IS_SPI_23_PERIPH(SPIx));
 306              		.loc 1 227 3 view .LVU58
 228:.\stlib\STM32F10x_StdPeriph_Driver\src/stm32f10x_spi.c ****   assert_param(IS_I2S_MODE(I2S_InitStruct->I2S_Mode));
 307              		.loc 1 228 3 view .LVU59
 229:.\stlib\STM32F10x_StdPeriph_Driver\src/stm32f10x_spi.c ****   assert_param(IS_I2S_STANDARD(I2S_InitStruct->I2S_Standard));
 308              		.loc 1 229 3 view .LVU60
 230:.\stlib\STM32F10x_StdPeriph_Driver\src/stm32f10x_spi.c ****   assert_param(IS_I2S_DATA_FORMAT(I2S_InitStruct->I2S_DataFormat));
 309              		.loc 1 230 3 view .LVU61
 231:.\stlib\STM32F10x_StdPeriph_Driver\src/stm32f10x_spi.c ****   assert_param(IS_I2S_MCLK_OUTPUT(I2S_InitStruct->I2S_MCLKOutput));
 310              		.loc 1 231 3 view .LVU62
 232:.\stlib\STM32F10x_StdPeriph_Driver\src/stm32f10x_spi.c ****   assert_param(IS_I2S_AUDIO_FREQ(I2S_InitStruct->I2S_AudioFreq));
 311              		.loc 1 232 3 view .LVU63
 233:.\stlib\STM32F10x_StdPeriph_Driver\src/stm32f10x_spi.c ****   assert_param(IS_I2S_CPOL(I2S_InitStruct->I2S_CPOL));  
 312              		.loc 1 233 3 view .LVU64
 234:.\stlib\STM32F10x_StdPeriph_Driver\src/stm32f10x_spi.c **** 
 235:.\stlib\STM32F10x_StdPeriph_Driver\src/stm32f10x_spi.c **** /*----------------------- SPIx I2SCFGR & I2SPR Configuration -----------------*/
 236:.\stlib\STM32F10x_StdPeriph_Driver\src/stm32f10x_spi.c ****   /* Clear I2SMOD, I2SE, I2SCFG, PCMSYNC, I2SSTD, CKPOL, DATLEN and CHLEN bits */
 237:.\stlib\STM32F10x_StdPeriph_Driver\src/stm32f10x_spi.c ****   SPIx->I2SCFGR &= I2SCFGR_CLEAR_Mask; 
 313              		.loc 1 237 3 view .LVU65
 314              	@ .\stlib\STM32F10x_StdPeriph_Driver\src\stm32f10x_spi.c:237:   SPIx->I2SCFGR &= I2SCFGR_CLEAR_Mask
 315              		.loc 1 237 17 is_stmt 0 view .LVU66
 316 00a2 838B     		ldrh	r3, [r0, #28]	@, SPIx_45(D)->I2SCFGR
 317              	@ .\stlib\STM32F10x_StdPeriph_Driver\src\stm32f10x_spi.c:220: {
 220:.\stlib\STM32F10x_StdPeriph_Driver\src/stm32f10x_spi.c ****   uint16_t tmpreg = 0, i2sdiv = 2, i2sodd = 0, packetlength = 1;
 318              		.loc 1 220 1 view .LVU67
ARM GAS  C:\Users\skey\AppData\Local\Temp\cchabaxk.s 			page 11


 319 00a4 F0B5     		push	{r4, r5, r6, r7, lr}	@
 320              	.LCFI6:
 321              		.cfi_def_cfa_offset 20
 322              		.cfi_offset 4, -20
 323              		.cfi_offset 5, -16
 324              		.cfi_offset 6, -12
 325              		.cfi_offset 7, -8
 326              		.cfi_offset 14, -4
 327              	@ .\stlib\STM32F10x_StdPeriph_Driver\src\stm32f10x_spi.c:237:   SPIx->I2SCFGR &= I2SCFGR_CLEAR_Mask
 328              		.loc 1 237 17 view .LVU68
 329 00a6 23F47B63 		bic	r3, r3, #4016	@ _2, SPIx_45(D)->I2SCFGR,
 330 00aa 23F00F03 		bic	r3, r3, #15	@ _2, _2,
 331 00ae 1B04     		lsls	r3, r3, #16	@ _2, _2,
 332 00b0 1B0C     		lsrs	r3, r3, #16	@ _2, _2,
 333 00b2 8383     		strh	r3, [r0, #28]	@ movhi	@ _2, SPIx_45(D)->I2SCFGR
 238:.\stlib\STM32F10x_StdPeriph_Driver\src/stm32f10x_spi.c ****   SPIx->I2SPR = 0x0002;
 334              		.loc 1 238 3 is_stmt 1 view .LVU69
 335              	@ .\stlib\STM32F10x_StdPeriph_Driver\src\stm32f10x_spi.c:238:   SPIx->I2SPR = 0x0002;
 336              		.loc 1 238 15 is_stmt 0 view .LVU70
 337 00b4 0223     		movs	r3, #2	@ tmp163,
 338 00b6 0384     		strh	r3, [r0, #32]	@ movhi	@ tmp163, SPIx_45(D)->I2SPR
 239:.\stlib\STM32F10x_StdPeriph_Driver\src/stm32f10x_spi.c ****   
 240:.\stlib\STM32F10x_StdPeriph_Driver\src/stm32f10x_spi.c ****   /* Get the I2SCFGR register value */
 241:.\stlib\STM32F10x_StdPeriph_Driver\src/stm32f10x_spi.c ****   tmpreg = SPIx->I2SCFGR;
 339              		.loc 1 241 3 is_stmt 1 view .LVU71
 340              	@ .\stlib\STM32F10x_StdPeriph_Driver\src\stm32f10x_spi.c:244:   if(I2S_InitStruct->I2S_AudioFreq ==
 242:.\stlib\STM32F10x_StdPeriph_Driver\src/stm32f10x_spi.c ****   
 243:.\stlib\STM32F10x_StdPeriph_Driver\src/stm32f10x_spi.c ****   /* If the default value has to be written, reinitialize i2sdiv and i2sodd*/
 244:.\stlib\STM32F10x_StdPeriph_Driver\src/stm32f10x_spi.c ****   if(I2S_InitStruct->I2S_AudioFreq == I2S_AudioFreq_Default)
 341              		.loc 1 244 5 is_stmt 0 view .LVU72
 342 00b8 8B68     		ldr	r3, [r1, #8]	@ I2S_InitStruct_49(D)->I2S_AudioFreq, I2S_InitStruct_49(D)->I2S_AudioFreq
 343              	@ .\stlib\STM32F10x_StdPeriph_Driver\src\stm32f10x_spi.c:241:   tmpreg = SPIx->I2SCFGR;
 241:.\stlib\STM32F10x_StdPeriph_Driver\src/stm32f10x_spi.c ****   
 344              		.loc 1 241 10 view .LVU73
 345 00ba 848B     		ldrh	r4, [r0, #28]	@, SPIx_45(D)->I2SCFGR
 346              	@ .\stlib\STM32F10x_StdPeriph_Driver\src\stm32f10x_spi.c:244:   if(I2S_InitStruct->I2S_AudioFreq ==
 347              		.loc 1 244 5 view .LVU74
 348 00bc 022B     		cmp	r3, #2	@ I2S_InitStruct_49(D)->I2S_AudioFreq,
 349              	@ .\stlib\STM32F10x_StdPeriph_Driver\src\stm32f10x_spi.c:220: {
 220:.\stlib\STM32F10x_StdPeriph_Driver\src/stm32f10x_spi.c ****   uint16_t tmpreg = 0, i2sdiv = 2, i2sodd = 0, packetlength = 1;
 350              		.loc 1 220 1 view .LVU75
 351 00be 0546     		mov	r5, r0	@ SPIx, tmp220
 352 00c0 0E46     		mov	r6, r1	@ I2S_InitStruct, tmp221
 353 00c2 87B0     		sub	sp, sp, #28	@,,
 354              	.LCFI7:
 355              		.cfi_def_cfa_offset 48
 356              	@ .\stlib\STM32F10x_StdPeriph_Driver\src\stm32f10x_spi.c:241:   tmpreg = SPIx->I2SCFGR;
 241:.\stlib\STM32F10x_StdPeriph_Driver\src/stm32f10x_spi.c ****   
 357              		.loc 1 241 10 view .LVU76
 358 00c4 A4B2     		uxth	r4, r4	@ tmpreg, SPIx_45(D)->I2SCFGR
 359              	.LVL17:
 360              		.loc 1 244 3 is_stmt 1 view .LVU77
 361              	@ .\stlib\STM32F10x_StdPeriph_Driver\src\stm32f10x_spi.c:244:   if(I2S_InitStruct->I2S_AudioFreq ==
 362              		.loc 1 244 5 is_stmt 0 view .LVU78
 363 00c6 36D0     		beq	.L10		@,
 245:.\stlib\STM32F10x_StdPeriph_Driver\src/stm32f10x_spi.c ****   {
 246:.\stlib\STM32F10x_StdPeriph_Driver\src/stm32f10x_spi.c ****     i2sodd = (uint16_t)0;
ARM GAS  C:\Users\skey\AppData\Local\Temp\cchabaxk.s 			page 12


 247:.\stlib\STM32F10x_StdPeriph_Driver\src/stm32f10x_spi.c ****     i2sdiv = (uint16_t)2;   
 248:.\stlib\STM32F10x_StdPeriph_Driver\src/stm32f10x_spi.c ****   }
 249:.\stlib\STM32F10x_StdPeriph_Driver\src/stm32f10x_spi.c ****   /* If the requested audio frequency is not the default, compute the prescaler */
 250:.\stlib\STM32F10x_StdPeriph_Driver\src/stm32f10x_spi.c ****   else
 251:.\stlib\STM32F10x_StdPeriph_Driver\src/stm32f10x_spi.c ****   {
 252:.\stlib\STM32F10x_StdPeriph_Driver\src/stm32f10x_spi.c ****     /* Check the frame length (For the Prescaler computing) */
 253:.\stlib\STM32F10x_StdPeriph_Driver\src/stm32f10x_spi.c ****     if(I2S_InitStruct->I2S_DataFormat == I2S_DataFormat_16b)
 364              		.loc 1 253 5 is_stmt 1 view .LVU79
 365              	@ .\stlib\STM32F10x_StdPeriph_Driver\src\stm32f10x_spi.c:253:     if(I2S_InitStruct->I2S_DataFormat
 366              		.loc 1 253 7 is_stmt 0 view .LVU80
 367 00c8 8B88     		ldrh	r3, [r1, #4]	@ I2S_InitStruct_49(D)->I2S_DataFormat, I2S_InitStruct_49(D)->I2S_DataFormat
 368              	@ .\stlib\STM32F10x_StdPeriph_Driver\src\stm32f10x_spi.c:314:     RCC_GetClocksFreq(&RCC_Clocks);  
 254:.\stlib\STM32F10x_StdPeriph_Driver\src/stm32f10x_spi.c ****     {
 255:.\stlib\STM32F10x_StdPeriph_Driver\src/stm32f10x_spi.c ****       /* Packet length is 16 bits */
 256:.\stlib\STM32F10x_StdPeriph_Driver\src/stm32f10x_spi.c ****       packetlength = 1;
 257:.\stlib\STM32F10x_StdPeriph_Driver\src/stm32f10x_spi.c ****     }
 258:.\stlib\STM32F10x_StdPeriph_Driver\src/stm32f10x_spi.c ****     else
 259:.\stlib\STM32F10x_StdPeriph_Driver\src/stm32f10x_spi.c ****     {
 260:.\stlib\STM32F10x_StdPeriph_Driver\src/stm32f10x_spi.c ****       /* Packet length is 32 bits */
 261:.\stlib\STM32F10x_StdPeriph_Driver\src/stm32f10x_spi.c ****       packetlength = 2;
 262:.\stlib\STM32F10x_StdPeriph_Driver\src/stm32f10x_spi.c ****     }
 263:.\stlib\STM32F10x_StdPeriph_Driver\src/stm32f10x_spi.c **** 
 264:.\stlib\STM32F10x_StdPeriph_Driver\src/stm32f10x_spi.c ****     /* Get the I2S clock source mask depending on the peripheral number */
 265:.\stlib\STM32F10x_StdPeriph_Driver\src/stm32f10x_spi.c ****     if(((uint32_t)SPIx) == SPI2_BASE)
 266:.\stlib\STM32F10x_StdPeriph_Driver\src/stm32f10x_spi.c ****     {
 267:.\stlib\STM32F10x_StdPeriph_Driver\src/stm32f10x_spi.c ****       /* The mask is relative to I2S2 */
 268:.\stlib\STM32F10x_StdPeriph_Driver\src/stm32f10x_spi.c ****       tmp = I2S2_CLOCK_SRC;
 269:.\stlib\STM32F10x_StdPeriph_Driver\src/stm32f10x_spi.c ****     }
 270:.\stlib\STM32F10x_StdPeriph_Driver\src/stm32f10x_spi.c ****     else 
 271:.\stlib\STM32F10x_StdPeriph_Driver\src/stm32f10x_spi.c ****     {
 272:.\stlib\STM32F10x_StdPeriph_Driver\src/stm32f10x_spi.c ****       /* The mask is relative to I2S3 */      
 273:.\stlib\STM32F10x_StdPeriph_Driver\src/stm32f10x_spi.c ****       tmp = I2S3_CLOCK_SRC;
 274:.\stlib\STM32F10x_StdPeriph_Driver\src/stm32f10x_spi.c ****     }
 275:.\stlib\STM32F10x_StdPeriph_Driver\src/stm32f10x_spi.c **** 
 276:.\stlib\STM32F10x_StdPeriph_Driver\src/stm32f10x_spi.c ****     /* Check the I2S clock source configuration depending on the Device:
 277:.\stlib\STM32F10x_StdPeriph_Driver\src/stm32f10x_spi.c ****        Only Connectivity line devices have the PLL3 VCO clock */
 278:.\stlib\STM32F10x_StdPeriph_Driver\src/stm32f10x_spi.c **** #ifdef STM32F10X_CL
 279:.\stlib\STM32F10x_StdPeriph_Driver\src/stm32f10x_spi.c ****     if((RCC->CFGR2 & tmp) != 0)
 280:.\stlib\STM32F10x_StdPeriph_Driver\src/stm32f10x_spi.c ****     {
 281:.\stlib\STM32F10x_StdPeriph_Driver\src/stm32f10x_spi.c ****       /* Get the configuration bits of RCC PLL3 multiplier */
 282:.\stlib\STM32F10x_StdPeriph_Driver\src/stm32f10x_spi.c ****       tmp = (uint32_t)((RCC->CFGR2 & I2S_MUL_MASK) >> 12);
 283:.\stlib\STM32F10x_StdPeriph_Driver\src/stm32f10x_spi.c **** 
 284:.\stlib\STM32F10x_StdPeriph_Driver\src/stm32f10x_spi.c ****       /* Get the value of the PLL3 multiplier */      
 285:.\stlib\STM32F10x_StdPeriph_Driver\src/stm32f10x_spi.c ****       if((tmp > 5) && (tmp < 15))
 286:.\stlib\STM32F10x_StdPeriph_Driver\src/stm32f10x_spi.c ****       {
 287:.\stlib\STM32F10x_StdPeriph_Driver\src/stm32f10x_spi.c ****         /* Multiplier is between 8 and 14 (value 15 is forbidden) */
 288:.\stlib\STM32F10x_StdPeriph_Driver\src/stm32f10x_spi.c ****         tmp += 2;
 289:.\stlib\STM32F10x_StdPeriph_Driver\src/stm32f10x_spi.c ****       }
 290:.\stlib\STM32F10x_StdPeriph_Driver\src/stm32f10x_spi.c ****       else
 291:.\stlib\STM32F10x_StdPeriph_Driver\src/stm32f10x_spi.c ****       {
 292:.\stlib\STM32F10x_StdPeriph_Driver\src/stm32f10x_spi.c ****         if (tmp == 15)
 293:.\stlib\STM32F10x_StdPeriph_Driver\src/stm32f10x_spi.c ****         {
 294:.\stlib\STM32F10x_StdPeriph_Driver\src/stm32f10x_spi.c ****           /* Multiplier is 20 */
 295:.\stlib\STM32F10x_StdPeriph_Driver\src/stm32f10x_spi.c ****           tmp = 20;
 296:.\stlib\STM32F10x_StdPeriph_Driver\src/stm32f10x_spi.c ****         }
 297:.\stlib\STM32F10x_StdPeriph_Driver\src/stm32f10x_spi.c ****       }      
 298:.\stlib\STM32F10x_StdPeriph_Driver\src/stm32f10x_spi.c ****       /* Get the PREDIV2 value */
ARM GAS  C:\Users\skey\AppData\Local\Temp\cchabaxk.s 			page 13


 299:.\stlib\STM32F10x_StdPeriph_Driver\src/stm32f10x_spi.c ****       sourceclock = (uint32_t)(((RCC->CFGR2 & I2S_DIV_MASK) >> 4) + 1);
 300:.\stlib\STM32F10x_StdPeriph_Driver\src/stm32f10x_spi.c ****       
 301:.\stlib\STM32F10x_StdPeriph_Driver\src/stm32f10x_spi.c ****       /* Calculate the Source Clock frequency based on PLL3 and PREDIV2 values */
 302:.\stlib\STM32F10x_StdPeriph_Driver\src/stm32f10x_spi.c ****       sourceclock = (uint32_t) ((HSE_Value / sourceclock) * tmp * 2); 
 303:.\stlib\STM32F10x_StdPeriph_Driver\src/stm32f10x_spi.c ****     }
 304:.\stlib\STM32F10x_StdPeriph_Driver\src/stm32f10x_spi.c ****     else
 305:.\stlib\STM32F10x_StdPeriph_Driver\src/stm32f10x_spi.c ****     {
 306:.\stlib\STM32F10x_StdPeriph_Driver\src/stm32f10x_spi.c ****       /* I2S Clock source is System clock: Get System Clock frequency */
 307:.\stlib\STM32F10x_StdPeriph_Driver\src/stm32f10x_spi.c ****       RCC_GetClocksFreq(&RCC_Clocks);      
 308:.\stlib\STM32F10x_StdPeriph_Driver\src/stm32f10x_spi.c ****       
 309:.\stlib\STM32F10x_StdPeriph_Driver\src/stm32f10x_spi.c ****       /* Get the source clock value: based on System Clock value */
 310:.\stlib\STM32F10x_StdPeriph_Driver\src/stm32f10x_spi.c ****       sourceclock = RCC_Clocks.SYSCLK_Frequency;
 311:.\stlib\STM32F10x_StdPeriph_Driver\src/stm32f10x_spi.c ****     }        
 312:.\stlib\STM32F10x_StdPeriph_Driver\src/stm32f10x_spi.c **** #else /* STM32F10X_HD */
 313:.\stlib\STM32F10x_StdPeriph_Driver\src/stm32f10x_spi.c ****     /* I2S Clock source is System clock: Get System Clock frequency */
 314:.\stlib\STM32F10x_StdPeriph_Driver\src/stm32f10x_spi.c ****     RCC_GetClocksFreq(&RCC_Clocks);      
 369              		.loc 1 314 5 view .LVU81
 370 00ca 01A8     		add	r0, sp, #4	@,,
 371              	.LVL18:
 372              	@ .\stlib\STM32F10x_StdPeriph_Driver\src\stm32f10x_spi.c:261:       packetlength = 2;
 261:.\stlib\STM32F10x_StdPeriph_Driver\src/stm32f10x_spi.c ****     }
 373              		.loc 1 261 20 view .LVU82
 374 00cc 002B     		cmp	r3, #0	@ I2S_InitStruct_49(D)->I2S_DataFormat,
 375 00ce 14BF     		ite	ne
 376 00d0 0227     		movne	r7, #2	@ packetlength,
 377 00d2 0127     		moveq	r7, #1	@ packetlength,
 378              	.LVL19:
 265:.\stlib\STM32F10x_StdPeriph_Driver\src/stm32f10x_spi.c ****     {
 379              		.loc 1 265 5 is_stmt 1 view .LVU83
 380              		.loc 1 314 5 view .LVU84
 381 00d4 FFF7FEFF 		bl	RCC_GetClocksFreq		@
 382              	.LVL20:
 315:.\stlib\STM32F10x_StdPeriph_Driver\src/stm32f10x_spi.c ****       
 316:.\stlib\STM32F10x_StdPeriph_Driver\src/stm32f10x_spi.c ****     /* Get the source clock value: based on System Clock value */
 317:.\stlib\STM32F10x_StdPeriph_Driver\src/stm32f10x_spi.c ****     sourceclock = RCC_Clocks.SYSCLK_Frequency;    
 383              		.loc 1 317 5 view .LVU85
 384              	@ .\stlib\STM32F10x_StdPeriph_Driver\src\stm32f10x_spi.c:321:     if(I2S_InitStruct->I2S_MCLKOutput
 318:.\stlib\STM32F10x_StdPeriph_Driver\src/stm32f10x_spi.c **** #endif /* STM32F10X_CL */    
 319:.\stlib\STM32F10x_StdPeriph_Driver\src/stm32f10x_spi.c **** 
 320:.\stlib\STM32F10x_StdPeriph_Driver\src/stm32f10x_spi.c ****     /* Compute the Real divider depending on the MCLK output state with a floating point */
 321:.\stlib\STM32F10x_StdPeriph_Driver\src/stm32f10x_spi.c ****     if(I2S_InitStruct->I2S_MCLKOutput == I2S_MCLKOutput_Enable)
 385              		.loc 1 321 7 is_stmt 0 view .LVU86
 386 00d8 F388     		ldrh	r3, [r6, #6]	@ I2S_InitStruct_49(D)->I2S_MCLKOutput, I2S_InitStruct_49(D)->I2S_MCLKOutput
 387              	@ .\stlib\STM32F10x_StdPeriph_Driver\src\stm32f10x_spi.c:317:     sourceclock = RCC_Clocks.SYSCLK_F
 317:.\stlib\STM32F10x_StdPeriph_Driver\src/stm32f10x_spi.c **** #endif /* STM32F10X_CL */    
 388              		.loc 1 317 17 view .LVU87
 389 00da 0199     		ldr	r1, [sp, #4]	@ sourceclock, RCC_Clocks.SYSCLK_Frequency
 390              	.LVL21:
 391              		.loc 1 321 5 is_stmt 1 view .LVU88
 392              	@ .\stlib\STM32F10x_StdPeriph_Driver\src\stm32f10x_spi.c:321:     if(I2S_InitStruct->I2S_MCLKOutput
 393              		.loc 1 321 7 is_stmt 0 view .LVU89
 394 00dc B3F5007F 		cmp	r3, #512	@ I2S_InitStruct_49(D)->I2S_MCLKOutput,
 395              	@ .\stlib\STM32F10x_StdPeriph_Driver\src\stm32f10x_spi.c:329:       tmp = (uint16_t)(((((sourcecloc
 322:.\stlib\STM32F10x_StdPeriph_Driver\src/stm32f10x_spi.c ****     {
 323:.\stlib\STM32F10x_StdPeriph_Driver\src/stm32f10x_spi.c ****       /* MCLK output is enabled */
 324:.\stlib\STM32F10x_StdPeriph_Driver\src/stm32f10x_spi.c ****       tmp = (uint16_t)(((((sourceclock / 256) * 10) / I2S_InitStruct->I2S_AudioFreq)) + 5);
 325:.\stlib\STM32F10x_StdPeriph_Driver\src/stm32f10x_spi.c ****     }
ARM GAS  C:\Users\skey\AppData\Local\Temp\cchabaxk.s 			page 14


 326:.\stlib\STM32F10x_StdPeriph_Driver\src/stm32f10x_spi.c ****     else
 327:.\stlib\STM32F10x_StdPeriph_Driver\src/stm32f10x_spi.c ****     {
 328:.\stlib\STM32F10x_StdPeriph_Driver\src/stm32f10x_spi.c ****       /* MCLK output is disabled */
 329:.\stlib\STM32F10x_StdPeriph_Driver\src/stm32f10x_spi.c ****       tmp = (uint16_t)(((((sourceclock / (32 * packetlength)) *10 ) / I2S_InitStruct->I2S_AudioFreq
 396              		.loc 1 329 46 view .LVU90
 397 00e0 1CBF     		itt	ne
 398 00e2 7B01     		lslne	r3, r7, #5	@ tmp178, packetlength,
 399              	@ .\stlib\STM32F10x_StdPeriph_Driver\src\stm32f10x_spi.c:329:       tmp = (uint16_t)(((((sourcecloc
 400              		.loc 1 329 40 view .LVU91
 401 00e4 B1FBF3F3 		udivne	r3, r1, r3	@ tmp180, sourceclock, tmp178
 402 00e8 4FF00A02 		mov	r2, #10	@ tmp219,
 324:.\stlib\STM32F10x_StdPeriph_Driver\src/stm32f10x_spi.c ****     }
 403              		.loc 1 324 7 is_stmt 1 view .LVU92
 404              	@ .\stlib\STM32F10x_StdPeriph_Driver\src\stm32f10x_spi.c:324:       tmp = (uint16_t)(((((sourcecloc
 324:.\stlib\STM32F10x_StdPeriph_Driver\src/stm32f10x_spi.c ****     }
 405              		.loc 1 324 40 is_stmt 0 view .LVU93
 406 00ec 08BF     		it	eq
 407 00ee 0B0A     		lsreq	r3, r1, #8	@ tmp170, sourceclock,
 408              		.loc 1 329 7 is_stmt 1 view .LVU94
 409              	@ .\stlib\STM32F10x_StdPeriph_Driver\src\stm32f10x_spi.c:329:       tmp = (uint16_t)(((((sourcecloc
 410              		.loc 1 329 63 is_stmt 0 view .LVU95
 411 00f0 5343     		muls	r3, r2, r3	@ tmp181, tmp219
 412 00f2 B068     		ldr	r0, [r6, #8]	@ I2S_InitStruct_49(D)->I2S_AudioFreq, I2S_InitStruct_49(D)->I2S_AudioFreq
 413              	@ .\stlib\STM32F10x_StdPeriph_Driver\src\stm32f10x_spi.c:333:     tmp = tmp / 10;  
 330:.\stlib\STM32F10x_StdPeriph_Driver\src/stm32f10x_spi.c ****     }
 331:.\stlib\STM32F10x_StdPeriph_Driver\src/stm32f10x_spi.c ****     
 332:.\stlib\STM32F10x_StdPeriph_Driver\src/stm32f10x_spi.c ****     /* Remove the floating point */
 333:.\stlib\STM32F10x_StdPeriph_Driver\src/stm32f10x_spi.c ****     tmp = tmp / 10;  
 414              		.loc 1 333 9 view .LVU96
 415 00f4 0A22     		movs	r2, #10	@ tmp188,
 416              	@ .\stlib\STM32F10x_StdPeriph_Driver\src\stm32f10x_spi.c:329:       tmp = (uint16_t)(((((sourcecloc
 329:.\stlib\STM32F10x_StdPeriph_Driver\src/stm32f10x_spi.c ****     }
 417              		.loc 1 329 69 view .LVU97
 418 00f6 B3FBF0F3 		udiv	r3, r3, r0	@ tmp184, tmp181, I2S_InitStruct_49(D)->I2S_AudioFreq
 419              	@ .\stlib\STM32F10x_StdPeriph_Driver\src\stm32f10x_spi.c:329:       tmp = (uint16_t)(((((sourcecloc
 329:.\stlib\STM32F10x_StdPeriph_Driver\src/stm32f10x_spi.c ****     }
 420              		.loc 1 329 13 view .LVU98
 421 00fa 0533     		adds	r3, r3, #5	@ tmp187, tmp184,
 422              	@ .\stlib\STM32F10x_StdPeriph_Driver\src\stm32f10x_spi.c:329:       tmp = (uint16_t)(((((sourcecloc
 329:.\stlib\STM32F10x_StdPeriph_Driver\src/stm32f10x_spi.c ****     }
 423              		.loc 1 329 11 view .LVU99
 424 00fc 9BB2     		uxth	r3, r3	@ tmp, tmp187
 425              	.LVL22:
 426              		.loc 1 333 5 is_stmt 1 view .LVU100
 427              	@ .\stlib\STM32F10x_StdPeriph_Driver\src\stm32f10x_spi.c:333:     tmp = tmp / 10;  
 428              		.loc 1 333 9 is_stmt 0 view .LVU101
 429 00fe B3FBF2F3 		udiv	r3, r3, r2	@ tmp, tmp, tmp188
 430              	.LVL23:
 334:.\stlib\STM32F10x_StdPeriph_Driver\src/stm32f10x_spi.c ****       
 335:.\stlib\STM32F10x_StdPeriph_Driver\src/stm32f10x_spi.c ****     /* Check the parity of the divider */
 336:.\stlib\STM32F10x_StdPeriph_Driver\src/stm32f10x_spi.c ****     i2sodd = (uint16_t)(tmp & (uint16_t)0x0001);
 431              		.loc 1 336 5 is_stmt 1 view .LVU102
 432              	@ .\stlib\STM32F10x_StdPeriph_Driver\src\stm32f10x_spi.c:336:     i2sodd = (uint16_t)(tmp & (uint16
 433              		.loc 1 336 12 is_stmt 0 view .LVU103
 434 0102 03F00102 		and	r2, r3, #1	@ i2sodd, tmp,
 435              	.LVL24:
 337:.\stlib\STM32F10x_StdPeriph_Driver\src/stm32f10x_spi.c ****    
ARM GAS  C:\Users\skey\AppData\Local\Temp\cchabaxk.s 			page 15


 338:.\stlib\STM32F10x_StdPeriph_Driver\src/stm32f10x_spi.c ****     /* Compute the i2sdiv prescaler */
 339:.\stlib\STM32F10x_StdPeriph_Driver\src/stm32f10x_spi.c ****     i2sdiv = (uint16_t)((tmp - i2sodd) / 2);
 436              		.loc 1 339 5 is_stmt 1 view .LVU104
 437              	@ .\stlib\STM32F10x_StdPeriph_Driver\src\stm32f10x_spi.c:339:     i2sdiv = (uint16_t)((tmp - i2sodd
 438              		.loc 1 339 12 is_stmt 0 view .LVU105
 439 0106 C3F34F03 		ubfx	r3, r3, #1, #16	@ i2sdiv, tmp,,
 440              	.LVL25:
 340:.\stlib\STM32F10x_StdPeriph_Driver\src/stm32f10x_spi.c ****    
 341:.\stlib\STM32F10x_StdPeriph_Driver\src/stm32f10x_spi.c ****     /* Get the Mask for the Odd bit (SPI_I2SPR[8]) register */
 342:.\stlib\STM32F10x_StdPeriph_Driver\src/stm32f10x_spi.c ****     i2sodd = (uint16_t) (i2sodd << 8);
 441              		.loc 1 342 5 is_stmt 1 view .LVU106
 343:.\stlib\STM32F10x_StdPeriph_Driver\src/stm32f10x_spi.c ****   }
 344:.\stlib\STM32F10x_StdPeriph_Driver\src/stm32f10x_spi.c ****   
 345:.\stlib\STM32F10x_StdPeriph_Driver\src/stm32f10x_spi.c ****   /* Test if the divider is 1 or 0 or greater than 0xFF */
 346:.\stlib\STM32F10x_StdPeriph_Driver\src/stm32f10x_spi.c ****   if ((i2sdiv < 2) || (i2sdiv > 0xFF))
 442              		.loc 1 346 3 view .LVU107
 443              	@ .\stlib\STM32F10x_StdPeriph_Driver\src\stm32f10x_spi.c:346:   if ((i2sdiv < 2) || (i2sdiv > 0xFF)
 444              		.loc 1 346 6 is_stmt 0 view .LVU108
 445 010a 991E     		subs	r1, r3, #2	@ tmp197, i2sdiv,
 446              	.LVL26:
 447              		.loc 1 346 6 view .LVU109
 448 010c FD29     		cmp	r1, #253	@ tmp197,
 449              	.LVL27:
 450              		.loc 1 346 6 view .LVU110
 451 010e 12D8     		bhi	.L10		@,
 452              	@ .\stlib\STM32F10x_StdPeriph_Driver\src\stm32f10x_spi.c:342:     i2sodd = (uint16_t) (i2sodd << 8)
 342:.\stlib\STM32F10x_StdPeriph_Driver\src/stm32f10x_spi.c ****   }
 453              		.loc 1 342 12 view .LVU111
 454 0110 1202     		lsls	r2, r2, #8	@ i2sodd, i2sodd,
 455              	.LVL28:
 456              	.L14:
 347:.\stlib\STM32F10x_StdPeriph_Driver\src/stm32f10x_spi.c ****   {
 348:.\stlib\STM32F10x_StdPeriph_Driver\src/stm32f10x_spi.c ****     /* Set the default values */
 349:.\stlib\STM32F10x_StdPeriph_Driver\src/stm32f10x_spi.c ****     i2sdiv = 2;
 350:.\stlib\STM32F10x_StdPeriph_Driver\src/stm32f10x_spi.c ****     i2sodd = 0;
 351:.\stlib\STM32F10x_StdPeriph_Driver\src/stm32f10x_spi.c ****   }
 352:.\stlib\STM32F10x_StdPeriph_Driver\src/stm32f10x_spi.c **** 
 353:.\stlib\STM32F10x_StdPeriph_Driver\src/stm32f10x_spi.c ****   /* Write to SPIx I2SPR register the computed value */
 354:.\stlib\STM32F10x_StdPeriph_Driver\src/stm32f10x_spi.c ****   SPIx->I2SPR = (uint16_t)(i2sdiv | (uint16_t)(i2sodd | (uint16_t)I2S_InitStruct->I2S_MCLKOutput));
 457              		.loc 1 354 3 is_stmt 1 view .LVU112
 458              	@ .\stlib\STM32F10x_StdPeriph_Driver\src\stm32f10x_spi.c:354:   SPIx->I2SPR = (uint16_t)(i2sdiv | (
 459              		.loc 1 354 17 is_stmt 0 view .LVU113
 460 0112 1343     		orrs	r3, r3, r2	@, tmp199, i2sdiv, i2sodd
 461              	.LVL29:
 462              		.loc 1 354 17 view .LVU114
 463 0114 F288     		ldrh	r2, [r6, #6]	@ tmp202, I2S_InitStruct_49(D)->I2S_MCLKOutput
 464              	.LVL30:
 465              		.loc 1 354 17 view .LVU115
 466 0116 1343     		orrs	r3, r3, r2	@, _28, tmp199, tmp202
 467              	@ .\stlib\STM32F10x_StdPeriph_Driver\src\stm32f10x_spi.c:354:   SPIx->I2SPR = (uint16_t)(i2sdiv | (
 468              		.loc 1 354 15 view .LVU116
 469 0118 2B84     		strh	r3, [r5, #32]	@ movhi	@ _28, SPIx_45(D)->I2SPR
 355:.\stlib\STM32F10x_StdPeriph_Driver\src/stm32f10x_spi.c ****  
 356:.\stlib\STM32F10x_StdPeriph_Driver\src/stm32f10x_spi.c ****   /* Configure the I2S with the SPI_InitStruct values */
 357:.\stlib\STM32F10x_StdPeriph_Driver\src/stm32f10x_spi.c ****   tmpreg |= (uint16_t)(I2S_Mode_Select | (uint16_t)(I2S_InitStruct->I2S_Mode | \
 470              		.loc 1 357 3 is_stmt 1 view .LVU117
 471              	@ .\stlib\STM32F10x_StdPeriph_Driver\src\stm32f10x_spi.c:357:   tmpreg |= (uint16_t)(I2S_Mode_Selec
ARM GAS  C:\Users\skey\AppData\Local\Temp\cchabaxk.s 			page 16


 472              		.loc 1 357 10 is_stmt 0 view .LVU118
 473 011a 7288     		ldrh	r2, [r6, #2]	@, I2S_InitStruct_49(D)->I2S_Standard
 474 011c 3388     		ldrh	r3, [r6]	@, I2S_InitStruct_49(D)->I2S_Mode
 475 011e 1343     		orrs	r3, r3, r2	@, tmp206, I2S_InitStruct_49(D)->I2S_Mode, I2S_InitStruct_49(D)->I2S_Standard
 476 0120 2343     		orrs	r3, r3, r4	@, tmp208, tmp206, tmpreg
 477 0122 B488     		ldrh	r4, [r6, #4]	@, I2S_InitStruct_49(D)->I2S_DataFormat
 478              	.LVL31:
 479              		.loc 1 357 10 view .LVU119
 480 0124 2343     		orrs	r3, r3, r4	@, tmp211, tmp208, I2S_InitStruct_49(D)->I2S_DataFormat
 481 0126 B489     		ldrh	r4, [r6, #12]	@, I2S_InitStruct_49(D)->I2S_CPOL
 482 0128 2343     		orrs	r3, r3, r4	@, tmp214, tmp211, I2S_InitStruct_49(D)->I2S_CPOL
 483 012a 9BB2     		uxth	r3, r3	@ _36, tmp214
 484 012c 43F40063 		orr	r3, r3, #2048	@ tmpreg, _36,
 485              	.LVL32:
 358:.\stlib\STM32F10x_StdPeriph_Driver\src/stm32f10x_spi.c ****                   (uint16_t)(I2S_InitStruct->I2S_Standard | (uint16_t)(I2S_InitStruct->I2S_DataForm
 359:.\stlib\STM32F10x_StdPeriph_Driver\src/stm32f10x_spi.c ****                   (uint16_t)I2S_InitStruct->I2S_CPOL))));
 360:.\stlib\STM32F10x_StdPeriph_Driver\src/stm32f10x_spi.c ****  
 361:.\stlib\STM32F10x_StdPeriph_Driver\src/stm32f10x_spi.c ****   /* Write to SPIx I2SCFGR */  
 362:.\stlib\STM32F10x_StdPeriph_Driver\src/stm32f10x_spi.c ****   SPIx->I2SCFGR = tmpreg;   
 486              		.loc 1 362 3 is_stmt 1 view .LVU120
 487              	@ .\stlib\STM32F10x_StdPeriph_Driver\src\stm32f10x_spi.c:362:   SPIx->I2SCFGR = tmpreg;   
 488              		.loc 1 362 17 is_stmt 0 view .LVU121
 489 0130 AB83     		strh	r3, [r5, #28]	@ movhi	@ tmpreg, SPIx_45(D)->I2SCFGR
 490              	@ .\stlib\STM32F10x_StdPeriph_Driver\src\stm32f10x_spi.c:363: }
 363:.\stlib\STM32F10x_StdPeriph_Driver\src/stm32f10x_spi.c **** }
 491              		.loc 1 363 1 view .LVU122
 492 0132 07B0     		add	sp, sp, #28	@,,
 493              	.LCFI8:
 494              		.cfi_remember_state
 495              		.cfi_def_cfa_offset 20
 496              		@ sp needed	@
 497 0134 F0BD     		pop	{r4, r5, r6, r7, pc}	@
 498              	.LVL33:
 499              	.L10:
 500              	.LCFI9:
 501              		.cfi_restore_state
 502              	@ .\stlib\STM32F10x_StdPeriph_Driver\src\stm32f10x_spi.c:350:     i2sodd = 0;
 350:.\stlib\STM32F10x_StdPeriph_Driver\src/stm32f10x_spi.c ****   }
 503              		.loc 1 350 12 view .LVU123
 504 0136 0022     		movs	r2, #0	@ i2sodd,
 505              	@ .\stlib\STM32F10x_StdPeriph_Driver\src\stm32f10x_spi.c:349:     i2sdiv = 2;
 349:.\stlib\STM32F10x_StdPeriph_Driver\src/stm32f10x_spi.c ****     i2sodd = 0;
 506              		.loc 1 349 12 view .LVU124
 507 0138 0223     		movs	r3, #2	@ i2sdiv,
 508 013a EAE7     		b	.L14		@
 509              		.cfi_endproc
 510              	.LFE31:
 511              		.size	I2S_Init, .-I2S_Init
 512              		.align	1
 513              		.global	SPI_StructInit
 514              		.syntax unified
 515              		.thumb
 516              		.thumb_func
 517              		.fpu softvfp
 518              		.type	SPI_StructInit, %function
 519              	SPI_StructInit:
 520              	.LVL34:
ARM GAS  C:\Users\skey\AppData\Local\Temp\cchabaxk.s 			page 17


 521              	.LFB32:
 364:.\stlib\STM32F10x_StdPeriph_Driver\src/stm32f10x_spi.c **** 
 365:.\stlib\STM32F10x_StdPeriph_Driver\src/stm32f10x_spi.c **** /**
 366:.\stlib\STM32F10x_StdPeriph_Driver\src/stm32f10x_spi.c ****   * @brief  Fills each SPI_InitStruct member with its default value.
 367:.\stlib\STM32F10x_StdPeriph_Driver\src/stm32f10x_spi.c ****   * @param  SPI_InitStruct : pointer to a SPI_InitTypeDef structure which will be initialized.
 368:.\stlib\STM32F10x_StdPeriph_Driver\src/stm32f10x_spi.c ****   * @retval None
 369:.\stlib\STM32F10x_StdPeriph_Driver\src/stm32f10x_spi.c ****   */
 370:.\stlib\STM32F10x_StdPeriph_Driver\src/stm32f10x_spi.c **** void SPI_StructInit(SPI_InitTypeDef* SPI_InitStruct)
 371:.\stlib\STM32F10x_StdPeriph_Driver\src/stm32f10x_spi.c **** {
 522              		.loc 1 371 1 is_stmt 1 view -0
 523              		.cfi_startproc
 524              		@ args = 0, pretend = 0, frame = 0
 525              		@ frame_needed = 0, uses_anonymous_args = 0
 526              		@ link register save eliminated.
 372:.\stlib\STM32F10x_StdPeriph_Driver\src/stm32f10x_spi.c **** /*--------------- Reset SPI init structure parameters values -----------------*/
 373:.\stlib\STM32F10x_StdPeriph_Driver\src/stm32f10x_spi.c ****   /* Initialize the SPI_Direction member */
 374:.\stlib\STM32F10x_StdPeriph_Driver\src/stm32f10x_spi.c ****   SPI_InitStruct->SPI_Direction = SPI_Direction_2Lines_FullDuplex;
 527              		.loc 1 374 3 view .LVU126
 528              	@ .\stlib\STM32F10x_StdPeriph_Driver\src\stm32f10x_spi.c:374:   SPI_InitStruct->SPI_Direction = SPI
 529              		.loc 1 374 33 is_stmt 0 view .LVU127
 530 013c 0023     		movs	r3, #0	@ tmp112,
 531 013e 0380     		strh	r3, [r0]	@ movhi	@ tmp112, SPI_InitStruct_2(D)->SPI_Direction
 375:.\stlib\STM32F10x_StdPeriph_Driver\src/stm32f10x_spi.c ****   /* initialize the SPI_Mode member */
 376:.\stlib\STM32F10x_StdPeriph_Driver\src/stm32f10x_spi.c ****   SPI_InitStruct->SPI_Mode = SPI_Mode_Slave;
 532              		.loc 1 376 3 is_stmt 1 view .LVU128
 533              	@ .\stlib\STM32F10x_StdPeriph_Driver\src\stm32f10x_spi.c:376:   SPI_InitStruct->SPI_Mode = SPI_Mode
 534              		.loc 1 376 28 is_stmt 0 view .LVU129
 535 0140 4380     		strh	r3, [r0, #2]	@ movhi	@ tmp112, SPI_InitStruct_2(D)->SPI_Mode
 377:.\stlib\STM32F10x_StdPeriph_Driver\src/stm32f10x_spi.c ****   /* initialize the SPI_DataSize member */
 378:.\stlib\STM32F10x_StdPeriph_Driver\src/stm32f10x_spi.c ****   SPI_InitStruct->SPI_DataSize = SPI_DataSize_8b;
 536              		.loc 1 378 3 is_stmt 1 view .LVU130
 537              	@ .\stlib\STM32F10x_StdPeriph_Driver\src\stm32f10x_spi.c:378:   SPI_InitStruct->SPI_DataSize = SPI_
 538              		.loc 1 378 32 is_stmt 0 view .LVU131
 539 0142 8380     		strh	r3, [r0, #4]	@ movhi	@ tmp112, SPI_InitStruct_2(D)->SPI_DataSize
 379:.\stlib\STM32F10x_StdPeriph_Driver\src/stm32f10x_spi.c ****   /* Initialize the SPI_CPOL member */
 380:.\stlib\STM32F10x_StdPeriph_Driver\src/stm32f10x_spi.c ****   SPI_InitStruct->SPI_CPOL = SPI_CPOL_Low;
 540              		.loc 1 380 3 is_stmt 1 view .LVU132
 541              	@ .\stlib\STM32F10x_StdPeriph_Driver\src\stm32f10x_spi.c:380:   SPI_InitStruct->SPI_CPOL = SPI_CPOL
 542              		.loc 1 380 28 is_stmt 0 view .LVU133
 543 0144 C380     		strh	r3, [r0, #6]	@ movhi	@ tmp112, SPI_InitStruct_2(D)->SPI_CPOL
 381:.\stlib\STM32F10x_StdPeriph_Driver\src/stm32f10x_spi.c ****   /* Initialize the SPI_CPHA member */
 382:.\stlib\STM32F10x_StdPeriph_Driver\src/stm32f10x_spi.c ****   SPI_InitStruct->SPI_CPHA = SPI_CPHA_1Edge;
 544              		.loc 1 382 3 is_stmt 1 view .LVU134
 545              	@ .\stlib\STM32F10x_StdPeriph_Driver\src\stm32f10x_spi.c:382:   SPI_InitStruct->SPI_CPHA = SPI_CPHA
 546              		.loc 1 382 28 is_stmt 0 view .LVU135
 547 0146 0381     		strh	r3, [r0, #8]	@ movhi	@ tmp112, SPI_InitStruct_2(D)->SPI_CPHA
 383:.\stlib\STM32F10x_StdPeriph_Driver\src/stm32f10x_spi.c ****   /* Initialize the SPI_NSS member */
 384:.\stlib\STM32F10x_StdPeriph_Driver\src/stm32f10x_spi.c ****   SPI_InitStruct->SPI_NSS = SPI_NSS_Hard;
 548              		.loc 1 384 3 is_stmt 1 view .LVU136
 549              	@ .\stlib\STM32F10x_StdPeriph_Driver\src\stm32f10x_spi.c:384:   SPI_InitStruct->SPI_NSS = SPI_NSS_H
 550              		.loc 1 384 27 is_stmt 0 view .LVU137
 551 0148 4381     		strh	r3, [r0, #10]	@ movhi	@ tmp112, SPI_InitStruct_2(D)->SPI_NSS
 385:.\stlib\STM32F10x_StdPeriph_Driver\src/stm32f10x_spi.c ****   /* Initialize the SPI_BaudRatePrescaler member */
 386:.\stlib\STM32F10x_StdPeriph_Driver\src/stm32f10x_spi.c ****   SPI_InitStruct->SPI_BaudRatePrescaler = SPI_BaudRatePrescaler_2;
 552              		.loc 1 386 3 is_stmt 1 view .LVU138
 553              	@ .\stlib\STM32F10x_StdPeriph_Driver\src\stm32f10x_spi.c:386:   SPI_InitStruct->SPI_BaudRatePrescal
 554              		.loc 1 386 41 is_stmt 0 view .LVU139
ARM GAS  C:\Users\skey\AppData\Local\Temp\cchabaxk.s 			page 18


 555 014a 8381     		strh	r3, [r0, #12]	@ movhi	@ tmp112, SPI_InitStruct_2(D)->SPI_BaudRatePrescaler
 387:.\stlib\STM32F10x_StdPeriph_Driver\src/stm32f10x_spi.c ****   /* Initialize the SPI_FirstBit member */
 388:.\stlib\STM32F10x_StdPeriph_Driver\src/stm32f10x_spi.c ****   SPI_InitStruct->SPI_FirstBit = SPI_FirstBit_MSB;
 556              		.loc 1 388 3 is_stmt 1 view .LVU140
 557              	@ .\stlib\STM32F10x_StdPeriph_Driver\src\stm32f10x_spi.c:388:   SPI_InitStruct->SPI_FirstBit = SPI_
 558              		.loc 1 388 32 is_stmt 0 view .LVU141
 559 014c C381     		strh	r3, [r0, #14]	@ movhi	@ tmp112, SPI_InitStruct_2(D)->SPI_FirstBit
 389:.\stlib\STM32F10x_StdPeriph_Driver\src/stm32f10x_spi.c ****   /* Initialize the SPI_CRCPolynomial member */
 390:.\stlib\STM32F10x_StdPeriph_Driver\src/stm32f10x_spi.c ****   SPI_InitStruct->SPI_CRCPolynomial = 7;
 560              		.loc 1 390 3 is_stmt 1 view .LVU142
 561              	@ .\stlib\STM32F10x_StdPeriph_Driver\src\stm32f10x_spi.c:390:   SPI_InitStruct->SPI_CRCPolynomial =
 562              		.loc 1 390 37 is_stmt 0 view .LVU143
 563 014e 0723     		movs	r3, #7	@ tmp128,
 564 0150 0382     		strh	r3, [r0, #16]	@ movhi	@ tmp128, SPI_InitStruct_2(D)->SPI_CRCPolynomial
 565              	@ .\stlib\STM32F10x_StdPeriph_Driver\src\stm32f10x_spi.c:391: }
 391:.\stlib\STM32F10x_StdPeriph_Driver\src/stm32f10x_spi.c **** }
 566              		.loc 1 391 1 view .LVU144
 567 0152 7047     		bx	lr	@
 568              		.cfi_endproc
 569              	.LFE32:
 570              		.size	SPI_StructInit, .-SPI_StructInit
 571              		.align	1
 572              		.global	I2S_StructInit
 573              		.syntax unified
 574              		.thumb
 575              		.thumb_func
 576              		.fpu softvfp
 577              		.type	I2S_StructInit, %function
 578              	I2S_StructInit:
 579              	.LVL35:
 580              	.LFB33:
 392:.\stlib\STM32F10x_StdPeriph_Driver\src/stm32f10x_spi.c **** 
 393:.\stlib\STM32F10x_StdPeriph_Driver\src/stm32f10x_spi.c **** /**
 394:.\stlib\STM32F10x_StdPeriph_Driver\src/stm32f10x_spi.c ****   * @brief  Fills each I2S_InitStruct member with its default value.
 395:.\stlib\STM32F10x_StdPeriph_Driver\src/stm32f10x_spi.c ****   * @param  I2S_InitStruct : pointer to a I2S_InitTypeDef structure which will be initialized.
 396:.\stlib\STM32F10x_StdPeriph_Driver\src/stm32f10x_spi.c ****   * @retval None
 397:.\stlib\STM32F10x_StdPeriph_Driver\src/stm32f10x_spi.c ****   */
 398:.\stlib\STM32F10x_StdPeriph_Driver\src/stm32f10x_spi.c **** void I2S_StructInit(I2S_InitTypeDef* I2S_InitStruct)
 399:.\stlib\STM32F10x_StdPeriph_Driver\src/stm32f10x_spi.c **** {
 581              		.loc 1 399 1 is_stmt 1 view -0
 582              		.cfi_startproc
 583              		@ args = 0, pretend = 0, frame = 0
 584              		@ frame_needed = 0, uses_anonymous_args = 0
 585              		@ link register save eliminated.
 400:.\stlib\STM32F10x_StdPeriph_Driver\src/stm32f10x_spi.c **** /*--------------- Reset I2S init structure parameters values -----------------*/
 401:.\stlib\STM32F10x_StdPeriph_Driver\src/stm32f10x_spi.c ****   /* Initialize the I2S_Mode member */
 402:.\stlib\STM32F10x_StdPeriph_Driver\src/stm32f10x_spi.c ****   I2S_InitStruct->I2S_Mode = I2S_Mode_SlaveTx;
 586              		.loc 1 402 3 view .LVU146
 403:.\stlib\STM32F10x_StdPeriph_Driver\src/stm32f10x_spi.c ****   
 404:.\stlib\STM32F10x_StdPeriph_Driver\src/stm32f10x_spi.c ****   /* Initialize the I2S_Standard member */
 405:.\stlib\STM32F10x_StdPeriph_Driver\src/stm32f10x_spi.c ****   I2S_InitStruct->I2S_Standard = I2S_Standard_Phillips;
 587              		.loc 1 405 3 view .LVU147
 406:.\stlib\STM32F10x_StdPeriph_Driver\src/stm32f10x_spi.c ****   
 407:.\stlib\STM32F10x_StdPeriph_Driver\src/stm32f10x_spi.c ****   /* Initialize the I2S_DataFormat member */
 408:.\stlib\STM32F10x_StdPeriph_Driver\src/stm32f10x_spi.c ****   I2S_InitStruct->I2S_DataFormat = I2S_DataFormat_16b;
 588              		.loc 1 408 3 view .LVU148
 409:.\stlib\STM32F10x_StdPeriph_Driver\src/stm32f10x_spi.c ****   
ARM GAS  C:\Users\skey\AppData\Local\Temp\cchabaxk.s 			page 19


 410:.\stlib\STM32F10x_StdPeriph_Driver\src/stm32f10x_spi.c ****   /* Initialize the I2S_MCLKOutput member */
 411:.\stlib\STM32F10x_StdPeriph_Driver\src/stm32f10x_spi.c ****   I2S_InitStruct->I2S_MCLKOutput = I2S_MCLKOutput_Disable;
 589              		.loc 1 411 3 view .LVU149
 412:.\stlib\STM32F10x_StdPeriph_Driver\src/stm32f10x_spi.c ****   
 413:.\stlib\STM32F10x_StdPeriph_Driver\src/stm32f10x_spi.c ****   /* Initialize the I2S_AudioFreq member */
 414:.\stlib\STM32F10x_StdPeriph_Driver\src/stm32f10x_spi.c ****   I2S_InitStruct->I2S_AudioFreq = I2S_AudioFreq_Default;
 590              		.loc 1 414 3 view .LVU150
 415:.\stlib\STM32F10x_StdPeriph_Driver\src/stm32f10x_spi.c ****   
 416:.\stlib\STM32F10x_StdPeriph_Driver\src/stm32f10x_spi.c ****   /* Initialize the I2S_CPOL member */
 417:.\stlib\STM32F10x_StdPeriph_Driver\src/stm32f10x_spi.c ****   I2S_InitStruct->I2S_CPOL = I2S_CPOL_Low;
 591              		.loc 1 417 3 view .LVU151
 592              	@ .\stlib\STM32F10x_StdPeriph_Driver\src\stm32f10x_spi.c:402:   I2S_InitStruct->I2S_Mode = I2S_Mode
 402:.\stlib\STM32F10x_StdPeriph_Driver\src/stm32f10x_spi.c ****   
 593              		.loc 1 402 28 is_stmt 0 view .LVU152
 594 0154 0023     		movs	r3, #0	@ tmp111,
 595              	@ .\stlib\STM32F10x_StdPeriph_Driver\src\stm32f10x_spi.c:414:   I2S_InitStruct->I2S_AudioFreq = I2S
 414:.\stlib\STM32F10x_StdPeriph_Driver\src/stm32f10x_spi.c ****   
 596              		.loc 1 414 33 view .LVU153
 597 0156 0222     		movs	r2, #2	@ tmp113,
 598              	@ .\stlib\STM32F10x_StdPeriph_Driver\src\stm32f10x_spi.c:408:   I2S_InitStruct->I2S_DataFormat = I2
 408:.\stlib\STM32F10x_StdPeriph_Driver\src/stm32f10x_spi.c ****   
 599              		.loc 1 408 34 view .LVU154
 600 0158 C0E90033 		strd	r3, r3, [r0]	@ tmp111, tmp111, I2S_InitStruct
 601              	@ .\stlib\STM32F10x_StdPeriph_Driver\src\stm32f10x_spi.c:414:   I2S_InitStruct->I2S_AudioFreq = I2S
 414:.\stlib\STM32F10x_StdPeriph_Driver\src/stm32f10x_spi.c ****   
 602              		.loc 1 414 33 view .LVU155
 603 015c 8260     		str	r2, [r0, #8]	@ tmp113, I2S_InitStruct_2(D)->I2S_AudioFreq
 604              	@ .\stlib\STM32F10x_StdPeriph_Driver\src\stm32f10x_spi.c:417:   I2S_InitStruct->I2S_CPOL = I2S_CPOL
 605              		.loc 1 417 28 view .LVU156
 606 015e 8381     		strh	r3, [r0, #12]	@ movhi	@ tmp111, I2S_InitStruct_2(D)->I2S_CPOL
 607              	@ .\stlib\STM32F10x_StdPeriph_Driver\src\stm32f10x_spi.c:418: }
 418:.\stlib\STM32F10x_StdPeriph_Driver\src/stm32f10x_spi.c **** }
 608              		.loc 1 418 1 view .LVU157
 609 0160 7047     		bx	lr	@
 610              		.cfi_endproc
 611              	.LFE33:
 612              		.size	I2S_StructInit, .-I2S_StructInit
 613              		.align	1
 614              		.global	SPI_Cmd
 615              		.syntax unified
 616              		.thumb
 617              		.thumb_func
 618              		.fpu softvfp
 619              		.type	SPI_Cmd, %function
 620              	SPI_Cmd:
 621              	.LVL36:
 622              	.LFB34:
 419:.\stlib\STM32F10x_StdPeriph_Driver\src/stm32f10x_spi.c **** 
 420:.\stlib\STM32F10x_StdPeriph_Driver\src/stm32f10x_spi.c **** /**
 421:.\stlib\STM32F10x_StdPeriph_Driver\src/stm32f10x_spi.c ****   * @brief  Enables or disables the specified SPI peripheral.
 422:.\stlib\STM32F10x_StdPeriph_Driver\src/stm32f10x_spi.c ****   * @param  SPIx: where x can be 1, 2 or 3 to select the SPI peripheral.
 423:.\stlib\STM32F10x_StdPeriph_Driver\src/stm32f10x_spi.c ****   * @param  NewState: new state of the SPIx peripheral. 
 424:.\stlib\STM32F10x_StdPeriph_Driver\src/stm32f10x_spi.c ****   *   This parameter can be: ENABLE or DISABLE.
 425:.\stlib\STM32F10x_StdPeriph_Driver\src/stm32f10x_spi.c ****   * @retval None
 426:.\stlib\STM32F10x_StdPeriph_Driver\src/stm32f10x_spi.c ****   */
 427:.\stlib\STM32F10x_StdPeriph_Driver\src/stm32f10x_spi.c **** void SPI_Cmd(SPI_TypeDef* SPIx, FunctionalState NewState)
 428:.\stlib\STM32F10x_StdPeriph_Driver\src/stm32f10x_spi.c **** {
ARM GAS  C:\Users\skey\AppData\Local\Temp\cchabaxk.s 			page 20


 623              		.loc 1 428 1 is_stmt 1 view -0
 624              		.cfi_startproc
 625              		@ args = 0, pretend = 0, frame = 0
 626              		@ frame_needed = 0, uses_anonymous_args = 0
 627              		@ link register save eliminated.
 429:.\stlib\STM32F10x_StdPeriph_Driver\src/stm32f10x_spi.c ****   /* Check the parameters */
 430:.\stlib\STM32F10x_StdPeriph_Driver\src/stm32f10x_spi.c ****   assert_param(IS_SPI_ALL_PERIPH(SPIx));
 628              		.loc 1 430 3 view .LVU159
 431:.\stlib\STM32F10x_StdPeriph_Driver\src/stm32f10x_spi.c ****   assert_param(IS_FUNCTIONAL_STATE(NewState));
 629              		.loc 1 431 3 view .LVU160
 432:.\stlib\STM32F10x_StdPeriph_Driver\src/stm32f10x_spi.c ****   if (NewState != DISABLE)
 630              		.loc 1 432 3 view .LVU161
 631              	@ .\stlib\STM32F10x_StdPeriph_Driver\src\stm32f10x_spi.c:435:     SPIx->CR1 |= CR1_SPE_Set;
 433:.\stlib\STM32F10x_StdPeriph_Driver\src/stm32f10x_spi.c ****   {
 434:.\stlib\STM32F10x_StdPeriph_Driver\src/stm32f10x_spi.c ****     /* Enable the selected SPI peripheral */
 435:.\stlib\STM32F10x_StdPeriph_Driver\src/stm32f10x_spi.c ****     SPIx->CR1 |= CR1_SPE_Set;
 632              		.loc 1 435 15 is_stmt 0 view .LVU162
 633 0162 0388     		ldrh	r3, [r0]	@,* SPIx
 634              	@ .\stlib\STM32F10x_StdPeriph_Driver\src\stm32f10x_spi.c:432:   if (NewState != DISABLE)
 432:.\stlib\STM32F10x_StdPeriph_Driver\src/stm32f10x_spi.c ****   if (NewState != DISABLE)
 635              		.loc 1 432 6 view .LVU163
 636 0164 21B1     		cbz	r1, .L23	@ tmp123,
 637              		.loc 1 435 5 is_stmt 1 view .LVU164
 638              	@ .\stlib\STM32F10x_StdPeriph_Driver\src\stm32f10x_spi.c:435:     SPIx->CR1 |= CR1_SPE_Set;
 639              		.loc 1 435 15 is_stmt 0 view .LVU165
 640 0166 9BB2     		uxth	r3, r3	@ _1, SPIx_8(D)->CR1
 641 0168 43F04003 		orr	r3, r3, #64	@ _2, _1,
 642              	.L25:
 643              	@ .\stlib\STM32F10x_StdPeriph_Driver\src\stm32f10x_spi.c:440:     SPIx->CR1 &= CR1_SPE_Reset;
 436:.\stlib\STM32F10x_StdPeriph_Driver\src/stm32f10x_spi.c ****   }
 437:.\stlib\STM32F10x_StdPeriph_Driver\src/stm32f10x_spi.c ****   else
 438:.\stlib\STM32F10x_StdPeriph_Driver\src/stm32f10x_spi.c ****   {
 439:.\stlib\STM32F10x_StdPeriph_Driver\src/stm32f10x_spi.c ****     /* Disable the selected SPI peripheral */
 440:.\stlib\STM32F10x_StdPeriph_Driver\src/stm32f10x_spi.c ****     SPIx->CR1 &= CR1_SPE_Reset;
 644              		.loc 1 440 15 view .LVU166
 645 016c 0380     		strh	r3, [r0]	@ movhi	@ _4,* SPIx
 646              	@ .\stlib\STM32F10x_StdPeriph_Driver\src\stm32f10x_spi.c:442: }
 441:.\stlib\STM32F10x_StdPeriph_Driver\src/stm32f10x_spi.c ****   }
 442:.\stlib\STM32F10x_StdPeriph_Driver\src/stm32f10x_spi.c **** }
 647              		.loc 1 442 1 view .LVU167
 648 016e 7047     		bx	lr	@
 649              	.L23:
 440:.\stlib\STM32F10x_StdPeriph_Driver\src/stm32f10x_spi.c ****   }
 650              		.loc 1 440 5 is_stmt 1 view .LVU168
 651              	@ .\stlib\STM32F10x_StdPeriph_Driver\src\stm32f10x_spi.c:440:     SPIx->CR1 &= CR1_SPE_Reset;
 440:.\stlib\STM32F10x_StdPeriph_Driver\src/stm32f10x_spi.c ****   }
 652              		.loc 1 440 15 is_stmt 0 view .LVU169
 653 0170 23F04003 		bic	r3, r3, #64	@ _4, SPIx_8(D)->CR1,
 654 0174 1B04     		lsls	r3, r3, #16	@ _4, _4,
 655 0176 1B0C     		lsrs	r3, r3, #16	@ _4, _4,
 656 0178 F8E7     		b	.L25		@
 657              		.cfi_endproc
 658              	.LFE34:
 659              		.size	SPI_Cmd, .-SPI_Cmd
 660              		.align	1
 661              		.global	I2S_Cmd
 662              		.syntax unified
ARM GAS  C:\Users\skey\AppData\Local\Temp\cchabaxk.s 			page 21


 663              		.thumb
 664              		.thumb_func
 665              		.fpu softvfp
 666              		.type	I2S_Cmd, %function
 667              	I2S_Cmd:
 668              	.LVL37:
 669              	.LFB35:
 443:.\stlib\STM32F10x_StdPeriph_Driver\src/stm32f10x_spi.c **** 
 444:.\stlib\STM32F10x_StdPeriph_Driver\src/stm32f10x_spi.c **** /**
 445:.\stlib\STM32F10x_StdPeriph_Driver\src/stm32f10x_spi.c ****   * @brief  Enables or disables the specified SPI peripheral (in I2S mode).
 446:.\stlib\STM32F10x_StdPeriph_Driver\src/stm32f10x_spi.c ****   * @param  SPIx: where x can be 2 or 3 to select the SPI peripheral.
 447:.\stlib\STM32F10x_StdPeriph_Driver\src/stm32f10x_spi.c ****   * @param  NewState: new state of the SPIx peripheral. 
 448:.\stlib\STM32F10x_StdPeriph_Driver\src/stm32f10x_spi.c ****   *   This parameter can be: ENABLE or DISABLE.
 449:.\stlib\STM32F10x_StdPeriph_Driver\src/stm32f10x_spi.c ****   * @retval None
 450:.\stlib\STM32F10x_StdPeriph_Driver\src/stm32f10x_spi.c ****   */
 451:.\stlib\STM32F10x_StdPeriph_Driver\src/stm32f10x_spi.c **** void I2S_Cmd(SPI_TypeDef* SPIx, FunctionalState NewState)
 452:.\stlib\STM32F10x_StdPeriph_Driver\src/stm32f10x_spi.c **** {
 670              		.loc 1 452 1 is_stmt 1 view -0
 671              		.cfi_startproc
 672              		@ args = 0, pretend = 0, frame = 0
 673              		@ frame_needed = 0, uses_anonymous_args = 0
 674              		@ link register save eliminated.
 453:.\stlib\STM32F10x_StdPeriph_Driver\src/stm32f10x_spi.c ****   /* Check the parameters */
 454:.\stlib\STM32F10x_StdPeriph_Driver\src/stm32f10x_spi.c ****   assert_param(IS_SPI_23_PERIPH(SPIx));
 675              		.loc 1 454 3 view .LVU171
 455:.\stlib\STM32F10x_StdPeriph_Driver\src/stm32f10x_spi.c ****   assert_param(IS_FUNCTIONAL_STATE(NewState));
 676              		.loc 1 455 3 view .LVU172
 456:.\stlib\STM32F10x_StdPeriph_Driver\src/stm32f10x_spi.c ****   if (NewState != DISABLE)
 677              		.loc 1 456 3 view .LVU173
 678              	@ .\stlib\STM32F10x_StdPeriph_Driver\src\stm32f10x_spi.c:459:     SPIx->I2SCFGR |= I2SCFGR_I2SE_Set
 457:.\stlib\STM32F10x_StdPeriph_Driver\src/stm32f10x_spi.c ****   {
 458:.\stlib\STM32F10x_StdPeriph_Driver\src/stm32f10x_spi.c ****     /* Enable the selected SPI peripheral (in I2S mode) */
 459:.\stlib\STM32F10x_StdPeriph_Driver\src/stm32f10x_spi.c ****     SPIx->I2SCFGR |= I2SCFGR_I2SE_Set;
 679              		.loc 1 459 19 is_stmt 0 view .LVU174
 680 017a 838B     		ldrh	r3, [r0, #28]	@,
 681              	@ .\stlib\STM32F10x_StdPeriph_Driver\src\stm32f10x_spi.c:456:   if (NewState != DISABLE)
 456:.\stlib\STM32F10x_StdPeriph_Driver\src/stm32f10x_spi.c ****   if (NewState != DISABLE)
 682              		.loc 1 456 6 view .LVU175
 683 017c 21B1     		cbz	r1, .L27	@ tmp125,
 684              		.loc 1 459 5 is_stmt 1 view .LVU176
 685              	@ .\stlib\STM32F10x_StdPeriph_Driver\src\stm32f10x_spi.c:459:     SPIx->I2SCFGR |= I2SCFGR_I2SE_Set
 686              		.loc 1 459 19 is_stmt 0 view .LVU177
 687 017e 9BB2     		uxth	r3, r3	@ _1, SPIx_8(D)->I2SCFGR
 688 0180 43F48063 		orr	r3, r3, #1024	@ _2, _1,
 689              	.L29:
 690              	@ .\stlib\STM32F10x_StdPeriph_Driver\src\stm32f10x_spi.c:464:     SPIx->I2SCFGR &= I2SCFGR_I2SE_Res
 460:.\stlib\STM32F10x_StdPeriph_Driver\src/stm32f10x_spi.c ****   }
 461:.\stlib\STM32F10x_StdPeriph_Driver\src/stm32f10x_spi.c ****   else
 462:.\stlib\STM32F10x_StdPeriph_Driver\src/stm32f10x_spi.c ****   {
 463:.\stlib\STM32F10x_StdPeriph_Driver\src/stm32f10x_spi.c ****     /* Disable the selected SPI peripheral (in I2S mode) */
 464:.\stlib\STM32F10x_StdPeriph_Driver\src/stm32f10x_spi.c ****     SPIx->I2SCFGR &= I2SCFGR_I2SE_Reset;
 691              		.loc 1 464 19 view .LVU178
 692 0184 8383     		strh	r3, [r0, #28]	@ movhi	@ _4,
 693              	@ .\stlib\STM32F10x_StdPeriph_Driver\src\stm32f10x_spi.c:466: }
 465:.\stlib\STM32F10x_StdPeriph_Driver\src/stm32f10x_spi.c ****   }
 466:.\stlib\STM32F10x_StdPeriph_Driver\src/stm32f10x_spi.c **** }
 694              		.loc 1 466 1 view .LVU179
ARM GAS  C:\Users\skey\AppData\Local\Temp\cchabaxk.s 			page 22


 695 0186 7047     		bx	lr	@
 696              	.L27:
 464:.\stlib\STM32F10x_StdPeriph_Driver\src/stm32f10x_spi.c ****   }
 697              		.loc 1 464 5 is_stmt 1 view .LVU180
 698              	@ .\stlib\STM32F10x_StdPeriph_Driver\src\stm32f10x_spi.c:464:     SPIx->I2SCFGR &= I2SCFGR_I2SE_Res
 464:.\stlib\STM32F10x_StdPeriph_Driver\src/stm32f10x_spi.c ****   }
 699              		.loc 1 464 19 is_stmt 0 view .LVU181
 700 0188 23F48063 		bic	r3, r3, #1024	@ _4, SPIx_8(D)->I2SCFGR,
 701 018c 1B04     		lsls	r3, r3, #16	@ _4, _4,
 702 018e 1B0C     		lsrs	r3, r3, #16	@ _4, _4,
 703 0190 F8E7     		b	.L29		@
 704              		.cfi_endproc
 705              	.LFE35:
 706              		.size	I2S_Cmd, .-I2S_Cmd
 707              		.align	1
 708              		.global	SPI_I2S_ITConfig
 709              		.syntax unified
 710              		.thumb
 711              		.thumb_func
 712              		.fpu softvfp
 713              		.type	SPI_I2S_ITConfig, %function
 714              	SPI_I2S_ITConfig:
 715              	.LVL38:
 716              	.LFB36:
 467:.\stlib\STM32F10x_StdPeriph_Driver\src/stm32f10x_spi.c **** 
 468:.\stlib\STM32F10x_StdPeriph_Driver\src/stm32f10x_spi.c **** /**
 469:.\stlib\STM32F10x_StdPeriph_Driver\src/stm32f10x_spi.c ****   * @brief  Enables or disables the specified SPI/I2S interrupts.
 470:.\stlib\STM32F10x_StdPeriph_Driver\src/stm32f10x_spi.c ****   * @param  SPIx: where x can be
 471:.\stlib\STM32F10x_StdPeriph_Driver\src/stm32f10x_spi.c ****   *   - 1, 2 or 3 in SPI mode 
 472:.\stlib\STM32F10x_StdPeriph_Driver\src/stm32f10x_spi.c ****   *   - 2 or 3 in I2S mode
 473:.\stlib\STM32F10x_StdPeriph_Driver\src/stm32f10x_spi.c ****   * @param  SPI_I2S_IT: specifies the SPI/I2S interrupt source to be enabled or disabled. 
 474:.\stlib\STM32F10x_StdPeriph_Driver\src/stm32f10x_spi.c ****   *   This parameter can be one of the following values:
 475:.\stlib\STM32F10x_StdPeriph_Driver\src/stm32f10x_spi.c ****   *     @arg SPI_I2S_IT_TXE: Tx buffer empty interrupt mask
 476:.\stlib\STM32F10x_StdPeriph_Driver\src/stm32f10x_spi.c ****   *     @arg SPI_I2S_IT_RXNE: Rx buffer not empty interrupt mask
 477:.\stlib\STM32F10x_StdPeriph_Driver\src/stm32f10x_spi.c ****   *     @arg SPI_I2S_IT_ERR: Error interrupt mask
 478:.\stlib\STM32F10x_StdPeriph_Driver\src/stm32f10x_spi.c ****   * @param  NewState: new state of the specified SPI/I2S interrupt.
 479:.\stlib\STM32F10x_StdPeriph_Driver\src/stm32f10x_spi.c ****   *   This parameter can be: ENABLE or DISABLE.
 480:.\stlib\STM32F10x_StdPeriph_Driver\src/stm32f10x_spi.c ****   * @retval None
 481:.\stlib\STM32F10x_StdPeriph_Driver\src/stm32f10x_spi.c ****   */
 482:.\stlib\STM32F10x_StdPeriph_Driver\src/stm32f10x_spi.c **** void SPI_I2S_ITConfig(SPI_TypeDef* SPIx, uint8_t SPI_I2S_IT, FunctionalState NewState)
 483:.\stlib\STM32F10x_StdPeriph_Driver\src/stm32f10x_spi.c **** {
 717              		.loc 1 483 1 is_stmt 1 view -0
 718              		.cfi_startproc
 719              		@ args = 0, pretend = 0, frame = 0
 720              		@ frame_needed = 0, uses_anonymous_args = 0
 721              		@ link register save eliminated.
 484:.\stlib\STM32F10x_StdPeriph_Driver\src/stm32f10x_spi.c ****   uint16_t itpos = 0, itmask = 0 ;
 722              		.loc 1 484 3 view .LVU183
 485:.\stlib\STM32F10x_StdPeriph_Driver\src/stm32f10x_spi.c ****   /* Check the parameters */
 486:.\stlib\STM32F10x_StdPeriph_Driver\src/stm32f10x_spi.c ****   assert_param(IS_SPI_ALL_PERIPH(SPIx));
 723              		.loc 1 486 3 view .LVU184
 487:.\stlib\STM32F10x_StdPeriph_Driver\src/stm32f10x_spi.c ****   assert_param(IS_FUNCTIONAL_STATE(NewState));
 724              		.loc 1 487 3 view .LVU185
 488:.\stlib\STM32F10x_StdPeriph_Driver\src/stm32f10x_spi.c ****   assert_param(IS_SPI_I2S_CONFIG_IT(SPI_I2S_IT));
 725              		.loc 1 488 3 view .LVU186
 489:.\stlib\STM32F10x_StdPeriph_Driver\src/stm32f10x_spi.c **** 
 490:.\stlib\STM32F10x_StdPeriph_Driver\src/stm32f10x_spi.c ****   /* Get the SPI/I2S IT index */
ARM GAS  C:\Users\skey\AppData\Local\Temp\cchabaxk.s 			page 23


 491:.\stlib\STM32F10x_StdPeriph_Driver\src/stm32f10x_spi.c ****   itpos = SPI_I2S_IT >> 4;
 726              		.loc 1 491 3 view .LVU187
 492:.\stlib\STM32F10x_StdPeriph_Driver\src/stm32f10x_spi.c **** 
 493:.\stlib\STM32F10x_StdPeriph_Driver\src/stm32f10x_spi.c ****   /* Set the IT mask */
 494:.\stlib\STM32F10x_StdPeriph_Driver\src/stm32f10x_spi.c ****   itmask = (uint16_t)1 << (uint16_t)itpos;
 727              		.loc 1 494 3 view .LVU188
 728              	@ .\stlib\STM32F10x_StdPeriph_Driver\src\stm32f10x_spi.c:494:   itmask = (uint16_t)1 << (uint16_t)i
 729              		.loc 1 494 27 is_stmt 0 view .LVU189
 730 0192 0B09     		lsrs	r3, r1, #4	@ tmp123, tmp137,
 731              	@ .\stlib\STM32F10x_StdPeriph_Driver\src\stm32f10x_spi.c:494:   itmask = (uint16_t)1 << (uint16_t)i
 732              		.loc 1 494 24 view .LVU190
 733 0194 0121     		movs	r1, #1	@ tmp125,
 734              	.LVL39:
 735              		.loc 1 494 24 view .LVU191
 736 0196 9940     		lsls	r1, r1, r3	@ tmp124, tmp125, tmp123
 737              	@ .\stlib\STM32F10x_StdPeriph_Driver\src\stm32f10x_spi.c:499:     SPIx->CR2 |= itmask;
 495:.\stlib\STM32F10x_StdPeriph_Driver\src/stm32f10x_spi.c **** 
 496:.\stlib\STM32F10x_StdPeriph_Driver\src/stm32f10x_spi.c ****   if (NewState != DISABLE)
 497:.\stlib\STM32F10x_StdPeriph_Driver\src/stm32f10x_spi.c ****   {
 498:.\stlib\STM32F10x_StdPeriph_Driver\src/stm32f10x_spi.c ****     /* Enable the selected SPI/I2S interrupt */
 499:.\stlib\STM32F10x_StdPeriph_Driver\src/stm32f10x_spi.c ****     SPIx->CR2 |= itmask;
 738              		.loc 1 499 15 view .LVU192
 739 0198 8388     		ldrh	r3, [r0, #4]	@,
 740              	@ .\stlib\STM32F10x_StdPeriph_Driver\src\stm32f10x_spi.c:494:   itmask = (uint16_t)1 << (uint16_t)i
 494:.\stlib\STM32F10x_StdPeriph_Driver\src/stm32f10x_spi.c **** 
 741              		.loc 1 494 10 view .LVU193
 742 019a 89B2     		uxth	r1, r1	@ itmask, tmp124
 743              	.LVL40:
 496:.\stlib\STM32F10x_StdPeriph_Driver\src/stm32f10x_spi.c ****   {
 744              		.loc 1 496 3 is_stmt 1 view .LVU194
 745              	@ .\stlib\STM32F10x_StdPeriph_Driver\src\stm32f10x_spi.c:499:     SPIx->CR2 |= itmask;
 746              		.loc 1 499 15 is_stmt 0 view .LVU195
 747 019c 9BB2     		uxth	r3, r3	@ _4, SPIx_14(D)->CR2
 748              	@ .\stlib\STM32F10x_StdPeriph_Driver\src\stm32f10x_spi.c:496:   if (NewState != DISABLE)
 496:.\stlib\STM32F10x_StdPeriph_Driver\src/stm32f10x_spi.c ****   {
 749              		.loc 1 496 6 view .LVU196
 750 019e 12B1     		cbz	r2, .L31	@ tmp138,
 751              		.loc 1 499 5 is_stmt 1 view .LVU197
 752              	@ .\stlib\STM32F10x_StdPeriph_Driver\src\stm32f10x_spi.c:499:     SPIx->CR2 |= itmask;
 753              		.loc 1 499 15 is_stmt 0 view .LVU198
 754 01a0 1943     		orrs	r1, r1, r3	@, _5, itmask, _4
 755              	.LVL41:
 756              	.L33:
 757              	@ .\stlib\STM32F10x_StdPeriph_Driver\src\stm32f10x_spi.c:504:     SPIx->CR2 &= (uint16_t)~itmask;
 500:.\stlib\STM32F10x_StdPeriph_Driver\src/stm32f10x_spi.c ****   }
 501:.\stlib\STM32F10x_StdPeriph_Driver\src/stm32f10x_spi.c ****   else
 502:.\stlib\STM32F10x_StdPeriph_Driver\src/stm32f10x_spi.c ****   {
 503:.\stlib\STM32F10x_StdPeriph_Driver\src/stm32f10x_spi.c ****     /* Disable the selected SPI/I2S interrupt */
 504:.\stlib\STM32F10x_StdPeriph_Driver\src/stm32f10x_spi.c ****     SPIx->CR2 &= (uint16_t)~itmask;
 758              		.loc 1 504 15 view .LVU199
 759 01a2 8180     		strh	r1, [r0, #4]	@ movhi	@ _8,
 760              	@ .\stlib\STM32F10x_StdPeriph_Driver\src\stm32f10x_spi.c:506: }
 505:.\stlib\STM32F10x_StdPeriph_Driver\src/stm32f10x_spi.c ****   }
 506:.\stlib\STM32F10x_StdPeriph_Driver\src/stm32f10x_spi.c **** }
 761              		.loc 1 506 1 view .LVU200
 762 01a4 7047     		bx	lr	@
 763              	.LVL42:
ARM GAS  C:\Users\skey\AppData\Local\Temp\cchabaxk.s 			page 24


 764              	.L31:
 504:.\stlib\STM32F10x_StdPeriph_Driver\src/stm32f10x_spi.c ****   }
 765              		.loc 1 504 5 is_stmt 1 view .LVU201
 766              	@ .\stlib\STM32F10x_StdPeriph_Driver\src\stm32f10x_spi.c:504:     SPIx->CR2 &= (uint16_t)~itmask;
 504:.\stlib\STM32F10x_StdPeriph_Driver\src/stm32f10x_spi.c ****   }
 767              		.loc 1 504 15 is_stmt 0 view .LVU202
 768 01a6 23EA0101 		bic	r1, r3, r1	@ _8, _6, itmask
 769              	.LVL43:
 504:.\stlib\STM32F10x_StdPeriph_Driver\src/stm32f10x_spi.c ****   }
 770              		.loc 1 504 15 view .LVU203
 771 01aa FAE7     		b	.L33		@
 772              		.cfi_endproc
 773              	.LFE36:
 774              		.size	SPI_I2S_ITConfig, .-SPI_I2S_ITConfig
 775              		.align	1
 776              		.global	SPI_I2S_DMACmd
 777              		.syntax unified
 778              		.thumb
 779              		.thumb_func
 780              		.fpu softvfp
 781              		.type	SPI_I2S_DMACmd, %function
 782              	SPI_I2S_DMACmd:
 783              	.LVL44:
 784              	.LFB37:
 507:.\stlib\STM32F10x_StdPeriph_Driver\src/stm32f10x_spi.c **** 
 508:.\stlib\STM32F10x_StdPeriph_Driver\src/stm32f10x_spi.c **** /**
 509:.\stlib\STM32F10x_StdPeriph_Driver\src/stm32f10x_spi.c ****   * @brief  Enables or disables the SPIx/I2Sx DMA interface.
 510:.\stlib\STM32F10x_StdPeriph_Driver\src/stm32f10x_spi.c ****   * @param  SPIx: where x can be
 511:.\stlib\STM32F10x_StdPeriph_Driver\src/stm32f10x_spi.c ****   *   - 1, 2 or 3 in SPI mode 
 512:.\stlib\STM32F10x_StdPeriph_Driver\src/stm32f10x_spi.c ****   *   - 2 or 3 in I2S mode
 513:.\stlib\STM32F10x_StdPeriph_Driver\src/stm32f10x_spi.c ****   * @param  SPI_I2S_DMAReq: specifies the SPI/I2S DMA transfer request to be enabled or disabled. 
 514:.\stlib\STM32F10x_StdPeriph_Driver\src/stm32f10x_spi.c ****   *   This parameter can be any combination of the following values:
 515:.\stlib\STM32F10x_StdPeriph_Driver\src/stm32f10x_spi.c ****   *     @arg SPI_I2S_DMAReq_Tx: Tx buffer DMA transfer request
 516:.\stlib\STM32F10x_StdPeriph_Driver\src/stm32f10x_spi.c ****   *     @arg SPI_I2S_DMAReq_Rx: Rx buffer DMA transfer request
 517:.\stlib\STM32F10x_StdPeriph_Driver\src/stm32f10x_spi.c ****   * @param  NewState: new state of the selected SPI/I2S DMA transfer request.
 518:.\stlib\STM32F10x_StdPeriph_Driver\src/stm32f10x_spi.c ****   *   This parameter can be: ENABLE or DISABLE.
 519:.\stlib\STM32F10x_StdPeriph_Driver\src/stm32f10x_spi.c ****   * @retval None
 520:.\stlib\STM32F10x_StdPeriph_Driver\src/stm32f10x_spi.c ****   */
 521:.\stlib\STM32F10x_StdPeriph_Driver\src/stm32f10x_spi.c **** void SPI_I2S_DMACmd(SPI_TypeDef* SPIx, uint16_t SPI_I2S_DMAReq, FunctionalState NewState)
 522:.\stlib\STM32F10x_StdPeriph_Driver\src/stm32f10x_spi.c **** {
 785              		.loc 1 522 1 is_stmt 1 view -0
 786              		.cfi_startproc
 787              		@ args = 0, pretend = 0, frame = 0
 788              		@ frame_needed = 0, uses_anonymous_args = 0
 789              		@ link register save eliminated.
 523:.\stlib\STM32F10x_StdPeriph_Driver\src/stm32f10x_spi.c ****   /* Check the parameters */
 524:.\stlib\STM32F10x_StdPeriph_Driver\src/stm32f10x_spi.c ****   assert_param(IS_SPI_ALL_PERIPH(SPIx));
 790              		.loc 1 524 3 view .LVU205
 525:.\stlib\STM32F10x_StdPeriph_Driver\src/stm32f10x_spi.c ****   assert_param(IS_FUNCTIONAL_STATE(NewState));
 791              		.loc 1 525 3 view .LVU206
 526:.\stlib\STM32F10x_StdPeriph_Driver\src/stm32f10x_spi.c ****   assert_param(IS_SPI_I2S_DMAREQ(SPI_I2S_DMAReq));
 792              		.loc 1 526 3 view .LVU207
 527:.\stlib\STM32F10x_StdPeriph_Driver\src/stm32f10x_spi.c ****   if (NewState != DISABLE)
 793              		.loc 1 527 3 view .LVU208
 794              	@ .\stlib\STM32F10x_StdPeriph_Driver\src\stm32f10x_spi.c:530:     SPIx->CR2 |= SPI_I2S_DMAReq;
 528:.\stlib\STM32F10x_StdPeriph_Driver\src/stm32f10x_spi.c ****   {
 529:.\stlib\STM32F10x_StdPeriph_Driver\src/stm32f10x_spi.c ****     /* Enable the selected SPI/I2S DMA requests */
ARM GAS  C:\Users\skey\AppData\Local\Temp\cchabaxk.s 			page 25


 530:.\stlib\STM32F10x_StdPeriph_Driver\src/stm32f10x_spi.c ****     SPIx->CR2 |= SPI_I2S_DMAReq;
 795              		.loc 1 530 15 is_stmt 0 view .LVU209
 796 01ac 8388     		ldrh	r3, [r0, #4]	@,
 797 01ae 9BB2     		uxth	r3, r3	@ _1, SPIx_9(D)->CR2
 798              	@ .\stlib\STM32F10x_StdPeriph_Driver\src\stm32f10x_spi.c:527:   if (NewState != DISABLE)
 527:.\stlib\STM32F10x_StdPeriph_Driver\src/stm32f10x_spi.c ****   if (NewState != DISABLE)
 799              		.loc 1 527 6 view .LVU210
 800 01b0 12B1     		cbz	r2, .L35	@ tmp130,
 801              		.loc 1 530 5 is_stmt 1 view .LVU211
 802              	@ .\stlib\STM32F10x_StdPeriph_Driver\src\stm32f10x_spi.c:530:     SPIx->CR2 |= SPI_I2S_DMAReq;
 803              		.loc 1 530 15 is_stmt 0 view .LVU212
 804 01b2 1943     		orrs	r1, r1, r3	@, _2, SPI_I2S_DMAReq, _1
 805              	.LVL45:
 806              	.L37:
 807              	@ .\stlib\STM32F10x_StdPeriph_Driver\src\stm32f10x_spi.c:535:     SPIx->CR2 &= (uint16_t)~SPI_I2S_D
 531:.\stlib\STM32F10x_StdPeriph_Driver\src/stm32f10x_spi.c ****   }
 532:.\stlib\STM32F10x_StdPeriph_Driver\src/stm32f10x_spi.c ****   else
 533:.\stlib\STM32F10x_StdPeriph_Driver\src/stm32f10x_spi.c ****   {
 534:.\stlib\STM32F10x_StdPeriph_Driver\src/stm32f10x_spi.c ****     /* Disable the selected SPI/I2S DMA requests */
 535:.\stlib\STM32F10x_StdPeriph_Driver\src/stm32f10x_spi.c ****     SPIx->CR2 &= (uint16_t)~SPI_I2S_DMAReq;
 808              		.loc 1 535 15 view .LVU213
 809 01b4 8180     		strh	r1, [r0, #4]	@ movhi	@ _5,
 810              	@ .\stlib\STM32F10x_StdPeriph_Driver\src\stm32f10x_spi.c:537: }
 536:.\stlib\STM32F10x_StdPeriph_Driver\src/stm32f10x_spi.c ****   }
 537:.\stlib\STM32F10x_StdPeriph_Driver\src/stm32f10x_spi.c **** }
 811              		.loc 1 537 1 view .LVU214
 812 01b6 7047     		bx	lr	@
 813              	.LVL46:
 814              	.L35:
 535:.\stlib\STM32F10x_StdPeriph_Driver\src/stm32f10x_spi.c ****   }
 815              		.loc 1 535 5 is_stmt 1 view .LVU215
 816              	@ .\stlib\STM32F10x_StdPeriph_Driver\src\stm32f10x_spi.c:535:     SPIx->CR2 &= (uint16_t)~SPI_I2S_D
 535:.\stlib\STM32F10x_StdPeriph_Driver\src/stm32f10x_spi.c ****   }
 817              		.loc 1 535 15 is_stmt 0 view .LVU216
 818 01b8 23EA0101 		bic	r1, r3, r1	@ _5, _3, SPI_I2S_DMAReq
 819              	.LVL47:
 535:.\stlib\STM32F10x_StdPeriph_Driver\src/stm32f10x_spi.c ****   }
 820              		.loc 1 535 15 view .LVU217
 821 01bc FAE7     		b	.L37		@
 822              		.cfi_endproc
 823              	.LFE37:
 824              		.size	SPI_I2S_DMACmd, .-SPI_I2S_DMACmd
 825              		.align	1
 826              		.global	SPI_I2S_SendData
 827              		.syntax unified
 828              		.thumb
 829              		.thumb_func
 830              		.fpu softvfp
 831              		.type	SPI_I2S_SendData, %function
 832              	SPI_I2S_SendData:
 833              	.LVL48:
 834              	.LFB38:
 538:.\stlib\STM32F10x_StdPeriph_Driver\src/stm32f10x_spi.c **** 
 539:.\stlib\STM32F10x_StdPeriph_Driver\src/stm32f10x_spi.c **** /**
 540:.\stlib\STM32F10x_StdPeriph_Driver\src/stm32f10x_spi.c ****   * @brief  Transmits a Data through the SPIx/I2Sx peripheral.
 541:.\stlib\STM32F10x_StdPeriph_Driver\src/stm32f10x_spi.c ****   * @param  SPIx: where x can be
 542:.\stlib\STM32F10x_StdPeriph_Driver\src/stm32f10x_spi.c ****   *   - 1, 2 or 3 in SPI mode 
ARM GAS  C:\Users\skey\AppData\Local\Temp\cchabaxk.s 			page 26


 543:.\stlib\STM32F10x_StdPeriph_Driver\src/stm32f10x_spi.c ****   *   - 2 or 3 in I2S mode
 544:.\stlib\STM32F10x_StdPeriph_Driver\src/stm32f10x_spi.c ****   * @param  Data : Data to be transmitted.
 545:.\stlib\STM32F10x_StdPeriph_Driver\src/stm32f10x_spi.c ****   * @retval None
 546:.\stlib\STM32F10x_StdPeriph_Driver\src/stm32f10x_spi.c ****   */
 547:.\stlib\STM32F10x_StdPeriph_Driver\src/stm32f10x_spi.c **** void SPI_I2S_SendData(SPI_TypeDef* SPIx, uint16_t Data)
 548:.\stlib\STM32F10x_StdPeriph_Driver\src/stm32f10x_spi.c **** {
 835              		.loc 1 548 1 is_stmt 1 view -0
 836              		.cfi_startproc
 837              		@ args = 0, pretend = 0, frame = 0
 838              		@ frame_needed = 0, uses_anonymous_args = 0
 839              		@ link register save eliminated.
 549:.\stlib\STM32F10x_StdPeriph_Driver\src/stm32f10x_spi.c ****   /* Check the parameters */
 550:.\stlib\STM32F10x_StdPeriph_Driver\src/stm32f10x_spi.c ****   assert_param(IS_SPI_ALL_PERIPH(SPIx));
 840              		.loc 1 550 3 view .LVU219
 551:.\stlib\STM32F10x_StdPeriph_Driver\src/stm32f10x_spi.c ****   
 552:.\stlib\STM32F10x_StdPeriph_Driver\src/stm32f10x_spi.c ****   /* Write in the DR register the data to be sent */
 553:.\stlib\STM32F10x_StdPeriph_Driver\src/stm32f10x_spi.c ****   SPIx->DR = Data;
 841              		.loc 1 553 3 view .LVU220
 842              	@ .\stlib\STM32F10x_StdPeriph_Driver\src\stm32f10x_spi.c:553:   SPIx->DR = Data;
 843              		.loc 1 553 12 is_stmt 0 view .LVU221
 844 01be 8181     		strh	r1, [r0, #12]	@ movhi	@ Data, SPIx_2(D)->DR
 845              	@ .\stlib\STM32F10x_StdPeriph_Driver\src\stm32f10x_spi.c:554: }
 554:.\stlib\STM32F10x_StdPeriph_Driver\src/stm32f10x_spi.c **** }
 846              		.loc 1 554 1 view .LVU222
 847 01c0 7047     		bx	lr	@
 848              		.cfi_endproc
 849              	.LFE38:
 850              		.size	SPI_I2S_SendData, .-SPI_I2S_SendData
 851              		.align	1
 852              		.global	SPI_I2S_ReceiveData
 853              		.syntax unified
 854              		.thumb
 855              		.thumb_func
 856              		.fpu softvfp
 857              		.type	SPI_I2S_ReceiveData, %function
 858              	SPI_I2S_ReceiveData:
 859              	.LVL49:
 860              	.LFB39:
 555:.\stlib\STM32F10x_StdPeriph_Driver\src/stm32f10x_spi.c **** 
 556:.\stlib\STM32F10x_StdPeriph_Driver\src/stm32f10x_spi.c **** /**
 557:.\stlib\STM32F10x_StdPeriph_Driver\src/stm32f10x_spi.c ****   * @brief  Returns the most recent received data by the SPIx/I2Sx peripheral. 
 558:.\stlib\STM32F10x_StdPeriph_Driver\src/stm32f10x_spi.c ****   * @param  SPIx: where x can be
 559:.\stlib\STM32F10x_StdPeriph_Driver\src/stm32f10x_spi.c ****   *   - 1, 2 or 3 in SPI mode 
 560:.\stlib\STM32F10x_StdPeriph_Driver\src/stm32f10x_spi.c ****   *   - 2 or 3 in I2S mode
 561:.\stlib\STM32F10x_StdPeriph_Driver\src/stm32f10x_spi.c ****   * @retval The value of the received data.
 562:.\stlib\STM32F10x_StdPeriph_Driver\src/stm32f10x_spi.c ****   */
 563:.\stlib\STM32F10x_StdPeriph_Driver\src/stm32f10x_spi.c **** uint16_t SPI_I2S_ReceiveData(SPI_TypeDef* SPIx)
 564:.\stlib\STM32F10x_StdPeriph_Driver\src/stm32f10x_spi.c **** {
 861              		.loc 1 564 1 is_stmt 1 view -0
 862              		.cfi_startproc
 863              		@ args = 0, pretend = 0, frame = 0
 864              		@ frame_needed = 0, uses_anonymous_args = 0
 865              		@ link register save eliminated.
 565:.\stlib\STM32F10x_StdPeriph_Driver\src/stm32f10x_spi.c ****   /* Check the parameters */
 566:.\stlib\STM32F10x_StdPeriph_Driver\src/stm32f10x_spi.c ****   assert_param(IS_SPI_ALL_PERIPH(SPIx));
 866              		.loc 1 566 3 view .LVU224
 567:.\stlib\STM32F10x_StdPeriph_Driver\src/stm32f10x_spi.c ****   
ARM GAS  C:\Users\skey\AppData\Local\Temp\cchabaxk.s 			page 27


 568:.\stlib\STM32F10x_StdPeriph_Driver\src/stm32f10x_spi.c ****   /* Return the data in the DR register */
 569:.\stlib\STM32F10x_StdPeriph_Driver\src/stm32f10x_spi.c ****   return SPIx->DR;
 867              		.loc 1 569 3 view .LVU225
 868              	@ .\stlib\STM32F10x_StdPeriph_Driver\src\stm32f10x_spi.c:569:   return SPIx->DR;
 869              		.loc 1 569 14 is_stmt 0 view .LVU226
 870 01c2 8089     		ldrh	r0, [r0, #12]	@, SPIx_2(D)->DR
 871              	.LVL50:
 872              	@ .\stlib\STM32F10x_StdPeriph_Driver\src\stm32f10x_spi.c:570: }
 570:.\stlib\STM32F10x_StdPeriph_Driver\src/stm32f10x_spi.c **** }
 873              		.loc 1 570 1 view .LVU227
 874 01c4 80B2     		uxth	r0, r0	@, SPIx_2(D)->DR
 875 01c6 7047     		bx	lr	@
 876              		.cfi_endproc
 877              	.LFE39:
 878              		.size	SPI_I2S_ReceiveData, .-SPI_I2S_ReceiveData
 879              		.align	1
 880              		.global	SPI_NSSInternalSoftwareConfig
 881              		.syntax unified
 882              		.thumb
 883              		.thumb_func
 884              		.fpu softvfp
 885              		.type	SPI_NSSInternalSoftwareConfig, %function
 886              	SPI_NSSInternalSoftwareConfig:
 887              	.LVL51:
 888              	.LFB40:
 571:.\stlib\STM32F10x_StdPeriph_Driver\src/stm32f10x_spi.c **** 
 572:.\stlib\STM32F10x_StdPeriph_Driver\src/stm32f10x_spi.c **** /**
 573:.\stlib\STM32F10x_StdPeriph_Driver\src/stm32f10x_spi.c ****   * @brief  Configures internally by software the NSS pin for the selected SPI.
 574:.\stlib\STM32F10x_StdPeriph_Driver\src/stm32f10x_spi.c ****   * @param  SPIx: where x can be 1, 2 or 3 to select the SPI peripheral.
 575:.\stlib\STM32F10x_StdPeriph_Driver\src/stm32f10x_spi.c ****   * @param  SPI_NSSInternalSoft: specifies the SPI NSS internal state.
 576:.\stlib\STM32F10x_StdPeriph_Driver\src/stm32f10x_spi.c ****   *   This parameter can be one of the following values:
 577:.\stlib\STM32F10x_StdPeriph_Driver\src/stm32f10x_spi.c ****   *     @arg SPI_NSSInternalSoft_Set: Set NSS pin internally
 578:.\stlib\STM32F10x_StdPeriph_Driver\src/stm32f10x_spi.c ****   *     @arg SPI_NSSInternalSoft_Reset: Reset NSS pin internally
 579:.\stlib\STM32F10x_StdPeriph_Driver\src/stm32f10x_spi.c ****   * @retval None
 580:.\stlib\STM32F10x_StdPeriph_Driver\src/stm32f10x_spi.c ****   */
 581:.\stlib\STM32F10x_StdPeriph_Driver\src/stm32f10x_spi.c **** void SPI_NSSInternalSoftwareConfig(SPI_TypeDef* SPIx, uint16_t SPI_NSSInternalSoft)
 582:.\stlib\STM32F10x_StdPeriph_Driver\src/stm32f10x_spi.c **** {
 889              		.loc 1 582 1 is_stmt 1 view -0
 890              		.cfi_startproc
 891              		@ args = 0, pretend = 0, frame = 0
 892              		@ frame_needed = 0, uses_anonymous_args = 0
 893              		@ link register save eliminated.
 583:.\stlib\STM32F10x_StdPeriph_Driver\src/stm32f10x_spi.c ****   /* Check the parameters */
 584:.\stlib\STM32F10x_StdPeriph_Driver\src/stm32f10x_spi.c ****   assert_param(IS_SPI_ALL_PERIPH(SPIx));
 894              		.loc 1 584 3 view .LVU229
 585:.\stlib\STM32F10x_StdPeriph_Driver\src/stm32f10x_spi.c ****   assert_param(IS_SPI_NSS_INTERNAL(SPI_NSSInternalSoft));
 895              		.loc 1 585 3 view .LVU230
 586:.\stlib\STM32F10x_StdPeriph_Driver\src/stm32f10x_spi.c ****   if (SPI_NSSInternalSoft != SPI_NSSInternalSoft_Reset)
 896              		.loc 1 586 3 view .LVU231
 897              	@ .\stlib\STM32F10x_StdPeriph_Driver\src\stm32f10x_spi.c:586:   if (SPI_NSSInternalSoft != SPI_NSSI
 898              		.loc 1 586 6 is_stmt 0 view .LVU232
 899 01c8 4FF6FF63 		movw	r3, #65279	@ tmp116,
 900 01cc 9942     		cmp	r1, r3	@ tmp124, tmp116
 901              	@ .\stlib\STM32F10x_StdPeriph_Driver\src\stm32f10x_spi.c:589:     SPIx->CR1 |= SPI_NSSInternalSoft_
 587:.\stlib\STM32F10x_StdPeriph_Driver\src/stm32f10x_spi.c ****   {
 588:.\stlib\STM32F10x_StdPeriph_Driver\src/stm32f10x_spi.c ****     /* Set NSS pin internally by software */
 589:.\stlib\STM32F10x_StdPeriph_Driver\src/stm32f10x_spi.c ****     SPIx->CR1 |= SPI_NSSInternalSoft_Set;
ARM GAS  C:\Users\skey\AppData\Local\Temp\cchabaxk.s 			page 28


 902              		.loc 1 589 15 view .LVU233
 903 01ce 0388     		ldrh	r3, [r0]	@,* SPIx
 904              		.loc 1 589 5 is_stmt 1 view .LVU234
 905              	@ .\stlib\STM32F10x_StdPeriph_Driver\src\stm32f10x_spi.c:594:     SPIx->CR1 &= SPI_NSSInternalSoft_
 590:.\stlib\STM32F10x_StdPeriph_Driver\src/stm32f10x_spi.c ****   }
 591:.\stlib\STM32F10x_StdPeriph_Driver\src/stm32f10x_spi.c ****   else
 592:.\stlib\STM32F10x_StdPeriph_Driver\src/stm32f10x_spi.c ****   {
 593:.\stlib\STM32F10x_StdPeriph_Driver\src/stm32f10x_spi.c ****     /* Reset NSS pin internally by software */
 594:.\stlib\STM32F10x_StdPeriph_Driver\src/stm32f10x_spi.c ****     SPIx->CR1 &= SPI_NSSInternalSoft_Reset;
 906              		.loc 1 594 15 is_stmt 0 view .LVU235
 907 01d0 0BBF     		itete	eq
 908 01d2 23F48073 		biceq	r3, r3, #256	@ _4, SPIx_8(D)->CR1,
 909              	@ .\stlib\STM32F10x_StdPeriph_Driver\src\stm32f10x_spi.c:589:     SPIx->CR1 |= SPI_NSSInternalSoft_
 589:.\stlib\STM32F10x_StdPeriph_Driver\src/stm32f10x_spi.c ****   }
 910              		.loc 1 589 15 view .LVU236
 911 01d6 9BB2     		uxthne	r3, r3	@ _1, SPIx_8(D)->CR1
 912              	@ .\stlib\STM32F10x_StdPeriph_Driver\src\stm32f10x_spi.c:594:     SPIx->CR1 &= SPI_NSSInternalSoft_
 913              		.loc 1 594 15 view .LVU237
 914 01d8 1B04     		lsleq	r3, r3, #16	@ _4, _4,
 915              	@ .\stlib\STM32F10x_StdPeriph_Driver\src\stm32f10x_spi.c:589:     SPIx->CR1 |= SPI_NSSInternalSoft_
 589:.\stlib\STM32F10x_StdPeriph_Driver\src/stm32f10x_spi.c ****   }
 916              		.loc 1 589 15 view .LVU238
 917 01da 43F48073 		orrne	r3, r3, #256	@ _2, _1,
 918              		.loc 1 594 5 is_stmt 1 view .LVU239
 919              	@ .\stlib\STM32F10x_StdPeriph_Driver\src\stm32f10x_spi.c:594:     SPIx->CR1 &= SPI_NSSInternalSoft_
 920              		.loc 1 594 15 is_stmt 0 view .LVU240
 921 01de 08BF     		it	eq
 922 01e0 1B0C     		lsreq	r3, r3, #16	@ _4, _4,
 923 01e2 0380     		strh	r3, [r0]	@ movhi	@ _4,* SPIx
 924              	@ .\stlib\STM32F10x_StdPeriph_Driver\src\stm32f10x_spi.c:596: }
 595:.\stlib\STM32F10x_StdPeriph_Driver\src/stm32f10x_spi.c ****   }
 596:.\stlib\STM32F10x_StdPeriph_Driver\src/stm32f10x_spi.c **** }
 925              		.loc 1 596 1 view .LVU241
 926 01e4 7047     		bx	lr	@
 927              		.cfi_endproc
 928              	.LFE40:
 929              		.size	SPI_NSSInternalSoftwareConfig, .-SPI_NSSInternalSoftwareConfig
 930              		.align	1
 931              		.global	SPI_SSOutputCmd
 932              		.syntax unified
 933              		.thumb
 934              		.thumb_func
 935              		.fpu softvfp
 936              		.type	SPI_SSOutputCmd, %function
 937              	SPI_SSOutputCmd:
 938              	.LVL52:
 939              	.LFB41:
 597:.\stlib\STM32F10x_StdPeriph_Driver\src/stm32f10x_spi.c **** 
 598:.\stlib\STM32F10x_StdPeriph_Driver\src/stm32f10x_spi.c **** /**
 599:.\stlib\STM32F10x_StdPeriph_Driver\src/stm32f10x_spi.c ****   * @brief  Enables or disables the SS output for the selected SPI.
 600:.\stlib\STM32F10x_StdPeriph_Driver\src/stm32f10x_spi.c ****   * @param  SPIx: where x can be 1, 2 or 3 to select the SPI peripheral.
 601:.\stlib\STM32F10x_StdPeriph_Driver\src/stm32f10x_spi.c ****   * @param  NewState: new state of the SPIx SS output. 
 602:.\stlib\STM32F10x_StdPeriph_Driver\src/stm32f10x_spi.c ****   *   This parameter can be: ENABLE or DISABLE.
 603:.\stlib\STM32F10x_StdPeriph_Driver\src/stm32f10x_spi.c ****   * @retval None
 604:.\stlib\STM32F10x_StdPeriph_Driver\src/stm32f10x_spi.c ****   */
 605:.\stlib\STM32F10x_StdPeriph_Driver\src/stm32f10x_spi.c **** void SPI_SSOutputCmd(SPI_TypeDef* SPIx, FunctionalState NewState)
 606:.\stlib\STM32F10x_StdPeriph_Driver\src/stm32f10x_spi.c **** {
ARM GAS  C:\Users\skey\AppData\Local\Temp\cchabaxk.s 			page 29


 940              		.loc 1 606 1 is_stmt 1 view -0
 941              		.cfi_startproc
 942              		@ args = 0, pretend = 0, frame = 0
 943              		@ frame_needed = 0, uses_anonymous_args = 0
 944              		@ link register save eliminated.
 607:.\stlib\STM32F10x_StdPeriph_Driver\src/stm32f10x_spi.c ****   /* Check the parameters */
 608:.\stlib\STM32F10x_StdPeriph_Driver\src/stm32f10x_spi.c ****   assert_param(IS_SPI_ALL_PERIPH(SPIx));
 945              		.loc 1 608 3 view .LVU243
 609:.\stlib\STM32F10x_StdPeriph_Driver\src/stm32f10x_spi.c ****   assert_param(IS_FUNCTIONAL_STATE(NewState));
 946              		.loc 1 609 3 view .LVU244
 610:.\stlib\STM32F10x_StdPeriph_Driver\src/stm32f10x_spi.c ****   if (NewState != DISABLE)
 947              		.loc 1 610 3 view .LVU245
 948              	@ .\stlib\STM32F10x_StdPeriph_Driver\src\stm32f10x_spi.c:613:     SPIx->CR2 |= CR2_SSOE_Set;
 611:.\stlib\STM32F10x_StdPeriph_Driver\src/stm32f10x_spi.c ****   {
 612:.\stlib\STM32F10x_StdPeriph_Driver\src/stm32f10x_spi.c ****     /* Enable the selected SPI SS output */
 613:.\stlib\STM32F10x_StdPeriph_Driver\src/stm32f10x_spi.c ****     SPIx->CR2 |= CR2_SSOE_Set;
 949              		.loc 1 613 15 is_stmt 0 view .LVU246
 950 01e6 8388     		ldrh	r3, [r0, #4]	@,
 951              	@ .\stlib\STM32F10x_StdPeriph_Driver\src\stm32f10x_spi.c:610:   if (NewState != DISABLE)
 610:.\stlib\STM32F10x_StdPeriph_Driver\src/stm32f10x_spi.c ****   if (NewState != DISABLE)
 952              		.loc 1 610 6 view .LVU247
 953 01e8 21B1     		cbz	r1, .L45	@ tmp125,
 954              		.loc 1 613 5 is_stmt 1 view .LVU248
 955              	@ .\stlib\STM32F10x_StdPeriph_Driver\src\stm32f10x_spi.c:613:     SPIx->CR2 |= CR2_SSOE_Set;
 956              		.loc 1 613 15 is_stmt 0 view .LVU249
 957 01ea 9BB2     		uxth	r3, r3	@ _1, SPIx_8(D)->CR2
 958 01ec 43F00403 		orr	r3, r3, #4	@ _2, _1,
 959              	.L47:
 960              	@ .\stlib\STM32F10x_StdPeriph_Driver\src\stm32f10x_spi.c:618:     SPIx->CR2 &= CR2_SSOE_Reset;
 614:.\stlib\STM32F10x_StdPeriph_Driver\src/stm32f10x_spi.c ****   }
 615:.\stlib\STM32F10x_StdPeriph_Driver\src/stm32f10x_spi.c ****   else
 616:.\stlib\STM32F10x_StdPeriph_Driver\src/stm32f10x_spi.c ****   {
 617:.\stlib\STM32F10x_StdPeriph_Driver\src/stm32f10x_spi.c ****     /* Disable the selected SPI SS output */
 618:.\stlib\STM32F10x_StdPeriph_Driver\src/stm32f10x_spi.c ****     SPIx->CR2 &= CR2_SSOE_Reset;
 961              		.loc 1 618 15 view .LVU250
 962 01f0 8380     		strh	r3, [r0, #4]	@ movhi	@ _4,
 963              	@ .\stlib\STM32F10x_StdPeriph_Driver\src\stm32f10x_spi.c:620: }
 619:.\stlib\STM32F10x_StdPeriph_Driver\src/stm32f10x_spi.c ****   }
 620:.\stlib\STM32F10x_StdPeriph_Driver\src/stm32f10x_spi.c **** }
 964              		.loc 1 620 1 view .LVU251
 965 01f2 7047     		bx	lr	@
 966              	.L45:
 618:.\stlib\STM32F10x_StdPeriph_Driver\src/stm32f10x_spi.c ****   }
 967              		.loc 1 618 5 is_stmt 1 view .LVU252
 968              	@ .\stlib\STM32F10x_StdPeriph_Driver\src\stm32f10x_spi.c:618:     SPIx->CR2 &= CR2_SSOE_Reset;
 618:.\stlib\STM32F10x_StdPeriph_Driver\src/stm32f10x_spi.c ****   }
 969              		.loc 1 618 15 is_stmt 0 view .LVU253
 970 01f4 23F00403 		bic	r3, r3, #4	@ _4, SPIx_8(D)->CR2,
 971 01f8 1B04     		lsls	r3, r3, #16	@ _4, _4,
 972 01fa 1B0C     		lsrs	r3, r3, #16	@ _4, _4,
 973 01fc F8E7     		b	.L47		@
 974              		.cfi_endproc
 975              	.LFE41:
 976              		.size	SPI_SSOutputCmd, .-SPI_SSOutputCmd
 977              		.align	1
 978              		.global	SPI_DataSizeConfig
 979              		.syntax unified
ARM GAS  C:\Users\skey\AppData\Local\Temp\cchabaxk.s 			page 30


 980              		.thumb
 981              		.thumb_func
 982              		.fpu softvfp
 983              		.type	SPI_DataSizeConfig, %function
 984              	SPI_DataSizeConfig:
 985              	.LVL53:
 986              	.LFB42:
 621:.\stlib\STM32F10x_StdPeriph_Driver\src/stm32f10x_spi.c **** 
 622:.\stlib\STM32F10x_StdPeriph_Driver\src/stm32f10x_spi.c **** /**
 623:.\stlib\STM32F10x_StdPeriph_Driver\src/stm32f10x_spi.c ****   * @brief  Configures the data size for the selected SPI.
 624:.\stlib\STM32F10x_StdPeriph_Driver\src/stm32f10x_spi.c ****   * @param  SPIx: where x can be 1, 2 or 3 to select the SPI peripheral.
 625:.\stlib\STM32F10x_StdPeriph_Driver\src/stm32f10x_spi.c ****   * @param  SPI_DataSize: specifies the SPI data size.
 626:.\stlib\STM32F10x_StdPeriph_Driver\src/stm32f10x_spi.c ****   *   This parameter can be one of the following values:
 627:.\stlib\STM32F10x_StdPeriph_Driver\src/stm32f10x_spi.c ****   *     @arg SPI_DataSize_16b: Set data frame format to 16bit
 628:.\stlib\STM32F10x_StdPeriph_Driver\src/stm32f10x_spi.c ****   *     @arg SPI_DataSize_8b: Set data frame format to 8bit
 629:.\stlib\STM32F10x_StdPeriph_Driver\src/stm32f10x_spi.c ****   * @retval None
 630:.\stlib\STM32F10x_StdPeriph_Driver\src/stm32f10x_spi.c ****   */
 631:.\stlib\STM32F10x_StdPeriph_Driver\src/stm32f10x_spi.c **** void SPI_DataSizeConfig(SPI_TypeDef* SPIx, uint16_t SPI_DataSize)
 632:.\stlib\STM32F10x_StdPeriph_Driver\src/stm32f10x_spi.c **** {
 987              		.loc 1 632 1 is_stmt 1 view -0
 988              		.cfi_startproc
 989              		@ args = 0, pretend = 0, frame = 0
 990              		@ frame_needed = 0, uses_anonymous_args = 0
 991              		@ link register save eliminated.
 633:.\stlib\STM32F10x_StdPeriph_Driver\src/stm32f10x_spi.c ****   /* Check the parameters */
 634:.\stlib\STM32F10x_StdPeriph_Driver\src/stm32f10x_spi.c ****   assert_param(IS_SPI_ALL_PERIPH(SPIx));
 992              		.loc 1 634 3 view .LVU255
 635:.\stlib\STM32F10x_StdPeriph_Driver\src/stm32f10x_spi.c ****   assert_param(IS_SPI_DATASIZE(SPI_DataSize));
 993              		.loc 1 635 3 view .LVU256
 636:.\stlib\STM32F10x_StdPeriph_Driver\src/stm32f10x_spi.c ****   /* Clear DFF bit */
 637:.\stlib\STM32F10x_StdPeriph_Driver\src/stm32f10x_spi.c ****   SPIx->CR1 &= (uint16_t)~SPI_DataSize_16b;
 994              		.loc 1 637 3 view .LVU257
 995              	@ .\stlib\STM32F10x_StdPeriph_Driver\src\stm32f10x_spi.c:637:   SPIx->CR1 &= (uint16_t)~SPI_DataSiz
 996              		.loc 1 637 13 is_stmt 0 view .LVU258
 997 01fe 0388     		ldrh	r3, [r0]	@, SPIx_6(D)->CR1
 998 0200 23F40063 		bic	r3, r3, #2048	@ _2, SPIx_6(D)->CR1,
 999 0204 1B04     		lsls	r3, r3, #16	@ _2, _2,
 1000 0206 1B0C     		lsrs	r3, r3, #16	@ _2, _2,
 1001 0208 0380     		strh	r3, [r0]	@ movhi	@ _2, SPIx_6(D)->CR1
 638:.\stlib\STM32F10x_StdPeriph_Driver\src/stm32f10x_spi.c ****   /* Set new DFF bit value */
 639:.\stlib\STM32F10x_StdPeriph_Driver\src/stm32f10x_spi.c ****   SPIx->CR1 |= SPI_DataSize;
 1002              		.loc 1 639 3 is_stmt 1 view .LVU259
 1003              	@ .\stlib\STM32F10x_StdPeriph_Driver\src\stm32f10x_spi.c:639:   SPIx->CR1 |= SPI_DataSize;
 1004              		.loc 1 639 13 is_stmt 0 view .LVU260
 1005 020a 0388     		ldrh	r3, [r0]	@, SPIx_6(D)->CR1
 1006 020c 9BB2     		uxth	r3, r3	@ _3, SPIx_6(D)->CR1
 1007 020e 0B43     		orrs	r3, r3, r1	@, _4, _3, tmp123
 1008 0210 0380     		strh	r3, [r0]	@ movhi	@ _4, SPIx_6(D)->CR1
 1009              	@ .\stlib\STM32F10x_StdPeriph_Driver\src\stm32f10x_spi.c:640: }
 640:.\stlib\STM32F10x_StdPeriph_Driver\src/stm32f10x_spi.c **** }
 1010              		.loc 1 640 1 view .LVU261
 1011 0212 7047     		bx	lr	@
 1012              		.cfi_endproc
 1013              	.LFE42:
 1014              		.size	SPI_DataSizeConfig, .-SPI_DataSizeConfig
 1015              		.align	1
 1016              		.global	SPI_TransmitCRC
ARM GAS  C:\Users\skey\AppData\Local\Temp\cchabaxk.s 			page 31


 1017              		.syntax unified
 1018              		.thumb
 1019              		.thumb_func
 1020              		.fpu softvfp
 1021              		.type	SPI_TransmitCRC, %function
 1022              	SPI_TransmitCRC:
 1023              	.LVL54:
 1024              	.LFB43:
 641:.\stlib\STM32F10x_StdPeriph_Driver\src/stm32f10x_spi.c **** 
 642:.\stlib\STM32F10x_StdPeriph_Driver\src/stm32f10x_spi.c **** /**
 643:.\stlib\STM32F10x_StdPeriph_Driver\src/stm32f10x_spi.c ****   * @brief  Transmit the SPIx CRC value.
 644:.\stlib\STM32F10x_StdPeriph_Driver\src/stm32f10x_spi.c ****   * @param  SPIx: where x can be 1, 2 or 3 to select the SPI peripheral.
 645:.\stlib\STM32F10x_StdPeriph_Driver\src/stm32f10x_spi.c ****   * @retval None
 646:.\stlib\STM32F10x_StdPeriph_Driver\src/stm32f10x_spi.c ****   */
 647:.\stlib\STM32F10x_StdPeriph_Driver\src/stm32f10x_spi.c **** void SPI_TransmitCRC(SPI_TypeDef* SPIx)
 648:.\stlib\STM32F10x_StdPeriph_Driver\src/stm32f10x_spi.c **** {
 1025              		.loc 1 648 1 is_stmt 1 view -0
 1026              		.cfi_startproc
 1027              		@ args = 0, pretend = 0, frame = 0
 1028              		@ frame_needed = 0, uses_anonymous_args = 0
 1029              		@ link register save eliminated.
 649:.\stlib\STM32F10x_StdPeriph_Driver\src/stm32f10x_spi.c ****   /* Check the parameters */
 650:.\stlib\STM32F10x_StdPeriph_Driver\src/stm32f10x_spi.c ****   assert_param(IS_SPI_ALL_PERIPH(SPIx));
 1030              		.loc 1 650 3 view .LVU263
 651:.\stlib\STM32F10x_StdPeriph_Driver\src/stm32f10x_spi.c ****   
 652:.\stlib\STM32F10x_StdPeriph_Driver\src/stm32f10x_spi.c ****   /* Enable the selected SPI CRC transmission */
 653:.\stlib\STM32F10x_StdPeriph_Driver\src/stm32f10x_spi.c ****   SPIx->CR1 |= CR1_CRCNext_Set;
 1031              		.loc 1 653 3 view .LVU264
 1032              	@ .\stlib\STM32F10x_StdPeriph_Driver\src\stm32f10x_spi.c:653:   SPIx->CR1 |= CR1_CRCNext_Set;
 1033              		.loc 1 653 13 is_stmt 0 view .LVU265
 1034 0214 0388     		ldrh	r3, [r0]	@, SPIx_4(D)->CR1
 1035 0216 9BB2     		uxth	r3, r3	@ _1, SPIx_4(D)->CR1
 1036 0218 43F48053 		orr	r3, r3, #4096	@ _2, _1,
 1037 021c 0380     		strh	r3, [r0]	@ movhi	@ _2, SPIx_4(D)->CR1
 1038              	@ .\stlib\STM32F10x_StdPeriph_Driver\src\stm32f10x_spi.c:654: }
 654:.\stlib\STM32F10x_StdPeriph_Driver\src/stm32f10x_spi.c **** }
 1039              		.loc 1 654 1 view .LVU266
 1040 021e 7047     		bx	lr	@
 1041              		.cfi_endproc
 1042              	.LFE43:
 1043              		.size	SPI_TransmitCRC, .-SPI_TransmitCRC
 1044              		.align	1
 1045              		.global	SPI_CalculateCRC
 1046              		.syntax unified
 1047              		.thumb
 1048              		.thumb_func
 1049              		.fpu softvfp
 1050              		.type	SPI_CalculateCRC, %function
 1051              	SPI_CalculateCRC:
 1052              	.LVL55:
 1053              	.LFB44:
 655:.\stlib\STM32F10x_StdPeriph_Driver\src/stm32f10x_spi.c **** 
 656:.\stlib\STM32F10x_StdPeriph_Driver\src/stm32f10x_spi.c **** /**
 657:.\stlib\STM32F10x_StdPeriph_Driver\src/stm32f10x_spi.c ****   * @brief  Enables or disables the CRC value calculation of the transferred bytes.
 658:.\stlib\STM32F10x_StdPeriph_Driver\src/stm32f10x_spi.c ****   * @param  SPIx: where x can be 1, 2 or 3 to select the SPI peripheral.
 659:.\stlib\STM32F10x_StdPeriph_Driver\src/stm32f10x_spi.c ****   * @param  NewState: new state of the SPIx CRC value calculation.
 660:.\stlib\STM32F10x_StdPeriph_Driver\src/stm32f10x_spi.c ****   *   This parameter can be: ENABLE or DISABLE.
ARM GAS  C:\Users\skey\AppData\Local\Temp\cchabaxk.s 			page 32


 661:.\stlib\STM32F10x_StdPeriph_Driver\src/stm32f10x_spi.c ****   * @retval None
 662:.\stlib\STM32F10x_StdPeriph_Driver\src/stm32f10x_spi.c ****   */
 663:.\stlib\STM32F10x_StdPeriph_Driver\src/stm32f10x_spi.c **** void SPI_CalculateCRC(SPI_TypeDef* SPIx, FunctionalState NewState)
 664:.\stlib\STM32F10x_StdPeriph_Driver\src/stm32f10x_spi.c **** {
 1054              		.loc 1 664 1 is_stmt 1 view -0
 1055              		.cfi_startproc
 1056              		@ args = 0, pretend = 0, frame = 0
 1057              		@ frame_needed = 0, uses_anonymous_args = 0
 1058              		@ link register save eliminated.
 665:.\stlib\STM32F10x_StdPeriph_Driver\src/stm32f10x_spi.c ****   /* Check the parameters */
 666:.\stlib\STM32F10x_StdPeriph_Driver\src/stm32f10x_spi.c ****   assert_param(IS_SPI_ALL_PERIPH(SPIx));
 1059              		.loc 1 666 3 view .LVU268
 667:.\stlib\STM32F10x_StdPeriph_Driver\src/stm32f10x_spi.c ****   assert_param(IS_FUNCTIONAL_STATE(NewState));
 1060              		.loc 1 667 3 view .LVU269
 668:.\stlib\STM32F10x_StdPeriph_Driver\src/stm32f10x_spi.c ****   if (NewState != DISABLE)
 1061              		.loc 1 668 3 view .LVU270
 1062              	@ .\stlib\STM32F10x_StdPeriph_Driver\src\stm32f10x_spi.c:671:     SPIx->CR1 |= CR1_CRCEN_Set;
 669:.\stlib\STM32F10x_StdPeriph_Driver\src/stm32f10x_spi.c ****   {
 670:.\stlib\STM32F10x_StdPeriph_Driver\src/stm32f10x_spi.c ****     /* Enable the selected SPI CRC calculation */
 671:.\stlib\STM32F10x_StdPeriph_Driver\src/stm32f10x_spi.c ****     SPIx->CR1 |= CR1_CRCEN_Set;
 1063              		.loc 1 671 15 is_stmt 0 view .LVU271
 1064 0220 0388     		ldrh	r3, [r0]	@,* SPIx
 1065              	@ .\stlib\STM32F10x_StdPeriph_Driver\src\stm32f10x_spi.c:668:   if (NewState != DISABLE)
 668:.\stlib\STM32F10x_StdPeriph_Driver\src/stm32f10x_spi.c ****   if (NewState != DISABLE)
 1066              		.loc 1 668 6 view .LVU272
 1067 0222 21B1     		cbz	r1, .L51	@ tmp123,
 1068              		.loc 1 671 5 is_stmt 1 view .LVU273
 1069              	@ .\stlib\STM32F10x_StdPeriph_Driver\src\stm32f10x_spi.c:671:     SPIx->CR1 |= CR1_CRCEN_Set;
 1070              		.loc 1 671 15 is_stmt 0 view .LVU274
 1071 0224 9BB2     		uxth	r3, r3	@ _1, SPIx_8(D)->CR1
 1072 0226 43F40053 		orr	r3, r3, #8192	@ _2, _1,
 1073              	.L53:
 1074              	@ .\stlib\STM32F10x_StdPeriph_Driver\src\stm32f10x_spi.c:676:     SPIx->CR1 &= CR1_CRCEN_Reset;
 672:.\stlib\STM32F10x_StdPeriph_Driver\src/stm32f10x_spi.c ****   }
 673:.\stlib\STM32F10x_StdPeriph_Driver\src/stm32f10x_spi.c ****   else
 674:.\stlib\STM32F10x_StdPeriph_Driver\src/stm32f10x_spi.c ****   {
 675:.\stlib\STM32F10x_StdPeriph_Driver\src/stm32f10x_spi.c ****     /* Disable the selected SPI CRC calculation */
 676:.\stlib\STM32F10x_StdPeriph_Driver\src/stm32f10x_spi.c ****     SPIx->CR1 &= CR1_CRCEN_Reset;
 1075              		.loc 1 676 15 view .LVU275
 1076 022a 0380     		strh	r3, [r0]	@ movhi	@ _4,* SPIx
 1077              	@ .\stlib\STM32F10x_StdPeriph_Driver\src\stm32f10x_spi.c:678: }
 677:.\stlib\STM32F10x_StdPeriph_Driver\src/stm32f10x_spi.c ****   }
 678:.\stlib\STM32F10x_StdPeriph_Driver\src/stm32f10x_spi.c **** }
 1078              		.loc 1 678 1 view .LVU276
 1079 022c 7047     		bx	lr	@
 1080              	.L51:
 676:.\stlib\STM32F10x_StdPeriph_Driver\src/stm32f10x_spi.c ****   }
 1081              		.loc 1 676 5 is_stmt 1 view .LVU277
 1082              	@ .\stlib\STM32F10x_StdPeriph_Driver\src\stm32f10x_spi.c:676:     SPIx->CR1 &= CR1_CRCEN_Reset;
 676:.\stlib\STM32F10x_StdPeriph_Driver\src/stm32f10x_spi.c ****   }
 1083              		.loc 1 676 15 is_stmt 0 view .LVU278
 1084 022e 23F40053 		bic	r3, r3, #8192	@ _4, SPIx_8(D)->CR1,
 1085 0232 1B04     		lsls	r3, r3, #16	@ _4, _4,
 1086 0234 1B0C     		lsrs	r3, r3, #16	@ _4, _4,
 1087 0236 F8E7     		b	.L53		@
 1088              		.cfi_endproc
 1089              	.LFE44:
ARM GAS  C:\Users\skey\AppData\Local\Temp\cchabaxk.s 			page 33


 1090              		.size	SPI_CalculateCRC, .-SPI_CalculateCRC
 1091              		.align	1
 1092              		.global	SPI_GetCRC
 1093              		.syntax unified
 1094              		.thumb
 1095              		.thumb_func
 1096              		.fpu softvfp
 1097              		.type	SPI_GetCRC, %function
 1098              	SPI_GetCRC:
 1099              	.LVL56:
 1100              	.LFB45:
 679:.\stlib\STM32F10x_StdPeriph_Driver\src/stm32f10x_spi.c **** 
 680:.\stlib\STM32F10x_StdPeriph_Driver\src/stm32f10x_spi.c **** /**
 681:.\stlib\STM32F10x_StdPeriph_Driver\src/stm32f10x_spi.c ****   * @brief  Returns the transmit or the receive CRC register value for the specified SPI.
 682:.\stlib\STM32F10x_StdPeriph_Driver\src/stm32f10x_spi.c ****   * @param  SPIx: where x can be 1, 2 or 3 to select the SPI peripheral.
 683:.\stlib\STM32F10x_StdPeriph_Driver\src/stm32f10x_spi.c ****   * @param  SPI_CRC: specifies the CRC register to be read.
 684:.\stlib\STM32F10x_StdPeriph_Driver\src/stm32f10x_spi.c ****   *   This parameter can be one of the following values:
 685:.\stlib\STM32F10x_StdPeriph_Driver\src/stm32f10x_spi.c ****   *     @arg SPI_CRC_Tx: Selects Tx CRC register
 686:.\stlib\STM32F10x_StdPeriph_Driver\src/stm32f10x_spi.c ****   *     @arg SPI_CRC_Rx: Selects Rx CRC register
 687:.\stlib\STM32F10x_StdPeriph_Driver\src/stm32f10x_spi.c ****   * @retval The selected CRC register value..
 688:.\stlib\STM32F10x_StdPeriph_Driver\src/stm32f10x_spi.c ****   */
 689:.\stlib\STM32F10x_StdPeriph_Driver\src/stm32f10x_spi.c **** uint16_t SPI_GetCRC(SPI_TypeDef* SPIx, uint8_t SPI_CRC)
 690:.\stlib\STM32F10x_StdPeriph_Driver\src/stm32f10x_spi.c **** {
 1101              		.loc 1 690 1 is_stmt 1 view -0
 1102              		.cfi_startproc
 1103              		@ args = 0, pretend = 0, frame = 0
 1104              		@ frame_needed = 0, uses_anonymous_args = 0
 1105              		@ link register save eliminated.
 691:.\stlib\STM32F10x_StdPeriph_Driver\src/stm32f10x_spi.c ****   uint16_t crcreg = 0;
 1106              		.loc 1 691 3 view .LVU280
 692:.\stlib\STM32F10x_StdPeriph_Driver\src/stm32f10x_spi.c ****   /* Check the parameters */
 693:.\stlib\STM32F10x_StdPeriph_Driver\src/stm32f10x_spi.c ****   assert_param(IS_SPI_ALL_PERIPH(SPIx));
 1107              		.loc 1 693 3 view .LVU281
 694:.\stlib\STM32F10x_StdPeriph_Driver\src/stm32f10x_spi.c ****   assert_param(IS_SPI_CRC(SPI_CRC));
 1108              		.loc 1 694 3 view .LVU282
 695:.\stlib\STM32F10x_StdPeriph_Driver\src/stm32f10x_spi.c ****   if (SPI_CRC != SPI_CRC_Rx)
 1109              		.loc 1 695 3 view .LVU283
 1110              	@ .\stlib\STM32F10x_StdPeriph_Driver\src\stm32f10x_spi.c:695:   if (SPI_CRC != SPI_CRC_Rx)
 1111              		.loc 1 695 6 is_stmt 0 view .LVU284
 1112 0238 0129     		cmp	r1, #1	@ tmp119,
 696:.\stlib\STM32F10x_StdPeriph_Driver\src/stm32f10x_spi.c ****   {
 697:.\stlib\STM32F10x_StdPeriph_Driver\src/stm32f10x_spi.c ****     /* Get the Tx CRC register */
 698:.\stlib\STM32F10x_StdPeriph_Driver\src/stm32f10x_spi.c ****     crcreg = SPIx->TXCRCR;
 1113              		.loc 1 698 5 is_stmt 1 view .LVU285
 1114              	@ .\stlib\STM32F10x_StdPeriph_Driver\src\stm32f10x_spi.c:698:     crcreg = SPIx->TXCRCR;
 1115              		.loc 1 698 12 is_stmt 0 view .LVU286
 1116 023a 14BF     		ite	ne
 1117 023c 008B     		ldrhne	r0, [r0, #24]	@, SPIx_4(D)->TXCRCR
 1118              	.LVL57:
 699:.\stlib\STM32F10x_StdPeriph_Driver\src/stm32f10x_spi.c ****   }
 700:.\stlib\STM32F10x_StdPeriph_Driver\src/stm32f10x_spi.c ****   else
 701:.\stlib\STM32F10x_StdPeriph_Driver\src/stm32f10x_spi.c ****   {
 702:.\stlib\STM32F10x_StdPeriph_Driver\src/stm32f10x_spi.c ****     /* Get the Rx CRC register */
 703:.\stlib\STM32F10x_StdPeriph_Driver\src/stm32f10x_spi.c ****     crcreg = SPIx->RXCRCR;
 1119              		.loc 1 703 5 is_stmt 1 view .LVU287
 1120              	@ .\stlib\STM32F10x_StdPeriph_Driver\src\stm32f10x_spi.c:703:     crcreg = SPIx->RXCRCR;
 1121              		.loc 1 703 12 is_stmt 0 view .LVU288
ARM GAS  C:\Users\skey\AppData\Local\Temp\cchabaxk.s 			page 34


 1122 023e 808A     		ldrheq	r0, [r0, #20]	@, SPIx_4(D)->RXCRCR
 1123 0240 80B2     		uxth	r0, r0	@ <retval>, SPIx_4(D)->RXCRCR
 1124              	.LVL58:
 704:.\stlib\STM32F10x_StdPeriph_Driver\src/stm32f10x_spi.c ****   }
 705:.\stlib\STM32F10x_StdPeriph_Driver\src/stm32f10x_spi.c ****   /* Return the selected CRC register */
 706:.\stlib\STM32F10x_StdPeriph_Driver\src/stm32f10x_spi.c ****   return crcreg;
 1125              		.loc 1 706 3 is_stmt 1 view .LVU289
 1126              	@ .\stlib\STM32F10x_StdPeriph_Driver\src\stm32f10x_spi.c:707: }
 707:.\stlib\STM32F10x_StdPeriph_Driver\src/stm32f10x_spi.c **** }
 1127              		.loc 1 707 1 is_stmt 0 view .LVU290
 1128 0242 7047     		bx	lr	@
 1129              		.cfi_endproc
 1130              	.LFE45:
 1131              		.size	SPI_GetCRC, .-SPI_GetCRC
 1132              		.align	1
 1133              		.global	SPI_GetCRCPolynomial
 1134              		.syntax unified
 1135              		.thumb
 1136              		.thumb_func
 1137              		.fpu softvfp
 1138              		.type	SPI_GetCRCPolynomial, %function
 1139              	SPI_GetCRCPolynomial:
 1140              	.LVL59:
 1141              	.LFB46:
 708:.\stlib\STM32F10x_StdPeriph_Driver\src/stm32f10x_spi.c **** 
 709:.\stlib\STM32F10x_StdPeriph_Driver\src/stm32f10x_spi.c **** /**
 710:.\stlib\STM32F10x_StdPeriph_Driver\src/stm32f10x_spi.c ****   * @brief  Returns the CRC Polynomial register value for the specified SPI.
 711:.\stlib\STM32F10x_StdPeriph_Driver\src/stm32f10x_spi.c ****   * @param  SPIx: where x can be 1, 2 or 3 to select the SPI peripheral.
 712:.\stlib\STM32F10x_StdPeriph_Driver\src/stm32f10x_spi.c ****   * @retval The CRC Polynomial register value.
 713:.\stlib\STM32F10x_StdPeriph_Driver\src/stm32f10x_spi.c ****   */
 714:.\stlib\STM32F10x_StdPeriph_Driver\src/stm32f10x_spi.c **** uint16_t SPI_GetCRCPolynomial(SPI_TypeDef* SPIx)
 715:.\stlib\STM32F10x_StdPeriph_Driver\src/stm32f10x_spi.c **** {
 1142              		.loc 1 715 1 is_stmt 1 view -0
 1143              		.cfi_startproc
 1144              		@ args = 0, pretend = 0, frame = 0
 1145              		@ frame_needed = 0, uses_anonymous_args = 0
 1146              		@ link register save eliminated.
 716:.\stlib\STM32F10x_StdPeriph_Driver\src/stm32f10x_spi.c ****   /* Check the parameters */
 717:.\stlib\STM32F10x_StdPeriph_Driver\src/stm32f10x_spi.c ****   assert_param(IS_SPI_ALL_PERIPH(SPIx));
 1147              		.loc 1 717 3 view .LVU292
 718:.\stlib\STM32F10x_StdPeriph_Driver\src/stm32f10x_spi.c ****   
 719:.\stlib\STM32F10x_StdPeriph_Driver\src/stm32f10x_spi.c ****   /* Return the CRC polynomial register */
 720:.\stlib\STM32F10x_StdPeriph_Driver\src/stm32f10x_spi.c ****   return SPIx->CRCPR;
 1148              		.loc 1 720 3 view .LVU293
 1149              	@ .\stlib\STM32F10x_StdPeriph_Driver\src\stm32f10x_spi.c:720:   return SPIx->CRCPR;
 1150              		.loc 1 720 14 is_stmt 0 view .LVU294
 1151 0244 008A     		ldrh	r0, [r0, #16]	@, SPIx_2(D)->CRCPR
 1152              	.LVL60:
 1153              	@ .\stlib\STM32F10x_StdPeriph_Driver\src\stm32f10x_spi.c:721: }
 721:.\stlib\STM32F10x_StdPeriph_Driver\src/stm32f10x_spi.c **** }
 1154              		.loc 1 721 1 view .LVU295
 1155 0246 80B2     		uxth	r0, r0	@, SPIx_2(D)->CRCPR
 1156 0248 7047     		bx	lr	@
 1157              		.cfi_endproc
 1158              	.LFE46:
 1159              		.size	SPI_GetCRCPolynomial, .-SPI_GetCRCPolynomial
 1160              		.align	1
ARM GAS  C:\Users\skey\AppData\Local\Temp\cchabaxk.s 			page 35


 1161              		.global	SPI_BiDirectionalLineConfig
 1162              		.syntax unified
 1163              		.thumb
 1164              		.thumb_func
 1165              		.fpu softvfp
 1166              		.type	SPI_BiDirectionalLineConfig, %function
 1167              	SPI_BiDirectionalLineConfig:
 1168              	.LVL61:
 1169              	.LFB47:
 722:.\stlib\STM32F10x_StdPeriph_Driver\src/stm32f10x_spi.c **** 
 723:.\stlib\STM32F10x_StdPeriph_Driver\src/stm32f10x_spi.c **** /**
 724:.\stlib\STM32F10x_StdPeriph_Driver\src/stm32f10x_spi.c ****   * @brief  Selects the data transfer direction in bi-directional mode for the specified SPI.
 725:.\stlib\STM32F10x_StdPeriph_Driver\src/stm32f10x_spi.c ****   * @param  SPIx: where x can be 1, 2 or 3 to select the SPI peripheral.
 726:.\stlib\STM32F10x_StdPeriph_Driver\src/stm32f10x_spi.c ****   * @param  SPI_Direction: specifies the data transfer direction in bi-directional mode. 
 727:.\stlib\STM32F10x_StdPeriph_Driver\src/stm32f10x_spi.c ****   *   This parameter can be one of the following values:
 728:.\stlib\STM32F10x_StdPeriph_Driver\src/stm32f10x_spi.c ****   *     @arg SPI_Direction_Tx: Selects Tx transmission direction
 729:.\stlib\STM32F10x_StdPeriph_Driver\src/stm32f10x_spi.c ****   *     @arg SPI_Direction_Rx: Selects Rx receive direction
 730:.\stlib\STM32F10x_StdPeriph_Driver\src/stm32f10x_spi.c ****   * @retval None
 731:.\stlib\STM32F10x_StdPeriph_Driver\src/stm32f10x_spi.c ****   */
 732:.\stlib\STM32F10x_StdPeriph_Driver\src/stm32f10x_spi.c **** void SPI_BiDirectionalLineConfig(SPI_TypeDef* SPIx, uint16_t SPI_Direction)
 733:.\stlib\STM32F10x_StdPeriph_Driver\src/stm32f10x_spi.c **** {
 1170              		.loc 1 733 1 is_stmt 1 view -0
 1171              		.cfi_startproc
 1172              		@ args = 0, pretend = 0, frame = 0
 1173              		@ frame_needed = 0, uses_anonymous_args = 0
 1174              		@ link register save eliminated.
 734:.\stlib\STM32F10x_StdPeriph_Driver\src/stm32f10x_spi.c ****   /* Check the parameters */
 735:.\stlib\STM32F10x_StdPeriph_Driver\src/stm32f10x_spi.c ****   assert_param(IS_SPI_ALL_PERIPH(SPIx));
 1175              		.loc 1 735 3 view .LVU297
 736:.\stlib\STM32F10x_StdPeriph_Driver\src/stm32f10x_spi.c ****   assert_param(IS_SPI_DIRECTION(SPI_Direction));
 1176              		.loc 1 736 3 view .LVU298
 737:.\stlib\STM32F10x_StdPeriph_Driver\src/stm32f10x_spi.c ****   if (SPI_Direction == SPI_Direction_Tx)
 1177              		.loc 1 737 3 view .LVU299
 1178              	@ .\stlib\STM32F10x_StdPeriph_Driver\src\stm32f10x_spi.c:740:     SPIx->CR1 |= SPI_Direction_Tx;
 738:.\stlib\STM32F10x_StdPeriph_Driver\src/stm32f10x_spi.c ****   {
 739:.\stlib\STM32F10x_StdPeriph_Driver\src/stm32f10x_spi.c ****     /* Set the Tx only mode */
 740:.\stlib\STM32F10x_StdPeriph_Driver\src/stm32f10x_spi.c ****     SPIx->CR1 |= SPI_Direction_Tx;
 1179              		.loc 1 740 15 is_stmt 0 view .LVU300
 1180 024a 0388     		ldrh	r3, [r0]	@,* SPIx
 1181              	@ .\stlib\STM32F10x_StdPeriph_Driver\src\stm32f10x_spi.c:737:   if (SPI_Direction == SPI_Direction_
 737:.\stlib\STM32F10x_StdPeriph_Driver\src/stm32f10x_spi.c ****   if (SPI_Direction == SPI_Direction_Tx)
 1182              		.loc 1 737 6 view .LVU301
 1183 024c B1F5804F 		cmp	r1, #16384	@ tmp123,
 1184              		.loc 1 740 5 is_stmt 1 view .LVU302
 1185              	@ .\stlib\STM32F10x_StdPeriph_Driver\src\stm32f10x_spi.c:745:     SPIx->CR1 &= SPI_Direction_Rx;
 741:.\stlib\STM32F10x_StdPeriph_Driver\src/stm32f10x_spi.c ****   }
 742:.\stlib\STM32F10x_StdPeriph_Driver\src/stm32f10x_spi.c ****   else
 743:.\stlib\STM32F10x_StdPeriph_Driver\src/stm32f10x_spi.c ****   {
 744:.\stlib\STM32F10x_StdPeriph_Driver\src/stm32f10x_spi.c ****     /* Set the Rx only mode */
 745:.\stlib\STM32F10x_StdPeriph_Driver\src/stm32f10x_spi.c ****     SPIx->CR1 &= SPI_Direction_Rx;
 1186              		.loc 1 745 15 is_stmt 0 view .LVU303
 1187 0250 15BF     		itete	ne
 1188 0252 23F48043 		bicne	r3, r3, #16384	@ _4, SPIx_8(D)->CR1,
 1189              	@ .\stlib\STM32F10x_StdPeriph_Driver\src\stm32f10x_spi.c:740:     SPIx->CR1 |= SPI_Direction_Tx;
 740:.\stlib\STM32F10x_StdPeriph_Driver\src/stm32f10x_spi.c ****   }
 1190              		.loc 1 740 15 view .LVU304
 1191 0256 9BB2     		uxtheq	r3, r3	@ _1, SPIx_8(D)->CR1
ARM GAS  C:\Users\skey\AppData\Local\Temp\cchabaxk.s 			page 36


 1192              	@ .\stlib\STM32F10x_StdPeriph_Driver\src\stm32f10x_spi.c:745:     SPIx->CR1 &= SPI_Direction_Rx;
 1193              		.loc 1 745 15 view .LVU305
 1194 0258 1B04     		lslne	r3, r3, #16	@ _4, _4,
 1195              	@ .\stlib\STM32F10x_StdPeriph_Driver\src\stm32f10x_spi.c:740:     SPIx->CR1 |= SPI_Direction_Tx;
 740:.\stlib\STM32F10x_StdPeriph_Driver\src/stm32f10x_spi.c ****   }
 1196              		.loc 1 740 15 view .LVU306
 1197 025a 43F48043 		orreq	r3, r3, #16384	@ _2, _1,
 1198              		.loc 1 745 5 is_stmt 1 view .LVU307
 1199              	@ .\stlib\STM32F10x_StdPeriph_Driver\src\stm32f10x_spi.c:745:     SPIx->CR1 &= SPI_Direction_Rx;
 1200              		.loc 1 745 15 is_stmt 0 view .LVU308
 1201 025e 18BF     		it	ne
 1202 0260 1B0C     		lsrne	r3, r3, #16	@ _4, _4,
 1203 0262 0380     		strh	r3, [r0]	@ movhi	@ _4,* SPIx
 1204              	@ .\stlib\STM32F10x_StdPeriph_Driver\src\stm32f10x_spi.c:747: }
 746:.\stlib\STM32F10x_StdPeriph_Driver\src/stm32f10x_spi.c ****   }
 747:.\stlib\STM32F10x_StdPeriph_Driver\src/stm32f10x_spi.c **** }
 1205              		.loc 1 747 1 view .LVU309
 1206 0264 7047     		bx	lr	@
 1207              		.cfi_endproc
 1208              	.LFE47:
 1209              		.size	SPI_BiDirectionalLineConfig, .-SPI_BiDirectionalLineConfig
 1210              		.align	1
 1211              		.global	SPI_I2S_GetFlagStatus
 1212              		.syntax unified
 1213              		.thumb
 1214              		.thumb_func
 1215              		.fpu softvfp
 1216              		.type	SPI_I2S_GetFlagStatus, %function
 1217              	SPI_I2S_GetFlagStatus:
 1218              	.LVL62:
 1219              	.LFB48:
 748:.\stlib\STM32F10x_StdPeriph_Driver\src/stm32f10x_spi.c **** 
 749:.\stlib\STM32F10x_StdPeriph_Driver\src/stm32f10x_spi.c **** /**
 750:.\stlib\STM32F10x_StdPeriph_Driver\src/stm32f10x_spi.c ****   * @brief  Checks whether the specified SPI/I2S flag is set or not.
 751:.\stlib\STM32F10x_StdPeriph_Driver\src/stm32f10x_spi.c ****   * @param  SPIx: where x can be
 752:.\stlib\STM32F10x_StdPeriph_Driver\src/stm32f10x_spi.c ****   *   - 1, 2 or 3 in SPI mode 
 753:.\stlib\STM32F10x_StdPeriph_Driver\src/stm32f10x_spi.c ****   *   - 2 or 3 in I2S mode
 754:.\stlib\STM32F10x_StdPeriph_Driver\src/stm32f10x_spi.c ****   * @param  SPI_I2S_FLAG: specifies the SPI/I2S flag to check. 
 755:.\stlib\STM32F10x_StdPeriph_Driver\src/stm32f10x_spi.c ****   *   This parameter can be one of the following values:
 756:.\stlib\STM32F10x_StdPeriph_Driver\src/stm32f10x_spi.c ****   *     @arg SPI_I2S_FLAG_TXE: Transmit buffer empty flag.
 757:.\stlib\STM32F10x_StdPeriph_Driver\src/stm32f10x_spi.c ****   *     @arg SPI_I2S_FLAG_RXNE: Receive buffer not empty flag.
 758:.\stlib\STM32F10x_StdPeriph_Driver\src/stm32f10x_spi.c ****   *     @arg SPI_I2S_FLAG_BSY: Busy flag.
 759:.\stlib\STM32F10x_StdPeriph_Driver\src/stm32f10x_spi.c ****   *     @arg SPI_I2S_FLAG_OVR: Overrun flag.
 760:.\stlib\STM32F10x_StdPeriph_Driver\src/stm32f10x_spi.c ****   *     @arg SPI_FLAG_MODF: Mode Fault flag.
 761:.\stlib\STM32F10x_StdPeriph_Driver\src/stm32f10x_spi.c ****   *     @arg SPI_FLAG_CRCERR: CRC Error flag.
 762:.\stlib\STM32F10x_StdPeriph_Driver\src/stm32f10x_spi.c ****   *     @arg I2S_FLAG_UDR: Underrun Error flag.
 763:.\stlib\STM32F10x_StdPeriph_Driver\src/stm32f10x_spi.c ****   *     @arg I2S_FLAG_CHSIDE: Channel Side flag.
 764:.\stlib\STM32F10x_StdPeriph_Driver\src/stm32f10x_spi.c ****   * @retval The new state of SPI_I2S_FLAG (SET or RESET).
 765:.\stlib\STM32F10x_StdPeriph_Driver\src/stm32f10x_spi.c ****   */
 766:.\stlib\STM32F10x_StdPeriph_Driver\src/stm32f10x_spi.c **** FlagStatus SPI_I2S_GetFlagStatus(SPI_TypeDef* SPIx, uint16_t SPI_I2S_FLAG)
 767:.\stlib\STM32F10x_StdPeriph_Driver\src/stm32f10x_spi.c **** {
 1220              		.loc 1 767 1 is_stmt 1 view -0
 1221              		.cfi_startproc
 1222              		@ args = 0, pretend = 0, frame = 0
 1223              		@ frame_needed = 0, uses_anonymous_args = 0
 1224              		@ link register save eliminated.
 768:.\stlib\STM32F10x_StdPeriph_Driver\src/stm32f10x_spi.c ****   FlagStatus bitstatus = RESET;
ARM GAS  C:\Users\skey\AppData\Local\Temp\cchabaxk.s 			page 37


 1225              		.loc 1 768 3 view .LVU311
 769:.\stlib\STM32F10x_StdPeriph_Driver\src/stm32f10x_spi.c ****   /* Check the parameters */
 770:.\stlib\STM32F10x_StdPeriph_Driver\src/stm32f10x_spi.c ****   assert_param(IS_SPI_ALL_PERIPH(SPIx));
 1226              		.loc 1 770 3 view .LVU312
 771:.\stlib\STM32F10x_StdPeriph_Driver\src/stm32f10x_spi.c ****   assert_param(IS_SPI_I2S_GET_FLAG(SPI_I2S_FLAG));
 1227              		.loc 1 771 3 view .LVU313
 772:.\stlib\STM32F10x_StdPeriph_Driver\src/stm32f10x_spi.c ****   /* Check the status of the specified SPI/I2S flag */
 773:.\stlib\STM32F10x_StdPeriph_Driver\src/stm32f10x_spi.c ****   if ((SPIx->SR & SPI_I2S_FLAG) != (uint16_t)RESET)
 1228              		.loc 1 773 3 view .LVU314
 1229              	@ .\stlib\STM32F10x_StdPeriph_Driver\src\stm32f10x_spi.c:773:   if ((SPIx->SR & SPI_I2S_FLAG) != (u
 1230              		.loc 1 773 12 is_stmt 0 view .LVU315
 1231 0266 0389     		ldrh	r3, [r0, #8]	@, SPIx_5(D)->SR
 1232              	.LVL63:
 774:.\stlib\STM32F10x_StdPeriph_Driver\src/stm32f10x_spi.c ****   {
 775:.\stlib\STM32F10x_StdPeriph_Driver\src/stm32f10x_spi.c ****     /* SPI_I2S_FLAG is set */
 776:.\stlib\STM32F10x_StdPeriph_Driver\src/stm32f10x_spi.c ****     bitstatus = SET;
 777:.\stlib\STM32F10x_StdPeriph_Driver\src/stm32f10x_spi.c ****   }
 778:.\stlib\STM32F10x_StdPeriph_Driver\src/stm32f10x_spi.c ****   else
 779:.\stlib\STM32F10x_StdPeriph_Driver\src/stm32f10x_spi.c ****   {
 780:.\stlib\STM32F10x_StdPeriph_Driver\src/stm32f10x_spi.c ****     /* SPI_I2S_FLAG is reset */
 781:.\stlib\STM32F10x_StdPeriph_Driver\src/stm32f10x_spi.c ****     bitstatus = RESET;
 782:.\stlib\STM32F10x_StdPeriph_Driver\src/stm32f10x_spi.c ****   }
 783:.\stlib\STM32F10x_StdPeriph_Driver\src/stm32f10x_spi.c ****   /* Return the SPI_I2S_FLAG status */
 784:.\stlib\STM32F10x_StdPeriph_Driver\src/stm32f10x_spi.c ****   return  bitstatus;
 1233              		.loc 1 784 3 is_stmt 1 view .LVU316
 1234              	@ .\stlib\STM32F10x_StdPeriph_Driver\src\stm32f10x_spi.c:773:   if ((SPIx->SR & SPI_I2S_FLAG) != (u
 773:.\stlib\STM32F10x_StdPeriph_Driver\src/stm32f10x_spi.c ****   {
 1235              		.loc 1 773 6 is_stmt 0 view .LVU317
 1236 0268 1942     		tst	r1, r3	@ tmp124, SPIx_5(D)->SR
 1237              	@ .\stlib\STM32F10x_StdPeriph_Driver\src\stm32f10x_spi.c:785: }
 785:.\stlib\STM32F10x_StdPeriph_Driver\src/stm32f10x_spi.c **** }
 1238              		.loc 1 785 1 view .LVU318
 1239 026a 14BF     		ite	ne
 1240 026c 0120     		movne	r0, #1	@,
 1241              	.LVL64:
 1242              		.loc 1 785 1 view .LVU319
 1243 026e 0020     		moveq	r0, #0	@,
 1244 0270 7047     		bx	lr	@
 1245              		.cfi_endproc
 1246              	.LFE48:
 1247              		.size	SPI_I2S_GetFlagStatus, .-SPI_I2S_GetFlagStatus
 1248              		.align	1
 1249              		.global	SPI_I2S_ClearFlag
 1250              		.syntax unified
 1251              		.thumb
 1252              		.thumb_func
 1253              		.fpu softvfp
 1254              		.type	SPI_I2S_ClearFlag, %function
 1255              	SPI_I2S_ClearFlag:
 1256              	.LVL65:
 1257              	.LFB49:
 786:.\stlib\STM32F10x_StdPeriph_Driver\src/stm32f10x_spi.c **** 
 787:.\stlib\STM32F10x_StdPeriph_Driver\src/stm32f10x_spi.c **** /**
 788:.\stlib\STM32F10x_StdPeriph_Driver\src/stm32f10x_spi.c ****   * @brief  Clears the SPIx CRC Error (CRCERR) flag.
 789:.\stlib\STM32F10x_StdPeriph_Driver\src/stm32f10x_spi.c ****   * @param  SPIx: where x can be
 790:.\stlib\STM32F10x_StdPeriph_Driver\src/stm32f10x_spi.c ****   *   - 1, 2 or 3 in SPI mode 
 791:.\stlib\STM32F10x_StdPeriph_Driver\src/stm32f10x_spi.c ****   * @param  SPI_I2S_FLAG: specifies the SPI flag to clear. 
ARM GAS  C:\Users\skey\AppData\Local\Temp\cchabaxk.s 			page 38


 792:.\stlib\STM32F10x_StdPeriph_Driver\src/stm32f10x_spi.c ****   *   This function clears only CRCERR flag.
 793:.\stlib\STM32F10x_StdPeriph_Driver\src/stm32f10x_spi.c ****   * @note
 794:.\stlib\STM32F10x_StdPeriph_Driver\src/stm32f10x_spi.c ****   *   - OVR (OverRun error) flag is cleared by software sequence: a read 
 795:.\stlib\STM32F10x_StdPeriph_Driver\src/stm32f10x_spi.c ****   *     operation to SPI_DR register (SPI_I2S_ReceiveData()) followed by a read 
 796:.\stlib\STM32F10x_StdPeriph_Driver\src/stm32f10x_spi.c ****   *     operation to SPI_SR register (SPI_I2S_GetFlagStatus()).
 797:.\stlib\STM32F10x_StdPeriph_Driver\src/stm32f10x_spi.c ****   *   - UDR (UnderRun error) flag is cleared by a read operation to 
 798:.\stlib\STM32F10x_StdPeriph_Driver\src/stm32f10x_spi.c ****   *     SPI_SR register (SPI_I2S_GetFlagStatus()).
 799:.\stlib\STM32F10x_StdPeriph_Driver\src/stm32f10x_spi.c ****   *   - MODF (Mode Fault) flag is cleared by software sequence: a read/write 
 800:.\stlib\STM32F10x_StdPeriph_Driver\src/stm32f10x_spi.c ****   *     operation to SPI_SR register (SPI_I2S_GetFlagStatus()) followed by a 
 801:.\stlib\STM32F10x_StdPeriph_Driver\src/stm32f10x_spi.c ****   *     write operation to SPI_CR1 register (SPI_Cmd() to enable the SPI).
 802:.\stlib\STM32F10x_StdPeriph_Driver\src/stm32f10x_spi.c ****   * @retval None
 803:.\stlib\STM32F10x_StdPeriph_Driver\src/stm32f10x_spi.c ****   */
 804:.\stlib\STM32F10x_StdPeriph_Driver\src/stm32f10x_spi.c **** void SPI_I2S_ClearFlag(SPI_TypeDef* SPIx, uint16_t SPI_I2S_FLAG)
 805:.\stlib\STM32F10x_StdPeriph_Driver\src/stm32f10x_spi.c **** {
 1258              		.loc 1 805 1 is_stmt 1 view -0
 1259              		.cfi_startproc
 1260              		@ args = 0, pretend = 0, frame = 0
 1261              		@ frame_needed = 0, uses_anonymous_args = 0
 1262              		@ link register save eliminated.
 806:.\stlib\STM32F10x_StdPeriph_Driver\src/stm32f10x_spi.c ****   /* Check the parameters */
 807:.\stlib\STM32F10x_StdPeriph_Driver\src/stm32f10x_spi.c ****   assert_param(IS_SPI_ALL_PERIPH(SPIx));
 1263              		.loc 1 807 3 view .LVU321
 808:.\stlib\STM32F10x_StdPeriph_Driver\src/stm32f10x_spi.c ****   assert_param(IS_SPI_I2S_CLEAR_FLAG(SPI_I2S_FLAG));
 1264              		.loc 1 808 3 view .LVU322
 809:.\stlib\STM32F10x_StdPeriph_Driver\src/stm32f10x_spi.c ****     
 810:.\stlib\STM32F10x_StdPeriph_Driver\src/stm32f10x_spi.c ****     /* Clear the selected SPI CRC Error (CRCERR) flag */
 811:.\stlib\STM32F10x_StdPeriph_Driver\src/stm32f10x_spi.c ****     SPIx->SR = (uint16_t)~SPI_I2S_FLAG;
 1265              		.loc 1 811 5 view .LVU323
 1266              	@ .\stlib\STM32F10x_StdPeriph_Driver\src\stm32f10x_spi.c:811:     SPIx->SR = (uint16_t)~SPI_I2S_FLA
 1267              		.loc 1 811 16 is_stmt 0 view .LVU324
 1268 0272 C943     		mvns	r1, r1	@ tmp113, tmp116
 1269              	.LVL66:
 1270              		.loc 1 811 16 view .LVU325
 1271 0274 89B2     		uxth	r1, r1	@ _1, tmp113
 1272              	@ .\stlib\STM32F10x_StdPeriph_Driver\src\stm32f10x_spi.c:811:     SPIx->SR = (uint16_t)~SPI_I2S_FLA
 1273              		.loc 1 811 14 view .LVU326
 1274 0276 0181     		strh	r1, [r0, #8]	@ movhi	@ _1, SPIx_4(D)->SR
 1275              	@ .\stlib\STM32F10x_StdPeriph_Driver\src\stm32f10x_spi.c:812: }
 812:.\stlib\STM32F10x_StdPeriph_Driver\src/stm32f10x_spi.c **** }
 1276              		.loc 1 812 1 view .LVU327
 1277 0278 7047     		bx	lr	@
 1278              		.cfi_endproc
 1279              	.LFE49:
 1280              		.size	SPI_I2S_ClearFlag, .-SPI_I2S_ClearFlag
 1281              		.align	1
 1282              		.global	SPI_I2S_GetITStatus
 1283              		.syntax unified
 1284              		.thumb
 1285              		.thumb_func
 1286              		.fpu softvfp
 1287              		.type	SPI_I2S_GetITStatus, %function
 1288              	SPI_I2S_GetITStatus:
 1289              	.LVL67:
 1290              	.LFB50:
 813:.\stlib\STM32F10x_StdPeriph_Driver\src/stm32f10x_spi.c **** 
 814:.\stlib\STM32F10x_StdPeriph_Driver\src/stm32f10x_spi.c **** /**
 815:.\stlib\STM32F10x_StdPeriph_Driver\src/stm32f10x_spi.c ****   * @brief  Checks whether the specified SPI/I2S interrupt has occurred or not.
ARM GAS  C:\Users\skey\AppData\Local\Temp\cchabaxk.s 			page 39


 816:.\stlib\STM32F10x_StdPeriph_Driver\src/stm32f10x_spi.c ****   * @param  SPIx: where x can be
 817:.\stlib\STM32F10x_StdPeriph_Driver\src/stm32f10x_spi.c ****   *   - 1, 2 or 3 in SPI mode 
 818:.\stlib\STM32F10x_StdPeriph_Driver\src/stm32f10x_spi.c ****   *   - 2 or 3 in I2S mode
 819:.\stlib\STM32F10x_StdPeriph_Driver\src/stm32f10x_spi.c ****   * @param  SPI_I2S_IT: specifies the SPI/I2S interrupt source to check. 
 820:.\stlib\STM32F10x_StdPeriph_Driver\src/stm32f10x_spi.c ****   *   This parameter can be one of the following values:
 821:.\stlib\STM32F10x_StdPeriph_Driver\src/stm32f10x_spi.c ****   *     @arg SPI_I2S_IT_TXE: Transmit buffer empty interrupt.
 822:.\stlib\STM32F10x_StdPeriph_Driver\src/stm32f10x_spi.c ****   *     @arg SPI_I2S_IT_RXNE: Receive buffer not empty interrupt.
 823:.\stlib\STM32F10x_StdPeriph_Driver\src/stm32f10x_spi.c ****   *     @arg SPI_I2S_IT_OVR: Overrun interrupt.
 824:.\stlib\STM32F10x_StdPeriph_Driver\src/stm32f10x_spi.c ****   *     @arg SPI_IT_MODF: Mode Fault interrupt.
 825:.\stlib\STM32F10x_StdPeriph_Driver\src/stm32f10x_spi.c ****   *     @arg SPI_IT_CRCERR: CRC Error interrupt.
 826:.\stlib\STM32F10x_StdPeriph_Driver\src/stm32f10x_spi.c ****   *     @arg I2S_IT_UDR: Underrun Error interrupt.
 827:.\stlib\STM32F10x_StdPeriph_Driver\src/stm32f10x_spi.c ****   * @retval The new state of SPI_I2S_IT (SET or RESET).
 828:.\stlib\STM32F10x_StdPeriph_Driver\src/stm32f10x_spi.c ****   */
 829:.\stlib\STM32F10x_StdPeriph_Driver\src/stm32f10x_spi.c **** ITStatus SPI_I2S_GetITStatus(SPI_TypeDef* SPIx, uint8_t SPI_I2S_IT)
 830:.\stlib\STM32F10x_StdPeriph_Driver\src/stm32f10x_spi.c **** {
 1291              		.loc 1 830 1 is_stmt 1 view -0
 1292              		.cfi_startproc
 1293              		@ args = 0, pretend = 0, frame = 0
 1294              		@ frame_needed = 0, uses_anonymous_args = 0
 831:.\stlib\STM32F10x_StdPeriph_Driver\src/stm32f10x_spi.c ****   ITStatus bitstatus = RESET;
 1295              		.loc 1 831 3 view .LVU329
 832:.\stlib\STM32F10x_StdPeriph_Driver\src/stm32f10x_spi.c ****   uint16_t itpos = 0, itmask = 0, enablestatus = 0;
 1296              		.loc 1 832 3 view .LVU330
 833:.\stlib\STM32F10x_StdPeriph_Driver\src/stm32f10x_spi.c **** 
 834:.\stlib\STM32F10x_StdPeriph_Driver\src/stm32f10x_spi.c ****   /* Check the parameters */
 835:.\stlib\STM32F10x_StdPeriph_Driver\src/stm32f10x_spi.c ****   assert_param(IS_SPI_ALL_PERIPH(SPIx));
 1297              		.loc 1 835 3 view .LVU331
 836:.\stlib\STM32F10x_StdPeriph_Driver\src/stm32f10x_spi.c ****   assert_param(IS_SPI_I2S_GET_IT(SPI_I2S_IT));
 1298              		.loc 1 836 3 view .LVU332
 837:.\stlib\STM32F10x_StdPeriph_Driver\src/stm32f10x_spi.c **** 
 838:.\stlib\STM32F10x_StdPeriph_Driver\src/stm32f10x_spi.c ****   /* Get the SPI/I2S IT index */
 839:.\stlib\STM32F10x_StdPeriph_Driver\src/stm32f10x_spi.c ****   itpos = 0x01 << (SPI_I2S_IT & 0x0F);
 1299              		.loc 1 839 3 view .LVU333
 840:.\stlib\STM32F10x_StdPeriph_Driver\src/stm32f10x_spi.c **** 
 841:.\stlib\STM32F10x_StdPeriph_Driver\src/stm32f10x_spi.c ****   /* Get the SPI/I2S IT mask */
 842:.\stlib\STM32F10x_StdPeriph_Driver\src/stm32f10x_spi.c ****   itmask = SPI_I2S_IT >> 4;
 1300              		.loc 1 842 3 view .LVU334
 843:.\stlib\STM32F10x_StdPeriph_Driver\src/stm32f10x_spi.c **** 
 844:.\stlib\STM32F10x_StdPeriph_Driver\src/stm32f10x_spi.c ****   /* Set the IT mask */
 845:.\stlib\STM32F10x_StdPeriph_Driver\src/stm32f10x_spi.c ****   itmask = 0x01 << itmask;
 1301              		.loc 1 845 3 view .LVU335
 846:.\stlib\STM32F10x_StdPeriph_Driver\src/stm32f10x_spi.c **** 
 847:.\stlib\STM32F10x_StdPeriph_Driver\src/stm32f10x_spi.c ****   /* Get the SPI_I2S_IT enable bit status */
 848:.\stlib\STM32F10x_StdPeriph_Driver\src/stm32f10x_spi.c ****   enablestatus = (SPIx->CR2 & itmask) ;
 1302              		.loc 1 848 3 view .LVU336
 1303              	@ .\stlib\STM32F10x_StdPeriph_Driver\src\stm32f10x_spi.c:839:   itpos = 0x01 << (SPI_I2S_IT & 0x0F)
 839:.\stlib\STM32F10x_StdPeriph_Driver\src/stm32f10x_spi.c **** 
 1304              		.loc 1 839 16 is_stmt 0 view .LVU337
 1305 027a 0123     		movs	r3, #1	@ tmp133,
 1306              	@ .\stlib\STM32F10x_StdPeriph_Driver\src\stm32f10x_spi.c:830: {
 830:.\stlib\STM32F10x_StdPeriph_Driver\src/stm32f10x_spi.c ****   ITStatus bitstatus = RESET;
 1307              		.loc 1 830 1 view .LVU338
 1308 027c 10B5     		push	{r4, lr}	@
 1309              	.LCFI10:
 1310              		.cfi_def_cfa_offset 8
 1311              		.cfi_offset 4, -8
 1312              		.cfi_offset 14, -4
ARM GAS  C:\Users\skey\AppData\Local\Temp\cchabaxk.s 			page 40


 1313              	@ .\stlib\STM32F10x_StdPeriph_Driver\src\stm32f10x_spi.c:848:   enablestatus = (SPIx->CR2 & itmask)
 1314              		.loc 1 848 23 view .LVU339
 1315 027e 8488     		ldrh	r4, [r0, #4]	@, SPIx_15(D)->CR2
 1316              	@ .\stlib\STM32F10x_StdPeriph_Driver\src\stm32f10x_spi.c:851:   if (((SPIx->SR & itpos) != (uint16_
 849:.\stlib\STM32F10x_StdPeriph_Driver\src/stm32f10x_spi.c **** 
 850:.\stlib\STM32F10x_StdPeriph_Driver\src/stm32f10x_spi.c ****   /* Check the status of the specified SPI/I2S interrupt */
 851:.\stlib\STM32F10x_StdPeriph_Driver\src/stm32f10x_spi.c ****   if (((SPIx->SR & itpos) != (uint16_t)RESET) && enablestatus)
 1317              		.loc 1 851 13 view .LVU340
 1318 0280 0089     		ldrh	r0, [r0, #8]	@, SPIx_15(D)->SR
 1319              	.LVL68:
 1320              	@ .\stlib\STM32F10x_StdPeriph_Driver\src\stm32f10x_spi.c:839:   itpos = 0x01 << (SPI_I2S_IT & 0x0F)
 839:.\stlib\STM32F10x_StdPeriph_Driver\src/stm32f10x_spi.c **** 
 1321              		.loc 1 839 31 view .LVU341
 1322 0282 01F00F02 		and	r2, r1, #15	@ tmp131, SPI_I2S_IT,
 1323              	@ .\stlib\STM32F10x_StdPeriph_Driver\src\stm32f10x_spi.c:851:   if (((SPIx->SR & itpos) != (uint16_
 1324              		.loc 1 851 13 view .LVU342
 1325 0286 80B2     		uxth	r0, r0	@ _7, SPIx_15(D)->SR
 1326              	@ .\stlib\STM32F10x_StdPeriph_Driver\src\stm32f10x_spi.c:839:   itpos = 0x01 << (SPI_I2S_IT & 0x0F)
 839:.\stlib\STM32F10x_StdPeriph_Driver\src/stm32f10x_spi.c **** 
 1327              		.loc 1 839 16 view .LVU343
 1328 0288 03FA02F2 		lsl	r2, r3, r2	@ tmp132, tmp133, tmp131
 1329              	@ .\stlib\STM32F10x_StdPeriph_Driver\src\stm32f10x_spi.c:851:   if (((SPIx->SR & itpos) != (uint16_
 1330              		.loc 1 851 6 view .LVU344
 1331 028c 1040     		ands	r0, r0, r2	@ tmp137, _7, tmp132
 1332              	@ .\stlib\STM32F10x_StdPeriph_Driver\src\stm32f10x_spi.c:848:   enablestatus = (SPIx->CR2 & itmask)
 848:.\stlib\STM32F10x_StdPeriph_Driver\src/stm32f10x_spi.c **** 
 1333              		.loc 1 848 23 view .LVU345
 1334 028e A4B2     		uxth	r4, r4	@ _6, SPIx_15(D)->CR2
 1335              	.LVL69:
 1336              		.loc 1 851 3 is_stmt 1 view .LVU346
 1337              	@ .\stlib\STM32F10x_StdPeriph_Driver\src\stm32f10x_spi.c:851:   if (((SPIx->SR & itpos) != (uint16_
 1338              		.loc 1 851 6 is_stmt 0 view .LVU347
 1339 0290 06D0     		beq	.L66		@,
 1340              	@ .\stlib\STM32F10x_StdPeriph_Driver\src\stm32f10x_spi.c:845:   itmask = 0x01 << itmask;
 845:.\stlib\STM32F10x_StdPeriph_Driver\src/stm32f10x_spi.c **** 
 1341              		.loc 1 845 17 discriminator 1 view .LVU348
 1342 0292 0909     		lsrs	r1, r1, #4	@ tmp139, SPI_I2S_IT,
 1343              	.LVL70:
 845:.\stlib\STM32F10x_StdPeriph_Driver\src/stm32f10x_spi.c **** 
 1344              		.loc 1 845 17 discriminator 1 view .LVU349
 1345 0294 03FA01F1 		lsl	r1, r3, r1	@ tmp140, tmp133, tmp139
 1346              	@ .\stlib\STM32F10x_StdPeriph_Driver\src\stm32f10x_spi.c:851:   if (((SPIx->SR & itpos) != (uint16_
 1347              		.loc 1 851 47 discriminator 1 view .LVU350
 1348 0298 0C42     		tst	r4, r1	@ _6, tmp140
 1349              	@ .\stlib\STM32F10x_StdPeriph_Driver\src\stm32f10x_spi.c:859:     bitstatus = RESET;
 852:.\stlib\STM32F10x_StdPeriph_Driver\src/stm32f10x_spi.c ****   {
 853:.\stlib\STM32F10x_StdPeriph_Driver\src/stm32f10x_spi.c ****     /* SPI_I2S_IT is set */
 854:.\stlib\STM32F10x_StdPeriph_Driver\src/stm32f10x_spi.c ****     bitstatus = SET;
 855:.\stlib\STM32F10x_StdPeriph_Driver\src/stm32f10x_spi.c ****   }
 856:.\stlib\STM32F10x_StdPeriph_Driver\src/stm32f10x_spi.c ****   else
 857:.\stlib\STM32F10x_StdPeriph_Driver\src/stm32f10x_spi.c ****   {
 858:.\stlib\STM32F10x_StdPeriph_Driver\src/stm32f10x_spi.c ****     /* SPI_I2S_IT is reset */
 859:.\stlib\STM32F10x_StdPeriph_Driver\src/stm32f10x_spi.c ****     bitstatus = RESET;
 1350              		.loc 1 859 15 discriminator 1 view .LVU351
 1351 029a 14BF     		ite	ne
 1352 029c 1846     		movne	r0, r3	@ <retval>,
 1353 029e 0020     		moveq	r0, #0	@ <retval>,
ARM GAS  C:\Users\skey\AppData\Local\Temp\cchabaxk.s 			page 41


 1354              	.L66:
 1355              	.LVL71:
 860:.\stlib\STM32F10x_StdPeriph_Driver\src/stm32f10x_spi.c ****   }
 861:.\stlib\STM32F10x_StdPeriph_Driver\src/stm32f10x_spi.c ****   /* Return the SPI_I2S_IT status */
 862:.\stlib\STM32F10x_StdPeriph_Driver\src/stm32f10x_spi.c ****   return bitstatus;
 1356              		.loc 1 862 3 is_stmt 1 view .LVU352
 1357              	@ .\stlib\STM32F10x_StdPeriph_Driver\src\stm32f10x_spi.c:863: }
 863:.\stlib\STM32F10x_StdPeriph_Driver\src/stm32f10x_spi.c **** }
 1358              		.loc 1 863 1 is_stmt 0 view .LVU353
 1359 02a0 10BD     		pop	{r4, pc}	@
 1360              		.loc 1 863 1 view .LVU354
 1361              		.cfi_endproc
 1362              	.LFE50:
 1363              		.size	SPI_I2S_GetITStatus, .-SPI_I2S_GetITStatus
 1364              		.align	1
 1365              		.global	SPI_I2S_ClearITPendingBit
 1366              		.syntax unified
 1367              		.thumb
 1368              		.thumb_func
 1369              		.fpu softvfp
 1370              		.type	SPI_I2S_ClearITPendingBit, %function
 1371              	SPI_I2S_ClearITPendingBit:
 1372              	.LVL72:
 1373              	.LFB51:
 864:.\stlib\STM32F10x_StdPeriph_Driver\src/stm32f10x_spi.c **** 
 865:.\stlib\STM32F10x_StdPeriph_Driver\src/stm32f10x_spi.c **** /**
 866:.\stlib\STM32F10x_StdPeriph_Driver\src/stm32f10x_spi.c ****   * @brief  Clears the SPIx CRC Error (CRCERR) interrupt pending bit.
 867:.\stlib\STM32F10x_StdPeriph_Driver\src/stm32f10x_spi.c ****   * @param  SPIx: where x can be
 868:.\stlib\STM32F10x_StdPeriph_Driver\src/stm32f10x_spi.c ****   *   - 1, 2 or 3 in SPI mode 
 869:.\stlib\STM32F10x_StdPeriph_Driver\src/stm32f10x_spi.c ****   * @param  SPI_I2S_IT: specifies the SPI interrupt pending bit to clear.
 870:.\stlib\STM32F10x_StdPeriph_Driver\src/stm32f10x_spi.c ****   *   This function clears only CRCERR interrupt pending bit.   
 871:.\stlib\STM32F10x_StdPeriph_Driver\src/stm32f10x_spi.c ****   * @note
 872:.\stlib\STM32F10x_StdPeriph_Driver\src/stm32f10x_spi.c ****   *   - OVR (OverRun Error) interrupt pending bit is cleared by software 
 873:.\stlib\STM32F10x_StdPeriph_Driver\src/stm32f10x_spi.c ****   *     sequence: a read operation to SPI_DR register (SPI_I2S_ReceiveData()) 
 874:.\stlib\STM32F10x_StdPeriph_Driver\src/stm32f10x_spi.c ****   *     followed by a read operation to SPI_SR register (SPI_I2S_GetITStatus()).
 875:.\stlib\STM32F10x_StdPeriph_Driver\src/stm32f10x_spi.c ****   *   - UDR (UnderRun Error) interrupt pending bit is cleared by a read 
 876:.\stlib\STM32F10x_StdPeriph_Driver\src/stm32f10x_spi.c ****   *     operation to SPI_SR register (SPI_I2S_GetITStatus()).
 877:.\stlib\STM32F10x_StdPeriph_Driver\src/stm32f10x_spi.c ****   *   - MODF (Mode Fault) interrupt pending bit is cleared by software sequence:
 878:.\stlib\STM32F10x_StdPeriph_Driver\src/stm32f10x_spi.c ****   *     a read/write operation to SPI_SR register (SPI_I2S_GetITStatus()) 
 879:.\stlib\STM32F10x_StdPeriph_Driver\src/stm32f10x_spi.c ****   *     followed by a write operation to SPI_CR1 register (SPI_Cmd() to enable 
 880:.\stlib\STM32F10x_StdPeriph_Driver\src/stm32f10x_spi.c ****   *     the SPI).
 881:.\stlib\STM32F10x_StdPeriph_Driver\src/stm32f10x_spi.c ****   * @retval None
 882:.\stlib\STM32F10x_StdPeriph_Driver\src/stm32f10x_spi.c ****   */
 883:.\stlib\STM32F10x_StdPeriph_Driver\src/stm32f10x_spi.c **** void SPI_I2S_ClearITPendingBit(SPI_TypeDef* SPIx, uint8_t SPI_I2S_IT)
 884:.\stlib\STM32F10x_StdPeriph_Driver\src/stm32f10x_spi.c **** {
 1374              		.loc 1 884 1 is_stmt 1 view -0
 1375              		.cfi_startproc
 1376              		@ args = 0, pretend = 0, frame = 0
 1377              		@ frame_needed = 0, uses_anonymous_args = 0
 1378              		@ link register save eliminated.
 885:.\stlib\STM32F10x_StdPeriph_Driver\src/stm32f10x_spi.c ****   uint16_t itpos = 0;
 1379              		.loc 1 885 3 view .LVU356
 886:.\stlib\STM32F10x_StdPeriph_Driver\src/stm32f10x_spi.c ****   /* Check the parameters */
 887:.\stlib\STM32F10x_StdPeriph_Driver\src/stm32f10x_spi.c ****   assert_param(IS_SPI_ALL_PERIPH(SPIx));
 1380              		.loc 1 887 3 view .LVU357
 888:.\stlib\STM32F10x_StdPeriph_Driver\src/stm32f10x_spi.c ****   assert_param(IS_SPI_I2S_CLEAR_IT(SPI_I2S_IT));
 1381              		.loc 1 888 3 view .LVU358
ARM GAS  C:\Users\skey\AppData\Local\Temp\cchabaxk.s 			page 42


 889:.\stlib\STM32F10x_StdPeriph_Driver\src/stm32f10x_spi.c **** 
 890:.\stlib\STM32F10x_StdPeriph_Driver\src/stm32f10x_spi.c ****   /* Get the SPI IT index */
 891:.\stlib\STM32F10x_StdPeriph_Driver\src/stm32f10x_spi.c ****   itpos = 0x01 << (SPI_I2S_IT & 0x0F);
 1382              		.loc 1 891 3 view .LVU359
 892:.\stlib\STM32F10x_StdPeriph_Driver\src/stm32f10x_spi.c **** 
 893:.\stlib\STM32F10x_StdPeriph_Driver\src/stm32f10x_spi.c ****   /* Clear the selected SPI CRC Error (CRCERR) interrupt pending bit */
 894:.\stlib\STM32F10x_StdPeriph_Driver\src/stm32f10x_spi.c ****   SPIx->SR = (uint16_t)~itpos;
 1383              		.loc 1 894 3 view .LVU360
 1384              	@ .\stlib\STM32F10x_StdPeriph_Driver\src\stm32f10x_spi.c:891:   itpos = 0x01 << (SPI_I2S_IT & 0x0F)
 891:.\stlib\STM32F10x_StdPeriph_Driver\src/stm32f10x_spi.c **** 
 1385              		.loc 1 891 16 is_stmt 0 view .LVU361
 1386 02a2 0123     		movs	r3, #1	@ tmp120,
 1387              	@ .\stlib\STM32F10x_StdPeriph_Driver\src\stm32f10x_spi.c:891:   itpos = 0x01 << (SPI_I2S_IT & 0x0F)
 891:.\stlib\STM32F10x_StdPeriph_Driver\src/stm32f10x_spi.c **** 
 1388              		.loc 1 891 31 view .LVU362
 1389 02a4 01F00F01 		and	r1, r1, #15	@ tmp118, tmp125,
 1390              	.LVL73:
 1391              	@ .\stlib\STM32F10x_StdPeriph_Driver\src\stm32f10x_spi.c:891:   itpos = 0x01 << (SPI_I2S_IT & 0x0F)
 891:.\stlib\STM32F10x_StdPeriph_Driver\src/stm32f10x_spi.c **** 
 1392              		.loc 1 891 16 view .LVU363
 1393 02a8 8B40     		lsls	r3, r3, r1	@ tmp119, tmp120, tmp118
 1394              	@ .\stlib\STM32F10x_StdPeriph_Driver\src\stm32f10x_spi.c:894:   SPIx->SR = (uint16_t)~itpos;
 1395              		.loc 1 894 14 view .LVU364
 1396 02aa DB43     		mvns	r3, r3	@ tmp122, tmp119
 1397 02ac 9BB2     		uxth	r3, r3	@ _3, tmp122
 1398              	@ .\stlib\STM32F10x_StdPeriph_Driver\src\stm32f10x_spi.c:894:   SPIx->SR = (uint16_t)~itpos;
 1399              		.loc 1 894 12 view .LVU365
 1400 02ae 0381     		strh	r3, [r0, #8]	@ movhi	@ _3, SPIx_8(D)->SR
 1401              	@ .\stlib\STM32F10x_StdPeriph_Driver\src\stm32f10x_spi.c:895: }
 895:.\stlib\STM32F10x_StdPeriph_Driver\src/stm32f10x_spi.c **** }
 1402              		.loc 1 895 1 view .LVU366
 1403 02b0 7047     		bx	lr	@
 1404              		.cfi_endproc
 1405              	.LFE51:
 1406              		.size	SPI_I2S_ClearITPendingBit, .-SPI_I2S_ClearITPendingBit
 1407              	.Letext0:
 1408              		.file 2 "c:\\program files (x86)\\gnu tools arm embedded\\9 2019-q4-major\\arm-none-eabi\\include\
 1409              		.file 3 "c:\\program files (x86)\\gnu tools arm embedded\\9 2019-q4-major\\arm-none-eabi\\include\
 1410              		.file 4 ".\\stlib\\CMSIS\\CM3\\CoreSupport/core_cm3.h"
 1411              		.file 5 ".\\stlib\\CMSIS\\CM3\\DeviceSupport\\ST\\STM32F10x/system_stm32f10x.h"
 1412              		.file 6 ".\\stlib\\CMSIS\\CM3\\DeviceSupport\\ST\\STM32F10x/stm32f10x.h"
 1413              		.file 7 ".\\stlib\\STM32F10x_StdPeriph_Driver\\inc/stm32f10x_rcc.h"
 1414              		.file 8 ".\\stlib\\STM32F10x_StdPeriph_Driver\\inc/stm32f10x_spi.h"