ARM GAS  C:\Users\skey\AppData\Local\Temp\ccDz30Qf.s 			page 1


   1              		.cpu cortex-m3
   2              		.eabi_attribute 20, 1	@ Tag_ABI_FP_denormal
   3              		.eabi_attribute 21, 1	@ Tag_ABI_FP_exceptions
   4              		.eabi_attribute 23, 3	@ Tag_ABI_FP_number_model
   5              		.eabi_attribute 24, 1	@ Tag_ABI_align8_needed
   6              		.eabi_attribute 25, 1	@ Tag_ABI_align8_preserved
   7              		.eabi_attribute 26, 1	@ Tag_ABI_enum_size
   8              		.eabi_attribute 30, 4	@ Tag_ABI_optimization_goals
   9              		.eabi_attribute 34, 1	@ Tag_CPU_unaligned_access
  10              		.eabi_attribute 18, 4	@ Tag_ABI_PCS_wchar_t
  11              		.file	"stm32f10x_cec.c"
  12              	@ GNU C17 (GNU Tools for Arm Embedded Processors 9-2019-q4-major) version 9.2.1 20191025 (release) 
  13              	@	compiled by GNU C version 5.3.1 20160211, GMP version 6.1.0, MPFR version 3.1.4, MPC version 1.0.
  14              	
  15              	@ GGC heuristics: --param ggc-min-expand=100 --param ggc-min-heapsize=131072
  16              	@ options passed:  -I . -I .\usr_inc -I .\task_inc
  17              	@ -I .\stlib\CMSIS\CM3\CoreSupport
  18              	@ -I .\stlib\CMSIS\CM3\DeviceSupport\ST\STM32F10x
  19              	@ -I .\stlib\STM32F10x_StdPeriph_Driver\inc
  20              	@ -I .\stlib\STM32F10x_StdPeriph_Driver -I .\freertos\include
  21              	@ -I .\freertos\portable\GCC\ARM_CM3 -imultilib thumb/v7-m/nofp
  22              	@ -iprefix c:\program files (x86)\gnu tools arm embedded\9 2019-q4-major\bin\../lib/gcc/arm-none-ea
  23              	@ -isysroot c:\program files (x86)\gnu tools arm embedded\9 2019-q4-major\bin\../arm-none-eabi
  24              	@ -D__USES_INITFINI__ -D STM32F10X_HD -D USE_STDPERIPH_DRIVER
  25              	@ -D HSE_VALUE=8000000 -D RUN_FROM_FLASH=1
  26              	@ .\stlib\STM32F10x_StdPeriph_Driver\src\stm32f10x_cec.c -mcpu=cortex-m3
  27              	@ -mthumb -mfloat-abi=soft -march=armv7-m
  28              	@ -auxbase-strip .\stlib\STM32F10x_StdPeriph_Driver\src\stm32f10x_cec.o -g
  29              	@ -gdwarf-2 -Os -Wall -fomit-frame-pointer -fverbose-asm
  30              	@ options enabled:  -faggressive-loop-optimizations -fassume-phsa
  31              	@ -fauto-inc-dec -fbranch-count-reg -fcaller-saves -fcode-hoisting
  32              	@ -fcombine-stack-adjustments -fcommon -fcompare-elim -fcprop-registers
  33              	@ -fcrossjumping -fcse-follow-jumps -fdefer-pop
  34              	@ -fdelete-null-pointer-checks -fdevirtualize -fdevirtualize-speculatively
  35              	@ -fdwarf2-cfi-asm -fearly-inlining -feliminate-unused-debug-types
  36              	@ -fexpensive-optimizations -fforward-propagate -ffp-int-builtin-inexact
  37              	@ -ffunction-cse -fgcse -fgcse-lm -fgnu-runtime -fgnu-unique
  38              	@ -fguess-branch-probability -fhoist-adjacent-loads -fident -fif-conversion
  39              	@ -fif-conversion2 -findirect-inlining -finline -finline-atomics
  40              	@ -finline-functions -finline-functions-called-once
  41              	@ -finline-small-functions -fipa-bit-cp -fipa-cp -fipa-icf
  42              	@ -fipa-icf-functions -fipa-icf-variables -fipa-profile -fipa-pure-const
  43              	@ -fipa-ra -fipa-reference -fipa-reference-addressable -fipa-sra
  44              	@ -fipa-stack-alignment -fipa-vrp -fira-hoist-pressure
  45              	@ -fira-share-save-slots -fira-share-spill-slots
  46              	@ -fisolate-erroneous-paths-dereference -fivopts -fkeep-static-consts
  47              	@ -fleading-underscore -flifetime-dse -flra-remat -flto-odr-type-merging
  48              	@ -fmath-errno -fmerge-constants -fmerge-debug-strings
  49              	@ -fmove-loop-invariants -fomit-frame-pointer -foptimize-sibling-calls
  50              	@ -fpartial-inlining -fpeephole -fpeephole2 -fplt -fprefetch-loop-arrays
  51              	@ -freg-struct-return -freorder-blocks -freorder-functions
  52              	@ -frerun-cse-after-loop -fsched-critical-path-heuristic
  53              	@ -fsched-dep-count-heuristic -fsched-group-heuristic -fsched-interblock
  54              	@ -fsched-last-insn-heuristic -fsched-pressure -fsched-rank-heuristic
  55              	@ -fsched-spec -fsched-spec-insn-heuristic -fsched-stalled-insns-dep
  56              	@ -fschedule-insns2 -fsection-anchors -fsemantic-interposition
  57              	@ -fshow-column -fshrink-wrap-separate -fsigned-zeros
ARM GAS  C:\Users\skey\AppData\Local\Temp\ccDz30Qf.s 			page 2


  58              	@ -fsplit-ivs-in-unroller -fsplit-wide-types -fssa-backprop -fssa-phiopt
  59              	@ -fstdarg-opt -fstore-merging -fstrict-aliasing
  60              	@ -fstrict-volatile-bitfields -fsync-libcalls -fthread-jumps
  61              	@ -ftoplevel-reorder -ftrapping-math -ftree-bit-ccp -ftree-builtin-call-dce
  62              	@ -ftree-ccp -ftree-ch -ftree-coalesce-vars -ftree-copy-prop -ftree-cselim
  63              	@ -ftree-dce -ftree-dominator-opts -ftree-dse -ftree-forwprop -ftree-fre
  64              	@ -ftree-loop-if-convert -ftree-loop-im -ftree-loop-ivcanon
  65              	@ -ftree-loop-optimize -ftree-parallelize-loops= -ftree-phiprop -ftree-pre
  66              	@ -ftree-pta -ftree-reassoc -ftree-scev-cprop -ftree-sink -ftree-slsr
  67              	@ -ftree-sra -ftree-switch-conversion -ftree-tail-merge -ftree-ter
  68              	@ -ftree-vrp -funit-at-a-time -fvar-tracking -fvar-tracking-assignments
  69              	@ -fverbose-asm -fzero-initialized-in-bss -masm-syntax-unified -mbe32
  70              	@ -mfix-cortex-m3-ldrd -mlittle-endian -mpic-data-is-text-relative
  71              	@ -msched-prolog -mthumb -munaligned-access -mvectorize-with-neon-quad
  72              	
  73              		.text
  74              	.Ltext0:
  75              		.cfi_sections	.debug_frame
  76              		.align	1
  77              		.global	CEC_DeInit
  78              		.arch armv7-m
  79              		.syntax unified
  80              		.thumb
  81              		.thumb_func
  82              		.fpu softvfp
  83              		.type	CEC_DeInit, %function
  84              	CEC_DeInit:
  85              	.LFB29:
  86              		.file 1 ".\\stlib\\STM32F10x_StdPeriph_Driver\\src\\stm32f10x_cec.c"
   1:.\stlib\STM32F10x_StdPeriph_Driver\src/stm32f10x_cec.c **** /**
   2:.\stlib\STM32F10x_StdPeriph_Driver\src/stm32f10x_cec.c ****   ******************************************************************************
   3:.\stlib\STM32F10x_StdPeriph_Driver\src/stm32f10x_cec.c ****   * @file    stm32f10x_cec.c
   4:.\stlib\STM32F10x_StdPeriph_Driver\src/stm32f10x_cec.c ****   * @author  MCD Application Team
   5:.\stlib\STM32F10x_StdPeriph_Driver\src/stm32f10x_cec.c ****   * @version V3.5.0
   6:.\stlib\STM32F10x_StdPeriph_Driver\src/stm32f10x_cec.c ****   * @date    11-March-2011
   7:.\stlib\STM32F10x_StdPeriph_Driver\src/stm32f10x_cec.c ****   * @brief   This file provides all the CEC firmware functions.
   8:.\stlib\STM32F10x_StdPeriph_Driver\src/stm32f10x_cec.c ****   ******************************************************************************
   9:.\stlib\STM32F10x_StdPeriph_Driver\src/stm32f10x_cec.c ****   * @attention
  10:.\stlib\STM32F10x_StdPeriph_Driver\src/stm32f10x_cec.c ****   *
  11:.\stlib\STM32F10x_StdPeriph_Driver\src/stm32f10x_cec.c ****   * THE PRESENT FIRMWARE WHICH IS FOR GUIDANCE ONLY AIMS AT PROVIDING CUSTOMERS
  12:.\stlib\STM32F10x_StdPeriph_Driver\src/stm32f10x_cec.c ****   * WITH CODING INFORMATION REGARDING THEIR PRODUCTS IN ORDER FOR THEM TO SAVE
  13:.\stlib\STM32F10x_StdPeriph_Driver\src/stm32f10x_cec.c ****   * TIME. AS A RESULT, STMICROELECTRONICS SHALL NOT BE HELD LIABLE FOR ANY
  14:.\stlib\STM32F10x_StdPeriph_Driver\src/stm32f10x_cec.c ****   * DIRECT, INDIRECT OR CONSEQUENTIAL DAMAGES WITH RESPECT TO ANY CLAIMS ARISING
  15:.\stlib\STM32F10x_StdPeriph_Driver\src/stm32f10x_cec.c ****   * FROM THE CONTENT OF SUCH FIRMWARE AND/OR THE USE MADE BY CUSTOMERS OF THE
  16:.\stlib\STM32F10x_StdPeriph_Driver\src/stm32f10x_cec.c ****   * CODING INFORMATION CONTAINED HEREIN IN CONNECTION WITH THEIR PRODUCTS.
  17:.\stlib\STM32F10x_StdPeriph_Driver\src/stm32f10x_cec.c ****   *
  18:.\stlib\STM32F10x_StdPeriph_Driver\src/stm32f10x_cec.c ****   * <h2><center>&copy; COPYRIGHT 2011 STMicroelectronics</center></h2>
  19:.\stlib\STM32F10x_StdPeriph_Driver\src/stm32f10x_cec.c ****   ******************************************************************************
  20:.\stlib\STM32F10x_StdPeriph_Driver\src/stm32f10x_cec.c ****   */
  21:.\stlib\STM32F10x_StdPeriph_Driver\src/stm32f10x_cec.c **** 
  22:.\stlib\STM32F10x_StdPeriph_Driver\src/stm32f10x_cec.c **** /* Includes ------------------------------------------------------------------*/
  23:.\stlib\STM32F10x_StdPeriph_Driver\src/stm32f10x_cec.c **** #include "stm32f10x_cec.h"
  24:.\stlib\STM32F10x_StdPeriph_Driver\src/stm32f10x_cec.c **** #include "stm32f10x_rcc.h"
  25:.\stlib\STM32F10x_StdPeriph_Driver\src/stm32f10x_cec.c **** 
  26:.\stlib\STM32F10x_StdPeriph_Driver\src/stm32f10x_cec.c **** /** @addtogroup STM32F10x_StdPeriph_Driver
  27:.\stlib\STM32F10x_StdPeriph_Driver\src/stm32f10x_cec.c ****   * @{
  28:.\stlib\STM32F10x_StdPeriph_Driver\src/stm32f10x_cec.c ****   */
ARM GAS  C:\Users\skey\AppData\Local\Temp\ccDz30Qf.s 			page 3


  29:.\stlib\STM32F10x_StdPeriph_Driver\src/stm32f10x_cec.c **** 
  30:.\stlib\STM32F10x_StdPeriph_Driver\src/stm32f10x_cec.c **** /** @defgroup CEC 
  31:.\stlib\STM32F10x_StdPeriph_Driver\src/stm32f10x_cec.c ****   * @brief CEC driver modules
  32:.\stlib\STM32F10x_StdPeriph_Driver\src/stm32f10x_cec.c ****   * @{
  33:.\stlib\STM32F10x_StdPeriph_Driver\src/stm32f10x_cec.c ****   */
  34:.\stlib\STM32F10x_StdPeriph_Driver\src/stm32f10x_cec.c **** 
  35:.\stlib\STM32F10x_StdPeriph_Driver\src/stm32f10x_cec.c **** /** @defgroup CEC_Private_TypesDefinitions
  36:.\stlib\STM32F10x_StdPeriph_Driver\src/stm32f10x_cec.c ****   * @{
  37:.\stlib\STM32F10x_StdPeriph_Driver\src/stm32f10x_cec.c ****   */
  38:.\stlib\STM32F10x_StdPeriph_Driver\src/stm32f10x_cec.c **** 
  39:.\stlib\STM32F10x_StdPeriph_Driver\src/stm32f10x_cec.c **** /**
  40:.\stlib\STM32F10x_StdPeriph_Driver\src/stm32f10x_cec.c ****   * @}
  41:.\stlib\STM32F10x_StdPeriph_Driver\src/stm32f10x_cec.c ****   */
  42:.\stlib\STM32F10x_StdPeriph_Driver\src/stm32f10x_cec.c **** 
  43:.\stlib\STM32F10x_StdPeriph_Driver\src/stm32f10x_cec.c **** 
  44:.\stlib\STM32F10x_StdPeriph_Driver\src/stm32f10x_cec.c **** /** @defgroup CEC_Private_Defines
  45:.\stlib\STM32F10x_StdPeriph_Driver\src/stm32f10x_cec.c ****   * @{
  46:.\stlib\STM32F10x_StdPeriph_Driver\src/stm32f10x_cec.c ****   */ 
  47:.\stlib\STM32F10x_StdPeriph_Driver\src/stm32f10x_cec.c **** 
  48:.\stlib\STM32F10x_StdPeriph_Driver\src/stm32f10x_cec.c **** /* ------------ CEC registers bit address in the alias region ----------- */
  49:.\stlib\STM32F10x_StdPeriph_Driver\src/stm32f10x_cec.c **** #define CEC_OFFSET                (CEC_BASE - PERIPH_BASE)
  50:.\stlib\STM32F10x_StdPeriph_Driver\src/stm32f10x_cec.c **** 
  51:.\stlib\STM32F10x_StdPeriph_Driver\src/stm32f10x_cec.c **** /* --- CFGR Register ---*/
  52:.\stlib\STM32F10x_StdPeriph_Driver\src/stm32f10x_cec.c **** 
  53:.\stlib\STM32F10x_StdPeriph_Driver\src/stm32f10x_cec.c **** /* Alias word address of PE bit */
  54:.\stlib\STM32F10x_StdPeriph_Driver\src/stm32f10x_cec.c **** #define CFGR_OFFSET                 (CEC_OFFSET + 0x00)
  55:.\stlib\STM32F10x_StdPeriph_Driver\src/stm32f10x_cec.c **** #define PE_BitNumber                0x00
  56:.\stlib\STM32F10x_StdPeriph_Driver\src/stm32f10x_cec.c **** #define CFGR_PE_BB                  (PERIPH_BB_BASE + (CFGR_OFFSET * 32) + (PE_BitNumber * 4))
  57:.\stlib\STM32F10x_StdPeriph_Driver\src/stm32f10x_cec.c **** 
  58:.\stlib\STM32F10x_StdPeriph_Driver\src/stm32f10x_cec.c **** /* Alias word address of IE bit */
  59:.\stlib\STM32F10x_StdPeriph_Driver\src/stm32f10x_cec.c **** #define IE_BitNumber                0x01
  60:.\stlib\STM32F10x_StdPeriph_Driver\src/stm32f10x_cec.c **** #define CFGR_IE_BB                  (PERIPH_BB_BASE + (CFGR_OFFSET * 32) + (IE_BitNumber * 4))
  61:.\stlib\STM32F10x_StdPeriph_Driver\src/stm32f10x_cec.c **** 
  62:.\stlib\STM32F10x_StdPeriph_Driver\src/stm32f10x_cec.c **** /* --- CSR Register ---*/
  63:.\stlib\STM32F10x_StdPeriph_Driver\src/stm32f10x_cec.c **** 
  64:.\stlib\STM32F10x_StdPeriph_Driver\src/stm32f10x_cec.c **** /* Alias word address of TSOM bit */
  65:.\stlib\STM32F10x_StdPeriph_Driver\src/stm32f10x_cec.c **** #define CSR_OFFSET                  (CEC_OFFSET + 0x10)
  66:.\stlib\STM32F10x_StdPeriph_Driver\src/stm32f10x_cec.c **** #define TSOM_BitNumber              0x00
  67:.\stlib\STM32F10x_StdPeriph_Driver\src/stm32f10x_cec.c **** #define CSR_TSOM_BB                 (PERIPH_BB_BASE + (CSR_OFFSET * 32) + (TSOM_BitNumber * 4))
  68:.\stlib\STM32F10x_StdPeriph_Driver\src/stm32f10x_cec.c **** 
  69:.\stlib\STM32F10x_StdPeriph_Driver\src/stm32f10x_cec.c **** /* Alias word address of TEOM bit */
  70:.\stlib\STM32F10x_StdPeriph_Driver\src/stm32f10x_cec.c **** #define TEOM_BitNumber              0x01
  71:.\stlib\STM32F10x_StdPeriph_Driver\src/stm32f10x_cec.c **** #define CSR_TEOM_BB                 (PERIPH_BB_BASE + (CSR_OFFSET * 32) + (TEOM_BitNumber * 4))
  72:.\stlib\STM32F10x_StdPeriph_Driver\src/stm32f10x_cec.c ****   
  73:.\stlib\STM32F10x_StdPeriph_Driver\src/stm32f10x_cec.c **** #define CFGR_CLEAR_Mask            (uint8_t)(0xF3)        /* CFGR register Mask */
  74:.\stlib\STM32F10x_StdPeriph_Driver\src/stm32f10x_cec.c **** #define FLAG_Mask                  ((uint32_t)0x00FFFFFF) /* CEC FLAG mask */
  75:.\stlib\STM32F10x_StdPeriph_Driver\src/stm32f10x_cec.c ****  
  76:.\stlib\STM32F10x_StdPeriph_Driver\src/stm32f10x_cec.c **** /**
  77:.\stlib\STM32F10x_StdPeriph_Driver\src/stm32f10x_cec.c ****   * @}
  78:.\stlib\STM32F10x_StdPeriph_Driver\src/stm32f10x_cec.c ****   */ 
  79:.\stlib\STM32F10x_StdPeriph_Driver\src/stm32f10x_cec.c **** 
  80:.\stlib\STM32F10x_StdPeriph_Driver\src/stm32f10x_cec.c **** 
  81:.\stlib\STM32F10x_StdPeriph_Driver\src/stm32f10x_cec.c **** /** @defgroup CEC_Private_Macros
  82:.\stlib\STM32F10x_StdPeriph_Driver\src/stm32f10x_cec.c ****   * @{
  83:.\stlib\STM32F10x_StdPeriph_Driver\src/stm32f10x_cec.c ****   */ 
  84:.\stlib\STM32F10x_StdPeriph_Driver\src/stm32f10x_cec.c **** 
  85:.\stlib\STM32F10x_StdPeriph_Driver\src/stm32f10x_cec.c **** /**
ARM GAS  C:\Users\skey\AppData\Local\Temp\ccDz30Qf.s 			page 4


  86:.\stlib\STM32F10x_StdPeriph_Driver\src/stm32f10x_cec.c ****   * @}
  87:.\stlib\STM32F10x_StdPeriph_Driver\src/stm32f10x_cec.c ****   */ 
  88:.\stlib\STM32F10x_StdPeriph_Driver\src/stm32f10x_cec.c **** 
  89:.\stlib\STM32F10x_StdPeriph_Driver\src/stm32f10x_cec.c **** 
  90:.\stlib\STM32F10x_StdPeriph_Driver\src/stm32f10x_cec.c **** /** @defgroup CEC_Private_Variables
  91:.\stlib\STM32F10x_StdPeriph_Driver\src/stm32f10x_cec.c ****   * @{
  92:.\stlib\STM32F10x_StdPeriph_Driver\src/stm32f10x_cec.c ****   */ 
  93:.\stlib\STM32F10x_StdPeriph_Driver\src/stm32f10x_cec.c **** 
  94:.\stlib\STM32F10x_StdPeriph_Driver\src/stm32f10x_cec.c **** /**
  95:.\stlib\STM32F10x_StdPeriph_Driver\src/stm32f10x_cec.c ****   * @}
  96:.\stlib\STM32F10x_StdPeriph_Driver\src/stm32f10x_cec.c ****   */ 
  97:.\stlib\STM32F10x_StdPeriph_Driver\src/stm32f10x_cec.c **** 
  98:.\stlib\STM32F10x_StdPeriph_Driver\src/stm32f10x_cec.c **** 
  99:.\stlib\STM32F10x_StdPeriph_Driver\src/stm32f10x_cec.c **** /** @defgroup CEC_Private_FunctionPrototypes
 100:.\stlib\STM32F10x_StdPeriph_Driver\src/stm32f10x_cec.c ****   * @{
 101:.\stlib\STM32F10x_StdPeriph_Driver\src/stm32f10x_cec.c ****   */
 102:.\stlib\STM32F10x_StdPeriph_Driver\src/stm32f10x_cec.c ****  
 103:.\stlib\STM32F10x_StdPeriph_Driver\src/stm32f10x_cec.c **** /**
 104:.\stlib\STM32F10x_StdPeriph_Driver\src/stm32f10x_cec.c ****   * @}
 105:.\stlib\STM32F10x_StdPeriph_Driver\src/stm32f10x_cec.c ****   */ 
 106:.\stlib\STM32F10x_StdPeriph_Driver\src/stm32f10x_cec.c **** 
 107:.\stlib\STM32F10x_StdPeriph_Driver\src/stm32f10x_cec.c **** 
 108:.\stlib\STM32F10x_StdPeriph_Driver\src/stm32f10x_cec.c **** /** @defgroup CEC_Private_Functions
 109:.\stlib\STM32F10x_StdPeriph_Driver\src/stm32f10x_cec.c ****   * @{
 110:.\stlib\STM32F10x_StdPeriph_Driver\src/stm32f10x_cec.c ****   */ 
 111:.\stlib\STM32F10x_StdPeriph_Driver\src/stm32f10x_cec.c **** 
 112:.\stlib\STM32F10x_StdPeriph_Driver\src/stm32f10x_cec.c **** /**
 113:.\stlib\STM32F10x_StdPeriph_Driver\src/stm32f10x_cec.c ****   * @brief  Deinitializes the CEC peripheral registers to their default reset 
 114:.\stlib\STM32F10x_StdPeriph_Driver\src/stm32f10x_cec.c ****   *         values.
 115:.\stlib\STM32F10x_StdPeriph_Driver\src/stm32f10x_cec.c ****   * @param  None
 116:.\stlib\STM32F10x_StdPeriph_Driver\src/stm32f10x_cec.c ****   * @retval None
 117:.\stlib\STM32F10x_StdPeriph_Driver\src/stm32f10x_cec.c ****   */
 118:.\stlib\STM32F10x_StdPeriph_Driver\src/stm32f10x_cec.c **** void CEC_DeInit(void)
 119:.\stlib\STM32F10x_StdPeriph_Driver\src/stm32f10x_cec.c **** {
  87              		.loc 1 119 1 view -0
  88              		.cfi_startproc
  89              		@ args = 0, pretend = 0, frame = 0
  90              		@ frame_needed = 0, uses_anonymous_args = 0
 120:.\stlib\STM32F10x_StdPeriph_Driver\src/stm32f10x_cec.c ****   /* Enable CEC reset state */
 121:.\stlib\STM32F10x_StdPeriph_Driver\src/stm32f10x_cec.c ****   RCC_APB1PeriphResetCmd(RCC_APB1Periph_CEC, ENABLE);  
  91              		.loc 1 121 3 view .LVU1
  92              	@ .\stlib\STM32F10x_StdPeriph_Driver\src\stm32f10x_cec.c:119: {
 119:.\stlib\STM32F10x_StdPeriph_Driver\src/stm32f10x_cec.c ****   /* Enable CEC reset state */
  93              		.loc 1 119 1 is_stmt 0 view .LVU2
  94 0000 08B5     		push	{r3, lr}	@
  95              	.LCFI0:
  96              		.cfi_def_cfa_offset 8
  97              		.cfi_offset 3, -8
  98              		.cfi_offset 14, -4
  99              	@ .\stlib\STM32F10x_StdPeriph_Driver\src\stm32f10x_cec.c:121:   RCC_APB1PeriphResetCmd(RCC_APB1Peri
 100              		.loc 1 121 3 view .LVU3
 101 0002 0121     		movs	r1, #1	@,
 102 0004 4FF08040 		mov	r0, #1073741824	@,
 103 0008 FFF7FEFF 		bl	RCC_APB1PeriphResetCmd		@
 104              	.LVL0:
 122:.\stlib\STM32F10x_StdPeriph_Driver\src/stm32f10x_cec.c ****   /* Release CEC from reset state */
 123:.\stlib\STM32F10x_StdPeriph_Driver\src/stm32f10x_cec.c ****   RCC_APB1PeriphResetCmd(RCC_APB1Periph_CEC, DISABLE); 
ARM GAS  C:\Users\skey\AppData\Local\Temp\ccDz30Qf.s 			page 5


 105              		.loc 1 123 3 is_stmt 1 view .LVU4
 106              	@ .\stlib\STM32F10x_StdPeriph_Driver\src\stm32f10x_cec.c:124: }
 124:.\stlib\STM32F10x_StdPeriph_Driver\src/stm32f10x_cec.c **** }
 107              		.loc 1 124 1 is_stmt 0 view .LVU5
 108 000c BDE80840 		pop	{r3, lr}	@
 109              	.LCFI1:
 110              		.cfi_restore 14
 111              		.cfi_restore 3
 112              		.cfi_def_cfa_offset 0
 113              	@ .\stlib\STM32F10x_StdPeriph_Driver\src\stm32f10x_cec.c:123:   RCC_APB1PeriphResetCmd(RCC_APB1Peri
 123:.\stlib\STM32F10x_StdPeriph_Driver\src/stm32f10x_cec.c **** }
 114              		.loc 1 123 3 view .LVU6
 115 0010 0021     		movs	r1, #0	@,
 116 0012 4FF08040 		mov	r0, #1073741824	@,
 117 0016 FFF7FEBF 		b	RCC_APB1PeriphResetCmd		@
 118              	.LVL1:
 119              		.cfi_endproc
 120              	.LFE29:
 121              		.size	CEC_DeInit, .-CEC_DeInit
 122              		.align	1
 123              		.global	CEC_Init
 124              		.syntax unified
 125              		.thumb
 126              		.thumb_func
 127              		.fpu softvfp
 128              		.type	CEC_Init, %function
 129              	CEC_Init:
 130              	.LVL2:
 131              	.LFB30:
 125:.\stlib\STM32F10x_StdPeriph_Driver\src/stm32f10x_cec.c **** 
 126:.\stlib\STM32F10x_StdPeriph_Driver\src/stm32f10x_cec.c **** 
 127:.\stlib\STM32F10x_StdPeriph_Driver\src/stm32f10x_cec.c **** /**
 128:.\stlib\STM32F10x_StdPeriph_Driver\src/stm32f10x_cec.c ****   * @brief  Initializes the CEC peripheral according to the specified 
 129:.\stlib\STM32F10x_StdPeriph_Driver\src/stm32f10x_cec.c ****   *         parameters in the CEC_InitStruct.
 130:.\stlib\STM32F10x_StdPeriph_Driver\src/stm32f10x_cec.c ****   * @param  CEC_InitStruct: pointer to an CEC_InitTypeDef structure that
 131:.\stlib\STM32F10x_StdPeriph_Driver\src/stm32f10x_cec.c ****   *         contains the configuration information for the specified
 132:.\stlib\STM32F10x_StdPeriph_Driver\src/stm32f10x_cec.c ****   *         CEC peripheral.
 133:.\stlib\STM32F10x_StdPeriph_Driver\src/stm32f10x_cec.c ****   * @retval None
 134:.\stlib\STM32F10x_StdPeriph_Driver\src/stm32f10x_cec.c ****   */
 135:.\stlib\STM32F10x_StdPeriph_Driver\src/stm32f10x_cec.c **** void CEC_Init(CEC_InitTypeDef* CEC_InitStruct)
 136:.\stlib\STM32F10x_StdPeriph_Driver\src/stm32f10x_cec.c **** {
 132              		.loc 1 136 1 is_stmt 1 view -0
 133              		.cfi_startproc
 134              		@ args = 0, pretend = 0, frame = 0
 135              		@ frame_needed = 0, uses_anonymous_args = 0
 136              		@ link register save eliminated.
 137:.\stlib\STM32F10x_StdPeriph_Driver\src/stm32f10x_cec.c ****   uint16_t tmpreg = 0;
 137              		.loc 1 137 3 view .LVU8
 138:.\stlib\STM32F10x_StdPeriph_Driver\src/stm32f10x_cec.c ****  
 139:.\stlib\STM32F10x_StdPeriph_Driver\src/stm32f10x_cec.c ****   /* Check the parameters */
 140:.\stlib\STM32F10x_StdPeriph_Driver\src/stm32f10x_cec.c ****   assert_param(IS_CEC_BIT_TIMING_ERROR_MODE(CEC_InitStruct->CEC_BitTimingMode)); 
 138              		.loc 1 140 3 view .LVU9
 141:.\stlib\STM32F10x_StdPeriph_Driver\src/stm32f10x_cec.c ****   assert_param(IS_CEC_BIT_PERIOD_ERROR_MODE(CEC_InitStruct->CEC_BitPeriodMode));
 139              		.loc 1 141 3 view .LVU10
 142:.\stlib\STM32F10x_StdPeriph_Driver\src/stm32f10x_cec.c ****      
 143:.\stlib\STM32F10x_StdPeriph_Driver\src/stm32f10x_cec.c ****   /*---------------------------- CEC CFGR Configuration -----------------*/
 144:.\stlib\STM32F10x_StdPeriph_Driver\src/stm32f10x_cec.c ****   /* Get the CEC CFGR value */
ARM GAS  C:\Users\skey\AppData\Local\Temp\ccDz30Qf.s 			page 6


 145:.\stlib\STM32F10x_StdPeriph_Driver\src/stm32f10x_cec.c ****   tmpreg = CEC->CFGR;
 140              		.loc 1 145 3 view .LVU11
 141              	@ .\stlib\STM32F10x_StdPeriph_Driver\src\stm32f10x_cec.c:145:   tmpreg = CEC->CFGR;
 142              		.loc 1 145 15 is_stmt 0 view .LVU12
 143 001a 0549     		ldr	r1, .L3	@ tmp119,
 144              	@ .\stlib\STM32F10x_StdPeriph_Driver\src\stm32f10x_cec.c:151:   tmpreg |= (uint16_t)(CEC_InitStruct
 146:.\stlib\STM32F10x_StdPeriph_Driver\src/stm32f10x_cec.c ****   
 147:.\stlib\STM32F10x_StdPeriph_Driver\src/stm32f10x_cec.c ****   /* Clear BTEM and BPEM bits */
 148:.\stlib\STM32F10x_StdPeriph_Driver\src/stm32f10x_cec.c ****   tmpreg &= CFGR_CLEAR_Mask;
 149:.\stlib\STM32F10x_StdPeriph_Driver\src/stm32f10x_cec.c ****   
 150:.\stlib\STM32F10x_StdPeriph_Driver\src/stm32f10x_cec.c ****   /* Configure CEC: Bit Timing Error and Bit Period Error */
 151:.\stlib\STM32F10x_StdPeriph_Driver\src/stm32f10x_cec.c ****   tmpreg |= (uint16_t)(CEC_InitStruct->CEC_BitTimingMode | CEC_InitStruct->CEC_BitPeriodMode);
 145              		.loc 1 151 13 view .LVU13
 146 001c 0288     		ldrh	r2, [r0]	@, CEC_InitStruct_9(D)->CEC_BitTimingMode
 147              	@ .\stlib\STM32F10x_StdPeriph_Driver\src\stm32f10x_cec.c:145:   tmpreg = CEC->CFGR;
 145:.\stlib\STM32F10x_StdPeriph_Driver\src/stm32f10x_cec.c ****   
 148              		.loc 1 145 15 view .LVU14
 149 001e 0B68     		ldr	r3, [r1]	@ _1, MEM[(struct CEC_TypeDef *)1073772544B].CFGR
 150              	.LVL3:
 148:.\stlib\STM32F10x_StdPeriph_Driver\src/stm32f10x_cec.c ****   
 151              		.loc 1 148 3 is_stmt 1 view .LVU15
 152              	@ .\stlib\STM32F10x_StdPeriph_Driver\src\stm32f10x_cec.c:151:   tmpreg |= (uint16_t)(CEC_InitStruct
 153              		.loc 1 151 13 is_stmt 0 view .LVU16
 154 0020 4088     		ldrh	r0, [r0, #2]	@, CEC_InitStruct_9(D)->CEC_BitPeriodMode
 155              	.LVL4:
 156              	@ .\stlib\STM32F10x_StdPeriph_Driver\src\stm32f10x_cec.c:148:   tmpreg &= CFGR_CLEAR_Mask;
 148:.\stlib\STM32F10x_StdPeriph_Driver\src/stm32f10x_cec.c ****   
 157              		.loc 1 148 10 view .LVU17
 158 0022 03F0F303 		and	r3, r3, #243	@ tmpreg, _1,
 159              	.LVL5:
 160              		.loc 1 151 3 is_stmt 1 view .LVU18
 152:.\stlib\STM32F10x_StdPeriph_Driver\src/stm32f10x_cec.c **** 
 153:.\stlib\STM32F10x_StdPeriph_Driver\src/stm32f10x_cec.c ****   /* Write to CEC CFGR  register*/
 154:.\stlib\STM32F10x_StdPeriph_Driver\src/stm32f10x_cec.c ****   CEC->CFGR = tmpreg;
 161              		.loc 1 154 3 view .LVU19
 162              	@ .\stlib\STM32F10x_StdPeriph_Driver\src\stm32f10x_cec.c:151:   tmpreg |= (uint16_t)(CEC_InitStruct
 151:.\stlib\STM32F10x_StdPeriph_Driver\src/stm32f10x_cec.c **** 
 163              		.loc 1 151 13 is_stmt 0 view .LVU20
 164 0026 0243     		orrs	r2, r2, r0	@, tmp123, CEC_InitStruct_9(D)->CEC_BitTimingMode, CEC_InitStruct_9(D)->CEC_BitPer
 165              	@ .\stlib\STM32F10x_StdPeriph_Driver\src\stm32f10x_cec.c:151:   tmpreg |= (uint16_t)(CEC_InitStruct
 151:.\stlib\STM32F10x_StdPeriph_Driver\src/stm32f10x_cec.c **** 
 166              		.loc 1 151 10 view .LVU21
 167 0028 1343     		orrs	r3, r3, r2	@, tmp125, tmpreg, tmp123
 168              	@ .\stlib\STM32F10x_StdPeriph_Driver\src\stm32f10x_cec.c:154:   CEC->CFGR = tmpreg;
 169              		.loc 1 154 13 view .LVU22
 170 002a 9BB2     		uxth	r3, r3	@ _5, tmp125
 171 002c 0B60     		str	r3, [r1]	@ _5, MEM[(struct CEC_TypeDef *)1073772544B].CFGR
 172              	@ .\stlib\STM32F10x_StdPeriph_Driver\src\stm32f10x_cec.c:156: }
 155:.\stlib\STM32F10x_StdPeriph_Driver\src/stm32f10x_cec.c ****   
 156:.\stlib\STM32F10x_StdPeriph_Driver\src/stm32f10x_cec.c **** }
 173              		.loc 1 156 1 view .LVU23
 174 002e 7047     		bx	lr	@
 175              	.L4:
 176              		.align	2
 177              	.L3:
 178 0030 00780040 		.word	1073772544
 179              		.cfi_endproc
ARM GAS  C:\Users\skey\AppData\Local\Temp\ccDz30Qf.s 			page 7


 180              	.LFE30:
 181              		.size	CEC_Init, .-CEC_Init
 182              		.align	1
 183              		.global	CEC_Cmd
 184              		.syntax unified
 185              		.thumb
 186              		.thumb_func
 187              		.fpu softvfp
 188              		.type	CEC_Cmd, %function
 189              	CEC_Cmd:
 190              	.LVL6:
 191              	.LFB31:
 157:.\stlib\STM32F10x_StdPeriph_Driver\src/stm32f10x_cec.c **** 
 158:.\stlib\STM32F10x_StdPeriph_Driver\src/stm32f10x_cec.c **** /**
 159:.\stlib\STM32F10x_StdPeriph_Driver\src/stm32f10x_cec.c ****   * @brief  Enables or disables the specified CEC peripheral.
 160:.\stlib\STM32F10x_StdPeriph_Driver\src/stm32f10x_cec.c ****   * @param  NewState: new state of the CEC peripheral. 
 161:.\stlib\STM32F10x_StdPeriph_Driver\src/stm32f10x_cec.c ****   *     This parameter can be: ENABLE or DISABLE.
 162:.\stlib\STM32F10x_StdPeriph_Driver\src/stm32f10x_cec.c ****   * @retval None
 163:.\stlib\STM32F10x_StdPeriph_Driver\src/stm32f10x_cec.c ****   */
 164:.\stlib\STM32F10x_StdPeriph_Driver\src/stm32f10x_cec.c **** void CEC_Cmd(FunctionalState NewState)
 165:.\stlib\STM32F10x_StdPeriph_Driver\src/stm32f10x_cec.c **** {
 192              		.loc 1 165 1 is_stmt 1 view -0
 193              		.cfi_startproc
 194              		@ args = 0, pretend = 0, frame = 0
 195              		@ frame_needed = 0, uses_anonymous_args = 0
 196              		@ link register save eliminated.
 166:.\stlib\STM32F10x_StdPeriph_Driver\src/stm32f10x_cec.c ****   /* Check the parameters */
 167:.\stlib\STM32F10x_StdPeriph_Driver\src/stm32f10x_cec.c ****   assert_param(IS_FUNCTIONAL_STATE(NewState));
 197              		.loc 1 167 3 view .LVU25
 168:.\stlib\STM32F10x_StdPeriph_Driver\src/stm32f10x_cec.c **** 
 169:.\stlib\STM32F10x_StdPeriph_Driver\src/stm32f10x_cec.c ****   *(__IO uint32_t *) CFGR_PE_BB = (uint32_t)NewState;
 198              		.loc 1 169 3 view .LVU26
 199              	@ .\stlib\STM32F10x_StdPeriph_Driver\src\stm32f10x_cec.c:169:   *(__IO uint32_t *) CFGR_PE_BB = (ui
 200              		.loc 1 169 33 is_stmt 0 view .LVU27
 201 0034 034B     		ldr	r3, .L9	@ tmp114,
 202 0036 1860     		str	r0, [r3]	@ NewState, MEM[(volatile uint32_t *)1108279296B]
 170:.\stlib\STM32F10x_StdPeriph_Driver\src/stm32f10x_cec.c **** 
 171:.\stlib\STM32F10x_StdPeriph_Driver\src/stm32f10x_cec.c ****   if(NewState == DISABLE)
 203              		.loc 1 171 3 is_stmt 1 view .LVU28
 204              	@ .\stlib\STM32F10x_StdPeriph_Driver\src\stm32f10x_cec.c:171:   if(NewState == DISABLE)
 205              		.loc 1 171 5 is_stmt 0 view .LVU29
 206 0038 18B9     		cbnz	r0, .L5	@ NewState,
 207              	@ .\stlib\STM32F10x_StdPeriph_Driver\src\stm32f10x_cec.c:174:     while((CEC->CFGR & CEC_CFGR_PE) !
 172:.\stlib\STM32F10x_StdPeriph_Driver\src/stm32f10x_cec.c ****   {
 173:.\stlib\STM32F10x_StdPeriph_Driver\src/stm32f10x_cec.c ****     /* Wait until the PE bit is cleared by hardware (Idle Line detected) */
 174:.\stlib\STM32F10x_StdPeriph_Driver\src/stm32f10x_cec.c ****     while((CEC->CFGR & CEC_CFGR_PE) != (uint32_t)RESET)
 208              		.loc 1 174 15 view .LVU30
 209 003a 034A     		ldr	r2, .L9+4	@ tmp115,
 210              	.L7:
 175:.\stlib\STM32F10x_StdPeriph_Driver\src/stm32f10x_cec.c ****     {
 176:.\stlib\STM32F10x_StdPeriph_Driver\src/stm32f10x_cec.c ****     }  
 211              		.loc 1 176 5 is_stmt 1 discriminator 1 view .LVU31
 174:.\stlib\STM32F10x_StdPeriph_Driver\src/stm32f10x_cec.c ****     {
 212              		.loc 1 174 10 discriminator 1 view .LVU32
 213              	@ .\stlib\STM32F10x_StdPeriph_Driver\src\stm32f10x_cec.c:174:     while((CEC->CFGR & CEC_CFGR_PE) !
 174:.\stlib\STM32F10x_StdPeriph_Driver\src/stm32f10x_cec.c ****     {
 214              		.loc 1 174 15 is_stmt 0 discriminator 1 view .LVU33
ARM GAS  C:\Users\skey\AppData\Local\Temp\ccDz30Qf.s 			page 8


 215 003c 1368     		ldr	r3, [r2]	@ _2, MEM[(struct CEC_TypeDef *)1073772544B].CFGR
 216              	@ .\stlib\STM32F10x_StdPeriph_Driver\src\stm32f10x_cec.c:174:     while((CEC->CFGR & CEC_CFGR_PE) !
 174:.\stlib\STM32F10x_StdPeriph_Driver\src/stm32f10x_cec.c ****     {
 217              		.loc 1 174 10 discriminator 1 view .LVU34
 218 003e DB07     		lsls	r3, r3, #31	@, _2,
 219 0040 FCD4     		bmi	.L7		@,
 220              	.L5:
 221              	@ .\stlib\STM32F10x_StdPeriph_Driver\src\stm32f10x_cec.c:178: }
 177:.\stlib\STM32F10x_StdPeriph_Driver\src/stm32f10x_cec.c ****   }  
 178:.\stlib\STM32F10x_StdPeriph_Driver\src/stm32f10x_cec.c **** }
 222              		.loc 1 178 1 view .LVU35
 223 0042 7047     		bx	lr	@
 224              	.L10:
 225              		.align	2
 226              	.L9:
 227 0044 00000F42 		.word	1108279296
 228 0048 00780040 		.word	1073772544
 229              		.cfi_endproc
 230              	.LFE31:
 231              		.size	CEC_Cmd, .-CEC_Cmd
 232              		.align	1
 233              		.global	CEC_ITConfig
 234              		.syntax unified
 235              		.thumb
 236              		.thumb_func
 237              		.fpu softvfp
 238              		.type	CEC_ITConfig, %function
 239              	CEC_ITConfig:
 240              	.LVL7:
 241              	.LFB32:
 179:.\stlib\STM32F10x_StdPeriph_Driver\src/stm32f10x_cec.c **** 
 180:.\stlib\STM32F10x_StdPeriph_Driver\src/stm32f10x_cec.c **** /**
 181:.\stlib\STM32F10x_StdPeriph_Driver\src/stm32f10x_cec.c ****   * @brief  Enables or disables the CEC interrupt.
 182:.\stlib\STM32F10x_StdPeriph_Driver\src/stm32f10x_cec.c ****   * @param  NewState: new state of the CEC interrupt.
 183:.\stlib\STM32F10x_StdPeriph_Driver\src/stm32f10x_cec.c ****   *   This parameter can be: ENABLE or DISABLE.
 184:.\stlib\STM32F10x_StdPeriph_Driver\src/stm32f10x_cec.c ****   * @retval None
 185:.\stlib\STM32F10x_StdPeriph_Driver\src/stm32f10x_cec.c ****   */
 186:.\stlib\STM32F10x_StdPeriph_Driver\src/stm32f10x_cec.c **** void CEC_ITConfig(FunctionalState NewState)
 187:.\stlib\STM32F10x_StdPeriph_Driver\src/stm32f10x_cec.c **** {
 242              		.loc 1 187 1 is_stmt 1 view -0
 243              		.cfi_startproc
 244              		@ args = 0, pretend = 0, frame = 0
 245              		@ frame_needed = 0, uses_anonymous_args = 0
 246              		@ link register save eliminated.
 188:.\stlib\STM32F10x_StdPeriph_Driver\src/stm32f10x_cec.c ****   /* Check the parameters */
 189:.\stlib\STM32F10x_StdPeriph_Driver\src/stm32f10x_cec.c ****   assert_param(IS_FUNCTIONAL_STATE(NewState));
 247              		.loc 1 189 3 view .LVU37
 190:.\stlib\STM32F10x_StdPeriph_Driver\src/stm32f10x_cec.c **** 
 191:.\stlib\STM32F10x_StdPeriph_Driver\src/stm32f10x_cec.c ****   *(__IO uint32_t *) CFGR_IE_BB = (uint32_t)NewState;
 248              		.loc 1 191 3 view .LVU38
 249              	@ .\stlib\STM32F10x_StdPeriph_Driver\src\stm32f10x_cec.c:191:   *(__IO uint32_t *) CFGR_IE_BB = (ui
 250              		.loc 1 191 33 is_stmt 0 view .LVU39
 251 004c 014B     		ldr	r3, .L12	@ tmp112,
 252 004e 1860     		str	r0, [r3]	@ NewState, MEM[(volatile uint32_t *)1108279300B]
 253              	@ .\stlib\STM32F10x_StdPeriph_Driver\src\stm32f10x_cec.c:192: }
 192:.\stlib\STM32F10x_StdPeriph_Driver\src/stm32f10x_cec.c **** }
 254              		.loc 1 192 1 view .LVU40
ARM GAS  C:\Users\skey\AppData\Local\Temp\ccDz30Qf.s 			page 9


 255 0050 7047     		bx	lr	@
 256              	.L13:
 257 0052 00BF     		.align	2
 258              	.L12:
 259 0054 04000F42 		.word	1108279300
 260              		.cfi_endproc
 261              	.LFE32:
 262              		.size	CEC_ITConfig, .-CEC_ITConfig
 263              		.align	1
 264              		.global	CEC_OwnAddressConfig
 265              		.syntax unified
 266              		.thumb
 267              		.thumb_func
 268              		.fpu softvfp
 269              		.type	CEC_OwnAddressConfig, %function
 270              	CEC_OwnAddressConfig:
 271              	.LVL8:
 272              	.LFB33:
 193:.\stlib\STM32F10x_StdPeriph_Driver\src/stm32f10x_cec.c **** 
 194:.\stlib\STM32F10x_StdPeriph_Driver\src/stm32f10x_cec.c **** /**
 195:.\stlib\STM32F10x_StdPeriph_Driver\src/stm32f10x_cec.c ****   * @brief  Defines the Own Address of the CEC device.
 196:.\stlib\STM32F10x_StdPeriph_Driver\src/stm32f10x_cec.c ****   * @param  CEC_OwnAddress: The CEC own address
 197:.\stlib\STM32F10x_StdPeriph_Driver\src/stm32f10x_cec.c ****   * @retval None
 198:.\stlib\STM32F10x_StdPeriph_Driver\src/stm32f10x_cec.c ****   */
 199:.\stlib\STM32F10x_StdPeriph_Driver\src/stm32f10x_cec.c **** void CEC_OwnAddressConfig(uint8_t CEC_OwnAddress)
 200:.\stlib\STM32F10x_StdPeriph_Driver\src/stm32f10x_cec.c **** {
 273              		.loc 1 200 1 is_stmt 1 view -0
 274              		.cfi_startproc
 275              		@ args = 0, pretend = 0, frame = 0
 276              		@ frame_needed = 0, uses_anonymous_args = 0
 277              		@ link register save eliminated.
 201:.\stlib\STM32F10x_StdPeriph_Driver\src/stm32f10x_cec.c ****   /* Check the parameters */
 202:.\stlib\STM32F10x_StdPeriph_Driver\src/stm32f10x_cec.c ****   assert_param(IS_CEC_ADDRESS(CEC_OwnAddress));
 278              		.loc 1 202 3 view .LVU42
 203:.\stlib\STM32F10x_StdPeriph_Driver\src/stm32f10x_cec.c **** 
 204:.\stlib\STM32F10x_StdPeriph_Driver\src/stm32f10x_cec.c ****   /* Set the CEC own address */
 205:.\stlib\STM32F10x_StdPeriph_Driver\src/stm32f10x_cec.c ****   CEC->OAR = CEC_OwnAddress;
 279              		.loc 1 205 3 view .LVU43
 280              	@ .\stlib\STM32F10x_StdPeriph_Driver\src\stm32f10x_cec.c:205:   CEC->OAR = CEC_OwnAddress;
 281              		.loc 1 205 12 is_stmt 0 view .LVU44
 282 0058 014B     		ldr	r3, .L15	@ tmp112,
 283 005a 5860     		str	r0, [r3, #4]	@ CEC_OwnAddress, MEM[(struct CEC_TypeDef *)1073772544B].OAR
 284              	@ .\stlib\STM32F10x_StdPeriph_Driver\src\stm32f10x_cec.c:206: }
 206:.\stlib\STM32F10x_StdPeriph_Driver\src/stm32f10x_cec.c **** }
 285              		.loc 1 206 1 view .LVU45
 286 005c 7047     		bx	lr	@
 287              	.L16:
 288 005e 00BF     		.align	2
 289              	.L15:
 290 0060 00780040 		.word	1073772544
 291              		.cfi_endproc
 292              	.LFE33:
 293              		.size	CEC_OwnAddressConfig, .-CEC_OwnAddressConfig
 294              		.align	1
 295              		.global	CEC_SetPrescaler
 296              		.syntax unified
 297              		.thumb
ARM GAS  C:\Users\skey\AppData\Local\Temp\ccDz30Qf.s 			page 10


 298              		.thumb_func
 299              		.fpu softvfp
 300              		.type	CEC_SetPrescaler, %function
 301              	CEC_SetPrescaler:
 302              	.LVL9:
 303              	.LFB34:
 207:.\stlib\STM32F10x_StdPeriph_Driver\src/stm32f10x_cec.c **** 
 208:.\stlib\STM32F10x_StdPeriph_Driver\src/stm32f10x_cec.c **** /**
 209:.\stlib\STM32F10x_StdPeriph_Driver\src/stm32f10x_cec.c ****   * @brief  Sets the CEC prescaler value.
 210:.\stlib\STM32F10x_StdPeriph_Driver\src/stm32f10x_cec.c ****   * @param  CEC_Prescaler: CEC prescaler new value
 211:.\stlib\STM32F10x_StdPeriph_Driver\src/stm32f10x_cec.c ****   * @retval None
 212:.\stlib\STM32F10x_StdPeriph_Driver\src/stm32f10x_cec.c ****   */
 213:.\stlib\STM32F10x_StdPeriph_Driver\src/stm32f10x_cec.c **** void CEC_SetPrescaler(uint16_t CEC_Prescaler)
 214:.\stlib\STM32F10x_StdPeriph_Driver\src/stm32f10x_cec.c **** {
 304              		.loc 1 214 1 is_stmt 1 view -0
 305              		.cfi_startproc
 306              		@ args = 0, pretend = 0, frame = 0
 307              		@ frame_needed = 0, uses_anonymous_args = 0
 308              		@ link register save eliminated.
 215:.\stlib\STM32F10x_StdPeriph_Driver\src/stm32f10x_cec.c ****   /* Check the parameters */
 216:.\stlib\STM32F10x_StdPeriph_Driver\src/stm32f10x_cec.c ****   assert_param(IS_CEC_PRESCALER(CEC_Prescaler));
 309              		.loc 1 216 3 view .LVU47
 217:.\stlib\STM32F10x_StdPeriph_Driver\src/stm32f10x_cec.c **** 
 218:.\stlib\STM32F10x_StdPeriph_Driver\src/stm32f10x_cec.c ****   /* Set the  Prescaler value*/
 219:.\stlib\STM32F10x_StdPeriph_Driver\src/stm32f10x_cec.c ****   CEC->PRES = CEC_Prescaler;
 310              		.loc 1 219 3 view .LVU48
 311              	@ .\stlib\STM32F10x_StdPeriph_Driver\src\stm32f10x_cec.c:219:   CEC->PRES = CEC_Prescaler;
 312              		.loc 1 219 13 is_stmt 0 view .LVU49
 313 0064 014B     		ldr	r3, .L18	@ tmp112,
 314 0066 9860     		str	r0, [r3, #8]	@ CEC_Prescaler, MEM[(struct CEC_TypeDef *)1073772544B].PRES
 315              	@ .\stlib\STM32F10x_StdPeriph_Driver\src\stm32f10x_cec.c:220: }
 220:.\stlib\STM32F10x_StdPeriph_Driver\src/stm32f10x_cec.c **** }
 316              		.loc 1 220 1 view .LVU50
 317 0068 7047     		bx	lr	@
 318              	.L19:
 319 006a 00BF     		.align	2
 320              	.L18:
 321 006c 00780040 		.word	1073772544
 322              		.cfi_endproc
 323              	.LFE34:
 324              		.size	CEC_SetPrescaler, .-CEC_SetPrescaler
 325              		.align	1
 326              		.global	CEC_SendDataByte
 327              		.syntax unified
 328              		.thumb
 329              		.thumb_func
 330              		.fpu softvfp
 331              		.type	CEC_SendDataByte, %function
 332              	CEC_SendDataByte:
 333              	.LVL10:
 334              	.LFB35:
 221:.\stlib\STM32F10x_StdPeriph_Driver\src/stm32f10x_cec.c **** 
 222:.\stlib\STM32F10x_StdPeriph_Driver\src/stm32f10x_cec.c **** /**
 223:.\stlib\STM32F10x_StdPeriph_Driver\src/stm32f10x_cec.c ****   * @brief  Transmits single data through the CEC peripheral.
 224:.\stlib\STM32F10x_StdPeriph_Driver\src/stm32f10x_cec.c ****   * @param  Data: the data to transmit.
 225:.\stlib\STM32F10x_StdPeriph_Driver\src/stm32f10x_cec.c ****   * @retval None
 226:.\stlib\STM32F10x_StdPeriph_Driver\src/stm32f10x_cec.c ****   */
ARM GAS  C:\Users\skey\AppData\Local\Temp\ccDz30Qf.s 			page 11


 227:.\stlib\STM32F10x_StdPeriph_Driver\src/stm32f10x_cec.c **** void CEC_SendDataByte(uint8_t Data)
 228:.\stlib\STM32F10x_StdPeriph_Driver\src/stm32f10x_cec.c **** {  
 335              		.loc 1 228 1 is_stmt 1 view -0
 336              		.cfi_startproc
 337              		@ args = 0, pretend = 0, frame = 0
 338              		@ frame_needed = 0, uses_anonymous_args = 0
 339              		@ link register save eliminated.
 229:.\stlib\STM32F10x_StdPeriph_Driver\src/stm32f10x_cec.c ****   /* Transmit Data */
 230:.\stlib\STM32F10x_StdPeriph_Driver\src/stm32f10x_cec.c ****   CEC->TXD = Data ;
 340              		.loc 1 230 3 view .LVU52
 341              	@ .\stlib\STM32F10x_StdPeriph_Driver\src\stm32f10x_cec.c:230:   CEC->TXD = Data ;
 342              		.loc 1 230 12 is_stmt 0 view .LVU53
 343 0070 014B     		ldr	r3, .L21	@ tmp112,
 344 0072 5861     		str	r0, [r3, #20]	@ Data, MEM[(struct CEC_TypeDef *)1073772544B].TXD
 345              	@ .\stlib\STM32F10x_StdPeriph_Driver\src\stm32f10x_cec.c:231: }
 231:.\stlib\STM32F10x_StdPeriph_Driver\src/stm32f10x_cec.c **** }
 346              		.loc 1 231 1 view .LVU54
 347 0074 7047     		bx	lr	@
 348              	.L22:
 349 0076 00BF     		.align	2
 350              	.L21:
 351 0078 00780040 		.word	1073772544
 352              		.cfi_endproc
 353              	.LFE35:
 354              		.size	CEC_SendDataByte, .-CEC_SendDataByte
 355              		.align	1
 356              		.global	CEC_ReceiveDataByte
 357              		.syntax unified
 358              		.thumb
 359              		.thumb_func
 360              		.fpu softvfp
 361              		.type	CEC_ReceiveDataByte, %function
 362              	CEC_ReceiveDataByte:
 363              	.LFB36:
 232:.\stlib\STM32F10x_StdPeriph_Driver\src/stm32f10x_cec.c **** 
 233:.\stlib\STM32F10x_StdPeriph_Driver\src/stm32f10x_cec.c **** 
 234:.\stlib\STM32F10x_StdPeriph_Driver\src/stm32f10x_cec.c **** /**
 235:.\stlib\STM32F10x_StdPeriph_Driver\src/stm32f10x_cec.c ****   * @brief  Returns the most recent received data by the CEC peripheral.
 236:.\stlib\STM32F10x_StdPeriph_Driver\src/stm32f10x_cec.c ****   * @param  None
 237:.\stlib\STM32F10x_StdPeriph_Driver\src/stm32f10x_cec.c ****   * @retval The received data.
 238:.\stlib\STM32F10x_StdPeriph_Driver\src/stm32f10x_cec.c ****   */
 239:.\stlib\STM32F10x_StdPeriph_Driver\src/stm32f10x_cec.c **** uint8_t CEC_ReceiveDataByte(void)
 240:.\stlib\STM32F10x_StdPeriph_Driver\src/stm32f10x_cec.c **** {
 364              		.loc 1 240 1 is_stmt 1 view -0
 365              		.cfi_startproc
 366              		@ args = 0, pretend = 0, frame = 0
 367              		@ frame_needed = 0, uses_anonymous_args = 0
 368              		@ link register save eliminated.
 241:.\stlib\STM32F10x_StdPeriph_Driver\src/stm32f10x_cec.c ****   /* Receive Data */
 242:.\stlib\STM32F10x_StdPeriph_Driver\src/stm32f10x_cec.c ****   return (uint8_t)(CEC->RXD);
 369              		.loc 1 242 3 view .LVU56
 370              	@ .\stlib\STM32F10x_StdPeriph_Driver\src\stm32f10x_cec.c:242:   return (uint8_t)(CEC->RXD);
 371              		.loc 1 242 23 is_stmt 0 view .LVU57
 372 007c 014B     		ldr	r3, .L24	@ tmp112,
 373 007e 9869     		ldr	r0, [r3, #24]	@ _1, MEM[(struct CEC_TypeDef *)1073772544B].RXD
 374              	@ .\stlib\STM32F10x_StdPeriph_Driver\src\stm32f10x_cec.c:243: }
 243:.\stlib\STM32F10x_StdPeriph_Driver\src/stm32f10x_cec.c **** }
ARM GAS  C:\Users\skey\AppData\Local\Temp\ccDz30Qf.s 			page 12


 375              		.loc 1 243 1 view .LVU58
 376 0080 C0B2     		uxtb	r0, r0	@, _1
 377 0082 7047     		bx	lr	@
 378              	.L25:
 379              		.align	2
 380              	.L24:
 381 0084 00780040 		.word	1073772544
 382              		.cfi_endproc
 383              	.LFE36:
 384              		.size	CEC_ReceiveDataByte, .-CEC_ReceiveDataByte
 385              		.align	1
 386              		.global	CEC_StartOfMessage
 387              		.syntax unified
 388              		.thumb
 389              		.thumb_func
 390              		.fpu softvfp
 391              		.type	CEC_StartOfMessage, %function
 392              	CEC_StartOfMessage:
 393              	.LFB37:
 244:.\stlib\STM32F10x_StdPeriph_Driver\src/stm32f10x_cec.c **** 
 245:.\stlib\STM32F10x_StdPeriph_Driver\src/stm32f10x_cec.c **** /**
 246:.\stlib\STM32F10x_StdPeriph_Driver\src/stm32f10x_cec.c ****   * @brief  Starts a new message.
 247:.\stlib\STM32F10x_StdPeriph_Driver\src/stm32f10x_cec.c ****   * @param  None
 248:.\stlib\STM32F10x_StdPeriph_Driver\src/stm32f10x_cec.c ****   * @retval None
 249:.\stlib\STM32F10x_StdPeriph_Driver\src/stm32f10x_cec.c ****   */
 250:.\stlib\STM32F10x_StdPeriph_Driver\src/stm32f10x_cec.c **** void CEC_StartOfMessage(void)
 251:.\stlib\STM32F10x_StdPeriph_Driver\src/stm32f10x_cec.c **** {  
 394              		.loc 1 251 1 is_stmt 1 view -0
 395              		.cfi_startproc
 396              		@ args = 0, pretend = 0, frame = 0
 397              		@ frame_needed = 0, uses_anonymous_args = 0
 398              		@ link register save eliminated.
 252:.\stlib\STM32F10x_StdPeriph_Driver\src/stm32f10x_cec.c ****   /* Starts of new message */
 253:.\stlib\STM32F10x_StdPeriph_Driver\src/stm32f10x_cec.c ****   *(__IO uint32_t *) CSR_TSOM_BB = (uint32_t)0x1;
 399              		.loc 1 253 3 view .LVU60
 400              	@ .\stlib\STM32F10x_StdPeriph_Driver\src\stm32f10x_cec.c:253:   *(__IO uint32_t *) CSR_TSOM_BB = (u
 401              		.loc 1 253 34 is_stmt 0 view .LVU61
 402 0088 0122     		movs	r2, #1	@ tmp111,
 403 008a 014B     		ldr	r3, .L27	@ tmp110,
 404 008c 1A60     		str	r2, [r3]	@ tmp111, MEM[(volatile uint32_t *)1108279808B]
 405              	@ .\stlib\STM32F10x_StdPeriph_Driver\src\stm32f10x_cec.c:254: }
 254:.\stlib\STM32F10x_StdPeriph_Driver\src/stm32f10x_cec.c **** }
 406              		.loc 1 254 1 view .LVU62
 407 008e 7047     		bx	lr	@
 408              	.L28:
 409              		.align	2
 410              	.L27:
 411 0090 00020F42 		.word	1108279808
 412              		.cfi_endproc
 413              	.LFE37:
 414              		.size	CEC_StartOfMessage, .-CEC_StartOfMessage
 415              		.align	1
 416              		.global	CEC_EndOfMessageCmd
 417              		.syntax unified
 418              		.thumb
 419              		.thumb_func
 420              		.fpu softvfp
ARM GAS  C:\Users\skey\AppData\Local\Temp\ccDz30Qf.s 			page 13


 421              		.type	CEC_EndOfMessageCmd, %function
 422              	CEC_EndOfMessageCmd:
 423              	.LVL11:
 424              	.LFB38:
 255:.\stlib\STM32F10x_StdPeriph_Driver\src/stm32f10x_cec.c **** 
 256:.\stlib\STM32F10x_StdPeriph_Driver\src/stm32f10x_cec.c **** /**
 257:.\stlib\STM32F10x_StdPeriph_Driver\src/stm32f10x_cec.c ****   * @brief  Transmits message with or without an EOM bit.
 258:.\stlib\STM32F10x_StdPeriph_Driver\src/stm32f10x_cec.c ****   * @param  NewState: new state of the CEC Tx End Of Message. 
 259:.\stlib\STM32F10x_StdPeriph_Driver\src/stm32f10x_cec.c ****   *     This parameter can be: ENABLE or DISABLE.
 260:.\stlib\STM32F10x_StdPeriph_Driver\src/stm32f10x_cec.c ****   * @retval None
 261:.\stlib\STM32F10x_StdPeriph_Driver\src/stm32f10x_cec.c ****   */
 262:.\stlib\STM32F10x_StdPeriph_Driver\src/stm32f10x_cec.c **** void CEC_EndOfMessageCmd(FunctionalState NewState)
 263:.\stlib\STM32F10x_StdPeriph_Driver\src/stm32f10x_cec.c **** {   
 425              		.loc 1 263 1 is_stmt 1 view -0
 426              		.cfi_startproc
 427              		@ args = 0, pretend = 0, frame = 0
 428              		@ frame_needed = 0, uses_anonymous_args = 0
 429              		@ link register save eliminated.
 264:.\stlib\STM32F10x_StdPeriph_Driver\src/stm32f10x_cec.c ****   /* Check the parameters */
 265:.\stlib\STM32F10x_StdPeriph_Driver\src/stm32f10x_cec.c ****   assert_param(IS_FUNCTIONAL_STATE(NewState));
 430              		.loc 1 265 3 view .LVU64
 266:.\stlib\STM32F10x_StdPeriph_Driver\src/stm32f10x_cec.c ****   
 267:.\stlib\STM32F10x_StdPeriph_Driver\src/stm32f10x_cec.c ****   /* The data byte will be transmitted with or without an EOM bit*/
 268:.\stlib\STM32F10x_StdPeriph_Driver\src/stm32f10x_cec.c ****   *(__IO uint32_t *) CSR_TEOM_BB = (uint32_t)NewState;
 431              		.loc 1 268 3 view .LVU65
 432              	@ .\stlib\STM32F10x_StdPeriph_Driver\src\stm32f10x_cec.c:268:   *(__IO uint32_t *) CSR_TEOM_BB = (u
 433              		.loc 1 268 34 is_stmt 0 view .LVU66
 434 0094 014B     		ldr	r3, .L30	@ tmp112,
 435 0096 1860     		str	r0, [r3]	@ NewState, MEM[(volatile uint32_t *)1108279812B]
 436              	@ .\stlib\STM32F10x_StdPeriph_Driver\src\stm32f10x_cec.c:269: }
 269:.\stlib\STM32F10x_StdPeriph_Driver\src/stm32f10x_cec.c **** }
 437              		.loc 1 269 1 view .LVU67
 438 0098 7047     		bx	lr	@
 439              	.L31:
 440 009a 00BF     		.align	2
 441              	.L30:
 442 009c 04020F42 		.word	1108279812
 443              		.cfi_endproc
 444              	.LFE38:
 445              		.size	CEC_EndOfMessageCmd, .-CEC_EndOfMessageCmd
 446              		.align	1
 447              		.global	CEC_GetFlagStatus
 448              		.syntax unified
 449              		.thumb
 450              		.thumb_func
 451              		.fpu softvfp
 452              		.type	CEC_GetFlagStatus, %function
 453              	CEC_GetFlagStatus:
 454              	.LVL12:
 455              	.LFB39:
 270:.\stlib\STM32F10x_StdPeriph_Driver\src/stm32f10x_cec.c **** 
 271:.\stlib\STM32F10x_StdPeriph_Driver\src/stm32f10x_cec.c **** /**
 272:.\stlib\STM32F10x_StdPeriph_Driver\src/stm32f10x_cec.c ****   * @brief  Gets the CEC flag status
 273:.\stlib\STM32F10x_StdPeriph_Driver\src/stm32f10x_cec.c ****   * @param  CEC_FLAG: specifies the CEC flag to check. 
 274:.\stlib\STM32F10x_StdPeriph_Driver\src/stm32f10x_cec.c ****   *   This parameter can be one of the following values:
 275:.\stlib\STM32F10x_StdPeriph_Driver\src/stm32f10x_cec.c ****   *     @arg CEC_FLAG_BTE: Bit Timing Error
 276:.\stlib\STM32F10x_StdPeriph_Driver\src/stm32f10x_cec.c ****   *     @arg CEC_FLAG_BPE: Bit Period Error
ARM GAS  C:\Users\skey\AppData\Local\Temp\ccDz30Qf.s 			page 14


 277:.\stlib\STM32F10x_StdPeriph_Driver\src/stm32f10x_cec.c ****   *     @arg CEC_FLAG_RBTFE: Rx Block Transfer Finished Error
 278:.\stlib\STM32F10x_StdPeriph_Driver\src/stm32f10x_cec.c ****   *     @arg CEC_FLAG_SBE: Start Bit Error
 279:.\stlib\STM32F10x_StdPeriph_Driver\src/stm32f10x_cec.c ****   *     @arg CEC_FLAG_ACKE: Block Acknowledge Error
 280:.\stlib\STM32F10x_StdPeriph_Driver\src/stm32f10x_cec.c ****   *     @arg CEC_FLAG_LINE: Line Error
 281:.\stlib\STM32F10x_StdPeriph_Driver\src/stm32f10x_cec.c ****   *     @arg CEC_FLAG_TBTFE: Tx Block Transfer Finished Error
 282:.\stlib\STM32F10x_StdPeriph_Driver\src/stm32f10x_cec.c ****   *     @arg CEC_FLAG_TEOM: Tx End Of Message 
 283:.\stlib\STM32F10x_StdPeriph_Driver\src/stm32f10x_cec.c ****   *     @arg CEC_FLAG_TERR: Tx Error
 284:.\stlib\STM32F10x_StdPeriph_Driver\src/stm32f10x_cec.c ****   *     @arg CEC_FLAG_TBTRF: Tx Byte Transfer Request or Block Transfer Finished
 285:.\stlib\STM32F10x_StdPeriph_Driver\src/stm32f10x_cec.c ****   *     @arg CEC_FLAG_RSOM: Rx Start Of Message
 286:.\stlib\STM32F10x_StdPeriph_Driver\src/stm32f10x_cec.c ****   *     @arg CEC_FLAG_REOM: Rx End Of Message
 287:.\stlib\STM32F10x_StdPeriph_Driver\src/stm32f10x_cec.c ****   *     @arg CEC_FLAG_RERR: Rx Error
 288:.\stlib\STM32F10x_StdPeriph_Driver\src/stm32f10x_cec.c ****   *     @arg CEC_FLAG_RBTF: Rx Byte/Block Transfer Finished
 289:.\stlib\STM32F10x_StdPeriph_Driver\src/stm32f10x_cec.c ****   * @retval The new state of CEC_FLAG (SET or RESET)
 290:.\stlib\STM32F10x_StdPeriph_Driver\src/stm32f10x_cec.c ****   */
 291:.\stlib\STM32F10x_StdPeriph_Driver\src/stm32f10x_cec.c **** FlagStatus CEC_GetFlagStatus(uint32_t CEC_FLAG) 
 292:.\stlib\STM32F10x_StdPeriph_Driver\src/stm32f10x_cec.c **** {
 456              		.loc 1 292 1 is_stmt 1 view -0
 457              		.cfi_startproc
 458              		@ args = 0, pretend = 0, frame = 0
 459              		@ frame_needed = 0, uses_anonymous_args = 0
 460              		@ link register save eliminated.
 293:.\stlib\STM32F10x_StdPeriph_Driver\src/stm32f10x_cec.c ****   FlagStatus bitstatus = RESET;
 461              		.loc 1 293 3 view .LVU69
 294:.\stlib\STM32F10x_StdPeriph_Driver\src/stm32f10x_cec.c ****   uint32_t cecreg = 0, cecbase = 0;
 462              		.loc 1 294 3 view .LVU70
 295:.\stlib\STM32F10x_StdPeriph_Driver\src/stm32f10x_cec.c ****   
 296:.\stlib\STM32F10x_StdPeriph_Driver\src/stm32f10x_cec.c ****   /* Check the parameters */
 297:.\stlib\STM32F10x_StdPeriph_Driver\src/stm32f10x_cec.c ****   assert_param(IS_CEC_GET_FLAG(CEC_FLAG));
 463              		.loc 1 297 3 view .LVU71
 298:.\stlib\STM32F10x_StdPeriph_Driver\src/stm32f10x_cec.c ****  
 299:.\stlib\STM32F10x_StdPeriph_Driver\src/stm32f10x_cec.c ****   /* Get the CEC peripheral base address */
 300:.\stlib\STM32F10x_StdPeriph_Driver\src/stm32f10x_cec.c ****   cecbase = (uint32_t)(CEC_BASE);
 464              		.loc 1 300 3 view .LVU72
 301:.\stlib\STM32F10x_StdPeriph_Driver\src/stm32f10x_cec.c ****   
 302:.\stlib\STM32F10x_StdPeriph_Driver\src/stm32f10x_cec.c ****   /* Read flag register index */
 303:.\stlib\STM32F10x_StdPeriph_Driver\src/stm32f10x_cec.c ****   cecreg = CEC_FLAG >> 28;
 465              		.loc 1 303 3 view .LVU73
 304:.\stlib\STM32F10x_StdPeriph_Driver\src/stm32f10x_cec.c ****   
 305:.\stlib\STM32F10x_StdPeriph_Driver\src/stm32f10x_cec.c ****   /* Get bit[23:0] of the flag */
 306:.\stlib\STM32F10x_StdPeriph_Driver\src/stm32f10x_cec.c ****   CEC_FLAG &= FLAG_Mask;
 466              		.loc 1 306 3 view .LVU74
 467              	@ .\stlib\STM32F10x_StdPeriph_Driver\src\stm32f10x_cec.c:308:   if(cecreg != 0)
 307:.\stlib\STM32F10x_StdPeriph_Driver\src/stm32f10x_cec.c ****   
 308:.\stlib\STM32F10x_StdPeriph_Driver\src/stm32f10x_cec.c ****   if(cecreg != 0)
 468              		.loc 1 308 5 is_stmt 0 view .LVU75
 469 00a0 020F     		lsrs	r2, r0, #28	@ tmp125, CEC_FLAG,
 470              	@ .\stlib\STM32F10x_StdPeriph_Driver\src\stm32f10x_cec.c:314:     cecbase += 0xC;
 309:.\stlib\STM32F10x_StdPeriph_Driver\src/stm32f10x_cec.c ****   {
 310:.\stlib\STM32F10x_StdPeriph_Driver\src/stm32f10x_cec.c ****     /* Flag in CEC ESR Register */
 311:.\stlib\STM32F10x_StdPeriph_Driver\src/stm32f10x_cec.c ****     CEC_FLAG = (uint32_t)(CEC_FLAG >> 16);
 312:.\stlib\STM32F10x_StdPeriph_Driver\src/stm32f10x_cec.c ****     
 313:.\stlib\STM32F10x_StdPeriph_Driver\src/stm32f10x_cec.c ****     /* Get the CEC ESR register address */
 314:.\stlib\STM32F10x_StdPeriph_Driver\src/stm32f10x_cec.c ****     cecbase += 0xC;
 471              		.loc 1 314 13 view .LVU76
 472 00a2 14BF     		ite	ne
 473 00a4 054A     		ldrne	r2, .L35	@ cecbase,
 474              	@ .\stlib\STM32F10x_StdPeriph_Driver\src\stm32f10x_cec.c:319:     cecbase += 0x10;
ARM GAS  C:\Users\skey\AppData\Local\Temp\ccDz30Qf.s 			page 15


 315:.\stlib\STM32F10x_StdPeriph_Driver\src/stm32f10x_cec.c ****   }
 316:.\stlib\STM32F10x_StdPeriph_Driver\src/stm32f10x_cec.c ****   else
 317:.\stlib\STM32F10x_StdPeriph_Driver\src/stm32f10x_cec.c ****   {
 318:.\stlib\STM32F10x_StdPeriph_Driver\src/stm32f10x_cec.c ****     /* Get the CEC CSR register address */
 319:.\stlib\STM32F10x_StdPeriph_Driver\src/stm32f10x_cec.c ****     cecbase += 0x10;
 475              		.loc 1 319 13 view .LVU77
 476 00a6 064A     		ldreq	r2, .L35+4	@ cecbase,
 477              	@ .\stlib\STM32F10x_StdPeriph_Driver\src\stm32f10x_cec.c:306:   CEC_FLAG &= FLAG_Mask;
 306:.\stlib\STM32F10x_StdPeriph_Driver\src/stm32f10x_cec.c ****   
 478              		.loc 1 306 12 view .LVU78
 479 00a8 20F07F43 		bic	r3, r0, #-16777216	@ CEC_FLAG, CEC_FLAG,
 480              	.LVL13:
 308:.\stlib\STM32F10x_StdPeriph_Driver\src/stm32f10x_cec.c ****   {
 481              		.loc 1 308 3 is_stmt 1 view .LVU79
 311:.\stlib\STM32F10x_StdPeriph_Driver\src/stm32f10x_cec.c ****     
 482              		.loc 1 311 5 view .LVU80
 483              	@ .\stlib\STM32F10x_StdPeriph_Driver\src\stm32f10x_cec.c:322:   if(((*(__IO uint32_t *)cecbase) & C
 320:.\stlib\STM32F10x_StdPeriph_Driver\src/stm32f10x_cec.c ****   }
 321:.\stlib\STM32F10x_StdPeriph_Driver\src/stm32f10x_cec.c ****   
 322:.\stlib\STM32F10x_StdPeriph_Driver\src/stm32f10x_cec.c ****   if(((*(__IO uint32_t *)cecbase) & CEC_FLAG) != (uint32_t)RESET)
 484              		.loc 1 322 8 is_stmt 0 view .LVU81
 485 00ac 1268     		ldr	r2, [r2]	@ _2, *cecbase.0_1
 486              	@ .\stlib\STM32F10x_StdPeriph_Driver\src\stm32f10x_cec.c:311:     CEC_FLAG = (uint32_t)(CEC_FLAG >>
 311:.\stlib\STM32F10x_StdPeriph_Driver\src/stm32f10x_cec.c ****     
 487              		.loc 1 311 14 view .LVU82
 488 00ae 18BF     		it	ne
 489 00b0 1B0C     		lsrne	r3, r3, #16	@ CEC_FLAG, CEC_FLAG,
 490              	.LVL14:
 314:.\stlib\STM32F10x_StdPeriph_Driver\src/stm32f10x_cec.c ****   }
 491              		.loc 1 314 5 is_stmt 1 view .LVU83
 492              		.loc 1 322 3 view .LVU84
 323:.\stlib\STM32F10x_StdPeriph_Driver\src/stm32f10x_cec.c ****   {
 324:.\stlib\STM32F10x_StdPeriph_Driver\src/stm32f10x_cec.c ****     /* CEC_FLAG is set */
 325:.\stlib\STM32F10x_StdPeriph_Driver\src/stm32f10x_cec.c ****     bitstatus = SET;
 326:.\stlib\STM32F10x_StdPeriph_Driver\src/stm32f10x_cec.c ****   }
 327:.\stlib\STM32F10x_StdPeriph_Driver\src/stm32f10x_cec.c ****   else
 328:.\stlib\STM32F10x_StdPeriph_Driver\src/stm32f10x_cec.c ****   {
 329:.\stlib\STM32F10x_StdPeriph_Driver\src/stm32f10x_cec.c ****     /* CEC_FLAG is reset */
 330:.\stlib\STM32F10x_StdPeriph_Driver\src/stm32f10x_cec.c ****     bitstatus = RESET;
 331:.\stlib\STM32F10x_StdPeriph_Driver\src/stm32f10x_cec.c ****   }
 332:.\stlib\STM32F10x_StdPeriph_Driver\src/stm32f10x_cec.c ****   
 333:.\stlib\STM32F10x_StdPeriph_Driver\src/stm32f10x_cec.c ****   /* Return the CEC_FLAG status */
 334:.\stlib\STM32F10x_StdPeriph_Driver\src/stm32f10x_cec.c ****   return  bitstatus;
 493              		.loc 1 334 3 view .LVU85
 494              	@ .\stlib\STM32F10x_StdPeriph_Driver\src\stm32f10x_cec.c:322:   if(((*(__IO uint32_t *)cecbase) & C
 322:.\stlib\STM32F10x_StdPeriph_Driver\src/stm32f10x_cec.c ****   {
 495              		.loc 1 322 5 is_stmt 0 view .LVU86
 496 00b2 1A42     		tst	r2, r3	@ _2, CEC_FLAG
 497              	@ .\stlib\STM32F10x_StdPeriph_Driver\src\stm32f10x_cec.c:335: }
 335:.\stlib\STM32F10x_StdPeriph_Driver\src/stm32f10x_cec.c **** }
 498              		.loc 1 335 1 view .LVU87
 499 00b4 14BF     		ite	ne
 500 00b6 0120     		movne	r0, #1	@,
 501              	.LVL15:
 502              		.loc 1 335 1 view .LVU88
 503 00b8 0020     		moveq	r0, #0	@,
 504 00ba 7047     		bx	lr	@
ARM GAS  C:\Users\skey\AppData\Local\Temp\ccDz30Qf.s 			page 16


 505              	.L36:
 506              		.align	2
 507              	.L35:
 508 00bc 0C780040 		.word	1073772556
 509 00c0 10780040 		.word	1073772560
 510              		.cfi_endproc
 511              	.LFE39:
 512              		.size	CEC_GetFlagStatus, .-CEC_GetFlagStatus
 513              		.align	1
 514              		.global	CEC_ClearFlag
 515              		.syntax unified
 516              		.thumb
 517              		.thumb_func
 518              		.fpu softvfp
 519              		.type	CEC_ClearFlag, %function
 520              	CEC_ClearFlag:
 521              	.LVL16:
 522              	.LFB40:
 336:.\stlib\STM32F10x_StdPeriph_Driver\src/stm32f10x_cec.c **** 
 337:.\stlib\STM32F10x_StdPeriph_Driver\src/stm32f10x_cec.c **** /**
 338:.\stlib\STM32F10x_StdPeriph_Driver\src/stm32f10x_cec.c ****   * @brief  Clears the CEC's pending flags.
 339:.\stlib\STM32F10x_StdPeriph_Driver\src/stm32f10x_cec.c ****   * @param  CEC_FLAG: specifies the flag to clear. 
 340:.\stlib\STM32F10x_StdPeriph_Driver\src/stm32f10x_cec.c ****   *   This parameter can be any combination of the following values:
 341:.\stlib\STM32F10x_StdPeriph_Driver\src/stm32f10x_cec.c ****   *     @arg CEC_FLAG_TERR: Tx Error
 342:.\stlib\STM32F10x_StdPeriph_Driver\src/stm32f10x_cec.c ****   *     @arg CEC_FLAG_TBTRF: Tx Byte Transfer Request or Block Transfer Finished
 343:.\stlib\STM32F10x_StdPeriph_Driver\src/stm32f10x_cec.c ****   *     @arg CEC_FLAG_RSOM: Rx Start Of Message
 344:.\stlib\STM32F10x_StdPeriph_Driver\src/stm32f10x_cec.c ****   *     @arg CEC_FLAG_REOM: Rx End Of Message
 345:.\stlib\STM32F10x_StdPeriph_Driver\src/stm32f10x_cec.c ****   *     @arg CEC_FLAG_RERR: Rx Error
 346:.\stlib\STM32F10x_StdPeriph_Driver\src/stm32f10x_cec.c ****   *     @arg CEC_FLAG_RBTF: Rx Byte/Block Transfer Finished
 347:.\stlib\STM32F10x_StdPeriph_Driver\src/stm32f10x_cec.c ****   * @retval None
 348:.\stlib\STM32F10x_StdPeriph_Driver\src/stm32f10x_cec.c ****   */
 349:.\stlib\STM32F10x_StdPeriph_Driver\src/stm32f10x_cec.c **** void CEC_ClearFlag(uint32_t CEC_FLAG)
 350:.\stlib\STM32F10x_StdPeriph_Driver\src/stm32f10x_cec.c **** { 
 523              		.loc 1 350 1 is_stmt 1 view -0
 524              		.cfi_startproc
 525              		@ args = 0, pretend = 0, frame = 0
 526              		@ frame_needed = 0, uses_anonymous_args = 0
 351:.\stlib\STM32F10x_StdPeriph_Driver\src/stm32f10x_cec.c ****   uint32_t tmp = 0x0;
 527              		.loc 1 351 3 view .LVU90
 352:.\stlib\STM32F10x_StdPeriph_Driver\src/stm32f10x_cec.c ****   
 353:.\stlib\STM32F10x_StdPeriph_Driver\src/stm32f10x_cec.c ****   /* Check the parameters */
 354:.\stlib\STM32F10x_StdPeriph_Driver\src/stm32f10x_cec.c ****   assert_param(IS_CEC_CLEAR_FLAG(CEC_FLAG));
 528              		.loc 1 354 3 view .LVU91
 355:.\stlib\STM32F10x_StdPeriph_Driver\src/stm32f10x_cec.c **** 
 356:.\stlib\STM32F10x_StdPeriph_Driver\src/stm32f10x_cec.c ****   tmp = CEC->CSR & 0x2;
 529              		.loc 1 356 3 view .LVU92
 530              	@ .\stlib\STM32F10x_StdPeriph_Driver\src\stm32f10x_cec.c:359:   CEC->CSR &= (uint32_t)(((~(uint32_t
 357:.\stlib\STM32F10x_StdPeriph_Driver\src/stm32f10x_cec.c ****        
 358:.\stlib\STM32F10x_StdPeriph_Driver\src/stm32f10x_cec.c ****   /* Clear the selected CEC flags */
 359:.\stlib\STM32F10x_StdPeriph_Driver\src/stm32f10x_cec.c ****   CEC->CSR &= (uint32_t)(((~(uint32_t)CEC_FLAG) & 0xFFFFFFFC) | tmp);
 531              		.loc 1 359 28 is_stmt 0 view .LVU93
 532 00c4 C343     		mvns	r3, r0	@ tmp120, tmp125
 533              	@ .\stlib\STM32F10x_StdPeriph_Driver\src\stm32f10x_cec.c:356:   tmp = CEC->CSR & 0x2;
 356:.\stlib\STM32F10x_StdPeriph_Driver\src/stm32f10x_cec.c ****        
 534              		.loc 1 356 12 view .LVU94
 535 00c6 064A     		ldr	r2, .L38	@ tmp118,
 536              	@ .\stlib\STM32F10x_StdPeriph_Driver\src\stm32f10x_cec.c:350: { 
ARM GAS  C:\Users\skey\AppData\Local\Temp\ccDz30Qf.s 			page 17


 350:.\stlib\STM32F10x_StdPeriph_Driver\src/stm32f10x_cec.c ****   uint32_t tmp = 0x0;
 537              		.loc 1 350 1 view .LVU95
 538 00c8 10B5     		push	{r4, lr}	@
 539              	.LCFI2:
 540              		.cfi_def_cfa_offset 8
 541              		.cfi_offset 4, -8
 542              		.cfi_offset 14, -4
 543              	@ .\stlib\STM32F10x_StdPeriph_Driver\src\stm32f10x_cec.c:356:   tmp = CEC->CSR & 0x2;
 356:.\stlib\STM32F10x_StdPeriph_Driver\src/stm32f10x_cec.c ****        
 544              		.loc 1 356 12 view .LVU96
 545 00ca 1169     		ldr	r1, [r2, #16]	@ _1, MEM[(struct CEC_TypeDef *)1073772544B].CSR
 546              	.LVL17:
 547              		.loc 1 359 3 is_stmt 1 view .LVU97
 548              	@ .\stlib\STM32F10x_StdPeriph_Driver\src\stm32f10x_cec.c:359:   CEC->CSR &= (uint32_t)(((~(uint32_t
 549              		.loc 1 359 49 is_stmt 0 view .LVU98
 550 00cc 23F00303 		bic	r3, r3, #3	@ tmp121, tmp120,
 551              	@ .\stlib\STM32F10x_StdPeriph_Driver\src\stm32f10x_cec.c:359:   CEC->CSR &= (uint32_t)(((~(uint32_t
 552              		.loc 1 359 12 view .LVU99
 553 00d0 1469     		ldr	r4, [r2, #16]	@ _2, MEM[(struct CEC_TypeDef *)1073772544B].CSR
 554              	@ .\stlib\STM32F10x_StdPeriph_Driver\src\stm32f10x_cec.c:356:   tmp = CEC->CSR & 0x2;
 356:.\stlib\STM32F10x_StdPeriph_Driver\src/stm32f10x_cec.c ****        
 555              		.loc 1 356 7 view .LVU100
 556 00d2 01F00201 		and	r1, r1, #2	@ tmp, _1,
 557              	.LVL18:
 558              	@ .\stlib\STM32F10x_StdPeriph_Driver\src\stm32f10x_cec.c:359:   CEC->CSR &= (uint32_t)(((~(uint32_t
 559              		.loc 1 359 15 view .LVU101
 560 00d6 0B43     		orrs	r3, r3, r1	@, tmp123, tmp121, tmp
 561              	@ .\stlib\STM32F10x_StdPeriph_Driver\src\stm32f10x_cec.c:359:   CEC->CSR &= (uint32_t)(((~(uint32_t
 562              		.loc 1 359 12 view .LVU102
 563 00d8 2340     		ands	r3, r3, r4	@, _6, tmp123, _2
 564 00da 1361     		str	r3, [r2, #16]	@ _6, MEM[(struct CEC_TypeDef *)1073772544B].CSR
 565              	@ .\stlib\STM32F10x_StdPeriph_Driver\src\stm32f10x_cec.c:360: }
 360:.\stlib\STM32F10x_StdPeriph_Driver\src/stm32f10x_cec.c **** }
 566              		.loc 1 360 1 view .LVU103
 567 00dc 10BD     		pop	{r4, pc}	@
 568              	.L39:
 569 00de 00BF     		.align	2
 570              	.L38:
 571 00e0 00780040 		.word	1073772544
 572              		.cfi_endproc
 573              	.LFE40:
 574              		.size	CEC_ClearFlag, .-CEC_ClearFlag
 575              		.align	1
 576              		.global	CEC_GetITStatus
 577              		.syntax unified
 578              		.thumb
 579              		.thumb_func
 580              		.fpu softvfp
 581              		.type	CEC_GetITStatus, %function
 582              	CEC_GetITStatus:
 583              	.LVL19:
 584              	.LFB41:
 361:.\stlib\STM32F10x_StdPeriph_Driver\src/stm32f10x_cec.c **** 
 362:.\stlib\STM32F10x_StdPeriph_Driver\src/stm32f10x_cec.c **** /**
 363:.\stlib\STM32F10x_StdPeriph_Driver\src/stm32f10x_cec.c ****   * @brief  Checks whether the specified CEC interrupt has occurred or not.
 364:.\stlib\STM32F10x_StdPeriph_Driver\src/stm32f10x_cec.c ****   * @param  CEC_IT: specifies the CEC interrupt source to check. 
 365:.\stlib\STM32F10x_StdPeriph_Driver\src/stm32f10x_cec.c ****   *   This parameter can be one of the following values:
ARM GAS  C:\Users\skey\AppData\Local\Temp\ccDz30Qf.s 			page 18


 366:.\stlib\STM32F10x_StdPeriph_Driver\src/stm32f10x_cec.c ****   *     @arg CEC_IT_TERR: Tx Error
 367:.\stlib\STM32F10x_StdPeriph_Driver\src/stm32f10x_cec.c ****   *     @arg CEC_IT_TBTF: Tx Block Transfer Finished
 368:.\stlib\STM32F10x_StdPeriph_Driver\src/stm32f10x_cec.c ****   *     @arg CEC_IT_RERR: Rx Error
 369:.\stlib\STM32F10x_StdPeriph_Driver\src/stm32f10x_cec.c ****   *     @arg CEC_IT_RBTF: Rx Block Transfer Finished
 370:.\stlib\STM32F10x_StdPeriph_Driver\src/stm32f10x_cec.c ****   * @retval The new state of CEC_IT (SET or RESET).
 371:.\stlib\STM32F10x_StdPeriph_Driver\src/stm32f10x_cec.c ****   */
 372:.\stlib\STM32F10x_StdPeriph_Driver\src/stm32f10x_cec.c **** ITStatus CEC_GetITStatus(uint8_t CEC_IT)
 373:.\stlib\STM32F10x_StdPeriph_Driver\src/stm32f10x_cec.c **** {
 585              		.loc 1 373 1 is_stmt 1 view -0
 586              		.cfi_startproc
 587              		@ args = 0, pretend = 0, frame = 0
 588              		@ frame_needed = 0, uses_anonymous_args = 0
 589              		@ link register save eliminated.
 374:.\stlib\STM32F10x_StdPeriph_Driver\src/stm32f10x_cec.c ****   ITStatus bitstatus = RESET;
 590              		.loc 1 374 3 view .LVU105
 375:.\stlib\STM32F10x_StdPeriph_Driver\src/stm32f10x_cec.c ****   uint32_t enablestatus = 0;
 591              		.loc 1 375 3 view .LVU106
 376:.\stlib\STM32F10x_StdPeriph_Driver\src/stm32f10x_cec.c ****   
 377:.\stlib\STM32F10x_StdPeriph_Driver\src/stm32f10x_cec.c ****   /* Check the parameters */
 378:.\stlib\STM32F10x_StdPeriph_Driver\src/stm32f10x_cec.c ****    assert_param(IS_CEC_GET_IT(CEC_IT));
 592              		.loc 1 378 4 view .LVU107
 379:.\stlib\STM32F10x_StdPeriph_Driver\src/stm32f10x_cec.c ****    
 380:.\stlib\STM32F10x_StdPeriph_Driver\src/stm32f10x_cec.c ****   /* Get the CEC IT enable bit status */
 381:.\stlib\STM32F10x_StdPeriph_Driver\src/stm32f10x_cec.c ****   enablestatus = (CEC->CFGR & (uint8_t)CEC_CFGR_IE) ;
 593              		.loc 1 381 3 view .LVU108
 594              	@ .\stlib\STM32F10x_StdPeriph_Driver\src\stm32f10x_cec.c:381:   enablestatus = (CEC->CFGR & (uint8_
 595              		.loc 1 381 22 is_stmt 0 view .LVU109
 596 00e4 034B     		ldr	r3, .L43	@ tmp118,
 597 00e6 1A68     		ldr	r2, [r3]	@ _1, MEM[(struct CEC_TypeDef *)1073772544B].CFGR
 598              	.LVL20:
 382:.\stlib\STM32F10x_StdPeriph_Driver\src/stm32f10x_cec.c ****   
 383:.\stlib\STM32F10x_StdPeriph_Driver\src/stm32f10x_cec.c ****   /* Check the status of the specified CEC interrupt */
 384:.\stlib\STM32F10x_StdPeriph_Driver\src/stm32f10x_cec.c ****   if (((CEC->CSR & CEC_IT) != (uint32_t)RESET) && enablestatus)
 599              		.loc 1 384 3 is_stmt 1 view .LVU110
 600              	@ .\stlib\STM32F10x_StdPeriph_Driver\src\stm32f10x_cec.c:384:   if (((CEC->CSR & CEC_IT) != (uint32
 601              		.loc 1 384 12 is_stmt 0 view .LVU111
 602 00e8 1B69     		ldr	r3, [r3, #16]	@ _2, MEM[(struct CEC_TypeDef *)1073772544B].CSR
 603              	@ .\stlib\STM32F10x_StdPeriph_Driver\src\stm32f10x_cec.c:384:   if (((CEC->CSR & CEC_IT) != (uint32
 604              		.loc 1 384 6 view .LVU112
 605 00ea 1840     		ands	r0, r0, r3	@ tmp120, tmp125, _2
 606              	.LVL21:
 607              	@ .\stlib\STM32F10x_StdPeriph_Driver\src\stm32f10x_cec.c:392:     bitstatus = RESET;
 385:.\stlib\STM32F10x_StdPeriph_Driver\src/stm32f10x_cec.c ****   {
 386:.\stlib\STM32F10x_StdPeriph_Driver\src/stm32f10x_cec.c ****     /* CEC_IT is set */
 387:.\stlib\STM32F10x_StdPeriph_Driver\src/stm32f10x_cec.c ****     bitstatus = SET;
 388:.\stlib\STM32F10x_StdPeriph_Driver\src/stm32f10x_cec.c ****   }
 389:.\stlib\STM32F10x_StdPeriph_Driver\src/stm32f10x_cec.c ****   else
 390:.\stlib\STM32F10x_StdPeriph_Driver\src/stm32f10x_cec.c ****   {
 391:.\stlib\STM32F10x_StdPeriph_Driver\src/stm32f10x_cec.c ****     /* CEC_IT is reset */
 392:.\stlib\STM32F10x_StdPeriph_Driver\src/stm32f10x_cec.c ****     bitstatus = RESET;
 608              		.loc 1 392 15 view .LVU113
 609 00ec 18BF     		it	ne
 610 00ee C2F34000 		ubfxne	r0, r2, #1, #1	@ <retval>, _1,,
 611              	.LVL22:
 393:.\stlib\STM32F10x_StdPeriph_Driver\src/stm32f10x_cec.c ****   }
 394:.\stlib\STM32F10x_StdPeriph_Driver\src/stm32f10x_cec.c ****   /* Return the CEC_IT status */
 395:.\stlib\STM32F10x_StdPeriph_Driver\src/stm32f10x_cec.c ****   return  bitstatus;
ARM GAS  C:\Users\skey\AppData\Local\Temp\ccDz30Qf.s 			page 19


 612              		.loc 1 395 3 is_stmt 1 view .LVU114
 613              	@ .\stlib\STM32F10x_StdPeriph_Driver\src\stm32f10x_cec.c:396: }
 396:.\stlib\STM32F10x_StdPeriph_Driver\src/stm32f10x_cec.c **** }
 614              		.loc 1 396 1 is_stmt 0 view .LVU115
 615 00f2 7047     		bx	lr	@
 616              	.L44:
 617              		.align	2
 618              	.L43:
 619 00f4 00780040 		.word	1073772544
 620              		.cfi_endproc
 621              	.LFE41:
 622              		.size	CEC_GetITStatus, .-CEC_GetITStatus
 623              		.align	1
 624              		.global	CEC_ClearITPendingBit
 625              		.syntax unified
 626              		.thumb
 627              		.thumb_func
 628              		.fpu softvfp
 629              		.type	CEC_ClearITPendingBit, %function
 630              	CEC_ClearITPendingBit:
 631              	.LVL23:
 632              	.LFB42:
 397:.\stlib\STM32F10x_StdPeriph_Driver\src/stm32f10x_cec.c **** 
 398:.\stlib\STM32F10x_StdPeriph_Driver\src/stm32f10x_cec.c **** /**
 399:.\stlib\STM32F10x_StdPeriph_Driver\src/stm32f10x_cec.c ****   * @brief  Clears the CEC's interrupt pending bits.
 400:.\stlib\STM32F10x_StdPeriph_Driver\src/stm32f10x_cec.c ****   * @param  CEC_IT: specifies the CEC interrupt pending bit to clear.
 401:.\stlib\STM32F10x_StdPeriph_Driver\src/stm32f10x_cec.c ****   *   This parameter can be any combination of the following values:
 402:.\stlib\STM32F10x_StdPeriph_Driver\src/stm32f10x_cec.c ****   *     @arg CEC_IT_TERR: Tx Error
 403:.\stlib\STM32F10x_StdPeriph_Driver\src/stm32f10x_cec.c ****   *     @arg CEC_IT_TBTF: Tx Block Transfer Finished
 404:.\stlib\STM32F10x_StdPeriph_Driver\src/stm32f10x_cec.c ****   *     @arg CEC_IT_RERR: Rx Error
 405:.\stlib\STM32F10x_StdPeriph_Driver\src/stm32f10x_cec.c ****   *     @arg CEC_IT_RBTF: Rx Block Transfer Finished
 406:.\stlib\STM32F10x_StdPeriph_Driver\src/stm32f10x_cec.c ****   * @retval None
 407:.\stlib\STM32F10x_StdPeriph_Driver\src/stm32f10x_cec.c ****   */
 408:.\stlib\STM32F10x_StdPeriph_Driver\src/stm32f10x_cec.c **** void CEC_ClearITPendingBit(uint16_t CEC_IT)
 409:.\stlib\STM32F10x_StdPeriph_Driver\src/stm32f10x_cec.c **** {
 633              		.loc 1 409 1 is_stmt 1 view -0
 634              		.cfi_startproc
 635              		@ args = 0, pretend = 0, frame = 0
 636              		@ frame_needed = 0, uses_anonymous_args = 0
 410:.\stlib\STM32F10x_StdPeriph_Driver\src/stm32f10x_cec.c ****   uint32_t tmp = 0x0;
 637              		.loc 1 410 3 view .LVU117
 411:.\stlib\STM32F10x_StdPeriph_Driver\src/stm32f10x_cec.c ****   
 412:.\stlib\STM32F10x_StdPeriph_Driver\src/stm32f10x_cec.c ****   /* Check the parameters */
 413:.\stlib\STM32F10x_StdPeriph_Driver\src/stm32f10x_cec.c ****   assert_param(IS_CEC_GET_IT(CEC_IT));
 638              		.loc 1 413 3 view .LVU118
 414:.\stlib\STM32F10x_StdPeriph_Driver\src/stm32f10x_cec.c ****   
 415:.\stlib\STM32F10x_StdPeriph_Driver\src/stm32f10x_cec.c ****   tmp = CEC->CSR & 0x2;
 639              		.loc 1 415 3 view .LVU119
 640              	@ .\stlib\STM32F10x_StdPeriph_Driver\src\stm32f10x_cec.c:418:   CEC->CSR &= (uint32_t)(((~(uint32_t
 416:.\stlib\STM32F10x_StdPeriph_Driver\src/stm32f10x_cec.c ****   
 417:.\stlib\STM32F10x_StdPeriph_Driver\src/stm32f10x_cec.c ****   /* Clear the selected CEC interrupt pending bits */
 418:.\stlib\STM32F10x_StdPeriph_Driver\src/stm32f10x_cec.c ****   CEC->CSR &= (uint32_t)(((~(uint32_t)CEC_IT) & 0xFFFFFFFC) | tmp);
 641              		.loc 1 418 28 is_stmt 0 view .LVU120
 642 00f8 C343     		mvns	r3, r0	@ tmp121, tmp126
 643              	@ .\stlib\STM32F10x_StdPeriph_Driver\src\stm32f10x_cec.c:415:   tmp = CEC->CSR & 0x2;
 415:.\stlib\STM32F10x_StdPeriph_Driver\src/stm32f10x_cec.c ****   
 644              		.loc 1 415 12 view .LVU121
ARM GAS  C:\Users\skey\AppData\Local\Temp\ccDz30Qf.s 			page 20


 645 00fa 064A     		ldr	r2, .L46	@ tmp119,
 646              	@ .\stlib\STM32F10x_StdPeriph_Driver\src\stm32f10x_cec.c:409: {
 409:.\stlib\STM32F10x_StdPeriph_Driver\src/stm32f10x_cec.c ****   uint32_t tmp = 0x0;
 647              		.loc 1 409 1 view .LVU122
 648 00fc 10B5     		push	{r4, lr}	@
 649              	.LCFI3:
 650              		.cfi_def_cfa_offset 8
 651              		.cfi_offset 4, -8
 652              		.cfi_offset 14, -4
 653              	@ .\stlib\STM32F10x_StdPeriph_Driver\src\stm32f10x_cec.c:415:   tmp = CEC->CSR & 0x2;
 415:.\stlib\STM32F10x_StdPeriph_Driver\src/stm32f10x_cec.c ****   
 654              		.loc 1 415 12 view .LVU123
 655 00fe 1169     		ldr	r1, [r2, #16]	@ _1, MEM[(struct CEC_TypeDef *)1073772544B].CSR
 656              	.LVL24:
 657              		.loc 1 418 3 is_stmt 1 view .LVU124
 658              	@ .\stlib\STM32F10x_StdPeriph_Driver\src\stm32f10x_cec.c:418:   CEC->CSR &= (uint32_t)(((~(uint32_t
 659              		.loc 1 418 47 is_stmt 0 view .LVU125
 660 0100 23F00303 		bic	r3, r3, #3	@ tmp122, tmp121,
 661              	@ .\stlib\STM32F10x_StdPeriph_Driver\src\stm32f10x_cec.c:418:   CEC->CSR &= (uint32_t)(((~(uint32_t
 662              		.loc 1 418 12 view .LVU126
 663 0104 1469     		ldr	r4, [r2, #16]	@ _2, MEM[(struct CEC_TypeDef *)1073772544B].CSR
 664              	@ .\stlib\STM32F10x_StdPeriph_Driver\src\stm32f10x_cec.c:415:   tmp = CEC->CSR & 0x2;
 415:.\stlib\STM32F10x_StdPeriph_Driver\src/stm32f10x_cec.c ****   
 665              		.loc 1 415 7 view .LVU127
 666 0106 01F00201 		and	r1, r1, #2	@ tmp, _1,
 667              	.LVL25:
 668              	@ .\stlib\STM32F10x_StdPeriph_Driver\src\stm32f10x_cec.c:418:   CEC->CSR &= (uint32_t)(((~(uint32_t
 669              		.loc 1 418 15 view .LVU128
 670 010a 0B43     		orrs	r3, r3, r1	@, tmp124, tmp122, tmp
 671              	@ .\stlib\STM32F10x_StdPeriph_Driver\src\stm32f10x_cec.c:418:   CEC->CSR &= (uint32_t)(((~(uint32_t
 672              		.loc 1 418 12 view .LVU129
 673 010c 2340     		ands	r3, r3, r4	@, _7, tmp124, _2
 674 010e 1361     		str	r3, [r2, #16]	@ _7, MEM[(struct CEC_TypeDef *)1073772544B].CSR
 675              	@ .\stlib\STM32F10x_StdPeriph_Driver\src\stm32f10x_cec.c:419: }
 419:.\stlib\STM32F10x_StdPeriph_Driver\src/stm32f10x_cec.c **** }
 676              		.loc 1 419 1 view .LVU130
 677 0110 10BD     		pop	{r4, pc}	@
 678              	.L47:
 679 0112 00BF     		.align	2
 680              	.L46:
 681 0114 00780040 		.word	1073772544
 682              		.cfi_endproc
 683              	.LFE42:
 684              		.size	CEC_ClearITPendingBit, .-CEC_ClearITPendingBit
 685              	.Letext0:
 686              		.file 2 "c:\\program files (x86)\\gnu tools arm embedded\\9 2019-q4-major\\arm-none-eabi\\include\
 687              		.file 3 "c:\\program files (x86)\\gnu tools arm embedded\\9 2019-q4-major\\arm-none-eabi\\include\
 688              		.file 4 ".\\stlib\\CMSIS\\CM3\\CoreSupport/core_cm3.h"
 689              		.file 5 ".\\stlib\\CMSIS\\CM3\\DeviceSupport\\ST\\STM32F10x/system_stm32f10x.h"
 690              		.file 6 ".\\stlib\\CMSIS\\CM3\\DeviceSupport\\ST\\STM32F10x/stm32f10x.h"
 691              		.file 7 ".\\stlib\\STM32F10x_StdPeriph_Driver\\inc/stm32f10x_cec.h"
 692              		.file 8 ".\\stlib\\STM32F10x_StdPeriph_Driver\\inc/stm32f10x_rcc.h"