ARM GAS  C:\Users\skey\AppData\Local\Temp\ccV8noAG.s 			page 1


   1              		.cpu cortex-m3
   2              		.eabi_attribute 20, 1	@ Tag_ABI_FP_denormal
   3              		.eabi_attribute 21, 1	@ Tag_ABI_FP_exceptions
   4              		.eabi_attribute 23, 3	@ Tag_ABI_FP_number_model
   5              		.eabi_attribute 24, 1	@ Tag_ABI_align8_needed
   6              		.eabi_attribute 25, 1	@ Tag_ABI_align8_preserved
   7              		.eabi_attribute 26, 1	@ Tag_ABI_enum_size
   8              		.eabi_attribute 30, 4	@ Tag_ABI_optimization_goals
   9              		.eabi_attribute 34, 1	@ Tag_CPU_unaligned_access
  10              		.eabi_attribute 18, 4	@ Tag_ABI_PCS_wchar_t
  11              		.file	"stm32f10x_rtc.c"
  12              	@ GNU C17 (GNU Tools for Arm Embedded Processors 9-2019-q4-major) version 9.2.1 20191025 (release) 
  13              	@	compiled by GNU C version 5.3.1 20160211, GMP version 6.1.0, MPFR version 3.1.4, MPC version 1.0.
  14              	
  15              	@ GGC heuristics: --param ggc-min-expand=100 --param ggc-min-heapsize=131072
  16              	@ options passed:  -I . -I .\usr_inc -I .\task_inc
  17              	@ -I .\stlib\CMSIS\CM3\CoreSupport
  18              	@ -I .\stlib\CMSIS\CM3\DeviceSupport\ST\STM32F10x
  19              	@ -I .\stlib\STM32F10x_StdPeriph_Driver\inc
  20              	@ -I .\stlib\STM32F10x_StdPeriph_Driver -I .\freertos\include
  21              	@ -I .\freertos\portable\GCC\ARM_CM3 -imultilib thumb/v7-m/nofp
  22              	@ -iprefix c:\program files (x86)\gnu tools arm embedded\9 2019-q4-major\bin\../lib/gcc/arm-none-ea
  23              	@ -isysroot c:\program files (x86)\gnu tools arm embedded\9 2019-q4-major\bin\../arm-none-eabi
  24              	@ -D__USES_INITFINI__ -D STM32F10X_HD -D USE_STDPERIPH_DRIVER
  25              	@ -D HSE_VALUE=8000000 -D RUN_FROM_FLASH=1
  26              	@ .\stlib\STM32F10x_StdPeriph_Driver\src\stm32f10x_rtc.c -mcpu=cortex-m3
  27              	@ -mthumb -mfloat-abi=soft -march=armv7-m
  28              	@ -auxbase-strip .\stlib\STM32F10x_StdPeriph_Driver\src\stm32f10x_rtc.o -g
  29              	@ -gdwarf-2 -Os -Wall -fomit-frame-pointer -fverbose-asm
  30              	@ options enabled:  -faggressive-loop-optimizations -fassume-phsa
  31              	@ -fauto-inc-dec -fbranch-count-reg -fcaller-saves -fcode-hoisting
  32              	@ -fcombine-stack-adjustments -fcommon -fcompare-elim -fcprop-registers
  33              	@ -fcrossjumping -fcse-follow-jumps -fdefer-pop
  34              	@ -fdelete-null-pointer-checks -fdevirtualize -fdevirtualize-speculatively
  35              	@ -fdwarf2-cfi-asm -fearly-inlining -feliminate-unused-debug-types
  36              	@ -fexpensive-optimizations -fforward-propagate -ffp-int-builtin-inexact
  37              	@ -ffunction-cse -fgcse -fgcse-lm -fgnu-runtime -fgnu-unique
  38              	@ -fguess-branch-probability -fhoist-adjacent-loads -fident -fif-conversion
  39              	@ -fif-conversion2 -findirect-inlining -finline -finline-atomics
  40              	@ -finline-functions -finline-functions-called-once
  41              	@ -finline-small-functions -fipa-bit-cp -fipa-cp -fipa-icf
  42              	@ -fipa-icf-functions -fipa-icf-variables -fipa-profile -fipa-pure-const
  43              	@ -fipa-ra -fipa-reference -fipa-reference-addressable -fipa-sra
  44              	@ -fipa-stack-alignment -fipa-vrp -fira-hoist-pressure
  45              	@ -fira-share-save-slots -fira-share-spill-slots
  46              	@ -fisolate-erroneous-paths-dereference -fivopts -fkeep-static-consts
  47              	@ -fleading-underscore -flifetime-dse -flra-remat -flto-odr-type-merging
  48              	@ -fmath-errno -fmerge-constants -fmerge-debug-strings
  49              	@ -fmove-loop-invariants -fomit-frame-pointer -foptimize-sibling-calls
  50              	@ -fpartial-inlining -fpeephole -fpeephole2 -fplt -fprefetch-loop-arrays
  51              	@ -freg-struct-return -freorder-blocks -freorder-functions
  52              	@ -frerun-cse-after-loop -fsched-critical-path-heuristic
  53              	@ -fsched-dep-count-heuristic -fsched-group-heuristic -fsched-interblock
  54              	@ -fsched-last-insn-heuristic -fsched-pressure -fsched-rank-heuristic
  55              	@ -fsched-spec -fsched-spec-insn-heuristic -fsched-stalled-insns-dep
  56              	@ -fschedule-insns2 -fsection-anchors -fsemantic-interposition
  57              	@ -fshow-column -fshrink-wrap-separate -fsigned-zeros
ARM GAS  C:\Users\skey\AppData\Local\Temp\ccV8noAG.s 			page 2


  58              	@ -fsplit-ivs-in-unroller -fsplit-wide-types -fssa-backprop -fssa-phiopt
  59              	@ -fstdarg-opt -fstore-merging -fstrict-aliasing
  60              	@ -fstrict-volatile-bitfields -fsync-libcalls -fthread-jumps
  61              	@ -ftoplevel-reorder -ftrapping-math -ftree-bit-ccp -ftree-builtin-call-dce
  62              	@ -ftree-ccp -ftree-ch -ftree-coalesce-vars -ftree-copy-prop -ftree-cselim
  63              	@ -ftree-dce -ftree-dominator-opts -ftree-dse -ftree-forwprop -ftree-fre
  64              	@ -ftree-loop-if-convert -ftree-loop-im -ftree-loop-ivcanon
  65              	@ -ftree-loop-optimize -ftree-parallelize-loops= -ftree-phiprop -ftree-pre
  66              	@ -ftree-pta -ftree-reassoc -ftree-scev-cprop -ftree-sink -ftree-slsr
  67              	@ -ftree-sra -ftree-switch-conversion -ftree-tail-merge -ftree-ter
  68              	@ -ftree-vrp -funit-at-a-time -fvar-tracking -fvar-tracking-assignments
  69              	@ -fverbose-asm -fzero-initialized-in-bss -masm-syntax-unified -mbe32
  70              	@ -mfix-cortex-m3-ldrd -mlittle-endian -mpic-data-is-text-relative
  71              	@ -msched-prolog -mthumb -munaligned-access -mvectorize-with-neon-quad
  72              	
  73              		.text
  74              	.Ltext0:
  75              		.cfi_sections	.debug_frame
  76              		.align	1
  77              		.global	RTC_ITConfig
  78              		.arch armv7-m
  79              		.syntax unified
  80              		.thumb
  81              		.thumb_func
  82              		.fpu softvfp
  83              		.type	RTC_ITConfig, %function
  84              	RTC_ITConfig:
  85              	.LVL0:
  86              	.LFB29:
  87              		.file 1 ".\\stlib\\STM32F10x_StdPeriph_Driver\\src\\stm32f10x_rtc.c"
   1:.\stlib\STM32F10x_StdPeriph_Driver\src/stm32f10x_rtc.c **** /**
   2:.\stlib\STM32F10x_StdPeriph_Driver\src/stm32f10x_rtc.c ****   ******************************************************************************
   3:.\stlib\STM32F10x_StdPeriph_Driver\src/stm32f10x_rtc.c ****   * @file    stm32f10x_rtc.c
   4:.\stlib\STM32F10x_StdPeriph_Driver\src/stm32f10x_rtc.c ****   * @author  MCD Application Team
   5:.\stlib\STM32F10x_StdPeriph_Driver\src/stm32f10x_rtc.c ****   * @version V3.5.0
   6:.\stlib\STM32F10x_StdPeriph_Driver\src/stm32f10x_rtc.c ****   * @date    11-March-2011
   7:.\stlib\STM32F10x_StdPeriph_Driver\src/stm32f10x_rtc.c ****   * @brief   This file provides all the RTC firmware functions.
   8:.\stlib\STM32F10x_StdPeriph_Driver\src/stm32f10x_rtc.c ****   ******************************************************************************
   9:.\stlib\STM32F10x_StdPeriph_Driver\src/stm32f10x_rtc.c ****   * @attention
  10:.\stlib\STM32F10x_StdPeriph_Driver\src/stm32f10x_rtc.c ****   *
  11:.\stlib\STM32F10x_StdPeriph_Driver\src/stm32f10x_rtc.c ****   * THE PRESENT FIRMWARE WHICH IS FOR GUIDANCE ONLY AIMS AT PROVIDING CUSTOMERS
  12:.\stlib\STM32F10x_StdPeriph_Driver\src/stm32f10x_rtc.c ****   * WITH CODING INFORMATION REGARDING THEIR PRODUCTS IN ORDER FOR THEM TO SAVE
  13:.\stlib\STM32F10x_StdPeriph_Driver\src/stm32f10x_rtc.c ****   * TIME. AS A RESULT, STMICROELECTRONICS SHALL NOT BE HELD LIABLE FOR ANY
  14:.\stlib\STM32F10x_StdPeriph_Driver\src/stm32f10x_rtc.c ****   * DIRECT, INDIRECT OR CONSEQUENTIAL DAMAGES WITH RESPECT TO ANY CLAIMS ARISING
  15:.\stlib\STM32F10x_StdPeriph_Driver\src/stm32f10x_rtc.c ****   * FROM THE CONTENT OF SUCH FIRMWARE AND/OR THE USE MADE BY CUSTOMERS OF THE
  16:.\stlib\STM32F10x_StdPeriph_Driver\src/stm32f10x_rtc.c ****   * CODING INFORMATION CONTAINED HEREIN IN CONNECTION WITH THEIR PRODUCTS.
  17:.\stlib\STM32F10x_StdPeriph_Driver\src/stm32f10x_rtc.c ****   *
  18:.\stlib\STM32F10x_StdPeriph_Driver\src/stm32f10x_rtc.c ****   * <h2><center>&copy; COPYRIGHT 2011 STMicroelectronics</center></h2>
  19:.\stlib\STM32F10x_StdPeriph_Driver\src/stm32f10x_rtc.c ****   ******************************************************************************
  20:.\stlib\STM32F10x_StdPeriph_Driver\src/stm32f10x_rtc.c ****   */
  21:.\stlib\STM32F10x_StdPeriph_Driver\src/stm32f10x_rtc.c **** 
  22:.\stlib\STM32F10x_StdPeriph_Driver\src/stm32f10x_rtc.c **** /* Includes ------------------------------------------------------------------*/
  23:.\stlib\STM32F10x_StdPeriph_Driver\src/stm32f10x_rtc.c **** #include "stm32f10x_rtc.h"
  24:.\stlib\STM32F10x_StdPeriph_Driver\src/stm32f10x_rtc.c **** 
  25:.\stlib\STM32F10x_StdPeriph_Driver\src/stm32f10x_rtc.c **** /** @addtogroup STM32F10x_StdPeriph_Driver
  26:.\stlib\STM32F10x_StdPeriph_Driver\src/stm32f10x_rtc.c ****   * @{
  27:.\stlib\STM32F10x_StdPeriph_Driver\src/stm32f10x_rtc.c ****   */
ARM GAS  C:\Users\skey\AppData\Local\Temp\ccV8noAG.s 			page 3


  28:.\stlib\STM32F10x_StdPeriph_Driver\src/stm32f10x_rtc.c **** 
  29:.\stlib\STM32F10x_StdPeriph_Driver\src/stm32f10x_rtc.c **** /** @defgroup RTC 
  30:.\stlib\STM32F10x_StdPeriph_Driver\src/stm32f10x_rtc.c ****   * @brief RTC driver modules
  31:.\stlib\STM32F10x_StdPeriph_Driver\src/stm32f10x_rtc.c ****   * @{
  32:.\stlib\STM32F10x_StdPeriph_Driver\src/stm32f10x_rtc.c ****   */
  33:.\stlib\STM32F10x_StdPeriph_Driver\src/stm32f10x_rtc.c **** 
  34:.\stlib\STM32F10x_StdPeriph_Driver\src/stm32f10x_rtc.c **** /** @defgroup RTC_Private_TypesDefinitions
  35:.\stlib\STM32F10x_StdPeriph_Driver\src/stm32f10x_rtc.c ****   * @{
  36:.\stlib\STM32F10x_StdPeriph_Driver\src/stm32f10x_rtc.c ****   */ 
  37:.\stlib\STM32F10x_StdPeriph_Driver\src/stm32f10x_rtc.c **** /**
  38:.\stlib\STM32F10x_StdPeriph_Driver\src/stm32f10x_rtc.c ****   * @}
  39:.\stlib\STM32F10x_StdPeriph_Driver\src/stm32f10x_rtc.c ****   */
  40:.\stlib\STM32F10x_StdPeriph_Driver\src/stm32f10x_rtc.c **** 
  41:.\stlib\STM32F10x_StdPeriph_Driver\src/stm32f10x_rtc.c **** /** @defgroup RTC_Private_Defines
  42:.\stlib\STM32F10x_StdPeriph_Driver\src/stm32f10x_rtc.c ****   * @{
  43:.\stlib\STM32F10x_StdPeriph_Driver\src/stm32f10x_rtc.c ****   */
  44:.\stlib\STM32F10x_StdPeriph_Driver\src/stm32f10x_rtc.c **** #define RTC_LSB_MASK     ((uint32_t)0x0000FFFF)  /*!< RTC LSB Mask */
  45:.\stlib\STM32F10x_StdPeriph_Driver\src/stm32f10x_rtc.c **** #define PRLH_MSB_MASK    ((uint32_t)0x000F0000)  /*!< RTC Prescaler MSB Mask */
  46:.\stlib\STM32F10x_StdPeriph_Driver\src/stm32f10x_rtc.c **** 
  47:.\stlib\STM32F10x_StdPeriph_Driver\src/stm32f10x_rtc.c **** /**
  48:.\stlib\STM32F10x_StdPeriph_Driver\src/stm32f10x_rtc.c ****   * @}
  49:.\stlib\STM32F10x_StdPeriph_Driver\src/stm32f10x_rtc.c ****   */
  50:.\stlib\STM32F10x_StdPeriph_Driver\src/stm32f10x_rtc.c **** 
  51:.\stlib\STM32F10x_StdPeriph_Driver\src/stm32f10x_rtc.c **** /** @defgroup RTC_Private_Macros
  52:.\stlib\STM32F10x_StdPeriph_Driver\src/stm32f10x_rtc.c ****   * @{
  53:.\stlib\STM32F10x_StdPeriph_Driver\src/stm32f10x_rtc.c ****   */
  54:.\stlib\STM32F10x_StdPeriph_Driver\src/stm32f10x_rtc.c **** 
  55:.\stlib\STM32F10x_StdPeriph_Driver\src/stm32f10x_rtc.c **** /**
  56:.\stlib\STM32F10x_StdPeriph_Driver\src/stm32f10x_rtc.c ****   * @}
  57:.\stlib\STM32F10x_StdPeriph_Driver\src/stm32f10x_rtc.c ****   */
  58:.\stlib\STM32F10x_StdPeriph_Driver\src/stm32f10x_rtc.c **** 
  59:.\stlib\STM32F10x_StdPeriph_Driver\src/stm32f10x_rtc.c **** /** @defgroup RTC_Private_Variables
  60:.\stlib\STM32F10x_StdPeriph_Driver\src/stm32f10x_rtc.c ****   * @{
  61:.\stlib\STM32F10x_StdPeriph_Driver\src/stm32f10x_rtc.c ****   */
  62:.\stlib\STM32F10x_StdPeriph_Driver\src/stm32f10x_rtc.c **** 
  63:.\stlib\STM32F10x_StdPeriph_Driver\src/stm32f10x_rtc.c **** /**
  64:.\stlib\STM32F10x_StdPeriph_Driver\src/stm32f10x_rtc.c ****   * @}
  65:.\stlib\STM32F10x_StdPeriph_Driver\src/stm32f10x_rtc.c ****   */
  66:.\stlib\STM32F10x_StdPeriph_Driver\src/stm32f10x_rtc.c **** 
  67:.\stlib\STM32F10x_StdPeriph_Driver\src/stm32f10x_rtc.c **** /** @defgroup RTC_Private_FunctionPrototypes
  68:.\stlib\STM32F10x_StdPeriph_Driver\src/stm32f10x_rtc.c ****   * @{
  69:.\stlib\STM32F10x_StdPeriph_Driver\src/stm32f10x_rtc.c ****   */
  70:.\stlib\STM32F10x_StdPeriph_Driver\src/stm32f10x_rtc.c **** 
  71:.\stlib\STM32F10x_StdPeriph_Driver\src/stm32f10x_rtc.c **** /**
  72:.\stlib\STM32F10x_StdPeriph_Driver\src/stm32f10x_rtc.c ****   * @}
  73:.\stlib\STM32F10x_StdPeriph_Driver\src/stm32f10x_rtc.c ****   */
  74:.\stlib\STM32F10x_StdPeriph_Driver\src/stm32f10x_rtc.c **** 
  75:.\stlib\STM32F10x_StdPeriph_Driver\src/stm32f10x_rtc.c **** /** @defgroup RTC_Private_Functions
  76:.\stlib\STM32F10x_StdPeriph_Driver\src/stm32f10x_rtc.c ****   * @{
  77:.\stlib\STM32F10x_StdPeriph_Driver\src/stm32f10x_rtc.c ****   */
  78:.\stlib\STM32F10x_StdPeriph_Driver\src/stm32f10x_rtc.c **** 
  79:.\stlib\STM32F10x_StdPeriph_Driver\src/stm32f10x_rtc.c **** /**
  80:.\stlib\STM32F10x_StdPeriph_Driver\src/stm32f10x_rtc.c ****   * @brief  Enables or disables the specified RTC interrupts.
  81:.\stlib\STM32F10x_StdPeriph_Driver\src/stm32f10x_rtc.c ****   * @param  RTC_IT: specifies the RTC interrupts sources to be enabled or disabled.
  82:.\stlib\STM32F10x_StdPeriph_Driver\src/stm32f10x_rtc.c ****   *   This parameter can be any combination of the following values:
  83:.\stlib\STM32F10x_StdPeriph_Driver\src/stm32f10x_rtc.c ****   *     @arg RTC_IT_OW: Overflow interrupt
  84:.\stlib\STM32F10x_StdPeriph_Driver\src/stm32f10x_rtc.c ****   *     @arg RTC_IT_ALR: Alarm interrupt
ARM GAS  C:\Users\skey\AppData\Local\Temp\ccV8noAG.s 			page 4


  85:.\stlib\STM32F10x_StdPeriph_Driver\src/stm32f10x_rtc.c ****   *     @arg RTC_IT_SEC: Second interrupt
  86:.\stlib\STM32F10x_StdPeriph_Driver\src/stm32f10x_rtc.c ****   * @param  NewState: new state of the specified RTC interrupts.
  87:.\stlib\STM32F10x_StdPeriph_Driver\src/stm32f10x_rtc.c ****   *   This parameter can be: ENABLE or DISABLE.
  88:.\stlib\STM32F10x_StdPeriph_Driver\src/stm32f10x_rtc.c ****   * @retval None
  89:.\stlib\STM32F10x_StdPeriph_Driver\src/stm32f10x_rtc.c ****   */
  90:.\stlib\STM32F10x_StdPeriph_Driver\src/stm32f10x_rtc.c **** void RTC_ITConfig(uint16_t RTC_IT, FunctionalState NewState)
  91:.\stlib\STM32F10x_StdPeriph_Driver\src/stm32f10x_rtc.c **** {
  88              		.loc 1 91 1 view -0
  89              		.cfi_startproc
  90              		@ args = 0, pretend = 0, frame = 0
  91              		@ frame_needed = 0, uses_anonymous_args = 0
  92              		@ link register save eliminated.
  92:.\stlib\STM32F10x_StdPeriph_Driver\src/stm32f10x_rtc.c ****   /* Check the parameters */
  93:.\stlib\STM32F10x_StdPeriph_Driver\src/stm32f10x_rtc.c ****   assert_param(IS_RTC_IT(RTC_IT));  
  93              		.loc 1 93 3 view .LVU1
  94:.\stlib\STM32F10x_StdPeriph_Driver\src/stm32f10x_rtc.c ****   assert_param(IS_FUNCTIONAL_STATE(NewState));
  94              		.loc 1 94 3 view .LVU2
  95:.\stlib\STM32F10x_StdPeriph_Driver\src/stm32f10x_rtc.c ****   
  96:.\stlib\STM32F10x_StdPeriph_Driver\src/stm32f10x_rtc.c ****   if (NewState != DISABLE)
  95              		.loc 1 96 3 view .LVU3
  96 0000 044A     		ldr	r2, .L5	@ tmp129,
  97              	@ .\stlib\STM32F10x_StdPeriph_Driver\src\stm32f10x_rtc.c:98:     RTC->CRH |= RTC_IT;
  97:.\stlib\STM32F10x_StdPeriph_Driver\src/stm32f10x_rtc.c ****   {
  98:.\stlib\STM32F10x_StdPeriph_Driver\src/stm32f10x_rtc.c ****     RTC->CRH |= RTC_IT;
  98              		.loc 1 98 14 is_stmt 0 view .LVU4
  99 0002 1388     		ldrh	r3, [r2]	@,
 100 0004 9BB2     		uxth	r3, r3	@ _1, MEM[(struct RTC_TypeDef *)1073752064B].CRH
 101              	@ .\stlib\STM32F10x_StdPeriph_Driver\src\stm32f10x_rtc.c:96:   if (NewState != DISABLE)
  96:.\stlib\STM32F10x_StdPeriph_Driver\src/stm32f10x_rtc.c ****   {
 102              		.loc 1 96 6 view .LVU5
 103 0006 11B1     		cbz	r1, .L2	@ tmp131,
 104              		.loc 1 98 5 is_stmt 1 view .LVU6
 105              	@ .\stlib\STM32F10x_StdPeriph_Driver\src\stm32f10x_rtc.c:98:     RTC->CRH |= RTC_IT;
 106              		.loc 1 98 14 is_stmt 0 view .LVU7
 107 0008 1843     		orrs	r0, r0, r3	@, _2, RTC_IT, _1
 108              	.LVL1:
 109              	.L4:
 110              	@ .\stlib\STM32F10x_StdPeriph_Driver\src\stm32f10x_rtc.c:102:     RTC->CRH &= (uint16_t)~RTC_IT;
  99:.\stlib\STM32F10x_StdPeriph_Driver\src/stm32f10x_rtc.c ****   }
 100:.\stlib\STM32F10x_StdPeriph_Driver\src/stm32f10x_rtc.c ****   else
 101:.\stlib\STM32F10x_StdPeriph_Driver\src/stm32f10x_rtc.c ****   {
 102:.\stlib\STM32F10x_StdPeriph_Driver\src/stm32f10x_rtc.c ****     RTC->CRH &= (uint16_t)~RTC_IT;
 111              		.loc 1 102 14 view .LVU8
 112 000a 1080     		strh	r0, [r2]	@ movhi	@ _5,
 113              	@ .\stlib\STM32F10x_StdPeriph_Driver\src\stm32f10x_rtc.c:104: }
 103:.\stlib\STM32F10x_StdPeriph_Driver\src/stm32f10x_rtc.c ****   }
 104:.\stlib\STM32F10x_StdPeriph_Driver\src/stm32f10x_rtc.c **** }
 114              		.loc 1 104 1 view .LVU9
 115 000c 7047     		bx	lr	@
 116              	.LVL2:
 117              	.L2:
 102:.\stlib\STM32F10x_StdPeriph_Driver\src/stm32f10x_rtc.c ****   }
 118              		.loc 1 102 5 is_stmt 1 view .LVU10
 119              	@ .\stlib\STM32F10x_StdPeriph_Driver\src\stm32f10x_rtc.c:102:     RTC->CRH &= (uint16_t)~RTC_IT;
 102:.\stlib\STM32F10x_StdPeriph_Driver\src/stm32f10x_rtc.c ****   }
 120              		.loc 1 102 14 is_stmt 0 view .LVU11
 121 000e 23EA0000 		bic	r0, r3, r0	@ _5, _3, RTC_IT
ARM GAS  C:\Users\skey\AppData\Local\Temp\ccV8noAG.s 			page 5


 122              	.LVL3:
 102:.\stlib\STM32F10x_StdPeriph_Driver\src/stm32f10x_rtc.c ****   }
 123              		.loc 1 102 14 view .LVU12
 124 0012 FAE7     		b	.L4		@
 125              	.L6:
 126              		.align	2
 127              	.L5:
 128 0014 00280040 		.word	1073752064
 129              		.cfi_endproc
 130              	.LFE29:
 131              		.size	RTC_ITConfig, .-RTC_ITConfig
 132              		.align	1
 133              		.global	RTC_EnterConfigMode
 134              		.syntax unified
 135              		.thumb
 136              		.thumb_func
 137              		.fpu softvfp
 138              		.type	RTC_EnterConfigMode, %function
 139              	RTC_EnterConfigMode:
 140              	.LFB30:
 105:.\stlib\STM32F10x_StdPeriph_Driver\src/stm32f10x_rtc.c **** 
 106:.\stlib\STM32F10x_StdPeriph_Driver\src/stm32f10x_rtc.c **** /**
 107:.\stlib\STM32F10x_StdPeriph_Driver\src/stm32f10x_rtc.c ****   * @brief  Enters the RTC configuration mode.
 108:.\stlib\STM32F10x_StdPeriph_Driver\src/stm32f10x_rtc.c ****   * @param  None
 109:.\stlib\STM32F10x_StdPeriph_Driver\src/stm32f10x_rtc.c ****   * @retval None
 110:.\stlib\STM32F10x_StdPeriph_Driver\src/stm32f10x_rtc.c ****   */
 111:.\stlib\STM32F10x_StdPeriph_Driver\src/stm32f10x_rtc.c **** void RTC_EnterConfigMode(void)
 112:.\stlib\STM32F10x_StdPeriph_Driver\src/stm32f10x_rtc.c **** {
 141              		.loc 1 112 1 is_stmt 1 view -0
 142              		.cfi_startproc
 143              		@ args = 0, pretend = 0, frame = 0
 144              		@ frame_needed = 0, uses_anonymous_args = 0
 145              		@ link register save eliminated.
 113:.\stlib\STM32F10x_StdPeriph_Driver\src/stm32f10x_rtc.c ****   /* Set the CNF flag to enter in the Configuration Mode */
 114:.\stlib\STM32F10x_StdPeriph_Driver\src/stm32f10x_rtc.c ****   RTC->CRL |= RTC_CRL_CNF;
 146              		.loc 1 114 3 view .LVU14
 147              	@ .\stlib\STM32F10x_StdPeriph_Driver\src\stm32f10x_rtc.c:114:   RTC->CRL |= RTC_CRL_CNF;
 148              		.loc 1 114 12 is_stmt 0 view .LVU15
 149 0018 034A     		ldr	r2, .L8	@ tmp112,
 150 001a 9388     		ldrh	r3, [r2, #4]	@, MEM[(struct RTC_TypeDef *)1073752064B].CRL
 151 001c 9BB2     		uxth	r3, r3	@ _1, MEM[(struct RTC_TypeDef *)1073752064B].CRL
 152 001e 43F01003 		orr	r3, r3, #16	@ _2, _1,
 153 0022 9380     		strh	r3, [r2, #4]	@ movhi	@ _2, MEM[(struct RTC_TypeDef *)1073752064B].CRL
 154              	@ .\stlib\STM32F10x_StdPeriph_Driver\src\stm32f10x_rtc.c:115: }
 115:.\stlib\STM32F10x_StdPeriph_Driver\src/stm32f10x_rtc.c **** }
 155              		.loc 1 115 1 view .LVU16
 156 0024 7047     		bx	lr	@
 157              	.L9:
 158 0026 00BF     		.align	2
 159              	.L8:
 160 0028 00280040 		.word	1073752064
 161              		.cfi_endproc
 162              	.LFE30:
 163              		.size	RTC_EnterConfigMode, .-RTC_EnterConfigMode
 164              		.align	1
 165              		.global	RTC_ExitConfigMode
 166              		.syntax unified
ARM GAS  C:\Users\skey\AppData\Local\Temp\ccV8noAG.s 			page 6


 167              		.thumb
 168              		.thumb_func
 169              		.fpu softvfp
 170              		.type	RTC_ExitConfigMode, %function
 171              	RTC_ExitConfigMode:
 172              	.LFB31:
 116:.\stlib\STM32F10x_StdPeriph_Driver\src/stm32f10x_rtc.c **** 
 117:.\stlib\STM32F10x_StdPeriph_Driver\src/stm32f10x_rtc.c **** /**
 118:.\stlib\STM32F10x_StdPeriph_Driver\src/stm32f10x_rtc.c ****   * @brief  Exits from the RTC configuration mode.
 119:.\stlib\STM32F10x_StdPeriph_Driver\src/stm32f10x_rtc.c ****   * @param  None
 120:.\stlib\STM32F10x_StdPeriph_Driver\src/stm32f10x_rtc.c ****   * @retval None
 121:.\stlib\STM32F10x_StdPeriph_Driver\src/stm32f10x_rtc.c ****   */
 122:.\stlib\STM32F10x_StdPeriph_Driver\src/stm32f10x_rtc.c **** void RTC_ExitConfigMode(void)
 123:.\stlib\STM32F10x_StdPeriph_Driver\src/stm32f10x_rtc.c **** {
 173              		.loc 1 123 1 is_stmt 1 view -0
 174              		.cfi_startproc
 175              		@ args = 0, pretend = 0, frame = 0
 176              		@ frame_needed = 0, uses_anonymous_args = 0
 177              		@ link register save eliminated.
 124:.\stlib\STM32F10x_StdPeriph_Driver\src/stm32f10x_rtc.c ****   /* Reset the CNF flag to exit from the Configuration Mode */
 125:.\stlib\STM32F10x_StdPeriph_Driver\src/stm32f10x_rtc.c ****   RTC->CRL &= (uint16_t)~((uint16_t)RTC_CRL_CNF); 
 178              		.loc 1 125 3 view .LVU18
 179              	@ .\stlib\STM32F10x_StdPeriph_Driver\src\stm32f10x_rtc.c:125:   RTC->CRL &= (uint16_t)~((uint16_t)R
 180              		.loc 1 125 12 is_stmt 0 view .LVU19
 181 002c 034A     		ldr	r2, .L11	@ tmp112,
 182 002e 9388     		ldrh	r3, [r2, #4]	@, MEM[(struct RTC_TypeDef *)1073752064B].CRL
 183 0030 23F01003 		bic	r3, r3, #16	@ _2, MEM[(struct RTC_TypeDef *)1073752064B].CRL,
 184 0034 1B04     		lsls	r3, r3, #16	@ _2, _2,
 185 0036 1B0C     		lsrs	r3, r3, #16	@ _2, _2,
 186 0038 9380     		strh	r3, [r2, #4]	@ movhi	@ _2, MEM[(struct RTC_TypeDef *)1073752064B].CRL
 187              	@ .\stlib\STM32F10x_StdPeriph_Driver\src\stm32f10x_rtc.c:126: }
 126:.\stlib\STM32F10x_StdPeriph_Driver\src/stm32f10x_rtc.c **** }
 188              		.loc 1 126 1 view .LVU20
 189 003a 7047     		bx	lr	@
 190              	.L12:
 191              		.align	2
 192              	.L11:
 193 003c 00280040 		.word	1073752064
 194              		.cfi_endproc
 195              	.LFE31:
 196              		.size	RTC_ExitConfigMode, .-RTC_ExitConfigMode
 197              		.align	1
 198              		.global	RTC_GetCounter
 199              		.syntax unified
 200              		.thumb
 201              		.thumb_func
 202              		.fpu softvfp
 203              		.type	RTC_GetCounter, %function
 204              	RTC_GetCounter:
 205              	.LFB32:
 127:.\stlib\STM32F10x_StdPeriph_Driver\src/stm32f10x_rtc.c **** 
 128:.\stlib\STM32F10x_StdPeriph_Driver\src/stm32f10x_rtc.c **** /**
 129:.\stlib\STM32F10x_StdPeriph_Driver\src/stm32f10x_rtc.c ****   * @brief  Gets the RTC counter value.
 130:.\stlib\STM32F10x_StdPeriph_Driver\src/stm32f10x_rtc.c ****   * @param  None
 131:.\stlib\STM32F10x_StdPeriph_Driver\src/stm32f10x_rtc.c ****   * @retval RTC counter value.
 132:.\stlib\STM32F10x_StdPeriph_Driver\src/stm32f10x_rtc.c ****   */
 133:.\stlib\STM32F10x_StdPeriph_Driver\src/stm32f10x_rtc.c **** uint32_t RTC_GetCounter(void)
ARM GAS  C:\Users\skey\AppData\Local\Temp\ccV8noAG.s 			page 7


 134:.\stlib\STM32F10x_StdPeriph_Driver\src/stm32f10x_rtc.c **** {
 206              		.loc 1 134 1 is_stmt 1 view -0
 207              		.cfi_startproc
 208              		@ args = 0, pretend = 0, frame = 0
 209              		@ frame_needed = 0, uses_anonymous_args = 0
 210              		@ link register save eliminated.
 135:.\stlib\STM32F10x_StdPeriph_Driver\src/stm32f10x_rtc.c ****   uint16_t tmp = 0;
 211              		.loc 1 135 3 view .LVU22
 212              	.LVL4:
 136:.\stlib\STM32F10x_StdPeriph_Driver\src/stm32f10x_rtc.c ****   tmp = RTC->CNTL;
 213              		.loc 1 136 3 view .LVU23
 214              	@ .\stlib\STM32F10x_StdPeriph_Driver\src\stm32f10x_rtc.c:136:   tmp = RTC->CNTL;
 215              		.loc 1 136 7 is_stmt 0 view .LVU24
 216 0040 034A     		ldr	r2, .L14	@ tmp116,
 217 0042 938B     		ldrh	r3, [r2, #28]	@, MEM[(struct RTC_TypeDef *)1073752064B].CNTL
 218              	@ .\stlib\STM32F10x_StdPeriph_Driver\src\stm32f10x_rtc.c:137:   return (((uint32_t)RTC->CNTH << 16 
 137:.\stlib\STM32F10x_StdPeriph_Driver\src/stm32f10x_rtc.c ****   return (((uint32_t)RTC->CNTH << 16 ) | tmp) ;
 219              		.loc 1 137 25 view .LVU25
 220 0044 108B     		ldrh	r0, [r2, #24]	@, MEM[(struct RTC_TypeDef *)1073752064B].CNTH
 221              	@ .\stlib\STM32F10x_StdPeriph_Driver\src\stm32f10x_rtc.c:136:   tmp = RTC->CNTL;
 136:.\stlib\STM32F10x_StdPeriph_Driver\src/stm32f10x_rtc.c ****   tmp = RTC->CNTL;
 222              		.loc 1 136 7 view .LVU26
 223 0046 9BB2     		uxth	r3, r3	@ tmp, MEM[(struct RTC_TypeDef *)1073752064B].CNTL
 224              	.LVL5:
 225              		.loc 1 137 3 is_stmt 1 view .LVU27
 226              	@ .\stlib\STM32F10x_StdPeriph_Driver\src\stm32f10x_rtc.c:138: }
 138:.\stlib\STM32F10x_StdPeriph_Driver\src/stm32f10x_rtc.c **** }
 227              		.loc 1 138 1 is_stmt 0 view .LVU28
 228 0048 43EA0040 		orr	r0, r3, r0, lsl #16	@, tmp, MEM[(struct RTC_TypeDef *)1073752064B].CNTH,
 229 004c 7047     		bx	lr	@
 230              	.L15:
 231 004e 00BF     		.align	2
 232              	.L14:
 233 0050 00280040 		.word	1073752064
 234              		.cfi_endproc
 235              	.LFE32:
 236              		.size	RTC_GetCounter, .-RTC_GetCounter
 237              		.align	1
 238              		.global	RTC_SetCounter
 239              		.syntax unified
 240              		.thumb
 241              		.thumb_func
 242              		.fpu softvfp
 243              		.type	RTC_SetCounter, %function
 244              	RTC_SetCounter:
 245              	.LVL6:
 246              	.LFB33:
 139:.\stlib\STM32F10x_StdPeriph_Driver\src/stm32f10x_rtc.c **** 
 140:.\stlib\STM32F10x_StdPeriph_Driver\src/stm32f10x_rtc.c **** /**
 141:.\stlib\STM32F10x_StdPeriph_Driver\src/stm32f10x_rtc.c ****   * @brief  Sets the RTC counter value.
 142:.\stlib\STM32F10x_StdPeriph_Driver\src/stm32f10x_rtc.c ****   * @param  CounterValue: RTC counter new value.
 143:.\stlib\STM32F10x_StdPeriph_Driver\src/stm32f10x_rtc.c ****   * @retval None
 144:.\stlib\STM32F10x_StdPeriph_Driver\src/stm32f10x_rtc.c ****   */
 145:.\stlib\STM32F10x_StdPeriph_Driver\src/stm32f10x_rtc.c **** void RTC_SetCounter(uint32_t CounterValue)
 146:.\stlib\STM32F10x_StdPeriph_Driver\src/stm32f10x_rtc.c **** { 
 247              		.loc 1 146 1 is_stmt 1 view -0
 248              		.cfi_startproc
ARM GAS  C:\Users\skey\AppData\Local\Temp\ccV8noAG.s 			page 8


 249              		@ args = 0, pretend = 0, frame = 0
 250              		@ frame_needed = 0, uses_anonymous_args = 0
 147:.\stlib\STM32F10x_StdPeriph_Driver\src/stm32f10x_rtc.c ****   RTC_EnterConfigMode();
 251              		.loc 1 147 3 view .LVU30
 252              	@ .\stlib\STM32F10x_StdPeriph_Driver\src\stm32f10x_rtc.c:146: { 
 146:.\stlib\STM32F10x_StdPeriph_Driver\src/stm32f10x_rtc.c ****   RTC_EnterConfigMode();
 253              		.loc 1 146 1 is_stmt 0 view .LVU31
 254 0054 08B5     		push	{r3, lr}	@
 255              	.LCFI0:
 256              		.cfi_def_cfa_offset 8
 257              		.cfi_offset 3, -8
 258              		.cfi_offset 14, -4
 259              	@ .\stlib\STM32F10x_StdPeriph_Driver\src\stm32f10x_rtc.c:147:   RTC_EnterConfigMode();
 260              		.loc 1 147 3 view .LVU32
 261 0056 FFF7FEFF 		bl	RTC_EnterConfigMode		@
 262              	.LVL7:
 148:.\stlib\STM32F10x_StdPeriph_Driver\src/stm32f10x_rtc.c ****   /* Set RTC COUNTER MSB word */
 149:.\stlib\STM32F10x_StdPeriph_Driver\src/stm32f10x_rtc.c ****   RTC->CNTH = CounterValue >> 16;
 263              		.loc 1 149 3 is_stmt 1 view .LVU33
 264              	@ .\stlib\STM32F10x_StdPeriph_Driver\src\stm32f10x_rtc.c:149:   RTC->CNTH = CounterValue >> 16;
 265              		.loc 1 149 13 is_stmt 0 view .LVU34
 266 005a 044B     		ldr	r3, .L17	@ tmp115,
 267 005c 020C     		lsrs	r2, r0, #16	@ _2, CounterValue,
 268              	@ .\stlib\STM32F10x_StdPeriph_Driver\src\stm32f10x_rtc.c:151:   RTC->CNTL = (CounterValue & RTC_LSB
 150:.\stlib\STM32F10x_StdPeriph_Driver\src/stm32f10x_rtc.c ****   /* Set RTC COUNTER LSB word */
 151:.\stlib\STM32F10x_StdPeriph_Driver\src/stm32f10x_rtc.c ****   RTC->CNTL = (CounterValue & RTC_LSB_MASK);
 269              		.loc 1 151 13 view .LVU35
 270 005e 80B2     		uxth	r0, r0	@ _3, CounterValue
 271              	.LVL8:
 272              	@ .\stlib\STM32F10x_StdPeriph_Driver\src\stm32f10x_rtc.c:149:   RTC->CNTH = CounterValue >> 16;
 149:.\stlib\STM32F10x_StdPeriph_Driver\src/stm32f10x_rtc.c ****   /* Set RTC COUNTER LSB word */
 273              		.loc 1 149 13 view .LVU36
 274 0060 1A83     		strh	r2, [r3, #24]	@ movhi	@ _2, MEM[(struct RTC_TypeDef *)1073752064B].CNTH
 275              		.loc 1 151 3 is_stmt 1 view .LVU37
 276              	@ .\stlib\STM32F10x_StdPeriph_Driver\src\stm32f10x_rtc.c:151:   RTC->CNTL = (CounterValue & RTC_LSB
 277              		.loc 1 151 13 is_stmt 0 view .LVU38
 278 0062 9883     		strh	r0, [r3, #28]	@ movhi	@ _3, MEM[(struct RTC_TypeDef *)1073752064B].CNTL
 152:.\stlib\STM32F10x_StdPeriph_Driver\src/stm32f10x_rtc.c ****   RTC_ExitConfigMode();
 279              		.loc 1 152 3 is_stmt 1 view .LVU39
 280              	@ .\stlib\STM32F10x_StdPeriph_Driver\src\stm32f10x_rtc.c:153: }
 153:.\stlib\STM32F10x_StdPeriph_Driver\src/stm32f10x_rtc.c **** }
 281              		.loc 1 153 1 is_stmt 0 view .LVU40
 282 0064 BDE80840 		pop	{r3, lr}	@
 283              	.LCFI1:
 284              		.cfi_restore 14
 285              		.cfi_restore 3
 286              		.cfi_def_cfa_offset 0
 287              	@ .\stlib\STM32F10x_StdPeriph_Driver\src\stm32f10x_rtc.c:152:   RTC_ExitConfigMode();
 152:.\stlib\STM32F10x_StdPeriph_Driver\src/stm32f10x_rtc.c ****   RTC_ExitConfigMode();
 288              		.loc 1 152 3 view .LVU41
 289 0068 FFF7FEBF 		b	RTC_ExitConfigMode		@
 290              	.LVL9:
 291              	.L18:
 292              		.align	2
 293              	.L17:
 294 006c 00280040 		.word	1073752064
 295              		.cfi_endproc
ARM GAS  C:\Users\skey\AppData\Local\Temp\ccV8noAG.s 			page 9


 296              	.LFE33:
 297              		.size	RTC_SetCounter, .-RTC_SetCounter
 298              		.align	1
 299              		.global	RTC_SetPrescaler
 300              		.syntax unified
 301              		.thumb
 302              		.thumb_func
 303              		.fpu softvfp
 304              		.type	RTC_SetPrescaler, %function
 305              	RTC_SetPrescaler:
 306              	.LVL10:
 307              	.LFB34:
 154:.\stlib\STM32F10x_StdPeriph_Driver\src/stm32f10x_rtc.c **** 
 155:.\stlib\STM32F10x_StdPeriph_Driver\src/stm32f10x_rtc.c **** /**
 156:.\stlib\STM32F10x_StdPeriph_Driver\src/stm32f10x_rtc.c ****   * @brief  Sets the RTC prescaler value.
 157:.\stlib\STM32F10x_StdPeriph_Driver\src/stm32f10x_rtc.c ****   * @param  PrescalerValue: RTC prescaler new value.
 158:.\stlib\STM32F10x_StdPeriph_Driver\src/stm32f10x_rtc.c ****   * @retval None
 159:.\stlib\STM32F10x_StdPeriph_Driver\src/stm32f10x_rtc.c ****   */
 160:.\stlib\STM32F10x_StdPeriph_Driver\src/stm32f10x_rtc.c **** void RTC_SetPrescaler(uint32_t PrescalerValue)
 161:.\stlib\STM32F10x_StdPeriph_Driver\src/stm32f10x_rtc.c **** {
 308              		.loc 1 161 1 is_stmt 1 view -0
 309              		.cfi_startproc
 310              		@ args = 0, pretend = 0, frame = 0
 311              		@ frame_needed = 0, uses_anonymous_args = 0
 162:.\stlib\STM32F10x_StdPeriph_Driver\src/stm32f10x_rtc.c ****   /* Check the parameters */
 163:.\stlib\STM32F10x_StdPeriph_Driver\src/stm32f10x_rtc.c ****   assert_param(IS_RTC_PRESCALER(PrescalerValue));
 312              		.loc 1 163 3 view .LVU43
 164:.\stlib\STM32F10x_StdPeriph_Driver\src/stm32f10x_rtc.c ****   
 165:.\stlib\STM32F10x_StdPeriph_Driver\src/stm32f10x_rtc.c ****   RTC_EnterConfigMode();
 313              		.loc 1 165 3 view .LVU44
 314              	@ .\stlib\STM32F10x_StdPeriph_Driver\src\stm32f10x_rtc.c:161: {
 161:.\stlib\STM32F10x_StdPeriph_Driver\src/stm32f10x_rtc.c ****   /* Check the parameters */
 315              		.loc 1 161 1 is_stmt 0 view .LVU45
 316 0070 08B5     		push	{r3, lr}	@
 317              	.LCFI2:
 318              		.cfi_def_cfa_offset 8
 319              		.cfi_offset 3, -8
 320              		.cfi_offset 14, -4
 321              	@ .\stlib\STM32F10x_StdPeriph_Driver\src\stm32f10x_rtc.c:165:   RTC_EnterConfigMode();
 322              		.loc 1 165 3 view .LVU46
 323 0072 FFF7FEFF 		bl	RTC_EnterConfigMode		@
 324              	.LVL11:
 166:.\stlib\STM32F10x_StdPeriph_Driver\src/stm32f10x_rtc.c ****   /* Set RTC PRESCALER MSB word */
 167:.\stlib\STM32F10x_StdPeriph_Driver\src/stm32f10x_rtc.c ****   RTC->PRLH = (PrescalerValue & PRLH_MSB_MASK) >> 16;
 325              		.loc 1 167 3 is_stmt 1 view .LVU47
 326              	@ .\stlib\STM32F10x_StdPeriph_Driver\src\stm32f10x_rtc.c:167:   RTC->PRLH = (PrescalerValue & PRLH_
 327              		.loc 1 167 13 is_stmt 0 view .LVU48
 328 0076 054B     		ldr	r3, .L20	@ tmp118,
 329              	@ .\stlib\STM32F10x_StdPeriph_Driver\src\stm32f10x_rtc.c:167:   RTC->PRLH = (PrescalerValue & PRLH_
 330              		.loc 1 167 48 view .LVU49
 331 0078 C0F30342 		ubfx	r2, r0, #16, #4	@ _3, PrescalerValue,,
 332              	@ .\stlib\STM32F10x_StdPeriph_Driver\src\stm32f10x_rtc.c:169:   RTC->PRLL = (PrescalerValue & RTC_L
 168:.\stlib\STM32F10x_StdPeriph_Driver\src/stm32f10x_rtc.c ****   /* Set RTC PRESCALER LSB word */
 169:.\stlib\STM32F10x_StdPeriph_Driver\src/stm32f10x_rtc.c ****   RTC->PRLL = (PrescalerValue & RTC_LSB_MASK);
 333              		.loc 1 169 13 view .LVU50
 334 007c 80B2     		uxth	r0, r0	@ _4, PrescalerValue
 335              	.LVL12:
ARM GAS  C:\Users\skey\AppData\Local\Temp\ccV8noAG.s 			page 10


 336              	@ .\stlib\STM32F10x_StdPeriph_Driver\src\stm32f10x_rtc.c:167:   RTC->PRLH = (PrescalerValue & PRLH_
 167:.\stlib\STM32F10x_StdPeriph_Driver\src/stm32f10x_rtc.c ****   /* Set RTC PRESCALER LSB word */
 337              		.loc 1 167 13 view .LVU51
 338 007e 1A81     		strh	r2, [r3, #8]	@ movhi	@ _3, MEM[(struct RTC_TypeDef *)1073752064B].PRLH
 339              		.loc 1 169 3 is_stmt 1 view .LVU52
 340              	@ .\stlib\STM32F10x_StdPeriph_Driver\src\stm32f10x_rtc.c:169:   RTC->PRLL = (PrescalerValue & RTC_L
 341              		.loc 1 169 13 is_stmt 0 view .LVU53
 342 0080 9881     		strh	r0, [r3, #12]	@ movhi	@ _4, MEM[(struct RTC_TypeDef *)1073752064B].PRLL
 170:.\stlib\STM32F10x_StdPeriph_Driver\src/stm32f10x_rtc.c ****   RTC_ExitConfigMode();
 343              		.loc 1 170 3 is_stmt 1 view .LVU54
 344              	@ .\stlib\STM32F10x_StdPeriph_Driver\src\stm32f10x_rtc.c:171: }
 171:.\stlib\STM32F10x_StdPeriph_Driver\src/stm32f10x_rtc.c **** }
 345              		.loc 1 171 1 is_stmt 0 view .LVU55
 346 0082 BDE80840 		pop	{r3, lr}	@
 347              	.LCFI3:
 348              		.cfi_restore 14
 349              		.cfi_restore 3
 350              		.cfi_def_cfa_offset 0
 351              	@ .\stlib\STM32F10x_StdPeriph_Driver\src\stm32f10x_rtc.c:170:   RTC_ExitConfigMode();
 170:.\stlib\STM32F10x_StdPeriph_Driver\src/stm32f10x_rtc.c ****   RTC_ExitConfigMode();
 352              		.loc 1 170 3 view .LVU56
 353 0086 FFF7FEBF 		b	RTC_ExitConfigMode		@
 354              	.LVL13:
 355              	.L21:
 356 008a 00BF     		.align	2
 357              	.L20:
 358 008c 00280040 		.word	1073752064
 359              		.cfi_endproc
 360              	.LFE34:
 361              		.size	RTC_SetPrescaler, .-RTC_SetPrescaler
 362              		.align	1
 363              		.global	RTC_SetAlarm
 364              		.syntax unified
 365              		.thumb
 366              		.thumb_func
 367              		.fpu softvfp
 368              		.type	RTC_SetAlarm, %function
 369              	RTC_SetAlarm:
 370              	.LVL14:
 371              	.LFB35:
 172:.\stlib\STM32F10x_StdPeriph_Driver\src/stm32f10x_rtc.c **** 
 173:.\stlib\STM32F10x_StdPeriph_Driver\src/stm32f10x_rtc.c **** /**
 174:.\stlib\STM32F10x_StdPeriph_Driver\src/stm32f10x_rtc.c ****   * @brief  Sets the RTC alarm value.
 175:.\stlib\STM32F10x_StdPeriph_Driver\src/stm32f10x_rtc.c ****   * @param  AlarmValue: RTC alarm new value.
 176:.\stlib\STM32F10x_StdPeriph_Driver\src/stm32f10x_rtc.c ****   * @retval None
 177:.\stlib\STM32F10x_StdPeriph_Driver\src/stm32f10x_rtc.c ****   */
 178:.\stlib\STM32F10x_StdPeriph_Driver\src/stm32f10x_rtc.c **** void RTC_SetAlarm(uint32_t AlarmValue)
 179:.\stlib\STM32F10x_StdPeriph_Driver\src/stm32f10x_rtc.c **** {  
 372              		.loc 1 179 1 is_stmt 1 view -0
 373              		.cfi_startproc
 374              		@ args = 0, pretend = 0, frame = 0
 375              		@ frame_needed = 0, uses_anonymous_args = 0
 180:.\stlib\STM32F10x_StdPeriph_Driver\src/stm32f10x_rtc.c ****   RTC_EnterConfigMode();
 376              		.loc 1 180 3 view .LVU58
 377              	@ .\stlib\STM32F10x_StdPeriph_Driver\src\stm32f10x_rtc.c:179: {  
 179:.\stlib\STM32F10x_StdPeriph_Driver\src/stm32f10x_rtc.c ****   RTC_EnterConfigMode();
 378              		.loc 1 179 1 is_stmt 0 view .LVU59
ARM GAS  C:\Users\skey\AppData\Local\Temp\ccV8noAG.s 			page 11


 379 0090 08B5     		push	{r3, lr}	@
 380              	.LCFI4:
 381              		.cfi_def_cfa_offset 8
 382              		.cfi_offset 3, -8
 383              		.cfi_offset 14, -4
 384              	@ .\stlib\STM32F10x_StdPeriph_Driver\src\stm32f10x_rtc.c:180:   RTC_EnterConfigMode();
 385              		.loc 1 180 3 view .LVU60
 386 0092 FFF7FEFF 		bl	RTC_EnterConfigMode		@
 387              	.LVL15:
 181:.\stlib\STM32F10x_StdPeriph_Driver\src/stm32f10x_rtc.c ****   /* Set the ALARM MSB word */
 182:.\stlib\STM32F10x_StdPeriph_Driver\src/stm32f10x_rtc.c ****   RTC->ALRH = AlarmValue >> 16;
 388              		.loc 1 182 3 is_stmt 1 view .LVU61
 389              	@ .\stlib\STM32F10x_StdPeriph_Driver\src\stm32f10x_rtc.c:182:   RTC->ALRH = AlarmValue >> 16;
 390              		.loc 1 182 13 is_stmt 0 view .LVU62
 391 0096 044B     		ldr	r3, .L23	@ tmp115,
 392 0098 020C     		lsrs	r2, r0, #16	@ _2, AlarmValue,
 393              	@ .\stlib\STM32F10x_StdPeriph_Driver\src\stm32f10x_rtc.c:184:   RTC->ALRL = (AlarmValue & RTC_LSB_M
 183:.\stlib\STM32F10x_StdPeriph_Driver\src/stm32f10x_rtc.c ****   /* Set the ALARM LSB word */
 184:.\stlib\STM32F10x_StdPeriph_Driver\src/stm32f10x_rtc.c ****   RTC->ALRL = (AlarmValue & RTC_LSB_MASK);
 394              		.loc 1 184 13 view .LVU63
 395 009a 80B2     		uxth	r0, r0	@ _3, AlarmValue
 396              	.LVL16:
 397              	@ .\stlib\STM32F10x_StdPeriph_Driver\src\stm32f10x_rtc.c:182:   RTC->ALRH = AlarmValue >> 16;
 182:.\stlib\STM32F10x_StdPeriph_Driver\src/stm32f10x_rtc.c ****   /* Set the ALARM LSB word */
 398              		.loc 1 182 13 view .LVU64
 399 009c 1A84     		strh	r2, [r3, #32]	@ movhi	@ _2, MEM[(struct RTC_TypeDef *)1073752064B].ALRH
 400              		.loc 1 184 3 is_stmt 1 view .LVU65
 401              	@ .\stlib\STM32F10x_StdPeriph_Driver\src\stm32f10x_rtc.c:184:   RTC->ALRL = (AlarmValue & RTC_LSB_M
 402              		.loc 1 184 13 is_stmt 0 view .LVU66
 403 009e 9884     		strh	r0, [r3, #36]	@ movhi	@ _3, MEM[(struct RTC_TypeDef *)1073752064B].ALRL
 185:.\stlib\STM32F10x_StdPeriph_Driver\src/stm32f10x_rtc.c ****   RTC_ExitConfigMode();
 404              		.loc 1 185 3 is_stmt 1 view .LVU67
 405              	@ .\stlib\STM32F10x_StdPeriph_Driver\src\stm32f10x_rtc.c:186: }
 186:.\stlib\STM32F10x_StdPeriph_Driver\src/stm32f10x_rtc.c **** }
 406              		.loc 1 186 1 is_stmt 0 view .LVU68
 407 00a0 BDE80840 		pop	{r3, lr}	@
 408              	.LCFI5:
 409              		.cfi_restore 14
 410              		.cfi_restore 3
 411              		.cfi_def_cfa_offset 0
 412              	@ .\stlib\STM32F10x_StdPeriph_Driver\src\stm32f10x_rtc.c:185:   RTC_ExitConfigMode();
 185:.\stlib\STM32F10x_StdPeriph_Driver\src/stm32f10x_rtc.c ****   RTC_ExitConfigMode();
 413              		.loc 1 185 3 view .LVU69
 414 00a4 FFF7FEBF 		b	RTC_ExitConfigMode		@
 415              	.LVL17:
 416              	.L24:
 417              		.align	2
 418              	.L23:
 419 00a8 00280040 		.word	1073752064
 420              		.cfi_endproc
 421              	.LFE35:
 422              		.size	RTC_SetAlarm, .-RTC_SetAlarm
 423              		.align	1
 424              		.global	RTC_GetDivider
 425              		.syntax unified
 426              		.thumb
 427              		.thumb_func
ARM GAS  C:\Users\skey\AppData\Local\Temp\ccV8noAG.s 			page 12


 428              		.fpu softvfp
 429              		.type	RTC_GetDivider, %function
 430              	RTC_GetDivider:
 431              	.LFB36:
 187:.\stlib\STM32F10x_StdPeriph_Driver\src/stm32f10x_rtc.c **** 
 188:.\stlib\STM32F10x_StdPeriph_Driver\src/stm32f10x_rtc.c **** /**
 189:.\stlib\STM32F10x_StdPeriph_Driver\src/stm32f10x_rtc.c ****   * @brief  Gets the RTC divider value.
 190:.\stlib\STM32F10x_StdPeriph_Driver\src/stm32f10x_rtc.c ****   * @param  None
 191:.\stlib\STM32F10x_StdPeriph_Driver\src/stm32f10x_rtc.c ****   * @retval RTC Divider value.
 192:.\stlib\STM32F10x_StdPeriph_Driver\src/stm32f10x_rtc.c ****   */
 193:.\stlib\STM32F10x_StdPeriph_Driver\src/stm32f10x_rtc.c **** uint32_t RTC_GetDivider(void)
 194:.\stlib\STM32F10x_StdPeriph_Driver\src/stm32f10x_rtc.c **** {
 432              		.loc 1 194 1 is_stmt 1 view -0
 433              		.cfi_startproc
 434              		@ args = 0, pretend = 0, frame = 0
 435              		@ frame_needed = 0, uses_anonymous_args = 0
 436              		@ link register save eliminated.
 195:.\stlib\STM32F10x_StdPeriph_Driver\src/stm32f10x_rtc.c ****   uint32_t tmp = 0x00;
 437              		.loc 1 195 3 view .LVU71
 438              	.LVL18:
 196:.\stlib\STM32F10x_StdPeriph_Driver\src/stm32f10x_rtc.c ****   tmp = ((uint32_t)RTC->DIVH & (uint32_t)0x000F) << 16;
 439              		.loc 1 196 3 view .LVU72
 440              	@ .\stlib\STM32F10x_StdPeriph_Driver\src\stm32f10x_rtc.c:196:   tmp = ((uint32_t)RTC->DIVH & (uint3
 441              		.loc 1 196 23 is_stmt 0 view .LVU73
 442 00ac 044A     		ldr	r2, .L26	@ tmp117,
 443 00ae 138A     		ldrh	r3, [r2, #16]	@, MEM[(struct RTC_TypeDef *)1073752064B].DIVH
 444              	@ .\stlib\STM32F10x_StdPeriph_Driver\src\stm32f10x_rtc.c:197:   tmp |= RTC->DIVL;
 197:.\stlib\STM32F10x_StdPeriph_Driver\src/stm32f10x_rtc.c ****   tmp |= RTC->DIVL;
 445              		.loc 1 197 13 view .LVU74
 446 00b0 908A     		ldrh	r0, [r2, #20]	@, MEM[(struct RTC_TypeDef *)1073752064B].DIVL
 447              	@ .\stlib\STM32F10x_StdPeriph_Driver\src\stm32f10x_rtc.c:196:   tmp = ((uint32_t)RTC->DIVH & (uint3
 196:.\stlib\STM32F10x_StdPeriph_Driver\src/stm32f10x_rtc.c ****   tmp = ((uint32_t)RTC->DIVH & (uint32_t)0x000F) << 16;
 448              		.loc 1 196 50 view .LVU75
 449 00b2 1B04     		lsls	r3, r3, #16	@ tmp120, MEM[(struct RTC_TypeDef *)1073752064B].DIVH,
 450              	@ .\stlib\STM32F10x_StdPeriph_Driver\src\stm32f10x_rtc.c:196:   tmp = ((uint32_t)RTC->DIVH & (uint3
 196:.\stlib\STM32F10x_StdPeriph_Driver\src/stm32f10x_rtc.c ****   tmp = ((uint32_t)RTC->DIVH & (uint32_t)0x000F) << 16;
 451              		.loc 1 196 7 view .LVU76
 452 00b4 03F47023 		and	r3, r3, #983040	@ tmp, tmp120,
 453              	.LVL19:
 454              		.loc 1 197 3 is_stmt 1 view .LVU77
 455              	@ .\stlib\STM32F10x_StdPeriph_Driver\src\stm32f10x_rtc.c:197:   tmp |= RTC->DIVL;
 456              		.loc 1 197 13 is_stmt 0 view .LVU78
 457 00b8 80B2     		uxth	r0, r0	@ _7, MEM[(struct RTC_TypeDef *)1073752064B].DIVL
 458              	.LVL20:
 198:.\stlib\STM32F10x_StdPeriph_Driver\src/stm32f10x_rtc.c ****   return tmp;
 459              		.loc 1 198 3 is_stmt 1 view .LVU79
 460              	@ .\stlib\STM32F10x_StdPeriph_Driver\src\stm32f10x_rtc.c:199: }
 199:.\stlib\STM32F10x_StdPeriph_Driver\src/stm32f10x_rtc.c **** }
 461              		.loc 1 199 1 is_stmt 0 view .LVU80
 462 00ba 1843     		orrs	r0, r0, r3	@,, _7, tmp
 463              	.LVL21:
 464              		.loc 1 199 1 view .LVU81
 465 00bc 7047     		bx	lr	@
 466              	.L27:
 467 00be 00BF     		.align	2
 468              	.L26:
 469 00c0 00280040 		.word	1073752064
ARM GAS  C:\Users\skey\AppData\Local\Temp\ccV8noAG.s 			page 13


 470              		.cfi_endproc
 471              	.LFE36:
 472              		.size	RTC_GetDivider, .-RTC_GetDivider
 473              		.align	1
 474              		.global	RTC_WaitForLastTask
 475              		.syntax unified
 476              		.thumb
 477              		.thumb_func
 478              		.fpu softvfp
 479              		.type	RTC_WaitForLastTask, %function
 480              	RTC_WaitForLastTask:
 481              	.LFB37:
 200:.\stlib\STM32F10x_StdPeriph_Driver\src/stm32f10x_rtc.c **** 
 201:.\stlib\STM32F10x_StdPeriph_Driver\src/stm32f10x_rtc.c **** /**
 202:.\stlib\STM32F10x_StdPeriph_Driver\src/stm32f10x_rtc.c ****   * @brief  Waits until last write operation on RTC registers has finished.
 203:.\stlib\STM32F10x_StdPeriph_Driver\src/stm32f10x_rtc.c ****   * @note   This function must be called before any write to RTC registers.
 204:.\stlib\STM32F10x_StdPeriph_Driver\src/stm32f10x_rtc.c ****   * @param  None
 205:.\stlib\STM32F10x_StdPeriph_Driver\src/stm32f10x_rtc.c ****   * @retval None
 206:.\stlib\STM32F10x_StdPeriph_Driver\src/stm32f10x_rtc.c ****   */
 207:.\stlib\STM32F10x_StdPeriph_Driver\src/stm32f10x_rtc.c **** void RTC_WaitForLastTask(void)
 208:.\stlib\STM32F10x_StdPeriph_Driver\src/stm32f10x_rtc.c **** {
 482              		.loc 1 208 1 is_stmt 1 view -0
 483              		.cfi_startproc
 484              		@ args = 0, pretend = 0, frame = 0
 485              		@ frame_needed = 0, uses_anonymous_args = 0
 486              		@ link register save eliminated.
 209:.\stlib\STM32F10x_StdPeriph_Driver\src/stm32f10x_rtc.c ****   /* Loop until RTOFF flag is set */
 210:.\stlib\STM32F10x_StdPeriph_Driver\src/stm32f10x_rtc.c ****   while ((RTC->CRL & RTC_FLAG_RTOFF) == (uint16_t)RESET)
 487              		.loc 1 210 3 view .LVU83
 488              	@ .\stlib\STM32F10x_StdPeriph_Driver\src\stm32f10x_rtc.c:210:   while ((RTC->CRL & RTC_FLAG_RTOFF) 
 489              		.loc 1 210 14 is_stmt 0 view .LVU84
 490 00c4 024A     		ldr	r2, .L32	@ tmp112,
 491              	.L29:
 211:.\stlib\STM32F10x_StdPeriph_Driver\src/stm32f10x_rtc.c ****   {
 212:.\stlib\STM32F10x_StdPeriph_Driver\src/stm32f10x_rtc.c ****   }
 492              		.loc 1 212 3 is_stmt 1 discriminator 1 view .LVU85
 210:.\stlib\STM32F10x_StdPeriph_Driver\src/stm32f10x_rtc.c ****   {
 493              		.loc 1 210 9 discriminator 1 view .LVU86
 494              	@ .\stlib\STM32F10x_StdPeriph_Driver\src\stm32f10x_rtc.c:210:   while ((RTC->CRL & RTC_FLAG_RTOFF) 
 210:.\stlib\STM32F10x_StdPeriph_Driver\src/stm32f10x_rtc.c ****   {
 495              		.loc 1 210 14 is_stmt 0 discriminator 1 view .LVU87
 496 00c6 9388     		ldrh	r3, [r2, #4]	@, MEM[(struct RTC_TypeDef *)1073752064B].CRL
 497              	@ .\stlib\STM32F10x_StdPeriph_Driver\src\stm32f10x_rtc.c:210:   while ((RTC->CRL & RTC_FLAG_RTOFF) 
 210:.\stlib\STM32F10x_StdPeriph_Driver\src/stm32f10x_rtc.c ****   {
 498              		.loc 1 210 9 discriminator 1 view .LVU88
 499 00c8 9B06     		lsls	r3, r3, #26	@, MEM[(struct RTC_TypeDef *)1073752064B].CRL,
 500 00ca FCD5     		bpl	.L29		@,
 501              	@ .\stlib\STM32F10x_StdPeriph_Driver\src\stm32f10x_rtc.c:213: }
 213:.\stlib\STM32F10x_StdPeriph_Driver\src/stm32f10x_rtc.c **** }
 502              		.loc 1 213 1 view .LVU89
 503 00cc 7047     		bx	lr	@
 504              	.L33:
 505 00ce 00BF     		.align	2
 506              	.L32:
 507 00d0 00280040 		.word	1073752064
 508              		.cfi_endproc
 509              	.LFE37:
ARM GAS  C:\Users\skey\AppData\Local\Temp\ccV8noAG.s 			page 14


 510              		.size	RTC_WaitForLastTask, .-RTC_WaitForLastTask
 511              		.align	1
 512              		.global	RTC_WaitForSynchro
 513              		.syntax unified
 514              		.thumb
 515              		.thumb_func
 516              		.fpu softvfp
 517              		.type	RTC_WaitForSynchro, %function
 518              	RTC_WaitForSynchro:
 519              	.LFB38:
 214:.\stlib\STM32F10x_StdPeriph_Driver\src/stm32f10x_rtc.c **** 
 215:.\stlib\STM32F10x_StdPeriph_Driver\src/stm32f10x_rtc.c **** /**
 216:.\stlib\STM32F10x_StdPeriph_Driver\src/stm32f10x_rtc.c ****   * @brief  Waits until the RTC registers (RTC_CNT, RTC_ALR and RTC_PRL)
 217:.\stlib\STM32F10x_StdPeriph_Driver\src/stm32f10x_rtc.c ****   *   are synchronized with RTC APB clock.
 218:.\stlib\STM32F10x_StdPeriph_Driver\src/stm32f10x_rtc.c ****   * @note   This function must be called before any read operation after an APB reset
 219:.\stlib\STM32F10x_StdPeriph_Driver\src/stm32f10x_rtc.c ****   *   or an APB clock stop.
 220:.\stlib\STM32F10x_StdPeriph_Driver\src/stm32f10x_rtc.c ****   * @param  None
 221:.\stlib\STM32F10x_StdPeriph_Driver\src/stm32f10x_rtc.c ****   * @retval None
 222:.\stlib\STM32F10x_StdPeriph_Driver\src/stm32f10x_rtc.c ****   */
 223:.\stlib\STM32F10x_StdPeriph_Driver\src/stm32f10x_rtc.c **** void RTC_WaitForSynchro(void)
 224:.\stlib\STM32F10x_StdPeriph_Driver\src/stm32f10x_rtc.c **** {
 520              		.loc 1 224 1 is_stmt 1 view -0
 521              		.cfi_startproc
 522              		@ args = 0, pretend = 0, frame = 0
 523              		@ frame_needed = 0, uses_anonymous_args = 0
 524              		@ link register save eliminated.
 225:.\stlib\STM32F10x_StdPeriph_Driver\src/stm32f10x_rtc.c ****   /* Clear RSF flag */
 226:.\stlib\STM32F10x_StdPeriph_Driver\src/stm32f10x_rtc.c ****   RTC->CRL &= (uint16_t)~RTC_FLAG_RSF;
 525              		.loc 1 226 3 view .LVU91
 526              	@ .\stlib\STM32F10x_StdPeriph_Driver\src\stm32f10x_rtc.c:226:   RTC->CRL &= (uint16_t)~RTC_FLAG_RSF
 527              		.loc 1 226 12 is_stmt 0 view .LVU92
 528 00d4 054A     		ldr	r2, .L38	@ tmp114,
 529 00d6 9388     		ldrh	r3, [r2, #4]	@, MEM[(struct RTC_TypeDef *)1073752064B].CRL
 530 00d8 23F00803 		bic	r3, r3, #8	@ _3, MEM[(struct RTC_TypeDef *)1073752064B].CRL,
 531 00dc 1B04     		lsls	r3, r3, #16	@ _3, _3,
 532 00de 1B0C     		lsrs	r3, r3, #16	@ _3, _3,
 533 00e0 9380     		strh	r3, [r2, #4]	@ movhi	@ _3, MEM[(struct RTC_TypeDef *)1073752064B].CRL
 227:.\stlib\STM32F10x_StdPeriph_Driver\src/stm32f10x_rtc.c ****   /* Loop until RSF flag is set */
 228:.\stlib\STM32F10x_StdPeriph_Driver\src/stm32f10x_rtc.c ****   while ((RTC->CRL & RTC_FLAG_RSF) == (uint16_t)RESET)
 534              		.loc 1 228 3 is_stmt 1 view .LVU93
 535              	.L35:
 229:.\stlib\STM32F10x_StdPeriph_Driver\src/stm32f10x_rtc.c ****   {
 230:.\stlib\STM32F10x_StdPeriph_Driver\src/stm32f10x_rtc.c ****   }
 536              		.loc 1 230 3 discriminator 1 view .LVU94
 228:.\stlib\STM32F10x_StdPeriph_Driver\src/stm32f10x_rtc.c ****   {
 537              		.loc 1 228 9 discriminator 1 view .LVU95
 538              	@ .\stlib\STM32F10x_StdPeriph_Driver\src\stm32f10x_rtc.c:228:   while ((RTC->CRL & RTC_FLAG_RSF) ==
 228:.\stlib\STM32F10x_StdPeriph_Driver\src/stm32f10x_rtc.c ****   {
 539              		.loc 1 228 14 is_stmt 0 discriminator 1 view .LVU96
 540 00e2 9388     		ldrh	r3, [r2, #4]	@, MEM[(struct RTC_TypeDef *)1073752064B].CRL
 541              	@ .\stlib\STM32F10x_StdPeriph_Driver\src\stm32f10x_rtc.c:228:   while ((RTC->CRL & RTC_FLAG_RSF) ==
 228:.\stlib\STM32F10x_StdPeriph_Driver\src/stm32f10x_rtc.c ****   {
 542              		.loc 1 228 9 discriminator 1 view .LVU97
 543 00e4 1B07     		lsls	r3, r3, #28	@, MEM[(struct RTC_TypeDef *)1073752064B].CRL,
 544 00e6 FCD5     		bpl	.L35		@,
 545              	@ .\stlib\STM32F10x_StdPeriph_Driver\src\stm32f10x_rtc.c:231: }
 231:.\stlib\STM32F10x_StdPeriph_Driver\src/stm32f10x_rtc.c **** }
ARM GAS  C:\Users\skey\AppData\Local\Temp\ccV8noAG.s 			page 15


 546              		.loc 1 231 1 view .LVU98
 547 00e8 7047     		bx	lr	@
 548              	.L39:
 549 00ea 00BF     		.align	2
 550              	.L38:
 551 00ec 00280040 		.word	1073752064
 552              		.cfi_endproc
 553              	.LFE38:
 554              		.size	RTC_WaitForSynchro, .-RTC_WaitForSynchro
 555              		.align	1
 556              		.global	RTC_GetFlagStatus
 557              		.syntax unified
 558              		.thumb
 559              		.thumb_func
 560              		.fpu softvfp
 561              		.type	RTC_GetFlagStatus, %function
 562              	RTC_GetFlagStatus:
 563              	.LVL22:
 564              	.LFB39:
 232:.\stlib\STM32F10x_StdPeriph_Driver\src/stm32f10x_rtc.c **** 
 233:.\stlib\STM32F10x_StdPeriph_Driver\src/stm32f10x_rtc.c **** /**
 234:.\stlib\STM32F10x_StdPeriph_Driver\src/stm32f10x_rtc.c ****   * @brief  Checks whether the specified RTC flag is set or not.
 235:.\stlib\STM32F10x_StdPeriph_Driver\src/stm32f10x_rtc.c ****   * @param  RTC_FLAG: specifies the flag to check.
 236:.\stlib\STM32F10x_StdPeriph_Driver\src/stm32f10x_rtc.c ****   *   This parameter can be one the following values:
 237:.\stlib\STM32F10x_StdPeriph_Driver\src/stm32f10x_rtc.c ****   *     @arg RTC_FLAG_RTOFF: RTC Operation OFF flag
 238:.\stlib\STM32F10x_StdPeriph_Driver\src/stm32f10x_rtc.c ****   *     @arg RTC_FLAG_RSF: Registers Synchronized flag
 239:.\stlib\STM32F10x_StdPeriph_Driver\src/stm32f10x_rtc.c ****   *     @arg RTC_FLAG_OW: Overflow flag
 240:.\stlib\STM32F10x_StdPeriph_Driver\src/stm32f10x_rtc.c ****   *     @arg RTC_FLAG_ALR: Alarm flag
 241:.\stlib\STM32F10x_StdPeriph_Driver\src/stm32f10x_rtc.c ****   *     @arg RTC_FLAG_SEC: Second flag
 242:.\stlib\STM32F10x_StdPeriph_Driver\src/stm32f10x_rtc.c ****   * @retval The new state of RTC_FLAG (SET or RESET).
 243:.\stlib\STM32F10x_StdPeriph_Driver\src/stm32f10x_rtc.c ****   */
 244:.\stlib\STM32F10x_StdPeriph_Driver\src/stm32f10x_rtc.c **** FlagStatus RTC_GetFlagStatus(uint16_t RTC_FLAG)
 245:.\stlib\STM32F10x_StdPeriph_Driver\src/stm32f10x_rtc.c **** {
 565              		.loc 1 245 1 is_stmt 1 view -0
 566              		.cfi_startproc
 567              		@ args = 0, pretend = 0, frame = 0
 568              		@ frame_needed = 0, uses_anonymous_args = 0
 569              		@ link register save eliminated.
 246:.\stlib\STM32F10x_StdPeriph_Driver\src/stm32f10x_rtc.c ****   FlagStatus bitstatus = RESET;
 570              		.loc 1 246 3 view .LVU100
 247:.\stlib\STM32F10x_StdPeriph_Driver\src/stm32f10x_rtc.c ****   
 248:.\stlib\STM32F10x_StdPeriph_Driver\src/stm32f10x_rtc.c ****   /* Check the parameters */
 249:.\stlib\STM32F10x_StdPeriph_Driver\src/stm32f10x_rtc.c ****   assert_param(IS_RTC_GET_FLAG(RTC_FLAG)); 
 571              		.loc 1 249 3 view .LVU101
 250:.\stlib\STM32F10x_StdPeriph_Driver\src/stm32f10x_rtc.c ****   
 251:.\stlib\STM32F10x_StdPeriph_Driver\src/stm32f10x_rtc.c ****   if ((RTC->CRL & RTC_FLAG) != (uint16_t)RESET)
 572              		.loc 1 251 3 view .LVU102
 573              	@ .\stlib\STM32F10x_StdPeriph_Driver\src\stm32f10x_rtc.c:251:   if ((RTC->CRL & RTC_FLAG) != (uint1
 574              		.loc 1 251 11 is_stmt 0 view .LVU103
 575 00f0 034B     		ldr	r3, .L41	@ tmp115,
 576 00f2 9B88     		ldrh	r3, [r3, #4]	@, MEM[(struct RTC_TypeDef *)1073752064B].CRL
 577              	.LVL23:
 252:.\stlib\STM32F10x_StdPeriph_Driver\src/stm32f10x_rtc.c ****   {
 253:.\stlib\STM32F10x_StdPeriph_Driver\src/stm32f10x_rtc.c ****     bitstatus = SET;
 254:.\stlib\STM32F10x_StdPeriph_Driver\src/stm32f10x_rtc.c ****   }
 255:.\stlib\STM32F10x_StdPeriph_Driver\src/stm32f10x_rtc.c ****   else
 256:.\stlib\STM32F10x_StdPeriph_Driver\src/stm32f10x_rtc.c ****   {
ARM GAS  C:\Users\skey\AppData\Local\Temp\ccV8noAG.s 			page 16


 257:.\stlib\STM32F10x_StdPeriph_Driver\src/stm32f10x_rtc.c ****     bitstatus = RESET;
 258:.\stlib\STM32F10x_StdPeriph_Driver\src/stm32f10x_rtc.c ****   }
 259:.\stlib\STM32F10x_StdPeriph_Driver\src/stm32f10x_rtc.c ****   return bitstatus;
 578              		.loc 1 259 3 is_stmt 1 view .LVU104
 579              	@ .\stlib\STM32F10x_StdPeriph_Driver\src\stm32f10x_rtc.c:251:   if ((RTC->CRL & RTC_FLAG) != (uint1
 251:.\stlib\STM32F10x_StdPeriph_Driver\src/stm32f10x_rtc.c ****   {
 580              		.loc 1 251 6 is_stmt 0 view .LVU105
 581 00f4 1842     		tst	r0, r3	@ tmp123, MEM[(struct RTC_TypeDef *)1073752064B].CRL
 582              	@ .\stlib\STM32F10x_StdPeriph_Driver\src\stm32f10x_rtc.c:260: }
 260:.\stlib\STM32F10x_StdPeriph_Driver\src/stm32f10x_rtc.c **** }
 583              		.loc 1 260 1 view .LVU106
 584 00f6 14BF     		ite	ne
 585 00f8 0120     		movne	r0, #1	@,
 586              	.LVL24:
 587              		.loc 1 260 1 view .LVU107
 588 00fa 0020     		moveq	r0, #0	@,
 589 00fc 7047     		bx	lr	@
 590              	.L42:
 591 00fe 00BF     		.align	2
 592              	.L41:
 593 0100 00280040 		.word	1073752064
 594              		.cfi_endproc
 595              	.LFE39:
 596              		.size	RTC_GetFlagStatus, .-RTC_GetFlagStatus
 597              		.align	1
 598              		.global	RTC_ClearFlag
 599              		.syntax unified
 600              		.thumb
 601              		.thumb_func
 602              		.fpu softvfp
 603              		.type	RTC_ClearFlag, %function
 604              	RTC_ClearFlag:
 605              	.LVL25:
 606              	.LFB40:
 261:.\stlib\STM32F10x_StdPeriph_Driver\src/stm32f10x_rtc.c **** 
 262:.\stlib\STM32F10x_StdPeriph_Driver\src/stm32f10x_rtc.c **** /**
 263:.\stlib\STM32F10x_StdPeriph_Driver\src/stm32f10x_rtc.c ****   * @brief  Clears the RTC's pending flags.
 264:.\stlib\STM32F10x_StdPeriph_Driver\src/stm32f10x_rtc.c ****   * @param  RTC_FLAG: specifies the flag to clear.
 265:.\stlib\STM32F10x_StdPeriph_Driver\src/stm32f10x_rtc.c ****   *   This parameter can be any combination of the following values:
 266:.\stlib\STM32F10x_StdPeriph_Driver\src/stm32f10x_rtc.c ****   *     @arg RTC_FLAG_RSF: Registers Synchronized flag. This flag is cleared only after
 267:.\stlib\STM32F10x_StdPeriph_Driver\src/stm32f10x_rtc.c ****   *                        an APB reset or an APB Clock stop.
 268:.\stlib\STM32F10x_StdPeriph_Driver\src/stm32f10x_rtc.c ****   *     @arg RTC_FLAG_OW: Overflow flag
 269:.\stlib\STM32F10x_StdPeriph_Driver\src/stm32f10x_rtc.c ****   *     @arg RTC_FLAG_ALR: Alarm flag
 270:.\stlib\STM32F10x_StdPeriph_Driver\src/stm32f10x_rtc.c ****   *     @arg RTC_FLAG_SEC: Second flag
 271:.\stlib\STM32F10x_StdPeriph_Driver\src/stm32f10x_rtc.c ****   * @retval None
 272:.\stlib\STM32F10x_StdPeriph_Driver\src/stm32f10x_rtc.c ****   */
 273:.\stlib\STM32F10x_StdPeriph_Driver\src/stm32f10x_rtc.c **** void RTC_ClearFlag(uint16_t RTC_FLAG)
 274:.\stlib\STM32F10x_StdPeriph_Driver\src/stm32f10x_rtc.c **** {
 607              		.loc 1 274 1 is_stmt 1 view -0
 608              		.cfi_startproc
 609              		@ args = 0, pretend = 0, frame = 0
 610              		@ frame_needed = 0, uses_anonymous_args = 0
 611              		@ link register save eliminated.
 275:.\stlib\STM32F10x_StdPeriph_Driver\src/stm32f10x_rtc.c ****   /* Check the parameters */
 276:.\stlib\STM32F10x_StdPeriph_Driver\src/stm32f10x_rtc.c ****   assert_param(IS_RTC_CLEAR_FLAG(RTC_FLAG)); 
 612              		.loc 1 276 3 view .LVU109
 277:.\stlib\STM32F10x_StdPeriph_Driver\src/stm32f10x_rtc.c ****     
ARM GAS  C:\Users\skey\AppData\Local\Temp\ccV8noAG.s 			page 17


 278:.\stlib\STM32F10x_StdPeriph_Driver\src/stm32f10x_rtc.c ****   /* Clear the corresponding RTC flag */
 279:.\stlib\STM32F10x_StdPeriph_Driver\src/stm32f10x_rtc.c ****   RTC->CRL &= (uint16_t)~RTC_FLAG;
 613              		.loc 1 279 3 view .LVU110
 614              	@ .\stlib\STM32F10x_StdPeriph_Driver\src\stm32f10x_rtc.c:279:   RTC->CRL &= (uint16_t)~RTC_FLAG;
 615              		.loc 1 279 12 is_stmt 0 view .LVU111
 616 0104 034A     		ldr	r2, .L44	@ tmp114,
 617 0106 9388     		ldrh	r3, [r2, #4]	@, MEM[(struct RTC_TypeDef *)1073752064B].CRL
 618 0108 9BB2     		uxth	r3, r3	@ _1, MEM[(struct RTC_TypeDef *)1073752064B].CRL
 619 010a 23EA0003 		bic	r3, r3, r0	@ _3, _1, tmp122
 620 010e 9380     		strh	r3, [r2, #4]	@ movhi	@ _3, MEM[(struct RTC_TypeDef *)1073752064B].CRL
 621              	@ .\stlib\STM32F10x_StdPeriph_Driver\src\stm32f10x_rtc.c:280: }
 280:.\stlib\STM32F10x_StdPeriph_Driver\src/stm32f10x_rtc.c **** }
 622              		.loc 1 280 1 view .LVU112
 623 0110 7047     		bx	lr	@
 624              	.L45:
 625 0112 00BF     		.align	2
 626              	.L44:
 627 0114 00280040 		.word	1073752064
 628              		.cfi_endproc
 629              	.LFE40:
 630              		.size	RTC_ClearFlag, .-RTC_ClearFlag
 631              		.align	1
 632              		.global	RTC_GetITStatus
 633              		.syntax unified
 634              		.thumb
 635              		.thumb_func
 636              		.fpu softvfp
 637              		.type	RTC_GetITStatus, %function
 638              	RTC_GetITStatus:
 639              	.LVL26:
 640              	.LFB41:
 281:.\stlib\STM32F10x_StdPeriph_Driver\src/stm32f10x_rtc.c **** 
 282:.\stlib\STM32F10x_StdPeriph_Driver\src/stm32f10x_rtc.c **** /**
 283:.\stlib\STM32F10x_StdPeriph_Driver\src/stm32f10x_rtc.c ****   * @brief  Checks whether the specified RTC interrupt has occurred or not.
 284:.\stlib\STM32F10x_StdPeriph_Driver\src/stm32f10x_rtc.c ****   * @param  RTC_IT: specifies the RTC interrupts sources to check.
 285:.\stlib\STM32F10x_StdPeriph_Driver\src/stm32f10x_rtc.c ****   *   This parameter can be one of the following values:
 286:.\stlib\STM32F10x_StdPeriph_Driver\src/stm32f10x_rtc.c ****   *     @arg RTC_IT_OW: Overflow interrupt
 287:.\stlib\STM32F10x_StdPeriph_Driver\src/stm32f10x_rtc.c ****   *     @arg RTC_IT_ALR: Alarm interrupt
 288:.\stlib\STM32F10x_StdPeriph_Driver\src/stm32f10x_rtc.c ****   *     @arg RTC_IT_SEC: Second interrupt
 289:.\stlib\STM32F10x_StdPeriph_Driver\src/stm32f10x_rtc.c ****   * @retval The new state of the RTC_IT (SET or RESET).
 290:.\stlib\STM32F10x_StdPeriph_Driver\src/stm32f10x_rtc.c ****   */
 291:.\stlib\STM32F10x_StdPeriph_Driver\src/stm32f10x_rtc.c **** ITStatus RTC_GetITStatus(uint16_t RTC_IT)
 292:.\stlib\STM32F10x_StdPeriph_Driver\src/stm32f10x_rtc.c **** {
 641              		.loc 1 292 1 is_stmt 1 view -0
 642              		.cfi_startproc
 643              		@ args = 0, pretend = 0, frame = 0
 644              		@ frame_needed = 0, uses_anonymous_args = 0
 645              		@ link register save eliminated.
 293:.\stlib\STM32F10x_StdPeriph_Driver\src/stm32f10x_rtc.c ****   ITStatus bitstatus = RESET;
 646              		.loc 1 293 3 view .LVU114
 294:.\stlib\STM32F10x_StdPeriph_Driver\src/stm32f10x_rtc.c ****   /* Check the parameters */
 295:.\stlib\STM32F10x_StdPeriph_Driver\src/stm32f10x_rtc.c ****   assert_param(IS_RTC_GET_IT(RTC_IT)); 
 647              		.loc 1 295 3 view .LVU115
 296:.\stlib\STM32F10x_StdPeriph_Driver\src/stm32f10x_rtc.c ****   
 297:.\stlib\STM32F10x_StdPeriph_Driver\src/stm32f10x_rtc.c ****   bitstatus = (ITStatus)(RTC->CRL & RTC_IT);
 648              		.loc 1 297 3 view .LVU116
 649              	@ .\stlib\STM32F10x_StdPeriph_Driver\src\stm32f10x_rtc.c:297:   bitstatus = (ITStatus)(RTC->CRL & R
ARM GAS  C:\Users\skey\AppData\Local\Temp\ccV8noAG.s 			page 18


 650              		.loc 1 297 29 is_stmt 0 view .LVU117
 651 0118 064B     		ldr	r3, .L49	@ tmp119,
 652              	@ .\stlib\STM32F10x_StdPeriph_Driver\src\stm32f10x_rtc.c:292: {
 292:.\stlib\STM32F10x_StdPeriph_Driver\src/stm32f10x_rtc.c ****   ITStatus bitstatus = RESET;
 653              		.loc 1 292 1 view .LVU118
 654 011a 0146     		mov	r1, r0	@ RTC_IT, tmp134
 655              	@ .\stlib\STM32F10x_StdPeriph_Driver\src\stm32f10x_rtc.c:297:   bitstatus = (ITStatus)(RTC->CRL & R
 656              		.loc 1 297 29 view .LVU119
 657 011c 9A88     		ldrh	r2, [r3, #4]	@, MEM[(struct RTC_TypeDef *)1073752064B].CRL
 658              	@ .\stlib\STM32F10x_StdPeriph_Driver\src\stm32f10x_rtc.c:298:   if (((RTC->CRH & RTC_IT) != (uint16
 298:.\stlib\STM32F10x_StdPeriph_Driver\src/stm32f10x_rtc.c ****   if (((RTC->CRH & RTC_IT) != (uint16_t)RESET) && (bitstatus != (uint16_t)RESET))
 659              		.loc 1 298 12 view .LVU120
 660 011e 1B88     		ldrh	r3, [r3]	@, MEM[(struct RTC_TypeDef *)1073752064B].CRH
 661              	@ .\stlib\STM32F10x_StdPeriph_Driver\src\stm32f10x_rtc.c:297:   bitstatus = (ITStatus)(RTC->CRL & R
 297:.\stlib\STM32F10x_StdPeriph_Driver\src/stm32f10x_rtc.c ****   if (((RTC->CRH & RTC_IT) != (uint16_t)RESET) && (bitstatus != (uint16_t)RESET))
 662              		.loc 1 297 29 view .LVU121
 663 0120 92B2     		uxth	r2, r2	@ _1, MEM[(struct RTC_TypeDef *)1073752064B].CRL
 664              	.LVL27:
 665              		.loc 1 298 3 is_stmt 1 view .LVU122
 666              	@ .\stlib\STM32F10x_StdPeriph_Driver\src\stm32f10x_rtc.c:298:   if (((RTC->CRH & RTC_IT) != (uint16
 667              		.loc 1 298 6 is_stmt 0 view .LVU123
 668 0122 1840     		ands	r0, r0, r3	@ tmp126, RTC_IT, MEM[(struct RTC_TypeDef *)1073752064B].CRH
 669              	.LVL28:
 670              		.loc 1 298 6 view .LVU124
 671 0124 05D0     		beq	.L47		@,
 672              	@ .\stlib\STM32F10x_StdPeriph_Driver\src\stm32f10x_rtc.c:297:   bitstatus = (ITStatus)(RTC->CRL & R
 297:.\stlib\STM32F10x_StdPeriph_Driver\src/stm32f10x_rtc.c ****   if (((RTC->CRH & RTC_IT) != (uint16_t)RESET) && (bitstatus != (uint16_t)RESET))
 673              		.loc 1 297 13 discriminator 1 view .LVU125
 674 0126 02EA0100 		and	r0, r2, r1	@ tmp129, _1, RTC_IT
 675              	@ .\stlib\STM32F10x_StdPeriph_Driver\src\stm32f10x_rtc.c:298:   if (((RTC->CRH & RTC_IT) != (uint16
 676              		.loc 1 298 48 discriminator 1 view .LVU126
 677 012a C0B2     		uxtb	r0, r0	@ tmp131, tmp129
 678              	@ .\stlib\STM32F10x_StdPeriph_Driver\src\stm32f10x_rtc.c:304:     bitstatus = RESET;
 299:.\stlib\STM32F10x_StdPeriph_Driver\src/stm32f10x_rtc.c ****   {
 300:.\stlib\STM32F10x_StdPeriph_Driver\src/stm32f10x_rtc.c ****     bitstatus = SET;
 301:.\stlib\STM32F10x_StdPeriph_Driver\src/stm32f10x_rtc.c ****   }
 302:.\stlib\STM32F10x_StdPeriph_Driver\src/stm32f10x_rtc.c ****   else
 303:.\stlib\STM32F10x_StdPeriph_Driver\src/stm32f10x_rtc.c ****   {
 304:.\stlib\STM32F10x_StdPeriph_Driver\src/stm32f10x_rtc.c ****     bitstatus = RESET;
 679              		.loc 1 304 15 discriminator 1 view .LVU127
 680 012c 0038     		subs	r0, r0, #0	@ <retval>, tmp131,
 681 012e 18BF     		it	ne
 682 0130 0120     		movne	r0, #1	@ <retval>,
 683              	.L47:
 684              	.LVL29:
 305:.\stlib\STM32F10x_StdPeriph_Driver\src/stm32f10x_rtc.c ****   }
 306:.\stlib\STM32F10x_StdPeriph_Driver\src/stm32f10x_rtc.c ****   return bitstatus;
 685              		.loc 1 306 3 is_stmt 1 view .LVU128
 686              	@ .\stlib\STM32F10x_StdPeriph_Driver\src\stm32f10x_rtc.c:307: }
 307:.\stlib\STM32F10x_StdPeriph_Driver\src/stm32f10x_rtc.c **** }
 687              		.loc 1 307 1 is_stmt 0 view .LVU129
 688 0132 7047     		bx	lr	@
 689              	.L50:
 690              		.align	2
 691              	.L49:
 692 0134 00280040 		.word	1073752064
 693              		.cfi_endproc
ARM GAS  C:\Users\skey\AppData\Local\Temp\ccV8noAG.s 			page 19


 694              	.LFE41:
 695              		.size	RTC_GetITStatus, .-RTC_GetITStatus
 696              		.align	1
 697              		.global	RTC_ClearITPendingBit
 698              		.syntax unified
 699              		.thumb
 700              		.thumb_func
 701              		.fpu softvfp
 702              		.type	RTC_ClearITPendingBit, %function
 703              	RTC_ClearITPendingBit:
 704              	.LFB44:
 705              		.cfi_startproc
 706              		@ args = 0, pretend = 0, frame = 0
 707              		@ frame_needed = 0, uses_anonymous_args = 0
 708              		@ link register save eliminated.
 709 0138 FFF7FEBF 		b	RTC_ClearFlag		@
 710              		.cfi_endproc
 711              	.LFE44:
 712              		.size	RTC_ClearITPendingBit, .-RTC_ClearITPendingBit
 713              	.Letext0:
 714              		.file 2 "c:\\program files (x86)\\gnu tools arm embedded\\9 2019-q4-major\\arm-none-eabi\\include\
 715              		.file 3 "c:\\program files (x86)\\gnu tools arm embedded\\9 2019-q4-major\\arm-none-eabi\\include\
 716              		.file 4 ".\\stlib\\CMSIS\\CM3\\CoreSupport/core_cm3.h"
 717              		.file 5 ".\\stlib\\CMSIS\\CM3\\DeviceSupport\\ST\\STM32F10x/system_stm32f10x.h"
 718              		.file 6 ".\\stlib\\CMSIS\\CM3\\DeviceSupport\\ST\\STM32F10x/stm32f10x.h"
 719              		.section	.debug_info,"",%progbits
 720              	.Ldebug_info0:
 721 0000 27050000 		.4byte	0x527
 722 0004 0200     		.2byte	0x2
 723 0006 00000000 		.4byte	.Ldebug_abbrev0
 724 000a 04       		.byte	0x4
 725 000b 01       		.uleb128 0x1
 726 000c 68000000 		.4byte	.LASF61
 727 0010 0C       		.byte	0xc
 728 0011 72030000 		.4byte	.LASF62
 729 0015 23000000 		.4byte	.LASF63
 730 0019 00000000 		.4byte	.Ltext0
 731 001d 3C010000 		.4byte	.Letext0
 732 0021 00000000 		.4byte	.Ldebug_line0
 733 0025 02       		.uleb128 0x2
 734 0026 01       		.byte	0x1
 735 0027 06       		.byte	0x6
 736 0028 1B020000 		.4byte	.LASF0
 737 002c 03       		.uleb128 0x3
 738 002d C1010000 		.4byte	.LASF3
 739 0031 02       		.byte	0x2
 740 0032 2B       		.byte	0x2b
 741 0033 18       		.byte	0x18
 742 0034 38000000 		.4byte	0x38
 743 0038 02       		.uleb128 0x2
 744 0039 01       		.byte	0x1
 745 003a 08       		.byte	0x8
 746 003b 08020000 		.4byte	.LASF1
 747 003f 02       		.uleb128 0x2
 748 0040 02       		.byte	0x2
 749 0041 05       		.byte	0x5
 750 0042 3D010000 		.4byte	.LASF2
ARM GAS  C:\Users\skey\AppData\Local\Temp\ccV8noAG.s 			page 20


 751 0046 03       		.uleb128 0x3
 752 0047 32010000 		.4byte	.LASF4
 753 004b 02       		.byte	0x2
 754 004c 39       		.byte	0x39
 755 004d 19       		.byte	0x19
 756 004e 52000000 		.4byte	0x52
 757 0052 02       		.uleb128 0x2
 758 0053 02       		.byte	0x2
 759 0054 07       		.byte	0x7
 760 0055 7A020000 		.4byte	.LASF5
 761 0059 02       		.uleb128 0x2
 762 005a 04       		.byte	0x4
 763 005b 05       		.byte	0x5
 764 005c B8010000 		.4byte	.LASF6
 765 0060 03       		.uleb128 0x3
 766 0061 19010000 		.4byte	.LASF7
 767 0065 02       		.byte	0x2
 768 0066 4F       		.byte	0x4f
 769 0067 19       		.byte	0x19
 770 0068 6C000000 		.4byte	0x6c
 771 006c 02       		.uleb128 0x2
 772 006d 04       		.byte	0x4
 773 006e 07       		.byte	0x7
 774 006f 5D020000 		.4byte	.LASF8
 775 0073 02       		.uleb128 0x2
 776 0074 08       		.byte	0x8
 777 0075 05       		.byte	0x5
 778 0076 A1010000 		.4byte	.LASF9
 779 007a 02       		.uleb128 0x2
 780 007b 08       		.byte	0x8
 781 007c 07       		.byte	0x7
 782 007d 27020000 		.4byte	.LASF10
 783 0081 04       		.uleb128 0x4
 784 0082 04       		.byte	0x4
 785 0083 05       		.byte	0x5
 786 0084 696E7400 		.ascii	"int\000"
 787 0088 05       		.uleb128 0x5
 788 0089 81000000 		.4byte	0x81
 789 008d 02       		.uleb128 0x2
 790 008e 04       		.byte	0x4
 791 008f 07       		.byte	0x7
 792 0090 47020000 		.4byte	.LASF11
 793 0094 03       		.uleb128 0x3
 794 0095 47010000 		.4byte	.LASF12
 795 0099 03       		.byte	0x3
 796 009a 18       		.byte	0x18
 797 009b 13       		.byte	0x13
 798 009c 2C000000 		.4byte	0x2c
 799 00a0 03       		.uleb128 0x3
 800 00a1 54020000 		.4byte	.LASF13
 801 00a5 03       		.byte	0x3
 802 00a6 24       		.byte	0x24
 803 00a7 14       		.byte	0x14
 804 00a8 46000000 		.4byte	0x46
 805 00ac 05       		.uleb128 0x5
 806 00ad A0000000 		.4byte	0xa0
 807 00b1 03       		.uleb128 0x3
ARM GAS  C:\Users\skey\AppData\Local\Temp\ccV8noAG.s 			page 21


 808 00b2 3E020000 		.4byte	.LASF14
 809 00b6 03       		.byte	0x3
 810 00b7 30       		.byte	0x30
 811 00b8 14       		.byte	0x14
 812 00b9 60000000 		.4byte	0x60
 813 00bd 06       		.uleb128 0x6
 814 00be BA030000 		.4byte	.LASF15
 815 00c2 04       		.byte	0x4
 816 00c3 CE06     		.2byte	0x6ce
 817 00c5 15       		.byte	0x15
 818 00c6 88000000 		.4byte	0x88
 819 00ca 01       		.byte	0x1
 820 00cb 01       		.byte	0x1
 821 00cc 07       		.uleb128 0x7
 822 00cd AF020000 		.4byte	.LASF16
 823 00d1 05       		.byte	0x5
 824 00d2 35       		.byte	0x35
 825 00d3 11       		.byte	0x11
 826 00d4 B1000000 		.4byte	0xb1
 827 00d8 01       		.byte	0x1
 828 00d9 01       		.byte	0x1
 829 00da 08       		.uleb128 0x8
 830 00db 07       		.byte	0x7
 831 00dc 01       		.byte	0x1
 832 00dd 38000000 		.4byte	0x38
 833 00e1 06       		.byte	0x6
 834 00e2 0702     		.2byte	0x207
 835 00e4 0E       		.byte	0xe
 836 00e5 F6000000 		.4byte	0xf6
 837 00e9 09       		.uleb128 0x9
 838 00ea 5D030000 		.4byte	.LASF17
 839 00ee 00       		.byte	0
 840 00ef 0A       		.uleb128 0xa
 841 00f0 53455400 		.ascii	"SET\000"
 842 00f4 01       		.byte	0x1
 843 00f5 00       		.byte	0
 844 00f6 0B       		.uleb128 0xb
 845 00f7 C7030000 		.4byte	.LASF18
 846 00fb 06       		.byte	0x6
 847 00fc 0702     		.2byte	0x207
 848 00fe 28       		.byte	0x28
 849 00ff DA000000 		.4byte	0xda
 850 0103 0B       		.uleb128 0xb
 851 0104 AF010000 		.4byte	.LASF19
 852 0108 06       		.byte	0x6
 853 0109 0702     		.2byte	0x207
 854 010b 34       		.byte	0x34
 855 010c DA000000 		.4byte	0xda
 856 0110 08       		.uleb128 0x8
 857 0111 07       		.byte	0x7
 858 0112 01       		.byte	0x1
 859 0113 38000000 		.4byte	0x38
 860 0117 06       		.byte	0x6
 861 0118 0902     		.2byte	0x209
 862 011a 0E       		.byte	0xe
 863 011b 2C010000 		.4byte	0x12c
 864 011f 09       		.uleb128 0x9
ARM GAS  C:\Users\skey\AppData\Local\Temp\ccV8noAG.s 			page 22


 865 0120 61010000 		.4byte	.LASF20
 866 0124 00       		.byte	0
 867 0125 09       		.uleb128 0x9
 868 0126 D2030000 		.4byte	.LASF21
 869 012a 01       		.byte	0x1
 870 012b 00       		.byte	0
 871 012c 0B       		.uleb128 0xb
 872 012d 34030000 		.4byte	.LASF22
 873 0131 06       		.byte	0x6
 874 0132 0902     		.2byte	0x209
 875 0134 2F       		.byte	0x2f
 876 0135 10010000 		.4byte	0x110
 877 0139 0C       		.uleb128 0xc
 878 013a 28       		.byte	0x28
 879 013b 06       		.byte	0x6
 880 013c 5004     		.2byte	0x450
 881 013e 09       		.byte	0x9
 882 013f 84020000 		.4byte	0x284
 883 0143 0D       		.uleb128 0xd
 884 0144 43524800 		.ascii	"CRH\000"
 885 0148 06       		.byte	0x6
 886 0149 5204     		.2byte	0x452
 887 014b 11       		.byte	0x11
 888 014c AC000000 		.4byte	0xac
 889 0150 02       		.byte	0x2
 890 0151 23       		.byte	0x23
 891 0152 00       		.uleb128 0
 892 0153 0E       		.uleb128 0xe
 893 0154 D0020000 		.4byte	.LASF23
 894 0158 06       		.byte	0x6
 895 0159 5304     		.2byte	0x453
 896 015b 0D       		.byte	0xd
 897 015c A0000000 		.4byte	0xa0
 898 0160 02       		.byte	0x2
 899 0161 23       		.byte	0x23
 900 0162 02       		.uleb128 0x2
 901 0163 0D       		.uleb128 0xd
 902 0164 43524C00 		.ascii	"CRL\000"
 903 0168 06       		.byte	0x6
 904 0169 5404     		.2byte	0x454
 905 016b 11       		.byte	0x11
 906 016c AC000000 		.4byte	0xac
 907 0170 02       		.byte	0x2
 908 0171 23       		.byte	0x23
 909 0172 04       		.uleb128 0x4
 910 0173 0E       		.uleb128 0xe
 911 0174 DA020000 		.4byte	.LASF24
 912 0178 06       		.byte	0x6
 913 0179 5504     		.2byte	0x455
 914 017b 0D       		.byte	0xd
 915 017c A0000000 		.4byte	0xa0
 916 0180 02       		.byte	0x2
 917 0181 23       		.byte	0x23
 918 0182 06       		.uleb128 0x6
 919 0183 0E       		.uleb128 0xe
 920 0184 D9030000 		.4byte	.LASF25
 921 0188 06       		.byte	0x6
ARM GAS  C:\Users\skey\AppData\Local\Temp\ccV8noAG.s 			page 23


 922 0189 5604     		.2byte	0x456
 923 018b 11       		.byte	0x11
 924 018c AC000000 		.4byte	0xac
 925 0190 02       		.byte	0x2
 926 0191 23       		.byte	0x23
 927 0192 08       		.uleb128 0x8
 928 0193 0E       		.uleb128 0xe
 929 0194 E4020000 		.4byte	.LASF26
 930 0198 06       		.byte	0x6
 931 0199 5704     		.2byte	0x457
 932 019b 0D       		.byte	0xd
 933 019c A0000000 		.4byte	0xa0
 934 01a0 02       		.byte	0x2
 935 01a1 23       		.byte	0x23
 936 01a2 0A       		.uleb128 0xa
 937 01a3 0E       		.uleb128 0xe
 938 01a4 16020000 		.4byte	.LASF27
 939 01a8 06       		.byte	0x6
 940 01a9 5804     		.2byte	0x458
 941 01ab 11       		.byte	0x11
 942 01ac AC000000 		.4byte	0xac
 943 01b0 02       		.byte	0x2
 944 01b1 23       		.byte	0x23
 945 01b2 0C       		.uleb128 0xc
 946 01b3 0E       		.uleb128 0xe
 947 01b4 EE020000 		.4byte	.LASF28
 948 01b8 06       		.byte	0x6
 949 01b9 5904     		.2byte	0x459
 950 01bb 0D       		.byte	0xd
 951 01bc A0000000 		.4byte	0xa0
 952 01c0 02       		.byte	0x2
 953 01c1 23       		.byte	0x23
 954 01c2 0E       		.uleb128 0xe
 955 01c3 0E       		.uleb128 0xe
 956 01c4 1E000000 		.4byte	.LASF29
 957 01c8 06       		.byte	0x6
 958 01c9 5A04     		.2byte	0x45a
 959 01cb 11       		.byte	0x11
 960 01cc AC000000 		.4byte	0xac
 961 01d0 02       		.byte	0x2
 962 01d1 23       		.byte	0x23
 963 01d2 10       		.uleb128 0x10
 964 01d3 0E       		.uleb128 0xe
 965 01d4 F8020000 		.4byte	.LASF30
 966 01d8 06       		.byte	0x6
 967 01d9 5B04     		.2byte	0x45b
 968 01db 0D       		.byte	0xd
 969 01dc A0000000 		.4byte	0xa0
 970 01e0 02       		.byte	0x2
 971 01e1 23       		.byte	0x23
 972 01e2 12       		.uleb128 0x12
 973 01e3 0E       		.uleb128 0xe
 974 01e4 46000000 		.4byte	.LASF31
 975 01e8 06       		.byte	0x6
 976 01e9 5C04     		.2byte	0x45c
 977 01eb 11       		.byte	0x11
 978 01ec AC000000 		.4byte	0xac
ARM GAS  C:\Users\skey\AppData\Local\Temp\ccV8noAG.s 			page 24


 979 01f0 02       		.byte	0x2
 980 01f1 23       		.byte	0x23
 981 01f2 14       		.uleb128 0x14
 982 01f3 0E       		.uleb128 0xe
 983 01f4 02030000 		.4byte	.LASF32
 984 01f8 06       		.byte	0x6
 985 01f9 5D04     		.2byte	0x45d
 986 01fb 0D       		.byte	0xd
 987 01fc A0000000 		.4byte	0xa0
 988 0200 02       		.byte	0x2
 989 0201 23       		.byte	0x23
 990 0202 16       		.uleb128 0x16
 991 0203 0E       		.uleb128 0xe
 992 0204 CB020000 		.4byte	.LASF33
 993 0208 06       		.byte	0x6
 994 0209 5E04     		.2byte	0x45e
 995 020b 11       		.byte	0x11
 996 020c AC000000 		.4byte	0xac
 997 0210 02       		.byte	0x2
 998 0211 23       		.byte	0x23
 999 0212 18       		.uleb128 0x18
 1000 0213 0E       		.uleb128 0xe
 1001 0214 0C030000 		.4byte	.LASF34
 1002 0218 06       		.byte	0x6
 1003 0219 5F04     		.2byte	0x45f
 1004 021b 0D       		.byte	0xd
 1005 021c A0000000 		.4byte	0xa0
 1006 0220 02       		.byte	0x2
 1007 0221 23       		.byte	0x23
 1008 0222 1A       		.uleb128 0x1a
 1009 0223 0E       		.uleb128 0xe
 1010 0224 58030000 		.4byte	.LASF35
 1011 0228 06       		.byte	0x6
 1012 0229 6004     		.2byte	0x460
 1013 022b 11       		.byte	0x11
 1014 022c AC000000 		.4byte	0xac
 1015 0230 02       		.byte	0x2
 1016 0231 23       		.byte	0x23
 1017 0232 1C       		.uleb128 0x1c
 1018 0233 0E       		.uleb128 0xe
 1019 0234 16030000 		.4byte	.LASF36
 1020 0238 06       		.byte	0x6
 1021 0239 6104     		.2byte	0x461
 1022 023b 0D       		.byte	0xd
 1023 023c A0000000 		.4byte	0xa0
 1024 0240 02       		.byte	0x2
 1025 0241 23       		.byte	0x23
 1026 0242 1E       		.uleb128 0x1e
 1027 0243 0E       		.uleb128 0xe
 1028 0244 A9030000 		.4byte	.LASF37
 1029 0248 06       		.byte	0x6
 1030 0249 6204     		.2byte	0x462
 1031 024b 11       		.byte	0x11
 1032 024c AC000000 		.4byte	0xac
 1033 0250 02       		.byte	0x2
 1034 0251 23       		.byte	0x23
 1035 0252 20       		.uleb128 0x20
ARM GAS  C:\Users\skey\AppData\Local\Temp\ccV8noAG.s 			page 25


 1036 0253 0E       		.uleb128 0xe
 1037 0254 20030000 		.4byte	.LASF38
 1038 0258 06       		.byte	0x6
 1039 0259 6304     		.2byte	0x463
 1040 025b 0D       		.byte	0xd
 1041 025c A0000000 		.4byte	0xa0
 1042 0260 02       		.byte	0x2
 1043 0261 23       		.byte	0x23
 1044 0262 22       		.uleb128 0x22
 1045 0263 0E       		.uleb128 0xe
 1046 0264 AE030000 		.4byte	.LASF39
 1047 0268 06       		.byte	0x6
 1048 0269 6404     		.2byte	0x464
 1049 026b 11       		.byte	0x11
 1050 026c AC000000 		.4byte	0xac
 1051 0270 02       		.byte	0x2
 1052 0271 23       		.byte	0x23
 1053 0272 24       		.uleb128 0x24
 1054 0273 0E       		.uleb128 0xe
 1055 0274 2A030000 		.4byte	.LASF40
 1056 0278 06       		.byte	0x6
 1057 0279 6504     		.2byte	0x465
 1058 027b 0D       		.byte	0xd
 1059 027c A0000000 		.4byte	0xa0
 1060 0280 02       		.byte	0x2
 1061 0281 23       		.byte	0x23
 1062 0282 26       		.uleb128 0x26
 1063 0283 00       		.byte	0
 1064 0284 0B       		.uleb128 0xb
 1065 0285 BF020000 		.4byte	.LASF41
 1066 0289 06       		.byte	0x6
 1067 028a 6604     		.2byte	0x466
 1068 028c 03       		.byte	0x3
 1069 028d 39010000 		.4byte	0x139
 1070 0291 0F       		.uleb128 0xf
 1071 0292 01       		.byte	0x1
 1072 0293 69010000 		.4byte	.LASF64
 1073 0297 01       		.byte	0x1
 1074 0298 3E01     		.2byte	0x13e
 1075 029a 06       		.byte	0x6
 1076 029b 01       		.byte	0x1
 1077 029c AE020000 		.4byte	0x2ae
 1078 02a0 10       		.uleb128 0x10
 1079 02a1 B3030000 		.4byte	.LASF45
 1080 02a5 01       		.byte	0x1
 1081 02a6 3E01     		.2byte	0x13e
 1082 02a8 25       		.byte	0x25
 1083 02a9 A0000000 		.4byte	0xa0
 1084 02ad 00       		.byte	0
 1085 02ae 11       		.uleb128 0x11
 1086 02af 01       		.byte	0x1
 1087 02b0 58000000 		.4byte	.LASF43
 1088 02b4 01       		.byte	0x1
 1089 02b5 2301     		.2byte	0x123
 1090 02b7 0A       		.byte	0xa
 1091 02b8 01       		.byte	0x1
 1092 02b9 03010000 		.4byte	0x103
ARM GAS  C:\Users\skey\AppData\Local\Temp\ccV8noAG.s 			page 26


 1093 02bd 18010000 		.4byte	.LFB41
 1094 02c1 38010000 		.4byte	.LFE41
 1095 02c5 02       		.byte	0x2
 1096 02c6 7D       		.byte	0x7d
 1097 02c7 00       		.sleb128 0
 1098 02c8 01       		.byte	0x1
 1099 02c9 F8020000 		.4byte	0x2f8
 1100 02cd 12       		.uleb128 0x12
 1101 02ce B3030000 		.4byte	.LASF45
 1102 02d2 01       		.byte	0x1
 1103 02d3 2301     		.2byte	0x123
 1104 02d5 23       		.byte	0x23
 1105 02d6 A0000000 		.4byte	0xa0
 1106 02da 04000000 		.4byte	.LLST11
 1107 02de 00000000 		.4byte	.LVUS11
 1108 02e2 13       		.uleb128 0x13
 1109 02e3 EC010000 		.4byte	.LASF42
 1110 02e7 01       		.byte	0x1
 1111 02e8 2501     		.2byte	0x125
 1112 02ea 0C       		.byte	0xc
 1113 02eb 03010000 		.4byte	0x103
 1114 02ef 2D000000 		.4byte	.LLST12
 1115 02f3 25000000 		.4byte	.LVUS12
 1116 02f7 00       		.byte	0
 1117 02f8 14       		.uleb128 0x14
 1118 02f9 01       		.byte	0x1
 1119 02fa 24010000 		.4byte	.LASF50
 1120 02fe 01       		.byte	0x1
 1121 02ff 1101     		.2byte	0x111
 1122 0301 06       		.byte	0x6
 1123 0302 01       		.byte	0x1
 1124 0303 04010000 		.4byte	.LFB40
 1125 0307 18010000 		.4byte	.LFE40
 1126 030b 02       		.byte	0x2
 1127 030c 7D       		.byte	0x7d
 1128 030d 00       		.sleb128 0
 1129 030e 01       		.byte	0x1
 1130 030f 23030000 		.4byte	0x323
 1131 0313 15       		.uleb128 0x15
 1132 0314 4F010000 		.4byte	.LASF46
 1133 0318 01       		.byte	0x1
 1134 0319 1101     		.2byte	0x111
 1135 031b 1D       		.byte	0x1d
 1136 031c A0000000 		.4byte	0xa0
 1137 0320 01       		.byte	0x1
 1138 0321 50       		.byte	0x50
 1139 0322 00       		.byte	0
 1140 0323 16       		.uleb128 0x16
 1141 0324 01       		.byte	0x1
 1142 0325 F6010000 		.4byte	.LASF44
 1143 0329 01       		.byte	0x1
 1144 032a F4       		.byte	0xf4
 1145 032b 0C       		.byte	0xc
 1146 032c 01       		.byte	0x1
 1147 032d F6000000 		.4byte	0xf6
 1148 0331 F0000000 		.4byte	.LFB39
 1149 0335 04010000 		.4byte	.LFE39
ARM GAS  C:\Users\skey\AppData\Local\Temp\ccV8noAG.s 			page 27


 1150 0339 02       		.byte	0x2
 1151 033a 7D       		.byte	0x7d
 1152 033b 00       		.sleb128 0
 1153 033c 01       		.byte	0x1
 1154 033d 6A030000 		.4byte	0x36a
 1155 0341 17       		.uleb128 0x17
 1156 0342 4F010000 		.4byte	.LASF46
 1157 0346 01       		.byte	0x1
 1158 0347 F4       		.byte	0xf4
 1159 0348 27       		.byte	0x27
 1160 0349 A0000000 		.4byte	0xa0
 1161 034d 71000000 		.4byte	.LLST9
 1162 0351 6D000000 		.4byte	.LVUS9
 1163 0355 18       		.uleb128 0x18
 1164 0356 EC010000 		.4byte	.LASF42
 1165 035a 01       		.byte	0x1
 1166 035b F6       		.byte	0xf6
 1167 035c 0E       		.byte	0xe
 1168 035d F6000000 		.4byte	0xf6
 1169 0361 98000000 		.4byte	.LLST10
 1170 0365 92000000 		.4byte	.LVUS10
 1171 0369 00       		.byte	0
 1172 036a 19       		.uleb128 0x19
 1173 036b 01       		.byte	0x1
 1174 036c 7F010000 		.4byte	.LASF47
 1175 0370 01       		.byte	0x1
 1176 0371 DF       		.byte	0xdf
 1177 0372 06       		.byte	0x6
 1178 0373 01       		.byte	0x1
 1179 0374 D4000000 		.4byte	.LFB38
 1180 0378 F0000000 		.4byte	.LFE38
 1181 037c 02       		.byte	0x2
 1182 037d 7D       		.byte	0x7d
 1183 037e 00       		.sleb128 0
 1184 037f 01       		.byte	0x1
 1185 0380 19       		.uleb128 0x19
 1186 0381 01       		.byte	0x1
 1187 0382 CB010000 		.4byte	.LASF48
 1188 0386 01       		.byte	0x1
 1189 0387 CF       		.byte	0xcf
 1190 0388 06       		.byte	0x6
 1191 0389 01       		.byte	0x1
 1192 038a C4000000 		.4byte	.LFB37
 1193 038e D4000000 		.4byte	.LFE37
 1194 0392 02       		.byte	0x2
 1195 0393 7D       		.byte	0x7d
 1196 0394 00       		.sleb128 0
 1197 0395 01       		.byte	0x1
 1198 0396 16       		.uleb128 0x16
 1199 0397 01       		.byte	0x1
 1200 0398 92010000 		.4byte	.LASF49
 1201 039c 01       		.byte	0x1
 1202 039d C1       		.byte	0xc1
 1203 039e 0A       		.byte	0xa
 1204 039f 01       		.byte	0x1
 1205 03a0 B1000000 		.4byte	0xb1
 1206 03a4 AC000000 		.4byte	.LFB36
ARM GAS  C:\Users\skey\AppData\Local\Temp\ccV8noAG.s 			page 28


 1207 03a8 C4000000 		.4byte	.LFE36
 1208 03ac 02       		.byte	0x2
 1209 03ad 7D       		.byte	0x7d
 1210 03ae 00       		.sleb128 0
 1211 03af 01       		.byte	0x1
 1212 03b0 C9030000 		.4byte	0x3c9
 1213 03b4 1A       		.uleb128 0x1a
 1214 03b5 746D7000 		.ascii	"tmp\000"
 1215 03b9 01       		.byte	0x1
 1216 03ba C3       		.byte	0xc3
 1217 03bb 0C       		.byte	0xc
 1218 03bc B1000000 		.4byte	0xb1
 1219 03c0 DB000000 		.4byte	.LLST8
 1220 03c4 D5000000 		.4byte	.LVUS8
 1221 03c8 00       		.byte	0
 1222 03c9 1B       		.uleb128 0x1b
 1223 03ca 01       		.byte	0x1
 1224 03cb DF010000 		.4byte	.LASF51
 1225 03cf 01       		.byte	0x1
 1226 03d0 B2       		.byte	0xb2
 1227 03d1 06       		.byte	0x6
 1228 03d2 01       		.byte	0x1
 1229 03d3 90000000 		.4byte	.LFB35
 1230 03d7 AC000000 		.4byte	.LFE35
 1231 03db 0E010000 		.4byte	.LLST6
 1232 03df 01       		.byte	0x1
 1233 03e0 0C040000 		.4byte	0x40c
 1234 03e4 17       		.uleb128 0x17
 1235 03e5 6F020000 		.4byte	.LASF52
 1236 03e9 01       		.byte	0x1
 1237 03ea B2       		.byte	0xb2
 1238 03eb 1C       		.byte	0x1c
 1239 03ec B1000000 		.4byte	0xb1
 1240 03f0 3E010000 		.4byte	.LLST7
 1241 03f4 3A010000 		.4byte	.LVUS7
 1242 03f8 1C       		.uleb128 0x1c
 1243 03f9 96000000 		.4byte	.LVL15
 1244 03fd DB040000 		.4byte	0x4db
 1245 0401 1D       		.uleb128 0x1d
 1246 0402 A8000000 		.4byte	.LVL17
 1247 0406 01       		.byte	0x1
 1248 0407 C5040000 		.4byte	0x4c5
 1249 040b 00       		.byte	0
 1250 040c 1B       		.uleb128 0x1b
 1251 040d 01       		.byte	0x1
 1252 040e 00000000 		.4byte	.LASF53
 1253 0412 01       		.byte	0x1
 1254 0413 A0       		.byte	0xa0
 1255 0414 06       		.byte	0x6
 1256 0415 01       		.byte	0x1
 1257 0416 70000000 		.4byte	.LFB34
 1258 041a 90000000 		.4byte	.LFE34
 1259 041e 5F010000 		.4byte	.LLST4
 1260 0422 01       		.byte	0x1
 1261 0423 4F040000 		.4byte	0x44f
 1262 0427 17       		.uleb128 0x17
 1263 0428 A0020000 		.4byte	.LASF54
ARM GAS  C:\Users\skey\AppData\Local\Temp\ccV8noAG.s 			page 29


 1264 042c 01       		.byte	0x1
 1265 042d A0       		.byte	0xa0
 1266 042e 20       		.byte	0x20
 1267 042f B1000000 		.4byte	0xb1
 1268 0433 8F010000 		.4byte	.LLST5
 1269 0437 8B010000 		.4byte	.LVUS5
 1270 043b 1C       		.uleb128 0x1c
 1271 043c 76000000 		.4byte	.LVL11
 1272 0440 DB040000 		.4byte	0x4db
 1273 0444 1D       		.uleb128 0x1d
 1274 0445 8A000000 		.4byte	.LVL13
 1275 0449 01       		.byte	0x1
 1276 044a C5040000 		.4byte	0x4c5
 1277 044e 00       		.byte	0
 1278 044f 1B       		.uleb128 0x1b
 1279 0450 01       		.byte	0x1
 1280 0451 0A010000 		.4byte	.LASF55
 1281 0455 01       		.byte	0x1
 1282 0456 91       		.byte	0x91
 1283 0457 06       		.byte	0x6
 1284 0458 01       		.byte	0x1
 1285 0459 54000000 		.4byte	.LFB33
 1286 045d 70000000 		.4byte	.LFE33
 1287 0461 B0010000 		.4byte	.LLST2
 1288 0465 01       		.byte	0x1
 1289 0466 92040000 		.4byte	0x492
 1290 046a 17       		.uleb128 0x17
 1291 046b 4B000000 		.4byte	.LASF56
 1292 046f 01       		.byte	0x1
 1293 0470 91       		.byte	0x91
 1294 0471 1E       		.byte	0x1e
 1295 0472 B1000000 		.4byte	0xb1
 1296 0476 E0010000 		.4byte	.LLST3
 1297 047a DC010000 		.4byte	.LVUS3
 1298 047e 1C       		.uleb128 0x1c
 1299 047f 5A000000 		.4byte	.LVL7
 1300 0483 DB040000 		.4byte	0x4db
 1301 0487 1D       		.uleb128 0x1d
 1302 0488 6C000000 		.4byte	.LVL9
 1303 048c 01       		.byte	0x1
 1304 048d C5040000 		.4byte	0x4c5
 1305 0491 00       		.byte	0
 1306 0492 16       		.uleb128 0x16
 1307 0493 01       		.byte	0x1
 1308 0494 63030000 		.4byte	.LASF57
 1309 0498 01       		.byte	0x1
 1310 0499 85       		.byte	0x85
 1311 049a 0A       		.byte	0xa
 1312 049b 01       		.byte	0x1
 1313 049c B1000000 		.4byte	0xb1
 1314 04a0 40000000 		.4byte	.LFB32
 1315 04a4 54000000 		.4byte	.LFE32
 1316 04a8 02       		.byte	0x2
 1317 04a9 7D       		.byte	0x7d
 1318 04aa 00       		.sleb128 0
 1319 04ab 01       		.byte	0x1
 1320 04ac C5040000 		.4byte	0x4c5
ARM GAS  C:\Users\skey\AppData\Local\Temp\ccV8noAG.s 			page 30


 1321 04b0 1A       		.uleb128 0x1a
 1322 04b1 746D7000 		.ascii	"tmp\000"
 1323 04b5 01       		.byte	0x1
 1324 04b6 87       		.byte	0x87
 1325 04b7 0C       		.byte	0xc
 1326 04b8 A0000000 		.4byte	0xa0
 1327 04bc 05020000 		.4byte	.LLST1
 1328 04c0 01020000 		.4byte	.LVUS1
 1329 04c4 00       		.byte	0
 1330 04c5 19       		.uleb128 0x19
 1331 04c6 01       		.byte	0x1
 1332 04c7 8D020000 		.4byte	.LASF58
 1333 04cb 01       		.byte	0x1
 1334 04cc 7A       		.byte	0x7a
 1335 04cd 06       		.byte	0x6
 1336 04ce 01       		.byte	0x1
 1337 04cf 2C000000 		.4byte	.LFB31
 1338 04d3 40000000 		.4byte	.LFE31
 1339 04d7 02       		.byte	0x2
 1340 04d8 7D       		.byte	0x7d
 1341 04d9 00       		.sleb128 0
 1342 04da 01       		.byte	0x1
 1343 04db 19       		.uleb128 0x19
 1344 04dc 01       		.byte	0x1
 1345 04dd 44030000 		.4byte	.LASF59
 1346 04e1 01       		.byte	0x1
 1347 04e2 6F       		.byte	0x6f
 1348 04e3 06       		.byte	0x6
 1349 04e4 01       		.byte	0x1
 1350 04e5 18000000 		.4byte	.LFB30
 1351 04e9 2C000000 		.4byte	.LFE30
 1352 04ed 02       		.byte	0x2
 1353 04ee 7D       		.byte	0x7d
 1354 04ef 00       		.sleb128 0
 1355 04f0 01       		.byte	0x1
 1356 04f1 1E       		.uleb128 0x1e
 1357 04f2 01       		.byte	0x1
 1358 04f3 11000000 		.4byte	.LASF65
 1359 04f7 01       		.byte	0x1
 1360 04f8 5A       		.byte	0x5a
 1361 04f9 06       		.byte	0x6
 1362 04fa 01       		.byte	0x1
 1363 04fb 00000000 		.4byte	.LFB29
 1364 04ff 18000000 		.4byte	.LFE29
 1365 0503 02       		.byte	0x2
 1366 0504 7D       		.byte	0x7d
 1367 0505 00       		.sleb128 0
 1368 0506 01       		.byte	0x1
 1369 0507 17       		.uleb128 0x17
 1370 0508 B3030000 		.4byte	.LASF45
 1371 050c 01       		.byte	0x1
 1372 050d 5A       		.byte	0x5a
 1373 050e 1C       		.byte	0x1c
 1374 050f A0000000 		.4byte	0xa0
 1375 0513 2C020000 		.4byte	.LLST0
 1376 0517 24020000 		.4byte	.LVUS0
 1377 051b 1F       		.uleb128 0x1f
ARM GAS  C:\Users\skey\AppData\Local\Temp\ccV8noAG.s 			page 31


 1378 051c 58010000 		.4byte	.LASF60
 1379 0520 01       		.byte	0x1
 1380 0521 5A       		.byte	0x5a
 1381 0522 34       		.byte	0x34
 1382 0523 2C010000 		.4byte	0x12c
 1383 0527 01       		.byte	0x1
 1384 0528 51       		.byte	0x51
 1385 0529 00       		.byte	0
 1386 052a 00       		.byte	0
 1387              		.section	.debug_abbrev,"",%progbits
 1388              	.Ldebug_abbrev0:
 1389 0000 01       		.uleb128 0x1
 1390 0001 11       		.uleb128 0x11
 1391 0002 01       		.byte	0x1
 1392 0003 25       		.uleb128 0x25
 1393 0004 0E       		.uleb128 0xe
 1394 0005 13       		.uleb128 0x13
 1395 0006 0B       		.uleb128 0xb
 1396 0007 03       		.uleb128 0x3
 1397 0008 0E       		.uleb128 0xe
 1398 0009 1B       		.uleb128 0x1b
 1399 000a 0E       		.uleb128 0xe
 1400 000b 11       		.uleb128 0x11
 1401 000c 01       		.uleb128 0x1
 1402 000d 12       		.uleb128 0x12
 1403 000e 01       		.uleb128 0x1
 1404 000f 10       		.uleb128 0x10
 1405 0010 06       		.uleb128 0x6
 1406 0011 00       		.byte	0
 1407 0012 00       		.byte	0
 1408 0013 02       		.uleb128 0x2
 1409 0014 24       		.uleb128 0x24
 1410 0015 00       		.byte	0
 1411 0016 0B       		.uleb128 0xb
 1412 0017 0B       		.uleb128 0xb
 1413 0018 3E       		.uleb128 0x3e
 1414 0019 0B       		.uleb128 0xb
 1415 001a 03       		.uleb128 0x3
 1416 001b 0E       		.uleb128 0xe
 1417 001c 00       		.byte	0
 1418 001d 00       		.byte	0
 1419 001e 03       		.uleb128 0x3
 1420 001f 16       		.uleb128 0x16
 1421 0020 00       		.byte	0
 1422 0021 03       		.uleb128 0x3
 1423 0022 0E       		.uleb128 0xe
 1424 0023 3A       		.uleb128 0x3a
 1425 0024 0B       		.uleb128 0xb
 1426 0025 3B       		.uleb128 0x3b
 1427 0026 0B       		.uleb128 0xb
 1428 0027 39       		.uleb128 0x39
 1429 0028 0B       		.uleb128 0xb
 1430 0029 49       		.uleb128 0x49
 1431 002a 13       		.uleb128 0x13
 1432 002b 00       		.byte	0
 1433 002c 00       		.byte	0
 1434 002d 04       		.uleb128 0x4
ARM GAS  C:\Users\skey\AppData\Local\Temp\ccV8noAG.s 			page 32


 1435 002e 24       		.uleb128 0x24
 1436 002f 00       		.byte	0
 1437 0030 0B       		.uleb128 0xb
 1438 0031 0B       		.uleb128 0xb
 1439 0032 3E       		.uleb128 0x3e
 1440 0033 0B       		.uleb128 0xb
 1441 0034 03       		.uleb128 0x3
 1442 0035 08       		.uleb128 0x8
 1443 0036 00       		.byte	0
 1444 0037 00       		.byte	0
 1445 0038 05       		.uleb128 0x5
 1446 0039 35       		.uleb128 0x35
 1447 003a 00       		.byte	0
 1448 003b 49       		.uleb128 0x49
 1449 003c 13       		.uleb128 0x13
 1450 003d 00       		.byte	0
 1451 003e 00       		.byte	0
 1452 003f 06       		.uleb128 0x6
 1453 0040 34       		.uleb128 0x34
 1454 0041 00       		.byte	0
 1455 0042 03       		.uleb128 0x3
 1456 0043 0E       		.uleb128 0xe
 1457 0044 3A       		.uleb128 0x3a
 1458 0045 0B       		.uleb128 0xb
 1459 0046 3B       		.uleb128 0x3b
 1460 0047 05       		.uleb128 0x5
 1461 0048 39       		.uleb128 0x39
 1462 0049 0B       		.uleb128 0xb
 1463 004a 49       		.uleb128 0x49
 1464 004b 13       		.uleb128 0x13
 1465 004c 3F       		.uleb128 0x3f
 1466 004d 0C       		.uleb128 0xc
 1467 004e 3C       		.uleb128 0x3c
 1468 004f 0C       		.uleb128 0xc
 1469 0050 00       		.byte	0
 1470 0051 00       		.byte	0
 1471 0052 07       		.uleb128 0x7
 1472 0053 34       		.uleb128 0x34
 1473 0054 00       		.byte	0
 1474 0055 03       		.uleb128 0x3
 1475 0056 0E       		.uleb128 0xe
 1476 0057 3A       		.uleb128 0x3a
 1477 0058 0B       		.uleb128 0xb
 1478 0059 3B       		.uleb128 0x3b
 1479 005a 0B       		.uleb128 0xb
 1480 005b 39       		.uleb128 0x39
 1481 005c 0B       		.uleb128 0xb
 1482 005d 49       		.uleb128 0x49
 1483 005e 13       		.uleb128 0x13
 1484 005f 3F       		.uleb128 0x3f
 1485 0060 0C       		.uleb128 0xc
 1486 0061 3C       		.uleb128 0x3c
 1487 0062 0C       		.uleb128 0xc
 1488 0063 00       		.byte	0
 1489 0064 00       		.byte	0
 1490 0065 08       		.uleb128 0x8
 1491 0066 04       		.uleb128 0x4
ARM GAS  C:\Users\skey\AppData\Local\Temp\ccV8noAG.s 			page 33


 1492 0067 01       		.byte	0x1
 1493 0068 3E       		.uleb128 0x3e
 1494 0069 0B       		.uleb128 0xb
 1495 006a 0B       		.uleb128 0xb
 1496 006b 0B       		.uleb128 0xb
 1497 006c 49       		.uleb128 0x49
 1498 006d 13       		.uleb128 0x13
 1499 006e 3A       		.uleb128 0x3a
 1500 006f 0B       		.uleb128 0xb
 1501 0070 3B       		.uleb128 0x3b
 1502 0071 05       		.uleb128 0x5
 1503 0072 39       		.uleb128 0x39
 1504 0073 0B       		.uleb128 0xb
 1505 0074 01       		.uleb128 0x1
 1506 0075 13       		.uleb128 0x13
 1507 0076 00       		.byte	0
 1508 0077 00       		.byte	0
 1509 0078 09       		.uleb128 0x9
 1510 0079 28       		.uleb128 0x28
 1511 007a 00       		.byte	0
 1512 007b 03       		.uleb128 0x3
 1513 007c 0E       		.uleb128 0xe
 1514 007d 1C       		.uleb128 0x1c
 1515 007e 0B       		.uleb128 0xb
 1516 007f 00       		.byte	0
 1517 0080 00       		.byte	0
 1518 0081 0A       		.uleb128 0xa
 1519 0082 28       		.uleb128 0x28
 1520 0083 00       		.byte	0
 1521 0084 03       		.uleb128 0x3
 1522 0085 08       		.uleb128 0x8
 1523 0086 1C       		.uleb128 0x1c
 1524 0087 0B       		.uleb128 0xb
 1525 0088 00       		.byte	0
 1526 0089 00       		.byte	0
 1527 008a 0B       		.uleb128 0xb
 1528 008b 16       		.uleb128 0x16
 1529 008c 00       		.byte	0
 1530 008d 03       		.uleb128 0x3
 1531 008e 0E       		.uleb128 0xe
 1532 008f 3A       		.uleb128 0x3a
 1533 0090 0B       		.uleb128 0xb
 1534 0091 3B       		.uleb128 0x3b
 1535 0092 05       		.uleb128 0x5
 1536 0093 39       		.uleb128 0x39
 1537 0094 0B       		.uleb128 0xb
 1538 0095 49       		.uleb128 0x49
 1539 0096 13       		.uleb128 0x13
 1540 0097 00       		.byte	0
 1541 0098 00       		.byte	0
 1542 0099 0C       		.uleb128 0xc
 1543 009a 13       		.uleb128 0x13
 1544 009b 01       		.byte	0x1
 1545 009c 0B       		.uleb128 0xb
 1546 009d 0B       		.uleb128 0xb
 1547 009e 3A       		.uleb128 0x3a
 1548 009f 0B       		.uleb128 0xb
ARM GAS  C:\Users\skey\AppData\Local\Temp\ccV8noAG.s 			page 34


 1549 00a0 3B       		.uleb128 0x3b
 1550 00a1 05       		.uleb128 0x5
 1551 00a2 39       		.uleb128 0x39
 1552 00a3 0B       		.uleb128 0xb
 1553 00a4 01       		.uleb128 0x1
 1554 00a5 13       		.uleb128 0x13
 1555 00a6 00       		.byte	0
 1556 00a7 00       		.byte	0
 1557 00a8 0D       		.uleb128 0xd
 1558 00a9 0D       		.uleb128 0xd
 1559 00aa 00       		.byte	0
 1560 00ab 03       		.uleb128 0x3
 1561 00ac 08       		.uleb128 0x8
 1562 00ad 3A       		.uleb128 0x3a
 1563 00ae 0B       		.uleb128 0xb
 1564 00af 3B       		.uleb128 0x3b
 1565 00b0 05       		.uleb128 0x5
 1566 00b1 39       		.uleb128 0x39
 1567 00b2 0B       		.uleb128 0xb
 1568 00b3 49       		.uleb128 0x49
 1569 00b4 13       		.uleb128 0x13
 1570 00b5 38       		.uleb128 0x38
 1571 00b6 0A       		.uleb128 0xa
 1572 00b7 00       		.byte	0
 1573 00b8 00       		.byte	0
 1574 00b9 0E       		.uleb128 0xe
 1575 00ba 0D       		.uleb128 0xd
 1576 00bb 00       		.byte	0
 1577 00bc 03       		.uleb128 0x3
 1578 00bd 0E       		.uleb128 0xe
 1579 00be 3A       		.uleb128 0x3a
 1580 00bf 0B       		.uleb128 0xb
 1581 00c0 3B       		.uleb128 0x3b
 1582 00c1 05       		.uleb128 0x5
 1583 00c2 39       		.uleb128 0x39
 1584 00c3 0B       		.uleb128 0xb
 1585 00c4 49       		.uleb128 0x49
 1586 00c5 13       		.uleb128 0x13
 1587 00c6 38       		.uleb128 0x38
 1588 00c7 0A       		.uleb128 0xa
 1589 00c8 00       		.byte	0
 1590 00c9 00       		.byte	0
 1591 00ca 0F       		.uleb128 0xf
 1592 00cb 2E       		.uleb128 0x2e
 1593 00cc 01       		.byte	0x1
 1594 00cd 3F       		.uleb128 0x3f
 1595 00ce 0C       		.uleb128 0xc
 1596 00cf 03       		.uleb128 0x3
 1597 00d0 0E       		.uleb128 0xe
 1598 00d1 3A       		.uleb128 0x3a
 1599 00d2 0B       		.uleb128 0xb
 1600 00d3 3B       		.uleb128 0x3b
 1601 00d4 05       		.uleb128 0x5
 1602 00d5 39       		.uleb128 0x39
 1603 00d6 0B       		.uleb128 0xb
 1604 00d7 27       		.uleb128 0x27
 1605 00d8 0C       		.uleb128 0xc
ARM GAS  C:\Users\skey\AppData\Local\Temp\ccV8noAG.s 			page 35


 1606 00d9 01       		.uleb128 0x1
 1607 00da 13       		.uleb128 0x13
 1608 00db 00       		.byte	0
 1609 00dc 00       		.byte	0
 1610 00dd 10       		.uleb128 0x10
 1611 00de 05       		.uleb128 0x5
 1612 00df 00       		.byte	0
 1613 00e0 03       		.uleb128 0x3
 1614 00e1 0E       		.uleb128 0xe
 1615 00e2 3A       		.uleb128 0x3a
 1616 00e3 0B       		.uleb128 0xb
 1617 00e4 3B       		.uleb128 0x3b
 1618 00e5 05       		.uleb128 0x5
 1619 00e6 39       		.uleb128 0x39
 1620 00e7 0B       		.uleb128 0xb
 1621 00e8 49       		.uleb128 0x49
 1622 00e9 13       		.uleb128 0x13
 1623 00ea 00       		.byte	0
 1624 00eb 00       		.byte	0
 1625 00ec 11       		.uleb128 0x11
 1626 00ed 2E       		.uleb128 0x2e
 1627 00ee 01       		.byte	0x1
 1628 00ef 3F       		.uleb128 0x3f
 1629 00f0 0C       		.uleb128 0xc
 1630 00f1 03       		.uleb128 0x3
 1631 00f2 0E       		.uleb128 0xe
 1632 00f3 3A       		.uleb128 0x3a
 1633 00f4 0B       		.uleb128 0xb
 1634 00f5 3B       		.uleb128 0x3b
 1635 00f6 05       		.uleb128 0x5
 1636 00f7 39       		.uleb128 0x39
 1637 00f8 0B       		.uleb128 0xb
 1638 00f9 27       		.uleb128 0x27
 1639 00fa 0C       		.uleb128 0xc
 1640 00fb 49       		.uleb128 0x49
 1641 00fc 13       		.uleb128 0x13
 1642 00fd 11       		.uleb128 0x11
 1643 00fe 01       		.uleb128 0x1
 1644 00ff 12       		.uleb128 0x12
 1645 0100 01       		.uleb128 0x1
 1646 0101 40       		.uleb128 0x40
 1647 0102 0A       		.uleb128 0xa
 1648 0103 9742     		.uleb128 0x2117
 1649 0105 0C       		.uleb128 0xc
 1650 0106 01       		.uleb128 0x1
 1651 0107 13       		.uleb128 0x13
 1652 0108 00       		.byte	0
 1653 0109 00       		.byte	0
 1654 010a 12       		.uleb128 0x12
 1655 010b 05       		.uleb128 0x5
 1656 010c 00       		.byte	0
 1657 010d 03       		.uleb128 0x3
 1658 010e 0E       		.uleb128 0xe
 1659 010f 3A       		.uleb128 0x3a
 1660 0110 0B       		.uleb128 0xb
 1661 0111 3B       		.uleb128 0x3b
 1662 0112 05       		.uleb128 0x5
ARM GAS  C:\Users\skey\AppData\Local\Temp\ccV8noAG.s 			page 36


 1663 0113 39       		.uleb128 0x39
 1664 0114 0B       		.uleb128 0xb
 1665 0115 49       		.uleb128 0x49
 1666 0116 13       		.uleb128 0x13
 1667 0117 02       		.uleb128 0x2
 1668 0118 06       		.uleb128 0x6
 1669 0119 B742     		.uleb128 0x2137
 1670 011b 06       		.uleb128 0x6
 1671 011c 00       		.byte	0
 1672 011d 00       		.byte	0
 1673 011e 13       		.uleb128 0x13
 1674 011f 34       		.uleb128 0x34
 1675 0120 00       		.byte	0
 1676 0121 03       		.uleb128 0x3
 1677 0122 0E       		.uleb128 0xe
 1678 0123 3A       		.uleb128 0x3a
 1679 0124 0B       		.uleb128 0xb
 1680 0125 3B       		.uleb128 0x3b
 1681 0126 05       		.uleb128 0x5
 1682 0127 39       		.uleb128 0x39
 1683 0128 0B       		.uleb128 0xb
 1684 0129 49       		.uleb128 0x49
 1685 012a 13       		.uleb128 0x13
 1686 012b 02       		.uleb128 0x2
 1687 012c 06       		.uleb128 0x6
 1688 012d B742     		.uleb128 0x2137
 1689 012f 06       		.uleb128 0x6
 1690 0130 00       		.byte	0
 1691 0131 00       		.byte	0
 1692 0132 14       		.uleb128 0x14
 1693 0133 2E       		.uleb128 0x2e
 1694 0134 01       		.byte	0x1
 1695 0135 3F       		.uleb128 0x3f
 1696 0136 0C       		.uleb128 0xc
 1697 0137 03       		.uleb128 0x3
 1698 0138 0E       		.uleb128 0xe
 1699 0139 3A       		.uleb128 0x3a
 1700 013a 0B       		.uleb128 0xb
 1701 013b 3B       		.uleb128 0x3b
 1702 013c 05       		.uleb128 0x5
 1703 013d 39       		.uleb128 0x39
 1704 013e 0B       		.uleb128 0xb
 1705 013f 27       		.uleb128 0x27
 1706 0140 0C       		.uleb128 0xc
 1707 0141 11       		.uleb128 0x11
 1708 0142 01       		.uleb128 0x1
 1709 0143 12       		.uleb128 0x12
 1710 0144 01       		.uleb128 0x1
 1711 0145 40       		.uleb128 0x40
 1712 0146 0A       		.uleb128 0xa
 1713 0147 9742     		.uleb128 0x2117
 1714 0149 0C       		.uleb128 0xc
 1715 014a 01       		.uleb128 0x1
 1716 014b 13       		.uleb128 0x13
 1717 014c 00       		.byte	0
 1718 014d 00       		.byte	0
 1719 014e 15       		.uleb128 0x15
ARM GAS  C:\Users\skey\AppData\Local\Temp\ccV8noAG.s 			page 37


 1720 014f 05       		.uleb128 0x5
 1721 0150 00       		.byte	0
 1722 0151 03       		.uleb128 0x3
 1723 0152 0E       		.uleb128 0xe
 1724 0153 3A       		.uleb128 0x3a
 1725 0154 0B       		.uleb128 0xb
 1726 0155 3B       		.uleb128 0x3b
 1727 0156 05       		.uleb128 0x5
 1728 0157 39       		.uleb128 0x39
 1729 0158 0B       		.uleb128 0xb
 1730 0159 49       		.uleb128 0x49
 1731 015a 13       		.uleb128 0x13
 1732 015b 02       		.uleb128 0x2
 1733 015c 0A       		.uleb128 0xa
 1734 015d 00       		.byte	0
 1735 015e 00       		.byte	0
 1736 015f 16       		.uleb128 0x16
 1737 0160 2E       		.uleb128 0x2e
 1738 0161 01       		.byte	0x1
 1739 0162 3F       		.uleb128 0x3f
 1740 0163 0C       		.uleb128 0xc
 1741 0164 03       		.uleb128 0x3
 1742 0165 0E       		.uleb128 0xe
 1743 0166 3A       		.uleb128 0x3a
 1744 0167 0B       		.uleb128 0xb
 1745 0168 3B       		.uleb128 0x3b
 1746 0169 0B       		.uleb128 0xb
 1747 016a 39       		.uleb128 0x39
 1748 016b 0B       		.uleb128 0xb
 1749 016c 27       		.uleb128 0x27
 1750 016d 0C       		.uleb128 0xc
 1751 016e 49       		.uleb128 0x49
 1752 016f 13       		.uleb128 0x13
 1753 0170 11       		.uleb128 0x11
 1754 0171 01       		.uleb128 0x1
 1755 0172 12       		.uleb128 0x12
 1756 0173 01       		.uleb128 0x1
 1757 0174 40       		.uleb128 0x40
 1758 0175 0A       		.uleb128 0xa
 1759 0176 9742     		.uleb128 0x2117
 1760 0178 0C       		.uleb128 0xc
 1761 0179 01       		.uleb128 0x1
 1762 017a 13       		.uleb128 0x13
 1763 017b 00       		.byte	0
 1764 017c 00       		.byte	0
 1765 017d 17       		.uleb128 0x17
 1766 017e 05       		.uleb128 0x5
 1767 017f 00       		.byte	0
 1768 0180 03       		.uleb128 0x3
 1769 0181 0E       		.uleb128 0xe
 1770 0182 3A       		.uleb128 0x3a
 1771 0183 0B       		.uleb128 0xb
 1772 0184 3B       		.uleb128 0x3b
 1773 0185 0B       		.uleb128 0xb
 1774 0186 39       		.uleb128 0x39
 1775 0187 0B       		.uleb128 0xb
 1776 0188 49       		.uleb128 0x49
ARM GAS  C:\Users\skey\AppData\Local\Temp\ccV8noAG.s 			page 38


 1777 0189 13       		.uleb128 0x13
 1778 018a 02       		.uleb128 0x2
 1779 018b 06       		.uleb128 0x6
 1780 018c B742     		.uleb128 0x2137
 1781 018e 06       		.uleb128 0x6
 1782 018f 00       		.byte	0
 1783 0190 00       		.byte	0
 1784 0191 18       		.uleb128 0x18
 1785 0192 34       		.uleb128 0x34
 1786 0193 00       		.byte	0
 1787 0194 03       		.uleb128 0x3
 1788 0195 0E       		.uleb128 0xe
 1789 0196 3A       		.uleb128 0x3a
 1790 0197 0B       		.uleb128 0xb
 1791 0198 3B       		.uleb128 0x3b
 1792 0199 0B       		.uleb128 0xb
 1793 019a 39       		.uleb128 0x39
 1794 019b 0B       		.uleb128 0xb
 1795 019c 49       		.uleb128 0x49
 1796 019d 13       		.uleb128 0x13
 1797 019e 02       		.uleb128 0x2
 1798 019f 06       		.uleb128 0x6
 1799 01a0 B742     		.uleb128 0x2137
 1800 01a2 06       		.uleb128 0x6
 1801 01a3 00       		.byte	0
 1802 01a4 00       		.byte	0
 1803 01a5 19       		.uleb128 0x19
 1804 01a6 2E       		.uleb128 0x2e
 1805 01a7 00       		.byte	0
 1806 01a8 3F       		.uleb128 0x3f
 1807 01a9 0C       		.uleb128 0xc
 1808 01aa 03       		.uleb128 0x3
 1809 01ab 0E       		.uleb128 0xe
 1810 01ac 3A       		.uleb128 0x3a
 1811 01ad 0B       		.uleb128 0xb
 1812 01ae 3B       		.uleb128 0x3b
 1813 01af 0B       		.uleb128 0xb
 1814 01b0 39       		.uleb128 0x39
 1815 01b1 0B       		.uleb128 0xb
 1816 01b2 27       		.uleb128 0x27
 1817 01b3 0C       		.uleb128 0xc
 1818 01b4 11       		.uleb128 0x11
 1819 01b5 01       		.uleb128 0x1
 1820 01b6 12       		.uleb128 0x12
 1821 01b7 01       		.uleb128 0x1
 1822 01b8 40       		.uleb128 0x40
 1823 01b9 0A       		.uleb128 0xa
 1824 01ba 9742     		.uleb128 0x2117
 1825 01bc 0C       		.uleb128 0xc
 1826 01bd 00       		.byte	0
 1827 01be 00       		.byte	0
 1828 01bf 1A       		.uleb128 0x1a
 1829 01c0 34       		.uleb128 0x34
 1830 01c1 00       		.byte	0
 1831 01c2 03       		.uleb128 0x3
 1832 01c3 08       		.uleb128 0x8
 1833 01c4 3A       		.uleb128 0x3a
ARM GAS  C:\Users\skey\AppData\Local\Temp\ccV8noAG.s 			page 39


 1834 01c5 0B       		.uleb128 0xb
 1835 01c6 3B       		.uleb128 0x3b
 1836 01c7 0B       		.uleb128 0xb
 1837 01c8 39       		.uleb128 0x39
 1838 01c9 0B       		.uleb128 0xb
 1839 01ca 49       		.uleb128 0x49
 1840 01cb 13       		.uleb128 0x13
 1841 01cc 02       		.uleb128 0x2
 1842 01cd 06       		.uleb128 0x6
 1843 01ce B742     		.uleb128 0x2137
 1844 01d0 06       		.uleb128 0x6
 1845 01d1 00       		.byte	0
 1846 01d2 00       		.byte	0
 1847 01d3 1B       		.uleb128 0x1b
 1848 01d4 2E       		.uleb128 0x2e
 1849 01d5 01       		.byte	0x1
 1850 01d6 3F       		.uleb128 0x3f
 1851 01d7 0C       		.uleb128 0xc
 1852 01d8 03       		.uleb128 0x3
 1853 01d9 0E       		.uleb128 0xe
 1854 01da 3A       		.uleb128 0x3a
 1855 01db 0B       		.uleb128 0xb
 1856 01dc 3B       		.uleb128 0x3b
 1857 01dd 0B       		.uleb128 0xb
 1858 01de 39       		.uleb128 0x39
 1859 01df 0B       		.uleb128 0xb
 1860 01e0 27       		.uleb128 0x27
 1861 01e1 0C       		.uleb128 0xc
 1862 01e2 11       		.uleb128 0x11
 1863 01e3 01       		.uleb128 0x1
 1864 01e4 12       		.uleb128 0x12
 1865 01e5 01       		.uleb128 0x1
 1866 01e6 40       		.uleb128 0x40
 1867 01e7 06       		.uleb128 0x6
 1868 01e8 9742     		.uleb128 0x2117
 1869 01ea 0C       		.uleb128 0xc
 1870 01eb 01       		.uleb128 0x1
 1871 01ec 13       		.uleb128 0x13
 1872 01ed 00       		.byte	0
 1873 01ee 00       		.byte	0
 1874 01ef 1C       		.uleb128 0x1c
 1875 01f0 898201   		.uleb128 0x4109
 1876 01f3 00       		.byte	0
 1877 01f4 11       		.uleb128 0x11
 1878 01f5 01       		.uleb128 0x1
 1879 01f6 31       		.uleb128 0x31
 1880 01f7 13       		.uleb128 0x13
 1881 01f8 00       		.byte	0
 1882 01f9 00       		.byte	0
 1883 01fa 1D       		.uleb128 0x1d
 1884 01fb 898201   		.uleb128 0x4109
 1885 01fe 00       		.byte	0
 1886 01ff 11       		.uleb128 0x11
 1887 0200 01       		.uleb128 0x1
 1888 0201 9542     		.uleb128 0x2115
 1889 0203 0C       		.uleb128 0xc
 1890 0204 31       		.uleb128 0x31
ARM GAS  C:\Users\skey\AppData\Local\Temp\ccV8noAG.s 			page 40


 1891 0205 13       		.uleb128 0x13
 1892 0206 00       		.byte	0
 1893 0207 00       		.byte	0
 1894 0208 1E       		.uleb128 0x1e
 1895 0209 2E       		.uleb128 0x2e
 1896 020a 01       		.byte	0x1
 1897 020b 3F       		.uleb128 0x3f
 1898 020c 0C       		.uleb128 0xc
 1899 020d 03       		.uleb128 0x3
 1900 020e 0E       		.uleb128 0xe
 1901 020f 3A       		.uleb128 0x3a
 1902 0210 0B       		.uleb128 0xb
 1903 0211 3B       		.uleb128 0x3b
 1904 0212 0B       		.uleb128 0xb
 1905 0213 39       		.uleb128 0x39
 1906 0214 0B       		.uleb128 0xb
 1907 0215 27       		.uleb128 0x27
 1908 0216 0C       		.uleb128 0xc
 1909 0217 11       		.uleb128 0x11
 1910 0218 01       		.uleb128 0x1
 1911 0219 12       		.uleb128 0x12
 1912 021a 01       		.uleb128 0x1
 1913 021b 40       		.uleb128 0x40
 1914 021c 0A       		.uleb128 0xa
 1915 021d 9742     		.uleb128 0x2117
 1916 021f 0C       		.uleb128 0xc
 1917 0220 00       		.byte	0
 1918 0221 00       		.byte	0
 1919 0222 1F       		.uleb128 0x1f
 1920 0223 05       		.uleb128 0x5
 1921 0224 00       		.byte	0
 1922 0225 03       		.uleb128 0x3
 1923 0226 0E       		.uleb128 0xe
 1924 0227 3A       		.uleb128 0x3a
 1925 0228 0B       		.uleb128 0xb
 1926 0229 3B       		.uleb128 0x3b
 1927 022a 0B       		.uleb128 0xb
 1928 022b 39       		.uleb128 0x39
 1929 022c 0B       		.uleb128 0xb
 1930 022d 49       		.uleb128 0x49
 1931 022e 13       		.uleb128 0x13
 1932 022f 02       		.uleb128 0x2
 1933 0230 0A       		.uleb128 0xa
 1934 0231 00       		.byte	0
 1935 0232 00       		.byte	0
 1936 0233 00       		.byte	0
 1937              		.section	.debug_loc,"",%progbits
 1938              	.Ldebug_loc0:
 1939              	.LVUS11:
 1940 0000 00       		.uleb128 0
 1941 0001 00       		.uleb128 .LVU124
 1942 0002 00       		.uleb128 .LVU124
 1943 0003 00       		.uleb128 0
 1944              	.LLST11:
 1945 0004 18010000 		.4byte	.LVL26-.Ltext0
 1946 0008 24010000 		.4byte	.LVL28-.Ltext0
 1947 000c 0100     		.2byte	0x1
ARM GAS  C:\Users\skey\AppData\Local\Temp\ccV8noAG.s 			page 41


 1948 000e 50       		.byte	0x50
 1949 000f 24010000 		.4byte	.LVL28-.Ltext0
 1950 0013 38010000 		.4byte	.LFE41-.Ltext0
 1951 0017 0400     		.2byte	0x4
 1952 0019 F3       		.byte	0xf3
 1953 001a 01       		.uleb128 0x1
 1954 001b 50       		.byte	0x50
 1955 001c 9F       		.byte	0x9f
 1956 001d 00000000 		.4byte	0
 1957 0021 00000000 		.4byte	0
 1958              	.LVUS12:
 1959 0025 02       		.uleb128 .LVU115
 1960 0026 00       		.uleb128 .LVU122
 1961 0027 00       		.uleb128 .LVU122
 1962 0028 00       		.uleb128 .LVU124
 1963 0029 00       		.uleb128 .LVU124
 1964 002a 00       		.uleb128 .LVU128
 1965 002b 00       		.uleb128 .LVU128
 1966 002c 00       		.uleb128 0
 1967              	.LLST12:
 1968 002d 18010000 		.4byte	.LVL26-.Ltext0
 1969 0031 22010000 		.4byte	.LVL27-.Ltext0
 1970 0035 0200     		.2byte	0x2
 1971 0037 30       		.byte	0x30
 1972 0038 9F       		.byte	0x9f
 1973 0039 22010000 		.4byte	.LVL27-.Ltext0
 1974 003d 24010000 		.4byte	.LVL28-.Ltext0
 1975 0041 0600     		.2byte	0x6
 1976 0043 72       		.byte	0x72
 1977 0044 00       		.sleb128 0
 1978 0045 70       		.byte	0x70
 1979 0046 00       		.sleb128 0
 1980 0047 1A       		.byte	0x1a
 1981 0048 9F       		.byte	0x9f
 1982 0049 24010000 		.4byte	.LVL28-.Ltext0
 1983 004d 32010000 		.4byte	.LVL29-.Ltext0
 1984 0051 0700     		.2byte	0x7
 1985 0053 72       		.byte	0x72
 1986 0054 00       		.sleb128 0
 1987 0055 F3       		.byte	0xf3
 1988 0056 01       		.uleb128 0x1
 1989 0057 50       		.byte	0x50
 1990 0058 1A       		.byte	0x1a
 1991 0059 9F       		.byte	0x9f
 1992 005a 32010000 		.4byte	.LVL29-.Ltext0
 1993 005e 38010000 		.4byte	.LFE41-.Ltext0
 1994 0062 0100     		.2byte	0x1
 1995 0064 50       		.byte	0x50
 1996 0065 00000000 		.4byte	0
 1997 0069 00000000 		.4byte	0
 1998              	.LVUS9:
 1999 006d 00       		.uleb128 0
 2000 006e 00       		.uleb128 .LVU107
 2001 006f 00       		.uleb128 .LVU107
 2002 0070 00       		.uleb128 0
 2003              	.LLST9:
 2004 0071 F0000000 		.4byte	.LVL22-.Ltext0
ARM GAS  C:\Users\skey\AppData\Local\Temp\ccV8noAG.s 			page 42


 2005 0075 FA000000 		.4byte	.LVL24-.Ltext0
 2006 0079 0100     		.2byte	0x1
 2007 007b 50       		.byte	0x50
 2008 007c FA000000 		.4byte	.LVL24-.Ltext0
 2009 0080 04010000 		.4byte	.LFE39-.Ltext0
 2010 0084 0400     		.2byte	0x4
 2011 0086 F3       		.byte	0xf3
 2012 0087 01       		.uleb128 0x1
 2013 0088 50       		.byte	0x50
 2014 0089 9F       		.byte	0x9f
 2015 008a 00000000 		.4byte	0
 2016 008e 00000000 		.4byte	0
 2017              	.LVUS10:
 2018 0092 02       		.uleb128 .LVU101
 2019 0093 00       		.uleb128 .LVU104
 2020 0094 00       		.uleb128 .LVU104
 2021 0095 00       		.uleb128 .LVU107
 2022 0096 00       		.uleb128 .LVU107
 2023 0097 00       		.uleb128 0
 2024              	.LLST10:
 2025 0098 F0000000 		.4byte	.LVL22-.Ltext0
 2026 009c F4000000 		.4byte	.LVL23-.Ltext0
 2027 00a0 0200     		.2byte	0x2
 2028 00a2 30       		.byte	0x30
 2029 00a3 9F       		.byte	0x9f
 2030 00a4 F4000000 		.4byte	.LVL23-.Ltext0
 2031 00a8 FA000000 		.4byte	.LVL24-.Ltext0
 2032 00ac 0A00     		.2byte	0xa
 2033 00ae 73       		.byte	0x73
 2034 00af 00       		.sleb128 0
 2035 00b0 70       		.byte	0x70
 2036 00b1 00       		.sleb128 0
 2037 00b2 1A       		.byte	0x1a
 2038 00b3 40       		.byte	0x40
 2039 00b4 24       		.byte	0x24
 2040 00b5 30       		.byte	0x30
 2041 00b6 2E       		.byte	0x2e
 2042 00b7 9F       		.byte	0x9f
 2043 00b8 FA000000 		.4byte	.LVL24-.Ltext0
 2044 00bc 04010000 		.4byte	.LFE39-.Ltext0
 2045 00c0 0B00     		.2byte	0xb
 2046 00c2 73       		.byte	0x73
 2047 00c3 00       		.sleb128 0
 2048 00c4 F3       		.byte	0xf3
 2049 00c5 01       		.uleb128 0x1
 2050 00c6 50       		.byte	0x50
 2051 00c7 1A       		.byte	0x1a
 2052 00c8 40       		.byte	0x40
 2053 00c9 24       		.byte	0x24
 2054 00ca 30       		.byte	0x30
 2055 00cb 2E       		.byte	0x2e
 2056 00cc 9F       		.byte	0x9f
 2057 00cd 00000000 		.4byte	0
 2058 00d1 00000000 		.4byte	0
 2059              	.LVUS8:
 2060 00d5 02       		.uleb128 .LVU72
 2061 00d6 00       		.uleb128 .LVU77
ARM GAS  C:\Users\skey\AppData\Local\Temp\ccV8noAG.s 			page 43


 2062 00d7 00       		.uleb128 .LVU77
 2063 00d8 00       		.uleb128 .LVU79
 2064 00d9 00       		.uleb128 .LVU79
 2065 00da 00       		.uleb128 .LVU81
 2066              	.LLST8:
 2067 00db AC000000 		.4byte	.LVL18-.Ltext0
 2068 00df B8000000 		.4byte	.LVL19-.Ltext0
 2069 00e3 0200     		.2byte	0x2
 2070 00e5 30       		.byte	0x30
 2071 00e6 9F       		.byte	0x9f
 2072 00e7 B8000000 		.4byte	.LVL19-.Ltext0
 2073 00eb BA000000 		.4byte	.LVL20-.Ltext0
 2074 00ef 0100     		.2byte	0x1
 2075 00f1 53       		.byte	0x53
 2076 00f2 BA000000 		.4byte	.LVL20-.Ltext0
 2077 00f6 BC000000 		.4byte	.LVL21-.Ltext0
 2078 00fa 0A00     		.2byte	0xa
 2079 00fc 70       		.byte	0x70
 2080 00fd 00       		.sleb128 0
 2081 00fe 0A       		.byte	0xa
 2082 00ff FFFF     		.2byte	0xffff
 2083 0101 1A       		.byte	0x1a
 2084 0102 73       		.byte	0x73
 2085 0103 00       		.sleb128 0
 2086 0104 21       		.byte	0x21
 2087 0105 9F       		.byte	0x9f
 2088 0106 00000000 		.4byte	0
 2089 010a 00000000 		.4byte	0
 2090              	.LLST6:
 2091 010e 90000000 		.4byte	.LFB35-.Ltext0
 2092 0112 92000000 		.4byte	.LCFI4-.Ltext0
 2093 0116 0200     		.2byte	0x2
 2094 0118 7D       		.byte	0x7d
 2095 0119 00       		.sleb128 0
 2096 011a 92000000 		.4byte	.LCFI4-.Ltext0
 2097 011e A4000000 		.4byte	.LCFI5-.Ltext0
 2098 0122 0200     		.2byte	0x2
 2099 0124 7D       		.byte	0x7d
 2100 0125 08       		.sleb128 8
 2101 0126 A4000000 		.4byte	.LCFI5-.Ltext0
 2102 012a AC000000 		.4byte	.LFE35-.Ltext0
 2103 012e 0200     		.2byte	0x2
 2104 0130 7D       		.byte	0x7d
 2105 0131 00       		.sleb128 0
 2106 0132 00000000 		.4byte	0
 2107 0136 00000000 		.4byte	0
 2108              	.LVUS7:
 2109 013a 00       		.uleb128 0
 2110 013b 00       		.uleb128 .LVU64
 2111 013c 00       		.uleb128 .LVU64
 2112 013d 00       		.uleb128 0
 2113              	.LLST7:
 2114 013e 90000000 		.4byte	.LVL14-.Ltext0
 2115 0142 9C000000 		.4byte	.LVL16-.Ltext0
 2116 0146 0100     		.2byte	0x1
 2117 0148 50       		.byte	0x50
 2118 0149 9C000000 		.4byte	.LVL16-.Ltext0
ARM GAS  C:\Users\skey\AppData\Local\Temp\ccV8noAG.s 			page 44


 2119 014d AC000000 		.4byte	.LFE35-.Ltext0
 2120 0151 0400     		.2byte	0x4
 2121 0153 F3       		.byte	0xf3
 2122 0154 01       		.uleb128 0x1
 2123 0155 50       		.byte	0x50
 2124 0156 9F       		.byte	0x9f
 2125 0157 00000000 		.4byte	0
 2126 015b 00000000 		.4byte	0
 2127              	.LLST4:
 2128 015f 70000000 		.4byte	.LFB34-.Ltext0
 2129 0163 72000000 		.4byte	.LCFI2-.Ltext0
 2130 0167 0200     		.2byte	0x2
 2131 0169 7D       		.byte	0x7d
 2132 016a 00       		.sleb128 0
 2133 016b 72000000 		.4byte	.LCFI2-.Ltext0
 2134 016f 86000000 		.4byte	.LCFI3-.Ltext0
 2135 0173 0200     		.2byte	0x2
 2136 0175 7D       		.byte	0x7d
 2137 0176 08       		.sleb128 8
 2138 0177 86000000 		.4byte	.LCFI3-.Ltext0
 2139 017b 90000000 		.4byte	.LFE34-.Ltext0
 2140 017f 0200     		.2byte	0x2
 2141 0181 7D       		.byte	0x7d
 2142 0182 00       		.sleb128 0
 2143 0183 00000000 		.4byte	0
 2144 0187 00000000 		.4byte	0
 2145              	.LVUS5:
 2146 018b 00       		.uleb128 0
 2147 018c 00       		.uleb128 .LVU51
 2148 018d 00       		.uleb128 .LVU51
 2149 018e 00       		.uleb128 0
 2150              	.LLST5:
 2151 018f 70000000 		.4byte	.LVL10-.Ltext0
 2152 0193 7E000000 		.4byte	.LVL12-.Ltext0
 2153 0197 0100     		.2byte	0x1
 2154 0199 50       		.byte	0x50
 2155 019a 7E000000 		.4byte	.LVL12-.Ltext0
 2156 019e 90000000 		.4byte	.LFE34-.Ltext0
 2157 01a2 0400     		.2byte	0x4
 2158 01a4 F3       		.byte	0xf3
 2159 01a5 01       		.uleb128 0x1
 2160 01a6 50       		.byte	0x50
 2161 01a7 9F       		.byte	0x9f
 2162 01a8 00000000 		.4byte	0
 2163 01ac 00000000 		.4byte	0
 2164              	.LLST2:
 2165 01b0 54000000 		.4byte	.LFB33-.Ltext0
 2166 01b4 56000000 		.4byte	.LCFI0-.Ltext0
 2167 01b8 0200     		.2byte	0x2
 2168 01ba 7D       		.byte	0x7d
 2169 01bb 00       		.sleb128 0
 2170 01bc 56000000 		.4byte	.LCFI0-.Ltext0
 2171 01c0 68000000 		.4byte	.LCFI1-.Ltext0
 2172 01c4 0200     		.2byte	0x2
 2173 01c6 7D       		.byte	0x7d
 2174 01c7 08       		.sleb128 8
 2175 01c8 68000000 		.4byte	.LCFI1-.Ltext0
ARM GAS  C:\Users\skey\AppData\Local\Temp\ccV8noAG.s 			page 45


 2176 01cc 70000000 		.4byte	.LFE33-.Ltext0
 2177 01d0 0200     		.2byte	0x2
 2178 01d2 7D       		.byte	0x7d
 2179 01d3 00       		.sleb128 0
 2180 01d4 00000000 		.4byte	0
 2181 01d8 00000000 		.4byte	0
 2182              	.LVUS3:
 2183 01dc 00       		.uleb128 0
 2184 01dd 00       		.uleb128 .LVU36
 2185 01de 00       		.uleb128 .LVU36
 2186 01df 00       		.uleb128 0
 2187              	.LLST3:
 2188 01e0 54000000 		.4byte	.LVL6-.Ltext0
 2189 01e4 60000000 		.4byte	.LVL8-.Ltext0
 2190 01e8 0100     		.2byte	0x1
 2191 01ea 50       		.byte	0x50
 2192 01eb 60000000 		.4byte	.LVL8-.Ltext0
 2193 01ef 70000000 		.4byte	.LFE33-.Ltext0
 2194 01f3 0400     		.2byte	0x4
 2195 01f5 F3       		.byte	0xf3
 2196 01f6 01       		.uleb128 0x1
 2197 01f7 50       		.byte	0x50
 2198 01f8 9F       		.byte	0x9f
 2199 01f9 00000000 		.4byte	0
 2200 01fd 00000000 		.4byte	0
 2201              	.LVUS1:
 2202 0201 02       		.uleb128 .LVU23
 2203 0202 00       		.uleb128 .LVU27
 2204 0203 00       		.uleb128 .LVU27
 2205 0204 00       		.uleb128 0
 2206              	.LLST1:
 2207 0205 40000000 		.4byte	.LVL4-.Ltext0
 2208 0209 48000000 		.4byte	.LVL5-.Ltext0
 2209 020d 0200     		.2byte	0x2
 2210 020f 30       		.byte	0x30
 2211 0210 9F       		.byte	0x9f
 2212 0211 48000000 		.4byte	.LVL5-.Ltext0
 2213 0215 54000000 		.4byte	.LFE32-.Ltext0
 2214 0219 0100     		.2byte	0x1
 2215 021b 53       		.byte	0x53
 2216 021c 00000000 		.4byte	0
 2217 0220 00000000 		.4byte	0
 2218              	.LVUS0:
 2219 0224 00       		.uleb128 0
 2220 0225 00       		.uleb128 .LVU8
 2221 0226 00       		.uleb128 .LVU8
 2222 0227 00       		.uleb128 .LVU10
 2223 0228 00       		.uleb128 .LVU10
 2224 0229 00       		.uleb128 .LVU12
 2225 022a 00       		.uleb128 .LVU12
 2226 022b 00       		.uleb128 0
 2227              	.LLST0:
 2228 022c 00000000 		.4byte	.LVL0-.Ltext0
 2229 0230 0A000000 		.4byte	.LVL1-.Ltext0
 2230 0234 0100     		.2byte	0x1
 2231 0236 50       		.byte	0x50
 2232 0237 0A000000 		.4byte	.LVL1-.Ltext0
ARM GAS  C:\Users\skey\AppData\Local\Temp\ccV8noAG.s 			page 46


 2233 023b 0E000000 		.4byte	.LVL2-.Ltext0
 2234 023f 0400     		.2byte	0x4
 2235 0241 F3       		.byte	0xf3
 2236 0242 01       		.uleb128 0x1
 2237 0243 50       		.byte	0x50
 2238 0244 9F       		.byte	0x9f
 2239 0245 0E000000 		.4byte	.LVL2-.Ltext0
 2240 0249 12000000 		.4byte	.LVL3-.Ltext0
 2241 024d 0100     		.2byte	0x1
 2242 024f 50       		.byte	0x50
 2243 0250 12000000 		.4byte	.LVL3-.Ltext0
 2244 0254 18000000 		.4byte	.LFE29-.Ltext0
 2245 0258 0400     		.2byte	0x4
 2246 025a F3       		.byte	0xf3
 2247 025b 01       		.uleb128 0x1
 2248 025c 50       		.byte	0x50
 2249 025d 9F       		.byte	0x9f
 2250 025e 00000000 		.4byte	0
 2251 0262 00000000 		.4byte	0
 2252              		.section	.debug_aranges,"",%progbits
 2253 0000 1C000000 		.4byte	0x1c
 2254 0004 0200     		.2byte	0x2
 2255 0006 00000000 		.4byte	.Ldebug_info0
 2256 000a 04       		.byte	0x4
 2257 000b 00       		.byte	0
 2258 000c 0000     		.2byte	0
 2259 000e 0000     		.2byte	0
 2260 0010 00000000 		.4byte	.Ltext0
 2261 0014 3C010000 		.4byte	.Letext0-.Ltext0
 2262 0018 00000000 		.4byte	0
 2263 001c 00000000 		.4byte	0
 2264              		.section	.debug_line,"",%progbits
 2265              	.Ldebug_line0:
 2266 0000 D0030000 		.section	.debug_str,"MS",%progbits,1
 2266      0300A001 
 2266      00000201 
 2266      FB0E0D00 
 2266      01010101 
 2267              	.LASF53:
 2268 0000 5254435F 		.ascii	"RTC_SetPrescaler\000"
 2268      53657450 
 2268      72657363 
 2268      616C6572 
 2268      00
 2269              	.LASF65:
 2270 0011 5254435F 		.ascii	"RTC_ITConfig\000"
 2270      4954436F 
 2270      6E666967 
 2270      00
 2271              	.LASF29:
 2272 001e 44495648 		.ascii	"DIVH\000"
 2272      00
 2273              	.LASF63:
 2274 0023 443A5C53 		.ascii	"D:\\STM32_Freertos_GCC_Makefile_Win\000"
 2274      544D3332 
 2274      5F467265 
 2274      6572746F 
ARM GAS  C:\Users\skey\AppData\Local\Temp\ccV8noAG.s 			page 47


 2274      735F4743 
 2275              	.LASF31:
 2276 0046 4449564C 		.ascii	"DIVL\000"
 2276      00
 2277              	.LASF56:
 2278 004b 436F756E 		.ascii	"CounterValue\000"
 2278      74657256 
 2278      616C7565 
 2278      00
 2279              	.LASF43:
 2280 0058 5254435F 		.ascii	"RTC_GetITStatus\000"
 2280      47657449 
 2280      54537461 
 2280      74757300 
 2281              	.LASF61:
 2282 0068 474E5520 		.ascii	"GNU C17 9.2.1 20191025 (release) [ARM/arm-9-branch "
 2282      43313720 
 2282      392E322E 
 2282      31203230 
 2282      31393130 
 2283 009b 72657669 		.ascii	"revision 277599] -mcpu=cortex-m3 -mthumb -mfloat-ab"
 2283      73696F6E 
 2283      20323737 
 2283      3539395D 
 2283      202D6D63 
 2284 00ce 693D736F 		.ascii	"i=soft -march=armv7-m -g -gdwarf-2 -Os -fomit-frame"
 2284      6674202D 
 2284      6D617263 
 2284      683D6172 
 2284      6D76372D 
 2285 0101 2D706F69 		.ascii	"-pointer\000"
 2285      6E746572 
 2285      00
 2286              	.LASF55:
 2287 010a 5254435F 		.ascii	"RTC_SetCounter\000"
 2287      53657443 
 2287      6F756E74 
 2287      657200
 2288              	.LASF7:
 2289 0119 5F5F7569 		.ascii	"__uint32_t\000"
 2289      6E743332 
 2289      5F7400
 2290              	.LASF50:
 2291 0124 5254435F 		.ascii	"RTC_ClearFlag\000"
 2291      436C6561 
 2291      72466C61 
 2291      6700
 2292              	.LASF4:
 2293 0132 5F5F7569 		.ascii	"__uint16_t\000"
 2293      6E743136 
 2293      5F7400
 2294              	.LASF2:
 2295 013d 73686F72 		.ascii	"short int\000"
 2295      7420696E 
 2295      7400
 2296              	.LASF12:
 2297 0147 75696E74 		.ascii	"uint8_t\000"
ARM GAS  C:\Users\skey\AppData\Local\Temp\ccV8noAG.s 			page 48


 2297      385F7400 
 2298              	.LASF46:
 2299 014f 5254435F 		.ascii	"RTC_FLAG\000"
 2299      464C4147 
 2299      00
 2300              	.LASF60:
 2301 0158 4E657753 		.ascii	"NewState\000"
 2301      74617465 
 2301      00
 2302              	.LASF20:
 2303 0161 44495341 		.ascii	"DISABLE\000"
 2303      424C4500 
 2304              	.LASF64:
 2305 0169 5254435F 		.ascii	"RTC_ClearITPendingBit\000"
 2305      436C6561 
 2305      72495450 
 2305      656E6469 
 2305      6E674269 
 2306              	.LASF47:
 2307 017f 5254435F 		.ascii	"RTC_WaitForSynchro\000"
 2307      57616974 
 2307      466F7253 
 2307      796E6368 
 2307      726F00
 2308              	.LASF49:
 2309 0192 5254435F 		.ascii	"RTC_GetDivider\000"
 2309      47657444 
 2309      69766964 
 2309      657200
 2310              	.LASF9:
 2311 01a1 6C6F6E67 		.ascii	"long long int\000"
 2311      206C6F6E 
 2311      6720696E 
 2311      7400
 2312              	.LASF19:
 2313 01af 49545374 		.ascii	"ITStatus\000"
 2313      61747573 
 2313      00
 2314              	.LASF6:
 2315 01b8 6C6F6E67 		.ascii	"long int\000"
 2315      20696E74 
 2315      00
 2316              	.LASF3:
 2317 01c1 5F5F7569 		.ascii	"__uint8_t\000"
 2317      6E74385F 
 2317      7400
 2318              	.LASF48:
 2319 01cb 5254435F 		.ascii	"RTC_WaitForLastTask\000"
 2319      57616974 
 2319      466F724C 
 2319      61737454 
 2319      61736B00 
 2320              	.LASF51:
 2321 01df 5254435F 		.ascii	"RTC_SetAlarm\000"
 2321      53657441 
 2321      6C61726D 
 2321      00
ARM GAS  C:\Users\skey\AppData\Local\Temp\ccV8noAG.s 			page 49


 2322              	.LASF42:
 2323 01ec 62697473 		.ascii	"bitstatus\000"
 2323      74617475 
 2323      7300
 2324              	.LASF44:
 2325 01f6 5254435F 		.ascii	"RTC_GetFlagStatus\000"
 2325      47657446 
 2325      6C616753 
 2325      74617475 
 2325      7300
 2326              	.LASF1:
 2327 0208 756E7369 		.ascii	"unsigned char\000"
 2327      676E6564 
 2327      20636861 
 2327      7200
 2328              	.LASF27:
 2329 0216 50524C4C 		.ascii	"PRLL\000"
 2329      00
 2330              	.LASF0:
 2331 021b 7369676E 		.ascii	"signed char\000"
 2331      65642063 
 2331      68617200 
 2332              	.LASF10:
 2333 0227 6C6F6E67 		.ascii	"long long unsigned int\000"
 2333      206C6F6E 
 2333      6720756E 
 2333      7369676E 
 2333      65642069 
 2334              	.LASF14:
 2335 023e 75696E74 		.ascii	"uint32_t\000"
 2335      33325F74 
 2335      00
 2336              	.LASF11:
 2337 0247 756E7369 		.ascii	"unsigned int\000"
 2337      676E6564 
 2337      20696E74 
 2337      00
 2338              	.LASF13:
 2339 0254 75696E74 		.ascii	"uint16_t\000"
 2339      31365F74 
 2339      00
 2340              	.LASF8:
 2341 025d 6C6F6E67 		.ascii	"long unsigned int\000"
 2341      20756E73 
 2341      69676E65 
 2341      6420696E 
 2341      7400
 2342              	.LASF52:
 2343 026f 416C6172 		.ascii	"AlarmValue\000"
 2343      6D56616C 
 2343      756500
 2344              	.LASF5:
 2345 027a 73686F72 		.ascii	"short unsigned int\000"
 2345      7420756E 
 2345      7369676E 
 2345      65642069 
 2345      6E7400
ARM GAS  C:\Users\skey\AppData\Local\Temp\ccV8noAG.s 			page 50


 2346              	.LASF58:
 2347 028d 5254435F 		.ascii	"RTC_ExitConfigMode\000"
 2347      45786974 
 2347      436F6E66 
 2347      69674D6F 
 2347      646500
 2348              	.LASF54:
 2349 02a0 50726573 		.ascii	"PrescalerValue\000"
 2349      63616C65 
 2349      7256616C 
 2349      756500
 2350              	.LASF16:
 2351 02af 53797374 		.ascii	"SystemCoreClock\000"
 2351      656D436F 
 2351      7265436C 
 2351      6F636B00 
 2352              	.LASF41:
 2353 02bf 5254435F 		.ascii	"RTC_TypeDef\000"
 2353      54797065 
 2353      44656600 
 2354              	.LASF33:
 2355 02cb 434E5448 		.ascii	"CNTH\000"
 2355      00
 2356              	.LASF23:
 2357 02d0 52455345 		.ascii	"RESERVED0\000"
 2357      52564544 
 2357      3000
 2358              	.LASF24:
 2359 02da 52455345 		.ascii	"RESERVED1\000"
 2359      52564544 
 2359      3100
 2360              	.LASF26:
 2361 02e4 52455345 		.ascii	"RESERVED2\000"
 2361      52564544 
 2361      3200
 2362              	.LASF28:
 2363 02ee 52455345 		.ascii	"RESERVED3\000"
 2363      52564544 
 2363      3300
 2364              	.LASF30:
 2365 02f8 52455345 		.ascii	"RESERVED4\000"
 2365      52564544 
 2365      3400
 2366              	.LASF32:
 2367 0302 52455345 		.ascii	"RESERVED5\000"
 2367      52564544 
 2367      3500
 2368              	.LASF34:
 2369 030c 52455345 		.ascii	"RESERVED6\000"
 2369      52564544 
 2369      3600
 2370              	.LASF36:
 2371 0316 52455345 		.ascii	"RESERVED7\000"
 2371      52564544 
 2371      3700
 2372              	.LASF38:
 2373 0320 52455345 		.ascii	"RESERVED8\000"
ARM GAS  C:\Users\skey\AppData\Local\Temp\ccV8noAG.s 			page 51


 2373      52564544 
 2373      3800
 2374              	.LASF40:
 2375 032a 52455345 		.ascii	"RESERVED9\000"
 2375      52564544 
 2375      3900
 2376              	.LASF22:
 2377 0334 46756E63 		.ascii	"FunctionalState\000"
 2377      74696F6E 
 2377      616C5374 
 2377      61746500 
 2378              	.LASF59:
 2379 0344 5254435F 		.ascii	"RTC_EnterConfigMode\000"
 2379      456E7465 
 2379      72436F6E 
 2379      6669674D 
 2379      6F646500 
 2380              	.LASF35:
 2381 0358 434E544C 		.ascii	"CNTL\000"
 2381      00
 2382              	.LASF17:
 2383 035d 52455345 		.ascii	"RESET\000"
 2383      5400
 2384              	.LASF57:
 2385 0363 5254435F 		.ascii	"RTC_GetCounter\000"
 2385      47657443 
 2385      6F756E74 
 2385      657200
 2386              	.LASF62:
 2387 0372 2E5C7374 		.ascii	".\\stlib\\STM32F10x_StdPeriph_Driver\\src\\stm32f10"
 2387      6C69625C 
 2387      53544D33 
 2387      32463130 
 2387      785F5374 
 2388 03a1 785F7274 		.ascii	"x_rtc.c\000"
 2388      632E6300 
 2389              	.LASF37:
 2390 03a9 414C5248 		.ascii	"ALRH\000"
 2390      00
 2391              	.LASF39:
 2392 03ae 414C524C 		.ascii	"ALRL\000"
 2392      00
 2393              	.LASF45:
 2394 03b3 5254435F 		.ascii	"RTC_IT\000"
 2394      495400
 2395              	.LASF15:
 2396 03ba 49544D5F 		.ascii	"ITM_RxBuffer\000"
 2396      52784275 
 2396      66666572 
 2396      00
 2397              	.LASF18:
 2398 03c7 466C6167 		.ascii	"FlagStatus\000"
 2398      53746174 
 2398      757300
 2399              	.LASF21:
 2400 03d2 454E4142 		.ascii	"ENABLE\000"
 2400      4C4500
ARM GAS  C:\Users\skey\AppData\Local\Temp\ccV8noAG.s 			page 52


 2401              	.LASF25:
 2402 03d9 50524C48 		.ascii	"PRLH\000"
 2402      00
 2403              		.ident	"GCC: (GNU Tools for Arm Embedded Processors 9-2019-q4-major) 9.2.1 20191025 (release) [ARM
ARM GAS  C:\Users\skey\AppData\Local\Temp\ccV8noAG.s 			page 53


DEFINED SYMBOLS
                            *ABS*:00000000 stm32f10x_rtc.c
C:\Users\skey\AppData\Local\Temp\ccV8noAG.s:76     .text:00000000 $t
C:\Users\skey\AppData\Local\Temp\ccV8noAG.s:84     .text:00000000 RTC_ITConfig
C:\Users\skey\AppData\Local\Temp\ccV8noAG.s:128    .text:00000014 $d
C:\Users\skey\AppData\Local\Temp\ccV8noAG.s:132    .text:00000018 $t
C:\Users\skey\AppData\Local\Temp\ccV8noAG.s:139    .text:00000018 RTC_EnterConfigMode
C:\Users\skey\AppData\Local\Temp\ccV8noAG.s:160    .text:00000028 $d
C:\Users\skey\AppData\Local\Temp\ccV8noAG.s:164    .text:0000002c $t
C:\Users\skey\AppData\Local\Temp\ccV8noAG.s:171    .text:0000002c RTC_ExitConfigMode
C:\Users\skey\AppData\Local\Temp\ccV8noAG.s:193    .text:0000003c $d
C:\Users\skey\AppData\Local\Temp\ccV8noAG.s:197    .text:00000040 $t
C:\Users\skey\AppData\Local\Temp\ccV8noAG.s:204    .text:00000040 RTC_GetCounter
C:\Users\skey\AppData\Local\Temp\ccV8noAG.s:233    .text:00000050 $d
C:\Users\skey\AppData\Local\Temp\ccV8noAG.s:237    .text:00000054 $t
C:\Users\skey\AppData\Local\Temp\ccV8noAG.s:244    .text:00000054 RTC_SetCounter
C:\Users\skey\AppData\Local\Temp\ccV8noAG.s:294    .text:0000006c $d
C:\Users\skey\AppData\Local\Temp\ccV8noAG.s:298    .text:00000070 $t
C:\Users\skey\AppData\Local\Temp\ccV8noAG.s:305    .text:00000070 RTC_SetPrescaler
C:\Users\skey\AppData\Local\Temp\ccV8noAG.s:358    .text:0000008c $d
C:\Users\skey\AppData\Local\Temp\ccV8noAG.s:362    .text:00000090 $t
C:\Users\skey\AppData\Local\Temp\ccV8noAG.s:369    .text:00000090 RTC_SetAlarm
C:\Users\skey\AppData\Local\Temp\ccV8noAG.s:419    .text:000000a8 $d
C:\Users\skey\AppData\Local\Temp\ccV8noAG.s:423    .text:000000ac $t
C:\Users\skey\AppData\Local\Temp\ccV8noAG.s:430    .text:000000ac RTC_GetDivider
C:\Users\skey\AppData\Local\Temp\ccV8noAG.s:469    .text:000000c0 $d
C:\Users\skey\AppData\Local\Temp\ccV8noAG.s:473    .text:000000c4 $t
C:\Users\skey\AppData\Local\Temp\ccV8noAG.s:480    .text:000000c4 RTC_WaitForLastTask
C:\Users\skey\AppData\Local\Temp\ccV8noAG.s:507    .text:000000d0 $d
C:\Users\skey\AppData\Local\Temp\ccV8noAG.s:511    .text:000000d4 $t
C:\Users\skey\AppData\Local\Temp\ccV8noAG.s:518    .text:000000d4 RTC_WaitForSynchro
C:\Users\skey\AppData\Local\Temp\ccV8noAG.s:551    .text:000000ec $d
C:\Users\skey\AppData\Local\Temp\ccV8noAG.s:555    .text:000000f0 $t
C:\Users\skey\AppData\Local\Temp\ccV8noAG.s:562    .text:000000f0 RTC_GetFlagStatus
C:\Users\skey\AppData\Local\Temp\ccV8noAG.s:593    .text:00000100 $d
C:\Users\skey\AppData\Local\Temp\ccV8noAG.s:597    .text:00000104 $t
C:\Users\skey\AppData\Local\Temp\ccV8noAG.s:604    .text:00000104 RTC_ClearFlag
C:\Users\skey\AppData\Local\Temp\ccV8noAG.s:627    .text:00000114 $d
C:\Users\skey\AppData\Local\Temp\ccV8noAG.s:631    .text:00000118 $t
C:\Users\skey\AppData\Local\Temp\ccV8noAG.s:638    .text:00000118 RTC_GetITStatus
C:\Users\skey\AppData\Local\Temp\ccV8noAG.s:692    .text:00000134 $d
C:\Users\skey\AppData\Local\Temp\ccV8noAG.s:696    .text:00000138 $t
C:\Users\skey\AppData\Local\Temp\ccV8noAG.s:703    .text:00000138 RTC_ClearITPendingBit

NO UNDEFINED SYMBOLS
