ARM GAS  C:\Users\skey\AppData\Local\Temp\ccv9NfrL.s 			page 1


   1              		.cpu cortex-m3
   2              		.eabi_attribute 20, 1	@ Tag_ABI_FP_denormal
   3              		.eabi_attribute 21, 1	@ Tag_ABI_FP_exceptions
   4              		.eabi_attribute 23, 3	@ Tag_ABI_FP_number_model
   5              		.eabi_attribute 24, 1	@ Tag_ABI_align8_needed
   6              		.eabi_attribute 25, 1	@ Tag_ABI_align8_preserved
   7              		.eabi_attribute 26, 1	@ Tag_ABI_enum_size
   8              		.eabi_attribute 30, 4	@ Tag_ABI_optimization_goals
   9              		.eabi_attribute 34, 1	@ Tag_CPU_unaligned_access
  10              		.eabi_attribute 18, 4	@ Tag_ABI_PCS_wchar_t
  11              		.file	"stm32f10x_can.c"
  12              	@ GNU C17 (GNU Tools for Arm Embedded Processors 9-2019-q4-major) version 9.2.1 20191025 (release) 
  13              	@	compiled by GNU C version 5.3.1 20160211, GMP version 6.1.0, MPFR version 3.1.4, MPC version 1.0.
  14              	
  15              	@ GGC heuristics: --param ggc-min-expand=100 --param ggc-min-heapsize=131072
  16              	@ options passed:  -I . -I .\usr_inc -I .\task_inc
  17              	@ -I .\stlib\CMSIS\CM3\CoreSupport
  18              	@ -I .\stlib\CMSIS\CM3\DeviceSupport\ST\STM32F10x
  19              	@ -I .\stlib\STM32F10x_StdPeriph_Driver\inc
  20              	@ -I .\stlib\STM32F10x_StdPeriph_Driver -I .\freertos\include
  21              	@ -I .\freertos\portable\GCC\ARM_CM3 -imultilib thumb/v7-m/nofp
  22              	@ -iprefix c:\program files (x86)\gnu tools arm embedded\9 2019-q4-major\bin\../lib/gcc/arm-none-ea
  23              	@ -isysroot c:\program files (x86)\gnu tools arm embedded\9 2019-q4-major\bin\../arm-none-eabi
  24              	@ -D__USES_INITFINI__ -D STM32F10X_HD -D USE_STDPERIPH_DRIVER
  25              	@ -D HSE_VALUE=8000000 -D RUN_FROM_FLASH=1
  26              	@ .\stlib\STM32F10x_StdPeriph_Driver\src\stm32f10x_can.c -mcpu=cortex-m3
  27              	@ -mthumb -mfloat-abi=soft -march=armv7-m
  28              	@ -auxbase-strip .\stlib\STM32F10x_StdPeriph_Driver\src\stm32f10x_can.o -g
  29              	@ -gdwarf-2 -Os -Wall -fomit-frame-pointer -fverbose-asm
  30              	@ options enabled:  -faggressive-loop-optimizations -fassume-phsa
  31              	@ -fauto-inc-dec -fbranch-count-reg -fcaller-saves -fcode-hoisting
  32              	@ -fcombine-stack-adjustments -fcommon -fcompare-elim -fcprop-registers
  33              	@ -fcrossjumping -fcse-follow-jumps -fdefer-pop
  34              	@ -fdelete-null-pointer-checks -fdevirtualize -fdevirtualize-speculatively
  35              	@ -fdwarf2-cfi-asm -fearly-inlining -feliminate-unused-debug-types
  36              	@ -fexpensive-optimizations -fforward-propagate -ffp-int-builtin-inexact
  37              	@ -ffunction-cse -fgcse -fgcse-lm -fgnu-runtime -fgnu-unique
  38              	@ -fguess-branch-probability -fhoist-adjacent-loads -fident -fif-conversion
  39              	@ -fif-conversion2 -findirect-inlining -finline -finline-atomics
  40              	@ -finline-functions -finline-functions-called-once
  41              	@ -finline-small-functions -fipa-bit-cp -fipa-cp -fipa-icf
  42              	@ -fipa-icf-functions -fipa-icf-variables -fipa-profile -fipa-pure-const
  43              	@ -fipa-ra -fipa-reference -fipa-reference-addressable -fipa-sra
  44              	@ -fipa-stack-alignment -fipa-vrp -fira-hoist-pressure
  45              	@ -fira-share-save-slots -fira-share-spill-slots
  46              	@ -fisolate-erroneous-paths-dereference -fivopts -fkeep-static-consts
  47              	@ -fleading-underscore -flifetime-dse -flra-remat -flto-odr-type-merging
  48              	@ -fmath-errno -fmerge-constants -fmerge-debug-strings
  49              	@ -fmove-loop-invariants -fomit-frame-pointer -foptimize-sibling-calls
  50              	@ -fpartial-inlining -fpeephole -fpeephole2 -fplt -fprefetch-loop-arrays
  51              	@ -freg-struct-return -freorder-blocks -freorder-functions
  52              	@ -frerun-cse-after-loop -fsched-critical-path-heuristic
  53              	@ -fsched-dep-count-heuristic -fsched-group-heuristic -fsched-interblock
  54              	@ -fsched-last-insn-heuristic -fsched-pressure -fsched-rank-heuristic
  55              	@ -fsched-spec -fsched-spec-insn-heuristic -fsched-stalled-insns-dep
  56              	@ -fschedule-insns2 -fsection-anchors -fsemantic-interposition
  57              	@ -fshow-column -fshrink-wrap-separate -fsigned-zeros
ARM GAS  C:\Users\skey\AppData\Local\Temp\ccv9NfrL.s 			page 2


  58              	@ -fsplit-ivs-in-unroller -fsplit-wide-types -fssa-backprop -fssa-phiopt
  59              	@ -fstdarg-opt -fstore-merging -fstrict-aliasing
  60              	@ -fstrict-volatile-bitfields -fsync-libcalls -fthread-jumps
  61              	@ -ftoplevel-reorder -ftrapping-math -ftree-bit-ccp -ftree-builtin-call-dce
  62              	@ -ftree-ccp -ftree-ch -ftree-coalesce-vars -ftree-copy-prop -ftree-cselim
  63              	@ -ftree-dce -ftree-dominator-opts -ftree-dse -ftree-forwprop -ftree-fre
  64              	@ -ftree-loop-if-convert -ftree-loop-im -ftree-loop-ivcanon
  65              	@ -ftree-loop-optimize -ftree-parallelize-loops= -ftree-phiprop -ftree-pre
  66              	@ -ftree-pta -ftree-reassoc -ftree-scev-cprop -ftree-sink -ftree-slsr
  67              	@ -ftree-sra -ftree-switch-conversion -ftree-tail-merge -ftree-ter
  68              	@ -ftree-vrp -funit-at-a-time -fvar-tracking -fvar-tracking-assignments
  69              	@ -fverbose-asm -fzero-initialized-in-bss -masm-syntax-unified -mbe32
  70              	@ -mfix-cortex-m3-ldrd -mlittle-endian -mpic-data-is-text-relative
  71              	@ -msched-prolog -mthumb -munaligned-access -mvectorize-with-neon-quad
  72              	
  73              		.text
  74              	.Ltext0:
  75              		.cfi_sections	.debug_frame
  76              		.align	1
  77              		.global	CAN_DeInit
  78              		.arch armv7-m
  79              		.syntax unified
  80              		.thumb
  81              		.thumb_func
  82              		.fpu softvfp
  83              		.type	CAN_DeInit, %function
  84              	CAN_DeInit:
  85              	.LVL0:
  86              	.LFB29:
  87              		.file 1 ".\\stlib\\STM32F10x_StdPeriph_Driver\\src\\stm32f10x_can.c"
   1:.\stlib\STM32F10x_StdPeriph_Driver\src/stm32f10x_can.c **** /**
   2:.\stlib\STM32F10x_StdPeriph_Driver\src/stm32f10x_can.c ****   ******************************************************************************
   3:.\stlib\STM32F10x_StdPeriph_Driver\src/stm32f10x_can.c ****   * @file    stm32f10x_can.c
   4:.\stlib\STM32F10x_StdPeriph_Driver\src/stm32f10x_can.c ****   * @author  MCD Application Team
   5:.\stlib\STM32F10x_StdPeriph_Driver\src/stm32f10x_can.c ****   * @version V3.5.0
   6:.\stlib\STM32F10x_StdPeriph_Driver\src/stm32f10x_can.c ****   * @date    11-March-2011
   7:.\stlib\STM32F10x_StdPeriph_Driver\src/stm32f10x_can.c ****   * @brief   This file provides all the CAN firmware functions.
   8:.\stlib\STM32F10x_StdPeriph_Driver\src/stm32f10x_can.c ****   ******************************************************************************
   9:.\stlib\STM32F10x_StdPeriph_Driver\src/stm32f10x_can.c ****   * @attention
  10:.\stlib\STM32F10x_StdPeriph_Driver\src/stm32f10x_can.c ****   *
  11:.\stlib\STM32F10x_StdPeriph_Driver\src/stm32f10x_can.c ****   * THE PRESENT FIRMWARE WHICH IS FOR GUIDANCE ONLY AIMS AT PROVIDING CUSTOMERS
  12:.\stlib\STM32F10x_StdPeriph_Driver\src/stm32f10x_can.c ****   * WITH CODING INFORMATION REGARDING THEIR PRODUCTS IN ORDER FOR THEM TO SAVE
  13:.\stlib\STM32F10x_StdPeriph_Driver\src/stm32f10x_can.c ****   * TIME. AS A RESULT, STMICROELECTRONICS SHALL NOT BE HELD LIABLE FOR ANY
  14:.\stlib\STM32F10x_StdPeriph_Driver\src/stm32f10x_can.c ****   * DIRECT, INDIRECT OR CONSEQUENTIAL DAMAGES WITH RESPECT TO ANY CLAIMS ARISING
  15:.\stlib\STM32F10x_StdPeriph_Driver\src/stm32f10x_can.c ****   * FROM THE CONTENT OF SUCH FIRMWARE AND/OR THE USE MADE BY CUSTOMERS OF THE
  16:.\stlib\STM32F10x_StdPeriph_Driver\src/stm32f10x_can.c ****   * CODING INFORMATION CONTAINED HEREIN IN CONNECTION WITH THEIR PRODUCTS.
  17:.\stlib\STM32F10x_StdPeriph_Driver\src/stm32f10x_can.c ****   *
  18:.\stlib\STM32F10x_StdPeriph_Driver\src/stm32f10x_can.c ****   * <h2><center>&copy; COPYRIGHT 2011 STMicroelectronics</center></h2>
  19:.\stlib\STM32F10x_StdPeriph_Driver\src/stm32f10x_can.c ****   ******************************************************************************
  20:.\stlib\STM32F10x_StdPeriph_Driver\src/stm32f10x_can.c ****   */
  21:.\stlib\STM32F10x_StdPeriph_Driver\src/stm32f10x_can.c **** 
  22:.\stlib\STM32F10x_StdPeriph_Driver\src/stm32f10x_can.c **** /* Includes ------------------------------------------------------------------*/
  23:.\stlib\STM32F10x_StdPeriph_Driver\src/stm32f10x_can.c **** #include "stm32f10x_can.h"
  24:.\stlib\STM32F10x_StdPeriph_Driver\src/stm32f10x_can.c **** #include "stm32f10x_rcc.h"
  25:.\stlib\STM32F10x_StdPeriph_Driver\src/stm32f10x_can.c **** 
  26:.\stlib\STM32F10x_StdPeriph_Driver\src/stm32f10x_can.c **** /** @addtogroup STM32F10x_StdPeriph_Driver
  27:.\stlib\STM32F10x_StdPeriph_Driver\src/stm32f10x_can.c ****   * @{
ARM GAS  C:\Users\skey\AppData\Local\Temp\ccv9NfrL.s 			page 3


  28:.\stlib\STM32F10x_StdPeriph_Driver\src/stm32f10x_can.c ****   */
  29:.\stlib\STM32F10x_StdPeriph_Driver\src/stm32f10x_can.c **** 
  30:.\stlib\STM32F10x_StdPeriph_Driver\src/stm32f10x_can.c **** /** @defgroup CAN 
  31:.\stlib\STM32F10x_StdPeriph_Driver\src/stm32f10x_can.c ****   * @brief CAN driver modules
  32:.\stlib\STM32F10x_StdPeriph_Driver\src/stm32f10x_can.c ****   * @{
  33:.\stlib\STM32F10x_StdPeriph_Driver\src/stm32f10x_can.c ****   */ 
  34:.\stlib\STM32F10x_StdPeriph_Driver\src/stm32f10x_can.c **** 
  35:.\stlib\STM32F10x_StdPeriph_Driver\src/stm32f10x_can.c **** /** @defgroup CAN_Private_TypesDefinitions
  36:.\stlib\STM32F10x_StdPeriph_Driver\src/stm32f10x_can.c ****   * @{
  37:.\stlib\STM32F10x_StdPeriph_Driver\src/stm32f10x_can.c ****   */
  38:.\stlib\STM32F10x_StdPeriph_Driver\src/stm32f10x_can.c **** 
  39:.\stlib\STM32F10x_StdPeriph_Driver\src/stm32f10x_can.c **** /**
  40:.\stlib\STM32F10x_StdPeriph_Driver\src/stm32f10x_can.c ****   * @}
  41:.\stlib\STM32F10x_StdPeriph_Driver\src/stm32f10x_can.c ****   */
  42:.\stlib\STM32F10x_StdPeriph_Driver\src/stm32f10x_can.c **** 
  43:.\stlib\STM32F10x_StdPeriph_Driver\src/stm32f10x_can.c **** /** @defgroup CAN_Private_Defines
  44:.\stlib\STM32F10x_StdPeriph_Driver\src/stm32f10x_can.c ****   * @{
  45:.\stlib\STM32F10x_StdPeriph_Driver\src/stm32f10x_can.c ****   */
  46:.\stlib\STM32F10x_StdPeriph_Driver\src/stm32f10x_can.c **** 
  47:.\stlib\STM32F10x_StdPeriph_Driver\src/stm32f10x_can.c **** /* CAN Master Control Register bits */
  48:.\stlib\STM32F10x_StdPeriph_Driver\src/stm32f10x_can.c **** 
  49:.\stlib\STM32F10x_StdPeriph_Driver\src/stm32f10x_can.c **** #define MCR_DBF      ((uint32_t)0x00010000) /* software master reset */
  50:.\stlib\STM32F10x_StdPeriph_Driver\src/stm32f10x_can.c **** 
  51:.\stlib\STM32F10x_StdPeriph_Driver\src/stm32f10x_can.c **** /* CAN Mailbox Transmit Request */
  52:.\stlib\STM32F10x_StdPeriph_Driver\src/stm32f10x_can.c **** #define TMIDxR_TXRQ  ((uint32_t)0x00000001) /* Transmit mailbox request */
  53:.\stlib\STM32F10x_StdPeriph_Driver\src/stm32f10x_can.c **** 
  54:.\stlib\STM32F10x_StdPeriph_Driver\src/stm32f10x_can.c **** /* CAN Filter Master Register bits */
  55:.\stlib\STM32F10x_StdPeriph_Driver\src/stm32f10x_can.c **** #define FMR_FINIT    ((uint32_t)0x00000001) /* Filter init mode */
  56:.\stlib\STM32F10x_StdPeriph_Driver\src/stm32f10x_can.c **** 
  57:.\stlib\STM32F10x_StdPeriph_Driver\src/stm32f10x_can.c **** /* Time out for INAK bit */
  58:.\stlib\STM32F10x_StdPeriph_Driver\src/stm32f10x_can.c **** #define INAK_TIMEOUT        ((uint32_t)0x0000FFFF)
  59:.\stlib\STM32F10x_StdPeriph_Driver\src/stm32f10x_can.c **** /* Time out for SLAK bit */
  60:.\stlib\STM32F10x_StdPeriph_Driver\src/stm32f10x_can.c **** #define SLAK_TIMEOUT        ((uint32_t)0x0000FFFF)
  61:.\stlib\STM32F10x_StdPeriph_Driver\src/stm32f10x_can.c **** 
  62:.\stlib\STM32F10x_StdPeriph_Driver\src/stm32f10x_can.c **** 
  63:.\stlib\STM32F10x_StdPeriph_Driver\src/stm32f10x_can.c **** 
  64:.\stlib\STM32F10x_StdPeriph_Driver\src/stm32f10x_can.c **** /* Flags in TSR register */
  65:.\stlib\STM32F10x_StdPeriph_Driver\src/stm32f10x_can.c **** #define CAN_FLAGS_TSR              ((uint32_t)0x08000000) 
  66:.\stlib\STM32F10x_StdPeriph_Driver\src/stm32f10x_can.c **** /* Flags in RF1R register */
  67:.\stlib\STM32F10x_StdPeriph_Driver\src/stm32f10x_can.c **** #define CAN_FLAGS_RF1R             ((uint32_t)0x04000000) 
  68:.\stlib\STM32F10x_StdPeriph_Driver\src/stm32f10x_can.c **** /* Flags in RF0R register */
  69:.\stlib\STM32F10x_StdPeriph_Driver\src/stm32f10x_can.c **** #define CAN_FLAGS_RF0R             ((uint32_t)0x02000000) 
  70:.\stlib\STM32F10x_StdPeriph_Driver\src/stm32f10x_can.c **** /* Flags in MSR register */
  71:.\stlib\STM32F10x_StdPeriph_Driver\src/stm32f10x_can.c **** #define CAN_FLAGS_MSR              ((uint32_t)0x01000000) 
  72:.\stlib\STM32F10x_StdPeriph_Driver\src/stm32f10x_can.c **** /* Flags in ESR register */
  73:.\stlib\STM32F10x_StdPeriph_Driver\src/stm32f10x_can.c **** #define CAN_FLAGS_ESR              ((uint32_t)0x00F00000) 
  74:.\stlib\STM32F10x_StdPeriph_Driver\src/stm32f10x_can.c **** 
  75:.\stlib\STM32F10x_StdPeriph_Driver\src/stm32f10x_can.c **** /* Mailboxes definition */
  76:.\stlib\STM32F10x_StdPeriph_Driver\src/stm32f10x_can.c **** #define CAN_TXMAILBOX_0                   ((uint8_t)0x00)
  77:.\stlib\STM32F10x_StdPeriph_Driver\src/stm32f10x_can.c **** #define CAN_TXMAILBOX_1                   ((uint8_t)0x01)
  78:.\stlib\STM32F10x_StdPeriph_Driver\src/stm32f10x_can.c **** #define CAN_TXMAILBOX_2                   ((uint8_t)0x02) 
  79:.\stlib\STM32F10x_StdPeriph_Driver\src/stm32f10x_can.c **** 
  80:.\stlib\STM32F10x_StdPeriph_Driver\src/stm32f10x_can.c **** 
  81:.\stlib\STM32F10x_StdPeriph_Driver\src/stm32f10x_can.c **** 
  82:.\stlib\STM32F10x_StdPeriph_Driver\src/stm32f10x_can.c **** #define CAN_MODE_MASK              ((uint32_t) 0x00000003)
  83:.\stlib\STM32F10x_StdPeriph_Driver\src/stm32f10x_can.c **** /**
  84:.\stlib\STM32F10x_StdPeriph_Driver\src/stm32f10x_can.c ****   * @}
ARM GAS  C:\Users\skey\AppData\Local\Temp\ccv9NfrL.s 			page 4


  85:.\stlib\STM32F10x_StdPeriph_Driver\src/stm32f10x_can.c ****   */
  86:.\stlib\STM32F10x_StdPeriph_Driver\src/stm32f10x_can.c **** 
  87:.\stlib\STM32F10x_StdPeriph_Driver\src/stm32f10x_can.c **** /** @defgroup CAN_Private_Macros
  88:.\stlib\STM32F10x_StdPeriph_Driver\src/stm32f10x_can.c ****   * @{
  89:.\stlib\STM32F10x_StdPeriph_Driver\src/stm32f10x_can.c ****   */
  90:.\stlib\STM32F10x_StdPeriph_Driver\src/stm32f10x_can.c **** 
  91:.\stlib\STM32F10x_StdPeriph_Driver\src/stm32f10x_can.c **** /**
  92:.\stlib\STM32F10x_StdPeriph_Driver\src/stm32f10x_can.c ****   * @}
  93:.\stlib\STM32F10x_StdPeriph_Driver\src/stm32f10x_can.c ****   */
  94:.\stlib\STM32F10x_StdPeriph_Driver\src/stm32f10x_can.c **** 
  95:.\stlib\STM32F10x_StdPeriph_Driver\src/stm32f10x_can.c **** /** @defgroup CAN_Private_Variables
  96:.\stlib\STM32F10x_StdPeriph_Driver\src/stm32f10x_can.c ****   * @{
  97:.\stlib\STM32F10x_StdPeriph_Driver\src/stm32f10x_can.c ****   */
  98:.\stlib\STM32F10x_StdPeriph_Driver\src/stm32f10x_can.c **** 
  99:.\stlib\STM32F10x_StdPeriph_Driver\src/stm32f10x_can.c **** /**
 100:.\stlib\STM32F10x_StdPeriph_Driver\src/stm32f10x_can.c ****   * @}
 101:.\stlib\STM32F10x_StdPeriph_Driver\src/stm32f10x_can.c ****   */
 102:.\stlib\STM32F10x_StdPeriph_Driver\src/stm32f10x_can.c **** 
 103:.\stlib\STM32F10x_StdPeriph_Driver\src/stm32f10x_can.c **** /** @defgroup CAN_Private_FunctionPrototypes
 104:.\stlib\STM32F10x_StdPeriph_Driver\src/stm32f10x_can.c ****   * @{
 105:.\stlib\STM32F10x_StdPeriph_Driver\src/stm32f10x_can.c ****   */
 106:.\stlib\STM32F10x_StdPeriph_Driver\src/stm32f10x_can.c **** 
 107:.\stlib\STM32F10x_StdPeriph_Driver\src/stm32f10x_can.c **** static ITStatus CheckITStatus(uint32_t CAN_Reg, uint32_t It_Bit);
 108:.\stlib\STM32F10x_StdPeriph_Driver\src/stm32f10x_can.c **** 
 109:.\stlib\STM32F10x_StdPeriph_Driver\src/stm32f10x_can.c **** /**
 110:.\stlib\STM32F10x_StdPeriph_Driver\src/stm32f10x_can.c ****   * @}
 111:.\stlib\STM32F10x_StdPeriph_Driver\src/stm32f10x_can.c ****   */
 112:.\stlib\STM32F10x_StdPeriph_Driver\src/stm32f10x_can.c **** 
 113:.\stlib\STM32F10x_StdPeriph_Driver\src/stm32f10x_can.c **** /** @defgroup CAN_Private_Functions
 114:.\stlib\STM32F10x_StdPeriph_Driver\src/stm32f10x_can.c ****   * @{
 115:.\stlib\STM32F10x_StdPeriph_Driver\src/stm32f10x_can.c ****   */
 116:.\stlib\STM32F10x_StdPeriph_Driver\src/stm32f10x_can.c **** 
 117:.\stlib\STM32F10x_StdPeriph_Driver\src/stm32f10x_can.c **** /**
 118:.\stlib\STM32F10x_StdPeriph_Driver\src/stm32f10x_can.c ****   * @brief  Deinitializes the CAN peripheral registers to their default reset values.
 119:.\stlib\STM32F10x_StdPeriph_Driver\src/stm32f10x_can.c ****   * @param  CANx: where x can be 1 or 2 to select the CAN peripheral.
 120:.\stlib\STM32F10x_StdPeriph_Driver\src/stm32f10x_can.c ****   * @retval None.
 121:.\stlib\STM32F10x_StdPeriph_Driver\src/stm32f10x_can.c ****   */
 122:.\stlib\STM32F10x_StdPeriph_Driver\src/stm32f10x_can.c **** void CAN_DeInit(CAN_TypeDef* CANx)
 123:.\stlib\STM32F10x_StdPeriph_Driver\src/stm32f10x_can.c **** {
  88              		.loc 1 123 1 view -0
  89              		.cfi_startproc
  90              		@ args = 0, pretend = 0, frame = 0
  91              		@ frame_needed = 0, uses_anonymous_args = 0
 124:.\stlib\STM32F10x_StdPeriph_Driver\src/stm32f10x_can.c ****   /* Check the parameters */
 125:.\stlib\STM32F10x_StdPeriph_Driver\src/stm32f10x_can.c ****   assert_param(IS_CAN_ALL_PERIPH(CANx));
  92              		.loc 1 125 3 view .LVU1
 126:.\stlib\STM32F10x_StdPeriph_Driver\src/stm32f10x_can.c ****  
 127:.\stlib\STM32F10x_StdPeriph_Driver\src/stm32f10x_can.c ****   if (CANx == CAN1)
  93              		.loc 1 127 3 view .LVU2
  94              	@ .\stlib\STM32F10x_StdPeriph_Driver\src\stm32f10x_can.c:123: {
 123:.\stlib\STM32F10x_StdPeriph_Driver\src/stm32f10x_can.c ****   /* Check the parameters */
  95              		.loc 1 123 1 is_stmt 0 view .LVU3
  96 0000 08B5     		push	{r3, lr}	@
  97              	.LCFI0:
  98              		.cfi_def_cfa_offset 8
  99              		.cfi_offset 3, -8
 100              		.cfi_offset 14, -4
ARM GAS  C:\Users\skey\AppData\Local\Temp\ccv9NfrL.s 			page 5


 101              	@ .\stlib\STM32F10x_StdPeriph_Driver\src\stm32f10x_can.c:127:   if (CANx == CAN1)
 102              		.loc 1 127 6 view .LVU4
 103 0002 0B4B     		ldr	r3, .L4	@ tmp111,
 104              	@ .\stlib\STM32F10x_StdPeriph_Driver\src\stm32f10x_can.c:130:     RCC_APB1PeriphResetCmd(RCC_APB1Pe
 128:.\stlib\STM32F10x_StdPeriph_Driver\src/stm32f10x_can.c ****   {
 129:.\stlib\STM32F10x_StdPeriph_Driver\src/stm32f10x_can.c ****     /* Enable CAN1 reset state */
 130:.\stlib\STM32F10x_StdPeriph_Driver\src/stm32f10x_can.c ****     RCC_APB1PeriphResetCmd(RCC_APB1Periph_CAN1, ENABLE);
 105              		.loc 1 130 5 view .LVU5
 106 0004 0121     		movs	r1, #1	@,
 107              	@ .\stlib\STM32F10x_StdPeriph_Driver\src\stm32f10x_can.c:127:   if (CANx == CAN1)
 127:.\stlib\STM32F10x_StdPeriph_Driver\src/stm32f10x_can.c ****   {
 108              		.loc 1 127 6 view .LVU6
 109 0006 9842     		cmp	r0, r3	@ tmp112, tmp111
 110 0008 0AD1     		bne	.L2		@,
 111              		.loc 1 130 5 is_stmt 1 view .LVU7
 112 000a 4FF00070 		mov	r0, #33554432	@,
 113              	.LVL1:
 114              		.loc 1 130 5 is_stmt 0 view .LVU8
 115 000e FFF7FEFF 		bl	RCC_APB1PeriphResetCmd		@
 116              	.LVL2:
 131:.\stlib\STM32F10x_StdPeriph_Driver\src/stm32f10x_can.c ****     /* Release CAN1 from reset state */
 132:.\stlib\STM32F10x_StdPeriph_Driver\src/stm32f10x_can.c ****     RCC_APB1PeriphResetCmd(RCC_APB1Periph_CAN1, DISABLE);
 117              		.loc 1 132 5 is_stmt 1 view .LVU9
 118 0012 0021     		movs	r1, #0	@,
 119 0014 4FF00070 		mov	r0, #33554432	@,
 120              	.L3:
 121              	@ .\stlib\STM32F10x_StdPeriph_Driver\src\stm32f10x_can.c:141: }
 133:.\stlib\STM32F10x_StdPeriph_Driver\src/stm32f10x_can.c ****   }
 134:.\stlib\STM32F10x_StdPeriph_Driver\src/stm32f10x_can.c ****   else
 135:.\stlib\STM32F10x_StdPeriph_Driver\src/stm32f10x_can.c ****   {  
 136:.\stlib\STM32F10x_StdPeriph_Driver\src/stm32f10x_can.c ****     /* Enable CAN2 reset state */
 137:.\stlib\STM32F10x_StdPeriph_Driver\src/stm32f10x_can.c ****     RCC_APB1PeriphResetCmd(RCC_APB1Periph_CAN2, ENABLE);
 138:.\stlib\STM32F10x_StdPeriph_Driver\src/stm32f10x_can.c ****     /* Release CAN2 from reset state */
 139:.\stlib\STM32F10x_StdPeriph_Driver\src/stm32f10x_can.c ****     RCC_APB1PeriphResetCmd(RCC_APB1Periph_CAN2, DISABLE);
 140:.\stlib\STM32F10x_StdPeriph_Driver\src/stm32f10x_can.c ****   }
 141:.\stlib\STM32F10x_StdPeriph_Driver\src/stm32f10x_can.c **** }
 122              		.loc 1 141 1 is_stmt 0 view .LVU10
 123 0018 BDE80840 		pop	{r3, lr}	@
 124              	.LCFI1:
 125              		.cfi_remember_state
 126              		.cfi_restore 14
 127              		.cfi_restore 3
 128              		.cfi_def_cfa_offset 0
 129              	@ .\stlib\STM32F10x_StdPeriph_Driver\src\stm32f10x_can.c:139:     RCC_APB1PeriphResetCmd(RCC_APB1Pe
 139:.\stlib\STM32F10x_StdPeriph_Driver\src/stm32f10x_can.c ****   }
 130              		.loc 1 139 5 view .LVU11
 131 001c FFF7FEBF 		b	RCC_APB1PeriphResetCmd		@
 132              	.LVL3:
 133              	.L2:
 134              	.LCFI2:
 135              		.cfi_restore_state
 137:.\stlib\STM32F10x_StdPeriph_Driver\src/stm32f10x_can.c ****     /* Release CAN2 from reset state */
 136              		.loc 1 137 5 is_stmt 1 view .LVU12
 137 0020 4FF08060 		mov	r0, #67108864	@,
 138              	.LVL4:
 137:.\stlib\STM32F10x_StdPeriph_Driver\src/stm32f10x_can.c ****     /* Release CAN2 from reset state */
 139              		.loc 1 137 5 is_stmt 0 view .LVU13
ARM GAS  C:\Users\skey\AppData\Local\Temp\ccv9NfrL.s 			page 6


 140 0024 FFF7FEFF 		bl	RCC_APB1PeriphResetCmd		@
 141              	.LVL5:
 139:.\stlib\STM32F10x_StdPeriph_Driver\src/stm32f10x_can.c ****   }
 142              		.loc 1 139 5 is_stmt 1 view .LVU14
 143 0028 0021     		movs	r1, #0	@,
 144 002a 4FF08060 		mov	r0, #67108864	@,
 145 002e F3E7     		b	.L3		@
 146              	.L5:
 147              		.align	2
 148              	.L4:
 149 0030 00640040 		.word	1073767424
 150              		.cfi_endproc
 151              	.LFE29:
 152              		.size	CAN_DeInit, .-CAN_DeInit
 153              		.align	1
 154              		.global	CAN_Init
 155              		.syntax unified
 156              		.thumb
 157              		.thumb_func
 158              		.fpu softvfp
 159              		.type	CAN_Init, %function
 160              	CAN_Init:
 161              	.LVL6:
 162              	.LFB30:
 142:.\stlib\STM32F10x_StdPeriph_Driver\src/stm32f10x_can.c **** 
 143:.\stlib\STM32F10x_StdPeriph_Driver\src/stm32f10x_can.c **** /**
 144:.\stlib\STM32F10x_StdPeriph_Driver\src/stm32f10x_can.c ****   * @brief  Initializes the CAN peripheral according to the specified
 145:.\stlib\STM32F10x_StdPeriph_Driver\src/stm32f10x_can.c ****   *         parameters in the CAN_InitStruct.
 146:.\stlib\STM32F10x_StdPeriph_Driver\src/stm32f10x_can.c ****   * @param  CANx:           where x can be 1 or 2 to to select the CAN 
 147:.\stlib\STM32F10x_StdPeriph_Driver\src/stm32f10x_can.c ****   *                         peripheral.
 148:.\stlib\STM32F10x_StdPeriph_Driver\src/stm32f10x_can.c ****   * @param  CAN_InitStruct: pointer to a CAN_InitTypeDef structure that
 149:.\stlib\STM32F10x_StdPeriph_Driver\src/stm32f10x_can.c ****   *                         contains the configuration information for the 
 150:.\stlib\STM32F10x_StdPeriph_Driver\src/stm32f10x_can.c ****   *                         CAN peripheral.
 151:.\stlib\STM32F10x_StdPeriph_Driver\src/stm32f10x_can.c ****   * @retval Constant indicates initialization succeed which will be 
 152:.\stlib\STM32F10x_StdPeriph_Driver\src/stm32f10x_can.c ****   *         CAN_InitStatus_Failed or CAN_InitStatus_Success.
 153:.\stlib\STM32F10x_StdPeriph_Driver\src/stm32f10x_can.c ****   */
 154:.\stlib\STM32F10x_StdPeriph_Driver\src/stm32f10x_can.c **** uint8_t CAN_Init(CAN_TypeDef* CANx, CAN_InitTypeDef* CAN_InitStruct)
 155:.\stlib\STM32F10x_StdPeriph_Driver\src/stm32f10x_can.c **** {
 163              		.loc 1 155 1 view -0
 164              		.cfi_startproc
 165              		@ args = 0, pretend = 0, frame = 0
 166              		@ frame_needed = 0, uses_anonymous_args = 0
 167              		@ link register save eliminated.
 156:.\stlib\STM32F10x_StdPeriph_Driver\src/stm32f10x_can.c ****   uint8_t InitStatus = CAN_InitStatus_Failed;
 168              		.loc 1 156 3 view .LVU16
 157:.\stlib\STM32F10x_StdPeriph_Driver\src/stm32f10x_can.c ****   uint32_t wait_ack = 0x00000000;
 169              		.loc 1 157 3 view .LVU17
 158:.\stlib\STM32F10x_StdPeriph_Driver\src/stm32f10x_can.c ****   /* Check the parameters */
 159:.\stlib\STM32F10x_StdPeriph_Driver\src/stm32f10x_can.c ****   assert_param(IS_CAN_ALL_PERIPH(CANx));
 170              		.loc 1 159 3 view .LVU18
 160:.\stlib\STM32F10x_StdPeriph_Driver\src/stm32f10x_can.c ****   assert_param(IS_FUNCTIONAL_STATE(CAN_InitStruct->CAN_TTCM));
 171              		.loc 1 160 3 view .LVU19
 161:.\stlib\STM32F10x_StdPeriph_Driver\src/stm32f10x_can.c ****   assert_param(IS_FUNCTIONAL_STATE(CAN_InitStruct->CAN_ABOM));
 172              		.loc 1 161 3 view .LVU20
 162:.\stlib\STM32F10x_StdPeriph_Driver\src/stm32f10x_can.c ****   assert_param(IS_FUNCTIONAL_STATE(CAN_InitStruct->CAN_AWUM));
 173              		.loc 1 162 3 view .LVU21
 163:.\stlib\STM32F10x_StdPeriph_Driver\src/stm32f10x_can.c ****   assert_param(IS_FUNCTIONAL_STATE(CAN_InitStruct->CAN_NART));
ARM GAS  C:\Users\skey\AppData\Local\Temp\ccv9NfrL.s 			page 7


 174              		.loc 1 163 3 view .LVU22
 164:.\stlib\STM32F10x_StdPeriph_Driver\src/stm32f10x_can.c ****   assert_param(IS_FUNCTIONAL_STATE(CAN_InitStruct->CAN_RFLM));
 175              		.loc 1 164 3 view .LVU23
 165:.\stlib\STM32F10x_StdPeriph_Driver\src/stm32f10x_can.c ****   assert_param(IS_FUNCTIONAL_STATE(CAN_InitStruct->CAN_TXFP));
 176              		.loc 1 165 3 view .LVU24
 166:.\stlib\STM32F10x_StdPeriph_Driver\src/stm32f10x_can.c ****   assert_param(IS_CAN_MODE(CAN_InitStruct->CAN_Mode));
 177              		.loc 1 166 3 view .LVU25
 167:.\stlib\STM32F10x_StdPeriph_Driver\src/stm32f10x_can.c ****   assert_param(IS_CAN_SJW(CAN_InitStruct->CAN_SJW));
 178              		.loc 1 167 3 view .LVU26
 168:.\stlib\STM32F10x_StdPeriph_Driver\src/stm32f10x_can.c ****   assert_param(IS_CAN_BS1(CAN_InitStruct->CAN_BS1));
 179              		.loc 1 168 3 view .LVU27
 169:.\stlib\STM32F10x_StdPeriph_Driver\src/stm32f10x_can.c ****   assert_param(IS_CAN_BS2(CAN_InitStruct->CAN_BS2));
 180              		.loc 1 169 3 view .LVU28
 170:.\stlib\STM32F10x_StdPeriph_Driver\src/stm32f10x_can.c ****   assert_param(IS_CAN_PRESCALER(CAN_InitStruct->CAN_Prescaler));
 181              		.loc 1 170 3 view .LVU29
 171:.\stlib\STM32F10x_StdPeriph_Driver\src/stm32f10x_can.c **** 
 172:.\stlib\STM32F10x_StdPeriph_Driver\src/stm32f10x_can.c ****   /* Exit from sleep mode */
 173:.\stlib\STM32F10x_StdPeriph_Driver\src/stm32f10x_can.c ****   CANx->MCR &= (~(uint32_t)CAN_MCR_SLEEP);
 182              		.loc 1 173 3 view .LVU30
 183              	@ .\stlib\STM32F10x_StdPeriph_Driver\src\stm32f10x_can.c:173:   CANx->MCR &= (~(uint32_t)CAN_MCR_SL
 184              		.loc 1 173 13 is_stmt 0 view .LVU31
 185 0034 0368     		ldr	r3, [r0]	@ _1, CANx_76(D)->MCR
 186 0036 23F00203 		bic	r3, r3, #2	@ _2, _1,
 187 003a 0360     		str	r3, [r0]	@ _2, CANx_76(D)->MCR
 174:.\stlib\STM32F10x_StdPeriph_Driver\src/stm32f10x_can.c **** 
 175:.\stlib\STM32F10x_StdPeriph_Driver\src/stm32f10x_can.c ****   /* Request initialisation */
 176:.\stlib\STM32F10x_StdPeriph_Driver\src/stm32f10x_can.c ****   CANx->MCR |= CAN_MCR_INRQ ;
 188              		.loc 1 176 3 is_stmt 1 view .LVU32
 189              	@ .\stlib\STM32F10x_StdPeriph_Driver\src\stm32f10x_can.c:176:   CANx->MCR |= CAN_MCR_INRQ ;
 190              		.loc 1 176 13 is_stmt 0 view .LVU33
 191 003c 0368     		ldr	r3, [r0]	@ _3, CANx_76(D)->MCR
 192 003e 43F00103 		orr	r3, r3, #1	@ _4, _3,
 193 0042 0360     		str	r3, [r0]	@ _4, CANx_76(D)->MCR
 177:.\stlib\STM32F10x_StdPeriph_Driver\src/stm32f10x_can.c **** 
 178:.\stlib\STM32F10x_StdPeriph_Driver\src/stm32f10x_can.c ****   /* Wait the acknowledge */
 179:.\stlib\STM32F10x_StdPeriph_Driver\src/stm32f10x_can.c ****   while (((CANx->MSR & CAN_MSR_INAK) != CAN_MSR_INAK) && (wait_ack != INAK_TIMEOUT))
 194              		.loc 1 179 3 is_stmt 1 view .LVU34
 195              	@ .\stlib\STM32F10x_StdPeriph_Driver\src\stm32f10x_can.c:179:   while (((CANx->MSR & CAN_MSR_INAK) 
 196              		.loc 1 179 9 is_stmt 0 view .LVU35
 197 0044 4FF48033 		mov	r3, #65536	@ ivtmp_111,
 198              	.LVL7:
 199              	.L8:
 200              		.loc 1 179 9 is_stmt 1 view .LVU36
 201              	@ .\stlib\STM32F10x_StdPeriph_Driver\src\stm32f10x_can.c:179:   while (((CANx->MSR & CAN_MSR_INAK) 
 202              		.loc 1 179 16 is_stmt 0 view .LVU37
 203 0048 4268     		ldr	r2, [r0, #4]	@ _5, CANx_76(D)->MSR
 204              	@ .\stlib\STM32F10x_StdPeriph_Driver\src\stm32f10x_can.c:179:   while (((CANx->MSR & CAN_MSR_INAK) 
 205              		.loc 1 179 9 view .LVU38
 206 004a D207     		lsls	r2, r2, #31	@, _5,
 207 004c 01D4     		bmi	.L7		@,
 208              	@ .\stlib\STM32F10x_StdPeriph_Driver\src\stm32f10x_can.c:179:   while (((CANx->MSR & CAN_MSR_INAK) 
 209              		.loc 1 179 55 discriminator 1 view .LVU39
 210 004e 013B     		subs	r3, r3, #1	@ ivtmp_111, ivtmp_111,
 211              	.LVL8:
 212              		.loc 1 179 55 discriminator 1 view .LVU40
 213 0050 FAD1     		bne	.L8		@,
 214              	.LVL9:
ARM GAS  C:\Users\skey\AppData\Local\Temp\ccv9NfrL.s 			page 8


 215              	.L7:
 180:.\stlib\STM32F10x_StdPeriph_Driver\src/stm32f10x_can.c ****   {
 181:.\stlib\STM32F10x_StdPeriph_Driver\src/stm32f10x_can.c ****     wait_ack++;
 182:.\stlib\STM32F10x_StdPeriph_Driver\src/stm32f10x_can.c ****   }
 183:.\stlib\STM32F10x_StdPeriph_Driver\src/stm32f10x_can.c **** 
 184:.\stlib\STM32F10x_StdPeriph_Driver\src/stm32f10x_can.c ****   /* Check acknowledge */
 185:.\stlib\STM32F10x_StdPeriph_Driver\src/stm32f10x_can.c ****   if ((CANx->MSR & CAN_MSR_INAK) != CAN_MSR_INAK)
 216              		.loc 1 185 3 is_stmt 1 view .LVU41
 217              	@ .\stlib\STM32F10x_StdPeriph_Driver\src\stm32f10x_can.c:185:   if ((CANx->MSR & CAN_MSR_INAK) != C
 218              		.loc 1 185 12 is_stmt 0 view .LVU42
 219 0052 4368     		ldr	r3, [r0, #4]	@ _7, CANx_76(D)->MSR
 220              	@ .\stlib\STM32F10x_StdPeriph_Driver\src\stm32f10x_can.c:185:   if ((CANx->MSR & CAN_MSR_INAK) != C
 221              		.loc 1 185 6 view .LVU43
 222 0054 13F00103 		ands	r3, r3, #1	@ tmp180, _7,
 223 0058 54D0     		beq	.L24		@,
 186:.\stlib\STM32F10x_StdPeriph_Driver\src/stm32f10x_can.c ****   {
 187:.\stlib\STM32F10x_StdPeriph_Driver\src/stm32f10x_can.c ****     InitStatus = CAN_InitStatus_Failed;
 188:.\stlib\STM32F10x_StdPeriph_Driver\src/stm32f10x_can.c ****   }
 189:.\stlib\STM32F10x_StdPeriph_Driver\src/stm32f10x_can.c ****   else 
 190:.\stlib\STM32F10x_StdPeriph_Driver\src/stm32f10x_can.c ****   {
 191:.\stlib\STM32F10x_StdPeriph_Driver\src/stm32f10x_can.c ****     /* Set the time triggered communication mode */
 192:.\stlib\STM32F10x_StdPeriph_Driver\src/stm32f10x_can.c ****     if (CAN_InitStruct->CAN_TTCM == ENABLE)
 224              		.loc 1 192 5 is_stmt 1 view .LVU44
 225              	@ .\stlib\STM32F10x_StdPeriph_Driver\src\stm32f10x_can.c:192:     if (CAN_InitStruct->CAN_TTCM == E
 226              		.loc 1 192 8 is_stmt 0 view .LVU45
 227 005a 8B79     		ldrb	r3, [r1, #6]	@ zero_extendqisi2	@ CAN_InitStruct_80(D)->CAN_TTCM, CAN_InitStruct_80(D)->CAN_T
 228 005c 012B     		cmp	r3, #1	@ CAN_InitStruct_80(D)->CAN_TTCM,
 229              	@ .\stlib\STM32F10x_StdPeriph_Driver\src\stm32f10x_can.c:194:       CANx->MCR |= CAN_MCR_TTCM;
 193:.\stlib\STM32F10x_StdPeriph_Driver\src/stm32f10x_can.c ****     {
 194:.\stlib\STM32F10x_StdPeriph_Driver\src/stm32f10x_can.c ****       CANx->MCR |= CAN_MCR_TTCM;
 230              		.loc 1 194 17 view .LVU46
 231 005e 0368     		ldr	r3, [r0]	@ _10,* CANx
 232              		.loc 1 194 7 is_stmt 1 view .LVU47
 233              	@ .\stlib\STM32F10x_StdPeriph_Driver\src\stm32f10x_can.c:194:       CANx->MCR |= CAN_MCR_TTCM;
 234              		.loc 1 194 17 is_stmt 0 view .LVU48
 235 0060 0CBF     		ite	eq
 236 0062 43F08003 		orreq	r3, r3, #128	@ _11, _10,
 195:.\stlib\STM32F10x_StdPeriph_Driver\src/stm32f10x_can.c ****     }
 196:.\stlib\STM32F10x_StdPeriph_Driver\src/stm32f10x_can.c ****     else
 197:.\stlib\STM32F10x_StdPeriph_Driver\src/stm32f10x_can.c ****     {
 198:.\stlib\STM32F10x_StdPeriph_Driver\src/stm32f10x_can.c ****       CANx->MCR &= ~(uint32_t)CAN_MCR_TTCM;
 237              		.loc 1 198 7 is_stmt 1 view .LVU49
 238              	@ .\stlib\STM32F10x_StdPeriph_Driver\src\stm32f10x_can.c:198:       CANx->MCR &= ~(uint32_t)CAN_MCR
 239              		.loc 1 198 17 is_stmt 0 view .LVU50
 240 0066 23F08003 		bicne	r3, r3, #128	@ _13, _12,
 241 006a 0360     		str	r3, [r0]	@ _13,* CANx
 199:.\stlib\STM32F10x_StdPeriph_Driver\src/stm32f10x_can.c ****     }
 200:.\stlib\STM32F10x_StdPeriph_Driver\src/stm32f10x_can.c **** 
 201:.\stlib\STM32F10x_StdPeriph_Driver\src/stm32f10x_can.c ****     /* Set the automatic bus-off management */
 202:.\stlib\STM32F10x_StdPeriph_Driver\src/stm32f10x_can.c ****     if (CAN_InitStruct->CAN_ABOM == ENABLE)
 242              		.loc 1 202 5 is_stmt 1 view .LVU51
 243              	@ .\stlib\STM32F10x_StdPeriph_Driver\src\stm32f10x_can.c:202:     if (CAN_InitStruct->CAN_ABOM == E
 244              		.loc 1 202 8 is_stmt 0 view .LVU52
 245 006c CB79     		ldrb	r3, [r1, #7]	@ zero_extendqisi2	@ CAN_InitStruct_80(D)->CAN_ABOM, CAN_InitStruct_80(D)->CAN_A
 246 006e 012B     		cmp	r3, #1	@ CAN_InitStruct_80(D)->CAN_ABOM,
 247              	@ .\stlib\STM32F10x_StdPeriph_Driver\src\stm32f10x_can.c:204:       CANx->MCR |= CAN_MCR_ABOM;
 203:.\stlib\STM32F10x_StdPeriph_Driver\src/stm32f10x_can.c ****     {
ARM GAS  C:\Users\skey\AppData\Local\Temp\ccv9NfrL.s 			page 9


 204:.\stlib\STM32F10x_StdPeriph_Driver\src/stm32f10x_can.c ****       CANx->MCR |= CAN_MCR_ABOM;
 248              		.loc 1 204 17 view .LVU53
 249 0070 0368     		ldr	r3, [r0]	@ _15,* CANx
 250              		.loc 1 204 7 is_stmt 1 view .LVU54
 251              	@ .\stlib\STM32F10x_StdPeriph_Driver\src\stm32f10x_can.c:204:       CANx->MCR |= CAN_MCR_ABOM;
 252              		.loc 1 204 17 is_stmt 0 view .LVU55
 253 0072 0CBF     		ite	eq
 254 0074 43F04003 		orreq	r3, r3, #64	@ _16, _15,
 205:.\stlib\STM32F10x_StdPeriph_Driver\src/stm32f10x_can.c ****     }
 206:.\stlib\STM32F10x_StdPeriph_Driver\src/stm32f10x_can.c ****     else
 207:.\stlib\STM32F10x_StdPeriph_Driver\src/stm32f10x_can.c ****     {
 208:.\stlib\STM32F10x_StdPeriph_Driver\src/stm32f10x_can.c ****       CANx->MCR &= ~(uint32_t)CAN_MCR_ABOM;
 255              		.loc 1 208 7 is_stmt 1 view .LVU56
 256              	@ .\stlib\STM32F10x_StdPeriph_Driver\src\stm32f10x_can.c:208:       CANx->MCR &= ~(uint32_t)CAN_MCR
 257              		.loc 1 208 17 is_stmt 0 view .LVU57
 258 0078 23F04003 		bicne	r3, r3, #64	@ _18, _17,
 259 007c 0360     		str	r3, [r0]	@ _18,* CANx
 209:.\stlib\STM32F10x_StdPeriph_Driver\src/stm32f10x_can.c ****     }
 210:.\stlib\STM32F10x_StdPeriph_Driver\src/stm32f10x_can.c **** 
 211:.\stlib\STM32F10x_StdPeriph_Driver\src/stm32f10x_can.c ****     /* Set the automatic wake-up mode */
 212:.\stlib\STM32F10x_StdPeriph_Driver\src/stm32f10x_can.c ****     if (CAN_InitStruct->CAN_AWUM == ENABLE)
 260              		.loc 1 212 5 is_stmt 1 view .LVU58
 261              	@ .\stlib\STM32F10x_StdPeriph_Driver\src\stm32f10x_can.c:212:     if (CAN_InitStruct->CAN_AWUM == E
 262              		.loc 1 212 8 is_stmt 0 view .LVU59
 263 007e 0B7A     		ldrb	r3, [r1, #8]	@ zero_extendqisi2	@ CAN_InitStruct_80(D)->CAN_AWUM, CAN_InitStruct_80(D)->CAN_A
 264 0080 012B     		cmp	r3, #1	@ CAN_InitStruct_80(D)->CAN_AWUM,
 265              	@ .\stlib\STM32F10x_StdPeriph_Driver\src\stm32f10x_can.c:214:       CANx->MCR |= CAN_MCR_AWUM;
 213:.\stlib\STM32F10x_StdPeriph_Driver\src/stm32f10x_can.c ****     {
 214:.\stlib\STM32F10x_StdPeriph_Driver\src/stm32f10x_can.c ****       CANx->MCR |= CAN_MCR_AWUM;
 266              		.loc 1 214 17 view .LVU60
 267 0082 0368     		ldr	r3, [r0]	@ _20,* CANx
 268              		.loc 1 214 7 is_stmt 1 view .LVU61
 269              	@ .\stlib\STM32F10x_StdPeriph_Driver\src\stm32f10x_can.c:214:       CANx->MCR |= CAN_MCR_AWUM;
 270              		.loc 1 214 17 is_stmt 0 view .LVU62
 271 0084 0CBF     		ite	eq
 272 0086 43F02003 		orreq	r3, r3, #32	@ _21, _20,
 215:.\stlib\STM32F10x_StdPeriph_Driver\src/stm32f10x_can.c ****     }
 216:.\stlib\STM32F10x_StdPeriph_Driver\src/stm32f10x_can.c ****     else
 217:.\stlib\STM32F10x_StdPeriph_Driver\src/stm32f10x_can.c ****     {
 218:.\stlib\STM32F10x_StdPeriph_Driver\src/stm32f10x_can.c ****       CANx->MCR &= ~(uint32_t)CAN_MCR_AWUM;
 273              		.loc 1 218 7 is_stmt 1 view .LVU63
 274              	@ .\stlib\STM32F10x_StdPeriph_Driver\src\stm32f10x_can.c:218:       CANx->MCR &= ~(uint32_t)CAN_MCR
 275              		.loc 1 218 17 is_stmt 0 view .LVU64
 276 008a 23F02003 		bicne	r3, r3, #32	@ _23, _22,
 277 008e 0360     		str	r3, [r0]	@ _23,* CANx
 219:.\stlib\STM32F10x_StdPeriph_Driver\src/stm32f10x_can.c ****     }
 220:.\stlib\STM32F10x_StdPeriph_Driver\src/stm32f10x_can.c **** 
 221:.\stlib\STM32F10x_StdPeriph_Driver\src/stm32f10x_can.c ****     /* Set the no automatic retransmission */
 222:.\stlib\STM32F10x_StdPeriph_Driver\src/stm32f10x_can.c ****     if (CAN_InitStruct->CAN_NART == ENABLE)
 278              		.loc 1 222 5 is_stmt 1 view .LVU65
 279              	@ .\stlib\STM32F10x_StdPeriph_Driver\src\stm32f10x_can.c:222:     if (CAN_InitStruct->CAN_NART == E
 280              		.loc 1 222 8 is_stmt 0 view .LVU66
 281 0090 4B7A     		ldrb	r3, [r1, #9]	@ zero_extendqisi2	@ CAN_InitStruct_80(D)->CAN_NART, CAN_InitStruct_80(D)->CAN_N
 282 0092 012B     		cmp	r3, #1	@ CAN_InitStruct_80(D)->CAN_NART,
 283              	@ .\stlib\STM32F10x_StdPeriph_Driver\src\stm32f10x_can.c:224:       CANx->MCR |= CAN_MCR_NART;
 223:.\stlib\STM32F10x_StdPeriph_Driver\src/stm32f10x_can.c ****     {
 224:.\stlib\STM32F10x_StdPeriph_Driver\src/stm32f10x_can.c ****       CANx->MCR |= CAN_MCR_NART;
ARM GAS  C:\Users\skey\AppData\Local\Temp\ccv9NfrL.s 			page 10


 284              		.loc 1 224 17 view .LVU67
 285 0094 0368     		ldr	r3, [r0]	@ _25,* CANx
 286              		.loc 1 224 7 is_stmt 1 view .LVU68
 287              	@ .\stlib\STM32F10x_StdPeriph_Driver\src\stm32f10x_can.c:224:       CANx->MCR |= CAN_MCR_NART;
 288              		.loc 1 224 17 is_stmt 0 view .LVU69
 289 0096 0CBF     		ite	eq
 290 0098 43F01003 		orreq	r3, r3, #16	@ _26, _25,
 225:.\stlib\STM32F10x_StdPeriph_Driver\src/stm32f10x_can.c ****     }
 226:.\stlib\STM32F10x_StdPeriph_Driver\src/stm32f10x_can.c ****     else
 227:.\stlib\STM32F10x_StdPeriph_Driver\src/stm32f10x_can.c ****     {
 228:.\stlib\STM32F10x_StdPeriph_Driver\src/stm32f10x_can.c ****       CANx->MCR &= ~(uint32_t)CAN_MCR_NART;
 291              		.loc 1 228 7 is_stmt 1 view .LVU70
 292              	@ .\stlib\STM32F10x_StdPeriph_Driver\src\stm32f10x_can.c:228:       CANx->MCR &= ~(uint32_t)CAN_MCR
 293              		.loc 1 228 17 is_stmt 0 view .LVU71
 294 009c 23F01003 		bicne	r3, r3, #16	@ _28, _27,
 295 00a0 0360     		str	r3, [r0]	@ _28,* CANx
 229:.\stlib\STM32F10x_StdPeriph_Driver\src/stm32f10x_can.c ****     }
 230:.\stlib\STM32F10x_StdPeriph_Driver\src/stm32f10x_can.c **** 
 231:.\stlib\STM32F10x_StdPeriph_Driver\src/stm32f10x_can.c ****     /* Set the receive FIFO locked mode */
 232:.\stlib\STM32F10x_StdPeriph_Driver\src/stm32f10x_can.c ****     if (CAN_InitStruct->CAN_RFLM == ENABLE)
 296              		.loc 1 232 5 is_stmt 1 view .LVU72
 297              	@ .\stlib\STM32F10x_StdPeriph_Driver\src\stm32f10x_can.c:232:     if (CAN_InitStruct->CAN_RFLM == E
 298              		.loc 1 232 8 is_stmt 0 view .LVU73
 299 00a2 8B7A     		ldrb	r3, [r1, #10]	@ zero_extendqisi2	@ CAN_InitStruct_80(D)->CAN_RFLM, CAN_InitStruct_80(D)->CAN_
 300 00a4 012B     		cmp	r3, #1	@ CAN_InitStruct_80(D)->CAN_RFLM,
 301              	@ .\stlib\STM32F10x_StdPeriph_Driver\src\stm32f10x_can.c:234:       CANx->MCR |= CAN_MCR_RFLM;
 233:.\stlib\STM32F10x_StdPeriph_Driver\src/stm32f10x_can.c ****     {
 234:.\stlib\STM32F10x_StdPeriph_Driver\src/stm32f10x_can.c ****       CANx->MCR |= CAN_MCR_RFLM;
 302              		.loc 1 234 17 view .LVU74
 303 00a6 0368     		ldr	r3, [r0]	@ _30,* CANx
 304              		.loc 1 234 7 is_stmt 1 view .LVU75
 305              	@ .\stlib\STM32F10x_StdPeriph_Driver\src\stm32f10x_can.c:234:       CANx->MCR |= CAN_MCR_RFLM;
 306              		.loc 1 234 17 is_stmt 0 view .LVU76
 307 00a8 0CBF     		ite	eq
 308 00aa 43F00803 		orreq	r3, r3, #8	@ _31, _30,
 235:.\stlib\STM32F10x_StdPeriph_Driver\src/stm32f10x_can.c ****     }
 236:.\stlib\STM32F10x_StdPeriph_Driver\src/stm32f10x_can.c ****     else
 237:.\stlib\STM32F10x_StdPeriph_Driver\src/stm32f10x_can.c ****     {
 238:.\stlib\STM32F10x_StdPeriph_Driver\src/stm32f10x_can.c ****       CANx->MCR &= ~(uint32_t)CAN_MCR_RFLM;
 309              		.loc 1 238 7 is_stmt 1 view .LVU77
 310              	@ .\stlib\STM32F10x_StdPeriph_Driver\src\stm32f10x_can.c:238:       CANx->MCR &= ~(uint32_t)CAN_MCR
 311              		.loc 1 238 17 is_stmt 0 view .LVU78
 312 00ae 23F00803 		bicne	r3, r3, #8	@ _33, _32,
 313 00b2 0360     		str	r3, [r0]	@ _33,* CANx
 239:.\stlib\STM32F10x_StdPeriph_Driver\src/stm32f10x_can.c ****     }
 240:.\stlib\STM32F10x_StdPeriph_Driver\src/stm32f10x_can.c **** 
 241:.\stlib\STM32F10x_StdPeriph_Driver\src/stm32f10x_can.c ****     /* Set the transmit FIFO priority */
 242:.\stlib\STM32F10x_StdPeriph_Driver\src/stm32f10x_can.c ****     if (CAN_InitStruct->CAN_TXFP == ENABLE)
 314              		.loc 1 242 5 is_stmt 1 view .LVU79
 315              	@ .\stlib\STM32F10x_StdPeriph_Driver\src\stm32f10x_can.c:242:     if (CAN_InitStruct->CAN_TXFP == E
 316              		.loc 1 242 8 is_stmt 0 view .LVU80
 317 00b4 CB7A     		ldrb	r3, [r1, #11]	@ zero_extendqisi2	@ CAN_InitStruct_80(D)->CAN_TXFP, CAN_InitStruct_80(D)->CAN_
 318 00b6 012B     		cmp	r3, #1	@ CAN_InitStruct_80(D)->CAN_TXFP,
 319              	@ .\stlib\STM32F10x_StdPeriph_Driver\src\stm32f10x_can.c:244:       CANx->MCR |= CAN_MCR_TXFP;
 243:.\stlib\STM32F10x_StdPeriph_Driver\src/stm32f10x_can.c ****     {
 244:.\stlib\STM32F10x_StdPeriph_Driver\src/stm32f10x_can.c ****       CANx->MCR |= CAN_MCR_TXFP;
 320              		.loc 1 244 17 view .LVU81
ARM GAS  C:\Users\skey\AppData\Local\Temp\ccv9NfrL.s 			page 11


 321 00b8 0368     		ldr	r3, [r0]	@ _35,* CANx
 322              		.loc 1 244 7 is_stmt 1 view .LVU82
 323              	@ .\stlib\STM32F10x_StdPeriph_Driver\src\stm32f10x_can.c:244:       CANx->MCR |= CAN_MCR_TXFP;
 324              		.loc 1 244 17 is_stmt 0 view .LVU83
 325 00ba 0CBF     		ite	eq
 326 00bc 43F00403 		orreq	r3, r3, #4	@ _36, _35,
 245:.\stlib\STM32F10x_StdPeriph_Driver\src/stm32f10x_can.c ****     }
 246:.\stlib\STM32F10x_StdPeriph_Driver\src/stm32f10x_can.c ****     else
 247:.\stlib\STM32F10x_StdPeriph_Driver\src/stm32f10x_can.c ****     {
 248:.\stlib\STM32F10x_StdPeriph_Driver\src/stm32f10x_can.c ****       CANx->MCR &= ~(uint32_t)CAN_MCR_TXFP;
 327              		.loc 1 248 7 is_stmt 1 view .LVU84
 328              	@ .\stlib\STM32F10x_StdPeriph_Driver\src\stm32f10x_can.c:248:       CANx->MCR &= ~(uint32_t)CAN_MCR
 329              		.loc 1 248 17 is_stmt 0 view .LVU85
 330 00c0 23F00403 		bicne	r3, r3, #4	@ _38, _37,
 331 00c4 0360     		str	r3, [r0]	@ _38,* CANx
 249:.\stlib\STM32F10x_StdPeriph_Driver\src/stm32f10x_can.c ****     }
 250:.\stlib\STM32F10x_StdPeriph_Driver\src/stm32f10x_can.c **** 
 251:.\stlib\STM32F10x_StdPeriph_Driver\src/stm32f10x_can.c ****     /* Set the bit timing register */
 252:.\stlib\STM32F10x_StdPeriph_Driver\src/stm32f10x_can.c ****     CANx->BTR = (uint32_t)((uint32_t)CAN_InitStruct->CAN_Mode << 30) | \
 332              		.loc 1 252 5 is_stmt 1 view .LVU86
 333              	@ .\stlib\STM32F10x_StdPeriph_Driver\src\stm32f10x_can.c:253:                 ((uint32_t)CAN_InitSt
 253:.\stlib\STM32F10x_StdPeriph_Driver\src/stm32f10x_can.c ****                 ((uint32_t)CAN_InitStruct->CAN_SJW << 24) | \
 334              		.loc 1 253 18 is_stmt 0 view .LVU87
 335 00c6 CB78     		ldrb	r3, [r1, #3]	@ zero_extendqisi2	@ CAN_InitStruct_80(D)->CAN_SJW, CAN_InitStruct_80(D)->CAN_SJ
 336              	@ .\stlib\STM32F10x_StdPeriph_Driver\src\stm32f10x_can.c:252:     CANx->BTR = (uint32_t)((uint32_t)
 252:.\stlib\STM32F10x_StdPeriph_Driver\src/stm32f10x_can.c ****                 ((uint32_t)CAN_InitStruct->CAN_SJW << 24) | \
 337              		.loc 1 252 28 view .LVU88
 338 00c8 8A78     		ldrb	r2, [r1, #2]	@ zero_extendqisi2	@ CAN_InitStruct_80(D)->CAN_Mode, CAN_InitStruct_80(D)->CAN_M
 339              	@ .\stlib\STM32F10x_StdPeriph_Driver\src\stm32f10x_can.c:253:                 ((uint32_t)CAN_InitSt
 340              		.loc 1 253 52 view .LVU89
 341 00ca 1B06     		lsls	r3, r3, #24	@ tmp190, CAN_InitStruct_80(D)->CAN_SJW,
 342              	@ .\stlib\STM32F10x_StdPeriph_Driver\src\stm32f10x_can.c:252:     CANx->BTR = (uint32_t)((uint32_t)
 252:.\stlib\STM32F10x_StdPeriph_Driver\src/stm32f10x_can.c ****                 ((uint32_t)CAN_InitStruct->CAN_SJW << 24) | \
 343              		.loc 1 252 70 view .LVU90
 344 00cc 43EA8273 		orr	r3, r3, r2, lsl #30	@ tmp191, tmp190, CAN_InitStruct_80(D)->CAN_Mode,
 345              	@ .\stlib\STM32F10x_StdPeriph_Driver\src\stm32f10x_can.c:254:                 ((uint32_t)CAN_InitSt
 254:.\stlib\STM32F10x_StdPeriph_Driver\src/stm32f10x_can.c ****                 ((uint32_t)CAN_InitStruct->CAN_BS1 << 16) | \
 346              		.loc 1 254 18 view .LVU91
 347 00d0 0A79     		ldrb	r2, [r1, #4]	@ zero_extendqisi2	@ CAN_InitStruct_80(D)->CAN_BS1, CAN_InitStruct_80(D)->CAN_BS
 348              	@ .\stlib\STM32F10x_StdPeriph_Driver\src\stm32f10x_can.c:253:                 ((uint32_t)CAN_InitSt
 253:.\stlib\STM32F10x_StdPeriph_Driver\src/stm32f10x_can.c ****                 ((uint32_t)CAN_InitStruct->CAN_SJW << 24) | \
 349              		.loc 1 253 59 view .LVU92
 350 00d2 43EA0243 		orr	r3, r3, r2, lsl #16	@ tmp194, tmp191, CAN_InitStruct_80(D)->CAN_BS1,
 351              	@ .\stlib\STM32F10x_StdPeriph_Driver\src\stm32f10x_can.c:255:                 ((uint32_t)CAN_InitSt
 255:.\stlib\STM32F10x_StdPeriph_Driver\src/stm32f10x_can.c ****                 ((uint32_t)CAN_InitStruct->CAN_BS2 << 20) | \
 352              		.loc 1 255 18 view .LVU93
 353 00d6 4A79     		ldrb	r2, [r1, #5]	@ zero_extendqisi2	@ CAN_InitStruct_80(D)->CAN_BS2, CAN_InitStruct_80(D)->CAN_BS
 354              	@ .\stlib\STM32F10x_StdPeriph_Driver\src\stm32f10x_can.c:254:                 ((uint32_t)CAN_InitSt
 254:.\stlib\STM32F10x_StdPeriph_Driver\src/stm32f10x_can.c ****                 ((uint32_t)CAN_InitStruct->CAN_BS1 << 16) | \
 355              		.loc 1 254 59 view .LVU94
 356 00d8 43EA0253 		orr	r3, r3, r2, lsl #20	@ tmp197, tmp194, CAN_InitStruct_80(D)->CAN_BS2,
 357              	@ .\stlib\STM32F10x_StdPeriph_Driver\src\stm32f10x_can.c:256:                ((uint32_t)CAN_InitStr
 256:.\stlib\STM32F10x_StdPeriph_Driver\src/stm32f10x_can.c ****                ((uint32_t)CAN_InitStruct->CAN_Prescaler - 1);
 358              		.loc 1 256 17 view .LVU95
 359 00dc 0A88     		ldrh	r2, [r1]	@ CAN_InitStruct_80(D)->CAN_Prescaler, CAN_InitStruct_80(D)->CAN_Prescaler
 360              	@ .\stlib\STM32F10x_StdPeriph_Driver\src\stm32f10x_can.c:256:                ((uint32_t)CAN_InitStr
 361              		.loc 1 256 57 view .LVU96
ARM GAS  C:\Users\skey\AppData\Local\Temp\ccv9NfrL.s 			page 12


 362 00de 013A     		subs	r2, r2, #1	@ tmp199, CAN_InitStruct_80(D)->CAN_Prescaler,
 363              	@ .\stlib\STM32F10x_StdPeriph_Driver\src\stm32f10x_can.c:255:                 ((uint32_t)CAN_InitSt
 255:.\stlib\STM32F10x_StdPeriph_Driver\src/stm32f10x_can.c ****                 ((uint32_t)CAN_InitStruct->CAN_BS2 << 20) | \
 364              		.loc 1 255 59 view .LVU97
 365 00e0 1343     		orrs	r3, r3, r2	@, _57, tmp197, tmp199
 366              	@ .\stlib\STM32F10x_StdPeriph_Driver\src\stm32f10x_can.c:252:     CANx->BTR = (uint32_t)((uint32_t)
 252:.\stlib\STM32F10x_StdPeriph_Driver\src/stm32f10x_can.c ****                 ((uint32_t)CAN_InitStruct->CAN_SJW << 24) | \
 367              		.loc 1 252 15 view .LVU98
 368 00e2 C361     		str	r3, [r0, #28]	@ _57, CANx_76(D)->BTR
 257:.\stlib\STM32F10x_StdPeriph_Driver\src/stm32f10x_can.c **** 
 258:.\stlib\STM32F10x_StdPeriph_Driver\src/stm32f10x_can.c ****     /* Request leave initialisation */
 259:.\stlib\STM32F10x_StdPeriph_Driver\src/stm32f10x_can.c ****     CANx->MCR &= ~(uint32_t)CAN_MCR_INRQ;
 369              		.loc 1 259 5 is_stmt 1 view .LVU99
 370              	@ .\stlib\STM32F10x_StdPeriph_Driver\src\stm32f10x_can.c:259:     CANx->MCR &= ~(uint32_t)CAN_MCR_I
 371              		.loc 1 259 15 is_stmt 0 view .LVU100
 372 00e4 0368     		ldr	r3, [r0]	@ _58, CANx_76(D)->MCR
 373 00e6 23F00103 		bic	r3, r3, #1	@ _59, _58,
 374 00ea 0360     		str	r3, [r0]	@ _59, CANx_76(D)->MCR
 260:.\stlib\STM32F10x_StdPeriph_Driver\src/stm32f10x_can.c **** 
 261:.\stlib\STM32F10x_StdPeriph_Driver\src/stm32f10x_can.c ****    /* Wait the acknowledge */
 262:.\stlib\STM32F10x_StdPeriph_Driver\src/stm32f10x_can.c ****    wait_ack = 0;
 375              		.loc 1 262 4 is_stmt 1 view .LVU101
 376              	.LVL10:
 263:.\stlib\STM32F10x_StdPeriph_Driver\src/stm32f10x_can.c **** 
 264:.\stlib\STM32F10x_StdPeriph_Driver\src/stm32f10x_can.c ****    while (((CANx->MSR & CAN_MSR_INAK) == CAN_MSR_INAK) && (wait_ack != INAK_TIMEOUT))
 377              		.loc 1 264 4 view .LVU102
 378              	@ .\stlib\STM32F10x_StdPeriph_Driver\src\stm32f10x_can.c:264:    while (((CANx->MSR & CAN_MSR_INAK)
 379              		.loc 1 264 10 is_stmt 0 view .LVU103
 380 00ec 4FF48033 		mov	r3, #65536	@ ivtmp_63,
 381              	.LVL11:
 382              	.L23:
 383              		.loc 1 264 10 is_stmt 1 view .LVU104
 384              	@ .\stlib\STM32F10x_StdPeriph_Driver\src\stm32f10x_can.c:264:    while (((CANx->MSR & CAN_MSR_INAK)
 385              		.loc 1 264 17 is_stmt 0 view .LVU105
 386 00f0 4268     		ldr	r2, [r0, #4]	@ _60, CANx_76(D)->MSR
 387              	@ .\stlib\STM32F10x_StdPeriph_Driver\src\stm32f10x_can.c:264:    while (((CANx->MSR & CAN_MSR_INAK)
 388              		.loc 1 264 10 view .LVU106
 389 00f2 D207     		lsls	r2, r2, #31	@, _60,
 390 00f4 01D5     		bpl	.L22		@,
 391              	@ .\stlib\STM32F10x_StdPeriph_Driver\src\stm32f10x_can.c:264:    while (((CANx->MSR & CAN_MSR_INAK)
 392              		.loc 1 264 56 discriminator 1 view .LVU107
 393 00f6 013B     		subs	r3, r3, #1	@ ivtmp_63, ivtmp_63,
 394              	.LVL12:
 395              		.loc 1 264 56 discriminator 1 view .LVU108
 396 00f8 FAD1     		bne	.L23		@,
 397              	.LVL13:
 398              	.L22:
 265:.\stlib\STM32F10x_StdPeriph_Driver\src/stm32f10x_can.c ****    {
 266:.\stlib\STM32F10x_StdPeriph_Driver\src/stm32f10x_can.c ****      wait_ack++;
 267:.\stlib\STM32F10x_StdPeriph_Driver\src/stm32f10x_can.c ****    }
 268:.\stlib\STM32F10x_StdPeriph_Driver\src/stm32f10x_can.c **** 
 269:.\stlib\STM32F10x_StdPeriph_Driver\src/stm32f10x_can.c ****     /* ...and check acknowledged */
 270:.\stlib\STM32F10x_StdPeriph_Driver\src/stm32f10x_can.c ****     if ((CANx->MSR & CAN_MSR_INAK) == CAN_MSR_INAK)
 399              		.loc 1 270 5 is_stmt 1 view .LVU109
 400              	@ .\stlib\STM32F10x_StdPeriph_Driver\src\stm32f10x_can.c:270:     if ((CANx->MSR & CAN_MSR_INAK) ==
 401              		.loc 1 270 14 is_stmt 0 view .LVU110
 402 00fa 4068     		ldr	r0, [r0, #4]	@ _62, CANx_76(D)->MSR
ARM GAS  C:\Users\skey\AppData\Local\Temp\ccv9NfrL.s 			page 13


 403              	.LVL14:
 404              	@ .\stlib\STM32F10x_StdPeriph_Driver\src\stm32f10x_can.c:270:     if ((CANx->MSR & CAN_MSR_INAK) ==
 405              		.loc 1 270 8 view .LVU111
 406 00fc C043     		mvns	r0, r0	@ tmp201, _62
 407 00fe 00F00100 		and	r0, r0, #1	@ <retval>, tmp201,
 408 0102 7047     		bx	lr	@
 409              	.LVL15:
 410              	.L24:
 411              	@ .\stlib\STM32F10x_StdPeriph_Driver\src\stm32f10x_can.c:187:     InitStatus = CAN_InitStatus_Faile
 187:.\stlib\STM32F10x_StdPeriph_Driver\src/stm32f10x_can.c ****   }
 412              		.loc 1 187 16 view .LVU112
 413 0104 1846     		mov	r0, r3	@ <retval>, tmp180
 414              	.LVL16:
 271:.\stlib\STM32F10x_StdPeriph_Driver\src/stm32f10x_can.c ****     {
 272:.\stlib\STM32F10x_StdPeriph_Driver\src/stm32f10x_can.c ****       InitStatus = CAN_InitStatus_Failed;
 273:.\stlib\STM32F10x_StdPeriph_Driver\src/stm32f10x_can.c ****     }
 274:.\stlib\STM32F10x_StdPeriph_Driver\src/stm32f10x_can.c ****     else
 275:.\stlib\STM32F10x_StdPeriph_Driver\src/stm32f10x_can.c ****     {
 276:.\stlib\STM32F10x_StdPeriph_Driver\src/stm32f10x_can.c ****       InitStatus = CAN_InitStatus_Success ;
 277:.\stlib\STM32F10x_StdPeriph_Driver\src/stm32f10x_can.c ****     }
 278:.\stlib\STM32F10x_StdPeriph_Driver\src/stm32f10x_can.c ****   }
 279:.\stlib\STM32F10x_StdPeriph_Driver\src/stm32f10x_can.c **** 
 280:.\stlib\STM32F10x_StdPeriph_Driver\src/stm32f10x_can.c ****   /* At this step, return the status of initialization */
 281:.\stlib\STM32F10x_StdPeriph_Driver\src/stm32f10x_can.c ****   return InitStatus;
 415              		.loc 1 281 3 is_stmt 1 view .LVU113
 416              	@ .\stlib\STM32F10x_StdPeriph_Driver\src\stm32f10x_can.c:282: }
 282:.\stlib\STM32F10x_StdPeriph_Driver\src/stm32f10x_can.c **** }
 417              		.loc 1 282 1 is_stmt 0 view .LVU114
 418 0106 7047     		bx	lr	@
 419              		.cfi_endproc
 420              	.LFE30:
 421              		.size	CAN_Init, .-CAN_Init
 422              		.align	1
 423              		.global	CAN_FilterInit
 424              		.syntax unified
 425              		.thumb
 426              		.thumb_func
 427              		.fpu softvfp
 428              		.type	CAN_FilterInit, %function
 429              	CAN_FilterInit:
 430              	.LVL17:
 431              	.LFB31:
 283:.\stlib\STM32F10x_StdPeriph_Driver\src/stm32f10x_can.c **** 
 284:.\stlib\STM32F10x_StdPeriph_Driver\src/stm32f10x_can.c **** /**
 285:.\stlib\STM32F10x_StdPeriph_Driver\src/stm32f10x_can.c ****   * @brief  Initializes the CAN peripheral according to the specified
 286:.\stlib\STM32F10x_StdPeriph_Driver\src/stm32f10x_can.c ****   *         parameters in the CAN_FilterInitStruct.
 287:.\stlib\STM32F10x_StdPeriph_Driver\src/stm32f10x_can.c ****   * @param  CAN_FilterInitStruct: pointer to a CAN_FilterInitTypeDef
 288:.\stlib\STM32F10x_StdPeriph_Driver\src/stm32f10x_can.c ****   *                               structure that contains the configuration 
 289:.\stlib\STM32F10x_StdPeriph_Driver\src/stm32f10x_can.c ****   *                               information.
 290:.\stlib\STM32F10x_StdPeriph_Driver\src/stm32f10x_can.c ****   * @retval None.
 291:.\stlib\STM32F10x_StdPeriph_Driver\src/stm32f10x_can.c ****   */
 292:.\stlib\STM32F10x_StdPeriph_Driver\src/stm32f10x_can.c **** void CAN_FilterInit(CAN_FilterInitTypeDef* CAN_FilterInitStruct)
 293:.\stlib\STM32F10x_StdPeriph_Driver\src/stm32f10x_can.c **** {
 432              		.loc 1 293 1 is_stmt 1 view -0
 433              		.cfi_startproc
 434              		@ args = 0, pretend = 0, frame = 0
 435              		@ frame_needed = 0, uses_anonymous_args = 0
ARM GAS  C:\Users\skey\AppData\Local\Temp\ccv9NfrL.s 			page 14


 294:.\stlib\STM32F10x_StdPeriph_Driver\src/stm32f10x_can.c ****   uint32_t filter_number_bit_pos = 0;
 436              		.loc 1 294 3 view .LVU116
 295:.\stlib\STM32F10x_StdPeriph_Driver\src/stm32f10x_can.c ****   /* Check the parameters */
 296:.\stlib\STM32F10x_StdPeriph_Driver\src/stm32f10x_can.c ****   assert_param(IS_CAN_FILTER_NUMBER(CAN_FilterInitStruct->CAN_FilterNumber));
 437              		.loc 1 296 3 view .LVU117
 297:.\stlib\STM32F10x_StdPeriph_Driver\src/stm32f10x_can.c ****   assert_param(IS_CAN_FILTER_MODE(CAN_FilterInitStruct->CAN_FilterMode));
 438              		.loc 1 297 3 view .LVU118
 298:.\stlib\STM32F10x_StdPeriph_Driver\src/stm32f10x_can.c ****   assert_param(IS_CAN_FILTER_SCALE(CAN_FilterInitStruct->CAN_FilterScale));
 439              		.loc 1 298 3 view .LVU119
 299:.\stlib\STM32F10x_StdPeriph_Driver\src/stm32f10x_can.c ****   assert_param(IS_CAN_FILTER_FIFO(CAN_FilterInitStruct->CAN_FilterFIFOAssignment));
 440              		.loc 1 299 3 view .LVU120
 300:.\stlib\STM32F10x_StdPeriph_Driver\src/stm32f10x_can.c ****   assert_param(IS_FUNCTIONAL_STATE(CAN_FilterInitStruct->CAN_FilterActivation));
 441              		.loc 1 300 3 view .LVU121
 301:.\stlib\STM32F10x_StdPeriph_Driver\src/stm32f10x_can.c **** 
 302:.\stlib\STM32F10x_StdPeriph_Driver\src/stm32f10x_can.c ****   filter_number_bit_pos = ((uint32_t)1) << CAN_FilterInitStruct->CAN_FilterNumber;
 442              		.loc 1 302 3 view .LVU122
 443              	@ .\stlib\STM32F10x_StdPeriph_Driver\src\stm32f10x_can.c:302:   filter_number_bit_pos = ((uint32_t)
 444              		.loc 1 302 25 is_stmt 0 view .LVU123
 445 0108 0121     		movs	r1, #1	@ tmp169,
 446              	@ .\stlib\STM32F10x_StdPeriph_Driver\src\stm32f10x_can.c:305:   CAN1->FMR |= FMR_FINIT;
 303:.\stlib\STM32F10x_StdPeriph_Driver\src/stm32f10x_can.c **** 
 304:.\stlib\STM32F10x_StdPeriph_Driver\src/stm32f10x_can.c ****   /* Initialisation mode for the filter */
 305:.\stlib\STM32F10x_StdPeriph_Driver\src/stm32f10x_can.c ****   CAN1->FMR |= FMR_FINIT;
 447              		.loc 1 305 13 view .LVU124
 448 010a 354A     		ldr	r2, .L46	@ tmp170,
 449              	@ .\stlib\STM32F10x_StdPeriph_Driver\src\stm32f10x_can.c:293: {
 293:.\stlib\STM32F10x_StdPeriph_Driver\src/stm32f10x_can.c ****   uint32_t filter_number_bit_pos = 0;
 450              		.loc 1 293 1 view .LVU125
 451 010c 30B5     		push	{r4, r5, lr}	@
 452              	.LCFI3:
 453              		.cfi_def_cfa_offset 12
 454              		.cfi_offset 4, -12
 455              		.cfi_offset 5, -8
 456              		.cfi_offset 14, -4
 457              	@ .\stlib\STM32F10x_StdPeriph_Driver\src\stm32f10x_can.c:305:   CAN1->FMR |= FMR_FINIT;
 458              		.loc 1 305 13 view .LVU126
 459 010e D2F80042 		ldr	r4, [r2, #512]	@ _3, MEM[(struct CAN_TypeDef *)1073767424B].FMR
 460              	@ .\stlib\STM32F10x_StdPeriph_Driver\src\stm32f10x_can.c:302:   filter_number_bit_pos = ((uint32_t)
 302:.\stlib\STM32F10x_StdPeriph_Driver\src/stm32f10x_can.c **** 
 461              		.loc 1 302 64 view .LVU127
 462 0112 837A     		ldrb	r3, [r0, #10]	@ zero_extendqisi2	@ _1, CAN_FilterInitStruct_59(D)->CAN_FilterNumber
 463              	@ .\stlib\STM32F10x_StdPeriph_Driver\src\stm32f10x_can.c:305:   CAN1->FMR |= FMR_FINIT;
 464              		.loc 1 305 13 view .LVU128
 465 0114 44F00104 		orr	r4, r4, #1	@ _4, _3,
 466 0118 C2F80042 		str	r4, [r2, #512]	@ _4, MEM[(struct CAN_TypeDef *)1073767424B].FMR
 467              	@ .\stlib\STM32F10x_StdPeriph_Driver\src\stm32f10x_can.c:308:   CAN1->FA1R &= ~(uint32_t)filter_num
 306:.\stlib\STM32F10x_StdPeriph_Driver\src/stm32f10x_can.c **** 
 307:.\stlib\STM32F10x_StdPeriph_Driver\src/stm32f10x_can.c ****   /* Filter Deactivation */
 308:.\stlib\STM32F10x_StdPeriph_Driver\src/stm32f10x_can.c ****   CAN1->FA1R &= ~(uint32_t)filter_number_bit_pos;
 468              		.loc 1 308 14 view .LVU129
 469 011c D2F81C52 		ldr	r5, [r2, #540]	@ _5, MEM[(struct CAN_TypeDef *)1073767424B].FA1R
 470              	@ .\stlib\STM32F10x_StdPeriph_Driver\src\stm32f10x_can.c:302:   filter_number_bit_pos = ((uint32_t)
 302:.\stlib\STM32F10x_StdPeriph_Driver\src/stm32f10x_can.c **** 
 471              		.loc 1 302 25 view .LVU130
 472 0120 9940     		lsls	r1, r1, r3	@ filter_number_bit_pos, tmp169, _1
 473              	.LVL18:
 305:.\stlib\STM32F10x_StdPeriph_Driver\src/stm32f10x_can.c **** 
ARM GAS  C:\Users\skey\AppData\Local\Temp\ccv9NfrL.s 			page 15


 474              		.loc 1 305 3 is_stmt 1 view .LVU131
 475              		.loc 1 308 3 view .LVU132
 476              	@ .\stlib\STM32F10x_StdPeriph_Driver\src\stm32f10x_can.c:308:   CAN1->FA1R &= ~(uint32_t)filter_num
 477              		.loc 1 308 14 is_stmt 0 view .LVU133
 478 0122 25EA0105 		bic	r5, r5, r1	@ _7, _5, filter_number_bit_pos
 479 0126 C2F81C52 		str	r5, [r2, #540]	@ _7, MEM[(struct CAN_TypeDef *)1073767424B].FA1R
 309:.\stlib\STM32F10x_StdPeriph_Driver\src/stm32f10x_can.c **** 
 310:.\stlib\STM32F10x_StdPeriph_Driver\src/stm32f10x_can.c ****   /* Filter Scale */
 311:.\stlib\STM32F10x_StdPeriph_Driver\src/stm32f10x_can.c ****   if (CAN_FilterInitStruct->CAN_FilterScale == CAN_FilterScale_16bit)
 480              		.loc 1 311 3 is_stmt 1 view .LVU134
 481              	@ .\stlib\STM32F10x_StdPeriph_Driver\src\stm32f10x_can.c:311:   if (CAN_FilterInitStruct->CAN_Filte
 482              		.loc 1 311 27 is_stmt 0 view .LVU135
 483 012a 057B     		ldrb	r5, [r0, #12]	@ zero_extendqisi2	@ _8, CAN_FilterInitStruct_59(D)->CAN_FilterScale
 484              	@ .\stlib\STM32F10x_StdPeriph_Driver\src\stm32f10x_can.c:308:   CAN1->FA1R &= ~(uint32_t)filter_num
 308:.\stlib\STM32F10x_StdPeriph_Driver\src/stm32f10x_can.c **** 
 485              		.loc 1 308 17 view .LVU136
 486 012c CC43     		mvns	r4, r1	@ _6, filter_number_bit_pos
 487              	@ .\stlib\STM32F10x_StdPeriph_Driver\src\stm32f10x_can.c:311:   if (CAN_FilterInitStruct->CAN_Filte
 488              		.loc 1 311 6 view .LVU137
 489 012e 002D     		cmp	r5, #0	@ _8
 490 0130 34D1     		bne	.L37	@
 312:.\stlib\STM32F10x_StdPeriph_Driver\src/stm32f10x_can.c ****   {
 313:.\stlib\STM32F10x_StdPeriph_Driver\src/stm32f10x_can.c ****     /* 16-bit scale for the filter */
 314:.\stlib\STM32F10x_StdPeriph_Driver\src/stm32f10x_can.c ****     CAN1->FS1R &= ~(uint32_t)filter_number_bit_pos;
 491              		.loc 1 314 5 is_stmt 1 view .LVU138
 492              	@ .\stlib\STM32F10x_StdPeriph_Driver\src\stm32f10x_can.c:314:     CAN1->FS1R &= ~(uint32_t)filter_n
 493              		.loc 1 314 16 is_stmt 0 view .LVU139
 494 0132 D2F80C52 		ldr	r5, [r2, #524]	@ _9, MEM[(struct CAN_TypeDef *)1073767424B].FS1R
 495 0136 DB00     		lsls	r3, r3, #3	@ tmp179, _1,
 496 0138 2540     		ands	r5, r5, r4	@, _10, _9, _6
 497 013a C2F80C52 		str	r5, [r2, #524]	@ _10, MEM[(struct CAN_TypeDef *)1073767424B].FS1R
 315:.\stlib\STM32F10x_StdPeriph_Driver\src/stm32f10x_can.c **** 
 316:.\stlib\STM32F10x_StdPeriph_Driver\src/stm32f10x_can.c ****     /* First 16-bit identifier and First 16-bit mask */
 317:.\stlib\STM32F10x_StdPeriph_Driver\src/stm32f10x_can.c ****     /* Or First 16-bit identifier and Second 16-bit identifier */
 318:.\stlib\STM32F10x_StdPeriph_Driver\src/stm32f10x_can.c ****     CAN1->sFilterRegister[CAN_FilterInitStruct->CAN_FilterNumber].FR1 = 
 498              		.loc 1 318 5 is_stmt 1 view .LVU140
 499              	@ .\stlib\STM32F10x_StdPeriph_Driver\src\stm32f10x_can.c:319:     ((0x0000FFFF & (uint32_t)CAN_Filt
 319:.\stlib\STM32F10x_StdPeriph_Driver\src/stm32f10x_can.c ****     ((0x0000FFFF & (uint32_t)CAN_FilterInitStruct->CAN_FilterMaskIdLow) << 16) |
 500              		.loc 1 319 18 is_stmt 0 view .LVU141
 501 013e C588     		ldrh	r5, [r0, #6]	@ CAN_FilterInitStruct_59(D)->CAN_FilterMaskIdLow, CAN_FilterInitStruct_59(D)->C
 502              	@ .\stlib\STM32F10x_StdPeriph_Driver\src\stm32f10x_can.c:320:         (0x0000FFFF & (uint32_t)CAN_F
 320:.\stlib\STM32F10x_StdPeriph_Driver\src/stm32f10x_can.c ****         (0x0000FFFF & (uint32_t)CAN_FilterInitStruct->CAN_FilterIdLow);
 503              		.loc 1 320 21 view .LVU142
 504 0140 4288     		ldrh	r2, [r0, #2]	@ CAN_FilterInitStruct_59(D)->CAN_FilterIdLow, CAN_FilterInitStruct_59(D)->CAN_F
 505 0142 03F18043 		add	r3, r3, #1073741824	@ _75, tmp179,
 506              	@ .\stlib\STM32F10x_StdPeriph_Driver\src\stm32f10x_can.c:319:     ((0x0000FFFF & (uint32_t)CAN_Filt
 319:.\stlib\STM32F10x_StdPeriph_Driver\src/stm32f10x_can.c ****     ((0x0000FFFF & (uint32_t)CAN_FilterInitStruct->CAN_FilterMaskIdLow) << 16) |
 507              		.loc 1 319 80 view .LVU143
 508 0146 42EA0542 		orr	r2, r2, r5, lsl #16	@ _16, CAN_FilterInitStruct_59(D)->CAN_FilterIdLow, CAN_FilterInitStruct_5
 509 014a 03F5C843 		add	r3, r3, #25600	@ _75, _75,
 510              	@ .\stlib\STM32F10x_StdPeriph_Driver\src\stm32f10x_can.c:318:     CAN1->sFilterRegister[CAN_FilterI
 318:.\stlib\STM32F10x_StdPeriph_Driver\src/stm32f10x_can.c ****     ((0x0000FFFF & (uint32_t)CAN_FilterInitStruct->CAN_FilterMaskIdLow) << 16) |
 511              		.loc 1 318 71 view .LVU144
 512 014e C3F84022 		str	r2, [r3, #576]	@ _16, MEM[(struct CAN_TypeDef *)_75 + 576B]
 321:.\stlib\STM32F10x_StdPeriph_Driver\src/stm32f10x_can.c **** 
 322:.\stlib\STM32F10x_StdPeriph_Driver\src/stm32f10x_can.c ****     /* Second 16-bit identifier and Second 16-bit mask */
 323:.\stlib\STM32F10x_StdPeriph_Driver\src/stm32f10x_can.c ****     /* Or Third 16-bit identifier and Fourth 16-bit identifier */
ARM GAS  C:\Users\skey\AppData\Local\Temp\ccv9NfrL.s 			page 16


 324:.\stlib\STM32F10x_StdPeriph_Driver\src/stm32f10x_can.c ****     CAN1->sFilterRegister[CAN_FilterInitStruct->CAN_FilterNumber].FR2 = 
 513              		.loc 1 324 5 is_stmt 1 view .LVU145
 514              	@ .\stlib\STM32F10x_StdPeriph_Driver\src\stm32f10x_can.c:325:     ((0x0000FFFF & (uint32_t)CAN_Filt
 325:.\stlib\STM32F10x_StdPeriph_Driver\src/stm32f10x_can.c ****     ((0x0000FFFF & (uint32_t)CAN_FilterInitStruct->CAN_FilterMaskIdHigh) << 16) |
 515              		.loc 1 325 18 is_stmt 0 view .LVU146
 516 0152 8588     		ldrh	r5, [r0, #4]	@ CAN_FilterInitStruct_59(D)->CAN_FilterMaskIdHigh, CAN_FilterInitStruct_59(D)->
 517              	@ .\stlib\STM32F10x_StdPeriph_Driver\src\stm32f10x_can.c:326:         (0x0000FFFF & (uint32_t)CAN_F
 326:.\stlib\STM32F10x_StdPeriph_Driver\src/stm32f10x_can.c ****         (0x0000FFFF & (uint32_t)CAN_FilterInitStruct->CAN_FilterIdHigh);
 518              		.loc 1 326 21 view .LVU147
 519 0154 0288     		ldrh	r2, [r0]	@ CAN_FilterInitStruct_59(D)->CAN_FilterIdHigh, CAN_FilterInitStruct_59(D)->CAN_Filt
 520              	.L44:
 521              	@ .\stlib\STM32F10x_StdPeriph_Driver\src\stm32f10x_can.c:339:     ((0x0000FFFF & (uint32_t)CAN_Filt
 327:.\stlib\STM32F10x_StdPeriph_Driver\src/stm32f10x_can.c ****   }
 328:.\stlib\STM32F10x_StdPeriph_Driver\src/stm32f10x_can.c **** 
 329:.\stlib\STM32F10x_StdPeriph_Driver\src/stm32f10x_can.c ****   if (CAN_FilterInitStruct->CAN_FilterScale == CAN_FilterScale_32bit)
 330:.\stlib\STM32F10x_StdPeriph_Driver\src/stm32f10x_can.c ****   {
 331:.\stlib\STM32F10x_StdPeriph_Driver\src/stm32f10x_can.c ****     /* 32-bit scale for the filter */
 332:.\stlib\STM32F10x_StdPeriph_Driver\src/stm32f10x_can.c ****     CAN1->FS1R |= filter_number_bit_pos;
 333:.\stlib\STM32F10x_StdPeriph_Driver\src/stm32f10x_can.c ****     /* 32-bit identifier or First 32-bit identifier */
 334:.\stlib\STM32F10x_StdPeriph_Driver\src/stm32f10x_can.c ****     CAN1->sFilterRegister[CAN_FilterInitStruct->CAN_FilterNumber].FR1 = 
 335:.\stlib\STM32F10x_StdPeriph_Driver\src/stm32f10x_can.c ****     ((0x0000FFFF & (uint32_t)CAN_FilterInitStruct->CAN_FilterIdHigh) << 16) |
 336:.\stlib\STM32F10x_StdPeriph_Driver\src/stm32f10x_can.c ****         (0x0000FFFF & (uint32_t)CAN_FilterInitStruct->CAN_FilterIdLow);
 337:.\stlib\STM32F10x_StdPeriph_Driver\src/stm32f10x_can.c ****     /* 32-bit mask or Second 32-bit identifier */
 338:.\stlib\STM32F10x_StdPeriph_Driver\src/stm32f10x_can.c ****     CAN1->sFilterRegister[CAN_FilterInitStruct->CAN_FilterNumber].FR2 = 
 339:.\stlib\STM32F10x_StdPeriph_Driver\src/stm32f10x_can.c ****     ((0x0000FFFF & (uint32_t)CAN_FilterInitStruct->CAN_FilterMaskIdHigh) << 16) |
 522              		.loc 1 339 81 view .LVU148
 523 0156 42EA0542 		orr	r2, r2, r5, lsl #16	@ _36, CAN_FilterInitStruct_59(D)->CAN_FilterMaskIdLow, CAN_FilterInitStru
 524              	@ .\stlib\STM32F10x_StdPeriph_Driver\src\stm32f10x_can.c:338:     CAN1->sFilterRegister[CAN_FilterI
 338:.\stlib\STM32F10x_StdPeriph_Driver\src/stm32f10x_can.c ****     ((0x0000FFFF & (uint32_t)CAN_FilterInitStruct->CAN_FilterMaskIdHigh) << 16) |
 525              		.loc 1 338 71 view .LVU149
 526 015a C3F84422 		str	r2, [r3, #580]	@ _36,
 527              	.L38:
 340:.\stlib\STM32F10x_StdPeriph_Driver\src/stm32f10x_can.c ****         (0x0000FFFF & (uint32_t)CAN_FilterInitStruct->CAN_FilterMaskIdLow);
 341:.\stlib\STM32F10x_StdPeriph_Driver\src/stm32f10x_can.c ****   }
 342:.\stlib\STM32F10x_StdPeriph_Driver\src/stm32f10x_can.c **** 
 343:.\stlib\STM32F10x_StdPeriph_Driver\src/stm32f10x_can.c ****   /* Filter Mode */
 344:.\stlib\STM32F10x_StdPeriph_Driver\src/stm32f10x_can.c ****   if (CAN_FilterInitStruct->CAN_FilterMode == CAN_FilterMode_IdMask)
 528              		.loc 1 344 3 is_stmt 1 view .LVU150
 529              	@ .\stlib\STM32F10x_StdPeriph_Driver\src\stm32f10x_can.c:344:   if (CAN_FilterInitStruct->CAN_Filte
 530              		.loc 1 344 6 is_stmt 0 view .LVU151
 531 015e C27A     		ldrb	r2, [r0, #11]	@ zero_extendqisi2	@ CAN_FilterInitStruct_59(D)->CAN_FilterMode, CAN_FilterInit
 532 0160 1F4B     		ldr	r3, .L46	@ tmp208,
 533 0162 82BB     		cbnz	r2, .L39	@ CAN_FilterInitStruct_59(D)->CAN_FilterMode,
 345:.\stlib\STM32F10x_StdPeriph_Driver\src/stm32f10x_can.c ****   {
 346:.\stlib\STM32F10x_StdPeriph_Driver\src/stm32f10x_can.c ****     /*Id/Mask mode for the filter*/
 347:.\stlib\STM32F10x_StdPeriph_Driver\src/stm32f10x_can.c ****     CAN1->FM1R &= ~(uint32_t)filter_number_bit_pos;
 534              		.loc 1 347 5 is_stmt 1 view .LVU152
 535              	@ .\stlib\STM32F10x_StdPeriph_Driver\src\stm32f10x_can.c:347:     CAN1->FM1R &= ~(uint32_t)filter_n
 536              		.loc 1 347 16 is_stmt 0 view .LVU153
 537 0164 D3F80422 		ldr	r2, [r3, #516]	@ _38,
 538 0168 2240     		ands	r2, r2, r4	@, _39, _38, _6
 539              	.L45:
 540              	@ .\stlib\STM32F10x_StdPeriph_Driver\src\stm32f10x_can.c:352:     CAN1->FM1R |= (uint32_t)filter_nu
 348:.\stlib\STM32F10x_StdPeriph_Driver\src/stm32f10x_can.c ****   }
 349:.\stlib\STM32F10x_StdPeriph_Driver\src/stm32f10x_can.c ****   else /* CAN_FilterInitStruct->CAN_FilterMode == CAN_FilterMode_IdList */
 350:.\stlib\STM32F10x_StdPeriph_Driver\src/stm32f10x_can.c ****   {
 351:.\stlib\STM32F10x_StdPeriph_Driver\src/stm32f10x_can.c ****     /*Identifier list mode for the filter*/
ARM GAS  C:\Users\skey\AppData\Local\Temp\ccv9NfrL.s 			page 17


 352:.\stlib\STM32F10x_StdPeriph_Driver\src/stm32f10x_can.c ****     CAN1->FM1R |= (uint32_t)filter_number_bit_pos;
 541              		.loc 1 352 16 view .LVU154
 542 016a C3F80422 		str	r2, [r3, #516]	@ _41,
 353:.\stlib\STM32F10x_StdPeriph_Driver\src/stm32f10x_can.c ****   }
 354:.\stlib\STM32F10x_StdPeriph_Driver\src/stm32f10x_can.c **** 
 355:.\stlib\STM32F10x_StdPeriph_Driver\src/stm32f10x_can.c ****   /* Filter FIFO assignment */
 356:.\stlib\STM32F10x_StdPeriph_Driver\src/stm32f10x_can.c ****   if (CAN_FilterInitStruct->CAN_FilterFIFOAssignment == CAN_Filter_FIFO0)
 543              		.loc 1 356 3 is_stmt 1 view .LVU155
 544              	@ .\stlib\STM32F10x_StdPeriph_Driver\src\stm32f10x_can.c:356:   if (CAN_FilterInitStruct->CAN_Filte
 545              		.loc 1 356 27 is_stmt 0 view .LVU156
 546 016e 0289     		ldrh	r2, [r0, #8]	@ _42, CAN_FilterInitStruct_59(D)->CAN_FilterFIFOAssignment
 547              	@ .\stlib\STM32F10x_StdPeriph_Driver\src\stm32f10x_can.c:356:   if (CAN_FilterInitStruct->CAN_Filte
 548              		.loc 1 356 6 view .LVU157
 549 0170 6ABB     		cbnz	r2, .L41	@ _42,
 357:.\stlib\STM32F10x_StdPeriph_Driver\src/stm32f10x_can.c ****   {
 358:.\stlib\STM32F10x_StdPeriph_Driver\src/stm32f10x_can.c ****     /* FIFO 0 assignation for the filter */
 359:.\stlib\STM32F10x_StdPeriph_Driver\src/stm32f10x_can.c ****     CAN1->FFA1R &= ~(uint32_t)filter_number_bit_pos;
 550              		.loc 1 359 5 is_stmt 1 view .LVU158
 551              	@ .\stlib\STM32F10x_StdPeriph_Driver\src\stm32f10x_can.c:359:     CAN1->FFA1R &= ~(uint32_t)filter_
 552              		.loc 1 359 17 is_stmt 0 view .LVU159
 553 0172 D3F81422 		ldr	r2, [r3, #532]	@ _43, MEM[(struct CAN_TypeDef *)1073767424B].FFA1R
 554 0176 1440     		ands	r4, r4, r2	@, _44, _6, _43
 555 0178 C3F81442 		str	r4, [r3, #532]	@ _44, MEM[(struct CAN_TypeDef *)1073767424B].FFA1R
 360:.\stlib\STM32F10x_StdPeriph_Driver\src/stm32f10x_can.c ****   }
 361:.\stlib\STM32F10x_StdPeriph_Driver\src/stm32f10x_can.c **** 
 362:.\stlib\STM32F10x_StdPeriph_Driver\src/stm32f10x_can.c ****   if (CAN_FilterInitStruct->CAN_FilterFIFOAssignment == CAN_Filter_FIFO1)
 556              		.loc 1 362 3 is_stmt 1 view .LVU160
 557              	.L42:
 363:.\stlib\STM32F10x_StdPeriph_Driver\src/stm32f10x_can.c ****   {
 364:.\stlib\STM32F10x_StdPeriph_Driver\src/stm32f10x_can.c ****     /* FIFO 1 assignation for the filter */
 365:.\stlib\STM32F10x_StdPeriph_Driver\src/stm32f10x_can.c ****     CAN1->FFA1R |= (uint32_t)filter_number_bit_pos;
 366:.\stlib\STM32F10x_StdPeriph_Driver\src/stm32f10x_can.c ****   }
 367:.\stlib\STM32F10x_StdPeriph_Driver\src/stm32f10x_can.c ****   
 368:.\stlib\STM32F10x_StdPeriph_Driver\src/stm32f10x_can.c ****   /* Filter activation */
 369:.\stlib\STM32F10x_StdPeriph_Driver\src/stm32f10x_can.c ****   if (CAN_FilterInitStruct->CAN_FilterActivation == ENABLE)
 558              		.loc 1 369 3 view .LVU161
 559              	@ .\stlib\STM32F10x_StdPeriph_Driver\src\stm32f10x_can.c:369:   if (CAN_FilterInitStruct->CAN_Filte
 560              		.loc 1 369 6 is_stmt 0 view .LVU162
 561 017c 437B     		ldrb	r3, [r0, #13]	@ zero_extendqisi2	@ CAN_FilterInitStruct_59(D)->CAN_FilterActivation, CAN_Filt
 562 017e 012B     		cmp	r3, #1	@ CAN_FilterInitStruct_59(D)->CAN_FilterActivation,
 563 0180 174B     		ldr	r3, .L46	@ tmp209,
 370:.\stlib\STM32F10x_StdPeriph_Driver\src/stm32f10x_can.c ****   {
 371:.\stlib\STM32F10x_StdPeriph_Driver\src/stm32f10x_can.c ****     CAN1->FA1R |= filter_number_bit_pos;
 564              		.loc 1 371 5 is_stmt 1 view .LVU163
 565              	@ .\stlib\STM32F10x_StdPeriph_Driver\src\stm32f10x_can.c:371:     CAN1->FA1R |= filter_number_bit_p
 566              		.loc 1 371 16 is_stmt 0 view .LVU164
 567 0182 02BF     		ittt	eq
 568 0184 D3F81C22 		ldreq	r2, [r3, #540]	@ _48, MEM[(struct CAN_TypeDef *)1073767424B].FA1R
 569 0188 1143     		orreq	r1, r1, r2	@ _49, filter_number_bit_pos, _48
 570              	.LVL19:
 571              		.loc 1 371 16 view .LVU165
 572 018a C3F81C12 		streq	r1, [r3, #540]	@ _49, MEM[(struct CAN_TypeDef *)1073767424B].FA1R
 372:.\stlib\STM32F10x_StdPeriph_Driver\src/stm32f10x_can.c ****   }
 373:.\stlib\STM32F10x_StdPeriph_Driver\src/stm32f10x_can.c **** 
 374:.\stlib\STM32F10x_StdPeriph_Driver\src/stm32f10x_can.c ****   /* Leave the initialisation mode for the filter */
 375:.\stlib\STM32F10x_StdPeriph_Driver\src/stm32f10x_can.c ****   CAN1->FMR &= ~FMR_FINIT;
 573              		.loc 1 375 3 is_stmt 1 view .LVU166
ARM GAS  C:\Users\skey\AppData\Local\Temp\ccv9NfrL.s 			page 18


 574              	@ .\stlib\STM32F10x_StdPeriph_Driver\src\stm32f10x_can.c:375:   CAN1->FMR &= ~FMR_FINIT;
 575              		.loc 1 375 13 is_stmt 0 view .LVU167
 576 018e D3F80022 		ldr	r2, [r3, #512]	@ _50, MEM[(struct CAN_TypeDef *)1073767424B].FMR
 577 0192 22F00102 		bic	r2, r2, #1	@ _51, _50,
 578 0196 C3F80022 		str	r2, [r3, #512]	@ _51, MEM[(struct CAN_TypeDef *)1073767424B].FMR
 579              	@ .\stlib\STM32F10x_StdPeriph_Driver\src\stm32f10x_can.c:376: }
 376:.\stlib\STM32F10x_StdPeriph_Driver\src/stm32f10x_can.c **** }
 580              		.loc 1 376 1 view .LVU168
 581 019a 30BD     		pop	{r4, r5, pc}	@
 582              	.LVL20:
 583              	.L37:
 329:.\stlib\STM32F10x_StdPeriph_Driver\src/stm32f10x_can.c ****   {
 584              		.loc 1 329 3 is_stmt 1 view .LVU169
 585              	@ .\stlib\STM32F10x_StdPeriph_Driver\src\stm32f10x_can.c:329:   if (CAN_FilterInitStruct->CAN_Filte
 329:.\stlib\STM32F10x_StdPeriph_Driver\src/stm32f10x_can.c ****   {
 586              		.loc 1 329 6 is_stmt 0 view .LVU170
 587 019c 012D     		cmp	r5, #1	@ _8,
 588 019e DED1     		bne	.L38		@,
 332:.\stlib\STM32F10x_StdPeriph_Driver\src/stm32f10x_can.c ****     /* 32-bit identifier or First 32-bit identifier */
 589              		.loc 1 332 5 is_stmt 1 view .LVU171
 590              	@ .\stlib\STM32F10x_StdPeriph_Driver\src\stm32f10x_can.c:332:     CAN1->FS1R |= filter_number_bit_p
 332:.\stlib\STM32F10x_StdPeriph_Driver\src/stm32f10x_can.c ****     /* 32-bit identifier or First 32-bit identifier */
 591              		.loc 1 332 16 is_stmt 0 view .LVU172
 592 01a0 D2F80C52 		ldr	r5, [r2, #524]	@ _23, MEM[(struct CAN_TypeDef *)1073767424B].FS1R
 593 01a4 DB00     		lsls	r3, r3, #3	@ tmp189, _1,
 594 01a6 0D43     		orrs	r5, r5, r1	@, _24, _23, filter_number_bit_pos
 595 01a8 C2F80C52 		str	r5, [r2, #524]	@ _24, MEM[(struct CAN_TypeDef *)1073767424B].FS1R
 334:.\stlib\STM32F10x_StdPeriph_Driver\src/stm32f10x_can.c ****     ((0x0000FFFF & (uint32_t)CAN_FilterInitStruct->CAN_FilterIdHigh) << 16) |
 596              		.loc 1 334 5 is_stmt 1 view .LVU173
 597              	@ .\stlib\STM32F10x_StdPeriph_Driver\src\stm32f10x_can.c:335:     ((0x0000FFFF & (uint32_t)CAN_Filt
 335:.\stlib\STM32F10x_StdPeriph_Driver\src/stm32f10x_can.c ****         (0x0000FFFF & (uint32_t)CAN_FilterInitStruct->CAN_FilterIdLow);
 598              		.loc 1 335 18 is_stmt 0 view .LVU174
 599 01ac 0588     		ldrh	r5, [r0]	@ CAN_FilterInitStruct_59(D)->CAN_FilterIdHigh, CAN_FilterInitStruct_59(D)->CAN_Filt
 600              	@ .\stlib\STM32F10x_StdPeriph_Driver\src\stm32f10x_can.c:336:         (0x0000FFFF & (uint32_t)CAN_F
 336:.\stlib\STM32F10x_StdPeriph_Driver\src/stm32f10x_can.c ****     /* 32-bit mask or Second 32-bit identifier */
 601              		.loc 1 336 21 view .LVU175
 602 01ae 4288     		ldrh	r2, [r0, #2]	@ CAN_FilterInitStruct_59(D)->CAN_FilterIdLow, CAN_FilterInitStruct_59(D)->CAN_F
 603 01b0 03F18043 		add	r3, r3, #1073741824	@ _82, tmp189,
 604              	@ .\stlib\STM32F10x_StdPeriph_Driver\src\stm32f10x_can.c:335:     ((0x0000FFFF & (uint32_t)CAN_Filt
 335:.\stlib\STM32F10x_StdPeriph_Driver\src/stm32f10x_can.c ****         (0x0000FFFF & (uint32_t)CAN_FilterInitStruct->CAN_FilterIdLow);
 605              		.loc 1 335 77 view .LVU176
 606 01b4 42EA0542 		orr	r2, r2, r5, lsl #16	@ _30, CAN_FilterInitStruct_59(D)->CAN_FilterIdLow, CAN_FilterInitStruct_5
 607 01b8 03F5C843 		add	r3, r3, #25600	@ _82, _82,
 608              	@ .\stlib\STM32F10x_StdPeriph_Driver\src\stm32f10x_can.c:334:     CAN1->sFilterRegister[CAN_FilterI
 334:.\stlib\STM32F10x_StdPeriph_Driver\src/stm32f10x_can.c ****     ((0x0000FFFF & (uint32_t)CAN_FilterInitStruct->CAN_FilterIdHigh) << 16) |
 609              		.loc 1 334 71 view .LVU177
 610 01bc C3F84022 		str	r2, [r3, #576]	@ _30, MEM[(struct CAN_TypeDef *)_82 + 576B]
 338:.\stlib\STM32F10x_StdPeriph_Driver\src/stm32f10x_can.c ****     ((0x0000FFFF & (uint32_t)CAN_FilterInitStruct->CAN_FilterMaskIdHigh) << 16) |
 611              		.loc 1 338 5 is_stmt 1 view .LVU178
 612              	@ .\stlib\STM32F10x_StdPeriph_Driver\src\stm32f10x_can.c:339:     ((0x0000FFFF & (uint32_t)CAN_Filt
 339:.\stlib\STM32F10x_StdPeriph_Driver\src/stm32f10x_can.c ****         (0x0000FFFF & (uint32_t)CAN_FilterInitStruct->CAN_FilterMaskIdLow);
 613              		.loc 1 339 18 is_stmt 0 view .LVU179
 614 01c0 8588     		ldrh	r5, [r0, #4]	@ CAN_FilterInitStruct_59(D)->CAN_FilterMaskIdHigh, CAN_FilterInitStruct_59(D)->
 615              	@ .\stlib\STM32F10x_StdPeriph_Driver\src\stm32f10x_can.c:340:         (0x0000FFFF & (uint32_t)CAN_F
 340:.\stlib\STM32F10x_StdPeriph_Driver\src/stm32f10x_can.c ****   }
 616              		.loc 1 340 21 view .LVU180
 617 01c2 C288     		ldrh	r2, [r0, #6]	@ CAN_FilterInitStruct_59(D)->CAN_FilterMaskIdLow, CAN_FilterInitStruct_59(D)->C
ARM GAS  C:\Users\skey\AppData\Local\Temp\ccv9NfrL.s 			page 19


 618 01c4 C7E7     		b	.L44		@
 619              	.L39:
 352:.\stlib\STM32F10x_StdPeriph_Driver\src/stm32f10x_can.c ****   }
 620              		.loc 1 352 5 is_stmt 1 view .LVU181
 621              	@ .\stlib\STM32F10x_StdPeriph_Driver\src\stm32f10x_can.c:352:     CAN1->FM1R |= (uint32_t)filter_nu
 352:.\stlib\STM32F10x_StdPeriph_Driver\src/stm32f10x_can.c ****   }
 622              		.loc 1 352 16 is_stmt 0 view .LVU182
 623 01c6 D3F80422 		ldr	r2, [r3, #516]	@ _40,
 624 01ca 0A43     		orrs	r2, r2, r1	@, _41, _40, filter_number_bit_pos
 625 01cc CDE7     		b	.L45		@
 626              	.L41:
 362:.\stlib\STM32F10x_StdPeriph_Driver\src/stm32f10x_can.c ****   {
 627              		.loc 1 362 3 is_stmt 1 view .LVU183
 628              	@ .\stlib\STM32F10x_StdPeriph_Driver\src\stm32f10x_can.c:362:   if (CAN_FilterInitStruct->CAN_Filte
 362:.\stlib\STM32F10x_StdPeriph_Driver\src/stm32f10x_can.c ****   {
 629              		.loc 1 362 6 is_stmt 0 view .LVU184
 630 01ce 012A     		cmp	r2, #1	@ _42,
 365:.\stlib\STM32F10x_StdPeriph_Driver\src/stm32f10x_can.c ****   }
 631              		.loc 1 365 5 is_stmt 1 view .LVU185
 632              	@ .\stlib\STM32F10x_StdPeriph_Driver\src\stm32f10x_can.c:365:     CAN1->FFA1R |= (uint32_t)filter_n
 365:.\stlib\STM32F10x_StdPeriph_Driver\src/stm32f10x_can.c ****   }
 633              		.loc 1 365 17 is_stmt 0 view .LVU186
 634 01d0 01BF     		itttt	eq
 635 01d2 034A     		ldreq	r2, .L46	@ tmp201,
 636 01d4 D2F81432 		ldreq	r3, [r2, #532]	@ _45, MEM[(struct CAN_TypeDef *)1073767424B].FFA1R
 637 01d8 0B43     		orreq	r3, r3, r1	@ _46, _45, filter_number_bit_pos
 638 01da C2F81432 		streq	r3, [r2, #532]	@ _46, MEM[(struct CAN_TypeDef *)1073767424B].FFA1R
 639 01de CDE7     		b	.L42		@
 640              	.L47:
 641              		.align	2
 642              	.L46:
 643 01e0 00640040 		.word	1073767424
 644              		.cfi_endproc
 645              	.LFE31:
 646              		.size	CAN_FilterInit, .-CAN_FilterInit
 647              		.align	1
 648              		.global	CAN_StructInit
 649              		.syntax unified
 650              		.thumb
 651              		.thumb_func
 652              		.fpu softvfp
 653              		.type	CAN_StructInit, %function
 654              	CAN_StructInit:
 655              	.LVL21:
 656              	.LFB32:
 377:.\stlib\STM32F10x_StdPeriph_Driver\src/stm32f10x_can.c **** 
 378:.\stlib\STM32F10x_StdPeriph_Driver\src/stm32f10x_can.c **** /**
 379:.\stlib\STM32F10x_StdPeriph_Driver\src/stm32f10x_can.c ****   * @brief  Fills each CAN_InitStruct member with its default value.
 380:.\stlib\STM32F10x_StdPeriph_Driver\src/stm32f10x_can.c ****   * @param  CAN_InitStruct: pointer to a CAN_InitTypeDef structure which
 381:.\stlib\STM32F10x_StdPeriph_Driver\src/stm32f10x_can.c ****   *                         will be initialized.
 382:.\stlib\STM32F10x_StdPeriph_Driver\src/stm32f10x_can.c ****   * @retval None.
 383:.\stlib\STM32F10x_StdPeriph_Driver\src/stm32f10x_can.c ****   */
 384:.\stlib\STM32F10x_StdPeriph_Driver\src/stm32f10x_can.c **** void CAN_StructInit(CAN_InitTypeDef* CAN_InitStruct)
 385:.\stlib\STM32F10x_StdPeriph_Driver\src/stm32f10x_can.c **** {
 657              		.loc 1 385 1 is_stmt 1 view -0
 658              		.cfi_startproc
 659              		@ args = 0, pretend = 0, frame = 0
ARM GAS  C:\Users\skey\AppData\Local\Temp\ccv9NfrL.s 			page 20


 660              		@ frame_needed = 0, uses_anonymous_args = 0
 661              		@ link register save eliminated.
 386:.\stlib\STM32F10x_StdPeriph_Driver\src/stm32f10x_can.c ****   /* Reset CAN init structure parameters values */
 387:.\stlib\STM32F10x_StdPeriph_Driver\src/stm32f10x_can.c ****   
 388:.\stlib\STM32F10x_StdPeriph_Driver\src/stm32f10x_can.c ****   /* Initialize the time triggered communication mode */
 389:.\stlib\STM32F10x_StdPeriph_Driver\src/stm32f10x_can.c ****   CAN_InitStruct->CAN_TTCM = DISABLE;
 662              		.loc 1 389 3 view .LVU188
 390:.\stlib\STM32F10x_StdPeriph_Driver\src/stm32f10x_can.c ****   
 391:.\stlib\STM32F10x_StdPeriph_Driver\src/stm32f10x_can.c ****   /* Initialize the automatic bus-off management */
 392:.\stlib\STM32F10x_StdPeriph_Driver\src/stm32f10x_can.c ****   CAN_InitStruct->CAN_ABOM = DISABLE;
 663              		.loc 1 392 3 view .LVU189
 393:.\stlib\STM32F10x_StdPeriph_Driver\src/stm32f10x_can.c ****   
 394:.\stlib\STM32F10x_StdPeriph_Driver\src/stm32f10x_can.c ****   /* Initialize the automatic wake-up mode */
 395:.\stlib\STM32F10x_StdPeriph_Driver\src/stm32f10x_can.c ****   CAN_InitStruct->CAN_AWUM = DISABLE;
 664              		.loc 1 395 3 view .LVU190
 396:.\stlib\STM32F10x_StdPeriph_Driver\src/stm32f10x_can.c ****   
 397:.\stlib\STM32F10x_StdPeriph_Driver\src/stm32f10x_can.c ****   /* Initialize the no automatic retransmission */
 398:.\stlib\STM32F10x_StdPeriph_Driver\src/stm32f10x_can.c ****   CAN_InitStruct->CAN_NART = DISABLE;
 665              		.loc 1 398 3 view .LVU191
 399:.\stlib\STM32F10x_StdPeriph_Driver\src/stm32f10x_can.c ****   
 400:.\stlib\STM32F10x_StdPeriph_Driver\src/stm32f10x_can.c ****   /* Initialize the receive FIFO locked mode */
 401:.\stlib\STM32F10x_StdPeriph_Driver\src/stm32f10x_can.c ****   CAN_InitStruct->CAN_RFLM = DISABLE;
 666              		.loc 1 401 3 view .LVU192
 402:.\stlib\STM32F10x_StdPeriph_Driver\src/stm32f10x_can.c ****   
 403:.\stlib\STM32F10x_StdPeriph_Driver\src/stm32f10x_can.c ****   /* Initialize the transmit FIFO priority */
 404:.\stlib\STM32F10x_StdPeriph_Driver\src/stm32f10x_can.c ****   CAN_InitStruct->CAN_TXFP = DISABLE;
 667              		.loc 1 404 3 view .LVU193
 405:.\stlib\STM32F10x_StdPeriph_Driver\src/stm32f10x_can.c ****   
 406:.\stlib\STM32F10x_StdPeriph_Driver\src/stm32f10x_can.c ****   /* Initialize the CAN_Mode member */
 407:.\stlib\STM32F10x_StdPeriph_Driver\src/stm32f10x_can.c ****   CAN_InitStruct->CAN_Mode = CAN_Mode_Normal;
 668              		.loc 1 407 3 view .LVU194
 408:.\stlib\STM32F10x_StdPeriph_Driver\src/stm32f10x_can.c ****   
 409:.\stlib\STM32F10x_StdPeriph_Driver\src/stm32f10x_can.c ****   /* Initialize the CAN_SJW member */
 410:.\stlib\STM32F10x_StdPeriph_Driver\src/stm32f10x_can.c ****   CAN_InitStruct->CAN_SJW = CAN_SJW_1tq;
 669              		.loc 1 410 3 view .LVU195
 411:.\stlib\STM32F10x_StdPeriph_Driver\src/stm32f10x_can.c ****   
 412:.\stlib\STM32F10x_StdPeriph_Driver\src/stm32f10x_can.c ****   /* Initialize the CAN_BS1 member */
 413:.\stlib\STM32F10x_StdPeriph_Driver\src/stm32f10x_can.c ****   CAN_InitStruct->CAN_BS1 = CAN_BS1_4tq;
 670              		.loc 1 413 3 view .LVU196
 414:.\stlib\STM32F10x_StdPeriph_Driver\src/stm32f10x_can.c ****   
 415:.\stlib\STM32F10x_StdPeriph_Driver\src/stm32f10x_can.c ****   /* Initialize the CAN_BS2 member */
 416:.\stlib\STM32F10x_StdPeriph_Driver\src/stm32f10x_can.c ****   CAN_InitStruct->CAN_BS2 = CAN_BS2_3tq;
 671              		.loc 1 416 3 view .LVU197
 417:.\stlib\STM32F10x_StdPeriph_Driver\src/stm32f10x_can.c ****   
 418:.\stlib\STM32F10x_StdPeriph_Driver\src/stm32f10x_can.c ****   /* Initialize the CAN_Prescaler member */
 419:.\stlib\STM32F10x_StdPeriph_Driver\src/stm32f10x_can.c ****   CAN_InitStruct->CAN_Prescaler = 1;
 672              		.loc 1 419 3 view .LVU198
 673              	@ .\stlib\STM32F10x_StdPeriph_Driver\src\stm32f10x_can.c:419:   CAN_InitStruct->CAN_Prescaler = 1;
 674              		.loc 1 419 33 is_stmt 0 view .LVU199
 675 01e4 0123     		movs	r3, #1	@ tmp112,
 676              	@ .\stlib\STM32F10x_StdPeriph_Driver\src\stm32f10x_can.c:413:   CAN_InitStruct->CAN_BS1 = CAN_BS1_4
 413:.\stlib\STM32F10x_StdPeriph_Driver\src/stm32f10x_can.c ****   
 677              		.loc 1 413 27 view .LVU200
 678 01e6 40F20322 		movw	r2, #515	@ tmp116,
 679              	@ .\stlib\STM32F10x_StdPeriph_Driver\src\stm32f10x_can.c:419:   CAN_InitStruct->CAN_Prescaler = 1;
 680              		.loc 1 419 33 view .LVU201
 681 01ea 0380     		strh	r3, [r0]	@ movhi	@ tmp112, CAN_InitStruct_2(D)->CAN_Prescaler
ARM GAS  C:\Users\skey\AppData\Local\Temp\ccv9NfrL.s 			page 21


 682              	@ .\stlib\STM32F10x_StdPeriph_Driver\src\stm32f10x_can.c:407:   CAN_InitStruct->CAN_Mode = CAN_Mode
 407:.\stlib\STM32F10x_StdPeriph_Driver\src/stm32f10x_can.c ****   
 683              		.loc 1 407 28 view .LVU202
 684 01ec 0023     		movs	r3, #0	@ tmp114,
 685              	@ .\stlib\STM32F10x_StdPeriph_Driver\src\stm32f10x_can.c:413:   CAN_InitStruct->CAN_BS1 = CAN_BS1_4
 413:.\stlib\STM32F10x_StdPeriph_Driver\src/stm32f10x_can.c ****   
 686              		.loc 1 413 27 view .LVU203
 687 01ee 8280     		strh	r2, [r0, #4]	@ movhi	@ tmp116, MEM[(unsigned char *)CAN_InitStruct_2(D) + 4B]
 688              	@ .\stlib\STM32F10x_StdPeriph_Driver\src\stm32f10x_can.c:407:   CAN_InitStruct->CAN_Mode = CAN_Mode
 407:.\stlib\STM32F10x_StdPeriph_Driver\src/stm32f10x_can.c ****   
 689              		.loc 1 407 28 view .LVU204
 690 01f0 4380     		strh	r3, [r0, #2]	@ movhi	@ tmp114, MEM[(unsigned char *)CAN_InitStruct_2(D) + 2B]
 691              	@ .\stlib\STM32F10x_StdPeriph_Driver\src\stm32f10x_can.c:389:   CAN_InitStruct->CAN_TTCM = DISABLE;
 389:.\stlib\STM32F10x_StdPeriph_Driver\src/stm32f10x_can.c ****   
 692              		.loc 1 389 28 view .LVU205
 693 01f2 C380     		strh	r3, [r0, #6]	@ movhi	@ tmp114, MEM[(<unnamed type> *)CAN_InitStruct_2(D) + 6B]
 694              	@ .\stlib\STM32F10x_StdPeriph_Driver\src\stm32f10x_can.c:395:   CAN_InitStruct->CAN_AWUM = DISABLE;
 395:.\stlib\STM32F10x_StdPeriph_Driver\src/stm32f10x_can.c ****   
 695              		.loc 1 395 28 view .LVU206
 696 01f4 0381     		strh	r3, [r0, #8]	@ movhi	@ tmp114, MEM[(<unnamed type> *)CAN_InitStruct_2(D) + 8B]
 697              	@ .\stlib\STM32F10x_StdPeriph_Driver\src\stm32f10x_can.c:401:   CAN_InitStruct->CAN_RFLM = DISABLE;
 401:.\stlib\STM32F10x_StdPeriph_Driver\src/stm32f10x_can.c ****   
 698              		.loc 1 401 28 view .LVU207
 699 01f6 4381     		strh	r3, [r0, #10]	@ movhi	@ tmp114, MEM[(<unnamed type> *)CAN_InitStruct_2(D) + 10B]
 700              	@ .\stlib\STM32F10x_StdPeriph_Driver\src\stm32f10x_can.c:420: }
 420:.\stlib\STM32F10x_StdPeriph_Driver\src/stm32f10x_can.c **** }
 701              		.loc 1 420 1 view .LVU208
 702 01f8 7047     		bx	lr	@
 703              		.cfi_endproc
 704              	.LFE32:
 705              		.size	CAN_StructInit, .-CAN_StructInit
 706              		.align	1
 707              		.global	CAN_SlaveStartBank
 708              		.syntax unified
 709              		.thumb
 710              		.thumb_func
 711              		.fpu softvfp
 712              		.type	CAN_SlaveStartBank, %function
 713              	CAN_SlaveStartBank:
 714              	.LVL22:
 715              	.LFB33:
 421:.\stlib\STM32F10x_StdPeriph_Driver\src/stm32f10x_can.c **** 
 422:.\stlib\STM32F10x_StdPeriph_Driver\src/stm32f10x_can.c **** /**
 423:.\stlib\STM32F10x_StdPeriph_Driver\src/stm32f10x_can.c ****   * @brief  Select the start bank filter for slave CAN.
 424:.\stlib\STM32F10x_StdPeriph_Driver\src/stm32f10x_can.c ****   * @note   This function applies only to STM32 Connectivity line devices.
 425:.\stlib\STM32F10x_StdPeriph_Driver\src/stm32f10x_can.c ****   * @param  CAN_BankNumber: Select the start slave bank filter from 1..27.
 426:.\stlib\STM32F10x_StdPeriph_Driver\src/stm32f10x_can.c ****   * @retval None.
 427:.\stlib\STM32F10x_StdPeriph_Driver\src/stm32f10x_can.c ****   */
 428:.\stlib\STM32F10x_StdPeriph_Driver\src/stm32f10x_can.c **** void CAN_SlaveStartBank(uint8_t CAN_BankNumber) 
 429:.\stlib\STM32F10x_StdPeriph_Driver\src/stm32f10x_can.c **** {
 716              		.loc 1 429 1 is_stmt 1 view -0
 717              		.cfi_startproc
 718              		@ args = 0, pretend = 0, frame = 0
 719              		@ frame_needed = 0, uses_anonymous_args = 0
 720              		@ link register save eliminated.
 430:.\stlib\STM32F10x_StdPeriph_Driver\src/stm32f10x_can.c ****   /* Check the parameters */
 431:.\stlib\STM32F10x_StdPeriph_Driver\src/stm32f10x_can.c ****   assert_param(IS_CAN_BANKNUMBER(CAN_BankNumber));
ARM GAS  C:\Users\skey\AppData\Local\Temp\ccv9NfrL.s 			page 22


 721              		.loc 1 431 3 view .LVU210
 432:.\stlib\STM32F10x_StdPeriph_Driver\src/stm32f10x_can.c ****   
 433:.\stlib\STM32F10x_StdPeriph_Driver\src/stm32f10x_can.c ****   /* Enter Initialisation mode for the filter */
 434:.\stlib\STM32F10x_StdPeriph_Driver\src/stm32f10x_can.c ****   CAN1->FMR |= FMR_FINIT;
 722              		.loc 1 434 3 view .LVU211
 723              	@ .\stlib\STM32F10x_StdPeriph_Driver\src\stm32f10x_can.c:434:   CAN1->FMR |= FMR_FINIT;
 724              		.loc 1 434 13 is_stmt 0 view .LVU212
 725 01fa 0E4B     		ldr	r3, .L50	@ tmp121,
 726 01fc D3F80012 		ldr	r1, [r3, #512]	@ _1, MEM[(struct CAN_TypeDef *)1073767424B].FMR
 727 0200 41F00101 		orr	r1, r1, #1	@ _2, _1,
 728 0204 C3F80012 		str	r1, [r3, #512]	@ _2, MEM[(struct CAN_TypeDef *)1073767424B].FMR
 435:.\stlib\STM32F10x_StdPeriph_Driver\src/stm32f10x_can.c ****   
 436:.\stlib\STM32F10x_StdPeriph_Driver\src/stm32f10x_can.c ****   /* Select the start slave bank */
 437:.\stlib\STM32F10x_StdPeriph_Driver\src/stm32f10x_can.c ****   CAN1->FMR &= (uint32_t)0xFFFFC0F1 ;
 729              		.loc 1 437 3 is_stmt 1 view .LVU213
 730              	@ .\stlib\STM32F10x_StdPeriph_Driver\src\stm32f10x_can.c:437:   CAN1->FMR &= (uint32_t)0xFFFFC0F1 ;
 731              		.loc 1 437 13 is_stmt 0 view .LVU214
 732 0208 D3F80022 		ldr	r2, [r3, #512]	@ _3, MEM[(struct CAN_TypeDef *)1073767424B].FMR
 733 020c 22F47C52 		bic	r2, r2, #16128	@ _4, _3,
 734 0210 22F00E02 		bic	r2, r2, #14	@ _4, _4,
 735 0214 C3F80022 		str	r2, [r3, #512]	@ _4, MEM[(struct CAN_TypeDef *)1073767424B].FMR
 438:.\stlib\STM32F10x_StdPeriph_Driver\src/stm32f10x_can.c ****   CAN1->FMR |= (uint32_t)(CAN_BankNumber)<<8;
 736              		.loc 1 438 3 is_stmt 1 view .LVU215
 737              	@ .\stlib\STM32F10x_StdPeriph_Driver\src\stm32f10x_can.c:438:   CAN1->FMR |= (uint32_t)(CAN_BankNum
 738              		.loc 1 438 13 is_stmt 0 view .LVU216
 739 0218 D3F80022 		ldr	r2, [r3, #512]	@ _5, MEM[(struct CAN_TypeDef *)1073767424B].FMR
 740 021c 42EA0022 		orr	r2, r2, r0, lsl #8	@ _8, _5, tmp131,
 741 0220 C3F80022 		str	r2, [r3, #512]	@ _8, MEM[(struct CAN_TypeDef *)1073767424B].FMR
 439:.\stlib\STM32F10x_StdPeriph_Driver\src/stm32f10x_can.c ****   
 440:.\stlib\STM32F10x_StdPeriph_Driver\src/stm32f10x_can.c ****   /* Leave Initialisation mode for the filter */
 441:.\stlib\STM32F10x_StdPeriph_Driver\src/stm32f10x_can.c ****   CAN1->FMR &= ~FMR_FINIT;
 742              		.loc 1 441 3 is_stmt 1 view .LVU217
 743              	@ .\stlib\STM32F10x_StdPeriph_Driver\src\stm32f10x_can.c:441:   CAN1->FMR &= ~FMR_FINIT;
 744              		.loc 1 441 13 is_stmt 0 view .LVU218
 745 0224 D3F80022 		ldr	r2, [r3, #512]	@ _9, MEM[(struct CAN_TypeDef *)1073767424B].FMR
 746 0228 22F00102 		bic	r2, r2, #1	@ _10, _9,
 747 022c C3F80022 		str	r2, [r3, #512]	@ _10, MEM[(struct CAN_TypeDef *)1073767424B].FMR
 748              	@ .\stlib\STM32F10x_StdPeriph_Driver\src\stm32f10x_can.c:442: }
 442:.\stlib\STM32F10x_StdPeriph_Driver\src/stm32f10x_can.c **** }
 749              		.loc 1 442 1 view .LVU219
 750 0230 7047     		bx	lr	@
 751              	.L51:
 752 0232 00BF     		.align	2
 753              	.L50:
 754 0234 00640040 		.word	1073767424
 755              		.cfi_endproc
 756              	.LFE33:
 757              		.size	CAN_SlaveStartBank, .-CAN_SlaveStartBank
 758              		.align	1
 759              		.global	CAN_DBGFreeze
 760              		.syntax unified
 761              		.thumb
 762              		.thumb_func
 763              		.fpu softvfp
 764              		.type	CAN_DBGFreeze, %function
 765              	CAN_DBGFreeze:
 766              	.LVL23:
ARM GAS  C:\Users\skey\AppData\Local\Temp\ccv9NfrL.s 			page 23


 767              	.LFB34:
 443:.\stlib\STM32F10x_StdPeriph_Driver\src/stm32f10x_can.c **** 
 444:.\stlib\STM32F10x_StdPeriph_Driver\src/stm32f10x_can.c **** /**
 445:.\stlib\STM32F10x_StdPeriph_Driver\src/stm32f10x_can.c ****   * @brief  Enables or disables the DBG Freeze for CAN.
 446:.\stlib\STM32F10x_StdPeriph_Driver\src/stm32f10x_can.c ****   * @param  CANx:     where x can be 1 or 2 to to select the CAN peripheral.
 447:.\stlib\STM32F10x_StdPeriph_Driver\src/stm32f10x_can.c ****   * @param  NewState: new state of the CAN peripheral. This parameter can 
 448:.\stlib\STM32F10x_StdPeriph_Driver\src/stm32f10x_can.c ****   *                   be: ENABLE or DISABLE.
 449:.\stlib\STM32F10x_StdPeriph_Driver\src/stm32f10x_can.c ****   * @retval None.
 450:.\stlib\STM32F10x_StdPeriph_Driver\src/stm32f10x_can.c ****   */
 451:.\stlib\STM32F10x_StdPeriph_Driver\src/stm32f10x_can.c **** void CAN_DBGFreeze(CAN_TypeDef* CANx, FunctionalState NewState)
 452:.\stlib\STM32F10x_StdPeriph_Driver\src/stm32f10x_can.c **** {
 768              		.loc 1 452 1 is_stmt 1 view -0
 769              		.cfi_startproc
 770              		@ args = 0, pretend = 0, frame = 0
 771              		@ frame_needed = 0, uses_anonymous_args = 0
 772              		@ link register save eliminated.
 453:.\stlib\STM32F10x_StdPeriph_Driver\src/stm32f10x_can.c ****   /* Check the parameters */
 454:.\stlib\STM32F10x_StdPeriph_Driver\src/stm32f10x_can.c ****   assert_param(IS_CAN_ALL_PERIPH(CANx));
 773              		.loc 1 454 3 view .LVU221
 455:.\stlib\STM32F10x_StdPeriph_Driver\src/stm32f10x_can.c ****   assert_param(IS_FUNCTIONAL_STATE(NewState));
 774              		.loc 1 455 3 view .LVU222
 456:.\stlib\STM32F10x_StdPeriph_Driver\src/stm32f10x_can.c ****   
 457:.\stlib\STM32F10x_StdPeriph_Driver\src/stm32f10x_can.c ****   if (NewState != DISABLE)
 775              		.loc 1 457 3 view .LVU223
 776              	@ .\stlib\STM32F10x_StdPeriph_Driver\src\stm32f10x_can.c:460:     CANx->MCR |= MCR_DBF;
 458:.\stlib\STM32F10x_StdPeriph_Driver\src/stm32f10x_can.c ****   {
 459:.\stlib\STM32F10x_StdPeriph_Driver\src/stm32f10x_can.c ****     /* Enable Debug Freeze  */
 460:.\stlib\STM32F10x_StdPeriph_Driver\src/stm32f10x_can.c ****     CANx->MCR |= MCR_DBF;
 777              		.loc 1 460 15 is_stmt 0 view .LVU224
 778 0238 0368     		ldr	r3, [r0]	@ _1,* CANx
 779              	@ .\stlib\STM32F10x_StdPeriph_Driver\src\stm32f10x_can.c:457:   if (NewState != DISABLE)
 457:.\stlib\STM32F10x_StdPeriph_Driver\src/stm32f10x_can.c ****   {
 780              		.loc 1 457 6 view .LVU225
 781 023a 19B1     		cbz	r1, .L53	@ tmp117,
 782              		.loc 1 460 5 is_stmt 1 view .LVU226
 783              	@ .\stlib\STM32F10x_StdPeriph_Driver\src\stm32f10x_can.c:460:     CANx->MCR |= MCR_DBF;
 784              		.loc 1 460 15 is_stmt 0 view .LVU227
 785 023c 43F48033 		orr	r3, r3, #65536	@ _2, _1,
 786              	.L55:
 787              	@ .\stlib\STM32F10x_StdPeriph_Driver\src\stm32f10x_can.c:465:     CANx->MCR &= ~MCR_DBF;
 461:.\stlib\STM32F10x_StdPeriph_Driver\src/stm32f10x_can.c ****   }
 462:.\stlib\STM32F10x_StdPeriph_Driver\src/stm32f10x_can.c ****   else
 463:.\stlib\STM32F10x_StdPeriph_Driver\src/stm32f10x_can.c ****   {
 464:.\stlib\STM32F10x_StdPeriph_Driver\src/stm32f10x_can.c ****     /* Disable Debug Freeze */
 465:.\stlib\STM32F10x_StdPeriph_Driver\src/stm32f10x_can.c ****     CANx->MCR &= ~MCR_DBF;
 788              		.loc 1 465 15 view .LVU228
 789 0240 0360     		str	r3, [r0]	@ _4,* CANx
 790              	@ .\stlib\STM32F10x_StdPeriph_Driver\src\stm32f10x_can.c:467: }
 466:.\stlib\STM32F10x_StdPeriph_Driver\src/stm32f10x_can.c ****   }
 467:.\stlib\STM32F10x_StdPeriph_Driver\src/stm32f10x_can.c **** }
 791              		.loc 1 467 1 view .LVU229
 792 0242 7047     		bx	lr	@
 793              	.L53:
 465:.\stlib\STM32F10x_StdPeriph_Driver\src/stm32f10x_can.c ****   }
 794              		.loc 1 465 5 is_stmt 1 view .LVU230
 795              	@ .\stlib\STM32F10x_StdPeriph_Driver\src\stm32f10x_can.c:465:     CANx->MCR &= ~MCR_DBF;
 465:.\stlib\STM32F10x_StdPeriph_Driver\src/stm32f10x_can.c ****   }
ARM GAS  C:\Users\skey\AppData\Local\Temp\ccv9NfrL.s 			page 24


 796              		.loc 1 465 15 is_stmt 0 view .LVU231
 797 0244 23F48033 		bic	r3, r3, #65536	@ _4, _3,
 798 0248 FAE7     		b	.L55		@
 799              		.cfi_endproc
 800              	.LFE34:
 801              		.size	CAN_DBGFreeze, .-CAN_DBGFreeze
 802              		.align	1
 803              		.global	CAN_TTComModeCmd
 804              		.syntax unified
 805              		.thumb
 806              		.thumb_func
 807              		.fpu softvfp
 808              		.type	CAN_TTComModeCmd, %function
 809              	CAN_TTComModeCmd:
 810              	.LVL24:
 811              	.LFB35:
 468:.\stlib\STM32F10x_StdPeriph_Driver\src/stm32f10x_can.c **** 
 469:.\stlib\STM32F10x_StdPeriph_Driver\src/stm32f10x_can.c **** 
 470:.\stlib\STM32F10x_StdPeriph_Driver\src/stm32f10x_can.c **** /**
 471:.\stlib\STM32F10x_StdPeriph_Driver\src/stm32f10x_can.c ****   * @brief  Enables or disabes the CAN Time TriggerOperation communication mode.
 472:.\stlib\STM32F10x_StdPeriph_Driver\src/stm32f10x_can.c ****   * @param  CANx:      where x can be 1 or 2 to to select the CAN peripheral.
 473:.\stlib\STM32F10x_StdPeriph_Driver\src/stm32f10x_can.c ****   * @param  NewState : Mode new state , can be one of @ref FunctionalState.
 474:.\stlib\STM32F10x_StdPeriph_Driver\src/stm32f10x_can.c ****   * @note   when enabled, Time stamp (TIME[15:0]) value is sent in the last 
 475:.\stlib\STM32F10x_StdPeriph_Driver\src/stm32f10x_can.c ****   *         two data bytes of the 8-byte message: TIME[7:0] in data byte 6 
 476:.\stlib\STM32F10x_StdPeriph_Driver\src/stm32f10x_can.c ****   *         and TIME[15:8] in data byte 7 
 477:.\stlib\STM32F10x_StdPeriph_Driver\src/stm32f10x_can.c ****   * @note   DLC must be programmed as 8 in order Time Stamp (2 bytes) to be 
 478:.\stlib\STM32F10x_StdPeriph_Driver\src/stm32f10x_can.c ****   *         sent over the CAN bus.  
 479:.\stlib\STM32F10x_StdPeriph_Driver\src/stm32f10x_can.c ****   * @retval None
 480:.\stlib\STM32F10x_StdPeriph_Driver\src/stm32f10x_can.c ****   */
 481:.\stlib\STM32F10x_StdPeriph_Driver\src/stm32f10x_can.c **** void CAN_TTComModeCmd(CAN_TypeDef* CANx, FunctionalState NewState)
 482:.\stlib\STM32F10x_StdPeriph_Driver\src/stm32f10x_can.c **** {
 812              		.loc 1 482 1 is_stmt 1 view -0
 813              		.cfi_startproc
 814              		@ args = 0, pretend = 0, frame = 0
 815              		@ frame_needed = 0, uses_anonymous_args = 0
 816              		@ link register save eliminated.
 483:.\stlib\STM32F10x_StdPeriph_Driver\src/stm32f10x_can.c ****   /* Check the parameters */
 484:.\stlib\STM32F10x_StdPeriph_Driver\src/stm32f10x_can.c ****   assert_param(IS_CAN_ALL_PERIPH(CANx));
 817              		.loc 1 484 3 view .LVU233
 485:.\stlib\STM32F10x_StdPeriph_Driver\src/stm32f10x_can.c ****   assert_param(IS_FUNCTIONAL_STATE(NewState));
 818              		.loc 1 485 3 view .LVU234
 486:.\stlib\STM32F10x_StdPeriph_Driver\src/stm32f10x_can.c ****   if (NewState != DISABLE)
 819              		.loc 1 486 3 view .LVU235
 820              	@ .\stlib\STM32F10x_StdPeriph_Driver\src\stm32f10x_can.c:489:     CANx->MCR |= CAN_MCR_TTCM;
 487:.\stlib\STM32F10x_StdPeriph_Driver\src/stm32f10x_can.c ****   {
 488:.\stlib\STM32F10x_StdPeriph_Driver\src/stm32f10x_can.c ****     /* Enable the TTCM mode */
 489:.\stlib\STM32F10x_StdPeriph_Driver\src/stm32f10x_can.c ****     CANx->MCR |= CAN_MCR_TTCM;
 821              		.loc 1 489 15 is_stmt 0 view .LVU236
 822 024a 0368     		ldr	r3, [r0]	@ _1,* CANx
 823              	@ .\stlib\STM32F10x_StdPeriph_Driver\src\stm32f10x_can.c:486:   if (NewState != DISABLE)
 486:.\stlib\STM32F10x_StdPeriph_Driver\src/stm32f10x_can.c ****   if (NewState != DISABLE)
 824              		.loc 1 486 6 view .LVU237
 825 024c A9B1     		cbz	r1, .L57	@ tmp129,
 826              		.loc 1 489 5 is_stmt 1 view .LVU238
 827              	@ .\stlib\STM32F10x_StdPeriph_Driver\src\stm32f10x_can.c:489:     CANx->MCR |= CAN_MCR_TTCM;
 828              		.loc 1 489 15 is_stmt 0 view .LVU239
 829 024e 43F08003 		orr	r3, r3, #128	@ _2, _1,
ARM GAS  C:\Users\skey\AppData\Local\Temp\ccv9NfrL.s 			page 25


 830 0252 0360     		str	r3, [r0]	@ _2, CANx_20(D)->MCR
 490:.\stlib\STM32F10x_StdPeriph_Driver\src/stm32f10x_can.c **** 
 491:.\stlib\STM32F10x_StdPeriph_Driver\src/stm32f10x_can.c ****     /* Set TGT bits */
 492:.\stlib\STM32F10x_StdPeriph_Driver\src/stm32f10x_can.c ****     CANx->sTxMailBox[0].TDTR |= ((uint32_t)CAN_TDT0R_TGT);
 831              		.loc 1 492 5 is_stmt 1 view .LVU240
 832              	@ .\stlib\STM32F10x_StdPeriph_Driver\src\stm32f10x_can.c:492:     CANx->sTxMailBox[0].TDTR |= ((uin
 833              		.loc 1 492 30 is_stmt 0 view .LVU241
 834 0254 D0F88431 		ldr	r3, [r0, #388]	@ _3, CANx_20(D)->sTxMailBox[0].TDTR
 835 0258 43F48073 		orr	r3, r3, #256	@ _4, _3,
 836 025c C0F88431 		str	r3, [r0, #388]	@ _4, CANx_20(D)->sTxMailBox[0].TDTR
 493:.\stlib\STM32F10x_StdPeriph_Driver\src/stm32f10x_can.c ****     CANx->sTxMailBox[1].TDTR |= ((uint32_t)CAN_TDT1R_TGT);
 837              		.loc 1 493 5 is_stmt 1 view .LVU242
 838              	@ .\stlib\STM32F10x_StdPeriph_Driver\src\stm32f10x_can.c:493:     CANx->sTxMailBox[1].TDTR |= ((uin
 839              		.loc 1 493 30 is_stmt 0 view .LVU243
 840 0260 D0F89431 		ldr	r3, [r0, #404]	@ _5, CANx_20(D)->sTxMailBox[1].TDTR
 841 0264 43F48073 		orr	r3, r3, #256	@ _6, _5,
 842 0268 C0F89431 		str	r3, [r0, #404]	@ _6, CANx_20(D)->sTxMailBox[1].TDTR
 494:.\stlib\STM32F10x_StdPeriph_Driver\src/stm32f10x_can.c ****     CANx->sTxMailBox[2].TDTR |= ((uint32_t)CAN_TDT2R_TGT);
 843              		.loc 1 494 5 is_stmt 1 view .LVU244
 844              	@ .\stlib\STM32F10x_StdPeriph_Driver\src\stm32f10x_can.c:494:     CANx->sTxMailBox[2].TDTR |= ((uin
 845              		.loc 1 494 30 is_stmt 0 view .LVU245
 846 026c D0F8A431 		ldr	r3, [r0, #420]	@ _7, CANx_20(D)->sTxMailBox[2].TDTR
 847 0270 43F48073 		orr	r3, r3, #256	@ _8, _7,
 848              	.L59:
 849              	@ .\stlib\STM32F10x_StdPeriph_Driver\src\stm32f10x_can.c:504:     CANx->sTxMailBox[2].TDTR &= ((uin
 495:.\stlib\STM32F10x_StdPeriph_Driver\src/stm32f10x_can.c ****   }
 496:.\stlib\STM32F10x_StdPeriph_Driver\src/stm32f10x_can.c ****   else
 497:.\stlib\STM32F10x_StdPeriph_Driver\src/stm32f10x_can.c ****   {
 498:.\stlib\STM32F10x_StdPeriph_Driver\src/stm32f10x_can.c ****     /* Disable the TTCM mode */
 499:.\stlib\STM32F10x_StdPeriph_Driver\src/stm32f10x_can.c ****     CANx->MCR &= (uint32_t)(~(uint32_t)CAN_MCR_TTCM);
 500:.\stlib\STM32F10x_StdPeriph_Driver\src/stm32f10x_can.c **** 
 501:.\stlib\STM32F10x_StdPeriph_Driver\src/stm32f10x_can.c ****     /* Reset TGT bits */
 502:.\stlib\STM32F10x_StdPeriph_Driver\src/stm32f10x_can.c ****     CANx->sTxMailBox[0].TDTR &= ((uint32_t)~CAN_TDT0R_TGT);
 503:.\stlib\STM32F10x_StdPeriph_Driver\src/stm32f10x_can.c ****     CANx->sTxMailBox[1].TDTR &= ((uint32_t)~CAN_TDT1R_TGT);
 504:.\stlib\STM32F10x_StdPeriph_Driver\src/stm32f10x_can.c ****     CANx->sTxMailBox[2].TDTR &= ((uint32_t)~CAN_TDT2R_TGT);
 850              		.loc 1 504 30 view .LVU246
 851 0274 C0F8A431 		str	r3, [r0, #420]	@ _16,
 852              	@ .\stlib\STM32F10x_StdPeriph_Driver\src\stm32f10x_can.c:506: }
 505:.\stlib\STM32F10x_StdPeriph_Driver\src/stm32f10x_can.c ****   }
 506:.\stlib\STM32F10x_StdPeriph_Driver\src/stm32f10x_can.c **** }
 853              		.loc 1 506 1 view .LVU247
 854 0278 7047     		bx	lr	@
 855              	.L57:
 499:.\stlib\STM32F10x_StdPeriph_Driver\src/stm32f10x_can.c **** 
 856              		.loc 1 499 5 is_stmt 1 view .LVU248
 857              	@ .\stlib\STM32F10x_StdPeriph_Driver\src\stm32f10x_can.c:499:     CANx->MCR &= (uint32_t)(~(uint32_
 499:.\stlib\STM32F10x_StdPeriph_Driver\src/stm32f10x_can.c **** 
 858              		.loc 1 499 15 is_stmt 0 view .LVU249
 859 027a 23F08003 		bic	r3, r3, #128	@ _10, _9,
 860 027e 0360     		str	r3, [r0]	@ _10, CANx_20(D)->MCR
 502:.\stlib\STM32F10x_StdPeriph_Driver\src/stm32f10x_can.c ****     CANx->sTxMailBox[1].TDTR &= ((uint32_t)~CAN_TDT1R_TGT);
 861              		.loc 1 502 5 is_stmt 1 view .LVU250
 862              	@ .\stlib\STM32F10x_StdPeriph_Driver\src\stm32f10x_can.c:502:     CANx->sTxMailBox[0].TDTR &= ((uin
 502:.\stlib\STM32F10x_StdPeriph_Driver\src/stm32f10x_can.c ****     CANx->sTxMailBox[1].TDTR &= ((uint32_t)~CAN_TDT1R_TGT);
 863              		.loc 1 502 30 is_stmt 0 view .LVU251
 864 0280 D0F88431 		ldr	r3, [r0, #388]	@ _11, CANx_20(D)->sTxMailBox[0].TDTR
 865 0284 23F48073 		bic	r3, r3, #256	@ _12, _11,
ARM GAS  C:\Users\skey\AppData\Local\Temp\ccv9NfrL.s 			page 26


 866 0288 C0F88431 		str	r3, [r0, #388]	@ _12, CANx_20(D)->sTxMailBox[0].TDTR
 503:.\stlib\STM32F10x_StdPeriph_Driver\src/stm32f10x_can.c ****     CANx->sTxMailBox[2].TDTR &= ((uint32_t)~CAN_TDT2R_TGT);
 867              		.loc 1 503 5 is_stmt 1 view .LVU252
 868              	@ .\stlib\STM32F10x_StdPeriph_Driver\src\stm32f10x_can.c:503:     CANx->sTxMailBox[1].TDTR &= ((uin
 503:.\stlib\STM32F10x_StdPeriph_Driver\src/stm32f10x_can.c ****     CANx->sTxMailBox[2].TDTR &= ((uint32_t)~CAN_TDT2R_TGT);
 869              		.loc 1 503 30 is_stmt 0 view .LVU253
 870 028c D0F89431 		ldr	r3, [r0, #404]	@ _13, CANx_20(D)->sTxMailBox[1].TDTR
 871 0290 23F48073 		bic	r3, r3, #256	@ _14, _13,
 872 0294 C0F89431 		str	r3, [r0, #404]	@ _14, CANx_20(D)->sTxMailBox[1].TDTR
 504:.\stlib\STM32F10x_StdPeriph_Driver\src/stm32f10x_can.c ****   }
 873              		.loc 1 504 5 is_stmt 1 view .LVU254
 874              	@ .\stlib\STM32F10x_StdPeriph_Driver\src\stm32f10x_can.c:504:     CANx->sTxMailBox[2].TDTR &= ((uin
 504:.\stlib\STM32F10x_StdPeriph_Driver\src/stm32f10x_can.c ****   }
 875              		.loc 1 504 30 is_stmt 0 view .LVU255
 876 0298 D0F8A431 		ldr	r3, [r0, #420]	@ _15, CANx_20(D)->sTxMailBox[2].TDTR
 877 029c 23F48073 		bic	r3, r3, #256	@ _16, _15,
 878 02a0 E8E7     		b	.L59		@
 879              		.cfi_endproc
 880              	.LFE35:
 881              		.size	CAN_TTComModeCmd, .-CAN_TTComModeCmd
 882              		.align	1
 883              		.global	CAN_Transmit
 884              		.syntax unified
 885              		.thumb
 886              		.thumb_func
 887              		.fpu softvfp
 888              		.type	CAN_Transmit, %function
 889              	CAN_Transmit:
 890              	.LVL25:
 891              	.LFB36:
 507:.\stlib\STM32F10x_StdPeriph_Driver\src/stm32f10x_can.c **** /**
 508:.\stlib\STM32F10x_StdPeriph_Driver\src/stm32f10x_can.c ****   * @brief  Initiates the transmission of a message.
 509:.\stlib\STM32F10x_StdPeriph_Driver\src/stm32f10x_can.c ****   * @param  CANx:      where x can be 1 or 2 to to select the CAN peripheral.
 510:.\stlib\STM32F10x_StdPeriph_Driver\src/stm32f10x_can.c ****   * @param  TxMessage: pointer to a structure which contains CAN Id, CAN
 511:.\stlib\STM32F10x_StdPeriph_Driver\src/stm32f10x_can.c ****   *                    DLC and CAN data.
 512:.\stlib\STM32F10x_StdPeriph_Driver\src/stm32f10x_can.c ****   * @retval The number of the mailbox that is used for transmission
 513:.\stlib\STM32F10x_StdPeriph_Driver\src/stm32f10x_can.c ****   *                    or CAN_TxStatus_NoMailBox if there is no empty mailbox.
 514:.\stlib\STM32F10x_StdPeriph_Driver\src/stm32f10x_can.c ****   */
 515:.\stlib\STM32F10x_StdPeriph_Driver\src/stm32f10x_can.c **** uint8_t CAN_Transmit(CAN_TypeDef* CANx, CanTxMsg* TxMessage)
 516:.\stlib\STM32F10x_StdPeriph_Driver\src/stm32f10x_can.c **** {
 892              		.loc 1 516 1 is_stmt 1 view -0
 893              		.cfi_startproc
 894              		@ args = 0, pretend = 0, frame = 0
 895              		@ frame_needed = 0, uses_anonymous_args = 0
 517:.\stlib\STM32F10x_StdPeriph_Driver\src/stm32f10x_can.c ****   uint8_t transmit_mailbox = 0;
 896              		.loc 1 517 3 view .LVU257
 518:.\stlib\STM32F10x_StdPeriph_Driver\src/stm32f10x_can.c ****   /* Check the parameters */
 519:.\stlib\STM32F10x_StdPeriph_Driver\src/stm32f10x_can.c ****   assert_param(IS_CAN_ALL_PERIPH(CANx));
 897              		.loc 1 519 3 view .LVU258
 520:.\stlib\STM32F10x_StdPeriph_Driver\src/stm32f10x_can.c ****   assert_param(IS_CAN_IDTYPE(TxMessage->IDE));
 898              		.loc 1 520 3 view .LVU259
 521:.\stlib\STM32F10x_StdPeriph_Driver\src/stm32f10x_can.c ****   assert_param(IS_CAN_RTR(TxMessage->RTR));
 899              		.loc 1 521 3 view .LVU260
 522:.\stlib\STM32F10x_StdPeriph_Driver\src/stm32f10x_can.c ****   assert_param(IS_CAN_DLC(TxMessage->DLC));
 900              		.loc 1 522 3 view .LVU261
 523:.\stlib\STM32F10x_StdPeriph_Driver\src/stm32f10x_can.c **** 
 524:.\stlib\STM32F10x_StdPeriph_Driver\src/stm32f10x_can.c ****   /* Select one empty transmit mailbox */
ARM GAS  C:\Users\skey\AppData\Local\Temp\ccv9NfrL.s 			page 27


 525:.\stlib\STM32F10x_StdPeriph_Driver\src/stm32f10x_can.c ****   if ((CANx->TSR&CAN_TSR_TME0) == CAN_TSR_TME0)
 901              		.loc 1 525 3 view .LVU262
 902              	@ .\stlib\STM32F10x_StdPeriph_Driver\src\stm32f10x_can.c:525:   if ((CANx->TSR&CAN_TSR_TME0) == CAN
 903              		.loc 1 525 12 is_stmt 0 view .LVU263
 904 02a2 8368     		ldr	r3, [r0, #8]	@ _1, CANx_67(D)->TSR
 905              	@ .\stlib\STM32F10x_StdPeriph_Driver\src\stm32f10x_can.c:516: {
 516:.\stlib\STM32F10x_StdPeriph_Driver\src/stm32f10x_can.c ****   uint8_t transmit_mailbox = 0;
 906              		.loc 1 516 1 view .LVU264
 907 02a4 F0B5     		push	{r4, r5, r6, r7, lr}	@
 908              	.LCFI4:
 909              		.cfi_def_cfa_offset 20
 910              		.cfi_offset 4, -20
 911              		.cfi_offset 5, -16
 912              		.cfi_offset 6, -12
 913              		.cfi_offset 7, -8
 914              		.cfi_offset 14, -4
 915              	@ .\stlib\STM32F10x_StdPeriph_Driver\src\stm32f10x_can.c:516: {
 516:.\stlib\STM32F10x_StdPeriph_Driver\src/stm32f10x_can.c ****   uint8_t transmit_mailbox = 0;
 916              		.loc 1 516 1 view .LVU265
 917 02a6 0446     		mov	r4, r0	@ CANx, tmp176
 918              	@ .\stlib\STM32F10x_StdPeriph_Driver\src\stm32f10x_can.c:525:   if ((CANx->TSR&CAN_TSR_TME0) == CAN
 919              		.loc 1 525 6 view .LVU266
 920 02a8 5801     		lsls	r0, r3, #5	@, _1,
 921              	.LVL26:
 922              		.loc 1 525 6 view .LVU267
 923 02aa 3AD4     		bmi	.L65		@,
 526:.\stlib\STM32F10x_StdPeriph_Driver\src/stm32f10x_can.c ****   {
 527:.\stlib\STM32F10x_StdPeriph_Driver\src/stm32f10x_can.c ****     transmit_mailbox = 0;
 528:.\stlib\STM32F10x_StdPeriph_Driver\src/stm32f10x_can.c ****   }
 529:.\stlib\STM32F10x_StdPeriph_Driver\src/stm32f10x_can.c ****   else if ((CANx->TSR&CAN_TSR_TME1) == CAN_TSR_TME1)
 924              		.loc 1 529 8 is_stmt 1 view .LVU268
 925              	@ .\stlib\STM32F10x_StdPeriph_Driver\src\stm32f10x_can.c:529:   else if ((CANx->TSR&CAN_TSR_TME1) =
 926              		.loc 1 529 17 is_stmt 0 view .LVU269
 927 02ac A368     		ldr	r3, [r4, #8]	@ _3, CANx_67(D)->TSR
 928              	@ .\stlib\STM32F10x_StdPeriph_Driver\src\stm32f10x_can.c:529:   else if ((CANx->TSR&CAN_TSR_TME1) =
 929              		.loc 1 529 11 view .LVU270
 930 02ae 1A01     		lsls	r2, r3, #4	@, _3,
 931 02b0 39D4     		bmi	.L66		@,
 530:.\stlib\STM32F10x_StdPeriph_Driver\src/stm32f10x_can.c ****   {
 531:.\stlib\STM32F10x_StdPeriph_Driver\src/stm32f10x_can.c ****     transmit_mailbox = 1;
 532:.\stlib\STM32F10x_StdPeriph_Driver\src/stm32f10x_can.c ****   }
 533:.\stlib\STM32F10x_StdPeriph_Driver\src/stm32f10x_can.c ****   else if ((CANx->TSR&CAN_TSR_TME2) == CAN_TSR_TME2)
 932              		.loc 1 533 8 is_stmt 1 view .LVU271
 933              	@ .\stlib\STM32F10x_StdPeriph_Driver\src\stm32f10x_can.c:533:   else if ((CANx->TSR&CAN_TSR_TME2) =
 934              		.loc 1 533 17 is_stmt 0 view .LVU272
 935 02b2 A368     		ldr	r3, [r4, #8]	@ _5, CANx_67(D)->TSR
 936              	@ .\stlib\STM32F10x_StdPeriph_Driver\src\stm32f10x_can.c:533:   else if ((CANx->TSR&CAN_TSR_TME2) =
 937              		.loc 1 533 11 view .LVU273
 938 02b4 DB00     		lsls	r3, r3, #3	@, _5,
 939 02b6 40D5     		bpl	.L67		@,
 940              	@ .\stlib\STM32F10x_StdPeriph_Driver\src\stm32f10x_can.c:535:     transmit_mailbox = 2;
 534:.\stlib\STM32F10x_StdPeriph_Driver\src/stm32f10x_can.c ****   {
 535:.\stlib\STM32F10x_StdPeriph_Driver\src/stm32f10x_can.c ****     transmit_mailbox = 2;
 941              		.loc 1 535 22 view .LVU274
 942 02b8 0220     		movs	r0, #2	@ <retval>,
 943              	.L61:
 944              	.LVL27:
ARM GAS  C:\Users\skey\AppData\Local\Temp\ccv9NfrL.s 			page 28


 536:.\stlib\STM32F10x_StdPeriph_Driver\src/stm32f10x_can.c ****   }
 537:.\stlib\STM32F10x_StdPeriph_Driver\src/stm32f10x_can.c ****   else
 538:.\stlib\STM32F10x_StdPeriph_Driver\src/stm32f10x_can.c ****   {
 539:.\stlib\STM32F10x_StdPeriph_Driver\src/stm32f10x_can.c ****     transmit_mailbox = CAN_TxStatus_NoMailBox;
 540:.\stlib\STM32F10x_StdPeriph_Driver\src/stm32f10x_can.c ****   }
 541:.\stlib\STM32F10x_StdPeriph_Driver\src/stm32f10x_can.c **** 
 542:.\stlib\STM32F10x_StdPeriph_Driver\src/stm32f10x_can.c ****   if (transmit_mailbox != CAN_TxStatus_NoMailBox)
 543:.\stlib\STM32F10x_StdPeriph_Driver\src/stm32f10x_can.c ****   {
 544:.\stlib\STM32F10x_StdPeriph_Driver\src/stm32f10x_can.c ****     /* Set up the Id */
 545:.\stlib\STM32F10x_StdPeriph_Driver\src/stm32f10x_can.c ****     CANx->sTxMailBox[transmit_mailbox].TIR &= TMIDxR_TXRQ;
 945              		.loc 1 545 5 is_stmt 1 view .LVU275
 946 02ba 04EB0013 		add	r3, r4, r0, lsl #4	@ _36, CANx, <retval>,
 947              	@ .\stlib\STM32F10x_StdPeriph_Driver\src\stm32f10x_can.c:545:     CANx->sTxMailBox[transmit_mailbox
 948              		.loc 1 545 44 is_stmt 0 view .LVU276
 949 02be D3F88021 		ldr	r2, [r3, #384]	@ _8, MEM[(struct CAN_TypeDef *)_36 + 384B]
 950 02c2 4FEA001C 		lsl	ip, r0, #4	@ tmp154, <retval>,
 951 02c6 02F00102 		and	r2, r2, #1	@ _9, _8,
 952 02ca C3F88021 		str	r2, [r3, #384]	@ _9, MEM[(struct CAN_TypeDef *)_36 + 384B]
 546:.\stlib\STM32F10x_StdPeriph_Driver\src/stm32f10x_can.c ****     if (TxMessage->IDE == CAN_Id_Standard)
 953              		.loc 1 546 5 is_stmt 1 view .LVU277
 954              	@ .\stlib\STM32F10x_StdPeriph_Driver\src\stm32f10x_can.c:546:     if (TxMessage->IDE == CAN_Id_Stan
 955              		.loc 1 546 18 is_stmt 0 view .LVU278
 956 02ce 0E7A     		ldrb	r6, [r1, #8]	@ zero_extendqisi2	@ _10, TxMessage_70(D)->IDE
 957 02d0 4A7A     		ldrb	r2, [r1, #9]	@ zero_extendqisi2	@ _58, TxMessage_70(D)->RTR
 958              	@ .\stlib\STM32F10x_StdPeriph_Driver\src\stm32f10x_can.c:546:     if (TxMessage->IDE == CAN_Id_Stan
 959              		.loc 1 546 8 view .LVU279
 960 02d2 56BB     		cbnz	r6, .L63	@ _10,
 547:.\stlib\STM32F10x_StdPeriph_Driver\src/stm32f10x_can.c ****     {
 548:.\stlib\STM32F10x_StdPeriph_Driver\src/stm32f10x_can.c ****       assert_param(IS_CAN_STDID(TxMessage->StdId));  
 961              		.loc 1 548 7 is_stmt 1 view .LVU280
 549:.\stlib\STM32F10x_StdPeriph_Driver\src/stm32f10x_can.c ****       CANx->sTxMailBox[transmit_mailbox].TIR |= ((TxMessage->StdId << 21) | \
 962              		.loc 1 549 7 view .LVU281
 963              	@ .\stlib\STM32F10x_StdPeriph_Driver\src\stm32f10x_can.c:549:       CANx->sTxMailBox[transmit_mailb
 964              		.loc 1 549 68 is_stmt 0 view .LVU282
 965 02d4 0F68     		ldr	r7, [r1]	@ TxMessage_70(D)->StdId, TxMessage_70(D)->StdId
 966              	@ .\stlib\STM32F10x_StdPeriph_Driver\src\stm32f10x_can.c:549:       CANx->sTxMailBox[transmit_mailb
 967              		.loc 1 549 46 view .LVU283
 968 02d6 D3F88061 		ldr	r6, [r3, #384]	@ _11, MEM[(struct CAN_TypeDef *)_36 + 384B]
 969              	@ .\stlib\STM32F10x_StdPeriph_Driver\src\stm32f10x_can.c:549:       CANx->sTxMailBox[transmit_mailb
 970              		.loc 1 549 75 view .LVU284
 971 02da 42EA4752 		orr	r2, r2, r7, lsl #21	@ tmp157, _58, TxMessage_70(D)->StdId,
 972              	@ .\stlib\STM32F10x_StdPeriph_Driver\src\stm32f10x_can.c:549:       CANx->sTxMailBox[transmit_mailb
 973              		.loc 1 549 46 view .LVU285
 974 02de 3243     		orrs	r2, r2, r6	@, _17, tmp157, _11
 975              	.L68:
 976              	@ .\stlib\STM32F10x_StdPeriph_Driver\src\stm32f10x_can.c:555:       CANx->sTxMailBox[transmit_mailb
 550:.\stlib\STM32F10x_StdPeriph_Driver\src/stm32f10x_can.c ****                                                   TxMessage->RTR);
 551:.\stlib\STM32F10x_StdPeriph_Driver\src/stm32f10x_can.c ****     }
 552:.\stlib\STM32F10x_StdPeriph_Driver\src/stm32f10x_can.c ****     else
 553:.\stlib\STM32F10x_StdPeriph_Driver\src/stm32f10x_can.c ****     {
 554:.\stlib\STM32F10x_StdPeriph_Driver\src/stm32f10x_can.c ****       assert_param(IS_CAN_EXTID(TxMessage->ExtId));
 555:.\stlib\STM32F10x_StdPeriph_Driver\src/stm32f10x_can.c ****       CANx->sTxMailBox[transmit_mailbox].TIR |= ((TxMessage->ExtId << 3) | \
 977              		.loc 1 555 46 view .LVU286
 978 02e0 C3F88021 		str	r2, [r3, #384]	@ _26,
 556:.\stlib\STM32F10x_StdPeriph_Driver\src/stm32f10x_can.c ****                                                   TxMessage->IDE | \
 557:.\stlib\STM32F10x_StdPeriph_Driver\src/stm32f10x_can.c ****                                                   TxMessage->RTR);
 558:.\stlib\STM32F10x_StdPeriph_Driver\src/stm32f10x_can.c ****     }
ARM GAS  C:\Users\skey\AppData\Local\Temp\ccv9NfrL.s 			page 29


 559:.\stlib\STM32F10x_StdPeriph_Driver\src/stm32f10x_can.c ****     
 560:.\stlib\STM32F10x_StdPeriph_Driver\src/stm32f10x_can.c ****     /* Set up the DLC */
 561:.\stlib\STM32F10x_StdPeriph_Driver\src/stm32f10x_can.c ****     TxMessage->DLC &= (uint8_t)0x0000000F;
 979              		.loc 1 561 5 is_stmt 1 view .LVU287
 980              	@ .\stlib\STM32F10x_StdPeriph_Driver\src\stm32f10x_can.c:561:     TxMessage->DLC &= (uint8_t)0x0000
 981              		.loc 1 561 20 is_stmt 0 view .LVU288
 982 02e4 8A7A     		ldrb	r2, [r1, #10]	@ zero_extendqisi2	@ TxMessage_70(D)->DLC, TxMessage_70(D)->DLC
 983              	@ .\stlib\STM32F10x_StdPeriph_Driver\src\stm32f10x_can.c:566:     CANx->sTxMailBox[transmit_mailbox
 562:.\stlib\STM32F10x_StdPeriph_Driver\src/stm32f10x_can.c ****     CANx->sTxMailBox[transmit_mailbox].TDTR &= (uint32_t)0xFFFFFFF0;
 563:.\stlib\STM32F10x_StdPeriph_Driver\src/stm32f10x_can.c ****     CANx->sTxMailBox[transmit_mailbox].TDTR |= TxMessage->DLC;
 564:.\stlib\STM32F10x_StdPeriph_Driver\src/stm32f10x_can.c **** 
 565:.\stlib\STM32F10x_StdPeriph_Driver\src/stm32f10x_can.c ****     /* Set up the data field */
 566:.\stlib\STM32F10x_StdPeriph_Driver\src/stm32f10x_can.c ****     CANx->sTxMailBox[transmit_mailbox].TDLR = (((uint32_t)TxMessage->Data[3] << 24) | 
 984              		.loc 1 566 45 view .LVU289
 985 02e6 6444     		add	r4, r4, ip	@ tmp168, tmp154
 986              	.LVL28:
 987              	@ .\stlib\STM32F10x_StdPeriph_Driver\src\stm32f10x_can.c:561:     TxMessage->DLC &= (uint8_t)0x0000
 561:.\stlib\STM32F10x_StdPeriph_Driver\src/stm32f10x_can.c ****     CANx->sTxMailBox[transmit_mailbox].TDTR &= (uint32_t)0xFFFFFFF0;
 988              		.loc 1 561 20 view .LVU290
 989 02e8 02F00F02 		and	r2, r2, #15	@ _28, TxMessage_70(D)->DLC,
 990 02ec 8A72     		strb	r2, [r1, #10]	@ _28, TxMessage_70(D)->DLC
 562:.\stlib\STM32F10x_StdPeriph_Driver\src/stm32f10x_can.c ****     CANx->sTxMailBox[transmit_mailbox].TDTR &= (uint32_t)0xFFFFFFF0;
 991              		.loc 1 562 5 is_stmt 1 view .LVU291
 992              	@ .\stlib\STM32F10x_StdPeriph_Driver\src\stm32f10x_can.c:562:     CANx->sTxMailBox[transmit_mailbox
 562:.\stlib\STM32F10x_StdPeriph_Driver\src/stm32f10x_can.c ****     CANx->sTxMailBox[transmit_mailbox].TDTR &= (uint32_t)0xFFFFFFF0;
 993              		.loc 1 562 45 is_stmt 0 view .LVU292
 994 02ee D3F88461 		ldr	r6, [r3, #388]	@ _29, MEM[(struct CAN_TypeDef *)_36 + 388B]
 995 02f2 26F00F06 		bic	r6, r6, #15	@ _30, _29,
 996 02f6 C3F88461 		str	r6, [r3, #388]	@ _30, MEM[(struct CAN_TypeDef *)_36 + 388B]
 563:.\stlib\STM32F10x_StdPeriph_Driver\src/stm32f10x_can.c **** 
 997              		.loc 1 563 5 is_stmt 1 view .LVU293
 998              	@ .\stlib\STM32F10x_StdPeriph_Driver\src\stm32f10x_can.c:563:     CANx->sTxMailBox[transmit_mailbox
 563:.\stlib\STM32F10x_StdPeriph_Driver\src/stm32f10x_can.c **** 
 999              		.loc 1 563 45 is_stmt 0 view .LVU294
 1000 02fa D3F88461 		ldr	r6, [r3, #388]	@ _31, MEM[(struct CAN_TypeDef *)_36 + 388B]
 1001 02fe 3243     		orrs	r2, r2, r6	@, _33, _28, _31
 1002 0300 C3F88421 		str	r2, [r3, #388]	@ _33, MEM[(struct CAN_TypeDef *)_36 + 388B]
 1003              		.loc 1 566 5 is_stmt 1 view .LVU295
 1004              	@ .\stlib\STM32F10x_StdPeriph_Driver\src\stm32f10x_can.c:568:                                      
 567:.\stlib\STM32F10x_StdPeriph_Driver\src/stm32f10x_can.c ****                                              ((uint32_t)TxMessage->Data[2] << 16) |
 568:.\stlib\STM32F10x_StdPeriph_Driver\src/stm32f10x_can.c ****                                              ((uint32_t)TxMessage->Data[1] << 8) | 
 1005              		.loc 1 568 82 is_stmt 0 view .LVU296
 1006 0304 D1F80B20 		ldr	r2, [r1, #11]	@ unaligned	@ tmp166, MEM[(unsigned char *)TxMessage_70(D) + 11B]
 1007              	@ .\stlib\STM32F10x_StdPeriph_Driver\src\stm32f10x_can.c:566:     CANx->sTxMailBox[transmit_mailbox
 566:.\stlib\STM32F10x_StdPeriph_Driver\src/stm32f10x_can.c ****                                              ((uint32_t)TxMessage->Data[2] << 16) |
 1008              		.loc 1 566 45 view .LVU297
 1009 0308 C4F88821 		str	r2, [r4, #392]	@ tmp166, CANx_67(D)->sTxMailBox[_7].TDLR
 569:.\stlib\STM32F10x_StdPeriph_Driver\src/stm32f10x_can.c ****                                              ((uint32_t)TxMessage->Data[0]));
 570:.\stlib\STM32F10x_StdPeriph_Driver\src/stm32f10x_can.c ****     CANx->sTxMailBox[transmit_mailbox].TDHR = (((uint32_t)TxMessage->Data[7] << 24) | 
 1010              		.loc 1 570 5 is_stmt 1 view .LVU298
 1011              	@ .\stlib\STM32F10x_StdPeriph_Driver\src\stm32f10x_can.c:572:                                      
 571:.\stlib\STM32F10x_StdPeriph_Driver\src/stm32f10x_can.c ****                                              ((uint32_t)TxMessage->Data[6] << 16) |
 572:.\stlib\STM32F10x_StdPeriph_Driver\src/stm32f10x_can.c ****                                              ((uint32_t)TxMessage->Data[5] << 8) |
 1012              		.loc 1 572 82 is_stmt 0 view .LVU299
 1013 030c D1F80F20 		ldr	r2, [r1, #15]	@ unaligned	@ tmp170, MEM[(unsigned char *)TxMessage_70(D) + 15B]
 1014              	@ .\stlib\STM32F10x_StdPeriph_Driver\src\stm32f10x_can.c:570:     CANx->sTxMailBox[transmit_mailbox
 570:.\stlib\STM32F10x_StdPeriph_Driver\src/stm32f10x_can.c ****                                              ((uint32_t)TxMessage->Data[6] << 16) |
ARM GAS  C:\Users\skey\AppData\Local\Temp\ccv9NfrL.s 			page 30


 1015              		.loc 1 570 45 view .LVU300
 1016 0310 C4F88C21 		str	r2, [r4, #396]	@ tmp170, CANx_67(D)->sTxMailBox[_7].TDHR
 573:.\stlib\STM32F10x_StdPeriph_Driver\src/stm32f10x_can.c ****                                              ((uint32_t)TxMessage->Data[4]));
 574:.\stlib\STM32F10x_StdPeriph_Driver\src/stm32f10x_can.c ****     /* Request transmission */
 575:.\stlib\STM32F10x_StdPeriph_Driver\src/stm32f10x_can.c ****     CANx->sTxMailBox[transmit_mailbox].TIR |= TMIDxR_TXRQ;
 1017              		.loc 1 575 5 is_stmt 1 view .LVU301
 1018              	@ .\stlib\STM32F10x_StdPeriph_Driver\src\stm32f10x_can.c:575:     CANx->sTxMailBox[transmit_mailbox
 1019              		.loc 1 575 44 is_stmt 0 view .LVU302
 1020 0314 D3F88021 		ldr	r2, [r3, #384]	@ _62, MEM[(struct CAN_TypeDef *)_36 + 384B]
 1021 0318 42F00102 		orr	r2, r2, #1	@ _63, _62,
 1022 031c C3F88021 		str	r2, [r3, #384]	@ _63, MEM[(struct CAN_TypeDef *)_36 + 384B]
 1023              	.L62:
 576:.\stlib\STM32F10x_StdPeriph_Driver\src/stm32f10x_can.c ****   }
 577:.\stlib\STM32F10x_StdPeriph_Driver\src/stm32f10x_can.c ****   return transmit_mailbox;
 1024              		.loc 1 577 3 is_stmt 1 view .LVU303
 1025              	@ .\stlib\STM32F10x_StdPeriph_Driver\src\stm32f10x_can.c:578: }
 578:.\stlib\STM32F10x_StdPeriph_Driver\src/stm32f10x_can.c **** }
 1026              		.loc 1 578 1 is_stmt 0 view .LVU304
 1027 0320 F0BD     		pop	{r4, r5, r6, r7, pc}	@
 1028              	.LVL29:
 1029              	.L65:
 1030              	@ .\stlib\STM32F10x_StdPeriph_Driver\src\stm32f10x_can.c:527:     transmit_mailbox = 0;
 527:.\stlib\STM32F10x_StdPeriph_Driver\src/stm32f10x_can.c ****   }
 1031              		.loc 1 527 22 view .LVU305
 1032 0322 0020     		movs	r0, #0	@ <retval>,
 1033 0324 C9E7     		b	.L61		@
 1034              	.L66:
 1035              	@ .\stlib\STM32F10x_StdPeriph_Driver\src\stm32f10x_can.c:531:     transmit_mailbox = 1;
 531:.\stlib\STM32F10x_StdPeriph_Driver\src/stm32f10x_can.c ****   }
 1036              		.loc 1 531 22 view .LVU306
 1037 0326 0120     		movs	r0, #1	@ <retval>,
 1038 0328 C7E7     		b	.L61		@
 1039              	.LVL30:
 1040              	.L63:
 554:.\stlib\STM32F10x_StdPeriph_Driver\src/stm32f10x_can.c ****       CANx->sTxMailBox[transmit_mailbox].TIR |= ((TxMessage->ExtId << 3) | \
 1041              		.loc 1 554 7 is_stmt 1 view .LVU307
 555:.\stlib\STM32F10x_StdPeriph_Driver\src/stm32f10x_can.c ****                                                   TxMessage->IDE | \
 1042              		.loc 1 555 7 view .LVU308
 1043              	@ .\stlib\STM32F10x_StdPeriph_Driver\src\stm32f10x_can.c:556:                                      
 556:.\stlib\STM32F10x_StdPeriph_Driver\src/stm32f10x_can.c ****                                                   TxMessage->RTR);
 1044              		.loc 1 556 66 is_stmt 0 view .LVU309
 1045 032a 4D68     		ldr	r5, [r1, #4]	@ tmp178, TxMessage_70(D)->ExtId
 1046              	@ .\stlib\STM32F10x_StdPeriph_Driver\src\stm32f10x_can.c:555:       CANx->sTxMailBox[transmit_mailb
 555:.\stlib\STM32F10x_StdPeriph_Driver\src/stm32f10x_can.c ****                                                   TxMessage->IDE | \
 1047              		.loc 1 555 46 view .LVU310
 1048 032c D3F88071 		ldr	r7, [r3, #384]	@ _18, MEM[(struct CAN_TypeDef *)_36 + 384B]
 1049              	@ .\stlib\STM32F10x_StdPeriph_Driver\src\stm32f10x_can.c:556:                                      
 556:.\stlib\STM32F10x_StdPeriph_Driver\src/stm32f10x_can.c ****                                                   TxMessage->RTR);
 1050              		.loc 1 556 66 view .LVU311
 1051 0330 42EAC502 		orr	r2, r2, r5, lsl #3	@ tmp160, _58, tmp178,
 1052 0334 3243     		orrs	r2, r2, r6	@, tmp161, tmp160, _10
 1053              	@ .\stlib\STM32F10x_StdPeriph_Driver\src\stm32f10x_can.c:555:       CANx->sTxMailBox[transmit_mailb
 555:.\stlib\STM32F10x_StdPeriph_Driver\src/stm32f10x_can.c ****                                                   TxMessage->IDE | \
 1054              		.loc 1 555 46 view .LVU312
 1055 0336 3A43     		orrs	r2, r2, r7	@, _26, tmp161, _18
 1056 0338 D2E7     		b	.L68		@
 1057              	.LVL31:
ARM GAS  C:\Users\skey\AppData\Local\Temp\ccv9NfrL.s 			page 31


 1058              	.L67:
 1059              	@ .\stlib\STM32F10x_StdPeriph_Driver\src\stm32f10x_can.c:539:     transmit_mailbox = CAN_TxStatus_N
 539:.\stlib\STM32F10x_StdPeriph_Driver\src/stm32f10x_can.c ****   }
 1060              		.loc 1 539 22 view .LVU313
 1061 033a 0420     		movs	r0, #4	@ <retval>,
 1062 033c F0E7     		b	.L62		@
 1063              		.cfi_endproc
 1064              	.LFE36:
 1065              		.size	CAN_Transmit, .-CAN_Transmit
 1066              		.align	1
 1067              		.global	CAN_TransmitStatus
 1068              		.syntax unified
 1069              		.thumb
 1070              		.thumb_func
 1071              		.fpu softvfp
 1072              		.type	CAN_TransmitStatus, %function
 1073              	CAN_TransmitStatus:
 1074              	.LVL32:
 1075              	.LFB37:
 579:.\stlib\STM32F10x_StdPeriph_Driver\src/stm32f10x_can.c **** 
 580:.\stlib\STM32F10x_StdPeriph_Driver\src/stm32f10x_can.c **** /**
 581:.\stlib\STM32F10x_StdPeriph_Driver\src/stm32f10x_can.c ****   * @brief  Checks the transmission of a message.
 582:.\stlib\STM32F10x_StdPeriph_Driver\src/stm32f10x_can.c ****   * @param  CANx:            where x can be 1 or 2 to to select the 
 583:.\stlib\STM32F10x_StdPeriph_Driver\src/stm32f10x_can.c ****   *                          CAN peripheral.
 584:.\stlib\STM32F10x_StdPeriph_Driver\src/stm32f10x_can.c ****   * @param  TransmitMailbox: the number of the mailbox that is used for 
 585:.\stlib\STM32F10x_StdPeriph_Driver\src/stm32f10x_can.c ****   *                          transmission.
 586:.\stlib\STM32F10x_StdPeriph_Driver\src/stm32f10x_can.c ****   * @retval CAN_TxStatus_Ok if the CAN driver transmits the message, CAN_TxStatus_Failed 
 587:.\stlib\STM32F10x_StdPeriph_Driver\src/stm32f10x_can.c ****   *         in an other case.
 588:.\stlib\STM32F10x_StdPeriph_Driver\src/stm32f10x_can.c ****   */
 589:.\stlib\STM32F10x_StdPeriph_Driver\src/stm32f10x_can.c **** uint8_t CAN_TransmitStatus(CAN_TypeDef* CANx, uint8_t TransmitMailbox)
 590:.\stlib\STM32F10x_StdPeriph_Driver\src/stm32f10x_can.c **** {
 1076              		.loc 1 590 1 is_stmt 1 view -0
 1077              		.cfi_startproc
 1078              		@ args = 0, pretend = 0, frame = 0
 1079              		@ frame_needed = 0, uses_anonymous_args = 0
 1080              		@ link register save eliminated.
 591:.\stlib\STM32F10x_StdPeriph_Driver\src/stm32f10x_can.c ****   uint32_t state = 0;
 1081              		.loc 1 591 3 view .LVU315
 592:.\stlib\STM32F10x_StdPeriph_Driver\src/stm32f10x_can.c **** 
 593:.\stlib\STM32F10x_StdPeriph_Driver\src/stm32f10x_can.c ****   /* Check the parameters */
 594:.\stlib\STM32F10x_StdPeriph_Driver\src/stm32f10x_can.c ****   assert_param(IS_CAN_ALL_PERIPH(CANx));
 1082              		.loc 1 594 3 view .LVU316
 595:.\stlib\STM32F10x_StdPeriph_Driver\src/stm32f10x_can.c ****   assert_param(IS_CAN_TRANSMITMAILBOX(TransmitMailbox));
 1083              		.loc 1 595 3 view .LVU317
 596:.\stlib\STM32F10x_StdPeriph_Driver\src/stm32f10x_can.c ****  
 597:.\stlib\STM32F10x_StdPeriph_Driver\src/stm32f10x_can.c ****   switch (TransmitMailbox)
 1084              		.loc 1 597 3 view .LVU318
 1085 033e 0129     		cmp	r1, #1	@ TransmitMailbox,
 1086              	@ .\stlib\STM32F10x_StdPeriph_Driver\src\stm32f10x_can.c:590: {
 590:.\stlib\STM32F10x_StdPeriph_Driver\src/stm32f10x_can.c ****   uint32_t state = 0;
 1087              		.loc 1 590 1 is_stmt 0 view .LVU319
 1088 0340 0346     		mov	r3, r0	@ CANx, tmp133
 1089 0342 0846     		mov	r0, r1	@ TransmitMailbox, tmp134
 1090              	.LVL33:
 1091              	@ .\stlib\STM32F10x_StdPeriph_Driver\src\stm32f10x_can.c:597:   switch (TransmitMailbox)
 1092              		.loc 1 597 3 view .LVU320
 1093 0344 0ED0     		beq	.L70		@,
ARM GAS  C:\Users\skey\AppData\Local\Temp\ccv9NfrL.s 			page 32


 1094 0346 0229     		cmp	r1, #2	@ TransmitMailbox,
 1095 0348 13D0     		beq	.L71		@,
 1096 034a E1B9     		cbnz	r1, .L77	@ TransmitMailbox,
 598:.\stlib\STM32F10x_StdPeriph_Driver\src/stm32f10x_can.c ****   {
 599:.\stlib\STM32F10x_StdPeriph_Driver\src/stm32f10x_can.c ****     case (CAN_TXMAILBOX_0): 
 600:.\stlib\STM32F10x_StdPeriph_Driver\src/stm32f10x_can.c ****       state =   CANx->TSR &  (CAN_TSR_RQCP0 | CAN_TSR_TXOK0 | CAN_TSR_TME0);
 1097              		.loc 1 600 7 is_stmt 1 view .LVU321
 1098              	@ .\stlib\STM32F10x_StdPeriph_Driver\src\stm32f10x_can.c:600:       state =   CANx->TSR &  (CAN_TSR
 1099              		.loc 1 600 21 is_stmt 0 view .LVU322
 1100 034c 9968     		ldr	r1, [r3, #8]	@ _1, CANx_8(D)->TSR
 1101              	.LVL34:
 1102              	@ .\stlib\STM32F10x_StdPeriph_Driver\src\stm32f10x_can.c:600:       state =   CANx->TSR &  (CAN_TSR
 1103              		.loc 1 600 13 view .LVU323
 1104 034e 21F07B41 		bic	r1, r1, #-83886080	@ state, _1,
 1105 0352 21F47F01 		bic	r1, r1, #16711680	@ state, state,
 1106 0356 21F47F41 		bic	r1, r1, #65280	@ state, state,
 1107 035a 21F0FC01 		bic	r1, r1, #252	@ state, state,
 1108              	.LVL35:
 601:.\stlib\STM32F10x_StdPeriph_Driver\src/stm32f10x_can.c ****       break;
 1109              		.loc 1 601 7 is_stmt 1 view .LVU324
 602:.\stlib\STM32F10x_StdPeriph_Driver\src/stm32f10x_can.c ****     case (CAN_TXMAILBOX_1): 
 603:.\stlib\STM32F10x_StdPeriph_Driver\src/stm32f10x_can.c ****       state =   CANx->TSR &  (CAN_TSR_RQCP1 | CAN_TSR_TXOK1 | CAN_TSR_TME1);
 604:.\stlib\STM32F10x_StdPeriph_Driver\src/stm32f10x_can.c ****       break;
 605:.\stlib\STM32F10x_StdPeriph_Driver\src/stm32f10x_can.c ****     case (CAN_TXMAILBOX_2): 
 606:.\stlib\STM32F10x_StdPeriph_Driver\src/stm32f10x_can.c ****       state =   CANx->TSR &  (CAN_TSR_RQCP2 | CAN_TSR_TXOK2 | CAN_TSR_TME2);
 607:.\stlib\STM32F10x_StdPeriph_Driver\src/stm32f10x_can.c ****       break;
 608:.\stlib\STM32F10x_StdPeriph_Driver\src/stm32f10x_can.c ****     default:
 609:.\stlib\STM32F10x_StdPeriph_Driver\src/stm32f10x_can.c ****       state = CAN_TxStatus_Failed;
 610:.\stlib\STM32F10x_StdPeriph_Driver\src/stm32f10x_can.c ****       break;
 611:.\stlib\STM32F10x_StdPeriph_Driver\src/stm32f10x_can.c ****   }
 612:.\stlib\STM32F10x_StdPeriph_Driver\src/stm32f10x_can.c ****   switch (state)
 1110              		.loc 1 612 3 view .LVU325
 1111              	.L73:
 1112              		.loc 1 612 3 is_stmt 0 view .LVU326
 1113 035e 91B1     		cbz	r1, .L77	@ state,
 1114              		.loc 1 612 3 view .LVU327
 1115 0360 0A48     		ldr	r0, .L78	@ tmp127,
 1116 0362 0CE0     		b	.L74		@
 1117              	.LVL36:
 1118              	.L70:
 603:.\stlib\STM32F10x_StdPeriph_Driver\src/stm32f10x_can.c ****       break;
 1119              		.loc 1 603 7 is_stmt 1 view .LVU328
 1120              	@ .\stlib\STM32F10x_StdPeriph_Driver\src\stm32f10x_can.c:603:       state =   CANx->TSR &  (CAN_TSR
 603:.\stlib\STM32F10x_StdPeriph_Driver\src/stm32f10x_can.c ****       break;
 1121              		.loc 1 603 21 is_stmt 0 view .LVU329
 1122 0364 9A68     		ldr	r2, [r3, #8]	@ _2, CANx_8(D)->TSR
 1123              	@ .\stlib\STM32F10x_StdPeriph_Driver\src\stm32f10x_can.c:603:       state =   CANx->TSR &  (CAN_TSR
 603:.\stlib\STM32F10x_StdPeriph_Driver\src/stm32f10x_can.c ****       break;
 1124              		.loc 1 603 13 view .LVU330
 1125 0366 0A4B     		ldr	r3, .L78+4	@ tmp121,
 1126              	.LVL37:
 603:.\stlib\STM32F10x_StdPeriph_Driver\src/stm32f10x_can.c ****       break;
 1127              		.loc 1 603 13 view .LVU331
 1128 0368 02EA0301 		and	r1, r2, r3	@ state, _2, tmp121
 1129              	.LVL38:
 604:.\stlib\STM32F10x_StdPeriph_Driver\src/stm32f10x_can.c ****     case (CAN_TXMAILBOX_2): 
 1130              		.loc 1 604 7 is_stmt 1 view .LVU332
ARM GAS  C:\Users\skey\AppData\Local\Temp\ccv9NfrL.s 			page 33


 1131              		.loc 1 612 3 view .LVU333
 1132 036c 9343     		bics	r3, r3, r2	@ tmp135, tmp121, _2
 1133 036e F6D1     		bne	.L73		@,
 1134 0370 7047     		bx	lr	@
 1135              	.LVL39:
 1136              	.L71:
 606:.\stlib\STM32F10x_StdPeriph_Driver\src/stm32f10x_can.c ****       break;
 1137              		.loc 1 606 7 view .LVU334
 1138              	@ .\stlib\STM32F10x_StdPeriph_Driver\src\stm32f10x_can.c:606:       state =   CANx->TSR &  (CAN_TSR
 606:.\stlib\STM32F10x_StdPeriph_Driver\src/stm32f10x_can.c ****       break;
 1139              		.loc 1 606 21 is_stmt 0 view .LVU335
 1140 0372 9968     		ldr	r1, [r3, #8]	@ _3, CANx_8(D)->TSR
 1141              	.LVL40:
 1142              	@ .\stlib\STM32F10x_StdPeriph_Driver\src\stm32f10x_can.c:606:       state =   CANx->TSR &  (CAN_TSR
 606:.\stlib\STM32F10x_StdPeriph_Driver\src/stm32f10x_can.c ****       break;
 1143              		.loc 1 606 13 view .LVU336
 1144 0374 0748     		ldr	r0, .L78+8	@ tmp123,
 1145              	@ .\stlib\STM32F10x_StdPeriph_Driver\src\stm32f10x_can.c:612:   switch (state)
 1146              		.loc 1 612 3 view .LVU337
 1147 0376 064B     		ldr	r3, .L78+4	@ tmp124,
 1148              	.LVL41:
 1149              	@ .\stlib\STM32F10x_StdPeriph_Driver\src\stm32f10x_can.c:606:       state =   CANx->TSR &  (CAN_TSR
 606:.\stlib\STM32F10x_StdPeriph_Driver\src/stm32f10x_can.c ****       break;
 1150              		.loc 1 606 13 view .LVU338
 1151 0378 0140     		ands	r1, r1, r0	@, state, _3, tmp123
 1152              	.LVL42:
 607:.\stlib\STM32F10x_StdPeriph_Driver\src/stm32f10x_can.c ****     default:
 1153              		.loc 1 607 7 is_stmt 1 view .LVU339
 1154              		.loc 1 612 3 view .LVU340
 1155              		.loc 1 612 3 is_stmt 0 view .LVU341
 1156 037a 9942     		cmp	r1, r3	@ state, tmp124
 1157 037c EFD9     		bls	.L73		@,
 1158              	.L74:
 1159              		.loc 1 612 3 view .LVU342
 1160 037e 0B1A     		subs	r3, r1, r0	@, state, tmp123
 1161 0380 5842     		rsbs	r0, r3, #0	@ state,,
 1162 0382 5841     		adcs	r0, r0, r3	@ state, state,
 1163 0384 7047     		bx	lr	@
 1164              	.LVL43:
 1165              	.L77:
 1166              	@ .\stlib\STM32F10x_StdPeriph_Driver\src\stm32f10x_can.c:615:     case (0x0): state = CAN_TxStatus_
 613:.\stlib\STM32F10x_StdPeriph_Driver\src/stm32f10x_can.c ****   {
 614:.\stlib\STM32F10x_StdPeriph_Driver\src/stm32f10x_can.c ****       /* transmit pending  */
 615:.\stlib\STM32F10x_StdPeriph_Driver\src/stm32f10x_can.c ****     case (0x0): state = CAN_TxStatus_Pending;
 1167              		.loc 1 615 23 view .LVU343
 1168 0386 0220     		movs	r0, #2	@ state,
 1169              	.LVL44:
 616:.\stlib\STM32F10x_StdPeriph_Driver\src/stm32f10x_can.c ****       break;
 617:.\stlib\STM32F10x_StdPeriph_Driver\src/stm32f10x_can.c ****       /* transmit failed  */
 618:.\stlib\STM32F10x_StdPeriph_Driver\src/stm32f10x_can.c ****      case (CAN_TSR_RQCP0 | CAN_TSR_TME0): state = CAN_TxStatus_Failed;
 619:.\stlib\STM32F10x_StdPeriph_Driver\src/stm32f10x_can.c ****       break;
 620:.\stlib\STM32F10x_StdPeriph_Driver\src/stm32f10x_can.c ****      case (CAN_TSR_RQCP1 | CAN_TSR_TME1): state = CAN_TxStatus_Failed;
 621:.\stlib\STM32F10x_StdPeriph_Driver\src/stm32f10x_can.c ****       break;
 622:.\stlib\STM32F10x_StdPeriph_Driver\src/stm32f10x_can.c ****      case (CAN_TSR_RQCP2 | CAN_TSR_TME2): state = CAN_TxStatus_Failed;
 623:.\stlib\STM32F10x_StdPeriph_Driver\src/stm32f10x_can.c ****       break;
 624:.\stlib\STM32F10x_StdPeriph_Driver\src/stm32f10x_can.c ****       /* transmit succeeded  */
 625:.\stlib\STM32F10x_StdPeriph_Driver\src/stm32f10x_can.c ****     case (CAN_TSR_RQCP0 | CAN_TSR_TXOK0 | CAN_TSR_TME0):state = CAN_TxStatus_Ok;
ARM GAS  C:\Users\skey\AppData\Local\Temp\ccv9NfrL.s 			page 34


 626:.\stlib\STM32F10x_StdPeriph_Driver\src/stm32f10x_can.c ****       break;
 627:.\stlib\STM32F10x_StdPeriph_Driver\src/stm32f10x_can.c ****     case (CAN_TSR_RQCP1 | CAN_TSR_TXOK1 | CAN_TSR_TME1):state = CAN_TxStatus_Ok;
 628:.\stlib\STM32F10x_StdPeriph_Driver\src/stm32f10x_can.c ****       break;
 629:.\stlib\STM32F10x_StdPeriph_Driver\src/stm32f10x_can.c ****     case (CAN_TSR_RQCP2 | CAN_TSR_TXOK2 | CAN_TSR_TME2):state = CAN_TxStatus_Ok;
 630:.\stlib\STM32F10x_StdPeriph_Driver\src/stm32f10x_can.c ****       break;
 631:.\stlib\STM32F10x_StdPeriph_Driver\src/stm32f10x_can.c ****     default: state = CAN_TxStatus_Failed;
 632:.\stlib\STM32F10x_StdPeriph_Driver\src/stm32f10x_can.c ****       break;
 633:.\stlib\STM32F10x_StdPeriph_Driver\src/stm32f10x_can.c ****   }
 634:.\stlib\STM32F10x_StdPeriph_Driver\src/stm32f10x_can.c ****   return (uint8_t) state;
 1170              		.loc 1 634 3 is_stmt 1 view .LVU344
 1171              	@ .\stlib\STM32F10x_StdPeriph_Driver\src\stm32f10x_can.c:635: }
 635:.\stlib\STM32F10x_StdPeriph_Driver\src/stm32f10x_can.c **** }
 1172              		.loc 1 635 1 is_stmt 0 view .LVU345
 1173 0388 7047     		bx	lr	@
 1174              	.L79:
 1175 038a 00BF     		.align	2
 1176              	.L78:
 1177 038c 03000004 		.word	67108867
 1178 0390 00030008 		.word	134218496
 1179 0394 00000310 		.word	268632064
 1180              		.cfi_endproc
 1181              	.LFE37:
 1182              		.size	CAN_TransmitStatus, .-CAN_TransmitStatus
 1183              		.align	1
 1184              		.global	CAN_CancelTransmit
 1185              		.syntax unified
 1186              		.thumb
 1187              		.thumb_func
 1188              		.fpu softvfp
 1189              		.type	CAN_CancelTransmit, %function
 1190              	CAN_CancelTransmit:
 1191              	.LVL45:
 1192              	.LFB38:
 636:.\stlib\STM32F10x_StdPeriph_Driver\src/stm32f10x_can.c **** 
 637:.\stlib\STM32F10x_StdPeriph_Driver\src/stm32f10x_can.c **** /**
 638:.\stlib\STM32F10x_StdPeriph_Driver\src/stm32f10x_can.c ****   * @brief  Cancels a transmit request.
 639:.\stlib\STM32F10x_StdPeriph_Driver\src/stm32f10x_can.c ****   * @param  CANx:     where x can be 1 or 2 to to select the CAN peripheral. 
 640:.\stlib\STM32F10x_StdPeriph_Driver\src/stm32f10x_can.c ****   * @param  Mailbox:  Mailbox number.
 641:.\stlib\STM32F10x_StdPeriph_Driver\src/stm32f10x_can.c ****   * @retval None.
 642:.\stlib\STM32F10x_StdPeriph_Driver\src/stm32f10x_can.c ****   */
 643:.\stlib\STM32F10x_StdPeriph_Driver\src/stm32f10x_can.c **** void CAN_CancelTransmit(CAN_TypeDef* CANx, uint8_t Mailbox)
 644:.\stlib\STM32F10x_StdPeriph_Driver\src/stm32f10x_can.c **** {
 1193              		.loc 1 644 1 is_stmt 1 view -0
 1194              		.cfi_startproc
 1195              		@ args = 0, pretend = 0, frame = 0
 1196              		@ frame_needed = 0, uses_anonymous_args = 0
 1197              		@ link register save eliminated.
 645:.\stlib\STM32F10x_StdPeriph_Driver\src/stm32f10x_can.c ****   /* Check the parameters */
 646:.\stlib\STM32F10x_StdPeriph_Driver\src/stm32f10x_can.c ****   assert_param(IS_CAN_ALL_PERIPH(CANx));
 1198              		.loc 1 646 3 view .LVU347
 647:.\stlib\STM32F10x_StdPeriph_Driver\src/stm32f10x_can.c ****   assert_param(IS_CAN_TRANSMITMAILBOX(Mailbox));
 1199              		.loc 1 647 3 view .LVU348
 648:.\stlib\STM32F10x_StdPeriph_Driver\src/stm32f10x_can.c ****   /* abort transmission */
 649:.\stlib\STM32F10x_StdPeriph_Driver\src/stm32f10x_can.c ****   switch (Mailbox)
 1200              		.loc 1 649 3 view .LVU349
 1201 0398 0129     		cmp	r1, #1	@ Mailbox,
 1202 039a 07D0     		beq	.L81		@,
ARM GAS  C:\Users\skey\AppData\Local\Temp\ccv9NfrL.s 			page 35


 1203 039c 0229     		cmp	r1, #2	@ Mailbox,
 1204 039e 09D0     		beq	.L82		@,
 1205 03a0 19B9     		cbnz	r1, .L80	@ Mailbox,
 650:.\stlib\STM32F10x_StdPeriph_Driver\src/stm32f10x_can.c ****   {
 651:.\stlib\STM32F10x_StdPeriph_Driver\src/stm32f10x_can.c ****     case (CAN_TXMAILBOX_0): CANx->TSR |= CAN_TSR_ABRQ0;
 1206              		.loc 1 651 29 view .LVU350
 1207              	@ .\stlib\STM32F10x_StdPeriph_Driver\src\stm32f10x_can.c:651:     case (CAN_TXMAILBOX_0): CANx->TSR
 1208              		.loc 1 651 39 is_stmt 0 view .LVU351
 1209 03a2 8368     		ldr	r3, [r0, #8]	@ _1, CANx_10(D)->TSR
 1210 03a4 43F08003 		orr	r3, r3, #128	@ _2, _1,
 1211              	.L84:
 1212              	@ .\stlib\STM32F10x_StdPeriph_Driver\src\stm32f10x_can.c:655:     case (CAN_TXMAILBOX_2): CANx->TSR
 652:.\stlib\STM32F10x_StdPeriph_Driver\src/stm32f10x_can.c ****       break;
 653:.\stlib\STM32F10x_StdPeriph_Driver\src/stm32f10x_can.c ****     case (CAN_TXMAILBOX_1): CANx->TSR |= CAN_TSR_ABRQ1;
 654:.\stlib\STM32F10x_StdPeriph_Driver\src/stm32f10x_can.c ****       break;
 655:.\stlib\STM32F10x_StdPeriph_Driver\src/stm32f10x_can.c ****     case (CAN_TXMAILBOX_2): CANx->TSR |= CAN_TSR_ABRQ2;
 1213              		.loc 1 655 39 view .LVU352
 1214 03a8 8360     		str	r3, [r0, #8]	@ _6,
 656:.\stlib\STM32F10x_StdPeriph_Driver\src/stm32f10x_can.c ****       break;
 1215              		.loc 1 656 7 is_stmt 1 view .LVU353
 1216              	.L80:
 1217              	@ .\stlib\STM32F10x_StdPeriph_Driver\src\stm32f10x_can.c:660: }
 657:.\stlib\STM32F10x_StdPeriph_Driver\src/stm32f10x_can.c ****     default:
 658:.\stlib\STM32F10x_StdPeriph_Driver\src/stm32f10x_can.c ****       break;
 659:.\stlib\STM32F10x_StdPeriph_Driver\src/stm32f10x_can.c ****   }
 660:.\stlib\STM32F10x_StdPeriph_Driver\src/stm32f10x_can.c **** }
 1218              		.loc 1 660 1 is_stmt 0 view .LVU354
 1219 03aa 7047     		bx	lr	@
 1220              	.L81:
 653:.\stlib\STM32F10x_StdPeriph_Driver\src/stm32f10x_can.c ****       break;
 1221              		.loc 1 653 29 is_stmt 1 view .LVU355
 1222              	@ .\stlib\STM32F10x_StdPeriph_Driver\src\stm32f10x_can.c:653:     case (CAN_TXMAILBOX_1): CANx->TSR
 653:.\stlib\STM32F10x_StdPeriph_Driver\src/stm32f10x_can.c ****       break;
 1223              		.loc 1 653 39 is_stmt 0 view .LVU356
 1224 03ac 8368     		ldr	r3, [r0, #8]	@ _3, CANx_10(D)->TSR
 1225 03ae 43F40043 		orr	r3, r3, #32768	@ _4, _3,
 1226 03b2 F9E7     		b	.L84		@
 1227              	.L82:
 655:.\stlib\STM32F10x_StdPeriph_Driver\src/stm32f10x_can.c ****       break;
 1228              		.loc 1 655 29 is_stmt 1 view .LVU357
 1229              	@ .\stlib\STM32F10x_StdPeriph_Driver\src\stm32f10x_can.c:655:     case (CAN_TXMAILBOX_2): CANx->TSR
 655:.\stlib\STM32F10x_StdPeriph_Driver\src/stm32f10x_can.c ****       break;
 1230              		.loc 1 655 39 is_stmt 0 view .LVU358
 1231 03b4 8368     		ldr	r3, [r0, #8]	@ _5, CANx_10(D)->TSR
 1232 03b6 43F40003 		orr	r3, r3, #8388608	@ _6, _5,
 1233 03ba F5E7     		b	.L84		@
 1234              		.cfi_endproc
 1235              	.LFE38:
 1236              		.size	CAN_CancelTransmit, .-CAN_CancelTransmit
 1237              		.align	1
 1238              		.global	CAN_Receive
 1239              		.syntax unified
 1240              		.thumb
 1241              		.thumb_func
 1242              		.fpu softvfp
 1243              		.type	CAN_Receive, %function
 1244              	CAN_Receive:
ARM GAS  C:\Users\skey\AppData\Local\Temp\ccv9NfrL.s 			page 36


 1245              	.LVL46:
 1246              	.LFB39:
 661:.\stlib\STM32F10x_StdPeriph_Driver\src/stm32f10x_can.c **** 
 662:.\stlib\STM32F10x_StdPeriph_Driver\src/stm32f10x_can.c **** 
 663:.\stlib\STM32F10x_StdPeriph_Driver\src/stm32f10x_can.c **** /**
 664:.\stlib\STM32F10x_StdPeriph_Driver\src/stm32f10x_can.c ****   * @brief  Receives a message.
 665:.\stlib\STM32F10x_StdPeriph_Driver\src/stm32f10x_can.c ****   * @param  CANx:       where x can be 1 or 2 to to select the CAN peripheral.
 666:.\stlib\STM32F10x_StdPeriph_Driver\src/stm32f10x_can.c ****   * @param  FIFONumber: Receive FIFO number, CAN_FIFO0 or CAN_FIFO1.
 667:.\stlib\STM32F10x_StdPeriph_Driver\src/stm32f10x_can.c ****   * @param  RxMessage:  pointer to a structure receive message which contains 
 668:.\stlib\STM32F10x_StdPeriph_Driver\src/stm32f10x_can.c ****   *                     CAN Id, CAN DLC, CAN datas and FMI number.
 669:.\stlib\STM32F10x_StdPeriph_Driver\src/stm32f10x_can.c ****   * @retval None.
 670:.\stlib\STM32F10x_StdPeriph_Driver\src/stm32f10x_can.c ****   */
 671:.\stlib\STM32F10x_StdPeriph_Driver\src/stm32f10x_can.c **** void CAN_Receive(CAN_TypeDef* CANx, uint8_t FIFONumber, CanRxMsg* RxMessage)
 672:.\stlib\STM32F10x_StdPeriph_Driver\src/stm32f10x_can.c **** {
 1247              		.loc 1 672 1 is_stmt 1 view -0
 1248              		.cfi_startproc
 1249              		@ args = 0, pretend = 0, frame = 0
 1250              		@ frame_needed = 0, uses_anonymous_args = 0
 673:.\stlib\STM32F10x_StdPeriph_Driver\src/stm32f10x_can.c ****   /* Check the parameters */
 674:.\stlib\STM32F10x_StdPeriph_Driver\src/stm32f10x_can.c ****   assert_param(IS_CAN_ALL_PERIPH(CANx));
 1251              		.loc 1 674 3 view .LVU360
 675:.\stlib\STM32F10x_StdPeriph_Driver\src/stm32f10x_can.c ****   assert_param(IS_CAN_FIFO(FIFONumber));
 1252              		.loc 1 675 3 view .LVU361
 676:.\stlib\STM32F10x_StdPeriph_Driver\src/stm32f10x_can.c ****   /* Get the Id */
 677:.\stlib\STM32F10x_StdPeriph_Driver\src/stm32f10x_can.c ****   RxMessage->IDE = (uint8_t)0x04 & CANx->sFIFOMailBox[FIFONumber].RIR;
 1253              		.loc 1 677 3 view .LVU362
 1254              	@ .\stlib\STM32F10x_StdPeriph_Driver\src\stm32f10x_can.c:672: {
 672:.\stlib\STM32F10x_StdPeriph_Driver\src/stm32f10x_can.c ****   /* Check the parameters */
 1255              		.loc 1 672 1 is_stmt 0 view .LVU363
 1256 03bc 30B5     		push	{r4, r5, lr}	@
 1257              	.LCFI5:
 1258              		.cfi_def_cfa_offset 12
 1259              		.cfi_offset 4, -12
 1260              		.cfi_offset 5, -8
 1261              		.cfi_offset 14, -4
 1262 03be 00EB0114 		add	r4, r0, r1, lsl #4	@ _68, CANx, FIFONumber,
 1263              	@ .\stlib\STM32F10x_StdPeriph_Driver\src\stm32f10x_can.c:677:   RxMessage->IDE = (uint8_t)0x04 & CA
 1264              		.loc 1 677 66 view .LVU364
 1265 03c2 D4F8B051 		ldr	r5, [r4, #432]	@ _2, MEM[(struct CAN_TypeDef *)_68 + 432B]
 1266 03c6 0B01     		lsls	r3, r1, #4	@ tmp159, FIFONumber,
 1267              	@ .\stlib\STM32F10x_StdPeriph_Driver\src\stm32f10x_can.c:677:   RxMessage->IDE = (uint8_t)0x04 & CA
 1268              		.loc 1 677 34 view .LVU365
 1269 03c8 05F00405 		and	r5, r5, #4	@ _4, _2,
 1270              	@ .\stlib\STM32F10x_StdPeriph_Driver\src\stm32f10x_can.c:677:   RxMessage->IDE = (uint8_t)0x04 & CA
 1271              		.loc 1 677 18 view .LVU366
 1272 03cc 1572     		strb	r5, [r2, #8]	@ _4, RxMessage_49(D)->IDE
 678:.\stlib\STM32F10x_StdPeriph_Driver\src/stm32f10x_can.c ****   if (RxMessage->IDE == CAN_Id_Standard)
 1273              		.loc 1 678 3 is_stmt 1 view .LVU367
 1274              	@ .\stlib\STM32F10x_StdPeriph_Driver\src\stm32f10x_can.c:678:   if (RxMessage->IDE == CAN_Id_Standa
 1275              		.loc 1 678 6 is_stmt 0 view .LVU368
 1276 03ce B5BB     		cbnz	r5, .L86	@ _4,
 679:.\stlib\STM32F10x_StdPeriph_Driver\src/stm32f10x_can.c ****   {
 680:.\stlib\STM32F10x_StdPeriph_Driver\src/stm32f10x_can.c ****     RxMessage->StdId = (uint32_t)0x000007FF & (CANx->sFIFOMailBox[FIFONumber].RIR >> 21);
 1277              		.loc 1 680 5 is_stmt 1 view .LVU369
 1278              	@ .\stlib\STM32F10x_StdPeriph_Driver\src\stm32f10x_can.c:680:     RxMessage->StdId = (uint32_t)0x00
 1279              		.loc 1 680 78 is_stmt 0 view .LVU370
 1280 03d0 D4F8B051 		ldr	r5, [r4, #432]	@ _5,
ARM GAS  C:\Users\skey\AppData\Local\Temp\ccv9NfrL.s 			page 37


 1281              	@ .\stlib\STM32F10x_StdPeriph_Driver\src\stm32f10x_can.c:680:     RxMessage->StdId = (uint32_t)0x00
 1282              		.loc 1 680 83 view .LVU371
 1283 03d4 6D0D     		lsrs	r5, r5, #21	@ tmp163, _5,
 1284              	@ .\stlib\STM32F10x_StdPeriph_Driver\src\stm32f10x_can.c:680:     RxMessage->StdId = (uint32_t)0x00
 1285              		.loc 1 680 22 view .LVU372
 1286 03d6 1560     		str	r5, [r2]	@ tmp163, RxMessage_49(D)->StdId
 1287              	.L87:
 681:.\stlib\STM32F10x_StdPeriph_Driver\src/stm32f10x_can.c ****   }
 682:.\stlib\STM32F10x_StdPeriph_Driver\src/stm32f10x_can.c ****   else
 683:.\stlib\STM32F10x_StdPeriph_Driver\src/stm32f10x_can.c ****   {
 684:.\stlib\STM32F10x_StdPeriph_Driver\src/stm32f10x_can.c ****     RxMessage->ExtId = (uint32_t)0x1FFFFFFF & (CANx->sFIFOMailBox[FIFONumber].RIR >> 3);
 685:.\stlib\STM32F10x_StdPeriph_Driver\src/stm32f10x_can.c ****   }
 686:.\stlib\STM32F10x_StdPeriph_Driver\src/stm32f10x_can.c ****   
 687:.\stlib\STM32F10x_StdPeriph_Driver\src/stm32f10x_can.c ****   RxMessage->RTR = (uint8_t)0x02 & CANx->sFIFOMailBox[FIFONumber].RIR;
 1288              		.loc 1 687 3 is_stmt 1 view .LVU373
 1289              	@ .\stlib\STM32F10x_StdPeriph_Driver\src\stm32f10x_can.c:687:   RxMessage->RTR = (uint8_t)0x02 & CA
 1290              		.loc 1 687 66 is_stmt 0 view .LVU374
 1291 03d8 D4F8B051 		ldr	r5, [r4, #432]	@ _9, MEM[(struct CAN_TypeDef *)_68 + 432B]
 1292              	@ .\stlib\STM32F10x_StdPeriph_Driver\src\stm32f10x_can.c:693:   RxMessage->Data[0] = (uint8_t)0xFF 
 688:.\stlib\STM32F10x_StdPeriph_Driver\src/stm32f10x_can.c ****   /* Get the DLC */
 689:.\stlib\STM32F10x_StdPeriph_Driver\src/stm32f10x_can.c ****   RxMessage->DLC = (uint8_t)0x0F & CANx->sFIFOMailBox[FIFONumber].RDTR;
 690:.\stlib\STM32F10x_StdPeriph_Driver\src/stm32f10x_can.c ****   /* Get the FMI */
 691:.\stlib\STM32F10x_StdPeriph_Driver\src/stm32f10x_can.c ****   RxMessage->FMI = (uint8_t)0xFF & (CANx->sFIFOMailBox[FIFONumber].RDTR >> 8);
 692:.\stlib\STM32F10x_StdPeriph_Driver\src/stm32f10x_can.c ****   /* Get the data field */
 693:.\stlib\STM32F10x_StdPeriph_Driver\src/stm32f10x_can.c ****   RxMessage->Data[0] = (uint8_t)0xFF & CANx->sFIFOMailBox[FIFONumber].RDLR;
 1293              		.loc 1 693 70 view .LVU375
 1294 03dc 0344     		add	r3, r3, r0	@ tmp174, CANx
 1295              	@ .\stlib\STM32F10x_StdPeriph_Driver\src\stm32f10x_can.c:687:   RxMessage->RTR = (uint8_t)0x02 & CA
 687:.\stlib\STM32F10x_StdPeriph_Driver\src/stm32f10x_can.c ****   /* Get the DLC */
 1296              		.loc 1 687 34 view .LVU376
 1297 03de 05F00205 		and	r5, r5, #2	@ tmp166, _9,
 1298              	@ .\stlib\STM32F10x_StdPeriph_Driver\src\stm32f10x_can.c:687:   RxMessage->RTR = (uint8_t)0x02 & CA
 687:.\stlib\STM32F10x_StdPeriph_Driver\src/stm32f10x_can.c ****   /* Get the DLC */
 1299              		.loc 1 687 18 view .LVU377
 1300 03e2 5572     		strb	r5, [r2, #9]	@ tmp166, RxMessage_49(D)->RTR
 689:.\stlib\STM32F10x_StdPeriph_Driver\src/stm32f10x_can.c ****   /* Get the FMI */
 1301              		.loc 1 689 3 is_stmt 1 view .LVU378
 1302              	@ .\stlib\STM32F10x_StdPeriph_Driver\src\stm32f10x_can.c:689:   RxMessage->DLC = (uint8_t)0x0F & CA
 689:.\stlib\STM32F10x_StdPeriph_Driver\src/stm32f10x_can.c ****   /* Get the FMI */
 1303              		.loc 1 689 66 is_stmt 0 view .LVU379
 1304 03e4 D4F8B451 		ldr	r5, [r4, #436]	@ _12, MEM[(struct CAN_TypeDef *)_68 + 436B]
 1305              	@ .\stlib\STM32F10x_StdPeriph_Driver\src\stm32f10x_can.c:689:   RxMessage->DLC = (uint8_t)0x0F & CA
 689:.\stlib\STM32F10x_StdPeriph_Driver\src/stm32f10x_can.c ****   /* Get the FMI */
 1306              		.loc 1 689 34 view .LVU380
 1307 03e8 05F00F05 		and	r5, r5, #15	@ tmp169, _12,
 1308              	@ .\stlib\STM32F10x_StdPeriph_Driver\src\stm32f10x_can.c:689:   RxMessage->DLC = (uint8_t)0x0F & CA
 689:.\stlib\STM32F10x_StdPeriph_Driver\src/stm32f10x_can.c ****   /* Get the FMI */
 1309              		.loc 1 689 18 view .LVU381
 1310 03ec 9572     		strb	r5, [r2, #10]	@ tmp169, RxMessage_49(D)->DLC
 691:.\stlib\STM32F10x_StdPeriph_Driver\src/stm32f10x_can.c ****   /* Get the data field */
 1311              		.loc 1 691 3 is_stmt 1 view .LVU382
 1312              	@ .\stlib\STM32F10x_StdPeriph_Driver\src\stm32f10x_can.c:691:   RxMessage->FMI = (uint8_t)0xFF & (C
 691:.\stlib\STM32F10x_StdPeriph_Driver\src/stm32f10x_can.c ****   /* Get the data field */
 1313              		.loc 1 691 67 is_stmt 0 view .LVU383
 1314 03ee D4F8B441 		ldr	r4, [r4, #436]	@ _15, MEM[(struct CAN_TypeDef *)_68 + 436B]
 1315              	@ .\stlib\STM32F10x_StdPeriph_Driver\src\stm32f10x_can.c:691:   RxMessage->FMI = (uint8_t)0xFF & (C
 691:.\stlib\STM32F10x_StdPeriph_Driver\src/stm32f10x_can.c ****   /* Get the data field */
ARM GAS  C:\Users\skey\AppData\Local\Temp\ccv9NfrL.s 			page 38


 1316              		.loc 1 691 73 view .LVU384
 1317 03f2 240A     		lsrs	r4, r4, #8	@ tmp171, _15,
 1318              	@ .\stlib\STM32F10x_StdPeriph_Driver\src\stm32f10x_can.c:691:   RxMessage->FMI = (uint8_t)0xFF & (C
 691:.\stlib\STM32F10x_StdPeriph_Driver\src/stm32f10x_can.c ****   /* Get the data field */
 1319              		.loc 1 691 18 view .LVU385
 1320 03f4 D474     		strb	r4, [r2, #19]	@ tmp171, RxMessage_49(D)->FMI
 1321              		.loc 1 693 3 is_stmt 1 view .LVU386
 1322              	@ .\stlib\STM32F10x_StdPeriph_Driver\src\stm32f10x_can.c:693:   RxMessage->Data[0] = (uint8_t)0xFF 
 1323              		.loc 1 693 70 is_stmt 0 view .LVU387
 1324 03f6 D3F8B841 		ldr	r4, [r3, #440]	@ _18, CANx_48(D)->sFIFOMailBox[_1].RDLR
 1325              	@ .\stlib\STM32F10x_StdPeriph_Driver\src\stm32f10x_can.c:693:   RxMessage->Data[0] = (uint8_t)0xFF 
 1326              		.loc 1 693 22 view .LVU388
 1327 03fa D472     		strb	r4, [r2, #11]	@ _18, RxMessage_49(D)->Data
 694:.\stlib\STM32F10x_StdPeriph_Driver\src/stm32f10x_can.c ****   RxMessage->Data[1] = (uint8_t)0xFF & (CANx->sFIFOMailBox[FIFONumber].RDLR >> 8);
 1328              		.loc 1 694 3 is_stmt 1 view .LVU389
 1329              	@ .\stlib\STM32F10x_StdPeriph_Driver\src\stm32f10x_can.c:694:   RxMessage->Data[1] = (uint8_t)0xFF 
 1330              		.loc 1 694 71 is_stmt 0 view .LVU390
 1331 03fc D3F8B841 		ldr	r4, [r3, #440]	@ _20, CANx_48(D)->sFIFOMailBox[_1].RDLR
 1332              	@ .\stlib\STM32F10x_StdPeriph_Driver\src\stm32f10x_can.c:694:   RxMessage->Data[1] = (uint8_t)0xFF 
 1333              		.loc 1 694 77 view .LVU391
 1334 0400 240A     		lsrs	r4, r4, #8	@ tmp180, _20,
 1335              	@ .\stlib\STM32F10x_StdPeriph_Driver\src\stm32f10x_can.c:694:   RxMessage->Data[1] = (uint8_t)0xFF 
 1336              		.loc 1 694 22 view .LVU392
 1337 0402 1473     		strb	r4, [r2, #12]	@ tmp180, RxMessage_49(D)->Data
 695:.\stlib\STM32F10x_StdPeriph_Driver\src/stm32f10x_can.c ****   RxMessage->Data[2] = (uint8_t)0xFF & (CANx->sFIFOMailBox[FIFONumber].RDLR >> 16);
 1338              		.loc 1 695 3 is_stmt 1 view .LVU393
 1339              	@ .\stlib\STM32F10x_StdPeriph_Driver\src\stm32f10x_can.c:695:   RxMessage->Data[2] = (uint8_t)0xFF 
 1340              		.loc 1 695 71 is_stmt 0 view .LVU394
 1341 0404 D3F8B841 		ldr	r4, [r3, #440]	@ _23, CANx_48(D)->sFIFOMailBox[_1].RDLR
 1342              	@ .\stlib\STM32F10x_StdPeriph_Driver\src\stm32f10x_can.c:695:   RxMessage->Data[2] = (uint8_t)0xFF 
 1343              		.loc 1 695 77 view .LVU395
 1344 0408 240C     		lsrs	r4, r4, #16	@ tmp185, _23,
 1345              	@ .\stlib\STM32F10x_StdPeriph_Driver\src\stm32f10x_can.c:695:   RxMessage->Data[2] = (uint8_t)0xFF 
 1346              		.loc 1 695 22 view .LVU396
 1347 040a 5473     		strb	r4, [r2, #13]	@ tmp185, RxMessage_49(D)->Data
 696:.\stlib\STM32F10x_StdPeriph_Driver\src/stm32f10x_can.c ****   RxMessage->Data[3] = (uint8_t)0xFF & (CANx->sFIFOMailBox[FIFONumber].RDLR >> 24);
 1348              		.loc 1 696 3 is_stmt 1 view .LVU397
 1349              	@ .\stlib\STM32F10x_StdPeriph_Driver\src\stm32f10x_can.c:696:   RxMessage->Data[3] = (uint8_t)0xFF 
 1350              		.loc 1 696 71 is_stmt 0 view .LVU398
 1351 040c D3F8B841 		ldr	r4, [r3, #440]	@ _26, CANx_48(D)->sFIFOMailBox[_1].RDLR
 1352              	@ .\stlib\STM32F10x_StdPeriph_Driver\src\stm32f10x_can.c:696:   RxMessage->Data[3] = (uint8_t)0xFF 
 1353              		.loc 1 696 77 view .LVU399
 1354 0410 240E     		lsrs	r4, r4, #24	@ tmp190, _26,
 1355              	@ .\stlib\STM32F10x_StdPeriph_Driver\src\stm32f10x_can.c:696:   RxMessage->Data[3] = (uint8_t)0xFF 
 1356              		.loc 1 696 22 view .LVU400
 1357 0412 9473     		strb	r4, [r2, #14]	@ tmp190, RxMessage_49(D)->Data
 697:.\stlib\STM32F10x_StdPeriph_Driver\src/stm32f10x_can.c ****   RxMessage->Data[4] = (uint8_t)0xFF & CANx->sFIFOMailBox[FIFONumber].RDHR;
 1358              		.loc 1 697 3 is_stmt 1 view .LVU401
 1359              	@ .\stlib\STM32F10x_StdPeriph_Driver\src\stm32f10x_can.c:697:   RxMessage->Data[4] = (uint8_t)0xFF 
 1360              		.loc 1 697 70 is_stmt 0 view .LVU402
 1361 0414 D3F8BC41 		ldr	r4, [r3, #444]	@ _29, CANx_48(D)->sFIFOMailBox[_1].RDHR
 1362              	@ .\stlib\STM32F10x_StdPeriph_Driver\src\stm32f10x_can.c:697:   RxMessage->Data[4] = (uint8_t)0xFF 
 1363              		.loc 1 697 22 view .LVU403
 1364 0418 D473     		strb	r4, [r2, #15]	@ _29, RxMessage_49(D)->Data
 698:.\stlib\STM32F10x_StdPeriph_Driver\src/stm32f10x_can.c ****   RxMessage->Data[5] = (uint8_t)0xFF & (CANx->sFIFOMailBox[FIFONumber].RDHR >> 8);
 1365              		.loc 1 698 3 is_stmt 1 view .LVU404
 1366              	@ .\stlib\STM32F10x_StdPeriph_Driver\src\stm32f10x_can.c:698:   RxMessage->Data[5] = (uint8_t)0xFF 
ARM GAS  C:\Users\skey\AppData\Local\Temp\ccv9NfrL.s 			page 39


 1367              		.loc 1 698 71 is_stmt 0 view .LVU405
 1368 041a D3F8BC41 		ldr	r4, [r3, #444]	@ _31, CANx_48(D)->sFIFOMailBox[_1].RDHR
 1369              	@ .\stlib\STM32F10x_StdPeriph_Driver\src\stm32f10x_can.c:698:   RxMessage->Data[5] = (uint8_t)0xFF 
 1370              		.loc 1 698 77 view .LVU406
 1371 041e 240A     		lsrs	r4, r4, #8	@ tmp199, _31,
 1372              	@ .\stlib\STM32F10x_StdPeriph_Driver\src\stm32f10x_can.c:698:   RxMessage->Data[5] = (uint8_t)0xFF 
 1373              		.loc 1 698 22 view .LVU407
 1374 0420 1474     		strb	r4, [r2, #16]	@ tmp199, RxMessage_49(D)->Data
 699:.\stlib\STM32F10x_StdPeriph_Driver\src/stm32f10x_can.c ****   RxMessage->Data[6] = (uint8_t)0xFF & (CANx->sFIFOMailBox[FIFONumber].RDHR >> 16);
 1375              		.loc 1 699 3 is_stmt 1 view .LVU408
 1376              	@ .\stlib\STM32F10x_StdPeriph_Driver\src\stm32f10x_can.c:699:   RxMessage->Data[6] = (uint8_t)0xFF 
 1377              		.loc 1 699 71 is_stmt 0 view .LVU409
 1378 0422 D3F8BC41 		ldr	r4, [r3, #444]	@ _34, CANx_48(D)->sFIFOMailBox[_1].RDHR
 1379              	@ .\stlib\STM32F10x_StdPeriph_Driver\src\stm32f10x_can.c:699:   RxMessage->Data[6] = (uint8_t)0xFF 
 1380              		.loc 1 699 77 view .LVU410
 1381 0426 240C     		lsrs	r4, r4, #16	@ tmp204, _34,
 1382              	@ .\stlib\STM32F10x_StdPeriph_Driver\src\stm32f10x_can.c:699:   RxMessage->Data[6] = (uint8_t)0xFF 
 1383              		.loc 1 699 22 view .LVU411
 1384 0428 5474     		strb	r4, [r2, #17]	@ tmp204, RxMessage_49(D)->Data
 700:.\stlib\STM32F10x_StdPeriph_Driver\src/stm32f10x_can.c ****   RxMessage->Data[7] = (uint8_t)0xFF & (CANx->sFIFOMailBox[FIFONumber].RDHR >> 24);
 1385              		.loc 1 700 3 is_stmt 1 view .LVU412
 1386              	@ .\stlib\STM32F10x_StdPeriph_Driver\src\stm32f10x_can.c:700:   RxMessage->Data[7] = (uint8_t)0xFF 
 1387              		.loc 1 700 71 is_stmt 0 view .LVU413
 1388 042a D3F8BC31 		ldr	r3, [r3, #444]	@ _37, CANx_48(D)->sFIFOMailBox[_1].RDHR
 1389              	@ .\stlib\STM32F10x_StdPeriph_Driver\src\stm32f10x_can.c:700:   RxMessage->Data[7] = (uint8_t)0xFF 
 1390              		.loc 1 700 77 view .LVU414
 1391 042e 1B0E     		lsrs	r3, r3, #24	@ tmp209, _37,
 1392              	@ .\stlib\STM32F10x_StdPeriph_Driver\src\stm32f10x_can.c:700:   RxMessage->Data[7] = (uint8_t)0xFF 
 1393              		.loc 1 700 22 view .LVU415
 1394 0430 9374     		strb	r3, [r2, #18]	@ tmp209, RxMessage_49(D)->Data
 701:.\stlib\STM32F10x_StdPeriph_Driver\src/stm32f10x_can.c ****   /* Release the FIFO */
 702:.\stlib\STM32F10x_StdPeriph_Driver\src/stm32f10x_can.c ****   /* Release FIFO0 */
 703:.\stlib\STM32F10x_StdPeriph_Driver\src/stm32f10x_can.c ****   if (FIFONumber == CAN_FIFO0)
 1395              		.loc 1 703 3 is_stmt 1 view .LVU416
 1396              	@ .\stlib\STM32F10x_StdPeriph_Driver\src\stm32f10x_can.c:703:   if (FIFONumber == CAN_FIFO0)
 1397              		.loc 1 703 6 is_stmt 0 view .LVU417
 1398 0432 49B9     		cbnz	r1, .L88	@ FIFONumber,
 704:.\stlib\STM32F10x_StdPeriph_Driver\src/stm32f10x_can.c ****   {
 705:.\stlib\STM32F10x_StdPeriph_Driver\src/stm32f10x_can.c ****     CANx->RF0R |= CAN_RF0R_RFOM0;
 1399              		.loc 1 705 5 is_stmt 1 view .LVU418
 1400              	@ .\stlib\STM32F10x_StdPeriph_Driver\src\stm32f10x_can.c:705:     CANx->RF0R |= CAN_RF0R_RFOM0;
 1401              		.loc 1 705 16 is_stmt 0 view .LVU419
 1402 0434 C368     		ldr	r3, [r0, #12]	@ _40, CANx_48(D)->RF0R
 1403 0436 43F02003 		orr	r3, r3, #32	@ _41, _40,
 1404 043a C360     		str	r3, [r0, #12]	@ _41, CANx_48(D)->RF0R
 1405              	.L85:
 1406              	@ .\stlib\STM32F10x_StdPeriph_Driver\src\stm32f10x_can.c:712: }
 706:.\stlib\STM32F10x_StdPeriph_Driver\src/stm32f10x_can.c ****   }
 707:.\stlib\STM32F10x_StdPeriph_Driver\src/stm32f10x_can.c ****   /* Release FIFO1 */
 708:.\stlib\STM32F10x_StdPeriph_Driver\src/stm32f10x_can.c ****   else /* FIFONumber == CAN_FIFO1 */
 709:.\stlib\STM32F10x_StdPeriph_Driver\src/stm32f10x_can.c ****   {
 710:.\stlib\STM32F10x_StdPeriph_Driver\src/stm32f10x_can.c ****     CANx->RF1R |= CAN_RF1R_RFOM1;
 711:.\stlib\STM32F10x_StdPeriph_Driver\src/stm32f10x_can.c ****   }
 712:.\stlib\STM32F10x_StdPeriph_Driver\src/stm32f10x_can.c **** }
 1407              		.loc 1 712 1 view .LVU420
 1408 043c 30BD     		pop	{r4, r5, pc}	@
 1409              	.L86:
ARM GAS  C:\Users\skey\AppData\Local\Temp\ccv9NfrL.s 			page 40


 684:.\stlib\STM32F10x_StdPeriph_Driver\src/stm32f10x_can.c ****   }
 1410              		.loc 1 684 5 is_stmt 1 view .LVU421
 1411              	@ .\stlib\STM32F10x_StdPeriph_Driver\src\stm32f10x_can.c:684:     RxMessage->ExtId = (uint32_t)0x1F
 684:.\stlib\STM32F10x_StdPeriph_Driver\src/stm32f10x_can.c ****   }
 1412              		.loc 1 684 78 is_stmt 0 view .LVU422
 1413 043e D4F8B051 		ldr	r5, [r4, #432]	@ _7,
 1414              	@ .\stlib\STM32F10x_StdPeriph_Driver\src\stm32f10x_can.c:684:     RxMessage->ExtId = (uint32_t)0x1F
 684:.\stlib\STM32F10x_StdPeriph_Driver\src/stm32f10x_can.c ****   }
 1415              		.loc 1 684 83 view .LVU423
 1416 0442 ED08     		lsrs	r5, r5, #3	@ tmp164, _7,
 1417              	@ .\stlib\STM32F10x_StdPeriph_Driver\src\stm32f10x_can.c:684:     RxMessage->ExtId = (uint32_t)0x1F
 684:.\stlib\STM32F10x_StdPeriph_Driver\src/stm32f10x_can.c ****   }
 1418              		.loc 1 684 22 view .LVU424
 1419 0444 5560     		str	r5, [r2, #4]	@ tmp164, RxMessage_49(D)->ExtId
 1420 0446 C7E7     		b	.L87		@
 1421              	.L88:
 710:.\stlib\STM32F10x_StdPeriph_Driver\src/stm32f10x_can.c ****   }
 1422              		.loc 1 710 5 is_stmt 1 view .LVU425
 1423              	@ .\stlib\STM32F10x_StdPeriph_Driver\src\stm32f10x_can.c:710:     CANx->RF1R |= CAN_RF1R_RFOM1;
 710:.\stlib\STM32F10x_StdPeriph_Driver\src/stm32f10x_can.c ****   }
 1424              		.loc 1 710 16 is_stmt 0 view .LVU426
 1425 0448 0369     		ldr	r3, [r0, #16]	@ _42, CANx_48(D)->RF1R
 1426 044a 43F02003 		orr	r3, r3, #32	@ _43, _42,
 1427 044e 0361     		str	r3, [r0, #16]	@ _43, CANx_48(D)->RF1R
 1428              	@ .\stlib\STM32F10x_StdPeriph_Driver\src\stm32f10x_can.c:712: }
 1429              		.loc 1 712 1 view .LVU427
 1430 0450 F4E7     		b	.L85		@
 1431              		.cfi_endproc
 1432              	.LFE39:
 1433              		.size	CAN_Receive, .-CAN_Receive
 1434              		.align	1
 1435              		.global	CAN_FIFORelease
 1436              		.syntax unified
 1437              		.thumb
 1438              		.thumb_func
 1439              		.fpu softvfp
 1440              		.type	CAN_FIFORelease, %function
 1441              	CAN_FIFORelease:
 1442              	.LVL47:
 1443              	.LFB40:
 713:.\stlib\STM32F10x_StdPeriph_Driver\src/stm32f10x_can.c **** 
 714:.\stlib\STM32F10x_StdPeriph_Driver\src/stm32f10x_can.c **** /**
 715:.\stlib\STM32F10x_StdPeriph_Driver\src/stm32f10x_can.c ****   * @brief  Releases the specified FIFO.
 716:.\stlib\STM32F10x_StdPeriph_Driver\src/stm32f10x_can.c ****   * @param  CANx:       where x can be 1 or 2 to to select the CAN peripheral. 
 717:.\stlib\STM32F10x_StdPeriph_Driver\src/stm32f10x_can.c ****   * @param  FIFONumber: FIFO to release, CAN_FIFO0 or CAN_FIFO1.
 718:.\stlib\STM32F10x_StdPeriph_Driver\src/stm32f10x_can.c ****   * @retval None.
 719:.\stlib\STM32F10x_StdPeriph_Driver\src/stm32f10x_can.c ****   */
 720:.\stlib\STM32F10x_StdPeriph_Driver\src/stm32f10x_can.c **** void CAN_FIFORelease(CAN_TypeDef* CANx, uint8_t FIFONumber)
 721:.\stlib\STM32F10x_StdPeriph_Driver\src/stm32f10x_can.c **** {
 1444              		.loc 1 721 1 is_stmt 1 view -0
 1445              		.cfi_startproc
 1446              		@ args = 0, pretend = 0, frame = 0
 1447              		@ frame_needed = 0, uses_anonymous_args = 0
 1448              		@ link register save eliminated.
 722:.\stlib\STM32F10x_StdPeriph_Driver\src/stm32f10x_can.c ****   /* Check the parameters */
 723:.\stlib\STM32F10x_StdPeriph_Driver\src/stm32f10x_can.c ****   assert_param(IS_CAN_ALL_PERIPH(CANx));
 1449              		.loc 1 723 3 view .LVU429
ARM GAS  C:\Users\skey\AppData\Local\Temp\ccv9NfrL.s 			page 41


 724:.\stlib\STM32F10x_StdPeriph_Driver\src/stm32f10x_can.c ****   assert_param(IS_CAN_FIFO(FIFONumber));
 1450              		.loc 1 724 3 view .LVU430
 725:.\stlib\STM32F10x_StdPeriph_Driver\src/stm32f10x_can.c ****   /* Release FIFO0 */
 726:.\stlib\STM32F10x_StdPeriph_Driver\src/stm32f10x_can.c ****   if (FIFONumber == CAN_FIFO0)
 1451              		.loc 1 726 3 view .LVU431
 1452              	@ .\stlib\STM32F10x_StdPeriph_Driver\src\stm32f10x_can.c:726:   if (FIFONumber == CAN_FIFO0)
 1453              		.loc 1 726 6 is_stmt 0 view .LVU432
 1454 0452 21B9     		cbnz	r1, .L91	@ tmp117,
 727:.\stlib\STM32F10x_StdPeriph_Driver\src/stm32f10x_can.c ****   {
 728:.\stlib\STM32F10x_StdPeriph_Driver\src/stm32f10x_can.c ****     CANx->RF0R |= CAN_RF0R_RFOM0;
 1455              		.loc 1 728 5 is_stmt 1 view .LVU433
 1456              	@ .\stlib\STM32F10x_StdPeriph_Driver\src\stm32f10x_can.c:728:     CANx->RF0R |= CAN_RF0R_RFOM0;
 1457              		.loc 1 728 16 is_stmt 0 view .LVU434
 1458 0454 C368     		ldr	r3, [r0, #12]	@ _1, CANx_8(D)->RF0R
 1459 0456 43F02003 		orr	r3, r3, #32	@ _2, _1,
 1460 045a C360     		str	r3, [r0, #12]	@ _2, CANx_8(D)->RF0R
 1461 045c 7047     		bx	lr	@
 1462              	.L91:
 729:.\stlib\STM32F10x_StdPeriph_Driver\src/stm32f10x_can.c ****   }
 730:.\stlib\STM32F10x_StdPeriph_Driver\src/stm32f10x_can.c ****   /* Release FIFO1 */
 731:.\stlib\STM32F10x_StdPeriph_Driver\src/stm32f10x_can.c ****   else /* FIFONumber == CAN_FIFO1 */
 732:.\stlib\STM32F10x_StdPeriph_Driver\src/stm32f10x_can.c ****   {
 733:.\stlib\STM32F10x_StdPeriph_Driver\src/stm32f10x_can.c ****     CANx->RF1R |= CAN_RF1R_RFOM1;
 1463              		.loc 1 733 5 is_stmt 1 view .LVU435
 1464              	@ .\stlib\STM32F10x_StdPeriph_Driver\src\stm32f10x_can.c:733:     CANx->RF1R |= CAN_RF1R_RFOM1;
 1465              		.loc 1 733 16 is_stmt 0 view .LVU436
 1466 045e 0369     		ldr	r3, [r0, #16]	@ _3, CANx_8(D)->RF1R
 1467 0460 43F02003 		orr	r3, r3, #32	@ _4, _3,
 1468 0464 0361     		str	r3, [r0, #16]	@ _4, CANx_8(D)->RF1R
 1469              	@ .\stlib\STM32F10x_StdPeriph_Driver\src\stm32f10x_can.c:735: }
 734:.\stlib\STM32F10x_StdPeriph_Driver\src/stm32f10x_can.c ****   }
 735:.\stlib\STM32F10x_StdPeriph_Driver\src/stm32f10x_can.c **** }
 1470              		.loc 1 735 1 view .LVU437
 1471 0466 7047     		bx	lr	@
 1472              		.cfi_endproc
 1473              	.LFE40:
 1474              		.size	CAN_FIFORelease, .-CAN_FIFORelease
 1475              		.align	1
 1476              		.global	CAN_MessagePending
 1477              		.syntax unified
 1478              		.thumb
 1479              		.thumb_func
 1480              		.fpu softvfp
 1481              		.type	CAN_MessagePending, %function
 1482              	CAN_MessagePending:
 1483              	.LVL48:
 1484              	.LFB41:
 736:.\stlib\STM32F10x_StdPeriph_Driver\src/stm32f10x_can.c **** 
 737:.\stlib\STM32F10x_StdPeriph_Driver\src/stm32f10x_can.c **** /**
 738:.\stlib\STM32F10x_StdPeriph_Driver\src/stm32f10x_can.c ****   * @brief  Returns the number of pending messages.
 739:.\stlib\STM32F10x_StdPeriph_Driver\src/stm32f10x_can.c ****   * @param  CANx:       where x can be 1 or 2 to to select the CAN peripheral.
 740:.\stlib\STM32F10x_StdPeriph_Driver\src/stm32f10x_can.c ****   * @param  FIFONumber: Receive FIFO number, CAN_FIFO0 or CAN_FIFO1.
 741:.\stlib\STM32F10x_StdPeriph_Driver\src/stm32f10x_can.c ****   * @retval NbMessage : which is the number of pending message.
 742:.\stlib\STM32F10x_StdPeriph_Driver\src/stm32f10x_can.c ****   */
 743:.\stlib\STM32F10x_StdPeriph_Driver\src/stm32f10x_can.c **** uint8_t CAN_MessagePending(CAN_TypeDef* CANx, uint8_t FIFONumber)
 744:.\stlib\STM32F10x_StdPeriph_Driver\src/stm32f10x_can.c **** {
 1485              		.loc 1 744 1 is_stmt 1 view -0
ARM GAS  C:\Users\skey\AppData\Local\Temp\ccv9NfrL.s 			page 42


 1486              		.cfi_startproc
 1487              		@ args = 0, pretend = 0, frame = 0
 1488              		@ frame_needed = 0, uses_anonymous_args = 0
 1489              		@ link register save eliminated.
 745:.\stlib\STM32F10x_StdPeriph_Driver\src/stm32f10x_can.c ****   uint8_t message_pending=0;
 1490              		.loc 1 745 3 view .LVU439
 746:.\stlib\STM32F10x_StdPeriph_Driver\src/stm32f10x_can.c ****   /* Check the parameters */
 747:.\stlib\STM32F10x_StdPeriph_Driver\src/stm32f10x_can.c ****   assert_param(IS_CAN_ALL_PERIPH(CANx));
 1491              		.loc 1 747 3 view .LVU440
 748:.\stlib\STM32F10x_StdPeriph_Driver\src/stm32f10x_can.c ****   assert_param(IS_CAN_FIFO(FIFONumber));
 1492              		.loc 1 748 3 view .LVU441
 749:.\stlib\STM32F10x_StdPeriph_Driver\src/stm32f10x_can.c ****   if (FIFONumber == CAN_FIFO0)
 1493              		.loc 1 749 3 view .LVU442
 1494              	@ .\stlib\STM32F10x_StdPeriph_Driver\src\stm32f10x_can.c:749:   if (FIFONumber == CAN_FIFO0)
 1495              		.loc 1 749 6 is_stmt 0 view .LVU443
 1496 0468 19B9     		cbnz	r1, .L94	@ FIFONumber,
 750:.\stlib\STM32F10x_StdPeriph_Driver\src/stm32f10x_can.c ****   {
 751:.\stlib\STM32F10x_StdPeriph_Driver\src/stm32f10x_can.c ****     message_pending = (uint8_t)(CANx->RF0R&(uint32_t)0x03);
 1497              		.loc 1 751 5 is_stmt 1 view .LVU444
 1498              	@ .\stlib\STM32F10x_StdPeriph_Driver\src\stm32f10x_can.c:751:     message_pending = (uint8_t)(CANx-
 1499              		.loc 1 751 37 is_stmt 0 view .LVU445
 1500 046a C068     		ldr	r0, [r0, #12]	@ _1, CANx_8(D)->RF0R
 1501              	.LVL49:
 1502              	.L97:
 1503              	@ .\stlib\STM32F10x_StdPeriph_Driver\src\stm32f10x_can.c:755:     message_pending = (uint8_t)(CANx-
 752:.\stlib\STM32F10x_StdPeriph_Driver\src/stm32f10x_can.c ****   }
 753:.\stlib\STM32F10x_StdPeriph_Driver\src/stm32f10x_can.c ****   else if (FIFONumber == CAN_FIFO1)
 754:.\stlib\STM32F10x_StdPeriph_Driver\src/stm32f10x_can.c ****   {
 755:.\stlib\STM32F10x_StdPeriph_Driver\src/stm32f10x_can.c ****     message_pending = (uint8_t)(CANx->RF1R&(uint32_t)0x03);
 1504              		.loc 1 755 21 view .LVU446
 1505 046c 00F00300 		and	r0, r0, #3	@ <retval>, _3,
 1506              	.LVL50:
 1507              		.loc 1 755 21 view .LVU447
 1508 0470 7047     		bx	lr	@
 1509              	.LVL51:
 1510              	.L94:
 753:.\stlib\STM32F10x_StdPeriph_Driver\src/stm32f10x_can.c ****   {
 1511              		.loc 1 753 8 is_stmt 1 view .LVU448
 1512              	@ .\stlib\STM32F10x_StdPeriph_Driver\src\stm32f10x_can.c:753:   else if (FIFONumber == CAN_FIFO1)
 753:.\stlib\STM32F10x_StdPeriph_Driver\src/stm32f10x_can.c ****   {
 1513              		.loc 1 753 11 is_stmt 0 view .LVU449
 1514 0472 0129     		cmp	r1, #1	@ FIFONumber,
 1515 0474 01D1     		bne	.L96		@,
 1516              		.loc 1 755 5 is_stmt 1 view .LVU450
 1517              	@ .\stlib\STM32F10x_StdPeriph_Driver\src\stm32f10x_can.c:755:     message_pending = (uint8_t)(CANx-
 1518              		.loc 1 755 37 is_stmt 0 view .LVU451
 1519 0476 0069     		ldr	r0, [r0, #16]	@ _3, CANx_8(D)->RF1R
 1520              	.LVL52:
 1521              		.loc 1 755 37 view .LVU452
 1522 0478 F8E7     		b	.L97		@
 1523              	.LVL53:
 1524              	.L96:
 1525              	@ .\stlib\STM32F10x_StdPeriph_Driver\src\stm32f10x_can.c:759:     message_pending = 0;
 756:.\stlib\STM32F10x_StdPeriph_Driver\src/stm32f10x_can.c ****   }
 757:.\stlib\STM32F10x_StdPeriph_Driver\src/stm32f10x_can.c ****   else
 758:.\stlib\STM32F10x_StdPeriph_Driver\src/stm32f10x_can.c ****   {
 759:.\stlib\STM32F10x_StdPeriph_Driver\src/stm32f10x_can.c ****     message_pending = 0;
ARM GAS  C:\Users\skey\AppData\Local\Temp\ccv9NfrL.s 			page 43


 1526              		.loc 1 759 21 view .LVU453
 1527 047a 0020     		movs	r0, #0	@ <retval>,
 1528              	.LVL54:
 760:.\stlib\STM32F10x_StdPeriph_Driver\src/stm32f10x_can.c ****   }
 761:.\stlib\STM32F10x_StdPeriph_Driver\src/stm32f10x_can.c ****   return message_pending;
 1529              		.loc 1 761 3 is_stmt 1 view .LVU454
 1530              	@ .\stlib\STM32F10x_StdPeriph_Driver\src\stm32f10x_can.c:762: }
 762:.\stlib\STM32F10x_StdPeriph_Driver\src/stm32f10x_can.c **** }
 1531              		.loc 1 762 1 is_stmt 0 view .LVU455
 1532 047c 7047     		bx	lr	@
 1533              		.cfi_endproc
 1534              	.LFE41:
 1535              		.size	CAN_MessagePending, .-CAN_MessagePending
 1536              		.align	1
 1537              		.global	CAN_OperatingModeRequest
 1538              		.syntax unified
 1539              		.thumb
 1540              		.thumb_func
 1541              		.fpu softvfp
 1542              		.type	CAN_OperatingModeRequest, %function
 1543              	CAN_OperatingModeRequest:
 1544              	.LVL55:
 1545              	.LFB42:
 763:.\stlib\STM32F10x_StdPeriph_Driver\src/stm32f10x_can.c **** 
 764:.\stlib\STM32F10x_StdPeriph_Driver\src/stm32f10x_can.c **** 
 765:.\stlib\STM32F10x_StdPeriph_Driver\src/stm32f10x_can.c **** /**
 766:.\stlib\STM32F10x_StdPeriph_Driver\src/stm32f10x_can.c ****   * @brief   Select the CAN Operation mode.
 767:.\stlib\STM32F10x_StdPeriph_Driver\src/stm32f10x_can.c ****   * @param CAN_OperatingMode : CAN Operating Mode. This parameter can be one 
 768:.\stlib\STM32F10x_StdPeriph_Driver\src/stm32f10x_can.c ****   *                            of @ref CAN_OperatingMode_TypeDef enumeration.
 769:.\stlib\STM32F10x_StdPeriph_Driver\src/stm32f10x_can.c ****   * @retval status of the requested mode which can be 
 770:.\stlib\STM32F10x_StdPeriph_Driver\src/stm32f10x_can.c ****   *         - CAN_ModeStatus_Failed    CAN failed entering the specific mode 
 771:.\stlib\STM32F10x_StdPeriph_Driver\src/stm32f10x_can.c ****   *         - CAN_ModeStatus_Success   CAN Succeed entering the specific mode 
 772:.\stlib\STM32F10x_StdPeriph_Driver\src/stm32f10x_can.c **** 
 773:.\stlib\STM32F10x_StdPeriph_Driver\src/stm32f10x_can.c ****   */
 774:.\stlib\STM32F10x_StdPeriph_Driver\src/stm32f10x_can.c **** uint8_t CAN_OperatingModeRequest(CAN_TypeDef* CANx, uint8_t CAN_OperatingMode)
 775:.\stlib\STM32F10x_StdPeriph_Driver\src/stm32f10x_can.c **** {
 1546              		.loc 1 775 1 is_stmt 1 view -0
 1547              		.cfi_startproc
 1548              		@ args = 0, pretend = 0, frame = 0
 1549              		@ frame_needed = 0, uses_anonymous_args = 0
 1550              		@ link register save eliminated.
 776:.\stlib\STM32F10x_StdPeriph_Driver\src/stm32f10x_can.c ****   uint8_t status = CAN_ModeStatus_Failed;
 1551              		.loc 1 776 3 view .LVU457
 777:.\stlib\STM32F10x_StdPeriph_Driver\src/stm32f10x_can.c ****   
 778:.\stlib\STM32F10x_StdPeriph_Driver\src/stm32f10x_can.c ****   /* Timeout for INAK or also for SLAK bits*/
 779:.\stlib\STM32F10x_StdPeriph_Driver\src/stm32f10x_can.c ****   uint32_t timeout = INAK_TIMEOUT; 
 1552              		.loc 1 779 3 view .LVU458
 780:.\stlib\STM32F10x_StdPeriph_Driver\src/stm32f10x_can.c **** 
 781:.\stlib\STM32F10x_StdPeriph_Driver\src/stm32f10x_can.c ****   /* Check the parameters */
 782:.\stlib\STM32F10x_StdPeriph_Driver\src/stm32f10x_can.c ****   assert_param(IS_CAN_ALL_PERIPH(CANx));
 1553              		.loc 1 782 3 view .LVU459
 783:.\stlib\STM32F10x_StdPeriph_Driver\src/stm32f10x_can.c ****   assert_param(IS_CAN_OPERATING_MODE(CAN_OperatingMode));
 1554              		.loc 1 783 3 view .LVU460
 784:.\stlib\STM32F10x_StdPeriph_Driver\src/stm32f10x_can.c **** 
 785:.\stlib\STM32F10x_StdPeriph_Driver\src/stm32f10x_can.c ****   if (CAN_OperatingMode == CAN_OperatingMode_Initialization)
 1555              		.loc 1 785 3 view .LVU461
 1556              	@ .\stlib\STM32F10x_StdPeriph_Driver\src\stm32f10x_can.c:785:   if (CAN_OperatingMode == CAN_Operat
ARM GAS  C:\Users\skey\AppData\Local\Temp\ccv9NfrL.s 			page 44


 1557              		.loc 1 785 6 is_stmt 0 view .LVU462
 1558 047e B1B9     		cbnz	r1, .L99	@ CAN_OperatingMode,
 786:.\stlib\STM32F10x_StdPeriph_Driver\src/stm32f10x_can.c ****   {
 787:.\stlib\STM32F10x_StdPeriph_Driver\src/stm32f10x_can.c ****     /* Request initialisation */
 788:.\stlib\STM32F10x_StdPeriph_Driver\src/stm32f10x_can.c ****     CANx->MCR = (uint32_t)((CANx->MCR & (uint32_t)(~(uint32_t)CAN_MCR_SLEEP)) | CAN_MCR_INRQ);
 1559              		.loc 1 788 5 is_stmt 1 view .LVU463
 1560              	@ .\stlib\STM32F10x_StdPeriph_Driver\src\stm32f10x_can.c:788:     CANx->MCR = (uint32_t)((CANx->MCR
 1561              		.loc 1 788 33 is_stmt 0 view .LVU464
 1562 0480 0368     		ldr	r3, [r0]	@ _1, CANx_28(D)->MCR
 1563              	@ .\stlib\STM32F10x_StdPeriph_Driver\src\stm32f10x_can.c:788:     CANx->MCR = (uint32_t)((CANx->MCR
 1564              		.loc 1 788 17 view .LVU465
 1565 0482 23F00303 		bic	r3, r3, #3	@ tmp139, _1,
 1566 0486 43F00103 		orr	r3, r3, #1	@ _3, tmp139,
 1567              	@ .\stlib\STM32F10x_StdPeriph_Driver\src\stm32f10x_can.c:788:     CANx->MCR = (uint32_t)((CANx->MCR
 1568              		.loc 1 788 15 view .LVU466
 1569 048a 0360     		str	r3, [r0]	@ _3, CANx_28(D)->MCR
 789:.\stlib\STM32F10x_StdPeriph_Driver\src/stm32f10x_can.c **** 
 790:.\stlib\STM32F10x_StdPeriph_Driver\src/stm32f10x_can.c ****     /* Wait the acknowledge */
 791:.\stlib\STM32F10x_StdPeriph_Driver\src/stm32f10x_can.c ****     while (((CANx->MSR & CAN_MODE_MASK) != CAN_MSR_INAK) && (timeout != 0))
 1570              		.loc 1 791 5 is_stmt 1 view .LVU467
 1571              	@ .\stlib\STM32F10x_StdPeriph_Driver\src\stm32f10x_can.c:791:     while (((CANx->MSR & CAN_MODE_MAS
 1572              		.loc 1 791 11 is_stmt 0 view .LVU468
 1573 048c 4FF48033 		mov	r3, #65536	@ ivtmp_35,
 1574              	.LVL56:
 1575              	.L101:
 1576              		.loc 1 791 11 is_stmt 1 view .LVU469
 1577              	@ .\stlib\STM32F10x_StdPeriph_Driver\src\stm32f10x_can.c:791:     while (((CANx->MSR & CAN_MODE_MAS
 1578              		.loc 1 791 18 is_stmt 0 view .LVU470
 1579 0490 4268     		ldr	r2, [r0, #4]	@ _4, CANx_28(D)->MSR
 1580              	@ .\stlib\STM32F10x_StdPeriph_Driver\src\stm32f10x_can.c:791:     while (((CANx->MSR & CAN_MODE_MAS
 1581              		.loc 1 791 24 view .LVU471
 1582 0492 02F00302 		and	r2, r2, #3	@ tmp140, _4,
 1583              	@ .\stlib\STM32F10x_StdPeriph_Driver\src\stm32f10x_can.c:791:     while (((CANx->MSR & CAN_MODE_MAS
 1584              		.loc 1 791 11 view .LVU472
 1585 0496 012A     		cmp	r2, #1	@ tmp140,
 1586 0498 01D0     		beq	.L100		@,
 1587              	@ .\stlib\STM32F10x_StdPeriph_Driver\src\stm32f10x_can.c:791:     while (((CANx->MSR & CAN_MODE_MAS
 1588              		.loc 1 791 58 discriminator 1 view .LVU473
 1589 049a 013B     		subs	r3, r3, #1	@ ivtmp_35, ivtmp_35,
 1590              	.LVL57:
 1591              		.loc 1 791 58 discriminator 1 view .LVU474
 1592 049c F8D1     		bne	.L101		@,
 1593              	.LVL58:
 1594              	.L100:
 792:.\stlib\STM32F10x_StdPeriph_Driver\src/stm32f10x_can.c ****     {
 793:.\stlib\STM32F10x_StdPeriph_Driver\src/stm32f10x_can.c ****       timeout--;
 794:.\stlib\STM32F10x_StdPeriph_Driver\src/stm32f10x_can.c ****     }
 795:.\stlib\STM32F10x_StdPeriph_Driver\src/stm32f10x_can.c ****     if ((CANx->MSR & CAN_MODE_MASK) != CAN_MSR_INAK)
 1595              		.loc 1 795 5 is_stmt 1 view .LVU475
 1596              	@ .\stlib\STM32F10x_StdPeriph_Driver\src\stm32f10x_can.c:795:     if ((CANx->MSR & CAN_MODE_MASK) !
 1597              		.loc 1 795 14 is_stmt 0 view .LVU476
 1598 049e 4068     		ldr	r0, [r0, #4]	@ _6, CANx_28(D)->MSR
 1599              	.LVL59:
 1600              	@ .\stlib\STM32F10x_StdPeriph_Driver\src\stm32f10x_can.c:795:     if ((CANx->MSR & CAN_MODE_MASK) !
 1601              		.loc 1 795 20 view .LVU477
 1602 04a0 00F00300 		and	r0, r0, #3	@ tmp141, _6,
 1603              	@ .\stlib\STM32F10x_StdPeriph_Driver\src\stm32f10x_can.c:801:       status = CAN_ModeStatus_Success
ARM GAS  C:\Users\skey\AppData\Local\Temp\ccv9NfrL.s 			page 45


 796:.\stlib\STM32F10x_StdPeriph_Driver\src/stm32f10x_can.c ****     {
 797:.\stlib\STM32F10x_StdPeriph_Driver\src/stm32f10x_can.c ****       status = CAN_ModeStatus_Failed;
 798:.\stlib\STM32F10x_StdPeriph_Driver\src/stm32f10x_can.c ****     }
 799:.\stlib\STM32F10x_StdPeriph_Driver\src/stm32f10x_can.c ****     else
 800:.\stlib\STM32F10x_StdPeriph_Driver\src/stm32f10x_can.c ****     {
 801:.\stlib\STM32F10x_StdPeriph_Driver\src/stm32f10x_can.c ****       status = CAN_ModeStatus_Success;
 1604              		.loc 1 801 14 view .LVU478
 1605 04a4 0128     		cmp	r0, #1	@ tmp141,
 1606              	.L121:
 1607              		.loc 1 801 14 view .LVU479
 1608 04a6 14BF     		ite	ne
 1609 04a8 0020     		movne	r0, #0	@ <retval>,
 1610 04aa 0120     		moveq	r0, #1	@ <retval>,
 1611 04ac 7047     		bx	lr	@
 1612              	.LVL60:
 1613              	.L99:
 802:.\stlib\STM32F10x_StdPeriph_Driver\src/stm32f10x_can.c ****     }
 803:.\stlib\STM32F10x_StdPeriph_Driver\src/stm32f10x_can.c ****   }
 804:.\stlib\STM32F10x_StdPeriph_Driver\src/stm32f10x_can.c ****   else  if (CAN_OperatingMode == CAN_OperatingMode_Normal)
 1614              		.loc 1 804 9 is_stmt 1 view .LVU480
 1615              	@ .\stlib\STM32F10x_StdPeriph_Driver\src\stm32f10x_can.c:804:   else  if (CAN_OperatingMode == CAN_
 1616              		.loc 1 804 12 is_stmt 0 view .LVU481
 1617 04ae 0129     		cmp	r1, #1	@ CAN_OperatingMode,
 1618 04b0 11D1     		bne	.L103		@,
 805:.\stlib\STM32F10x_StdPeriph_Driver\src/stm32f10x_can.c ****   {
 806:.\stlib\STM32F10x_StdPeriph_Driver\src/stm32f10x_can.c ****     /* Request leave initialisation and sleep mode  and enter Normal mode */
 807:.\stlib\STM32F10x_StdPeriph_Driver\src/stm32f10x_can.c ****     CANx->MCR &= (uint32_t)(~(CAN_MCR_SLEEP|CAN_MCR_INRQ));
 1619              		.loc 1 807 5 is_stmt 1 view .LVU482
 1620              	@ .\stlib\STM32F10x_StdPeriph_Driver\src\stm32f10x_can.c:807:     CANx->MCR &= (uint32_t)(~(CAN_MCR
 1621              		.loc 1 807 15 is_stmt 0 view .LVU483
 1622 04b2 0368     		ldr	r3, [r0]	@ _8, CANx_28(D)->MCR
 1623 04b4 23F00303 		bic	r3, r3, #3	@ _9, _8,
 1624 04b8 0360     		str	r3, [r0]	@ _9, CANx_28(D)->MCR
 808:.\stlib\STM32F10x_StdPeriph_Driver\src/stm32f10x_can.c **** 
 809:.\stlib\STM32F10x_StdPeriph_Driver\src/stm32f10x_can.c ****     /* Wait the acknowledge */
 810:.\stlib\STM32F10x_StdPeriph_Driver\src/stm32f10x_can.c ****     while (((CANx->MSR & CAN_MODE_MASK) != 0) && (timeout!=0))
 1625              		.loc 1 810 5 is_stmt 1 view .LVU484
 1626              	@ .\stlib\STM32F10x_StdPeriph_Driver\src\stm32f10x_can.c:810:     while (((CANx->MSR & CAN_MODE_MAS
 1627              		.loc 1 810 11 is_stmt 0 view .LVU485
 1628 04ba 4FF48033 		mov	r3, #65536	@ ivtmp_43,
 1629              	.LVL61:
 1630              	.L105:
 1631              		.loc 1 810 11 is_stmt 1 view .LVU486
 1632              	@ .\stlib\STM32F10x_StdPeriph_Driver\src\stm32f10x_can.c:810:     while (((CANx->MSR & CAN_MODE_MAS
 1633              		.loc 1 810 18 is_stmt 0 view .LVU487
 1634 04be 4268     		ldr	r2, [r0, #4]	@ _10, CANx_28(D)->MSR
 1635              	@ .\stlib\STM32F10x_StdPeriph_Driver\src\stm32f10x_can.c:810:     while (((CANx->MSR & CAN_MODE_MAS
 1636              		.loc 1 810 11 view .LVU488
 1637 04c0 9207     		lsls	r2, r2, #30	@, _10,
 1638 04c2 01D0     		beq	.L104		@,
 1639              	@ .\stlib\STM32F10x_StdPeriph_Driver\src\stm32f10x_can.c:810:     while (((CANx->MSR & CAN_MODE_MAS
 1640              		.loc 1 810 47 discriminator 1 view .LVU489
 1641 04c4 013B     		subs	r3, r3, #1	@ ivtmp_43, ivtmp_43,
 1642              	.LVL62:
 1643              		.loc 1 810 47 discriminator 1 view .LVU490
 1644 04c6 FAD1     		bne	.L105		@,
 1645              	.LVL63:
ARM GAS  C:\Users\skey\AppData\Local\Temp\ccv9NfrL.s 			page 46


 1646              	.L104:
 811:.\stlib\STM32F10x_StdPeriph_Driver\src/stm32f10x_can.c ****     {
 812:.\stlib\STM32F10x_StdPeriph_Driver\src/stm32f10x_can.c ****       timeout--;
 813:.\stlib\STM32F10x_StdPeriph_Driver\src/stm32f10x_can.c ****     }
 814:.\stlib\STM32F10x_StdPeriph_Driver\src/stm32f10x_can.c ****     if ((CANx->MSR & CAN_MODE_MASK) != 0)
 1647              		.loc 1 814 5 is_stmt 1 view .LVU491
 1648              	@ .\stlib\STM32F10x_StdPeriph_Driver\src\stm32f10x_can.c:814:     if ((CANx->MSR & CAN_MODE_MASK) !
 1649              		.loc 1 814 14 is_stmt 0 view .LVU492
 1650 04c8 4368     		ldr	r3, [r0, #4]	@ _12, CANx_28(D)->MSR
 1651              	@ .\stlib\STM32F10x_StdPeriph_Driver\src\stm32f10x_can.c:814:     if ((CANx->MSR & CAN_MODE_MASK) !
 1652              		.loc 1 814 8 view .LVU493
 1653 04ca 13F0030F 		tst	r3, #3	@ _12,
 1654              	@ .\stlib\STM32F10x_StdPeriph_Driver\src\stm32f10x_can.c:801:       status = CAN_ModeStatus_Success
 801:.\stlib\STM32F10x_StdPeriph_Driver\src/stm32f10x_can.c ****     }
 1655              		.loc 1 801 14 view .LVU494
 1656 04ce 0CBF     		ite	eq
 1657 04d0 0120     		moveq	r0, #1	@ <retval>,
 1658              	.LVL64:
 801:.\stlib\STM32F10x_StdPeriph_Driver\src/stm32f10x_can.c ****     }
 1659              		.loc 1 801 14 view .LVU495
 1660 04d2 0020     		movne	r0, #0	@ <retval>,
 1661 04d4 7047     		bx	lr	@
 1662              	.LVL65:
 1663              	.L103:
 815:.\stlib\STM32F10x_StdPeriph_Driver\src/stm32f10x_can.c ****     {
 816:.\stlib\STM32F10x_StdPeriph_Driver\src/stm32f10x_can.c ****       status = CAN_ModeStatus_Failed;
 817:.\stlib\STM32F10x_StdPeriph_Driver\src/stm32f10x_can.c ****     }
 818:.\stlib\STM32F10x_StdPeriph_Driver\src/stm32f10x_can.c ****     else
 819:.\stlib\STM32F10x_StdPeriph_Driver\src/stm32f10x_can.c ****     {
 820:.\stlib\STM32F10x_StdPeriph_Driver\src/stm32f10x_can.c ****       status = CAN_ModeStatus_Success;
 821:.\stlib\STM32F10x_StdPeriph_Driver\src/stm32f10x_can.c ****     }
 822:.\stlib\STM32F10x_StdPeriph_Driver\src/stm32f10x_can.c ****   }
 823:.\stlib\STM32F10x_StdPeriph_Driver\src/stm32f10x_can.c ****   else  if (CAN_OperatingMode == CAN_OperatingMode_Sleep)
 1664              		.loc 1 823 9 is_stmt 1 view .LVU496
 1665              	@ .\stlib\STM32F10x_StdPeriph_Driver\src\stm32f10x_can.c:823:   else  if (CAN_OperatingMode == CAN_
 1666              		.loc 1 823 12 is_stmt 0 view .LVU497
 1667 04d6 0229     		cmp	r1, #2	@ CAN_OperatingMode,
 1668 04d8 13D1     		bne	.L108		@,
 824:.\stlib\STM32F10x_StdPeriph_Driver\src/stm32f10x_can.c ****   {
 825:.\stlib\STM32F10x_StdPeriph_Driver\src/stm32f10x_can.c ****     /* Request Sleep mode */
 826:.\stlib\STM32F10x_StdPeriph_Driver\src/stm32f10x_can.c ****     CANx->MCR = (uint32_t)((CANx->MCR & (uint32_t)(~(uint32_t)CAN_MCR_INRQ)) | CAN_MCR_SLEEP);
 1669              		.loc 1 826 5 is_stmt 1 view .LVU498
 1670              	@ .\stlib\STM32F10x_StdPeriph_Driver\src\stm32f10x_can.c:826:     CANx->MCR = (uint32_t)((CANx->MCR
 1671              		.loc 1 826 33 is_stmt 0 view .LVU499
 1672 04da 0368     		ldr	r3, [r0]	@ _14, CANx_28(D)->MCR
 1673              	@ .\stlib\STM32F10x_StdPeriph_Driver\src\stm32f10x_can.c:826:     CANx->MCR = (uint32_t)((CANx->MCR
 1674              		.loc 1 826 17 view .LVU500
 1675 04dc 23F00303 		bic	r3, r3, #3	@ tmp148, _14,
 1676 04e0 43F00203 		orr	r3, r3, #2	@ _16, tmp148,
 1677              	@ .\stlib\STM32F10x_StdPeriph_Driver\src\stm32f10x_can.c:826:     CANx->MCR = (uint32_t)((CANx->MCR
 1678              		.loc 1 826 15 view .LVU501
 1679 04e4 0360     		str	r3, [r0]	@ _16, CANx_28(D)->MCR
 827:.\stlib\STM32F10x_StdPeriph_Driver\src/stm32f10x_can.c **** 
 828:.\stlib\STM32F10x_StdPeriph_Driver\src/stm32f10x_can.c ****     /* Wait the acknowledge */
 829:.\stlib\STM32F10x_StdPeriph_Driver\src/stm32f10x_can.c ****     while (((CANx->MSR & CAN_MODE_MASK) != CAN_MSR_SLAK) && (timeout!=0))
 1680              		.loc 1 829 5 is_stmt 1 view .LVU502
 1681              	@ .\stlib\STM32F10x_StdPeriph_Driver\src\stm32f10x_can.c:829:     while (((CANx->MSR & CAN_MODE_MAS
ARM GAS  C:\Users\skey\AppData\Local\Temp\ccv9NfrL.s 			page 47


 1682              		.loc 1 829 11 is_stmt 0 view .LVU503
 1683 04e6 4FF48033 		mov	r3, #65536	@ ivtmp_45,
 1684              	.LVL66:
 1685              	.L107:
 1686              		.loc 1 829 11 is_stmt 1 view .LVU504
 1687              	@ .\stlib\STM32F10x_StdPeriph_Driver\src\stm32f10x_can.c:829:     while (((CANx->MSR & CAN_MODE_MAS
 1688              		.loc 1 829 18 is_stmt 0 view .LVU505
 1689 04ea 4268     		ldr	r2, [r0, #4]	@ _17, CANx_28(D)->MSR
 1690              	@ .\stlib\STM32F10x_StdPeriph_Driver\src\stm32f10x_can.c:829:     while (((CANx->MSR & CAN_MODE_MAS
 1691              		.loc 1 829 24 view .LVU506
 1692 04ec 02F00302 		and	r2, r2, #3	@ tmp149, _17,
 1693              	@ .\stlib\STM32F10x_StdPeriph_Driver\src\stm32f10x_can.c:829:     while (((CANx->MSR & CAN_MODE_MAS
 1694              		.loc 1 829 11 view .LVU507
 1695 04f0 022A     		cmp	r2, #2	@ tmp149,
 1696 04f2 01D0     		beq	.L106		@,
 1697              	@ .\stlib\STM32F10x_StdPeriph_Driver\src\stm32f10x_can.c:829:     while (((CANx->MSR & CAN_MODE_MAS
 1698              		.loc 1 829 58 discriminator 1 view .LVU508
 1699 04f4 013B     		subs	r3, r3, #1	@ ivtmp_45, ivtmp_45,
 1700              	.LVL67:
 1701              		.loc 1 829 58 discriminator 1 view .LVU509
 1702 04f6 F8D1     		bne	.L107		@,
 1703              	.LVL68:
 1704              	.L106:
 830:.\stlib\STM32F10x_StdPeriph_Driver\src/stm32f10x_can.c ****     {
 831:.\stlib\STM32F10x_StdPeriph_Driver\src/stm32f10x_can.c ****       timeout--;
 832:.\stlib\STM32F10x_StdPeriph_Driver\src/stm32f10x_can.c ****     }
 833:.\stlib\STM32F10x_StdPeriph_Driver\src/stm32f10x_can.c ****     if ((CANx->MSR & CAN_MODE_MASK) != CAN_MSR_SLAK)
 1705              		.loc 1 833 5 is_stmt 1 view .LVU510
 1706              	@ .\stlib\STM32F10x_StdPeriph_Driver\src\stm32f10x_can.c:833:     if ((CANx->MSR & CAN_MODE_MASK) !
 1707              		.loc 1 833 14 is_stmt 0 view .LVU511
 1708 04f8 4068     		ldr	r0, [r0, #4]	@ _19, CANx_28(D)->MSR
 1709              	.LVL69:
 1710              	@ .\stlib\STM32F10x_StdPeriph_Driver\src\stm32f10x_can.c:833:     if ((CANx->MSR & CAN_MODE_MASK) !
 1711              		.loc 1 833 20 view .LVU512
 1712 04fa 00F00300 		and	r0, r0, #3	@ tmp150, _19,
 1713              	@ .\stlib\STM32F10x_StdPeriph_Driver\src\stm32f10x_can.c:801:       status = CAN_ModeStatus_Success
 801:.\stlib\STM32F10x_StdPeriph_Driver\src/stm32f10x_can.c ****     }
 1714              		.loc 1 801 14 view .LVU513
 1715 04fe 0228     		cmp	r0, #2	@ tmp150,
 1716 0500 D1E7     		b	.L121		@
 1717              	.LVL70:
 1718              	.L108:
 1719              	@ .\stlib\STM32F10x_StdPeriph_Driver\src\stm32f10x_can.c:844:     status = CAN_ModeStatus_Failed;
 834:.\stlib\STM32F10x_StdPeriph_Driver\src/stm32f10x_can.c ****     {
 835:.\stlib\STM32F10x_StdPeriph_Driver\src/stm32f10x_can.c ****       status = CAN_ModeStatus_Failed;
 836:.\stlib\STM32F10x_StdPeriph_Driver\src/stm32f10x_can.c ****     }
 837:.\stlib\STM32F10x_StdPeriph_Driver\src/stm32f10x_can.c ****     else
 838:.\stlib\STM32F10x_StdPeriph_Driver\src/stm32f10x_can.c ****     {
 839:.\stlib\STM32F10x_StdPeriph_Driver\src/stm32f10x_can.c ****       status = CAN_ModeStatus_Success;
 840:.\stlib\STM32F10x_StdPeriph_Driver\src/stm32f10x_can.c ****     }
 841:.\stlib\STM32F10x_StdPeriph_Driver\src/stm32f10x_can.c ****   }
 842:.\stlib\STM32F10x_StdPeriph_Driver\src/stm32f10x_can.c ****   else
 843:.\stlib\STM32F10x_StdPeriph_Driver\src/stm32f10x_can.c ****   {
 844:.\stlib\STM32F10x_StdPeriph_Driver\src/stm32f10x_can.c ****     status = CAN_ModeStatus_Failed;
 1720              		.loc 1 844 12 view .LVU514
 1721 0502 0020     		movs	r0, #0	@ <retval>,
 1722              	.LVL71:
ARM GAS  C:\Users\skey\AppData\Local\Temp\ccv9NfrL.s 			page 48


 845:.\stlib\STM32F10x_StdPeriph_Driver\src/stm32f10x_can.c ****   }
 846:.\stlib\STM32F10x_StdPeriph_Driver\src/stm32f10x_can.c **** 
 847:.\stlib\STM32F10x_StdPeriph_Driver\src/stm32f10x_can.c ****   return  (uint8_t) status;
 1723              		.loc 1 847 3 is_stmt 1 view .LVU515
 1724              	@ .\stlib\STM32F10x_StdPeriph_Driver\src\stm32f10x_can.c:848: }
 848:.\stlib\STM32F10x_StdPeriph_Driver\src/stm32f10x_can.c **** }
 1725              		.loc 1 848 1 is_stmt 0 view .LVU516
 1726 0504 7047     		bx	lr	@
 1727              		.cfi_endproc
 1728              	.LFE42:
 1729              		.size	CAN_OperatingModeRequest, .-CAN_OperatingModeRequest
 1730              		.align	1
 1731              		.global	CAN_Sleep
 1732              		.syntax unified
 1733              		.thumb
 1734              		.thumb_func
 1735              		.fpu softvfp
 1736              		.type	CAN_Sleep, %function
 1737              	CAN_Sleep:
 1738              	.LVL72:
 1739              	.LFB43:
 849:.\stlib\STM32F10x_StdPeriph_Driver\src/stm32f10x_can.c **** 
 850:.\stlib\STM32F10x_StdPeriph_Driver\src/stm32f10x_can.c **** /**
 851:.\stlib\STM32F10x_StdPeriph_Driver\src/stm32f10x_can.c ****   * @brief  Enters the low power mode.
 852:.\stlib\STM32F10x_StdPeriph_Driver\src/stm32f10x_can.c ****   * @param  CANx:   where x can be 1 or 2 to to select the CAN peripheral.
 853:.\stlib\STM32F10x_StdPeriph_Driver\src/stm32f10x_can.c ****   * @retval status: CAN_Sleep_Ok if sleep entered, CAN_Sleep_Failed in an 
 854:.\stlib\STM32F10x_StdPeriph_Driver\src/stm32f10x_can.c ****   *                 other case.
 855:.\stlib\STM32F10x_StdPeriph_Driver\src/stm32f10x_can.c ****   */
 856:.\stlib\STM32F10x_StdPeriph_Driver\src/stm32f10x_can.c **** uint8_t CAN_Sleep(CAN_TypeDef* CANx)
 857:.\stlib\STM32F10x_StdPeriph_Driver\src/stm32f10x_can.c **** {
 1740              		.loc 1 857 1 is_stmt 1 view -0
 1741              		.cfi_startproc
 1742              		@ args = 0, pretend = 0, frame = 0
 1743              		@ frame_needed = 0, uses_anonymous_args = 0
 1744              		@ link register save eliminated.
 858:.\stlib\STM32F10x_StdPeriph_Driver\src/stm32f10x_can.c ****   uint8_t sleepstatus = CAN_Sleep_Failed;
 1745              		.loc 1 858 3 view .LVU518
 859:.\stlib\STM32F10x_StdPeriph_Driver\src/stm32f10x_can.c ****   
 860:.\stlib\STM32F10x_StdPeriph_Driver\src/stm32f10x_can.c ****   /* Check the parameters */
 861:.\stlib\STM32F10x_StdPeriph_Driver\src/stm32f10x_can.c ****   assert_param(IS_CAN_ALL_PERIPH(CANx));
 1746              		.loc 1 861 3 view .LVU519
 862:.\stlib\STM32F10x_StdPeriph_Driver\src/stm32f10x_can.c ****     
 863:.\stlib\STM32F10x_StdPeriph_Driver\src/stm32f10x_can.c ****   /* Request Sleep mode */
 864:.\stlib\STM32F10x_StdPeriph_Driver\src/stm32f10x_can.c ****    CANx->MCR = (((CANx->MCR) & (uint32_t)(~(uint32_t)CAN_MCR_INRQ)) | CAN_MCR_SLEEP);
 1747              		.loc 1 864 4 view .LVU520
 1748              	@ .\stlib\STM32F10x_StdPeriph_Driver\src\stm32f10x_can.c:864:    CANx->MCR = (((CANx->MCR) & (uint3
 1749              		.loc 1 864 23 is_stmt 0 view .LVU521
 1750 0506 0368     		ldr	r3, [r0]	@ _1, CANx_8(D)->MCR
 1751              	@ .\stlib\STM32F10x_StdPeriph_Driver\src\stm32f10x_can.c:864:    CANx->MCR = (((CANx->MCR) & (uint3
 1752              		.loc 1 864 69 view .LVU522
 1753 0508 23F00303 		bic	r3, r3, #3	@ tmp118, _1,
 1754 050c 43F00203 		orr	r3, r3, #2	@ _3, tmp118,
 1755              	@ .\stlib\STM32F10x_StdPeriph_Driver\src\stm32f10x_can.c:864:    CANx->MCR = (((CANx->MCR) & (uint3
 1756              		.loc 1 864 14 view .LVU523
 1757 0510 0360     		str	r3, [r0]	@ _3, CANx_8(D)->MCR
 865:.\stlib\STM32F10x_StdPeriph_Driver\src/stm32f10x_can.c ****    
 866:.\stlib\STM32F10x_StdPeriph_Driver\src/stm32f10x_can.c ****   /* Sleep mode status */
ARM GAS  C:\Users\skey\AppData\Local\Temp\ccv9NfrL.s 			page 49


 867:.\stlib\STM32F10x_StdPeriph_Driver\src/stm32f10x_can.c ****   if ((CANx->MSR & (CAN_MSR_SLAK|CAN_MSR_INAK)) == CAN_MSR_SLAK)
 1758              		.loc 1 867 3 is_stmt 1 view .LVU524
 1759              	@ .\stlib\STM32F10x_StdPeriph_Driver\src\stm32f10x_can.c:867:   if ((CANx->MSR & (CAN_MSR_SLAK|CAN_
 1760              		.loc 1 867 12 is_stmt 0 view .LVU525
 1761 0512 4068     		ldr	r0, [r0, #4]	@ _4, CANx_8(D)->MSR
 1762              	.LVL73:
 868:.\stlib\STM32F10x_StdPeriph_Driver\src/stm32f10x_can.c ****   {
 869:.\stlib\STM32F10x_StdPeriph_Driver\src/stm32f10x_can.c ****     /* Sleep mode not entered */
 870:.\stlib\STM32F10x_StdPeriph_Driver\src/stm32f10x_can.c ****     sleepstatus =  CAN_Sleep_Ok;
 871:.\stlib\STM32F10x_StdPeriph_Driver\src/stm32f10x_can.c ****   }
 872:.\stlib\STM32F10x_StdPeriph_Driver\src/stm32f10x_can.c ****   /* return sleep mode status */
 873:.\stlib\STM32F10x_StdPeriph_Driver\src/stm32f10x_can.c ****    return (uint8_t)sleepstatus;
 1763              		.loc 1 873 4 is_stmt 1 view .LVU526
 1764              	@ .\stlib\STM32F10x_StdPeriph_Driver\src\stm32f10x_can.c:867:   if ((CANx->MSR & (CAN_MSR_SLAK|CAN_
 867:.\stlib\STM32F10x_StdPeriph_Driver\src/stm32f10x_can.c ****   {
 1765              		.loc 1 867 18 is_stmt 0 view .LVU527
 1766 0514 00F00300 		and	r0, r0, #3	@ tmp120, _4,
 1767              	.LVL74:
 1768              	@ .\stlib\STM32F10x_StdPeriph_Driver\src\stm32f10x_can.c:874: }
 874:.\stlib\STM32F10x_StdPeriph_Driver\src/stm32f10x_can.c **** }
 1769              		.loc 1 874 1 view .LVU528
 1770 0518 831E     		subs	r3, r0, #2	@, tmp120,
 1771 051a 5842     		rsbs	r0, r3, #0	@,,
 1772 051c 5841     		adcs	r0, r0, r3	@,,
 1773 051e 7047     		bx	lr	@
 1774              		.cfi_endproc
 1775              	.LFE43:
 1776              		.size	CAN_Sleep, .-CAN_Sleep
 1777              		.align	1
 1778              		.global	CAN_WakeUp
 1779              		.syntax unified
 1780              		.thumb
 1781              		.thumb_func
 1782              		.fpu softvfp
 1783              		.type	CAN_WakeUp, %function
 1784              	CAN_WakeUp:
 1785              	.LVL75:
 1786              	.LFB44:
 875:.\stlib\STM32F10x_StdPeriph_Driver\src/stm32f10x_can.c **** 
 876:.\stlib\STM32F10x_StdPeriph_Driver\src/stm32f10x_can.c **** /**
 877:.\stlib\STM32F10x_StdPeriph_Driver\src/stm32f10x_can.c ****   * @brief  Wakes the CAN up.
 878:.\stlib\STM32F10x_StdPeriph_Driver\src/stm32f10x_can.c ****   * @param  CANx:    where x can be 1 or 2 to to select the CAN peripheral.
 879:.\stlib\STM32F10x_StdPeriph_Driver\src/stm32f10x_can.c ****   * @retval status:  CAN_WakeUp_Ok if sleep mode left, CAN_WakeUp_Failed in an 
 880:.\stlib\STM32F10x_StdPeriph_Driver\src/stm32f10x_can.c ****   *                  other case.
 881:.\stlib\STM32F10x_StdPeriph_Driver\src/stm32f10x_can.c ****   */
 882:.\stlib\STM32F10x_StdPeriph_Driver\src/stm32f10x_can.c **** uint8_t CAN_WakeUp(CAN_TypeDef* CANx)
 883:.\stlib\STM32F10x_StdPeriph_Driver\src/stm32f10x_can.c **** {
 1787              		.loc 1 883 1 is_stmt 1 view -0
 1788              		.cfi_startproc
 1789              		@ args = 0, pretend = 0, frame = 0
 1790              		@ frame_needed = 0, uses_anonymous_args = 0
 1791              		@ link register save eliminated.
 884:.\stlib\STM32F10x_StdPeriph_Driver\src/stm32f10x_can.c ****   uint32_t wait_slak = SLAK_TIMEOUT;
 1792              		.loc 1 884 3 view .LVU530
 885:.\stlib\STM32F10x_StdPeriph_Driver\src/stm32f10x_can.c ****   uint8_t wakeupstatus = CAN_WakeUp_Failed;
 1793              		.loc 1 885 3 view .LVU531
 886:.\stlib\STM32F10x_StdPeriph_Driver\src/stm32f10x_can.c ****   
ARM GAS  C:\Users\skey\AppData\Local\Temp\ccv9NfrL.s 			page 50


 887:.\stlib\STM32F10x_StdPeriph_Driver\src/stm32f10x_can.c ****   /* Check the parameters */
 888:.\stlib\STM32F10x_StdPeriph_Driver\src/stm32f10x_can.c ****   assert_param(IS_CAN_ALL_PERIPH(CANx));
 1794              		.loc 1 888 3 view .LVU532
 889:.\stlib\STM32F10x_StdPeriph_Driver\src/stm32f10x_can.c ****     
 890:.\stlib\STM32F10x_StdPeriph_Driver\src/stm32f10x_can.c ****   /* Wake up request */
 891:.\stlib\STM32F10x_StdPeriph_Driver\src/stm32f10x_can.c ****   CANx->MCR &= ~(uint32_t)CAN_MCR_SLEEP;
 1795              		.loc 1 891 3 view .LVU533
 1796              	@ .\stlib\STM32F10x_StdPeriph_Driver\src\stm32f10x_can.c:891:   CANx->MCR &= ~(uint32_t)CAN_MCR_SLE
 1797              		.loc 1 891 13 is_stmt 0 view .LVU534
 1798 0520 0368     		ldr	r3, [r0]	@ _1, CANx_10(D)->MCR
 1799 0522 23F00203 		bic	r3, r3, #2	@ _2, _1,
 1800 0526 0360     		str	r3, [r0]	@ _2, CANx_10(D)->MCR
 892:.\stlib\STM32F10x_StdPeriph_Driver\src/stm32f10x_can.c ****     
 893:.\stlib\STM32F10x_StdPeriph_Driver\src/stm32f10x_can.c ****   /* Sleep mode status */
 894:.\stlib\STM32F10x_StdPeriph_Driver\src/stm32f10x_can.c ****   while(((CANx->MSR & CAN_MSR_SLAK) == CAN_MSR_SLAK)&&(wait_slak!=0x00))
 1801              		.loc 1 894 3 is_stmt 1 view .LVU535
 1802              	@ .\stlib\STM32F10x_StdPeriph_Driver\src\stm32f10x_can.c:894:   while(((CANx->MSR & CAN_MSR_SLAK) =
 1803              		.loc 1 894 8 is_stmt 0 view .LVU536
 1804 0528 4FF48033 		mov	r3, #65536	@ ivtmp_8,
 1805              	.LVL76:
 1806              	.L125:
 1807              		.loc 1 894 8 is_stmt 1 view .LVU537
 1808              	@ .\stlib\STM32F10x_StdPeriph_Driver\src\stm32f10x_can.c:894:   while(((CANx->MSR & CAN_MSR_SLAK) =
 1809              		.loc 1 894 15 is_stmt 0 view .LVU538
 1810 052c 4268     		ldr	r2, [r0, #4]	@ _3, CANx_10(D)->MSR
 1811              	@ .\stlib\STM32F10x_StdPeriph_Driver\src\stm32f10x_can.c:894:   while(((CANx->MSR & CAN_MSR_SLAK) =
 1812              		.loc 1 894 8 view .LVU539
 1813 052e 9207     		lsls	r2, r2, #30	@, _3,
 1814 0530 01D5     		bpl	.L124		@,
 1815              	@ .\stlib\STM32F10x_StdPeriph_Driver\src\stm32f10x_can.c:894:   while(((CANx->MSR & CAN_MSR_SLAK) =
 1816              		.loc 1 894 53 discriminator 1 view .LVU540
 1817 0532 013B     		subs	r3, r3, #1	@ ivtmp_8, ivtmp_8,
 1818              	.LVL77:
 1819              		.loc 1 894 53 discriminator 1 view .LVU541
 1820 0534 FAD1     		bne	.L125		@,
 1821              	.LVL78:
 1822              	.L124:
 895:.\stlib\STM32F10x_StdPeriph_Driver\src/stm32f10x_can.c ****   {
 896:.\stlib\STM32F10x_StdPeriph_Driver\src/stm32f10x_can.c ****    wait_slak--;
 897:.\stlib\STM32F10x_StdPeriph_Driver\src/stm32f10x_can.c ****   }
 898:.\stlib\STM32F10x_StdPeriph_Driver\src/stm32f10x_can.c ****   if((CANx->MSR & CAN_MSR_SLAK) != CAN_MSR_SLAK)
 1823              		.loc 1 898 3 is_stmt 1 view .LVU542
 1824              	@ .\stlib\STM32F10x_StdPeriph_Driver\src\stm32f10x_can.c:898:   if((CANx->MSR & CAN_MSR_SLAK) != CA
 1825              		.loc 1 898 11 is_stmt 0 view .LVU543
 1826 0536 4068     		ldr	r0, [r0, #4]	@ _5, CANx_10(D)->MSR
 1827              	.LVL79:
 899:.\stlib\STM32F10x_StdPeriph_Driver\src/stm32f10x_can.c ****   {
 900:.\stlib\STM32F10x_StdPeriph_Driver\src/stm32f10x_can.c ****    /* wake up done : Sleep mode exited */
 901:.\stlib\STM32F10x_StdPeriph_Driver\src/stm32f10x_can.c ****     wakeupstatus = CAN_WakeUp_Ok;
 902:.\stlib\STM32F10x_StdPeriph_Driver\src/stm32f10x_can.c ****   }
 903:.\stlib\STM32F10x_StdPeriph_Driver\src/stm32f10x_can.c ****   /* return wakeup status */
 904:.\stlib\STM32F10x_StdPeriph_Driver\src/stm32f10x_can.c ****   return (uint8_t)wakeupstatus;
 1828              		.loc 1 904 3 is_stmt 1 view .LVU544
 1829              	@ .\stlib\STM32F10x_StdPeriph_Driver\src\stm32f10x_can.c:898:   if((CANx->MSR & CAN_MSR_SLAK) != CA
 898:.\stlib\STM32F10x_StdPeriph_Driver\src/stm32f10x_can.c ****   {
 1830              		.loc 1 898 5 is_stmt 0 view .LVU545
 1831 0538 80F00200 		eor	r0, r0, #2	@ tmp123, _5,
ARM GAS  C:\Users\skey\AppData\Local\Temp\ccv9NfrL.s 			page 51


 1832              	.LVL80:
 1833              	@ .\stlib\STM32F10x_StdPeriph_Driver\src\stm32f10x_can.c:905: }
 905:.\stlib\STM32F10x_StdPeriph_Driver\src/stm32f10x_can.c **** }
 1834              		.loc 1 905 1 view .LVU546
 1835 053c C0F34000 		ubfx	r0, r0, #1, #1	@, tmp123,,
 1836              	.LVL81:
 1837              		.loc 1 905 1 view .LVU547
 1838 0540 7047     		bx	lr	@
 1839              		.cfi_endproc
 1840              	.LFE44:
 1841              		.size	CAN_WakeUp, .-CAN_WakeUp
 1842              		.align	1
 1843              		.global	CAN_GetLastErrorCode
 1844              		.syntax unified
 1845              		.thumb
 1846              		.thumb_func
 1847              		.fpu softvfp
 1848              		.type	CAN_GetLastErrorCode, %function
 1849              	CAN_GetLastErrorCode:
 1850              	.LVL82:
 1851              	.LFB45:
 906:.\stlib\STM32F10x_StdPeriph_Driver\src/stm32f10x_can.c **** 
 907:.\stlib\STM32F10x_StdPeriph_Driver\src/stm32f10x_can.c **** 
 908:.\stlib\STM32F10x_StdPeriph_Driver\src/stm32f10x_can.c **** /**
 909:.\stlib\STM32F10x_StdPeriph_Driver\src/stm32f10x_can.c ****   * @brief  Returns the CANx's last error code (LEC).
 910:.\stlib\STM32F10x_StdPeriph_Driver\src/stm32f10x_can.c ****   * @param  CANx:          where x can be 1 or 2 to to select the CAN peripheral.  
 911:.\stlib\STM32F10x_StdPeriph_Driver\src/stm32f10x_can.c ****   * @retval CAN_ErrorCode: specifies the Error code : 
 912:.\stlib\STM32F10x_StdPeriph_Driver\src/stm32f10x_can.c ****   *                        - CAN_ERRORCODE_NoErr            No Error  
 913:.\stlib\STM32F10x_StdPeriph_Driver\src/stm32f10x_can.c ****   *                        - CAN_ERRORCODE_StuffErr         Stuff Error
 914:.\stlib\STM32F10x_StdPeriph_Driver\src/stm32f10x_can.c ****   *                        - CAN_ERRORCODE_FormErr          Form Error
 915:.\stlib\STM32F10x_StdPeriph_Driver\src/stm32f10x_can.c ****   *                        - CAN_ERRORCODE_ACKErr           Acknowledgment Error
 916:.\stlib\STM32F10x_StdPeriph_Driver\src/stm32f10x_can.c ****   *                        - CAN_ERRORCODE_BitRecessiveErr  Bit Recessive Error
 917:.\stlib\STM32F10x_StdPeriph_Driver\src/stm32f10x_can.c ****   *                        - CAN_ERRORCODE_BitDominantErr   Bit Dominant Error
 918:.\stlib\STM32F10x_StdPeriph_Driver\src/stm32f10x_can.c ****   *                        - CAN_ERRORCODE_CRCErr           CRC Error
 919:.\stlib\STM32F10x_StdPeriph_Driver\src/stm32f10x_can.c ****   *                        - CAN_ERRORCODE_SoftwareSetErr   Software Set Error  
 920:.\stlib\STM32F10x_StdPeriph_Driver\src/stm32f10x_can.c ****   */
 921:.\stlib\STM32F10x_StdPeriph_Driver\src/stm32f10x_can.c ****  
 922:.\stlib\STM32F10x_StdPeriph_Driver\src/stm32f10x_can.c **** uint8_t CAN_GetLastErrorCode(CAN_TypeDef* CANx)
 923:.\stlib\STM32F10x_StdPeriph_Driver\src/stm32f10x_can.c **** {
 1852              		.loc 1 923 1 is_stmt 1 view -0
 1853              		.cfi_startproc
 1854              		@ args = 0, pretend = 0, frame = 0
 1855              		@ frame_needed = 0, uses_anonymous_args = 0
 1856              		@ link register save eliminated.
 924:.\stlib\STM32F10x_StdPeriph_Driver\src/stm32f10x_can.c ****   uint8_t errorcode=0;
 1857              		.loc 1 924 3 view .LVU549
 925:.\stlib\STM32F10x_StdPeriph_Driver\src/stm32f10x_can.c ****   
 926:.\stlib\STM32F10x_StdPeriph_Driver\src/stm32f10x_can.c ****   /* Check the parameters */
 927:.\stlib\STM32F10x_StdPeriph_Driver\src/stm32f10x_can.c ****   assert_param(IS_CAN_ALL_PERIPH(CANx));
 1858              		.loc 1 927 3 view .LVU550
 928:.\stlib\STM32F10x_StdPeriph_Driver\src/stm32f10x_can.c ****   
 929:.\stlib\STM32F10x_StdPeriph_Driver\src/stm32f10x_can.c ****   /* Get the error code*/
 930:.\stlib\STM32F10x_StdPeriph_Driver\src/stm32f10x_can.c ****   errorcode = (((uint8_t)CANx->ESR) & (uint8_t)CAN_ESR_LEC);
 1859              		.loc 1 930 3 view .LVU551
 1860              	@ .\stlib\STM32F10x_StdPeriph_Driver\src\stm32f10x_can.c:930:   errorcode = (((uint8_t)CANx->ESR) &
 1861              		.loc 1 930 30 is_stmt 0 view .LVU552
 1862 0542 8069     		ldr	r0, [r0, #24]	@ _1, CANx_4(D)->ESR
ARM GAS  C:\Users\skey\AppData\Local\Temp\ccv9NfrL.s 			page 52


 1863              	.LVL83:
 931:.\stlib\STM32F10x_StdPeriph_Driver\src/stm32f10x_can.c ****   
 932:.\stlib\STM32F10x_StdPeriph_Driver\src/stm32f10x_can.c ****   /* Return the error code*/
 933:.\stlib\STM32F10x_StdPeriph_Driver\src/stm32f10x_can.c ****   return errorcode;
 1864              		.loc 1 933 3 is_stmt 1 view .LVU553
 1865              	@ .\stlib\STM32F10x_StdPeriph_Driver\src\stm32f10x_can.c:934: }
 934:.\stlib\STM32F10x_StdPeriph_Driver\src/stm32f10x_can.c **** }
 1866              		.loc 1 934 1 is_stmt 0 view .LVU554
 1867 0544 00F07000 		and	r0, r0, #112	@, _1,
 1868              	.LVL84:
 1869              		.loc 1 934 1 view .LVU555
 1870 0548 7047     		bx	lr	@
 1871              		.cfi_endproc
 1872              	.LFE45:
 1873              		.size	CAN_GetLastErrorCode, .-CAN_GetLastErrorCode
 1874              		.align	1
 1875              		.global	CAN_GetReceiveErrorCounter
 1876              		.syntax unified
 1877              		.thumb
 1878              		.thumb_func
 1879              		.fpu softvfp
 1880              		.type	CAN_GetReceiveErrorCounter, %function
 1881              	CAN_GetReceiveErrorCounter:
 1882              	.LVL85:
 1883              	.LFB46:
 935:.\stlib\STM32F10x_StdPeriph_Driver\src/stm32f10x_can.c **** /**
 936:.\stlib\STM32F10x_StdPeriph_Driver\src/stm32f10x_can.c ****   * @brief  Returns the CANx Receive Error Counter (REC).
 937:.\stlib\STM32F10x_StdPeriph_Driver\src/stm32f10x_can.c ****   * @note   In case of an error during reception, this counter is incremented 
 938:.\stlib\STM32F10x_StdPeriph_Driver\src/stm32f10x_can.c ****   *         by 1 or by 8 depending on the error condition as defined by the CAN 
 939:.\stlib\STM32F10x_StdPeriph_Driver\src/stm32f10x_can.c ****   *         standard. After every successful reception, the counter is 
 940:.\stlib\STM32F10x_StdPeriph_Driver\src/stm32f10x_can.c ****   *         decremented by 1 or reset to 120 if its value was higher than 128. 
 941:.\stlib\STM32F10x_StdPeriph_Driver\src/stm32f10x_can.c ****   *         When the counter value exceeds 127, the CAN controller enters the 
 942:.\stlib\STM32F10x_StdPeriph_Driver\src/stm32f10x_can.c ****   *         error passive state.  
 943:.\stlib\STM32F10x_StdPeriph_Driver\src/stm32f10x_can.c ****   * @param  CANx: where x can be 1 or 2 to to select the CAN peripheral.  
 944:.\stlib\STM32F10x_StdPeriph_Driver\src/stm32f10x_can.c ****   * @retval CAN Receive Error Counter. 
 945:.\stlib\STM32F10x_StdPeriph_Driver\src/stm32f10x_can.c ****   */
 946:.\stlib\STM32F10x_StdPeriph_Driver\src/stm32f10x_can.c **** uint8_t CAN_GetReceiveErrorCounter(CAN_TypeDef* CANx)
 947:.\stlib\STM32F10x_StdPeriph_Driver\src/stm32f10x_can.c **** {
 1884              		.loc 1 947 1 is_stmt 1 view -0
 1885              		.cfi_startproc
 1886              		@ args = 0, pretend = 0, frame = 0
 1887              		@ frame_needed = 0, uses_anonymous_args = 0
 1888              		@ link register save eliminated.
 948:.\stlib\STM32F10x_StdPeriph_Driver\src/stm32f10x_can.c ****   uint8_t counter=0;
 1889              		.loc 1 948 3 view .LVU557
 949:.\stlib\STM32F10x_StdPeriph_Driver\src/stm32f10x_can.c ****   
 950:.\stlib\STM32F10x_StdPeriph_Driver\src/stm32f10x_can.c ****   /* Check the parameters */
 951:.\stlib\STM32F10x_StdPeriph_Driver\src/stm32f10x_can.c ****   assert_param(IS_CAN_ALL_PERIPH(CANx));
 1890              		.loc 1 951 3 view .LVU558
 952:.\stlib\STM32F10x_StdPeriph_Driver\src/stm32f10x_can.c ****   
 953:.\stlib\STM32F10x_StdPeriph_Driver\src/stm32f10x_can.c ****   /* Get the Receive Error Counter*/
 954:.\stlib\STM32F10x_StdPeriph_Driver\src/stm32f10x_can.c ****   counter = (uint8_t)((CANx->ESR & CAN_ESR_REC)>> 24);
 1891              		.loc 1 954 3 view .LVU559
 1892              	@ .\stlib\STM32F10x_StdPeriph_Driver\src\stm32f10x_can.c:954:   counter = (uint8_t)((CANx->ESR & CA
 1893              		.loc 1 954 28 is_stmt 0 view .LVU560
 1894 054a 8069     		ldr	r0, [r0, #24]	@ _1, CANx_4(D)->ESR
 1895              	.LVL86:
ARM GAS  C:\Users\skey\AppData\Local\Temp\ccv9NfrL.s 			page 53


 955:.\stlib\STM32F10x_StdPeriph_Driver\src/stm32f10x_can.c ****   
 956:.\stlib\STM32F10x_StdPeriph_Driver\src/stm32f10x_can.c ****   /* Return the Receive Error Counter*/
 957:.\stlib\STM32F10x_StdPeriph_Driver\src/stm32f10x_can.c ****   return counter;
 1896              		.loc 1 957 3 is_stmt 1 view .LVU561
 1897              	@ .\stlib\STM32F10x_StdPeriph_Driver\src\stm32f10x_can.c:958: }
 958:.\stlib\STM32F10x_StdPeriph_Driver\src/stm32f10x_can.c **** }
 1898              		.loc 1 958 1 is_stmt 0 view .LVU562
 1899 054c 000E     		lsrs	r0, r0, #24	@, _1,
 1900              	.LVL87:
 1901              		.loc 1 958 1 view .LVU563
 1902 054e 7047     		bx	lr	@
 1903              		.cfi_endproc
 1904              	.LFE46:
 1905              		.size	CAN_GetReceiveErrorCounter, .-CAN_GetReceiveErrorCounter
 1906              		.align	1
 1907              		.global	CAN_GetLSBTransmitErrorCounter
 1908              		.syntax unified
 1909              		.thumb
 1910              		.thumb_func
 1911              		.fpu softvfp
 1912              		.type	CAN_GetLSBTransmitErrorCounter, %function
 1913              	CAN_GetLSBTransmitErrorCounter:
 1914              	.LVL88:
 1915              	.LFB47:
 959:.\stlib\STM32F10x_StdPeriph_Driver\src/stm32f10x_can.c **** 
 960:.\stlib\STM32F10x_StdPeriph_Driver\src/stm32f10x_can.c **** 
 961:.\stlib\STM32F10x_StdPeriph_Driver\src/stm32f10x_can.c **** /**
 962:.\stlib\STM32F10x_StdPeriph_Driver\src/stm32f10x_can.c ****   * @brief  Returns the LSB of the 9-bit CANx Transmit Error Counter(TEC).
 963:.\stlib\STM32F10x_StdPeriph_Driver\src/stm32f10x_can.c ****   * @param  CANx:   where x can be 1 or 2 to to select the CAN peripheral.  
 964:.\stlib\STM32F10x_StdPeriph_Driver\src/stm32f10x_can.c ****   * @retval LSB of the 9-bit CAN Transmit Error Counter. 
 965:.\stlib\STM32F10x_StdPeriph_Driver\src/stm32f10x_can.c ****   */
 966:.\stlib\STM32F10x_StdPeriph_Driver\src/stm32f10x_can.c **** uint8_t CAN_GetLSBTransmitErrorCounter(CAN_TypeDef* CANx)
 967:.\stlib\STM32F10x_StdPeriph_Driver\src/stm32f10x_can.c **** {
 1916              		.loc 1 967 1 is_stmt 1 view -0
 1917              		.cfi_startproc
 1918              		@ args = 0, pretend = 0, frame = 0
 1919              		@ frame_needed = 0, uses_anonymous_args = 0
 1920              		@ link register save eliminated.
 968:.\stlib\STM32F10x_StdPeriph_Driver\src/stm32f10x_can.c ****   uint8_t counter=0;
 1921              		.loc 1 968 3 view .LVU565
 969:.\stlib\STM32F10x_StdPeriph_Driver\src/stm32f10x_can.c ****   
 970:.\stlib\STM32F10x_StdPeriph_Driver\src/stm32f10x_can.c ****   /* Check the parameters */
 971:.\stlib\STM32F10x_StdPeriph_Driver\src/stm32f10x_can.c ****   assert_param(IS_CAN_ALL_PERIPH(CANx));
 1922              		.loc 1 971 3 view .LVU566
 972:.\stlib\STM32F10x_StdPeriph_Driver\src/stm32f10x_can.c ****   
 973:.\stlib\STM32F10x_StdPeriph_Driver\src/stm32f10x_can.c ****   /* Get the LSB of the 9-bit CANx Transmit Error Counter(TEC) */
 974:.\stlib\STM32F10x_StdPeriph_Driver\src/stm32f10x_can.c ****   counter = (uint8_t)((CANx->ESR & CAN_ESR_TEC)>> 16);
 1923              		.loc 1 974 3 view .LVU567
 1924              	@ .\stlib\STM32F10x_StdPeriph_Driver\src\stm32f10x_can.c:974:   counter = (uint8_t)((CANx->ESR & CA
 1925              		.loc 1 974 28 is_stmt 0 view .LVU568
 1926 0550 8069     		ldr	r0, [r0, #24]	@ _1, CANx_4(D)->ESR
 1927              	.LVL89:
 975:.\stlib\STM32F10x_StdPeriph_Driver\src/stm32f10x_can.c ****   
 976:.\stlib\STM32F10x_StdPeriph_Driver\src/stm32f10x_can.c ****   /* Return the LSB of the 9-bit CANx Transmit Error Counter(TEC) */
 977:.\stlib\STM32F10x_StdPeriph_Driver\src/stm32f10x_can.c ****   return counter;
 1928              		.loc 1 977 3 is_stmt 1 view .LVU569
 1929              	@ .\stlib\STM32F10x_StdPeriph_Driver\src\stm32f10x_can.c:978: }
ARM GAS  C:\Users\skey\AppData\Local\Temp\ccv9NfrL.s 			page 54


 978:.\stlib\STM32F10x_StdPeriph_Driver\src/stm32f10x_can.c **** }
 1930              		.loc 1 978 1 is_stmt 0 view .LVU570
 1931 0552 C0F30740 		ubfx	r0, r0, #16, #8	@, _1,,
 1932              	.LVL90:
 1933              		.loc 1 978 1 view .LVU571
 1934 0556 7047     		bx	lr	@
 1935              		.cfi_endproc
 1936              	.LFE47:
 1937              		.size	CAN_GetLSBTransmitErrorCounter, .-CAN_GetLSBTransmitErrorCounter
 1938              		.align	1
 1939              		.global	CAN_ITConfig
 1940              		.syntax unified
 1941              		.thumb
 1942              		.thumb_func
 1943              		.fpu softvfp
 1944              		.type	CAN_ITConfig, %function
 1945              	CAN_ITConfig:
 1946              	.LVL91:
 1947              	.LFB48:
 979:.\stlib\STM32F10x_StdPeriph_Driver\src/stm32f10x_can.c **** 
 980:.\stlib\STM32F10x_StdPeriph_Driver\src/stm32f10x_can.c **** 
 981:.\stlib\STM32F10x_StdPeriph_Driver\src/stm32f10x_can.c **** /**
 982:.\stlib\STM32F10x_StdPeriph_Driver\src/stm32f10x_can.c ****   * @brief  Enables or disables the specified CANx interrupts.
 983:.\stlib\STM32F10x_StdPeriph_Driver\src/stm32f10x_can.c ****   * @param  CANx:   where x can be 1 or 2 to to select the CAN peripheral.
 984:.\stlib\STM32F10x_StdPeriph_Driver\src/stm32f10x_can.c ****   * @param  CAN_IT: specifies the CAN interrupt sources to be enabled or disabled.
 985:.\stlib\STM32F10x_StdPeriph_Driver\src/stm32f10x_can.c ****   *                 This parameter can be: 
 986:.\stlib\STM32F10x_StdPeriph_Driver\src/stm32f10x_can.c ****   *                 - CAN_IT_TME, 
 987:.\stlib\STM32F10x_StdPeriph_Driver\src/stm32f10x_can.c ****   *                 - CAN_IT_FMP0, 
 988:.\stlib\STM32F10x_StdPeriph_Driver\src/stm32f10x_can.c ****   *                 - CAN_IT_FF0,
 989:.\stlib\STM32F10x_StdPeriph_Driver\src/stm32f10x_can.c ****   *                 - CAN_IT_FOV0, 
 990:.\stlib\STM32F10x_StdPeriph_Driver\src/stm32f10x_can.c ****   *                 - CAN_IT_FMP1, 
 991:.\stlib\STM32F10x_StdPeriph_Driver\src/stm32f10x_can.c ****   *                 - CAN_IT_FF1,
 992:.\stlib\STM32F10x_StdPeriph_Driver\src/stm32f10x_can.c ****   *                 - CAN_IT_FOV1, 
 993:.\stlib\STM32F10x_StdPeriph_Driver\src/stm32f10x_can.c ****   *                 - CAN_IT_EWG, 
 994:.\stlib\STM32F10x_StdPeriph_Driver\src/stm32f10x_can.c ****   *                 - CAN_IT_EPV,
 995:.\stlib\STM32F10x_StdPeriph_Driver\src/stm32f10x_can.c ****   *                 - CAN_IT_LEC, 
 996:.\stlib\STM32F10x_StdPeriph_Driver\src/stm32f10x_can.c ****   *                 - CAN_IT_ERR, 
 997:.\stlib\STM32F10x_StdPeriph_Driver\src/stm32f10x_can.c ****   *                 - CAN_IT_WKU or 
 998:.\stlib\STM32F10x_StdPeriph_Driver\src/stm32f10x_can.c ****   *                 - CAN_IT_SLK.
 999:.\stlib\STM32F10x_StdPeriph_Driver\src/stm32f10x_can.c ****   * @param  NewState: new state of the CAN interrupts.
1000:.\stlib\STM32F10x_StdPeriph_Driver\src/stm32f10x_can.c ****   *                   This parameter can be: ENABLE or DISABLE.
1001:.\stlib\STM32F10x_StdPeriph_Driver\src/stm32f10x_can.c ****   * @retval None.
1002:.\stlib\STM32F10x_StdPeriph_Driver\src/stm32f10x_can.c ****   */
1003:.\stlib\STM32F10x_StdPeriph_Driver\src/stm32f10x_can.c **** void CAN_ITConfig(CAN_TypeDef* CANx, uint32_t CAN_IT, FunctionalState NewState)
1004:.\stlib\STM32F10x_StdPeriph_Driver\src/stm32f10x_can.c **** {
 1948              		.loc 1 1004 1 is_stmt 1 view -0
 1949              		.cfi_startproc
 1950              		@ args = 0, pretend = 0, frame = 0
 1951              		@ frame_needed = 0, uses_anonymous_args = 0
 1952              		@ link register save eliminated.
1005:.\stlib\STM32F10x_StdPeriph_Driver\src/stm32f10x_can.c ****   /* Check the parameters */
1006:.\stlib\STM32F10x_StdPeriph_Driver\src/stm32f10x_can.c ****   assert_param(IS_CAN_ALL_PERIPH(CANx));
 1953              		.loc 1 1006 3 view .LVU573
1007:.\stlib\STM32F10x_StdPeriph_Driver\src/stm32f10x_can.c ****   assert_param(IS_CAN_IT(CAN_IT));
 1954              		.loc 1 1007 3 view .LVU574
1008:.\stlib\STM32F10x_StdPeriph_Driver\src/stm32f10x_can.c ****   assert_param(IS_FUNCTIONAL_STATE(NewState));
 1955              		.loc 1 1008 3 view .LVU575
ARM GAS  C:\Users\skey\AppData\Local\Temp\ccv9NfrL.s 			page 55


1009:.\stlib\STM32F10x_StdPeriph_Driver\src/stm32f10x_can.c **** 
1010:.\stlib\STM32F10x_StdPeriph_Driver\src/stm32f10x_can.c ****   if (NewState != DISABLE)
 1956              		.loc 1 1010 3 view .LVU576
 1957              	@ .\stlib\STM32F10x_StdPeriph_Driver\src\stm32f10x_can.c:1013:     CANx->IER |= CAN_IT;
1011:.\stlib\STM32F10x_StdPeriph_Driver\src/stm32f10x_can.c ****   {
1012:.\stlib\STM32F10x_StdPeriph_Driver\src/stm32f10x_can.c ****     /* Enable the selected CANx interrupt */
1013:.\stlib\STM32F10x_StdPeriph_Driver\src/stm32f10x_can.c ****     CANx->IER |= CAN_IT;
 1958              		.loc 1 1013 15 is_stmt 0 view .LVU577
 1959 0558 4369     		ldr	r3, [r0, #20]	@ _1,
 1960              	@ .\stlib\STM32F10x_StdPeriph_Driver\src\stm32f10x_can.c:1010:   if (NewState != DISABLE)
1010:.\stlib\STM32F10x_StdPeriph_Driver\src/stm32f10x_can.c ****   {
 1961              		.loc 1 1010 6 view .LVU578
 1962 055a 12B1     		cbz	r2, .L134	@ tmp121,
 1963              		.loc 1 1013 5 is_stmt 1 view .LVU579
 1964              	@ .\stlib\STM32F10x_StdPeriph_Driver\src\stm32f10x_can.c:1013:     CANx->IER |= CAN_IT;
 1965              		.loc 1 1013 15 is_stmt 0 view .LVU580
 1966 055c 1943     		orrs	r1, r1, r3	@, _2, CAN_IT, _1
 1967              	.LVL92:
 1968              	.L136:
 1969              	@ .\stlib\STM32F10x_StdPeriph_Driver\src\stm32f10x_can.c:1018:     CANx->IER &= ~CAN_IT;
1014:.\stlib\STM32F10x_StdPeriph_Driver\src/stm32f10x_can.c ****   }
1015:.\stlib\STM32F10x_StdPeriph_Driver\src/stm32f10x_can.c ****   else
1016:.\stlib\STM32F10x_StdPeriph_Driver\src/stm32f10x_can.c ****   {
1017:.\stlib\STM32F10x_StdPeriph_Driver\src/stm32f10x_can.c ****     /* Disable the selected CANx interrupt */
1018:.\stlib\STM32F10x_StdPeriph_Driver\src/stm32f10x_can.c ****     CANx->IER &= ~CAN_IT;
 1970              		.loc 1 1018 15 view .LVU581
 1971 055e 4161     		str	r1, [r0, #20]	@ _5,
 1972              	@ .\stlib\STM32F10x_StdPeriph_Driver\src\stm32f10x_can.c:1020: }
1019:.\stlib\STM32F10x_StdPeriph_Driver\src/stm32f10x_can.c ****   }
1020:.\stlib\STM32F10x_StdPeriph_Driver\src/stm32f10x_can.c **** }
 1973              		.loc 1 1020 1 view .LVU582
 1974 0560 7047     		bx	lr	@
 1975              	.LVL93:
 1976              	.L134:
1018:.\stlib\STM32F10x_StdPeriph_Driver\src/stm32f10x_can.c ****   }
 1977              		.loc 1 1018 5 is_stmt 1 view .LVU583
 1978              	@ .\stlib\STM32F10x_StdPeriph_Driver\src\stm32f10x_can.c:1018:     CANx->IER &= ~CAN_IT;
1018:.\stlib\STM32F10x_StdPeriph_Driver\src/stm32f10x_can.c ****   }
 1979              		.loc 1 1018 15 is_stmt 0 view .LVU584
 1980 0562 23EA0101 		bic	r1, r3, r1	@ _5, _3, CAN_IT
 1981              	.LVL94:
1018:.\stlib\STM32F10x_StdPeriph_Driver\src/stm32f10x_can.c ****   }
 1982              		.loc 1 1018 15 view .LVU585
 1983 0566 FAE7     		b	.L136		@
 1984              		.cfi_endproc
 1985              	.LFE48:
 1986              		.size	CAN_ITConfig, .-CAN_ITConfig
 1987              		.align	1
 1988              		.global	CAN_GetFlagStatus
 1989              		.syntax unified
 1990              		.thumb
 1991              		.thumb_func
 1992              		.fpu softvfp
 1993              		.type	CAN_GetFlagStatus, %function
 1994              	CAN_GetFlagStatus:
 1995              	.LVL95:
 1996              	.LFB49:
ARM GAS  C:\Users\skey\AppData\Local\Temp\ccv9NfrL.s 			page 56


1021:.\stlib\STM32F10x_StdPeriph_Driver\src/stm32f10x_can.c **** /**
1022:.\stlib\STM32F10x_StdPeriph_Driver\src/stm32f10x_can.c ****   * @brief  Checks whether the specified CAN flag is set or not.
1023:.\stlib\STM32F10x_StdPeriph_Driver\src/stm32f10x_can.c ****   * @param  CANx:     where x can be 1 or 2 to to select the CAN peripheral.
1024:.\stlib\STM32F10x_StdPeriph_Driver\src/stm32f10x_can.c ****   * @param  CAN_FLAG: specifies the flag to check.
1025:.\stlib\STM32F10x_StdPeriph_Driver\src/stm32f10x_can.c ****   *                   This parameter can be one of the following flags: 
1026:.\stlib\STM32F10x_StdPeriph_Driver\src/stm32f10x_can.c ****   *                  - CAN_FLAG_EWG
1027:.\stlib\STM32F10x_StdPeriph_Driver\src/stm32f10x_can.c ****   *                  - CAN_FLAG_EPV 
1028:.\stlib\STM32F10x_StdPeriph_Driver\src/stm32f10x_can.c ****   *                  - CAN_FLAG_BOF
1029:.\stlib\STM32F10x_StdPeriph_Driver\src/stm32f10x_can.c ****   *                  - CAN_FLAG_RQCP0
1030:.\stlib\STM32F10x_StdPeriph_Driver\src/stm32f10x_can.c ****   *                  - CAN_FLAG_RQCP1
1031:.\stlib\STM32F10x_StdPeriph_Driver\src/stm32f10x_can.c ****   *                  - CAN_FLAG_RQCP2
1032:.\stlib\STM32F10x_StdPeriph_Driver\src/stm32f10x_can.c ****   *                  - CAN_FLAG_FMP1   
1033:.\stlib\STM32F10x_StdPeriph_Driver\src/stm32f10x_can.c ****   *                  - CAN_FLAG_FF1       
1034:.\stlib\STM32F10x_StdPeriph_Driver\src/stm32f10x_can.c ****   *                  - CAN_FLAG_FOV1   
1035:.\stlib\STM32F10x_StdPeriph_Driver\src/stm32f10x_can.c ****   *                  - CAN_FLAG_FMP0   
1036:.\stlib\STM32F10x_StdPeriph_Driver\src/stm32f10x_can.c ****   *                  - CAN_FLAG_FF0       
1037:.\stlib\STM32F10x_StdPeriph_Driver\src/stm32f10x_can.c ****   *                  - CAN_FLAG_FOV0   
1038:.\stlib\STM32F10x_StdPeriph_Driver\src/stm32f10x_can.c ****   *                  - CAN_FLAG_WKU 
1039:.\stlib\STM32F10x_StdPeriph_Driver\src/stm32f10x_can.c ****   *                  - CAN_FLAG_SLAK  
1040:.\stlib\STM32F10x_StdPeriph_Driver\src/stm32f10x_can.c ****   *                  - CAN_FLAG_LEC       
1041:.\stlib\STM32F10x_StdPeriph_Driver\src/stm32f10x_can.c ****   * @retval The new state of CAN_FLAG (SET or RESET).
1042:.\stlib\STM32F10x_StdPeriph_Driver\src/stm32f10x_can.c ****   */
1043:.\stlib\STM32F10x_StdPeriph_Driver\src/stm32f10x_can.c **** FlagStatus CAN_GetFlagStatus(CAN_TypeDef* CANx, uint32_t CAN_FLAG)
1044:.\stlib\STM32F10x_StdPeriph_Driver\src/stm32f10x_can.c **** {
 1997              		.loc 1 1044 1 is_stmt 1 view -0
 1998              		.cfi_startproc
 1999              		@ args = 0, pretend = 0, frame = 0
 2000              		@ frame_needed = 0, uses_anonymous_args = 0
 2001              		@ link register save eliminated.
1045:.\stlib\STM32F10x_StdPeriph_Driver\src/stm32f10x_can.c ****   FlagStatus bitstatus = RESET;
 2002              		.loc 1 1045 3 view .LVU587
1046:.\stlib\STM32F10x_StdPeriph_Driver\src/stm32f10x_can.c ****   
1047:.\stlib\STM32F10x_StdPeriph_Driver\src/stm32f10x_can.c ****   /* Check the parameters */
1048:.\stlib\STM32F10x_StdPeriph_Driver\src/stm32f10x_can.c ****   assert_param(IS_CAN_ALL_PERIPH(CANx));
 2003              		.loc 1 1048 3 view .LVU588
1049:.\stlib\STM32F10x_StdPeriph_Driver\src/stm32f10x_can.c ****   assert_param(IS_CAN_GET_FLAG(CAN_FLAG));
 2004              		.loc 1 1049 3 view .LVU589
1050:.\stlib\STM32F10x_StdPeriph_Driver\src/stm32f10x_can.c ****   
1051:.\stlib\STM32F10x_StdPeriph_Driver\src/stm32f10x_can.c **** 
1052:.\stlib\STM32F10x_StdPeriph_Driver\src/stm32f10x_can.c ****   if((CAN_FLAG & CAN_FLAGS_ESR) != (uint32_t)RESET)
 2005              		.loc 1 1052 3 view .LVU590
 2006              	@ .\stlib\STM32F10x_StdPeriph_Driver\src\stm32f10x_can.c:1052:   if((CAN_FLAG & CAN_FLAGS_ESR) != (
 2007              		.loc 1 1052 5 is_stmt 0 view .LVU591
 2008 0568 11F4700F 		tst	r1, #15728640	@ CAN_FLAG,
 2009              	@ .\stlib\STM32F10x_StdPeriph_Driver\src\stm32f10x_can.c:1044: {
1044:.\stlib\STM32F10x_StdPeriph_Driver\src/stm32f10x_can.c ****   FlagStatus bitstatus = RESET;
 2010              		.loc 1 1044 1 view .LVU592
 2011 056c 0346     		mov	r3, r0	@ CANx, tmp167
 2012              	@ .\stlib\STM32F10x_StdPeriph_Driver\src\stm32f10x_can.c:1052:   if((CAN_FLAG & CAN_FLAGS_ESR) != (
 2013              		.loc 1 1052 5 view .LVU593
 2014 056e 07D0     		beq	.L138		@,
1053:.\stlib\STM32F10x_StdPeriph_Driver\src/stm32f10x_can.c ****   { 
1054:.\stlib\STM32F10x_StdPeriph_Driver\src/stm32f10x_can.c ****     /* Check the status of the specified CAN flag */
1055:.\stlib\STM32F10x_StdPeriph_Driver\src/stm32f10x_can.c ****     if ((CANx->ESR & (CAN_FLAG & 0x000FFFFF)) != (uint32_t)RESET)
 2015              		.loc 1 1055 5 is_stmt 1 view .LVU594
 2016              	@ .\stlib\STM32F10x_StdPeriph_Driver\src\stm32f10x_can.c:1055:     if ((CANx->ESR & (CAN_FLAG & 0x0
 2017              		.loc 1 1055 14 is_stmt 0 view .LVU595
ARM GAS  C:\Users\skey\AppData\Local\Temp\ccv9NfrL.s 			page 57


 2018 0570 8069     		ldr	r0, [r0, #24]	@ _2, CANx_23(D)->ESR
 2019              	.LVL96:
 2020              	.L143:
 2021              	@ .\stlib\STM32F10x_StdPeriph_Driver\src\stm32f10x_can.c:1111:     if ((uint32_t)(CANx->RF1R & (CAN
1056:.\stlib\STM32F10x_StdPeriph_Driver\src/stm32f10x_can.c ****     { 
1057:.\stlib\STM32F10x_StdPeriph_Driver\src/stm32f10x_can.c ****       /* CAN_FLAG is set */
1058:.\stlib\STM32F10x_StdPeriph_Driver\src/stm32f10x_can.c ****       bitstatus = SET;
1059:.\stlib\STM32F10x_StdPeriph_Driver\src/stm32f10x_can.c ****     }
1060:.\stlib\STM32F10x_StdPeriph_Driver\src/stm32f10x_can.c ****     else
1061:.\stlib\STM32F10x_StdPeriph_Driver\src/stm32f10x_can.c ****     { 
1062:.\stlib\STM32F10x_StdPeriph_Driver\src/stm32f10x_can.c ****       /* CAN_FLAG is reset */
1063:.\stlib\STM32F10x_StdPeriph_Driver\src/stm32f10x_can.c ****       bitstatus = RESET;
1064:.\stlib\STM32F10x_StdPeriph_Driver\src/stm32f10x_can.c ****     }
1065:.\stlib\STM32F10x_StdPeriph_Driver\src/stm32f10x_can.c ****   }
1066:.\stlib\STM32F10x_StdPeriph_Driver\src/stm32f10x_can.c ****   else if((CAN_FLAG & CAN_FLAGS_MSR) != (uint32_t)RESET)
1067:.\stlib\STM32F10x_StdPeriph_Driver\src/stm32f10x_can.c ****   { 
1068:.\stlib\STM32F10x_StdPeriph_Driver\src/stm32f10x_can.c ****     /* Check the status of the specified CAN flag */
1069:.\stlib\STM32F10x_StdPeriph_Driver\src/stm32f10x_can.c ****     if ((CANx->MSR & (CAN_FLAG & 0x000FFFFF)) != (uint32_t)RESET)
1070:.\stlib\STM32F10x_StdPeriph_Driver\src/stm32f10x_can.c ****     { 
1071:.\stlib\STM32F10x_StdPeriph_Driver\src/stm32f10x_can.c ****       /* CAN_FLAG is set */
1072:.\stlib\STM32F10x_StdPeriph_Driver\src/stm32f10x_can.c ****       bitstatus = SET;
1073:.\stlib\STM32F10x_StdPeriph_Driver\src/stm32f10x_can.c ****     }
1074:.\stlib\STM32F10x_StdPeriph_Driver\src/stm32f10x_can.c ****     else
1075:.\stlib\STM32F10x_StdPeriph_Driver\src/stm32f10x_can.c ****     { 
1076:.\stlib\STM32F10x_StdPeriph_Driver\src/stm32f10x_can.c ****       /* CAN_FLAG is reset */
1077:.\stlib\STM32F10x_StdPeriph_Driver\src/stm32f10x_can.c ****       bitstatus = RESET;
1078:.\stlib\STM32F10x_StdPeriph_Driver\src/stm32f10x_can.c ****     }
1079:.\stlib\STM32F10x_StdPeriph_Driver\src/stm32f10x_can.c ****   }
1080:.\stlib\STM32F10x_StdPeriph_Driver\src/stm32f10x_can.c ****   else if((CAN_FLAG & CAN_FLAGS_TSR) != (uint32_t)RESET)
1081:.\stlib\STM32F10x_StdPeriph_Driver\src/stm32f10x_can.c ****   { 
1082:.\stlib\STM32F10x_StdPeriph_Driver\src/stm32f10x_can.c ****     /* Check the status of the specified CAN flag */
1083:.\stlib\STM32F10x_StdPeriph_Driver\src/stm32f10x_can.c ****     if ((CANx->TSR & (CAN_FLAG & 0x000FFFFF)) != (uint32_t)RESET)
1084:.\stlib\STM32F10x_StdPeriph_Driver\src/stm32f10x_can.c ****     { 
1085:.\stlib\STM32F10x_StdPeriph_Driver\src/stm32f10x_can.c ****       /* CAN_FLAG is set */
1086:.\stlib\STM32F10x_StdPeriph_Driver\src/stm32f10x_can.c ****       bitstatus = SET;
1087:.\stlib\STM32F10x_StdPeriph_Driver\src/stm32f10x_can.c ****     }
1088:.\stlib\STM32F10x_StdPeriph_Driver\src/stm32f10x_can.c ****     else
1089:.\stlib\STM32F10x_StdPeriph_Driver\src/stm32f10x_can.c ****     { 
1090:.\stlib\STM32F10x_StdPeriph_Driver\src/stm32f10x_can.c ****       /* CAN_FLAG is reset */
1091:.\stlib\STM32F10x_StdPeriph_Driver\src/stm32f10x_can.c ****       bitstatus = RESET;
1092:.\stlib\STM32F10x_StdPeriph_Driver\src/stm32f10x_can.c ****     }
1093:.\stlib\STM32F10x_StdPeriph_Driver\src/stm32f10x_can.c ****   }
1094:.\stlib\STM32F10x_StdPeriph_Driver\src/stm32f10x_can.c ****   else if((CAN_FLAG & CAN_FLAGS_RF0R) != (uint32_t)RESET)
1095:.\stlib\STM32F10x_StdPeriph_Driver\src/stm32f10x_can.c ****   { 
1096:.\stlib\STM32F10x_StdPeriph_Driver\src/stm32f10x_can.c ****     /* Check the status of the specified CAN flag */
1097:.\stlib\STM32F10x_StdPeriph_Driver\src/stm32f10x_can.c ****     if ((CANx->RF0R & (CAN_FLAG & 0x000FFFFF)) != (uint32_t)RESET)
1098:.\stlib\STM32F10x_StdPeriph_Driver\src/stm32f10x_can.c ****     { 
1099:.\stlib\STM32F10x_StdPeriph_Driver\src/stm32f10x_can.c ****       /* CAN_FLAG is set */
1100:.\stlib\STM32F10x_StdPeriph_Driver\src/stm32f10x_can.c ****       bitstatus = SET;
1101:.\stlib\STM32F10x_StdPeriph_Driver\src/stm32f10x_can.c ****     }
1102:.\stlib\STM32F10x_StdPeriph_Driver\src/stm32f10x_can.c ****     else
1103:.\stlib\STM32F10x_StdPeriph_Driver\src/stm32f10x_can.c ****     { 
1104:.\stlib\STM32F10x_StdPeriph_Driver\src/stm32f10x_can.c ****       /* CAN_FLAG is reset */
1105:.\stlib\STM32F10x_StdPeriph_Driver\src/stm32f10x_can.c ****       bitstatus = RESET;
1106:.\stlib\STM32F10x_StdPeriph_Driver\src/stm32f10x_can.c ****     }
1107:.\stlib\STM32F10x_StdPeriph_Driver\src/stm32f10x_can.c ****   }
1108:.\stlib\STM32F10x_StdPeriph_Driver\src/stm32f10x_can.c ****   else /* If(CAN_FLAG & CAN_FLAGS_RF1R != (uint32_t)RESET) */
ARM GAS  C:\Users\skey\AppData\Local\Temp\ccv9NfrL.s 			page 58


1109:.\stlib\STM32F10x_StdPeriph_Driver\src/stm32f10x_can.c ****   { 
1110:.\stlib\STM32F10x_StdPeriph_Driver\src/stm32f10x_can.c ****     /* Check the status of the specified CAN flag */
1111:.\stlib\STM32F10x_StdPeriph_Driver\src/stm32f10x_can.c ****     if ((uint32_t)(CANx->RF1R & (CAN_FLAG & 0x000FFFFF)) != (uint32_t)RESET)
 2022              		.loc 1 1111 9 view .LVU596
 2023 0572 0840     		ands	r0, r0, r1	@, tmp161, _17, CAN_FLAG
 2024 0574 C0F31300 		ubfx	r0, r0, #0, #20	@ tmp162, tmp161,,
 2025              	@ .\stlib\STM32F10x_StdPeriph_Driver\src\stm32f10x_can.c:1063:       bitstatus = RESET;
1063:.\stlib\STM32F10x_StdPeriph_Driver\src/stm32f10x_can.c ****     }
 2026              		.loc 1 1063 17 view .LVU597
 2027 0578 0038     		subs	r0, r0, #0	@ <retval>, tmp162,
 2028 057a 18BF     		it	ne
 2029 057c 0120     		movne	r0, #1	@ <retval>,
 2030              	.LVL97:
1112:.\stlib\STM32F10x_StdPeriph_Driver\src/stm32f10x_can.c ****     { 
1113:.\stlib\STM32F10x_StdPeriph_Driver\src/stm32f10x_can.c ****       /* CAN_FLAG is set */
1114:.\stlib\STM32F10x_StdPeriph_Driver\src/stm32f10x_can.c ****       bitstatus = SET;
1115:.\stlib\STM32F10x_StdPeriph_Driver\src/stm32f10x_can.c ****     }
1116:.\stlib\STM32F10x_StdPeriph_Driver\src/stm32f10x_can.c ****     else
1117:.\stlib\STM32F10x_StdPeriph_Driver\src/stm32f10x_can.c ****     { 
1118:.\stlib\STM32F10x_StdPeriph_Driver\src/stm32f10x_can.c ****       /* CAN_FLAG is reset */
1119:.\stlib\STM32F10x_StdPeriph_Driver\src/stm32f10x_can.c ****       bitstatus = RESET;
1120:.\stlib\STM32F10x_StdPeriph_Driver\src/stm32f10x_can.c ****     }
1121:.\stlib\STM32F10x_StdPeriph_Driver\src/stm32f10x_can.c ****   }
1122:.\stlib\STM32F10x_StdPeriph_Driver\src/stm32f10x_can.c ****   /* Return the CAN_FLAG status */
1123:.\stlib\STM32F10x_StdPeriph_Driver\src/stm32f10x_can.c ****   return  bitstatus;
 2031              		.loc 1 1123 3 is_stmt 1 view .LVU598
 2032              	@ .\stlib\STM32F10x_StdPeriph_Driver\src\stm32f10x_can.c:1124: }
1124:.\stlib\STM32F10x_StdPeriph_Driver\src/stm32f10x_can.c **** }
 2033              		.loc 1 1124 1 is_stmt 0 view .LVU599
 2034 057e 7047     		bx	lr	@
 2035              	.LVL98:
 2036              	.L138:
1066:.\stlib\STM32F10x_StdPeriph_Driver\src/stm32f10x_can.c ****   { 
 2037              		.loc 1 1066 8 is_stmt 1 view .LVU600
 2038              	@ .\stlib\STM32F10x_StdPeriph_Driver\src\stm32f10x_can.c:1066:   else if((CAN_FLAG & CAN_FLAGS_MSR)
1066:.\stlib\STM32F10x_StdPeriph_Driver\src/stm32f10x_can.c ****   { 
 2039              		.loc 1 1066 10 is_stmt 0 view .LVU601
 2040 0580 CA01     		lsls	r2, r1, #7	@, CAN_FLAG,
 2041 0582 01D5     		bpl	.L140		@,
1069:.\stlib\STM32F10x_StdPeriph_Driver\src/stm32f10x_can.c ****     { 
 2042              		.loc 1 1069 5 is_stmt 1 view .LVU602
 2043              	@ .\stlib\STM32F10x_StdPeriph_Driver\src\stm32f10x_can.c:1069:     if ((CANx->MSR & (CAN_FLAG & 0x0
1069:.\stlib\STM32F10x_StdPeriph_Driver\src/stm32f10x_can.c ****     { 
 2044              		.loc 1 1069 14 is_stmt 0 view .LVU603
 2045 0584 4068     		ldr	r0, [r0, #4]	@ _6, CANx_23(D)->MSR
 2046              	.LVL99:
1069:.\stlib\STM32F10x_StdPeriph_Driver\src/stm32f10x_can.c ****     { 
 2047              		.loc 1 1069 14 view .LVU604
 2048 0586 F4E7     		b	.L143		@
 2049              	.LVL100:
 2050              	.L140:
1080:.\stlib\STM32F10x_StdPeriph_Driver\src/stm32f10x_can.c ****   { 
 2051              		.loc 1 1080 8 is_stmt 1 view .LVU605
 2052              	@ .\stlib\STM32F10x_StdPeriph_Driver\src\stm32f10x_can.c:1080:   else if((CAN_FLAG & CAN_FLAGS_TSR)
1080:.\stlib\STM32F10x_StdPeriph_Driver\src/stm32f10x_can.c ****   { 
 2053              		.loc 1 1080 10 is_stmt 0 view .LVU606
 2054 0588 0801     		lsls	r0, r1, #4	@, CAN_FLAG,
ARM GAS  C:\Users\skey\AppData\Local\Temp\ccv9NfrL.s 			page 59


 2055              	.LVL101:
1080:.\stlib\STM32F10x_StdPeriph_Driver\src/stm32f10x_can.c ****   { 
 2056              		.loc 1 1080 10 view .LVU607
 2057 058a 01D5     		bpl	.L141		@,
1083:.\stlib\STM32F10x_StdPeriph_Driver\src/stm32f10x_can.c ****     { 
 2058              		.loc 1 1083 5 is_stmt 1 view .LVU608
 2059              	@ .\stlib\STM32F10x_StdPeriph_Driver\src\stm32f10x_can.c:1083:     if ((CANx->TSR & (CAN_FLAG & 0x0
1083:.\stlib\STM32F10x_StdPeriph_Driver\src/stm32f10x_can.c ****     { 
 2060              		.loc 1 1083 14 is_stmt 0 view .LVU609
 2061 058c 9868     		ldr	r0, [r3, #8]	@ _10, CANx_23(D)->TSR
 2062 058e F0E7     		b	.L143		@
 2063              	.L141:
1094:.\stlib\STM32F10x_StdPeriph_Driver\src/stm32f10x_can.c ****   { 
 2064              		.loc 1 1094 8 is_stmt 1 view .LVU610
 2065              	@ .\stlib\STM32F10x_StdPeriph_Driver\src\stm32f10x_can.c:1094:   else if((CAN_FLAG & CAN_FLAGS_RF0R
1094:.\stlib\STM32F10x_StdPeriph_Driver\src/stm32f10x_can.c ****   { 
 2066              		.loc 1 1094 10 is_stmt 0 view .LVU611
 2067 0590 8A01     		lsls	r2, r1, #6	@, CAN_FLAG,
1097:.\stlib\STM32F10x_StdPeriph_Driver\src/stm32f10x_can.c ****     { 
 2068              		.loc 1 1097 5 is_stmt 1 view .LVU612
 2069              	@ .\stlib\STM32F10x_StdPeriph_Driver\src\stm32f10x_can.c:1097:     if ((CANx->RF0R & (CAN_FLAG & 0x
1097:.\stlib\STM32F10x_StdPeriph_Driver\src/stm32f10x_can.c ****     { 
 2070              		.loc 1 1097 14 is_stmt 0 view .LVU613
 2071 0592 4CBF     		ite	mi
 2072 0594 D868     		ldrmi	r0, [r3, #12]	@ _14, CANx_23(D)->RF0R
1111:.\stlib\STM32F10x_StdPeriph_Driver\src/stm32f10x_can.c ****     { 
 2073              		.loc 1 1111 5 is_stmt 1 view .LVU614
 2074              	@ .\stlib\STM32F10x_StdPeriph_Driver\src\stm32f10x_can.c:1111:     if ((uint32_t)(CANx->RF1R & (CAN
1111:.\stlib\STM32F10x_StdPeriph_Driver\src/stm32f10x_can.c ****     { 
 2075              		.loc 1 1111 24 is_stmt 0 view .LVU615
 2076 0596 1869     		ldrpl	r0, [r3, #16]	@ _17, CANx_23(D)->RF1R
 2077 0598 EBE7     		b	.L143		@
 2078              		.cfi_endproc
 2079              	.LFE49:
 2080              		.size	CAN_GetFlagStatus, .-CAN_GetFlagStatus
 2081              		.align	1
 2082              		.global	CAN_ClearFlag
 2083              		.syntax unified
 2084              		.thumb
 2085              		.thumb_func
 2086              		.fpu softvfp
 2087              		.type	CAN_ClearFlag, %function
 2088              	CAN_ClearFlag:
 2089              	.LVL102:
 2090              	.LFB50:
1125:.\stlib\STM32F10x_StdPeriph_Driver\src/stm32f10x_can.c **** 
1126:.\stlib\STM32F10x_StdPeriph_Driver\src/stm32f10x_can.c **** /**
1127:.\stlib\STM32F10x_StdPeriph_Driver\src/stm32f10x_can.c ****   * @brief  Clears the CAN's pending flags.
1128:.\stlib\STM32F10x_StdPeriph_Driver\src/stm32f10x_can.c ****   * @param  CANx:     where x can be 1 or 2 to to select the CAN peripheral.
1129:.\stlib\STM32F10x_StdPeriph_Driver\src/stm32f10x_can.c ****   * @param  CAN_FLAG: specifies the flag to clear.
1130:.\stlib\STM32F10x_StdPeriph_Driver\src/stm32f10x_can.c ****   *                   This parameter can be one of the following flags: 
1131:.\stlib\STM32F10x_StdPeriph_Driver\src/stm32f10x_can.c ****   *                    - CAN_FLAG_RQCP0
1132:.\stlib\STM32F10x_StdPeriph_Driver\src/stm32f10x_can.c ****   *                    - CAN_FLAG_RQCP1
1133:.\stlib\STM32F10x_StdPeriph_Driver\src/stm32f10x_can.c ****   *                    - CAN_FLAG_RQCP2
1134:.\stlib\STM32F10x_StdPeriph_Driver\src/stm32f10x_can.c ****   *                    - CAN_FLAG_FF1       
1135:.\stlib\STM32F10x_StdPeriph_Driver\src/stm32f10x_can.c ****   *                    - CAN_FLAG_FOV1   
1136:.\stlib\STM32F10x_StdPeriph_Driver\src/stm32f10x_can.c ****   *                    - CAN_FLAG_FF0       
ARM GAS  C:\Users\skey\AppData\Local\Temp\ccv9NfrL.s 			page 60


1137:.\stlib\STM32F10x_StdPeriph_Driver\src/stm32f10x_can.c ****   *                    - CAN_FLAG_FOV0   
1138:.\stlib\STM32F10x_StdPeriph_Driver\src/stm32f10x_can.c ****   *                    - CAN_FLAG_WKU   
1139:.\stlib\STM32F10x_StdPeriph_Driver\src/stm32f10x_can.c ****   *                    - CAN_FLAG_SLAK    
1140:.\stlib\STM32F10x_StdPeriph_Driver\src/stm32f10x_can.c ****   *                    - CAN_FLAG_LEC       
1141:.\stlib\STM32F10x_StdPeriph_Driver\src/stm32f10x_can.c ****   * @retval None.
1142:.\stlib\STM32F10x_StdPeriph_Driver\src/stm32f10x_can.c ****   */
1143:.\stlib\STM32F10x_StdPeriph_Driver\src/stm32f10x_can.c **** void CAN_ClearFlag(CAN_TypeDef* CANx, uint32_t CAN_FLAG)
1144:.\stlib\STM32F10x_StdPeriph_Driver\src/stm32f10x_can.c **** {
 2091              		.loc 1 1144 1 is_stmt 1 view -0
 2092              		.cfi_startproc
 2093              		@ args = 0, pretend = 0, frame = 0
 2094              		@ frame_needed = 0, uses_anonymous_args = 0
 2095              		@ link register save eliminated.
1145:.\stlib\STM32F10x_StdPeriph_Driver\src/stm32f10x_can.c ****   uint32_t flagtmp=0;
 2096              		.loc 1 1145 3 view .LVU617
1146:.\stlib\STM32F10x_StdPeriph_Driver\src/stm32f10x_can.c ****   /* Check the parameters */
1147:.\stlib\STM32F10x_StdPeriph_Driver\src/stm32f10x_can.c ****   assert_param(IS_CAN_ALL_PERIPH(CANx));
 2097              		.loc 1 1147 3 view .LVU618
1148:.\stlib\STM32F10x_StdPeriph_Driver\src/stm32f10x_can.c ****   assert_param(IS_CAN_CLEAR_FLAG(CAN_FLAG));
 2098              		.loc 1 1148 3 view .LVU619
1149:.\stlib\STM32F10x_StdPeriph_Driver\src/stm32f10x_can.c ****   
1150:.\stlib\STM32F10x_StdPeriph_Driver\src/stm32f10x_can.c ****   if (CAN_FLAG == CAN_FLAG_LEC) /* ESR register */
 2099              		.loc 1 1150 3 view .LVU620
 2100              	@ .\stlib\STM32F10x_StdPeriph_Driver\src\stm32f10x_can.c:1150:   if (CAN_FLAG == CAN_FLAG_LEC) /* E
 2101              		.loc 1 1150 6 is_stmt 0 view .LVU621
 2102 059a 0A4B     		ldr	r3, .L150	@ tmp116,
 2103 059c 9942     		cmp	r1, r3	@ CAN_FLAG, tmp116
 2104 059e 02D1     		bne	.L145		@,
1151:.\stlib\STM32F10x_StdPeriph_Driver\src/stm32f10x_can.c ****   {
1152:.\stlib\STM32F10x_StdPeriph_Driver\src/stm32f10x_can.c ****     /* Clear the selected CAN flags */
1153:.\stlib\STM32F10x_StdPeriph_Driver\src/stm32f10x_can.c ****     CANx->ESR = (uint32_t)RESET;
 2105              		.loc 1 1153 5 is_stmt 1 view .LVU622
 2106              	@ .\stlib\STM32F10x_StdPeriph_Driver\src\stm32f10x_can.c:1153:     CANx->ESR = (uint32_t)RESET;
 2107              		.loc 1 1153 15 is_stmt 0 view .LVU623
 2108 05a0 0023     		movs	r3, #0	@ tmp117,
 2109 05a2 8361     		str	r3, [r0, #24]	@ tmp117, CANx_8(D)->ESR
 2110 05a4 7047     		bx	lr	@
 2111              	.L145:
1154:.\stlib\STM32F10x_StdPeriph_Driver\src/stm32f10x_can.c ****   }
1155:.\stlib\STM32F10x_StdPeriph_Driver\src/stm32f10x_can.c ****   else /* MSR or TSR or RF0R or RF1R */
1156:.\stlib\STM32F10x_StdPeriph_Driver\src/stm32f10x_can.c ****   {
1157:.\stlib\STM32F10x_StdPeriph_Driver\src/stm32f10x_can.c ****     flagtmp = CAN_FLAG & 0x000FFFFF;
 2112              		.loc 1 1157 5 is_stmt 1 view .LVU624
 2113              	@ .\stlib\STM32F10x_StdPeriph_Driver\src\stm32f10x_can.c:1159:     if ((CAN_FLAG & CAN_FLAGS_RF0R)!
1158:.\stlib\STM32F10x_StdPeriph_Driver\src/stm32f10x_can.c **** 
1159:.\stlib\STM32F10x_StdPeriph_Driver\src/stm32f10x_can.c ****     if ((CAN_FLAG & CAN_FLAGS_RF0R)!=(uint32_t)RESET)
 2114              		.loc 1 1159 8 is_stmt 0 view .LVU625
 2115 05a6 8A01     		lsls	r2, r1, #6	@, CAN_FLAG,
 2116              	@ .\stlib\STM32F10x_StdPeriph_Driver\src\stm32f10x_can.c:1157:     flagtmp = CAN_FLAG & 0x000FFFFF;
1157:.\stlib\STM32F10x_StdPeriph_Driver\src/stm32f10x_can.c **** 
 2117              		.loc 1 1157 13 view .LVU626
 2118 05a8 C1F31303 		ubfx	r3, r1, #0, #20	@ flagtmp, CAN_FLAG,,
 2119              	.LVL103:
 2120              		.loc 1 1159 5 is_stmt 1 view .LVU627
 2121              	@ .\stlib\STM32F10x_StdPeriph_Driver\src\stm32f10x_can.c:1159:     if ((CAN_FLAG & CAN_FLAGS_RF0R)!
 2122              		.loc 1 1159 8 is_stmt 0 view .LVU628
 2123 05ac 01D5     		bpl	.L147		@,
ARM GAS  C:\Users\skey\AppData\Local\Temp\ccv9NfrL.s 			page 61


1160:.\stlib\STM32F10x_StdPeriph_Driver\src/stm32f10x_can.c ****     {
1161:.\stlib\STM32F10x_StdPeriph_Driver\src/stm32f10x_can.c ****       /* Receive Flags */
1162:.\stlib\STM32F10x_StdPeriph_Driver\src/stm32f10x_can.c ****       CANx->RF0R = (uint32_t)(flagtmp);
 2124              		.loc 1 1162 7 is_stmt 1 view .LVU629
 2125              	@ .\stlib\STM32F10x_StdPeriph_Driver\src\stm32f10x_can.c:1162:       CANx->RF0R = (uint32_t)(flagtm
 2126              		.loc 1 1162 18 is_stmt 0 view .LVU630
 2127 05ae C360     		str	r3, [r0, #12]	@ flagtmp, CANx_8(D)->RF0R
 2128 05b0 7047     		bx	lr	@
 2129              	.L147:
1163:.\stlib\STM32F10x_StdPeriph_Driver\src/stm32f10x_can.c ****     }
1164:.\stlib\STM32F10x_StdPeriph_Driver\src/stm32f10x_can.c ****     else if ((CAN_FLAG & CAN_FLAGS_RF1R)!=(uint32_t)RESET)
 2130              		.loc 1 1164 10 is_stmt 1 view .LVU631
 2131              	@ .\stlib\STM32F10x_StdPeriph_Driver\src\stm32f10x_can.c:1164:     else if ((CAN_FLAG & CAN_FLAGS_R
 2132              		.loc 1 1164 13 is_stmt 0 view .LVU632
 2133 05b2 4A01     		lsls	r2, r1, #5	@, CAN_FLAG,
 2134 05b4 01D5     		bpl	.L148		@,
1165:.\stlib\STM32F10x_StdPeriph_Driver\src/stm32f10x_can.c ****     {
1166:.\stlib\STM32F10x_StdPeriph_Driver\src/stm32f10x_can.c ****       /* Receive Flags */
1167:.\stlib\STM32F10x_StdPeriph_Driver\src/stm32f10x_can.c ****       CANx->RF1R = (uint32_t)(flagtmp);
 2135              		.loc 1 1167 7 is_stmt 1 view .LVU633
 2136              	@ .\stlib\STM32F10x_StdPeriph_Driver\src\stm32f10x_can.c:1167:       CANx->RF1R = (uint32_t)(flagtm
 2137              		.loc 1 1167 18 is_stmt 0 view .LVU634
 2138 05b6 0361     		str	r3, [r0, #16]	@ flagtmp, CANx_8(D)->RF1R
 2139 05b8 7047     		bx	lr	@
 2140              	.L148:
1168:.\stlib\STM32F10x_StdPeriph_Driver\src/stm32f10x_can.c ****     }
1169:.\stlib\STM32F10x_StdPeriph_Driver\src/stm32f10x_can.c ****     else if ((CAN_FLAG & CAN_FLAGS_TSR)!=(uint32_t)RESET)
 2141              		.loc 1 1169 10 is_stmt 1 view .LVU635
 2142              	@ .\stlib\STM32F10x_StdPeriph_Driver\src\stm32f10x_can.c:1169:     else if ((CAN_FLAG & CAN_FLAGS_T
 2143              		.loc 1 1169 13 is_stmt 0 view .LVU636
 2144 05ba 0A01     		lsls	r2, r1, #4	@, CAN_FLAG,
1170:.\stlib\STM32F10x_StdPeriph_Driver\src/stm32f10x_can.c ****     {
1171:.\stlib\STM32F10x_StdPeriph_Driver\src/stm32f10x_can.c ****       /* Transmit Flags */
1172:.\stlib\STM32F10x_StdPeriph_Driver\src/stm32f10x_can.c ****       CANx->TSR = (uint32_t)(flagtmp);
 2145              		.loc 1 1172 7 is_stmt 1 view .LVU637
 2146              	@ .\stlib\STM32F10x_StdPeriph_Driver\src\stm32f10x_can.c:1172:       CANx->TSR = (uint32_t)(flagtmp
 2147              		.loc 1 1172 17 is_stmt 0 view .LVU638
 2148 05bc 4CBF     		ite	mi
 2149 05be 8360     		strmi	r3, [r0, #8]	@ flagtmp, CANx_8(D)->TSR
1173:.\stlib\STM32F10x_StdPeriph_Driver\src/stm32f10x_can.c ****     }
1174:.\stlib\STM32F10x_StdPeriph_Driver\src/stm32f10x_can.c ****     else /* If((CAN_FLAG & CAN_FLAGS_MSR)!=(uint32_t)RESET) */
1175:.\stlib\STM32F10x_StdPeriph_Driver\src/stm32f10x_can.c ****     {
1176:.\stlib\STM32F10x_StdPeriph_Driver\src/stm32f10x_can.c ****       /* Operating mode Flags */
1177:.\stlib\STM32F10x_StdPeriph_Driver\src/stm32f10x_can.c ****       CANx->MSR = (uint32_t)(flagtmp);
 2150              		.loc 1 1177 7 is_stmt 1 view .LVU639
 2151              	@ .\stlib\STM32F10x_StdPeriph_Driver\src\stm32f10x_can.c:1177:       CANx->MSR = (uint32_t)(flagtmp
 2152              		.loc 1 1177 17 is_stmt 0 view .LVU640
 2153 05c0 4360     		strpl	r3, [r0, #4]	@ flagtmp, CANx_8(D)->MSR
 2154              	@ .\stlib\STM32F10x_StdPeriph_Driver\src\stm32f10x_can.c:1180: }
1178:.\stlib\STM32F10x_StdPeriph_Driver\src/stm32f10x_can.c ****     }
1179:.\stlib\STM32F10x_StdPeriph_Driver\src/stm32f10x_can.c ****   }
1180:.\stlib\STM32F10x_StdPeriph_Driver\src/stm32f10x_can.c **** }
 2155              		.loc 1 1180 1 view .LVU641
 2156 05c2 7047     		bx	lr	@
 2157              	.L151:
 2158              		.align	2
 2159              	.L150:
ARM GAS  C:\Users\skey\AppData\Local\Temp\ccv9NfrL.s 			page 62


 2160 05c4 7000F030 		.word	821035120
 2161              		.cfi_endproc
 2162              	.LFE50:
 2163              		.size	CAN_ClearFlag, .-CAN_ClearFlag
 2164              		.align	1
 2165              		.global	CAN_GetITStatus
 2166              		.syntax unified
 2167              		.thumb
 2168              		.thumb_func
 2169              		.fpu softvfp
 2170              		.type	CAN_GetITStatus, %function
 2171              	CAN_GetITStatus:
 2172              	.LVL104:
 2173              	.LFB51:
1181:.\stlib\STM32F10x_StdPeriph_Driver\src/stm32f10x_can.c **** 
1182:.\stlib\STM32F10x_StdPeriph_Driver\src/stm32f10x_can.c **** /**
1183:.\stlib\STM32F10x_StdPeriph_Driver\src/stm32f10x_can.c ****   * @brief  Checks whether the specified CANx interrupt has occurred or not.
1184:.\stlib\STM32F10x_StdPeriph_Driver\src/stm32f10x_can.c ****   * @param  CANx:    where x can be 1 or 2 to to select the CAN peripheral.
1185:.\stlib\STM32F10x_StdPeriph_Driver\src/stm32f10x_can.c ****   * @param  CAN_IT:  specifies the CAN interrupt source to check.
1186:.\stlib\STM32F10x_StdPeriph_Driver\src/stm32f10x_can.c ****   *                  This parameter can be one of the following flags: 
1187:.\stlib\STM32F10x_StdPeriph_Driver\src/stm32f10x_can.c ****   *                 -  CAN_IT_TME               
1188:.\stlib\STM32F10x_StdPeriph_Driver\src/stm32f10x_can.c ****   *                 -  CAN_IT_FMP0              
1189:.\stlib\STM32F10x_StdPeriph_Driver\src/stm32f10x_can.c ****   *                 -  CAN_IT_FF0               
1190:.\stlib\STM32F10x_StdPeriph_Driver\src/stm32f10x_can.c ****   *                 -  CAN_IT_FOV0              
1191:.\stlib\STM32F10x_StdPeriph_Driver\src/stm32f10x_can.c ****   *                 -  CAN_IT_FMP1              
1192:.\stlib\STM32F10x_StdPeriph_Driver\src/stm32f10x_can.c ****   *                 -  CAN_IT_FF1               
1193:.\stlib\STM32F10x_StdPeriph_Driver\src/stm32f10x_can.c ****   *                 -  CAN_IT_FOV1              
1194:.\stlib\STM32F10x_StdPeriph_Driver\src/stm32f10x_can.c ****   *                 -  CAN_IT_WKU  
1195:.\stlib\STM32F10x_StdPeriph_Driver\src/stm32f10x_can.c ****   *                 -  CAN_IT_SLK  
1196:.\stlib\STM32F10x_StdPeriph_Driver\src/stm32f10x_can.c ****   *                 -  CAN_IT_EWG    
1197:.\stlib\STM32F10x_StdPeriph_Driver\src/stm32f10x_can.c ****   *                 -  CAN_IT_EPV    
1198:.\stlib\STM32F10x_StdPeriph_Driver\src/stm32f10x_can.c ****   *                 -  CAN_IT_BOF    
1199:.\stlib\STM32F10x_StdPeriph_Driver\src/stm32f10x_can.c ****   *                 -  CAN_IT_LEC    
1200:.\stlib\STM32F10x_StdPeriph_Driver\src/stm32f10x_can.c ****   *                 -  CAN_IT_ERR 
1201:.\stlib\STM32F10x_StdPeriph_Driver\src/stm32f10x_can.c ****   * @retval The current state of CAN_IT (SET or RESET).
1202:.\stlib\STM32F10x_StdPeriph_Driver\src/stm32f10x_can.c ****   */
1203:.\stlib\STM32F10x_StdPeriph_Driver\src/stm32f10x_can.c **** ITStatus CAN_GetITStatus(CAN_TypeDef* CANx, uint32_t CAN_IT)
1204:.\stlib\STM32F10x_StdPeriph_Driver\src/stm32f10x_can.c **** {
 2174              		.loc 1 1204 1 is_stmt 1 view -0
 2175              		.cfi_startproc
 2176              		@ args = 0, pretend = 0, frame = 0
 2177              		@ frame_needed = 0, uses_anonymous_args = 0
 2178              		@ link register save eliminated.
1205:.\stlib\STM32F10x_StdPeriph_Driver\src/stm32f10x_can.c ****   ITStatus itstatus = RESET;
 2179              		.loc 1 1205 3 view .LVU643
1206:.\stlib\STM32F10x_StdPeriph_Driver\src/stm32f10x_can.c ****   /* Check the parameters */
1207:.\stlib\STM32F10x_StdPeriph_Driver\src/stm32f10x_can.c ****   assert_param(IS_CAN_ALL_PERIPH(CANx));
 2180              		.loc 1 1207 3 view .LVU644
1208:.\stlib\STM32F10x_StdPeriph_Driver\src/stm32f10x_can.c ****   assert_param(IS_CAN_IT(CAN_IT));
 2181              		.loc 1 1208 3 view .LVU645
1209:.\stlib\STM32F10x_StdPeriph_Driver\src/stm32f10x_can.c ****   
1210:.\stlib\STM32F10x_StdPeriph_Driver\src/stm32f10x_can.c ****   /* check the enable interrupt bit */
1211:.\stlib\STM32F10x_StdPeriph_Driver\src/stm32f10x_can.c ****  if((CANx->IER & CAN_IT) != RESET)
 2182              		.loc 1 1211 2 view .LVU646
 2183              	@ .\stlib\STM32F10x_StdPeriph_Driver\src\stm32f10x_can.c:1204: {
1204:.\stlib\STM32F10x_StdPeriph_Driver\src/stm32f10x_can.c ****   ITStatus itstatus = RESET;
 2184              		.loc 1 1204 1 is_stmt 0 view .LVU647
ARM GAS  C:\Users\skey\AppData\Local\Temp\ccv9NfrL.s 			page 63


 2185 05c8 0246     		mov	r2, r0	@ CANx, tmp200
 2186              	@ .\stlib\STM32F10x_StdPeriph_Driver\src\stm32f10x_can.c:1211:  if((CANx->IER & CAN_IT) != RESET)
 2187              		.loc 1 1211 10 view .LVU648
 2188 05ca 4069     		ldr	r0, [r0, #20]	@ _1, CANx_20(D)->IER
 2189              	.LVL105:
 2190              	@ .\stlib\STM32F10x_StdPeriph_Driver\src\stm32f10x_can.c:1211:  if((CANx->IER & CAN_IT) != RESET)
 2191              		.loc 1 1211 4 view .LVU649
 2192 05cc 0840     		ands	r0, r0, r1	@ tmp156, _1, CAN_IT
 2193 05ce 15D0     		beq	.L153		@,
1212:.\stlib\STM32F10x_StdPeriph_Driver\src/stm32f10x_can.c ****  {
1213:.\stlib\STM32F10x_StdPeriph_Driver\src/stm32f10x_can.c ****    /* in case the Interrupt is enabled, .... */
1214:.\stlib\STM32F10x_StdPeriph_Driver\src/stm32f10x_can.c ****     switch (CAN_IT)
 2194              		.loc 1 1214 5 is_stmt 1 view .LVU650
 2195 05d0 B1F5807F 		cmp	r1, #256	@ CAN_IT,
 2196 05d4 4BD0     		beq	.L154		@,
 2197 05d6 12D8     		bhi	.L155		@,
 2198 05d8 0829     		cmp	r1, #8	@ CAN_IT,
 2199 05da 08D8     		bhi	.L156		@,
 2200 05dc 0139     		subs	r1, r1, #1	@ tmp157, CAN_IT,
 2201              	.LVL106:
 2202              		.loc 1 1214 5 is_stmt 0 view .LVU651
 2203 05de 0729     		cmp	r1, #7	@ tmp157,
 2204 05e0 0BD8     		bhi	.L173		@
 2205 05e2 DFE801F0 		tbb	[pc, r1]	@ tmp157
 2206              	.L158:
 2207 05e6 25       		.byte	(.L161-.L158)/2
 2208 05e7 2E       		.byte	(.L160-.L158)/2
 2209 05e8 0A       		.byte	(.L173-.L158)/2
 2210 05e9 34       		.byte	(.L159-.L158)/2
 2211 05ea 0A       		.byte	(.L173-.L158)/2
 2212 05eb 0A       		.byte	(.L173-.L158)/2
 2213 05ec 0A       		.byte	(.L173-.L158)/2
 2214 05ed 38       		.byte	(.L157-.L158)/2
 2215              	.LVL107:
 2216              		.p2align 1
 2217              	.L156:
 2218              		.loc 1 1214 5 view .LVU652
 2219 05ee 2029     		cmp	r1, #32	@ CAN_IT,
 2220 05f0 37D0     		beq	.L162		@,
 2221 05f2 4029     		cmp	r1, #64	@ CAN_IT,
 2222 05f4 37D0     		beq	.L163		@,
 2223 05f6 1029     		cmp	r1, #16	@ CAN_IT,
 2224 05f8 31D0     		beq	.L164		@,
 2225              	.LVL108:
 2226              	.L173:
 2227              		.loc 1 1214 5 view .LVU653
 2228 05fa 0020     		movs	r0, #0	@ <retval>,
 2229              	.L153:
 2230              	.LVL109:
1215:.\stlib\STM32F10x_StdPeriph_Driver\src/stm32f10x_can.c ****     {
1216:.\stlib\STM32F10x_StdPeriph_Driver\src/stm32f10x_can.c ****       case CAN_IT_TME:
1217:.\stlib\STM32F10x_StdPeriph_Driver\src/stm32f10x_can.c ****                /* Check CAN_TSR_RQCPx bits */
1218:.\stlib\STM32F10x_StdPeriph_Driver\src/stm32f10x_can.c **** 	             itstatus = CheckITStatus(CANx->TSR, CAN_TSR_RQCP0|CAN_TSR_RQCP1|CAN_TSR_RQCP2);  
1219:.\stlib\STM32F10x_StdPeriph_Driver\src/stm32f10x_can.c **** 	      break;
1220:.\stlib\STM32F10x_StdPeriph_Driver\src/stm32f10x_can.c ****       case CAN_IT_FMP0:
1221:.\stlib\STM32F10x_StdPeriph_Driver\src/stm32f10x_can.c ****                /* Check CAN_RF0R_FMP0 bit */
1222:.\stlib\STM32F10x_StdPeriph_Driver\src/stm32f10x_can.c **** 	             itstatus = CheckITStatus(CANx->RF0R, CAN_RF0R_FMP0);  
ARM GAS  C:\Users\skey\AppData\Local\Temp\ccv9NfrL.s 			page 64


1223:.\stlib\STM32F10x_StdPeriph_Driver\src/stm32f10x_can.c **** 	      break;
1224:.\stlib\STM32F10x_StdPeriph_Driver\src/stm32f10x_can.c ****       case CAN_IT_FF0:
1225:.\stlib\STM32F10x_StdPeriph_Driver\src/stm32f10x_can.c ****                /* Check CAN_RF0R_FULL0 bit */
1226:.\stlib\STM32F10x_StdPeriph_Driver\src/stm32f10x_can.c ****                itstatus = CheckITStatus(CANx->RF0R, CAN_RF0R_FULL0);  
1227:.\stlib\STM32F10x_StdPeriph_Driver\src/stm32f10x_can.c **** 	      break;
1228:.\stlib\STM32F10x_StdPeriph_Driver\src/stm32f10x_can.c ****       case CAN_IT_FOV0:
1229:.\stlib\STM32F10x_StdPeriph_Driver\src/stm32f10x_can.c ****                /* Check CAN_RF0R_FOVR0 bit */
1230:.\stlib\STM32F10x_StdPeriph_Driver\src/stm32f10x_can.c ****                itstatus = CheckITStatus(CANx->RF0R, CAN_RF0R_FOVR0);  
1231:.\stlib\STM32F10x_StdPeriph_Driver\src/stm32f10x_can.c **** 	      break;
1232:.\stlib\STM32F10x_StdPeriph_Driver\src/stm32f10x_can.c ****       case CAN_IT_FMP1:
1233:.\stlib\STM32F10x_StdPeriph_Driver\src/stm32f10x_can.c ****                /* Check CAN_RF1R_FMP1 bit */
1234:.\stlib\STM32F10x_StdPeriph_Driver\src/stm32f10x_can.c ****                itstatus = CheckITStatus(CANx->RF1R, CAN_RF1R_FMP1);  
1235:.\stlib\STM32F10x_StdPeriph_Driver\src/stm32f10x_can.c **** 	      break;
1236:.\stlib\STM32F10x_StdPeriph_Driver\src/stm32f10x_can.c ****       case CAN_IT_FF1:
1237:.\stlib\STM32F10x_StdPeriph_Driver\src/stm32f10x_can.c ****                /* Check CAN_RF1R_FULL1 bit */
1238:.\stlib\STM32F10x_StdPeriph_Driver\src/stm32f10x_can.c **** 	             itstatus = CheckITStatus(CANx->RF1R, CAN_RF1R_FULL1);  
1239:.\stlib\STM32F10x_StdPeriph_Driver\src/stm32f10x_can.c **** 	      break;
1240:.\stlib\STM32F10x_StdPeriph_Driver\src/stm32f10x_can.c ****       case CAN_IT_FOV1:
1241:.\stlib\STM32F10x_StdPeriph_Driver\src/stm32f10x_can.c ****                /* Check CAN_RF1R_FOVR1 bit */
1242:.\stlib\STM32F10x_StdPeriph_Driver\src/stm32f10x_can.c **** 	             itstatus = CheckITStatus(CANx->RF1R, CAN_RF1R_FOVR1);  
1243:.\stlib\STM32F10x_StdPeriph_Driver\src/stm32f10x_can.c **** 	      break;
1244:.\stlib\STM32F10x_StdPeriph_Driver\src/stm32f10x_can.c ****       case CAN_IT_WKU:
1245:.\stlib\STM32F10x_StdPeriph_Driver\src/stm32f10x_can.c ****                /* Check CAN_MSR_WKUI bit */
1246:.\stlib\STM32F10x_StdPeriph_Driver\src/stm32f10x_can.c ****                itstatus = CheckITStatus(CANx->MSR, CAN_MSR_WKUI);  
1247:.\stlib\STM32F10x_StdPeriph_Driver\src/stm32f10x_can.c **** 	      break;
1248:.\stlib\STM32F10x_StdPeriph_Driver\src/stm32f10x_can.c ****       case CAN_IT_SLK:
1249:.\stlib\STM32F10x_StdPeriph_Driver\src/stm32f10x_can.c ****                /* Check CAN_MSR_SLAKI bit */
1250:.\stlib\STM32F10x_StdPeriph_Driver\src/stm32f10x_can.c **** 	             itstatus = CheckITStatus(CANx->MSR, CAN_MSR_SLAKI);  
1251:.\stlib\STM32F10x_StdPeriph_Driver\src/stm32f10x_can.c **** 	      break;
1252:.\stlib\STM32F10x_StdPeriph_Driver\src/stm32f10x_can.c ****       case CAN_IT_EWG:
1253:.\stlib\STM32F10x_StdPeriph_Driver\src/stm32f10x_can.c ****                /* Check CAN_ESR_EWGF bit */
1254:.\stlib\STM32F10x_StdPeriph_Driver\src/stm32f10x_can.c **** 	             itstatus = CheckITStatus(CANx->ESR, CAN_ESR_EWGF);  
1255:.\stlib\STM32F10x_StdPeriph_Driver\src/stm32f10x_can.c **** 	      break;
1256:.\stlib\STM32F10x_StdPeriph_Driver\src/stm32f10x_can.c ****       case CAN_IT_EPV:
1257:.\stlib\STM32F10x_StdPeriph_Driver\src/stm32f10x_can.c ****                /* Check CAN_ESR_EPVF bit */
1258:.\stlib\STM32F10x_StdPeriph_Driver\src/stm32f10x_can.c **** 	             itstatus = CheckITStatus(CANx->ESR, CAN_ESR_EPVF);  
1259:.\stlib\STM32F10x_StdPeriph_Driver\src/stm32f10x_can.c **** 	      break;
1260:.\stlib\STM32F10x_StdPeriph_Driver\src/stm32f10x_can.c ****       case CAN_IT_BOF:
1261:.\stlib\STM32F10x_StdPeriph_Driver\src/stm32f10x_can.c ****                /* Check CAN_ESR_BOFF bit */
1262:.\stlib\STM32F10x_StdPeriph_Driver\src/stm32f10x_can.c **** 	             itstatus = CheckITStatus(CANx->ESR, CAN_ESR_BOFF);  
1263:.\stlib\STM32F10x_StdPeriph_Driver\src/stm32f10x_can.c **** 	      break;
1264:.\stlib\STM32F10x_StdPeriph_Driver\src/stm32f10x_can.c ****       case CAN_IT_LEC:
1265:.\stlib\STM32F10x_StdPeriph_Driver\src/stm32f10x_can.c ****                /* Check CAN_ESR_LEC bit */
1266:.\stlib\STM32F10x_StdPeriph_Driver\src/stm32f10x_can.c **** 	             itstatus = CheckITStatus(CANx->ESR, CAN_ESR_LEC);  
1267:.\stlib\STM32F10x_StdPeriph_Driver\src/stm32f10x_can.c **** 	      break;
1268:.\stlib\STM32F10x_StdPeriph_Driver\src/stm32f10x_can.c ****       case CAN_IT_ERR:
1269:.\stlib\STM32F10x_StdPeriph_Driver\src/stm32f10x_can.c ****                /* Check CAN_MSR_ERRI bit */ 
1270:.\stlib\STM32F10x_StdPeriph_Driver\src/stm32f10x_can.c ****                itstatus = CheckITStatus(CANx->MSR, CAN_MSR_ERRI); 
1271:.\stlib\STM32F10x_StdPeriph_Driver\src/stm32f10x_can.c **** 	      break;
1272:.\stlib\STM32F10x_StdPeriph_Driver\src/stm32f10x_can.c ****       default :
1273:.\stlib\STM32F10x_StdPeriph_Driver\src/stm32f10x_can.c ****                /* in case of error, return RESET */
1274:.\stlib\STM32F10x_StdPeriph_Driver\src/stm32f10x_can.c ****               itstatus = RESET;
1275:.\stlib\STM32F10x_StdPeriph_Driver\src/stm32f10x_can.c ****               break;
1276:.\stlib\STM32F10x_StdPeriph_Driver\src/stm32f10x_can.c ****     }
1277:.\stlib\STM32F10x_StdPeriph_Driver\src/stm32f10x_can.c ****   }
1278:.\stlib\STM32F10x_StdPeriph_Driver\src/stm32f10x_can.c ****   else
1279:.\stlib\STM32F10x_StdPeriph_Driver\src/stm32f10x_can.c ****   {
ARM GAS  C:\Users\skey\AppData\Local\Temp\ccv9NfrL.s 			page 65


1280:.\stlib\STM32F10x_StdPeriph_Driver\src/stm32f10x_can.c ****    /* in case the Interrupt is not enabled, return RESET */
1281:.\stlib\STM32F10x_StdPeriph_Driver\src/stm32f10x_can.c ****     itstatus  = RESET;
1282:.\stlib\STM32F10x_StdPeriph_Driver\src/stm32f10x_can.c ****   }
1283:.\stlib\STM32F10x_StdPeriph_Driver\src/stm32f10x_can.c ****   
1284:.\stlib\STM32F10x_StdPeriph_Driver\src/stm32f10x_can.c ****   /* Return the CAN_IT status */
1285:.\stlib\STM32F10x_StdPeriph_Driver\src/stm32f10x_can.c ****   return  itstatus;
 2231              		.loc 1 1285 3 is_stmt 1 view .LVU654
 2232              	@ .\stlib\STM32F10x_StdPeriph_Driver\src\stm32f10x_can.c:1286: }
1286:.\stlib\STM32F10x_StdPeriph_Driver\src/stm32f10x_can.c **** }
 2233              		.loc 1 1286 1 is_stmt 0 view .LVU655
 2234 05fc 7047     		bx	lr	@
 2235              	.LVL110:
 2236              	.L155:
 2237              	@ .\stlib\STM32F10x_StdPeriph_Driver\src\stm32f10x_can.c:1214:     switch (CAN_IT)
1214:.\stlib\STM32F10x_StdPeriph_Driver\src/stm32f10x_can.c ****     {
 2238              		.loc 1 1214 5 view .LVU656
 2239 05fe B1F5004F 		cmp	r1, #32768	@ CAN_IT,
 2240 0602 43D0     		beq	.L165		@,
 2241 0604 0CD8     		bhi	.L166		@,
 2242 0606 B1F5806F 		cmp	r1, #1024	@ CAN_IT,
 2243 060a 34D0     		beq	.L167		@,
 2244 060c B1F5006F 		cmp	r1, #2048	@ CAN_IT,
 2245 0610 35D0     		beq	.L168		@,
 2246 0612 B1F5007F 		cmp	r1, #512	@ CAN_IT,
 2247 0616 F0D1     		bne	.L173		@,
1258:.\stlib\STM32F10x_StdPeriph_Driver\src/stm32f10x_can.c **** 	      break;
 2248              		.loc 1 1258 15 is_stmt 1 view .LVU657
 2249              	@ .\stlib\STM32F10x_StdPeriph_Driver\src\stm32f10x_can.c:1258: 	             itstatus = CheckITStat
1258:.\stlib\STM32F10x_StdPeriph_Driver\src/stm32f10x_can.c **** 	      break;
 2250              		.loc 1 1258 26 is_stmt 0 view .LVU658
 2251 0618 9069     		ldr	r0, [r2, #24]	@ _13, CANx_20(D)->ESR
 2252              	.LVL111:
 2253              	.LBB30:
 2254              	.LBI30:
1287:.\stlib\STM32F10x_StdPeriph_Driver\src/stm32f10x_can.c **** 
1288:.\stlib\STM32F10x_StdPeriph_Driver\src/stm32f10x_can.c **** /**
1289:.\stlib\STM32F10x_StdPeriph_Driver\src/stm32f10x_can.c ****   * @brief  Clears the CANx's interrupt pending bits.
1290:.\stlib\STM32F10x_StdPeriph_Driver\src/stm32f10x_can.c ****   * @param  CANx:    where x can be 1 or 2 to to select the CAN peripheral.
1291:.\stlib\STM32F10x_StdPeriph_Driver\src/stm32f10x_can.c ****   * @param  CAN_IT: specifies the interrupt pending bit to clear.
1292:.\stlib\STM32F10x_StdPeriph_Driver\src/stm32f10x_can.c ****   *                  -  CAN_IT_TME                     
1293:.\stlib\STM32F10x_StdPeriph_Driver\src/stm32f10x_can.c ****   *                  -  CAN_IT_FF0               
1294:.\stlib\STM32F10x_StdPeriph_Driver\src/stm32f10x_can.c ****   *                  -  CAN_IT_FOV0                     
1295:.\stlib\STM32F10x_StdPeriph_Driver\src/stm32f10x_can.c ****   *                  -  CAN_IT_FF1               
1296:.\stlib\STM32F10x_StdPeriph_Driver\src/stm32f10x_can.c ****   *                  -  CAN_IT_FOV1              
1297:.\stlib\STM32F10x_StdPeriph_Driver\src/stm32f10x_can.c ****   *                  -  CAN_IT_WKU  
1298:.\stlib\STM32F10x_StdPeriph_Driver\src/stm32f10x_can.c ****   *                  -  CAN_IT_SLK  
1299:.\stlib\STM32F10x_StdPeriph_Driver\src/stm32f10x_can.c ****   *                  -  CAN_IT_EWG    
1300:.\stlib\STM32F10x_StdPeriph_Driver\src/stm32f10x_can.c ****   *                  -  CAN_IT_EPV    
1301:.\stlib\STM32F10x_StdPeriph_Driver\src/stm32f10x_can.c ****   *                  -  CAN_IT_BOF    
1302:.\stlib\STM32F10x_StdPeriph_Driver\src/stm32f10x_can.c ****   *                  -  CAN_IT_LEC    
1303:.\stlib\STM32F10x_StdPeriph_Driver\src/stm32f10x_can.c ****   *                  -  CAN_IT_ERR 
1304:.\stlib\STM32F10x_StdPeriph_Driver\src/stm32f10x_can.c ****   * @retval None.
1305:.\stlib\STM32F10x_StdPeriph_Driver\src/stm32f10x_can.c ****   */
1306:.\stlib\STM32F10x_StdPeriph_Driver\src/stm32f10x_can.c **** void CAN_ClearITPendingBit(CAN_TypeDef* CANx, uint32_t CAN_IT)
1307:.\stlib\STM32F10x_StdPeriph_Driver\src/stm32f10x_can.c **** {
1308:.\stlib\STM32F10x_StdPeriph_Driver\src/stm32f10x_can.c ****   /* Check the parameters */
1309:.\stlib\STM32F10x_StdPeriph_Driver\src/stm32f10x_can.c ****   assert_param(IS_CAN_ALL_PERIPH(CANx));
ARM GAS  C:\Users\skey\AppData\Local\Temp\ccv9NfrL.s 			page 66


1310:.\stlib\STM32F10x_StdPeriph_Driver\src/stm32f10x_can.c ****   assert_param(IS_CAN_CLEAR_IT(CAN_IT));
1311:.\stlib\STM32F10x_StdPeriph_Driver\src/stm32f10x_can.c **** 
1312:.\stlib\STM32F10x_StdPeriph_Driver\src/stm32f10x_can.c ****   switch (CAN_IT)
1313:.\stlib\STM32F10x_StdPeriph_Driver\src/stm32f10x_can.c ****   {
1314:.\stlib\STM32F10x_StdPeriph_Driver\src/stm32f10x_can.c ****       case CAN_IT_TME:
1315:.\stlib\STM32F10x_StdPeriph_Driver\src/stm32f10x_can.c ****               /* Clear CAN_TSR_RQCPx (rc_w1)*/
1316:.\stlib\STM32F10x_StdPeriph_Driver\src/stm32f10x_can.c **** 	      CANx->TSR = CAN_TSR_RQCP0|CAN_TSR_RQCP1|CAN_TSR_RQCP2;  
1317:.\stlib\STM32F10x_StdPeriph_Driver\src/stm32f10x_can.c **** 	      break;
1318:.\stlib\STM32F10x_StdPeriph_Driver\src/stm32f10x_can.c ****       case CAN_IT_FF0:
1319:.\stlib\STM32F10x_StdPeriph_Driver\src/stm32f10x_can.c ****               /* Clear CAN_RF0R_FULL0 (rc_w1)*/
1320:.\stlib\STM32F10x_StdPeriph_Driver\src/stm32f10x_can.c **** 	      CANx->RF0R = CAN_RF0R_FULL0; 
1321:.\stlib\STM32F10x_StdPeriph_Driver\src/stm32f10x_can.c **** 	      break;
1322:.\stlib\STM32F10x_StdPeriph_Driver\src/stm32f10x_can.c ****       case CAN_IT_FOV0:
1323:.\stlib\STM32F10x_StdPeriph_Driver\src/stm32f10x_can.c ****               /* Clear CAN_RF0R_FOVR0 (rc_w1)*/
1324:.\stlib\STM32F10x_StdPeriph_Driver\src/stm32f10x_can.c **** 	      CANx->RF0R = CAN_RF0R_FOVR0; 
1325:.\stlib\STM32F10x_StdPeriph_Driver\src/stm32f10x_can.c **** 	      break;
1326:.\stlib\STM32F10x_StdPeriph_Driver\src/stm32f10x_can.c ****       case CAN_IT_FF1:
1327:.\stlib\STM32F10x_StdPeriph_Driver\src/stm32f10x_can.c ****               /* Clear CAN_RF1R_FULL1 (rc_w1)*/
1328:.\stlib\STM32F10x_StdPeriph_Driver\src/stm32f10x_can.c **** 	      CANx->RF1R = CAN_RF1R_FULL1;  
1329:.\stlib\STM32F10x_StdPeriph_Driver\src/stm32f10x_can.c **** 	      break;
1330:.\stlib\STM32F10x_StdPeriph_Driver\src/stm32f10x_can.c ****       case CAN_IT_FOV1:
1331:.\stlib\STM32F10x_StdPeriph_Driver\src/stm32f10x_can.c ****               /* Clear CAN_RF1R_FOVR1 (rc_w1)*/
1332:.\stlib\STM32F10x_StdPeriph_Driver\src/stm32f10x_can.c **** 	      CANx->RF1R = CAN_RF1R_FOVR1; 
1333:.\stlib\STM32F10x_StdPeriph_Driver\src/stm32f10x_can.c **** 	      break;
1334:.\stlib\STM32F10x_StdPeriph_Driver\src/stm32f10x_can.c ****       case CAN_IT_WKU:
1335:.\stlib\STM32F10x_StdPeriph_Driver\src/stm32f10x_can.c ****               /* Clear CAN_MSR_WKUI (rc_w1)*/
1336:.\stlib\STM32F10x_StdPeriph_Driver\src/stm32f10x_can.c **** 	      CANx->MSR = CAN_MSR_WKUI;  
1337:.\stlib\STM32F10x_StdPeriph_Driver\src/stm32f10x_can.c **** 	      break;
1338:.\stlib\STM32F10x_StdPeriph_Driver\src/stm32f10x_can.c ****       case CAN_IT_SLK:
1339:.\stlib\STM32F10x_StdPeriph_Driver\src/stm32f10x_can.c ****               /* Clear CAN_MSR_SLAKI (rc_w1)*/ 
1340:.\stlib\STM32F10x_StdPeriph_Driver\src/stm32f10x_can.c **** 	      CANx->MSR = CAN_MSR_SLAKI;   
1341:.\stlib\STM32F10x_StdPeriph_Driver\src/stm32f10x_can.c **** 	      break;
1342:.\stlib\STM32F10x_StdPeriph_Driver\src/stm32f10x_can.c ****       case CAN_IT_EWG:
1343:.\stlib\STM32F10x_StdPeriph_Driver\src/stm32f10x_can.c ****               /* Clear CAN_MSR_ERRI (rc_w1) */
1344:.\stlib\STM32F10x_StdPeriph_Driver\src/stm32f10x_can.c **** 	      CANx->MSR = CAN_MSR_ERRI;
1345:.\stlib\STM32F10x_StdPeriph_Driver\src/stm32f10x_can.c ****               /* Note : the corresponding Flag is cleared by hardware depending 
1346:.\stlib\STM32F10x_StdPeriph_Driver\src/stm32f10x_can.c ****                         of the CAN Bus status*/ 
1347:.\stlib\STM32F10x_StdPeriph_Driver\src/stm32f10x_can.c **** 	      break;
1348:.\stlib\STM32F10x_StdPeriph_Driver\src/stm32f10x_can.c ****       case CAN_IT_EPV:
1349:.\stlib\STM32F10x_StdPeriph_Driver\src/stm32f10x_can.c ****               /* Clear CAN_MSR_ERRI (rc_w1) */
1350:.\stlib\STM32F10x_StdPeriph_Driver\src/stm32f10x_can.c **** 	      CANx->MSR = CAN_MSR_ERRI; 
1351:.\stlib\STM32F10x_StdPeriph_Driver\src/stm32f10x_can.c ****               /* Note : the corresponding Flag is cleared by hardware depending 
1352:.\stlib\STM32F10x_StdPeriph_Driver\src/stm32f10x_can.c ****                         of the CAN Bus status*/
1353:.\stlib\STM32F10x_StdPeriph_Driver\src/stm32f10x_can.c **** 	      break;
1354:.\stlib\STM32F10x_StdPeriph_Driver\src/stm32f10x_can.c ****       case CAN_IT_BOF:
1355:.\stlib\STM32F10x_StdPeriph_Driver\src/stm32f10x_can.c ****               /* Clear CAN_MSR_ERRI (rc_w1) */ 
1356:.\stlib\STM32F10x_StdPeriph_Driver\src/stm32f10x_can.c **** 	      CANx->MSR = CAN_MSR_ERRI; 
1357:.\stlib\STM32F10x_StdPeriph_Driver\src/stm32f10x_can.c ****               /* Note : the corresponding Flag is cleared by hardware depending 
1358:.\stlib\STM32F10x_StdPeriph_Driver\src/stm32f10x_can.c ****                         of the CAN Bus status*/
1359:.\stlib\STM32F10x_StdPeriph_Driver\src/stm32f10x_can.c **** 	      break;
1360:.\stlib\STM32F10x_StdPeriph_Driver\src/stm32f10x_can.c ****       case CAN_IT_LEC:
1361:.\stlib\STM32F10x_StdPeriph_Driver\src/stm32f10x_can.c ****               /*  Clear LEC bits */
1362:.\stlib\STM32F10x_StdPeriph_Driver\src/stm32f10x_can.c **** 	      CANx->ESR = RESET; 
1363:.\stlib\STM32F10x_StdPeriph_Driver\src/stm32f10x_can.c ****               /* Clear CAN_MSR_ERRI (rc_w1) */
1364:.\stlib\STM32F10x_StdPeriph_Driver\src/stm32f10x_can.c **** 	      CANx->MSR = CAN_MSR_ERRI; 
1365:.\stlib\STM32F10x_StdPeriph_Driver\src/stm32f10x_can.c **** 	      break;
1366:.\stlib\STM32F10x_StdPeriph_Driver\src/stm32f10x_can.c ****       case CAN_IT_ERR:
ARM GAS  C:\Users\skey\AppData\Local\Temp\ccv9NfrL.s 			page 67


1367:.\stlib\STM32F10x_StdPeriph_Driver\src/stm32f10x_can.c ****               /*Clear LEC bits */
1368:.\stlib\STM32F10x_StdPeriph_Driver\src/stm32f10x_can.c **** 	      CANx->ESR = RESET; 
1369:.\stlib\STM32F10x_StdPeriph_Driver\src/stm32f10x_can.c ****               /* Clear CAN_MSR_ERRI (rc_w1) */
1370:.\stlib\STM32F10x_StdPeriph_Driver\src/stm32f10x_can.c **** 	      CANx->MSR = CAN_MSR_ERRI; 
1371:.\stlib\STM32F10x_StdPeriph_Driver\src/stm32f10x_can.c **** 	      /* Note : BOFF, EPVF and EWGF Flags are cleared by hardware depending 
1372:.\stlib\STM32F10x_StdPeriph_Driver\src/stm32f10x_can.c ****                   of the CAN Bus status*/
1373:.\stlib\STM32F10x_StdPeriph_Driver\src/stm32f10x_can.c **** 	      break;
1374:.\stlib\STM32F10x_StdPeriph_Driver\src/stm32f10x_can.c ****       default :
1375:.\stlib\STM32F10x_StdPeriph_Driver\src/stm32f10x_can.c **** 	      break;
1376:.\stlib\STM32F10x_StdPeriph_Driver\src/stm32f10x_can.c ****    }
1377:.\stlib\STM32F10x_StdPeriph_Driver\src/stm32f10x_can.c **** }
1378:.\stlib\STM32F10x_StdPeriph_Driver\src/stm32f10x_can.c **** 
1379:.\stlib\STM32F10x_StdPeriph_Driver\src/stm32f10x_can.c **** /**
1380:.\stlib\STM32F10x_StdPeriph_Driver\src/stm32f10x_can.c ****   * @brief  Checks whether the CAN interrupt has occurred or not.
1381:.\stlib\STM32F10x_StdPeriph_Driver\src/stm32f10x_can.c ****   * @param  CAN_Reg: specifies the CAN interrupt register to check.
1382:.\stlib\STM32F10x_StdPeriph_Driver\src/stm32f10x_can.c ****   * @param  It_Bit:  specifies the interrupt source bit to check.
1383:.\stlib\STM32F10x_StdPeriph_Driver\src/stm32f10x_can.c ****   * @retval The new state of the CAN Interrupt (SET or RESET).
1384:.\stlib\STM32F10x_StdPeriph_Driver\src/stm32f10x_can.c ****   */
1385:.\stlib\STM32F10x_StdPeriph_Driver\src/stm32f10x_can.c **** static ITStatus CheckITStatus(uint32_t CAN_Reg, uint32_t It_Bit)
 2255              		.loc 1 1385 17 is_stmt 1 view .LVU659
 2256              	.LBB31:
1386:.\stlib\STM32F10x_StdPeriph_Driver\src/stm32f10x_can.c **** {
1387:.\stlib\STM32F10x_StdPeriph_Driver\src/stm32f10x_can.c ****   ITStatus pendingbitstatus = RESET;
 2257              		.loc 1 1387 3 view .LVU660
1388:.\stlib\STM32F10x_StdPeriph_Driver\src/stm32f10x_can.c ****   
1389:.\stlib\STM32F10x_StdPeriph_Driver\src/stm32f10x_can.c ****   if ((CAN_Reg & It_Bit) != (uint32_t)RESET)
 2258              		.loc 1 1389 3 view .LVU661
 2259              	.LBE31:
 2260              	.LBE30:
 2261              	.LBB33:
 2262              	.LBB34:
 2263              	@ .\stlib\STM32F10x_StdPeriph_Driver\src\stm32f10x_can.c:1397:     pendingbitstatus = RESET;
1390:.\stlib\STM32F10x_StdPeriph_Driver\src/stm32f10x_can.c ****   {
1391:.\stlib\STM32F10x_StdPeriph_Driver\src/stm32f10x_can.c ****     /* CAN_IT is set */
1392:.\stlib\STM32F10x_StdPeriph_Driver\src/stm32f10x_can.c ****     pendingbitstatus = SET;
1393:.\stlib\STM32F10x_StdPeriph_Driver\src/stm32f10x_can.c ****   }
1394:.\stlib\STM32F10x_StdPeriph_Driver\src/stm32f10x_can.c ****   else
1395:.\stlib\STM32F10x_StdPeriph_Driver\src/stm32f10x_can.c ****   {
1396:.\stlib\STM32F10x_StdPeriph_Driver\src/stm32f10x_can.c ****     /* CAN_IT is reset */
1397:.\stlib\STM32F10x_StdPeriph_Driver\src/stm32f10x_can.c ****     pendingbitstatus = RESET;
 2264              		.loc 1 1397 22 is_stmt 0 view .LVU662
 2265 061a C0F34000 		ubfx	r0, r0, #1, #1	@ <retval>, _13,,
 2266              	.LVL112:
 2267              		.loc 1 1397 22 view .LVU663
 2268              	.LBE34:
 2269              	.LBE33:
 2270              	.LBB41:
 2271              	.LBB32:
 2272 061e 7047     		bx	lr	@
 2273              	.LVL113:
 2274              	.L166:
 2275              		.loc 1 1397 22 view .LVU664
 2276              	.LBE32:
 2277              	.LBE41:
 2278              	@ .\stlib\STM32F10x_StdPeriph_Driver\src\stm32f10x_can.c:1214:     switch (CAN_IT)
1214:.\stlib\STM32F10x_StdPeriph_Driver\src/stm32f10x_can.c ****     {
 2279              		.loc 1 1214 5 view .LVU665
ARM GAS  C:\Users\skey\AppData\Local\Temp\ccv9NfrL.s 			page 68


 2280 0620 B1F5803F 		cmp	r1, #65536	@ CAN_IT,
 2281 0624 21D0     		beq	.L170		@,
 2282 0626 B1F5003F 		cmp	r1, #131072	@ CAN_IT,
 2283 062a E6D1     		bne	.L173		@,
1250:.\stlib\STM32F10x_StdPeriph_Driver\src/stm32f10x_can.c **** 	      break;
 2284              		.loc 1 1250 15 is_stmt 1 view .LVU666
 2285              	@ .\stlib\STM32F10x_StdPeriph_Driver\src\stm32f10x_can.c:1250: 	             itstatus = CheckITStat
1250:.\stlib\STM32F10x_StdPeriph_Driver\src/stm32f10x_can.c **** 	      break;
 2286              		.loc 1 1250 26 is_stmt 0 view .LVU667
 2287 062c 5068     		ldr	r0, [r2, #4]	@ _11, CANx_20(D)->MSR
 2288 062e 13E0     		b	.L177		@
 2289              	.LVL114:
 2290              	.L161:
1218:.\stlib\STM32F10x_StdPeriph_Driver\src/stm32f10x_can.c **** 	      break;
 2291              		.loc 1 1218 15 is_stmt 1 view .LVU668
 2292              	@ .\stlib\STM32F10x_StdPeriph_Driver\src\stm32f10x_can.c:1218: 	             itstatus = CheckITStat
1218:.\stlib\STM32F10x_StdPeriph_Driver\src/stm32f10x_can.c **** 	      break;
 2293              		.loc 1 1218 26 is_stmt 0 view .LVU669
 2294 0630 9068     		ldr	r0, [r2, #8]	@ _3, CANx_20(D)->TSR
 2295              	.LVL115:
 2296              	.LBB42:
 2297              	.LBI42:
1385:.\stlib\STM32F10x_StdPeriph_Driver\src/stm32f10x_can.c **** {
 2298              		.loc 1 1385 17 is_stmt 1 view .LVU670
 2299              	.LBB43:
1387:.\stlib\STM32F10x_StdPeriph_Driver\src/stm32f10x_can.c ****   
 2300              		.loc 1 1387 3 view .LVU671
1389:.\stlib\STM32F10x_StdPeriph_Driver\src/stm32f10x_can.c ****   {
 2301              		.loc 1 1389 3 view .LVU672
 2302              	@ .\stlib\STM32F10x_StdPeriph_Driver\src\stm32f10x_can.c:1389:   if ((CAN_Reg & It_Bit) != (uint32_
1389:.\stlib\STM32F10x_StdPeriph_Driver\src/stm32f10x_can.c ****   {
 2303              		.loc 1 1389 16 is_stmt 0 view .LVU673
 2304 0632 00F00130 		and	r0, r0, #16843009	@ tmp158, _3,
 2305              	.LVL116:
1389:.\stlib\STM32F10x_StdPeriph_Driver\src/stm32f10x_can.c ****   {
 2306              		.loc 1 1389 16 view .LVU674
 2307 0636 20F08070 		bic	r0, r0, #16777216	@ tmp158, tmp158,
 2308              	.LBE43:
 2309              	.LBE42:
 2310              	.LBB45:
 2311              	.LBB46:
 2312              	@ .\stlib\STM32F10x_StdPeriph_Driver\src\stm32f10x_can.c:1392:     pendingbitstatus = SET;
1392:.\stlib\STM32F10x_StdPeriph_Driver\src/stm32f10x_can.c ****   }
 2313              		.loc 1 1392 22 view .LVU675
 2314 063a 0038     		subs	r0, r0, #0	@ <retval>, tmp158,
 2315 063c 18BF     		it	ne
 2316 063e 0120     		movne	r0, #1	@ <retval>,
 2317              	.LBE46:
 2318              	.LBE45:
 2319              	.LBB49:
 2320              	.LBB44:
 2321 0640 7047     		bx	lr	@
 2322              	.LVL117:
 2323              	.L160:
1392:.\stlib\STM32F10x_StdPeriph_Driver\src/stm32f10x_can.c ****   }
 2324              		.loc 1 1392 22 view .LVU676
 2325              	.LBE44:
ARM GAS  C:\Users\skey\AppData\Local\Temp\ccv9NfrL.s 			page 69


 2326              	.LBE49:
1222:.\stlib\STM32F10x_StdPeriph_Driver\src/stm32f10x_can.c **** 	      break;
 2327              		.loc 1 1222 15 is_stmt 1 view .LVU677
 2328              	@ .\stlib\STM32F10x_StdPeriph_Driver\src\stm32f10x_can.c:1222: 	             itstatus = CheckITStat
1222:.\stlib\STM32F10x_StdPeriph_Driver\src/stm32f10x_can.c **** 	      break;
 2329              		.loc 1 1222 26 is_stmt 0 view .LVU678
 2330 0642 D068     		ldr	r0, [r2, #12]	@ _4, CANx_20(D)->RF0R
 2331              	.LVL118:
 2332              	.LBB50:
 2333              	.LBI33:
1385:.\stlib\STM32F10x_StdPeriph_Driver\src/stm32f10x_can.c **** {
 2334              		.loc 1 1385 17 is_stmt 1 view .LVU679
 2335              	.LBB35:
1387:.\stlib\STM32F10x_StdPeriph_Driver\src/stm32f10x_can.c ****   
 2336              		.loc 1 1387 3 view .LVU680
1389:.\stlib\STM32F10x_StdPeriph_Driver\src/stm32f10x_can.c ****   {
 2337              		.loc 1 1389 3 view .LVU681
 2338              	.L175:
1389:.\stlib\STM32F10x_StdPeriph_Driver\src/stm32f10x_can.c ****   {
 2339              		.loc 1 1389 3 is_stmt 0 view .LVU682
 2340              	.LBE35:
 2341              	.LBE50:
 2342              	.LBB51:
 2343              	.LBI51:
1385:.\stlib\STM32F10x_StdPeriph_Driver\src/stm32f10x_can.c **** {
 2344              		.loc 1 1385 17 is_stmt 1 view .LVU683
 2345              	.LBB52:
1387:.\stlib\STM32F10x_StdPeriph_Driver\src/stm32f10x_can.c ****   
 2346              		.loc 1 1387 3 view .LVU684
1389:.\stlib\STM32F10x_StdPeriph_Driver\src/stm32f10x_can.c ****   {
 2347              		.loc 1 1389 3 view .LVU685
 2348              	.LBE52:
 2349              	.LBE51:
 2350              	.LBB54:
 2351              	.LBB36:
 2352              	@ .\stlib\STM32F10x_StdPeriph_Driver\src\stm32f10x_can.c:1397:     pendingbitstatus = RESET;
 2353              		.loc 1 1397 22 is_stmt 0 view .LVU686
 2354 0644 10F00300 		ands	r0, r0, #3	@ <retval>, _7,
 2355              	.LVL119:
 2356              		.loc 1 1397 22 view .LVU687
 2357 0648 18BF     		it	ne
 2358 064a 0120     		movne	r0, #1	@ <retval>,
 2359              	.LBE36:
 2360              	.LBE54:
 2361              	.LBB55:
 2362              	.LBB53:
 2363 064c 7047     		bx	lr	@
 2364              	.LVL120:
 2365              	.L159:
 2366              		.loc 1 1397 22 view .LVU688
 2367              	.LBE53:
 2368              	.LBE55:
1226:.\stlib\STM32F10x_StdPeriph_Driver\src/stm32f10x_can.c **** 	      break;
 2369              		.loc 1 1226 16 is_stmt 1 view .LVU689
 2370              	@ .\stlib\STM32F10x_StdPeriph_Driver\src\stm32f10x_can.c:1226:                itstatus = CheckITSta
1226:.\stlib\STM32F10x_StdPeriph_Driver\src/stm32f10x_can.c **** 	      break;
 2371              		.loc 1 1226 27 is_stmt 0 view .LVU690
ARM GAS  C:\Users\skey\AppData\Local\Temp\ccv9NfrL.s 			page 70


 2372 064e D068     		ldr	r0, [r2, #12]	@ _5, CANx_20(D)->RF0R
 2373              	.LVL121:
 2374              	.LBB56:
 2375              	.LBI56:
1385:.\stlib\STM32F10x_StdPeriph_Driver\src/stm32f10x_can.c **** {
 2376              		.loc 1 1385 17 is_stmt 1 view .LVU691
 2377              	.LBB57:
1387:.\stlib\STM32F10x_StdPeriph_Driver\src/stm32f10x_can.c ****   
 2378              		.loc 1 1387 3 view .LVU692
1389:.\stlib\STM32F10x_StdPeriph_Driver\src/stm32f10x_can.c ****   {
 2379              		.loc 1 1389 3 view .LVU693
 2380              	.L176:
1389:.\stlib\STM32F10x_StdPeriph_Driver\src/stm32f10x_can.c ****   {
 2381              		.loc 1 1389 3 is_stmt 0 view .LVU694
 2382              	.LBE57:
 2383              	.LBE56:
 2384              	.LBB58:
 2385              	.LBI58:
1385:.\stlib\STM32F10x_StdPeriph_Driver\src/stm32f10x_can.c **** {
 2386              		.loc 1 1385 17 is_stmt 1 view .LVU695
 2387              	.LBB59:
1387:.\stlib\STM32F10x_StdPeriph_Driver\src/stm32f10x_can.c ****   
 2388              		.loc 1 1387 3 view .LVU696
1389:.\stlib\STM32F10x_StdPeriph_Driver\src/stm32f10x_can.c ****   {
 2389              		.loc 1 1389 3 view .LVU697
 2390              	.LBE59:
 2391              	.LBE58:
 2392              	.LBB61:
 2393              	.LBB37:
 2394              	@ .\stlib\STM32F10x_StdPeriph_Driver\src\stm32f10x_can.c:1397:     pendingbitstatus = RESET;
 2395              		.loc 1 1397 22 is_stmt 0 view .LVU698
 2396 0650 C0F3C000 		ubfx	r0, r0, #3, #1	@ <retval>, _8,,
 2397              	.LVL122:
 2398              		.loc 1 1397 22 view .LVU699
 2399              	.LBE37:
 2400              	.LBE61:
 2401              	.LBB62:
 2402              	.LBB60:
 2403 0654 7047     		bx	lr	@
 2404              	.LVL123:
 2405              	.L157:
 2406              		.loc 1 1397 22 view .LVU700
 2407              	.LBE60:
 2408              	.LBE62:
1230:.\stlib\STM32F10x_StdPeriph_Driver\src/stm32f10x_can.c **** 	      break;
 2409              		.loc 1 1230 16 is_stmt 1 view .LVU701
 2410              	@ .\stlib\STM32F10x_StdPeriph_Driver\src\stm32f10x_can.c:1230:                itstatus = CheckITSta
1230:.\stlib\STM32F10x_StdPeriph_Driver\src/stm32f10x_can.c **** 	      break;
 2411              		.loc 1 1230 27 is_stmt 0 view .LVU702
 2412 0656 D068     		ldr	r0, [r2, #12]	@ _6, CANx_20(D)->RF0R
 2413              	.LVL124:
 2414              	.LBB63:
 2415              	.LBI63:
1385:.\stlib\STM32F10x_StdPeriph_Driver\src/stm32f10x_can.c **** {
 2416              		.loc 1 1385 17 is_stmt 1 view .LVU703
 2417              	.LBB64:
1387:.\stlib\STM32F10x_StdPeriph_Driver\src/stm32f10x_can.c ****   
ARM GAS  C:\Users\skey\AppData\Local\Temp\ccv9NfrL.s 			page 71


 2418              		.loc 1 1387 3 view .LVU704
1389:.\stlib\STM32F10x_StdPeriph_Driver\src/stm32f10x_can.c ****   {
 2419              		.loc 1 1389 3 view .LVU705
 2420              	.L177:
1389:.\stlib\STM32F10x_StdPeriph_Driver\src/stm32f10x_can.c ****   {
 2421              		.loc 1 1389 3 is_stmt 0 view .LVU706
 2422              	.LBE64:
 2423              	.LBE63:
 2424              	.LBB65:
 2425              	.LBI65:
1385:.\stlib\STM32F10x_StdPeriph_Driver\src/stm32f10x_can.c **** {
 2426              		.loc 1 1385 17 is_stmt 1 view .LVU707
 2427              	.LBB66:
1387:.\stlib\STM32F10x_StdPeriph_Driver\src/stm32f10x_can.c ****   
 2428              		.loc 1 1387 3 view .LVU708
1389:.\stlib\STM32F10x_StdPeriph_Driver\src/stm32f10x_can.c ****   {
 2429              		.loc 1 1389 3 view .LVU709
 2430              	.LBE66:
 2431              	.LBE65:
 2432              	.LBB68:
 2433              	.LBB38:
 2434              	@ .\stlib\STM32F10x_StdPeriph_Driver\src\stm32f10x_can.c:1397:     pendingbitstatus = RESET;
 2435              		.loc 1 1397 22 is_stmt 0 view .LVU710
 2436 0658 C0F30010 		ubfx	r0, r0, #4, #1	@ <retval>, _11,,
 2437              	.LVL125:
 2438              		.loc 1 1397 22 view .LVU711
 2439              	.LBE38:
 2440              	.LBE68:
 2441              	.LBB69:
 2442              	.LBB67:
 2443 065c 7047     		bx	lr	@
 2444              	.LVL126:
 2445              	.L164:
 2446              		.loc 1 1397 22 view .LVU712
 2447              	.LBE67:
 2448              	.LBE69:
1234:.\stlib\STM32F10x_StdPeriph_Driver\src/stm32f10x_can.c **** 	      break;
 2449              		.loc 1 1234 16 is_stmt 1 view .LVU713
 2450              	@ .\stlib\STM32F10x_StdPeriph_Driver\src\stm32f10x_can.c:1234:                itstatus = CheckITSta
1234:.\stlib\STM32F10x_StdPeriph_Driver\src/stm32f10x_can.c **** 	      break;
 2451              		.loc 1 1234 27 is_stmt 0 view .LVU714
 2452 065e 1069     		ldr	r0, [r2, #16]	@ _7, CANx_20(D)->RF1R
 2453 0660 F0E7     		b	.L175		@
 2454              	.L162:
1238:.\stlib\STM32F10x_StdPeriph_Driver\src/stm32f10x_can.c **** 	      break;
 2455              		.loc 1 1238 15 is_stmt 1 view .LVU715
 2456              	@ .\stlib\STM32F10x_StdPeriph_Driver\src\stm32f10x_can.c:1238: 	             itstatus = CheckITStat
1238:.\stlib\STM32F10x_StdPeriph_Driver\src/stm32f10x_can.c **** 	      break;
 2457              		.loc 1 1238 26 is_stmt 0 view .LVU716
 2458 0662 1069     		ldr	r0, [r2, #16]	@ _8, CANx_20(D)->RF1R
 2459 0664 F4E7     		b	.L176		@
 2460              	.L163:
1242:.\stlib\STM32F10x_StdPeriph_Driver\src/stm32f10x_can.c **** 	      break;
 2461              		.loc 1 1242 15 is_stmt 1 view .LVU717
 2462              	@ .\stlib\STM32F10x_StdPeriph_Driver\src\stm32f10x_can.c:1242: 	             itstatus = CheckITStat
1242:.\stlib\STM32F10x_StdPeriph_Driver\src/stm32f10x_can.c **** 	      break;
 2463              		.loc 1 1242 26 is_stmt 0 view .LVU718
ARM GAS  C:\Users\skey\AppData\Local\Temp\ccv9NfrL.s 			page 72


 2464 0666 1069     		ldr	r0, [r2, #16]	@ _9, CANx_20(D)->RF1R
 2465              	.LVL127:
 2466              	.LBB70:
 2467              	.LBI70:
1385:.\stlib\STM32F10x_StdPeriph_Driver\src/stm32f10x_can.c **** {
 2468              		.loc 1 1385 17 is_stmt 1 view .LVU719
 2469              	.LBB71:
1387:.\stlib\STM32F10x_StdPeriph_Driver\src/stm32f10x_can.c ****   
 2470              		.loc 1 1387 3 view .LVU720
1389:.\stlib\STM32F10x_StdPeriph_Driver\src/stm32f10x_can.c ****   {
 2471              		.loc 1 1389 3 view .LVU721
 2472 0668 F6E7     		b	.L177		@
 2473              	.LVL128:
 2474              	.L170:
1389:.\stlib\STM32F10x_StdPeriph_Driver\src/stm32f10x_can.c ****   {
 2475              		.loc 1 1389 3 is_stmt 0 view .LVU722
 2476              	.LBE71:
 2477              	.LBE70:
1246:.\stlib\STM32F10x_StdPeriph_Driver\src/stm32f10x_can.c **** 	      break;
 2478              		.loc 1 1246 16 is_stmt 1 view .LVU723
 2479              	@ .\stlib\STM32F10x_StdPeriph_Driver\src\stm32f10x_can.c:1246:                itstatus = CheckITSta
1246:.\stlib\STM32F10x_StdPeriph_Driver\src/stm32f10x_can.c **** 	      break;
 2480              		.loc 1 1246 27 is_stmt 0 view .LVU724
 2481 066a 5068     		ldr	r0, [r2, #4]	@ _10, CANx_20(D)->MSR
 2482              	.LVL129:
 2483              	.LBB72:
 2484              	.LBI72:
1385:.\stlib\STM32F10x_StdPeriph_Driver\src/stm32f10x_can.c **** {
 2485              		.loc 1 1385 17 is_stmt 1 view .LVU725
 2486              	.LBB73:
1387:.\stlib\STM32F10x_StdPeriph_Driver\src/stm32f10x_can.c ****   
 2487              		.loc 1 1387 3 view .LVU726
1389:.\stlib\STM32F10x_StdPeriph_Driver\src/stm32f10x_can.c ****   {
 2488              		.loc 1 1389 3 view .LVU727
 2489 066c F0E7     		b	.L176		@
 2490              	.LVL130:
 2491              	.L154:
1389:.\stlib\STM32F10x_StdPeriph_Driver\src/stm32f10x_can.c ****   {
 2492              		.loc 1 1389 3 is_stmt 0 view .LVU728
 2493              	.LBE73:
 2494              	.LBE72:
1254:.\stlib\STM32F10x_StdPeriph_Driver\src/stm32f10x_can.c **** 	      break;
 2495              		.loc 1 1254 15 is_stmt 1 view .LVU729
 2496              	@ .\stlib\STM32F10x_StdPeriph_Driver\src\stm32f10x_can.c:1254: 	             itstatus = CheckITStat
1254:.\stlib\STM32F10x_StdPeriph_Driver\src/stm32f10x_can.c **** 	      break;
 2497              		.loc 1 1254 26 is_stmt 0 view .LVU730
 2498 066e 9069     		ldr	r0, [r2, #24]	@ _12, CANx_20(D)->ESR
 2499              	.LVL131:
 2500              	.LBB74:
 2501              	.LBI74:
1385:.\stlib\STM32F10x_StdPeriph_Driver\src/stm32f10x_can.c **** {
 2502              		.loc 1 1385 17 is_stmt 1 view .LVU731
 2503              	.LBB75:
1387:.\stlib\STM32F10x_StdPeriph_Driver\src/stm32f10x_can.c ****   
 2504              		.loc 1 1387 3 view .LVU732
1389:.\stlib\STM32F10x_StdPeriph_Driver\src/stm32f10x_can.c ****   {
 2505              		.loc 1 1389 3 view .LVU733
ARM GAS  C:\Users\skey\AppData\Local\Temp\ccv9NfrL.s 			page 73


 2506              	@ .\stlib\STM32F10x_StdPeriph_Driver\src\stm32f10x_can.c:1389:   if ((CAN_Reg & It_Bit) != (uint32_
1389:.\stlib\STM32F10x_StdPeriph_Driver\src/stm32f10x_can.c ****   {
 2507              		.loc 1 1389 6 is_stmt 0 view .LVU734
 2508 0670 00F00100 		and	r0, r0, #1	@ <retval>, _12,
 2509              	.LVL132:
1389:.\stlib\STM32F10x_StdPeriph_Driver\src/stm32f10x_can.c ****   {
 2510              		.loc 1 1389 6 view .LVU735
 2511 0674 7047     		bx	lr	@
 2512              	.LVL133:
 2513              	.L167:
1389:.\stlib\STM32F10x_StdPeriph_Driver\src/stm32f10x_can.c ****   {
 2514              		.loc 1 1389 6 view .LVU736
 2515              	.LBE75:
 2516              	.LBE74:
1262:.\stlib\STM32F10x_StdPeriph_Driver\src/stm32f10x_can.c **** 	      break;
 2517              		.loc 1 1262 15 is_stmt 1 view .LVU737
 2518              	@ .\stlib\STM32F10x_StdPeriph_Driver\src\stm32f10x_can.c:1262: 	             itstatus = CheckITStat
1262:.\stlib\STM32F10x_StdPeriph_Driver\src/stm32f10x_can.c **** 	      break;
 2519              		.loc 1 1262 26 is_stmt 0 view .LVU738
 2520 0676 9069     		ldr	r0, [r2, #24]	@ _14, CANx_20(D)->ESR
 2521              	.LVL134:
 2522              	.LBB76:
 2523              	.LBI76:
1385:.\stlib\STM32F10x_StdPeriph_Driver\src/stm32f10x_can.c **** {
 2524              		.loc 1 1385 17 is_stmt 1 view .LVU739
 2525              	.LBB77:
1387:.\stlib\STM32F10x_StdPeriph_Driver\src/stm32f10x_can.c ****   
 2526              		.loc 1 1387 3 view .LVU740
1389:.\stlib\STM32F10x_StdPeriph_Driver\src/stm32f10x_can.c ****   {
 2527              		.loc 1 1389 3 view .LVU741
 2528              	.L174:
1389:.\stlib\STM32F10x_StdPeriph_Driver\src/stm32f10x_can.c ****   {
 2529              		.loc 1 1389 3 is_stmt 0 view .LVU742
 2530              	.LBE77:
 2531              	.LBE76:
 2532              	.LBB78:
 2533              	.LBI78:
1385:.\stlib\STM32F10x_StdPeriph_Driver\src/stm32f10x_can.c **** {
 2534              		.loc 1 1385 17 is_stmt 1 view .LVU743
 2535              	.LBB79:
1387:.\stlib\STM32F10x_StdPeriph_Driver\src/stm32f10x_can.c ****   
 2536              		.loc 1 1387 3 view .LVU744
1389:.\stlib\STM32F10x_StdPeriph_Driver\src/stm32f10x_can.c ****   {
 2537              		.loc 1 1389 3 view .LVU745
 2538              	.LBE79:
 2539              	.LBE78:
 2540              	.LBB81:
 2541              	.LBB39:
 2542              	@ .\stlib\STM32F10x_StdPeriph_Driver\src\stm32f10x_can.c:1397:     pendingbitstatus = RESET;
 2543              		.loc 1 1397 22 is_stmt 0 view .LVU746
 2544 0678 C0F38000 		ubfx	r0, r0, #2, #1	@ <retval>, _16,,
 2545              	.LVL135:
 2546              		.loc 1 1397 22 view .LVU747
 2547              	.LBE39:
 2548              	.LBE81:
 2549              	.LBB82:
 2550              	.LBB80:
ARM GAS  C:\Users\skey\AppData\Local\Temp\ccv9NfrL.s 			page 74


 2551 067c 7047     		bx	lr	@
 2552              	.LVL136:
 2553              	.L168:
 2554              		.loc 1 1397 22 view .LVU748
 2555              	.LBE80:
 2556              	.LBE82:
1266:.\stlib\STM32F10x_StdPeriph_Driver\src/stm32f10x_can.c **** 	      break;
 2557              		.loc 1 1266 15 is_stmt 1 view .LVU749
 2558              	@ .\stlib\STM32F10x_StdPeriph_Driver\src\stm32f10x_can.c:1266: 	             itstatus = CheckITStat
1266:.\stlib\STM32F10x_StdPeriph_Driver\src/stm32f10x_can.c **** 	      break;
 2559              		.loc 1 1266 26 is_stmt 0 view .LVU750
 2560 067e 9369     		ldr	r3, [r2, #24]	@ _15, CANx_20(D)->ESR
 2561              	.LVL137:
 2562              	.LBB83:
 2563              	.LBI45:
1385:.\stlib\STM32F10x_StdPeriph_Driver\src/stm32f10x_can.c **** {
 2564              		.loc 1 1385 17 is_stmt 1 view .LVU751
 2565              	.LBB47:
1387:.\stlib\STM32F10x_StdPeriph_Driver\src/stm32f10x_can.c ****   
 2566              		.loc 1 1387 3 view .LVU752
1389:.\stlib\STM32F10x_StdPeriph_Driver\src/stm32f10x_can.c ****   {
 2567              		.loc 1 1389 3 view .LVU753
 2568              	@ .\stlib\STM32F10x_StdPeriph_Driver\src\stm32f10x_can.c:1389:   if ((CAN_Reg & It_Bit) != (uint32_
1389:.\stlib\STM32F10x_StdPeriph_Driver\src/stm32f10x_can.c ****   {
 2569              		.loc 1 1389 6 is_stmt 0 view .LVU754
 2570 0680 13F0700F 		tst	r3, #112	@ _15,
 2571              	.LBE47:
 2572              	.LBE83:
 2573              	.LBB84:
 2574              	.LBB40:
 2575              	@ .\stlib\STM32F10x_StdPeriph_Driver\src\stm32f10x_can.c:1397:     pendingbitstatus = RESET;
 2576              		.loc 1 1397 22 view .LVU755
 2577 0684 14BF     		ite	ne
 2578 0686 0120     		movne	r0, #1	@ <retval>,
 2579 0688 0020     		moveq	r0, #0	@ <retval>,
 2580              	.LBE40:
 2581              	.LBE84:
 2582              	.LBB85:
 2583              	.LBB48:
 2584 068a 7047     		bx	lr	@
 2585              	.LVL138:
 2586              	.L165:
 2587              		.loc 1 1397 22 view .LVU756
 2588              	.LBE48:
 2589              	.LBE85:
1270:.\stlib\STM32F10x_StdPeriph_Driver\src/stm32f10x_can.c **** 	      break;
 2590              		.loc 1 1270 16 is_stmt 1 view .LVU757
 2591              	@ .\stlib\STM32F10x_StdPeriph_Driver\src\stm32f10x_can.c:1270:                itstatus = CheckITSta
1270:.\stlib\STM32F10x_StdPeriph_Driver\src/stm32f10x_can.c **** 	      break;
 2592              		.loc 1 1270 27 is_stmt 0 view .LVU758
 2593 068c 5068     		ldr	r0, [r2, #4]	@ _16, CANx_20(D)->MSR
 2594 068e F3E7     		b	.L174		@
 2595              		.cfi_endproc
 2596              	.LFE51:
 2597              		.size	CAN_GetITStatus, .-CAN_GetITStatus
 2598              		.align	1
 2599              		.global	CAN_ClearITPendingBit
ARM GAS  C:\Users\skey\AppData\Local\Temp\ccv9NfrL.s 			page 75


 2600              		.syntax unified
 2601              		.thumb
 2602              		.thumb_func
 2603              		.fpu softvfp
 2604              		.type	CAN_ClearITPendingBit, %function
 2605              	CAN_ClearITPendingBit:
 2606              	.LVL139:
 2607              	.LFB52:
1307:.\stlib\STM32F10x_StdPeriph_Driver\src/stm32f10x_can.c ****   /* Check the parameters */
 2608              		.loc 1 1307 1 is_stmt 1 view -0
 2609              		.cfi_startproc
 2610              		@ args = 0, pretend = 0, frame = 0
 2611              		@ frame_needed = 0, uses_anonymous_args = 0
 2612              		@ link register save eliminated.
1309:.\stlib\STM32F10x_StdPeriph_Driver\src/stm32f10x_can.c ****   assert_param(IS_CAN_CLEAR_IT(CAN_IT));
 2613              		.loc 1 1309 3 view .LVU760
1310:.\stlib\STM32F10x_StdPeriph_Driver\src/stm32f10x_can.c **** 
 2614              		.loc 1 1310 3 view .LVU761
1312:.\stlib\STM32F10x_StdPeriph_Driver\src/stm32f10x_can.c ****   {
 2615              		.loc 1 1312 3 view .LVU762
 2616 0690 B1F5007F 		cmp	r1, #512	@ CAN_IT,
 2617 0694 36D0     		beq	.L196		@,
 2618 0696 0FD8     		bhi	.L180		@,
 2619 0698 2029     		cmp	r1, #32	@ CAN_IT,
 2620 069a 27D0     		beq	.L181		@,
 2621 069c 06D8     		bhi	.L182		@,
 2622 069e 0429     		cmp	r1, #4	@ CAN_IT,
 2623 06a0 1FD0     		beq	.L183		@,
 2624 06a2 0829     		cmp	r1, #8	@ CAN_IT,
 2625 06a4 20D0     		beq	.L184		@,
 2626 06a6 0129     		cmp	r1, #1	@ CAN_IT,
 2627 06a8 18D0     		beq	.L185		@,
 2628 06aa 7047     		bx	lr	@
 2629              	.L182:
 2630 06ac 4029     		cmp	r1, #64	@ CAN_IT,
 2631 06ae 20D0     		beq	.L187		@,
 2632 06b0 B1F5807F 		cmp	r1, #256	@ CAN_IT,
 2633 06b4 26D0     		beq	.L196		@,
 2634 06b6 7047     		bx	lr	@
 2635              	.L180:
1312:.\stlib\STM32F10x_StdPeriph_Driver\src/stm32f10x_can.c ****   {
 2636              		.loc 1 1312 3 is_stmt 0 view .LVU763
 2637 06b8 B1F5004F 		cmp	r1, #32768	@ CAN_IT,
 2638 06bc 20D0     		beq	.L189		@,
 2639 06be 06D8     		bhi	.L190		@,
 2640 06c0 B1F5806F 		cmp	r1, #1024	@ CAN_IT,
 2641 06c4 1ED0     		beq	.L196		@,
 2642 06c6 B1F5006F 		cmp	r1, #2048	@ CAN_IT,
 2643 06ca 19D0     		beq	.L189		@,
 2644 06cc 7047     		bx	lr	@
 2645              	.L190:
 2646 06ce B1F5803F 		cmp	r1, #65536	@ CAN_IT,
 2647 06d2 10D0     		beq	.L193		@,
 2648 06d4 B1F5003F 		cmp	r1, #131072	@ CAN_IT,
 2649 06d8 10D0     		beq	.L194		@,
 2650 06da 7047     		bx	lr	@
 2651              	.L185:
ARM GAS  C:\Users\skey\AppData\Local\Temp\ccv9NfrL.s 			page 76


1316:.\stlib\STM32F10x_StdPeriph_Driver\src/stm32f10x_can.c **** 	      break;
 2652              		.loc 1 1316 8 is_stmt 1 view .LVU764
 2653              	@ .\stlib\STM32F10x_StdPeriph_Driver\src\stm32f10x_can.c:1316: 	      CANx->TSR = CAN_TSR_RQCP0|CAN
1316:.\stlib\STM32F10x_StdPeriph_Driver\src/stm32f10x_can.c **** 	      break;
 2654              		.loc 1 1316 18 is_stmt 0 view .LVU765
 2655 06dc 0A4B     		ldr	r3, .L199	@ tmp112,
 2656 06de 8360     		str	r3, [r0, #8]	@ tmp112, CANx_4(D)->TSR
1317:.\stlib\STM32F10x_StdPeriph_Driver\src/stm32f10x_can.c ****       case CAN_IT_FF0:
 2657              		.loc 1 1317 8 is_stmt 1 view .LVU766
 2658 06e0 7047     		bx	lr	@
 2659              	.L183:
1320:.\stlib\STM32F10x_StdPeriph_Driver\src/stm32f10x_can.c **** 	      break;
 2660              		.loc 1 1320 8 view .LVU767
 2661              	@ .\stlib\STM32F10x_StdPeriph_Driver\src\stm32f10x_can.c:1320: 	      CANx->RF0R = CAN_RF0R_FULL0; 
1320:.\stlib\STM32F10x_StdPeriph_Driver\src/stm32f10x_can.c **** 	      break;
 2662              		.loc 1 1320 19 is_stmt 0 view .LVU768
 2663 06e2 0823     		movs	r3, #8	@ tmp113,
 2664              	.L195:
 2665              	@ .\stlib\STM32F10x_StdPeriph_Driver\src\stm32f10x_can.c:1324: 	      CANx->RF0R = CAN_RF0R_FOVR0; 
1324:.\stlib\STM32F10x_StdPeriph_Driver\src/stm32f10x_can.c **** 	      break;
 2666              		.loc 1 1324 19 view .LVU769
 2667 06e4 C360     		str	r3, [r0, #12]	@ tmp114,
1325:.\stlib\STM32F10x_StdPeriph_Driver\src/stm32f10x_can.c ****       case CAN_IT_FF1:
 2668              		.loc 1 1325 8 is_stmt 1 view .LVU770
 2669 06e6 7047     		bx	lr	@
 2670              	.L184:
1324:.\stlib\STM32F10x_StdPeriph_Driver\src/stm32f10x_can.c **** 	      break;
 2671              		.loc 1 1324 8 view .LVU771
 2672              	@ .\stlib\STM32F10x_StdPeriph_Driver\src\stm32f10x_can.c:1324: 	      CANx->RF0R = CAN_RF0R_FOVR0; 
1324:.\stlib\STM32F10x_StdPeriph_Driver\src/stm32f10x_can.c **** 	      break;
 2673              		.loc 1 1324 19 is_stmt 0 view .LVU772
 2674 06e8 1023     		movs	r3, #16	@ tmp114,
 2675 06ea FBE7     		b	.L195		@
 2676              	.L181:
1328:.\stlib\STM32F10x_StdPeriph_Driver\src/stm32f10x_can.c **** 	      break;
 2677              		.loc 1 1328 8 is_stmt 1 view .LVU773
 2678              	@ .\stlib\STM32F10x_StdPeriph_Driver\src\stm32f10x_can.c:1328: 	      CANx->RF1R = CAN_RF1R_FULL1; 
1328:.\stlib\STM32F10x_StdPeriph_Driver\src/stm32f10x_can.c **** 	      break;
 2679              		.loc 1 1328 19 is_stmt 0 view .LVU774
 2680 06ec 0823     		movs	r3, #8	@ tmp115,
 2681              	.L198:
 2682              	@ .\stlib\STM32F10x_StdPeriph_Driver\src\stm32f10x_can.c:1332: 	      CANx->RF1R = CAN_RF1R_FOVR1; 
1332:.\stlib\STM32F10x_StdPeriph_Driver\src/stm32f10x_can.c **** 	      break;
 2683              		.loc 1 1332 19 view .LVU775
 2684 06ee 0361     		str	r3, [r0, #16]	@ tmp116,
1333:.\stlib\STM32F10x_StdPeriph_Driver\src/stm32f10x_can.c ****       case CAN_IT_WKU:
 2685              		.loc 1 1333 8 is_stmt 1 view .LVU776
 2686 06f0 7047     		bx	lr	@
 2687              	.L187:
1332:.\stlib\STM32F10x_StdPeriph_Driver\src/stm32f10x_can.c **** 	      break;
 2688              		.loc 1 1332 8 view .LVU777
 2689              	@ .\stlib\STM32F10x_StdPeriph_Driver\src\stm32f10x_can.c:1332: 	      CANx->RF1R = CAN_RF1R_FOVR1; 
1332:.\stlib\STM32F10x_StdPeriph_Driver\src/stm32f10x_can.c **** 	      break;
 2690              		.loc 1 1332 19 is_stmt 0 view .LVU778
 2691 06f2 1023     		movs	r3, #16	@ tmp116,
 2692 06f4 FBE7     		b	.L198		@
 2693              	.L193:
ARM GAS  C:\Users\skey\AppData\Local\Temp\ccv9NfrL.s 			page 77


1336:.\stlib\STM32F10x_StdPeriph_Driver\src/stm32f10x_can.c **** 	      break;
 2694              		.loc 1 1336 8 is_stmt 1 view .LVU779
 2695              	@ .\stlib\STM32F10x_StdPeriph_Driver\src\stm32f10x_can.c:1336: 	      CANx->MSR = CAN_MSR_WKUI;  
1336:.\stlib\STM32F10x_StdPeriph_Driver\src/stm32f10x_can.c **** 	      break;
 2696              		.loc 1 1336 18 is_stmt 0 view .LVU780
 2697 06f6 0823     		movs	r3, #8	@ tmp117,
 2698              	.L197:
 2699              	@ .\stlib\STM32F10x_StdPeriph_Driver\src\stm32f10x_can.c:1370: 	      CANx->MSR = CAN_MSR_ERRI; 
1370:.\stlib\STM32F10x_StdPeriph_Driver\src/stm32f10x_can.c **** 	      /* Note : BOFF, EPVF and EWGF Flags are cleared by hardware depending 
 2700              		.loc 1 1370 18 view .LVU781
 2701 06f8 4360     		str	r3, [r0, #4]	@ tmp125,
1373:.\stlib\STM32F10x_StdPeriph_Driver\src/stm32f10x_can.c ****       default :
 2702              		.loc 1 1373 8 is_stmt 1 view .LVU782
 2703              	@ .\stlib\STM32F10x_StdPeriph_Driver\src\stm32f10x_can.c:1377: }
1377:.\stlib\STM32F10x_StdPeriph_Driver\src/stm32f10x_can.c **** 
 2704              		.loc 1 1377 1 is_stmt 0 view .LVU783
 2705 06fa 7047     		bx	lr	@
 2706              	.L194:
1340:.\stlib\STM32F10x_StdPeriph_Driver\src/stm32f10x_can.c **** 	      break;
 2707              		.loc 1 1340 8 is_stmt 1 view .LVU784
 2708              	@ .\stlib\STM32F10x_StdPeriph_Driver\src\stm32f10x_can.c:1340: 	      CANx->MSR = CAN_MSR_SLAKI;   
1340:.\stlib\STM32F10x_StdPeriph_Driver\src/stm32f10x_can.c **** 	      break;
 2709              		.loc 1 1340 18 is_stmt 0 view .LVU785
 2710 06fc 1023     		movs	r3, #16	@ tmp118,
 2711 06fe FBE7     		b	.L197		@
 2712              	.L189:
1368:.\stlib\STM32F10x_StdPeriph_Driver\src/stm32f10x_can.c ****               /* Clear CAN_MSR_ERRI (rc_w1) */
 2713              		.loc 1 1368 8 is_stmt 1 view .LVU786
 2714              	@ .\stlib\STM32F10x_StdPeriph_Driver\src\stm32f10x_can.c:1368: 	      CANx->ESR = RESET; 
1368:.\stlib\STM32F10x_StdPeriph_Driver\src/stm32f10x_can.c ****               /* Clear CAN_MSR_ERRI (rc_w1) */
 2715              		.loc 1 1368 18 is_stmt 0 view .LVU787
 2716 0700 0023     		movs	r3, #0	@ tmp124,
 2717 0702 8361     		str	r3, [r0, #24]	@ tmp124,
 2718              	.L196:
1370:.\stlib\STM32F10x_StdPeriph_Driver\src/stm32f10x_can.c **** 	      /* Note : BOFF, EPVF and EWGF Flags are cleared by hardware depending 
 2719              		.loc 1 1370 8 is_stmt 1 view .LVU788
 2720              	@ .\stlib\STM32F10x_StdPeriph_Driver\src\stm32f10x_can.c:1370: 	      CANx->MSR = CAN_MSR_ERRI; 
1370:.\stlib\STM32F10x_StdPeriph_Driver\src/stm32f10x_can.c **** 	      /* Note : BOFF, EPVF and EWGF Flags are cleared by hardware depending 
 2721              		.loc 1 1370 18 is_stmt 0 view .LVU789
 2722 0704 0423     		movs	r3, #4	@ tmp125,
 2723 0706 F7E7     		b	.L197		@
 2724              	.L200:
 2725              		.align	2
 2726              	.L199:
 2727 0708 01010100 		.word	65793
 2728              		.cfi_endproc
 2729              	.LFE52:
 2730              		.size	CAN_ClearITPendingBit, .-CAN_ClearITPendingBit
 2731              	.Letext0:
 2732              		.file 2 "c:\\program files (x86)\\gnu tools arm embedded\\9 2019-q4-major\\arm-none-eabi\\include\
 2733              		.file 3 "c:\\program files (x86)\\gnu tools arm embedded\\9 2019-q4-major\\arm-none-eabi\\include\
 2734              		.file 4 ".\\stlib\\CMSIS\\CM3\\CoreSupport/core_cm3.h"
 2735              		.file 5 ".\\stlib\\CMSIS\\CM3\\DeviceSupport\\ST\\STM32F10x/system_stm32f10x.h"
 2736              		.file 6 ".\\stlib\\CMSIS\\CM3\\DeviceSupport\\ST\\STM32F10x/stm32f10x.h"
 2737              		.file 7 ".\\stlib\\STM32F10x_StdPeriph_Driver\\inc/stm32f10x_can.h"
 2738              		.file 8 ".\\stlib\\STM32F10x_StdPeriph_Driver\\inc/stm32f10x_rcc.h"
 2739              		.section	.debug_info,"",%progbits
ARM GAS  C:\Users\skey\AppData\Local\Temp\ccv9NfrL.s 			page 78


 2740              	.Ldebug_info0:
 2741 0000 99110000 		.4byte	0x1199
 2742 0004 0200     		.2byte	0x2
 2743 0006 00000000 		.4byte	.Ldebug_abbrev0
 2744 000a 04       		.byte	0x4
 2745 000b 01       		.uleb128 0x1
 2746 000c 12010000 		.4byte	.LASF130
 2747 0010 0C       		.byte	0xc
 2748 0011 F5060000 		.4byte	.LASF131
 2749 0015 45050000 		.4byte	.LASF132
 2750 0019 00000000 		.4byte	.Ltext0
 2751 001d 0C070000 		.4byte	.Letext0
 2752 0021 00000000 		.4byte	.Ldebug_line0
 2753 0025 02       		.uleb128 0x2
 2754 0026 01       		.byte	0x1
 2755 0027 06       		.byte	0x6
 2756 0028 C2010000 		.4byte	.LASF0
 2757 002c 03       		.uleb128 0x3
 2758 002d 37000000 		.4byte	.LASF3
 2759 0031 02       		.byte	0x2
 2760 0032 2B       		.byte	0x2b
 2761 0033 18       		.byte	0x18
 2762 0034 38000000 		.4byte	0x38
 2763 0038 02       		.uleb128 0x2
 2764 0039 01       		.byte	0x1
 2765 003a 08       		.byte	0x8
 2766 003b D6040000 		.4byte	.LASF1
 2767 003f 02       		.uleb128 0x2
 2768 0040 02       		.byte	0x2
 2769 0041 05       		.byte	0x5
 2770 0042 EF040000 		.4byte	.LASF2
 2771 0046 03       		.uleb128 0x3
 2772 0047 E0050000 		.4byte	.LASF4
 2773 004b 02       		.byte	0x2
 2774 004c 39       		.byte	0x39
 2775 004d 19       		.byte	0x19
 2776 004e 52000000 		.4byte	0x52
 2777 0052 02       		.uleb128 0x2
 2778 0053 02       		.byte	0x2
 2779 0054 07       		.byte	0x7
 2780 0055 5E030000 		.4byte	.LASF5
 2781 0059 02       		.uleb128 0x2
 2782 005a 04       		.byte	0x4
 2783 005b 05       		.byte	0x5
 2784 005c 42020000 		.4byte	.LASF6
 2785 0060 03       		.uleb128 0x3
 2786 0061 94020000 		.4byte	.LASF7
 2787 0065 02       		.byte	0x2
 2788 0066 4F       		.byte	0x4f
 2789 0067 19       		.byte	0x19
 2790 0068 6C000000 		.4byte	0x6c
 2791 006c 02       		.uleb128 0x2
 2792 006d 04       		.byte	0x4
 2793 006e 07       		.byte	0x7
 2794 006f 3A030000 		.4byte	.LASF8
 2795 0073 02       		.uleb128 0x2
 2796 0074 08       		.byte	0x8
ARM GAS  C:\Users\skey\AppData\Local\Temp\ccv9NfrL.s 			page 79


 2797 0075 05       		.byte	0x5
 2798 0076 B4010000 		.4byte	.LASF9
 2799 007a 02       		.uleb128 0x2
 2800 007b 08       		.byte	0x8
 2801 007c 07       		.byte	0x7
 2802 007d 17020000 		.4byte	.LASF10
 2803 0081 04       		.uleb128 0x4
 2804 0082 04       		.byte	0x4
 2805 0083 05       		.byte	0x5
 2806 0084 696E7400 		.ascii	"int\000"
 2807 0088 05       		.uleb128 0x5
 2808 0089 81000000 		.4byte	0x81
 2809 008d 02       		.uleb128 0x2
 2810 008e 04       		.byte	0x4
 2811 008f 07       		.byte	0x7
 2812 0090 D9020000 		.4byte	.LASF11
 2813 0094 03       		.uleb128 0x3
 2814 0095 E8060000 		.4byte	.LASF12
 2815 0099 03       		.byte	0x3
 2816 009a 18       		.byte	0x18
 2817 009b 13       		.byte	0x13
 2818 009c 2C000000 		.4byte	0x2c
 2819 00a0 03       		.uleb128 0x3
 2820 00a1 7D020000 		.4byte	.LASF13
 2821 00a5 03       		.byte	0x3
 2822 00a6 24       		.byte	0x24
 2823 00a7 14       		.byte	0x14
 2824 00a8 46000000 		.4byte	0x46
 2825 00ac 03       		.uleb128 0x3
 2826 00ad 64060000 		.4byte	.LASF14
 2827 00b1 03       		.byte	0x3
 2828 00b2 30       		.byte	0x30
 2829 00b3 14       		.byte	0x14
 2830 00b4 60000000 		.4byte	0x60
 2831 00b8 05       		.uleb128 0x5
 2832 00b9 AC000000 		.4byte	0xac
 2833 00bd 06       		.uleb128 0x6
 2834 00be E2000000 		.4byte	.LASF15
 2835 00c2 04       		.byte	0x4
 2836 00c3 CE06     		.2byte	0x6ce
 2837 00c5 15       		.byte	0x15
 2838 00c6 88000000 		.4byte	0x88
 2839 00ca 01       		.byte	0x1
 2840 00cb 01       		.byte	0x1
 2841 00cc 07       		.uleb128 0x7
 2842 00cd 68040000 		.4byte	.LASF16
 2843 00d1 05       		.byte	0x5
 2844 00d2 35       		.byte	0x35
 2845 00d3 11       		.byte	0x11
 2846 00d4 AC000000 		.4byte	0xac
 2847 00d8 01       		.byte	0x1
 2848 00d9 01       		.byte	0x1
 2849 00da 08       		.uleb128 0x8
 2850 00db 07       		.byte	0x7
 2851 00dc 01       		.byte	0x1
 2852 00dd 38000000 		.4byte	0x38
 2853 00e1 06       		.byte	0x6
ARM GAS  C:\Users\skey\AppData\Local\Temp\ccv9NfrL.s 			page 80


 2854 00e2 0702     		.2byte	0x207
 2855 00e4 0E       		.byte	0xe
 2856 00e5 F6000000 		.4byte	0xf6
 2857 00e9 09       		.uleb128 0x9
 2858 00ea C6040000 		.4byte	.LASF17
 2859 00ee 00       		.byte	0
 2860 00ef 0A       		.uleb128 0xa
 2861 00f0 53455400 		.ascii	"SET\000"
 2862 00f4 01       		.byte	0x1
 2863 00f5 00       		.byte	0
 2864 00f6 0B       		.uleb128 0xb
 2865 00f7 2C000000 		.4byte	.LASF18
 2866 00fb 06       		.byte	0x6
 2867 00fc 0702     		.2byte	0x207
 2868 00fe 28       		.byte	0x28
 2869 00ff DA000000 		.4byte	0xda
 2870 0103 0B       		.uleb128 0xb
 2871 0104 2C070000 		.4byte	.LASF19
 2872 0108 06       		.byte	0x6
 2873 0109 0702     		.2byte	0x207
 2874 010b 34       		.byte	0x34
 2875 010c DA000000 		.4byte	0xda
 2876 0110 08       		.uleb128 0x8
 2877 0111 07       		.byte	0x7
 2878 0112 01       		.byte	0x1
 2879 0113 38000000 		.4byte	0x38
 2880 0117 06       		.byte	0x6
 2881 0118 0902     		.2byte	0x209
 2882 011a 0E       		.byte	0xe
 2883 011b 2C010000 		.4byte	0x12c
 2884 011f 09       		.uleb128 0x9
 2885 0120 25050000 		.4byte	.LASF20
 2886 0124 00       		.byte	0
 2887 0125 09       		.uleb128 0x9
 2888 0126 60020000 		.4byte	.LASF21
 2889 012a 01       		.byte	0x1
 2890 012b 00       		.byte	0
 2891 012c 0B       		.uleb128 0xb
 2892 012d 27040000 		.4byte	.LASF22
 2893 0131 06       		.byte	0x6
 2894 0132 0902     		.2byte	0x209
 2895 0134 2F       		.byte	0x2f
 2896 0135 10010000 		.4byte	0x110
 2897 0139 0C       		.uleb128 0xc
 2898 013a 10       		.byte	0x10
 2899 013b 06       		.byte	0x6
 2900 013c 9D02     		.2byte	0x29d
 2901 013e 09       		.byte	0x9
 2902 013f 84010000 		.4byte	0x184
 2903 0143 0D       		.uleb128 0xd
 2904 0144 54495200 		.ascii	"TIR\000"
 2905 0148 06       		.byte	0x6
 2906 0149 9F02     		.2byte	0x29f
 2907 014b 11       		.byte	0x11
 2908 014c B8000000 		.4byte	0xb8
 2909 0150 02       		.byte	0x2
 2910 0151 23       		.byte	0x23
ARM GAS  C:\Users\skey\AppData\Local\Temp\ccv9NfrL.s 			page 81


 2911 0152 00       		.uleb128 0
 2912 0153 0E       		.uleb128 0xe
 2913 0154 B9030000 		.4byte	.LASF23
 2914 0158 06       		.byte	0x6
 2915 0159 A002     		.2byte	0x2a0
 2916 015b 11       		.byte	0x11
 2917 015c B8000000 		.4byte	0xb8
 2918 0160 02       		.byte	0x2
 2919 0161 23       		.byte	0x23
 2920 0162 04       		.uleb128 0x4
 2921 0163 0E       		.uleb128 0xe
 2922 0164 3D020000 		.4byte	.LASF24
 2923 0168 06       		.byte	0x6
 2924 0169 A102     		.2byte	0x2a1
 2925 016b 11       		.byte	0x11
 2926 016c B8000000 		.4byte	0xb8
 2927 0170 02       		.byte	0x2
 2928 0171 23       		.byte	0x23
 2929 0172 08       		.uleb128 0x8
 2930 0173 0E       		.uleb128 0xe
 2931 0174 47040000 		.4byte	.LASF25
 2932 0178 06       		.byte	0x6
 2933 0179 A202     		.2byte	0x2a2
 2934 017b 11       		.byte	0x11
 2935 017c B8000000 		.4byte	0xb8
 2936 0180 02       		.byte	0x2
 2937 0181 23       		.byte	0x23
 2938 0182 0C       		.uleb128 0xc
 2939 0183 00       		.byte	0
 2940 0184 0B       		.uleb128 0xb
 2941 0185 8B050000 		.4byte	.LASF26
 2942 0189 06       		.byte	0x6
 2943 018a A302     		.2byte	0x2a3
 2944 018c 03       		.byte	0x3
 2945 018d 39010000 		.4byte	0x139
 2946 0191 0C       		.uleb128 0xc
 2947 0192 10       		.byte	0x10
 2948 0193 06       		.byte	0x6
 2949 0194 A902     		.2byte	0x2a9
 2950 0196 09       		.byte	0x9
 2951 0197 DC010000 		.4byte	0x1dc
 2952 019b 0D       		.uleb128 0xd
 2953 019c 52495200 		.ascii	"RIR\000"
 2954 01a0 06       		.byte	0x6
 2955 01a1 AB02     		.2byte	0x2ab
 2956 01a3 11       		.byte	0x11
 2957 01a4 B8000000 		.4byte	0xb8
 2958 01a8 02       		.byte	0x2
 2959 01a9 23       		.byte	0x23
 2960 01aa 00       		.uleb128 0
 2961 01ab 0E       		.uleb128 0xe
 2962 01ac 54030000 		.4byte	.LASF27
 2963 01b0 06       		.byte	0x6
 2964 01b1 AC02     		.2byte	0x2ac
 2965 01b3 11       		.byte	0x11
 2966 01b4 B8000000 		.4byte	0xb8
 2967 01b8 02       		.byte	0x2
ARM GAS  C:\Users\skey\AppData\Local\Temp\ccv9NfrL.s 			page 82


 2968 01b9 23       		.byte	0x23
 2969 01ba 04       		.uleb128 0x4
 2970 01bb 0E       		.uleb128 0xe
 2971 01bc CB020000 		.4byte	.LASF28
 2972 01c0 06       		.byte	0x6
 2973 01c1 AD02     		.2byte	0x2ad
 2974 01c3 11       		.byte	0x11
 2975 01c4 B8000000 		.4byte	0xb8
 2976 01c8 02       		.byte	0x2
 2977 01c9 23       		.byte	0x23
 2978 01ca 08       		.uleb128 0x8
 2979 01cb 0E       		.uleb128 0xe
 2980 01cc EB050000 		.4byte	.LASF29
 2981 01d0 06       		.byte	0x6
 2982 01d1 AE02     		.2byte	0x2ae
 2983 01d3 11       		.byte	0x11
 2984 01d4 B8000000 		.4byte	0xb8
 2985 01d8 02       		.byte	0x2
 2986 01d9 23       		.byte	0x23
 2987 01da 0C       		.uleb128 0xc
 2988 01db 00       		.byte	0
 2989 01dc 0B       		.uleb128 0xb
 2990 01dd CE030000 		.4byte	.LASF30
 2991 01e1 06       		.byte	0x6
 2992 01e2 AF02     		.2byte	0x2af
 2993 01e4 03       		.byte	0x3
 2994 01e5 91010000 		.4byte	0x191
 2995 01e9 0C       		.uleb128 0xc
 2996 01ea 08       		.byte	0x8
 2997 01eb 06       		.byte	0x6
 2998 01ec B502     		.2byte	0x2b5
 2999 01ee 09       		.byte	0x9
 3000 01ef 14020000 		.4byte	0x214
 3001 01f3 0D       		.uleb128 0xd
 3002 01f4 46523100 		.ascii	"FR1\000"
 3003 01f8 06       		.byte	0x6
 3004 01f9 B702     		.2byte	0x2b7
 3005 01fb 11       		.byte	0x11
 3006 01fc B8000000 		.4byte	0xb8
 3007 0200 02       		.byte	0x2
 3008 0201 23       		.byte	0x23
 3009 0202 00       		.uleb128 0
 3010 0203 0D       		.uleb128 0xd
 3011 0204 46523200 		.ascii	"FR2\000"
 3012 0208 06       		.byte	0x6
 3013 0209 B802     		.2byte	0x2b8
 3014 020b 11       		.byte	0x11
 3015 020c B8000000 		.4byte	0xb8
 3016 0210 02       		.byte	0x2
 3017 0211 23       		.byte	0x23
 3018 0212 04       		.uleb128 0x4
 3019 0213 00       		.byte	0
 3020 0214 0B       		.uleb128 0xb
 3021 0215 76030000 		.4byte	.LASF31
 3022 0219 06       		.byte	0x6
 3023 021a B902     		.2byte	0x2b9
 3024 021c 03       		.byte	0x3
ARM GAS  C:\Users\skey\AppData\Local\Temp\ccv9NfrL.s 			page 83


 3025 021d E9010000 		.4byte	0x1e9
 3026 0221 0F       		.uleb128 0xf
 3027 0222 B002     		.2byte	0x2b0
 3028 0224 06       		.byte	0x6
 3029 0225 BF02     		.2byte	0x2bf
 3030 0227 09       		.byte	0x9
 3031 0228 9A030000 		.4byte	0x39a
 3032 022c 0D       		.uleb128 0xd
 3033 022d 4D435200 		.ascii	"MCR\000"
 3034 0231 06       		.byte	0x6
 3035 0232 C102     		.2byte	0x2c1
 3036 0234 11       		.byte	0x11
 3037 0235 B8000000 		.4byte	0xb8
 3038 0239 02       		.byte	0x2
 3039 023a 23       		.byte	0x23
 3040 023b 00       		.uleb128 0
 3041 023c 0D       		.uleb128 0xd
 3042 023d 4D535200 		.ascii	"MSR\000"
 3043 0241 06       		.byte	0x6
 3044 0242 C202     		.2byte	0x2c2
 3045 0244 11       		.byte	0x11
 3046 0245 B8000000 		.4byte	0xb8
 3047 0249 02       		.byte	0x2
 3048 024a 23       		.byte	0x23
 3049 024b 04       		.uleb128 0x4
 3050 024c 0D       		.uleb128 0xd
 3051 024d 54535200 		.ascii	"TSR\000"
 3052 0251 06       		.byte	0x6
 3053 0252 C302     		.2byte	0x2c3
 3054 0254 11       		.byte	0x11
 3055 0255 B8000000 		.4byte	0xb8
 3056 0259 02       		.byte	0x2
 3057 025a 23       		.byte	0x23
 3058 025b 08       		.uleb128 0x8
 3059 025c 0E       		.uleb128 0xe
 3060 025d 8F020000 		.4byte	.LASF32
 3061 0261 06       		.byte	0x6
 3062 0262 C402     		.2byte	0x2c4
 3063 0264 11       		.byte	0x11
 3064 0265 B8000000 		.4byte	0xb8
 3065 0269 02       		.byte	0x2
 3066 026a 23       		.byte	0x23
 3067 026b 0C       		.uleb128 0xc
 3068 026c 0E       		.uleb128 0xe
 3069 026d 71030000 		.4byte	.LASF33
 3070 0271 06       		.byte	0x6
 3071 0272 C502     		.2byte	0x2c5
 3072 0274 11       		.byte	0x11
 3073 0275 B8000000 		.4byte	0xb8
 3074 0279 02       		.byte	0x2
 3075 027a 23       		.byte	0x23
 3076 027b 10       		.uleb128 0x10
 3077 027c 0D       		.uleb128 0xd
 3078 027d 49455200 		.ascii	"IER\000"
 3079 0281 06       		.byte	0x6
 3080 0282 C602     		.2byte	0x2c6
 3081 0284 11       		.byte	0x11
ARM GAS  C:\Users\skey\AppData\Local\Temp\ccv9NfrL.s 			page 84


 3082 0285 B8000000 		.4byte	0xb8
 3083 0289 02       		.byte	0x2
 3084 028a 23       		.byte	0x23
 3085 028b 14       		.uleb128 0x14
 3086 028c 0D       		.uleb128 0xd
 3087 028d 45535200 		.ascii	"ESR\000"
 3088 0291 06       		.byte	0x6
 3089 0292 C702     		.2byte	0x2c7
 3090 0294 11       		.byte	0x11
 3091 0295 B8000000 		.4byte	0xb8
 3092 0299 02       		.byte	0x2
 3093 029a 23       		.byte	0x23
 3094 029b 18       		.uleb128 0x18
 3095 029c 0D       		.uleb128 0xd
 3096 029d 42545200 		.ascii	"BTR\000"
 3097 02a1 06       		.byte	0x6
 3098 02a2 C802     		.2byte	0x2c8
 3099 02a4 11       		.byte	0x11
 3100 02a5 B8000000 		.4byte	0xb8
 3101 02a9 02       		.byte	0x2
 3102 02aa 23       		.byte	0x23
 3103 02ab 1C       		.uleb128 0x1c
 3104 02ac 0E       		.uleb128 0xe
 3105 02ad 8F040000 		.4byte	.LASF34
 3106 02b1 06       		.byte	0x6
 3107 02b2 C902     		.2byte	0x2c9
 3108 02b4 0D       		.byte	0xd
 3109 02b5 9A030000 		.4byte	0x39a
 3110 02b9 02       		.byte	0x2
 3111 02ba 23       		.byte	0x23
 3112 02bb 20       		.uleb128 0x20
 3113 02bc 0E       		.uleb128 0xe
 3114 02bd 16030000 		.4byte	.LASF35
 3115 02c1 06       		.byte	0x6
 3116 02c2 CA02     		.2byte	0x2ca
 3117 02c4 19       		.byte	0x19
 3118 02c5 AA030000 		.4byte	0x3aa
 3119 02c9 03       		.byte	0x3
 3120 02ca 23       		.byte	0x23
 3121 02cb 8003     		.uleb128 0x180
 3122 02cd 0E       		.uleb128 0xe
 3123 02ce 09060000 		.4byte	.LASF36
 3124 02d2 06       		.byte	0x6
 3125 02d3 CB02     		.2byte	0x2cb
 3126 02d5 1B       		.byte	0x1b
 3127 02d6 BA030000 		.4byte	0x3ba
 3128 02da 03       		.byte	0x3
 3129 02db 23       		.byte	0x23
 3130 02dc B003     		.uleb128 0x1b0
 3131 02de 0E       		.uleb128 0xe
 3132 02df 99040000 		.4byte	.LASF37
 3133 02e3 06       		.byte	0x6
 3134 02e4 CC02     		.2byte	0x2cc
 3135 02e6 0D       		.byte	0xd
 3136 02e7 CA030000 		.4byte	0x3ca
 3137 02eb 03       		.byte	0x3
 3138 02ec 23       		.byte	0x23
ARM GAS  C:\Users\skey\AppData\Local\Temp\ccv9NfrL.s 			page 85


 3139 02ed D003     		.uleb128 0x1d0
 3140 02ef 0D       		.uleb128 0xd
 3141 02f0 464D5200 		.ascii	"FMR\000"
 3142 02f4 06       		.byte	0x6
 3143 02f5 CD02     		.2byte	0x2cd
 3144 02f7 11       		.byte	0x11
 3145 02f8 B8000000 		.4byte	0xb8
 3146 02fc 03       		.byte	0x3
 3147 02fd 23       		.byte	0x23
 3148 02fe 8004     		.uleb128 0x200
 3149 0300 0E       		.uleb128 0xe
 3150 0301 B4030000 		.4byte	.LASF38
 3151 0305 06       		.byte	0x6
 3152 0306 CE02     		.2byte	0x2ce
 3153 0308 11       		.byte	0x11
 3154 0309 B8000000 		.4byte	0xb8
 3155 030d 03       		.byte	0x3
 3156 030e 23       		.byte	0x23
 3157 030f 8404     		.uleb128 0x204
 3158 0311 0E       		.uleb128 0xe
 3159 0312 A3040000 		.4byte	.LASF39
 3160 0316 06       		.byte	0x6
 3161 0317 CF02     		.2byte	0x2cf
 3162 0319 0D       		.byte	0xd
 3163 031a AC000000 		.4byte	0xac
 3164 031e 03       		.byte	0x3
 3165 031f 23       		.byte	0x23
 3166 0320 8804     		.uleb128 0x208
 3167 0322 0E       		.uleb128 0xe
 3168 0323 59030000 		.4byte	.LASF40
 3169 0327 06       		.byte	0x6
 3170 0328 D002     		.2byte	0x2d0
 3171 032a 11       		.byte	0x11
 3172 032b B8000000 		.4byte	0xb8
 3173 032f 03       		.byte	0x3
 3174 0330 23       		.byte	0x23
 3175 0331 8C04     		.uleb128 0x20c
 3176 0333 0E       		.uleb128 0xe
 3177 0334 AD040000 		.4byte	.LASF41
 3178 0338 06       		.byte	0x6
 3179 0339 D102     		.2byte	0x2d1
 3180 033b 0D       		.byte	0xd
 3181 033c AC000000 		.4byte	0xac
 3182 0340 03       		.byte	0x3
 3183 0341 23       		.byte	0x23
 3184 0342 9004     		.uleb128 0x210
 3185 0344 0E       		.uleb128 0xe
 3186 0345 52040000 		.4byte	.LASF42
 3187 0349 06       		.byte	0x6
 3188 034a D202     		.2byte	0x2d2
 3189 034c 11       		.byte	0x11
 3190 034d B8000000 		.4byte	0xb8
 3191 0351 03       		.byte	0x3
 3192 0352 23       		.byte	0x23
 3193 0353 9404     		.uleb128 0x214
 3194 0355 0E       		.uleb128 0xe
 3195 0356 B7040000 		.4byte	.LASF43
ARM GAS  C:\Users\skey\AppData\Local\Temp\ccv9NfrL.s 			page 86


 3196 035a 06       		.byte	0x6
 3197 035b D302     		.2byte	0x2d3
 3198 035d 0D       		.byte	0xd
 3199 035e AC000000 		.4byte	0xac
 3200 0362 03       		.byte	0x3
 3201 0363 23       		.byte	0x23
 3202 0364 9804     		.uleb128 0x218
 3203 0366 0E       		.uleb128 0xe
 3204 0367 C1040000 		.4byte	.LASF44
 3205 036b 06       		.byte	0x6
 3206 036c D402     		.2byte	0x2d4
 3207 036e 11       		.byte	0x11
 3208 036f B8000000 		.4byte	0xb8
 3209 0373 03       		.byte	0x3
 3210 0374 23       		.byte	0x23
 3211 0375 9C04     		.uleb128 0x21c
 3212 0377 0E       		.uleb128 0xe
 3213 0378 81050000 		.4byte	.LASF45
 3214 037c 06       		.byte	0x6
 3215 037d D502     		.2byte	0x2d5
 3216 037f 0D       		.byte	0xd
 3217 0380 DA030000 		.4byte	0x3da
 3218 0384 03       		.byte	0x3
 3219 0385 23       		.byte	0x23
 3220 0386 A004     		.uleb128 0x220
 3221 0388 0E       		.uleb128 0xe
 3222 0389 97030000 		.4byte	.LASF46
 3223 038d 06       		.byte	0x6
 3224 038e D702     		.2byte	0x2d7
 3225 0390 1E       		.byte	0x1e
 3226 0391 EA030000 		.4byte	0x3ea
 3227 0395 03       		.byte	0x3
 3228 0396 23       		.byte	0x23
 3229 0397 C004     		.uleb128 0x240
 3230 0399 00       		.byte	0
 3231 039a 10       		.uleb128 0x10
 3232 039b AC000000 		.4byte	0xac
 3233 039f AA030000 		.4byte	0x3aa
 3234 03a3 11       		.uleb128 0x11
 3235 03a4 8D000000 		.4byte	0x8d
 3236 03a8 57       		.byte	0x57
 3237 03a9 00       		.byte	0
 3238 03aa 10       		.uleb128 0x10
 3239 03ab 84010000 		.4byte	0x184
 3240 03af BA030000 		.4byte	0x3ba
 3241 03b3 11       		.uleb128 0x11
 3242 03b4 8D000000 		.4byte	0x8d
 3243 03b8 02       		.byte	0x2
 3244 03b9 00       		.byte	0
 3245 03ba 10       		.uleb128 0x10
 3246 03bb DC010000 		.4byte	0x1dc
 3247 03bf CA030000 		.4byte	0x3ca
 3248 03c3 11       		.uleb128 0x11
 3249 03c4 8D000000 		.4byte	0x8d
 3250 03c8 01       		.byte	0x1
 3251 03c9 00       		.byte	0
 3252 03ca 10       		.uleb128 0x10
ARM GAS  C:\Users\skey\AppData\Local\Temp\ccv9NfrL.s 			page 87


 3253 03cb AC000000 		.4byte	0xac
 3254 03cf DA030000 		.4byte	0x3da
 3255 03d3 11       		.uleb128 0x11
 3256 03d4 8D000000 		.4byte	0x8d
 3257 03d8 0B       		.byte	0xb
 3258 03d9 00       		.byte	0
 3259 03da 10       		.uleb128 0x10
 3260 03db AC000000 		.4byte	0xac
 3261 03df EA030000 		.4byte	0x3ea
 3262 03e3 11       		.uleb128 0x11
 3263 03e4 8D000000 		.4byte	0x8d
 3264 03e8 07       		.byte	0x7
 3265 03e9 00       		.byte	0
 3266 03ea 10       		.uleb128 0x10
 3267 03eb 14020000 		.4byte	0x214
 3268 03ef FA030000 		.4byte	0x3fa
 3269 03f3 11       		.uleb128 0x11
 3270 03f4 8D000000 		.4byte	0x8d
 3271 03f8 0D       		.byte	0xd
 3272 03f9 00       		.byte	0
 3273 03fa 0B       		.uleb128 0xb
 3274 03fb 50000000 		.4byte	.LASF47
 3275 03ff 06       		.byte	0x6
 3276 0400 DB02     		.2byte	0x2db
 3277 0402 03       		.byte	0x3
 3278 0403 21020000 		.4byte	0x221
 3279 0407 12       		.uleb128 0x12
 3280 0408 0C       		.byte	0xc
 3281 0409 07       		.byte	0x7
 3282 040a 35       		.byte	0x35
 3283 040b 09       		.byte	0x9
 3284 040c B6040000 		.4byte	0x4b6
 3285 0410 13       		.uleb128 0x13
 3286 0411 81040000 		.4byte	.LASF48
 3287 0415 07       		.byte	0x7
 3288 0416 37       		.byte	0x37
 3289 0417 0C       		.byte	0xc
 3290 0418 A0000000 		.4byte	0xa0
 3291 041c 02       		.byte	0x2
 3292 041d 23       		.byte	0x23
 3293 041e 00       		.uleb128 0
 3294 041f 13       		.uleb128 0x13
 3295 0420 2E020000 		.4byte	.LASF49
 3296 0424 07       		.byte	0x7
 3297 0425 3A       		.byte	0x3a
 3298 0426 0B       		.byte	0xb
 3299 0427 94000000 		.4byte	0x94
 3300 042b 02       		.byte	0x2
 3301 042c 23       		.byte	0x23
 3302 042d 02       		.uleb128 0x2
 3303 042e 13       		.uleb128 0x13
 3304 042f 4B070000 		.4byte	.LASF50
 3305 0433 07       		.byte	0x7
 3306 0434 3E       		.byte	0x3e
 3307 0435 0B       		.byte	0xb
 3308 0436 94000000 		.4byte	0x94
 3309 043a 02       		.byte	0x2
ARM GAS  C:\Users\skey\AppData\Local\Temp\ccv9NfrL.s 			page 88


 3310 043b 23       		.byte	0x23
 3311 043c 03       		.uleb128 0x3
 3312 043d 13       		.uleb128 0x13
 3313 043e 02010000 		.4byte	.LASF51
 3314 0442 07       		.byte	0x7
 3315 0443 44       		.byte	0x44
 3316 0444 0B       		.byte	0xb
 3317 0445 94000000 		.4byte	0x94
 3318 0449 02       		.byte	0x2
 3319 044a 23       		.byte	0x23
 3320 044b 04       		.uleb128 0x4
 3321 044c 13       		.uleb128 0x13
 3322 044d 0A010000 		.4byte	.LASF52
 3323 0451 07       		.byte	0x7
 3324 0452 48       		.byte	0x48
 3325 0453 0B       		.byte	0xb
 3326 0454 94000000 		.4byte	0x94
 3327 0458 02       		.byte	0x2
 3328 0459 23       		.byte	0x23
 3329 045a 05       		.uleb128 0x5
 3330 045b 13       		.uleb128 0x13
 3331 045c C4060000 		.4byte	.LASF53
 3332 0460 07       		.byte	0x7
 3333 0461 4D       		.byte	0x4d
 3334 0462 13       		.byte	0x13
 3335 0463 2C010000 		.4byte	0x12c
 3336 0467 02       		.byte	0x2
 3337 0468 23       		.byte	0x23
 3338 0469 06       		.uleb128 0x6
 3339 046a 13       		.uleb128 0x13
 3340 046b D0020000 		.4byte	.LASF54
 3341 046f 07       		.byte	0x7
 3342 0470 51       		.byte	0x51
 3343 0471 13       		.byte	0x13
 3344 0472 2C010000 		.4byte	0x12c
 3345 0476 02       		.byte	0x2
 3346 0477 23       		.byte	0x23
 3347 0478 07       		.uleb128 0x7
 3348 0479 13       		.uleb128 0x13
 3349 047a F8050000 		.4byte	.LASF55
 3350 047e 07       		.byte	0x7
 3351 047f 55       		.byte	0x55
 3352 0480 13       		.byte	0x13
 3353 0481 2C010000 		.4byte	0x12c
 3354 0485 02       		.byte	0x2
 3355 0486 23       		.byte	0x23
 3356 0487 08       		.uleb128 0x8
 3357 0488 13       		.uleb128 0x13
 3358 0489 6F070000 		.4byte	.LASF56
 3359 048d 07       		.byte	0x7
 3360 048e 59       		.byte	0x59
 3361 048f 13       		.byte	0x13
 3362 0490 2C010000 		.4byte	0x12c
 3363 0494 02       		.byte	0x2
 3364 0495 23       		.byte	0x23
 3365 0496 09       		.uleb128 0x9
 3366 0497 13       		.uleb128 0x13
ARM GAS  C:\Users\skey\AppData\Local\Temp\ccv9NfrL.s 			page 89


 3367 0498 28060000 		.4byte	.LASF57
 3368 049c 07       		.byte	0x7
 3369 049d 5D       		.byte	0x5d
 3370 049e 13       		.byte	0x13
 3371 049f 2C010000 		.4byte	0x12c
 3372 04a3 02       		.byte	0x2
 3373 04a4 23       		.byte	0x23
 3374 04a5 0A       		.uleb128 0xa
 3375 04a6 13       		.uleb128 0x13
 3376 04a7 AA060000 		.4byte	.LASF58
 3377 04ab 07       		.byte	0x7
 3378 04ac 61       		.byte	0x61
 3379 04ad 13       		.byte	0x13
 3380 04ae 2C010000 		.4byte	0x12c
 3381 04b2 02       		.byte	0x2
 3382 04b3 23       		.byte	0x23
 3383 04b4 0B       		.uleb128 0xb
 3384 04b5 00       		.byte	0
 3385 04b6 03       		.uleb128 0x3
 3386 04b7 35050000 		.4byte	.LASF59
 3387 04bb 07       		.byte	0x7
 3388 04bc 64       		.byte	0x64
 3389 04bd 03       		.byte	0x3
 3390 04be 07040000 		.4byte	0x407
 3391 04c2 12       		.uleb128 0x12
 3392 04c3 0E       		.byte	0xe
 3393 04c4 07       		.byte	0x7
 3394 04c5 6A       		.byte	0x6a
 3395 04c6 09       		.byte	0x9
 3396 04c7 53050000 		.4byte	0x553
 3397 04cb 13       		.uleb128 0x13
 3398 04cc 14050000 		.4byte	.LASF60
 3399 04d0 07       		.byte	0x7
 3400 04d1 6C       		.byte	0x6c
 3401 04d2 0C       		.byte	0xc
 3402 04d3 A0000000 		.4byte	0xa0
 3403 04d7 02       		.byte	0x2
 3404 04d8 23       		.byte	0x23
 3405 04d9 00       		.uleb128 0
 3406 04da 13       		.uleb128 0x13
 3407 04db 58040000 		.4byte	.LASF61
 3408 04df 07       		.byte	0x7
 3409 04e0 70       		.byte	0x70
 3410 04e1 0C       		.byte	0xc
 3411 04e2 A0000000 		.4byte	0xa0
 3412 04e6 02       		.byte	0x2
 3413 04e7 23       		.byte	0x23
 3414 04e8 02       		.uleb128 0x2
 3415 04e9 13       		.uleb128 0x13
 3416 04ea CD000000 		.4byte	.LASF62
 3417 04ee 07       		.byte	0x7
 3418 04ef 74       		.byte	0x74
 3419 04f0 0C       		.byte	0xc
 3420 04f1 A0000000 		.4byte	0xa0
 3421 04f5 02       		.byte	0x2
 3422 04f6 23       		.byte	0x23
 3423 04f7 04       		.uleb128 0x4
ARM GAS  C:\Users\skey\AppData\Local\Temp\ccv9NfrL.s 			page 90


 3424 04f8 13       		.uleb128 0x13
 3425 04f9 E4010000 		.4byte	.LASF63
 3426 04fd 07       		.byte	0x7
 3427 04fe 79       		.byte	0x79
 3428 04ff 0C       		.byte	0xc
 3429 0500 A0000000 		.4byte	0xa0
 3430 0504 02       		.byte	0x2
 3431 0505 23       		.byte	0x23
 3432 0506 06       		.uleb128 0x6
 3433 0507 13       		.uleb128 0x13
 3434 0508 68050000 		.4byte	.LASF64
 3435 050c 07       		.byte	0x7
 3436 050d 7E       		.byte	0x7e
 3437 050e 0C       		.byte	0xc
 3438 050f A0000000 		.4byte	0xa0
 3439 0513 02       		.byte	0x2
 3440 0514 23       		.byte	0x23
 3441 0515 08       		.uleb128 0x8
 3442 0516 13       		.uleb128 0x13
 3443 0517 16040000 		.4byte	.LASF65
 3444 051b 07       		.byte	0x7
 3445 051c 81       		.byte	0x81
 3446 051d 0B       		.byte	0xb
 3447 051e 94000000 		.4byte	0x94
 3448 0522 02       		.byte	0x2
 3449 0523 23       		.byte	0x23
 3450 0524 0A       		.uleb128 0xa
 3451 0525 13       		.uleb128 0x13
 3452 0526 BF050000 		.4byte	.LASF66
 3453 052a 07       		.byte	0x7
 3454 052b 83       		.byte	0x83
 3455 052c 0B       		.byte	0xb
 3456 052d 94000000 		.4byte	0x94
 3457 0531 02       		.byte	0x2
 3458 0532 23       		.byte	0x23
 3459 0533 0B       		.uleb128 0xb
 3460 0534 13       		.uleb128 0x13
 3461 0535 AF050000 		.4byte	.LASF67
 3462 0539 07       		.byte	0x7
 3463 053a 86       		.byte	0x86
 3464 053b 0B       		.byte	0xb
 3465 053c 94000000 		.4byte	0x94
 3466 0540 02       		.byte	0x2
 3467 0541 23       		.byte	0x23
 3468 0542 0C       		.uleb128 0xc
 3469 0543 13       		.uleb128 0x13
 3470 0544 43060000 		.4byte	.LASF68
 3471 0548 07       		.byte	0x7
 3472 0549 89       		.byte	0x89
 3473 054a 13       		.byte	0x13
 3474 054b 2C010000 		.4byte	0x12c
 3475 054f 02       		.byte	0x2
 3476 0550 23       		.byte	0x23
 3477 0551 0D       		.uleb128 0xd
 3478 0552 00       		.byte	0
 3479 0553 03       		.uleb128 0x3
 3480 0554 F7030000 		.4byte	.LASF69
ARM GAS  C:\Users\skey\AppData\Local\Temp\ccv9NfrL.s 			page 91


 3481 0558 07       		.byte	0x7
 3482 0559 8B       		.byte	0x8b
 3483 055a 03       		.byte	0x3
 3484 055b C2040000 		.4byte	0x4c2
 3485 055f 12       		.uleb128 0x12
 3486 0560 14       		.byte	0x14
 3487 0561 07       		.byte	0x7
 3488 0562 91       		.byte	0x91
 3489 0563 09       		.byte	0x9
 3490 0564 C3050000 		.4byte	0x5c3
 3491 0568 13       		.uleb128 0x13
 3492 0569 4C040000 		.4byte	.LASF70
 3493 056d 07       		.byte	0x7
 3494 056e 93       		.byte	0x93
 3495 056f 0C       		.byte	0xc
 3496 0570 AC000000 		.4byte	0xac
 3497 0574 02       		.byte	0x2
 3498 0575 23       		.byte	0x23
 3499 0576 00       		.uleb128 0
 3500 0577 13       		.uleb128 0x13
 3501 0578 91030000 		.4byte	.LASF71
 3502 057c 07       		.byte	0x7
 3503 057d 96       		.byte	0x96
 3504 057e 0C       		.byte	0xc
 3505 057f AC000000 		.4byte	0xac
 3506 0583 02       		.byte	0x2
 3507 0584 23       		.byte	0x23
 3508 0585 04       		.uleb128 0x4
 3509 0586 14       		.uleb128 0x14
 3510 0587 49444500 		.ascii	"IDE\000"
 3511 058b 07       		.byte	0x7
 3512 058c 99       		.byte	0x99
 3513 058d 0B       		.byte	0xb
 3514 058e 94000000 		.4byte	0x94
 3515 0592 02       		.byte	0x2
 3516 0593 23       		.byte	0x23
 3517 0594 08       		.uleb128 0x8
 3518 0595 14       		.uleb128 0x14
 3519 0596 52545200 		.ascii	"RTR\000"
 3520 059a 07       		.byte	0x7
 3521 059b 9D       		.byte	0x9d
 3522 059c 0B       		.byte	0xb
 3523 059d 94000000 		.4byte	0x94
 3524 05a1 02       		.byte	0x2
 3525 05a2 23       		.byte	0x23
 3526 05a3 09       		.uleb128 0x9
 3527 05a4 14       		.uleb128 0x14
 3528 05a5 444C4300 		.ascii	"DLC\000"
 3529 05a9 07       		.byte	0x7
 3530 05aa A1       		.byte	0xa1
 3531 05ab 0B       		.byte	0xb
 3532 05ac 94000000 		.4byte	0x94
 3533 05b0 02       		.byte	0x2
 3534 05b1 23       		.byte	0x23
 3535 05b2 0A       		.uleb128 0xa
 3536 05b3 13       		.uleb128 0x13
 3537 05b4 F0060000 		.4byte	.LASF72
ARM GAS  C:\Users\skey\AppData\Local\Temp\ccv9NfrL.s 			page 92


 3538 05b8 07       		.byte	0x7
 3539 05b9 A5       		.byte	0xa5
 3540 05ba 0B       		.byte	0xb
 3541 05bb C3050000 		.4byte	0x5c3
 3542 05bf 02       		.byte	0x2
 3543 05c0 23       		.byte	0x23
 3544 05c1 0B       		.uleb128 0xb
 3545 05c2 00       		.byte	0
 3546 05c3 10       		.uleb128 0x10
 3547 05c4 94000000 		.4byte	0x94
 3548 05c8 D3050000 		.4byte	0x5d3
 3549 05cc 11       		.uleb128 0x11
 3550 05cd 8D000000 		.4byte	0x8d
 3551 05d1 07       		.byte	0x7
 3552 05d2 00       		.byte	0
 3553 05d3 03       		.uleb128 0x3
 3554 05d4 8B060000 		.4byte	.LASF73
 3555 05d8 07       		.byte	0x7
 3556 05d9 A7       		.byte	0xa7
 3557 05da 03       		.byte	0x3
 3558 05db 5F050000 		.4byte	0x55f
 3559 05df 12       		.uleb128 0x12
 3560 05e0 14       		.byte	0x14
 3561 05e1 07       		.byte	0x7
 3562 05e2 AD       		.byte	0xad
 3563 05e3 09       		.byte	0x9
 3564 05e4 52060000 		.4byte	0x652
 3565 05e8 13       		.uleb128 0x13
 3566 05e9 4C040000 		.4byte	.LASF70
 3567 05ed 07       		.byte	0x7
 3568 05ee AF       		.byte	0xaf
 3569 05ef 0C       		.byte	0xc
 3570 05f0 AC000000 		.4byte	0xac
 3571 05f4 02       		.byte	0x2
 3572 05f5 23       		.byte	0x23
 3573 05f6 00       		.uleb128 0
 3574 05f7 13       		.uleb128 0x13
 3575 05f8 91030000 		.4byte	.LASF71
 3576 05fc 07       		.byte	0x7
 3577 05fd B2       		.byte	0xb2
 3578 05fe 0C       		.byte	0xc
 3579 05ff AC000000 		.4byte	0xac
 3580 0603 02       		.byte	0x2
 3581 0604 23       		.byte	0x23
 3582 0605 04       		.uleb128 0x4
 3583 0606 14       		.uleb128 0x14
 3584 0607 49444500 		.ascii	"IDE\000"
 3585 060b 07       		.byte	0x7
 3586 060c B5       		.byte	0xb5
 3587 060d 0B       		.byte	0xb
 3588 060e 94000000 		.4byte	0x94
 3589 0612 02       		.byte	0x2
 3590 0613 23       		.byte	0x23
 3591 0614 08       		.uleb128 0x8
 3592 0615 14       		.uleb128 0x14
 3593 0616 52545200 		.ascii	"RTR\000"
 3594 061a 07       		.byte	0x7
ARM GAS  C:\Users\skey\AppData\Local\Temp\ccv9NfrL.s 			page 93


 3595 061b B9       		.byte	0xb9
 3596 061c 0B       		.byte	0xb
 3597 061d 94000000 		.4byte	0x94
 3598 0621 02       		.byte	0x2
 3599 0622 23       		.byte	0x23
 3600 0623 09       		.uleb128 0x9
 3601 0624 14       		.uleb128 0x14
 3602 0625 444C4300 		.ascii	"DLC\000"
 3603 0629 07       		.byte	0x7
 3604 062a BD       		.byte	0xbd
 3605 062b 0B       		.byte	0xb
 3606 062c 94000000 		.4byte	0x94
 3607 0630 02       		.byte	0x2
 3608 0631 23       		.byte	0x23
 3609 0632 0A       		.uleb128 0xa
 3610 0633 13       		.uleb128 0x13
 3611 0634 F0060000 		.4byte	.LASF72
 3612 0638 07       		.byte	0x7
 3613 0639 C0       		.byte	0xc0
 3614 063a 0B       		.byte	0xb
 3615 063b C3050000 		.4byte	0x5c3
 3616 063f 02       		.byte	0x2
 3617 0640 23       		.byte	0x23
 3618 0641 0B       		.uleb128 0xb
 3619 0642 14       		.uleb128 0x14
 3620 0643 464D4900 		.ascii	"FMI\000"
 3621 0647 07       		.byte	0x7
 3622 0648 C3       		.byte	0xc3
 3623 0649 0B       		.byte	0xb
 3624 064a 94000000 		.4byte	0x94
 3625 064e 02       		.byte	0x2
 3626 064f 23       		.byte	0x23
 3627 0650 13       		.uleb128 0x13
 3628 0651 00       		.byte	0
 3629 0652 03       		.uleb128 0x3
 3630 0653 0B000000 		.4byte	.LASF74
 3631 0657 07       		.byte	0x7
 3632 0658 C6       		.byte	0xc6
 3633 0659 03       		.byte	0x3
 3634 065a DF050000 		.4byte	0x5df
 3635 065e 15       		.uleb128 0x15
 3636 065f 7D060000 		.4byte	.LASF133
 3637 0663 01       		.byte	0x1
 3638 0664 6905     		.2byte	0x569
 3639 0666 11       		.byte	0x11
 3640 0667 01       		.byte	0x1
 3641 0668 03010000 		.4byte	0x103
 3642 066c 01       		.byte	0x1
 3643 066d 99060000 		.4byte	0x699
 3644 0671 16       		.uleb128 0x16
 3645 0672 2D050000 		.4byte	.LASF75
 3646 0676 01       		.byte	0x1
 3647 0677 6905     		.2byte	0x569
 3648 0679 28       		.byte	0x28
 3649 067a AC000000 		.4byte	0xac
 3650 067e 16       		.uleb128 0x16
 3651 067f F0030000 		.4byte	.LASF76
ARM GAS  C:\Users\skey\AppData\Local\Temp\ccv9NfrL.s 			page 94


 3652 0683 01       		.byte	0x1
 3653 0684 6905     		.2byte	0x569
 3654 0686 3A       		.byte	0x3a
 3655 0687 AC000000 		.4byte	0xac
 3656 068b 17       		.uleb128 0x17
 3657 068c 03050000 		.4byte	.LASF134
 3658 0690 01       		.byte	0x1
 3659 0691 6B05     		.2byte	0x56b
 3660 0693 0C       		.byte	0xc
 3661 0694 03010000 		.4byte	0x103
 3662 0698 00       		.byte	0
 3663 0699 18       		.uleb128 0x18
 3664 069a 01       		.byte	0x1
 3665 069b 94060000 		.4byte	.LASF80
 3666 069f 01       		.byte	0x1
 3667 06a0 1A05     		.2byte	0x51a
 3668 06a2 06       		.byte	0x6
 3669 06a3 01       		.byte	0x1
 3670 06a4 90060000 		.4byte	.LFB52
 3671 06a8 0C070000 		.4byte	.LFE52
 3672 06ac 02       		.byte	0x2
 3673 06ad 7D       		.byte	0x7d
 3674 06ae 00       		.sleb128 0
 3675 06af 01       		.byte	0x1
 3676 06b0 D3060000 		.4byte	0x6d3
 3677 06b4 19       		.uleb128 0x19
 3678 06b5 3E060000 		.4byte	.LASF77
 3679 06b9 01       		.byte	0x1
 3680 06ba 1A05     		.2byte	0x51a
 3681 06bc 29       		.byte	0x29
 3682 06bd D3060000 		.4byte	0x6d3
 3683 06c1 01       		.byte	0x1
 3684 06c2 50       		.byte	0x50
 3685 06c3 19       		.uleb128 0x19
 3686 06c4 BE030000 		.4byte	.LASF78
 3687 06c8 01       		.byte	0x1
 3688 06c9 1A05     		.2byte	0x51a
 3689 06cb 38       		.byte	0x38
 3690 06cc AC000000 		.4byte	0xac
 3691 06d0 01       		.byte	0x1
 3692 06d1 51       		.byte	0x51
 3693 06d2 00       		.byte	0
 3694 06d3 1A       		.uleb128 0x1a
 3695 06d4 04       		.byte	0x4
 3696 06d5 FA030000 		.4byte	0x3fa
 3697 06d9 1B       		.uleb128 0x1b
 3698 06da 01       		.byte	0x1
 3699 06db 37040000 		.4byte	.LASF84
 3700 06df 01       		.byte	0x1
 3701 06e0 B304     		.2byte	0x4b3
 3702 06e2 0A       		.byte	0xa
 3703 06e3 01       		.byte	0x1
 3704 06e4 03010000 		.4byte	0x103
 3705 06e8 C8050000 		.4byte	.LFB51
 3706 06ec 90060000 		.4byte	.LFE51
 3707 06f0 02       		.byte	0x2
 3708 06f1 7D       		.byte	0x7d
ARM GAS  C:\Users\skey\AppData\Local\Temp\ccv9NfrL.s 			page 95


 3709 06f2 00       		.sleb128 0
 3710 06f3 01       		.byte	0x1
 3711 06f4 E00A0000 		.4byte	0xae0
 3712 06f8 1C       		.uleb128 0x1c
 3713 06f9 3E060000 		.4byte	.LASF77
 3714 06fd 01       		.byte	0x1
 3715 06fe B304     		.2byte	0x4b3
 3716 0700 27       		.byte	0x27
 3717 0701 D3060000 		.4byte	0x6d3
 3718 0705 04000000 		.4byte	.LLST34
 3719 0709 00000000 		.4byte	.LVUS34
 3720 070d 1C       		.uleb128 0x1c
 3721 070e BE030000 		.4byte	.LASF78
 3722 0712 01       		.byte	0x1
 3723 0713 B304     		.2byte	0x4b3
 3724 0715 36       		.byte	0x36
 3725 0716 AC000000 		.4byte	0xac
 3726 071a 32000000 		.4byte	.LLST35
 3727 071e 22000000 		.4byte	.LVUS35
 3728 0722 1D       		.uleb128 0x1d
 3729 0723 0D040000 		.4byte	.LASF79
 3730 0727 01       		.byte	0x1
 3731 0728 B504     		.2byte	0x4b5
 3732 072a 0C       		.byte	0xc
 3733 072b 03010000 		.4byte	0x103
 3734 072f A2000000 		.4byte	.LLST36
 3735 0733 9C000000 		.4byte	.LVUS36
 3736 0737 1E       		.uleb128 0x1e
 3737 0738 5E060000 		.4byte	0x65e
 3738 073c 1A060000 		.4byte	.LBI30
 3739 0740 00       		.byte	.LVU659
 3740 0741 00000000 		.4byte	.Ldebug_ranges0+0
 3741 0745 01       		.byte	0x1
 3742 0746 EA04     		.2byte	0x4ea
 3743 0748 1A       		.byte	0x1a
 3744 0749 7B070000 		.4byte	0x77b
 3745 074d 1F       		.uleb128 0x1f
 3746 074e 7E060000 		.4byte	0x67e
 3747 0752 CF000000 		.4byte	.LLST37
 3748 0756 CD000000 		.4byte	.LVUS37
 3749 075a 1F       		.uleb128 0x1f
 3750 075b 71060000 		.4byte	0x671
 3751 075f E5000000 		.4byte	.LLST38
 3752 0763 E3000000 		.4byte	.LVUS38
 3753 0767 20       		.uleb128 0x20
 3754 0768 00000000 		.4byte	.Ldebug_ranges0+0
 3755 076c 21       		.uleb128 0x21
 3756 076d 8B060000 		.4byte	0x68b
 3757 0771 FA000000 		.4byte	.LLST39
 3758 0775 F8000000 		.4byte	.LVUS39
 3759 0779 00       		.byte	0
 3760 077a 00       		.byte	0
 3761 077b 1E       		.uleb128 0x1e
 3762 077c 5E060000 		.4byte	0x65e
 3763 0780 44060000 		.4byte	.LBI33
 3764 0784 00       		.byte	.LVU679
 3765 0785 18000000 		.4byte	.Ldebug_ranges0+0x18
ARM GAS  C:\Users\skey\AppData\Local\Temp\ccv9NfrL.s 			page 96


 3766 0789 01       		.byte	0x1
 3767 078a C604     		.2byte	0x4c6
 3768 078c 1A       		.byte	0x1a
 3769 078d BF070000 		.4byte	0x7bf
 3770 0791 1F       		.uleb128 0x1f
 3771 0792 7E060000 		.4byte	0x67e
 3772 0796 10010000 		.4byte	.LLST40
 3773 079a 0E010000 		.4byte	.LVUS40
 3774 079e 1F       		.uleb128 0x1f
 3775 079f 71060000 		.4byte	0x671
 3776 07a3 26010000 		.4byte	.LLST41
 3777 07a7 24010000 		.4byte	.LVUS41
 3778 07ab 20       		.uleb128 0x20
 3779 07ac 18000000 		.4byte	.Ldebug_ranges0+0x18
 3780 07b0 21       		.uleb128 0x21
 3781 07b1 8B060000 		.4byte	0x68b
 3782 07b5 3B010000 		.4byte	.LLST42
 3783 07b9 39010000 		.4byte	.LVUS42
 3784 07bd 00       		.byte	0
 3785 07be 00       		.byte	0
 3786 07bf 1E       		.uleb128 0x1e
 3787 07c0 5E060000 		.4byte	0x65e
 3788 07c4 32060000 		.4byte	.LBI42
 3789 07c8 00       		.byte	.LVU670
 3790 07c9 58000000 		.4byte	.Ldebug_ranges0+0x58
 3791 07cd 01       		.byte	0x1
 3792 07ce C204     		.2byte	0x4c2
 3793 07d0 1A       		.byte	0x1a
 3794 07d1 03080000 		.4byte	0x803
 3795 07d5 1F       		.uleb128 0x1f
 3796 07d6 7E060000 		.4byte	0x67e
 3797 07da 51010000 		.4byte	.LLST43
 3798 07de 4F010000 		.4byte	.LVUS43
 3799 07e2 1F       		.uleb128 0x1f
 3800 07e3 71060000 		.4byte	0x671
 3801 07e7 6B010000 		.4byte	.LLST44
 3802 07eb 69010000 		.4byte	.LVUS44
 3803 07ef 20       		.uleb128 0x20
 3804 07f0 58000000 		.4byte	.Ldebug_ranges0+0x58
 3805 07f4 21       		.uleb128 0x21
 3806 07f5 8B060000 		.4byte	0x68b
 3807 07f9 80010000 		.4byte	.LLST45
 3808 07fd 7E010000 		.4byte	.LVUS45
 3809 0801 00       		.byte	0
 3810 0802 00       		.byte	0
 3811 0803 1E       		.uleb128 0x1e
 3812 0804 5E060000 		.4byte	0x65e
 3813 0808 80060000 		.4byte	.LBI45
 3814 080c 00       		.byte	.LVU751
 3815 080d 70000000 		.4byte	.Ldebug_ranges0+0x70
 3816 0811 01       		.byte	0x1
 3817 0812 F204     		.2byte	0x4f2
 3818 0814 1A       		.byte	0x1a
 3819 0815 47080000 		.4byte	0x847
 3820 0819 1F       		.uleb128 0x1f
 3821 081a 7E060000 		.4byte	0x67e
 3822 081e 96010000 		.4byte	.LLST46
ARM GAS  C:\Users\skey\AppData\Local\Temp\ccv9NfrL.s 			page 97


 3823 0822 94010000 		.4byte	.LVUS46
 3824 0826 1F       		.uleb128 0x1f
 3825 0827 71060000 		.4byte	0x671
 3826 082b AD010000 		.4byte	.LLST47
 3827 082f AB010000 		.4byte	.LVUS47
 3828 0833 20       		.uleb128 0x20
 3829 0834 70000000 		.4byte	.Ldebug_ranges0+0x70
 3830 0838 21       		.uleb128 0x21
 3831 0839 8B060000 		.4byte	0x68b
 3832 083d C2010000 		.4byte	.LLST48
 3833 0841 C0010000 		.4byte	.LVUS48
 3834 0845 00       		.byte	0
 3835 0846 00       		.byte	0
 3836 0847 1E       		.uleb128 0x1e
 3837 0848 5E060000 		.4byte	0x65e
 3838 084c 44060000 		.4byte	.LBI51
 3839 0850 04       		.byte	.LVU683
 3840 0851 90000000 		.4byte	.Ldebug_ranges0+0x90
 3841 0855 01       		.byte	0x1
 3842 0856 D204     		.2byte	0x4d2
 3843 0858 1B       		.byte	0x1b
 3844 0859 8B080000 		.4byte	0x88b
 3845 085d 1F       		.uleb128 0x1f
 3846 085e 7E060000 		.4byte	0x67e
 3847 0862 D8010000 		.4byte	.LLST49
 3848 0866 D6010000 		.4byte	.LVUS49
 3849 086a 1F       		.uleb128 0x1f
 3850 086b 71060000 		.4byte	0x671
 3851 086f EE010000 		.4byte	.LLST50
 3852 0873 EC010000 		.4byte	.LVUS50
 3853 0877 20       		.uleb128 0x20
 3854 0878 90000000 		.4byte	.Ldebug_ranges0+0x90
 3855 087c 21       		.uleb128 0x21
 3856 087d 8B060000 		.4byte	0x68b
 3857 0881 03020000 		.4byte	.LLST51
 3858 0885 01020000 		.4byte	.LVUS51
 3859 0889 00       		.byte	0
 3860 088a 00       		.byte	0
 3861 088b 22       		.uleb128 0x22
 3862 088c 5E060000 		.4byte	0x65e
 3863 0890 50060000 		.4byte	.LBI56
 3864 0894 00       		.byte	.LVU691
 3865 0895 50060000 		.4byte	.LBB56
 3866 0899 50060000 		.4byte	.LBE56
 3867 089d 01       		.byte	0x1
 3868 089e CA04     		.2byte	0x4ca
 3869 08a0 1B       		.byte	0x1b
 3870 08a1 CD080000 		.4byte	0x8cd
 3871 08a5 1F       		.uleb128 0x1f
 3872 08a6 7E060000 		.4byte	0x67e
 3873 08aa 19020000 		.4byte	.LLST52
 3874 08ae 17020000 		.4byte	.LVUS52
 3875 08b2 1F       		.uleb128 0x1f
 3876 08b3 71060000 		.4byte	0x671
 3877 08b7 2F020000 		.4byte	.LLST53
 3878 08bb 2D020000 		.4byte	.LVUS53
 3879 08bf 21       		.uleb128 0x21
ARM GAS  C:\Users\skey\AppData\Local\Temp\ccv9NfrL.s 			page 98


 3880 08c0 8B060000 		.4byte	0x68b
 3881 08c4 44020000 		.4byte	.LLST54
 3882 08c8 42020000 		.4byte	.LVUS54
 3883 08cc 00       		.byte	0
 3884 08cd 1E       		.uleb128 0x1e
 3885 08ce 5E060000 		.4byte	0x65e
 3886 08d2 50060000 		.4byte	.LBI58
 3887 08d6 04       		.byte	.LVU695
 3888 08d7 A8000000 		.4byte	.Ldebug_ranges0+0xa8
 3889 08db 01       		.byte	0x1
 3890 08dc D604     		.2byte	0x4d6
 3891 08de 1A       		.byte	0x1a
 3892 08df 11090000 		.4byte	0x911
 3893 08e3 1F       		.uleb128 0x1f
 3894 08e4 7E060000 		.4byte	0x67e
 3895 08e8 5A020000 		.4byte	.LLST55
 3896 08ec 58020000 		.4byte	.LVUS55
 3897 08f0 1F       		.uleb128 0x1f
 3898 08f1 71060000 		.4byte	0x671
 3899 08f5 70020000 		.4byte	.LLST56
 3900 08f9 6E020000 		.4byte	.LVUS56
 3901 08fd 20       		.uleb128 0x20
 3902 08fe A8000000 		.4byte	.Ldebug_ranges0+0xa8
 3903 0902 21       		.uleb128 0x21
 3904 0903 8B060000 		.4byte	0x68b
 3905 0907 85020000 		.4byte	.LLST57
 3906 090b 83020000 		.4byte	.LVUS57
 3907 090f 00       		.byte	0
 3908 0910 00       		.byte	0
 3909 0911 22       		.uleb128 0x22
 3910 0912 5E060000 		.4byte	0x65e
 3911 0916 58060000 		.4byte	.LBI63
 3912 091a 00       		.byte	.LVU703
 3913 091b 58060000 		.4byte	.LBB63
 3914 091f 58060000 		.4byte	.LBE63
 3915 0923 01       		.byte	0x1
 3916 0924 CE04     		.2byte	0x4ce
 3917 0926 1B       		.byte	0x1b
 3918 0927 53090000 		.4byte	0x953
 3919 092b 1F       		.uleb128 0x1f
 3920 092c 7E060000 		.4byte	0x67e
 3921 0930 9B020000 		.4byte	.LLST58
 3922 0934 99020000 		.4byte	.LVUS58
 3923 0938 1F       		.uleb128 0x1f
 3924 0939 71060000 		.4byte	0x671
 3925 093d B1020000 		.4byte	.LLST59
 3926 0941 AF020000 		.4byte	.LVUS59
 3927 0945 21       		.uleb128 0x21
 3928 0946 8B060000 		.4byte	0x68b
 3929 094a C6020000 		.4byte	.LLST60
 3930 094e C4020000 		.4byte	.LVUS60
 3931 0952 00       		.byte	0
 3932 0953 1E       		.uleb128 0x1e
 3933 0954 5E060000 		.4byte	0x65e
 3934 0958 58060000 		.4byte	.LBI65
 3935 095c 04       		.byte	.LVU707
 3936 095d C0000000 		.4byte	.Ldebug_ranges0+0xc0
ARM GAS  C:\Users\skey\AppData\Local\Temp\ccv9NfrL.s 			page 99


 3937 0961 01       		.byte	0x1
 3938 0962 E204     		.2byte	0x4e2
 3939 0964 1A       		.byte	0x1a
 3940 0965 97090000 		.4byte	0x997
 3941 0969 1F       		.uleb128 0x1f
 3942 096a 7E060000 		.4byte	0x67e
 3943 096e DC020000 		.4byte	.LLST61
 3944 0972 DA020000 		.4byte	.LVUS61
 3945 0976 1F       		.uleb128 0x1f
 3946 0977 71060000 		.4byte	0x671
 3947 097b F2020000 		.4byte	.LLST62
 3948 097f F0020000 		.4byte	.LVUS62
 3949 0983 20       		.uleb128 0x20
 3950 0984 C0000000 		.4byte	.Ldebug_ranges0+0xc0
 3951 0988 21       		.uleb128 0x21
 3952 0989 8B060000 		.4byte	0x68b
 3953 098d 07030000 		.4byte	.LLST63
 3954 0991 05030000 		.4byte	.LVUS63
 3955 0995 00       		.byte	0
 3956 0996 00       		.byte	0
 3957 0997 22       		.uleb128 0x22
 3958 0998 5E060000 		.4byte	0x65e
 3959 099c 68060000 		.4byte	.LBI70
 3960 09a0 00       		.byte	.LVU719
 3961 09a1 68060000 		.4byte	.LBB70
 3962 09a5 6A060000 		.4byte	.LBE70
 3963 09a9 01       		.byte	0x1
 3964 09aa DA04     		.2byte	0x4da
 3965 09ac 1A       		.byte	0x1a
 3966 09ad D9090000 		.4byte	0x9d9
 3967 09b1 1F       		.uleb128 0x1f
 3968 09b2 7E060000 		.4byte	0x67e
 3969 09b6 1D030000 		.4byte	.LLST64
 3970 09ba 1B030000 		.4byte	.LVUS64
 3971 09be 1F       		.uleb128 0x1f
 3972 09bf 71060000 		.4byte	0x671
 3973 09c3 33030000 		.4byte	.LLST65
 3974 09c7 31030000 		.4byte	.LVUS65
 3975 09cb 21       		.uleb128 0x21
 3976 09cc 8B060000 		.4byte	0x68b
 3977 09d0 48030000 		.4byte	.LLST66
 3978 09d4 46030000 		.4byte	.LVUS66
 3979 09d8 00       		.byte	0
 3980 09d9 22       		.uleb128 0x22
 3981 09da 5E060000 		.4byte	0x65e
 3982 09de 6C060000 		.4byte	.LBI72
 3983 09e2 00       		.byte	.LVU725
 3984 09e3 6C060000 		.4byte	.LBB72
 3985 09e7 6E060000 		.4byte	.LBE72
 3986 09eb 01       		.byte	0x1
 3987 09ec DE04     		.2byte	0x4de
 3988 09ee 1B       		.byte	0x1b
 3989 09ef 1B0A0000 		.4byte	0xa1b
 3990 09f3 1F       		.uleb128 0x1f
 3991 09f4 7E060000 		.4byte	0x67e
 3992 09f8 5E030000 		.4byte	.LLST67
 3993 09fc 5C030000 		.4byte	.LVUS67
ARM GAS  C:\Users\skey\AppData\Local\Temp\ccv9NfrL.s 			page 100


 3994 0a00 1F       		.uleb128 0x1f
 3995 0a01 71060000 		.4byte	0x671
 3996 0a05 74030000 		.4byte	.LLST68
 3997 0a09 72030000 		.4byte	.LVUS68
 3998 0a0d 21       		.uleb128 0x21
 3999 0a0e 8B060000 		.4byte	0x68b
 4000 0a12 89030000 		.4byte	.LLST69
 4001 0a16 87030000 		.4byte	.LVUS69
 4002 0a1a 00       		.byte	0
 4003 0a1b 22       		.uleb128 0x22
 4004 0a1c 5E060000 		.4byte	0x65e
 4005 0a20 70060000 		.4byte	.LBI74
 4006 0a24 00       		.byte	.LVU731
 4007 0a25 70060000 		.4byte	.LBB74
 4008 0a29 76060000 		.4byte	.LBE74
 4009 0a2d 01       		.byte	0x1
 4010 0a2e E604     		.2byte	0x4e6
 4011 0a30 1A       		.byte	0x1a
 4012 0a31 5D0A0000 		.4byte	0xa5d
 4013 0a35 1F       		.uleb128 0x1f
 4014 0a36 7E060000 		.4byte	0x67e
 4015 0a3a 9F030000 		.4byte	.LLST70
 4016 0a3e 9D030000 		.4byte	.LVUS70
 4017 0a42 1F       		.uleb128 0x1f
 4018 0a43 71060000 		.4byte	0x671
 4019 0a47 B5030000 		.4byte	.LLST71
 4020 0a4b B3030000 		.4byte	.LVUS71
 4021 0a4f 21       		.uleb128 0x21
 4022 0a50 8B060000 		.4byte	0x68b
 4023 0a54 CA030000 		.4byte	.LLST72
 4024 0a58 C8030000 		.4byte	.LVUS72
 4025 0a5c 00       		.byte	0
 4026 0a5d 22       		.uleb128 0x22
 4027 0a5e 5E060000 		.4byte	0x65e
 4028 0a62 78060000 		.4byte	.LBI76
 4029 0a66 00       		.byte	.LVU739
 4030 0a67 78060000 		.4byte	.LBB76
 4031 0a6b 78060000 		.4byte	.LBE76
 4032 0a6f 01       		.byte	0x1
 4033 0a70 EE04     		.2byte	0x4ee
 4034 0a72 1A       		.byte	0x1a
 4035 0a73 9F0A0000 		.4byte	0xa9f
 4036 0a77 1F       		.uleb128 0x1f
 4037 0a78 7E060000 		.4byte	0x67e
 4038 0a7c E0030000 		.4byte	.LLST73
 4039 0a80 DE030000 		.4byte	.LVUS73
 4040 0a84 1F       		.uleb128 0x1f
 4041 0a85 71060000 		.4byte	0x671
 4042 0a89 F6030000 		.4byte	.LLST74
 4043 0a8d F4030000 		.4byte	.LVUS74
 4044 0a91 21       		.uleb128 0x21
 4045 0a92 8B060000 		.4byte	0x68b
 4046 0a96 0B040000 		.4byte	.LLST75
 4047 0a9a 09040000 		.4byte	.LVUS75
 4048 0a9e 00       		.byte	0
 4049 0a9f 23       		.uleb128 0x23
 4050 0aa0 5E060000 		.4byte	0x65e
ARM GAS  C:\Users\skey\AppData\Local\Temp\ccv9NfrL.s 			page 101


 4051 0aa4 78060000 		.4byte	.LBI78
 4052 0aa8 04       		.byte	.LVU743
 4053 0aa9 D8000000 		.4byte	.Ldebug_ranges0+0xd8
 4054 0aad 01       		.byte	0x1
 4055 0aae F604     		.2byte	0x4f6
 4056 0ab0 1B       		.byte	0x1b
 4057 0ab1 1F       		.uleb128 0x1f
 4058 0ab2 7E060000 		.4byte	0x67e
 4059 0ab6 21040000 		.4byte	.LLST76
 4060 0aba 1F040000 		.4byte	.LVUS76
 4061 0abe 1F       		.uleb128 0x1f
 4062 0abf 71060000 		.4byte	0x671
 4063 0ac3 37040000 		.4byte	.LLST77
 4064 0ac7 35040000 		.4byte	.LVUS77
 4065 0acb 20       		.uleb128 0x20
 4066 0acc D8000000 		.4byte	.Ldebug_ranges0+0xd8
 4067 0ad0 21       		.uleb128 0x21
 4068 0ad1 8B060000 		.4byte	0x68b
 4069 0ad5 4C040000 		.4byte	.LLST78
 4070 0ad9 4A040000 		.4byte	.LVUS78
 4071 0add 00       		.byte	0
 4072 0ade 00       		.byte	0
 4073 0adf 00       		.byte	0
 4074 0ae0 18       		.uleb128 0x18
 4075 0ae1 01       		.byte	0x1
 4076 0ae2 14000000 		.4byte	.LASF81
 4077 0ae6 01       		.byte	0x1
 4078 0ae7 7704     		.2byte	0x477
 4079 0ae9 06       		.byte	0x6
 4080 0aea 01       		.byte	0x1
 4081 0aeb 9A050000 		.4byte	.LFB50
 4082 0aef C8050000 		.4byte	.LFE50
 4083 0af3 02       		.byte	0x2
 4084 0af4 7D       		.byte	0x7d
 4085 0af5 00       		.sleb128 0
 4086 0af6 01       		.byte	0x1
 4087 0af7 2F0B0000 		.4byte	0xb2f
 4088 0afb 19       		.uleb128 0x19
 4089 0afc 3E060000 		.4byte	.LASF77
 4090 0b00 01       		.byte	0x1
 4091 0b01 7704     		.2byte	0x477
 4092 0b03 21       		.byte	0x21
 4093 0b04 D3060000 		.4byte	0x6d3
 4094 0b08 01       		.byte	0x1
 4095 0b09 50       		.byte	0x50
 4096 0b0a 19       		.uleb128 0x19
 4097 0b0b 78040000 		.4byte	.LASF82
 4098 0b0f 01       		.byte	0x1
 4099 0b10 7704     		.2byte	0x477
 4100 0b12 30       		.byte	0x30
 4101 0b13 AC000000 		.4byte	0xac
 4102 0b17 01       		.byte	0x1
 4103 0b18 51       		.byte	0x51
 4104 0b19 1D       		.uleb128 0x1d
 4105 0b1a F0050000 		.4byte	.LASF83
 4106 0b1e 01       		.byte	0x1
 4107 0b1f 7904     		.2byte	0x479
ARM GAS  C:\Users\skey\AppData\Local\Temp\ccv9NfrL.s 			page 102


 4108 0b21 0C       		.byte	0xc
 4109 0b22 AC000000 		.4byte	0xac
 4110 0b26 64040000 		.4byte	.LLST33
 4111 0b2a 60040000 		.4byte	.LVUS33
 4112 0b2e 00       		.byte	0
 4113 0b2f 1B       		.uleb128 0x1b
 4114 0b30 01       		.byte	0x1
 4115 0b31 16060000 		.4byte	.LASF85
 4116 0b35 01       		.byte	0x1
 4117 0b36 1304     		.2byte	0x413
 4118 0b38 0C       		.byte	0xc
 4119 0b39 01       		.byte	0x1
 4120 0b3a F6000000 		.4byte	0xf6
 4121 0b3e 68050000 		.4byte	.LFB49
 4122 0b42 9A050000 		.4byte	.LFE49
 4123 0b46 02       		.byte	0x2
 4124 0b47 7D       		.byte	0x7d
 4125 0b48 00       		.sleb128 0
 4126 0b49 01       		.byte	0x1
 4127 0b4a 880B0000 		.4byte	0xb88
 4128 0b4e 1C       		.uleb128 0x1c
 4129 0b4f 3E060000 		.4byte	.LASF77
 4130 0b53 01       		.byte	0x1
 4131 0b54 1304     		.2byte	0x413
 4132 0b56 2B       		.byte	0x2b
 4133 0b57 D3060000 		.4byte	0x6d3
 4134 0b5b 8F040000 		.4byte	.LLST31
 4135 0b5f 83040000 		.4byte	.LVUS31
 4136 0b63 19       		.uleb128 0x19
 4137 0b64 78040000 		.4byte	.LASF82
 4138 0b68 01       		.byte	0x1
 4139 0b69 1304     		.2byte	0x413
 4140 0b6b 3A       		.byte	0x3a
 4141 0b6c AC000000 		.4byte	0xac
 4142 0b70 01       		.byte	0x1
 4143 0b71 51       		.byte	0x51
 4144 0b72 1D       		.uleb128 0x1d
 4145 0b73 B2020000 		.4byte	.LASF86
 4146 0b77 01       		.byte	0x1
 4147 0b78 1504     		.2byte	0x415
 4148 0b7a 0E       		.byte	0xe
 4149 0b7b F6000000 		.4byte	0xf6
 4150 0b7f DF040000 		.4byte	.LLST32
 4151 0b83 D9040000 		.4byte	.LVUS32
 4152 0b87 00       		.byte	0
 4153 0b88 18       		.uleb128 0x18
 4154 0b89 01       		.byte	0x1
 4155 0b8a 31060000 		.4byte	.LASF87
 4156 0b8e 01       		.byte	0x1
 4157 0b8f EB03     		.2byte	0x3eb
 4158 0b91 06       		.byte	0x6
 4159 0b92 01       		.byte	0x1
 4160 0b93 58050000 		.4byte	.LFB48
 4161 0b97 68050000 		.4byte	.LFE48
 4162 0b9b 02       		.byte	0x2
 4163 0b9c 7D       		.byte	0x7d
 4164 0b9d 00       		.sleb128 0
ARM GAS  C:\Users\skey\AppData\Local\Temp\ccv9NfrL.s 			page 103


 4165 0b9e 01       		.byte	0x1
 4166 0b9f D70B0000 		.4byte	0xbd7
 4167 0ba3 19       		.uleb128 0x19
 4168 0ba4 3E060000 		.4byte	.LASF77
 4169 0ba8 01       		.byte	0x1
 4170 0ba9 EB03     		.2byte	0x3eb
 4171 0bab 20       		.byte	0x20
 4172 0bac D3060000 		.4byte	0x6d3
 4173 0bb0 01       		.byte	0x1
 4174 0bb1 50       		.byte	0x50
 4175 0bb2 1C       		.uleb128 0x1c
 4176 0bb3 BE030000 		.4byte	.LASF78
 4177 0bb7 01       		.byte	0x1
 4178 0bb8 EB03     		.2byte	0x3eb
 4179 0bba 2F       		.byte	0x2f
 4180 0bbb AC000000 		.4byte	0xac
 4181 0bbf 12050000 		.4byte	.LLST30
 4182 0bc3 0A050000 		.4byte	.LVUS30
 4183 0bc7 19       		.uleb128 0x19
 4184 0bc8 86020000 		.4byte	.LASF88
 4185 0bcc 01       		.byte	0x1
 4186 0bcd EB03     		.2byte	0x3eb
 4187 0bcf 47       		.byte	0x47
 4188 0bd0 2C010000 		.4byte	0x12c
 4189 0bd4 01       		.byte	0x1
 4190 0bd5 52       		.byte	0x52
 4191 0bd6 00       		.byte	0
 4192 0bd7 1B       		.uleb128 0x1b
 4193 0bd8 01       		.byte	0x1
 4194 0bd9 F8010000 		.4byte	.LASF89
 4195 0bdd 01       		.byte	0x1
 4196 0bde C603     		.2byte	0x3c6
 4197 0be0 09       		.byte	0x9
 4198 0be1 01       		.byte	0x1
 4199 0be2 94000000 		.4byte	0x94
 4200 0be6 50050000 		.4byte	.LFB47
 4201 0bea 58050000 		.4byte	.LFE47
 4202 0bee 02       		.byte	0x2
 4203 0bef 7D       		.byte	0x7d
 4204 0bf0 00       		.sleb128 0
 4205 0bf1 01       		.byte	0x1
 4206 0bf2 210C0000 		.4byte	0xc21
 4207 0bf6 1C       		.uleb128 0x1c
 4208 0bf7 3E060000 		.4byte	.LASF77
 4209 0bfb 01       		.byte	0x1
 4210 0bfc C603     		.2byte	0x3c6
 4211 0bfe 35       		.byte	0x35
 4212 0bff D3060000 		.4byte	0x6d3
 4213 0c03 50050000 		.4byte	.LLST28
 4214 0c07 4C050000 		.4byte	.LVUS28
 4215 0c0b 1D       		.uleb128 0x1d
 4216 0c0c 01060000 		.4byte	.LASF90
 4217 0c10 01       		.byte	0x1
 4218 0c11 C803     		.2byte	0x3c8
 4219 0c13 0B       		.byte	0xb
 4220 0c14 94000000 		.4byte	0x94
 4221 0c18 75050000 		.4byte	.LLST29
ARM GAS  C:\Users\skey\AppData\Local\Temp\ccv9NfrL.s 			page 104


 4222 0c1c 71050000 		.4byte	.LVUS29
 4223 0c20 00       		.byte	0
 4224 0c21 1B       		.uleb128 0x1b
 4225 0c22 01       		.byte	0x1
 4226 0c23 CD060000 		.4byte	.LASF91
 4227 0c27 01       		.byte	0x1
 4228 0c28 B203     		.2byte	0x3b2
 4229 0c2a 09       		.byte	0x9
 4230 0c2b 01       		.byte	0x1
 4231 0c2c 94000000 		.4byte	0x94
 4232 0c30 4A050000 		.4byte	.LFB46
 4233 0c34 50050000 		.4byte	.LFE46
 4234 0c38 02       		.byte	0x2
 4235 0c39 7D       		.byte	0x7d
 4236 0c3a 00       		.sleb128 0
 4237 0c3b 01       		.byte	0x1
 4238 0c3c 6B0C0000 		.4byte	0xc6b
 4239 0c40 1C       		.uleb128 0x1c
 4240 0c41 3E060000 		.4byte	.LASF77
 4241 0c45 01       		.byte	0x1
 4242 0c46 B203     		.2byte	0x3b2
 4243 0c48 31       		.byte	0x31
 4244 0c49 D3060000 		.4byte	0x6d3
 4245 0c4d 9C050000 		.4byte	.LLST26
 4246 0c51 98050000 		.4byte	.LVUS26
 4247 0c55 1D       		.uleb128 0x1d
 4248 0c56 01060000 		.4byte	.LASF90
 4249 0c5a 01       		.byte	0x1
 4250 0c5b B403     		.2byte	0x3b4
 4251 0c5d 0B       		.byte	0xb
 4252 0c5e 94000000 		.4byte	0x94
 4253 0c62 C1050000 		.4byte	.LLST27
 4254 0c66 BD050000 		.4byte	.LVUS27
 4255 0c6a 00       		.byte	0
 4256 0c6b 1B       		.uleb128 0x1b
 4257 0c6c 01       		.byte	0x1
 4258 0c6d 4B020000 		.4byte	.LASF92
 4259 0c71 01       		.byte	0x1
 4260 0c72 9A03     		.2byte	0x39a
 4261 0c74 09       		.byte	0x9
 4262 0c75 01       		.byte	0x1
 4263 0c76 94000000 		.4byte	0x94
 4264 0c7a 42050000 		.4byte	.LFB45
 4265 0c7e 4A050000 		.4byte	.LFE45
 4266 0c82 02       		.byte	0x2
 4267 0c83 7D       		.byte	0x7d
 4268 0c84 00       		.sleb128 0
 4269 0c85 01       		.byte	0x1
 4270 0c86 B50C0000 		.4byte	0xcb5
 4271 0c8a 1C       		.uleb128 0x1c
 4272 0c8b 3E060000 		.4byte	.LASF77
 4273 0c8f 01       		.byte	0x1
 4274 0c90 9A03     		.2byte	0x39a
 4275 0c92 2B       		.byte	0x2b
 4276 0c93 D3060000 		.4byte	0x6d3
 4277 0c97 E8050000 		.4byte	.LLST24
 4278 0c9b E4050000 		.4byte	.LVUS24
ARM GAS  C:\Users\skey\AppData\Local\Temp\ccv9NfrL.s 			page 105


 4279 0c9f 1D       		.uleb128 0x1d
 4280 0ca0 F9040000 		.4byte	.LASF93
 4281 0ca4 01       		.byte	0x1
 4282 0ca5 9C03     		.2byte	0x39c
 4283 0ca7 0B       		.byte	0xb
 4284 0ca8 94000000 		.4byte	0x94
 4285 0cac 0D060000 		.4byte	.LLST25
 4286 0cb0 09060000 		.4byte	.LVUS25
 4287 0cb4 00       		.byte	0
 4288 0cb5 1B       		.uleb128 0x1b
 4289 0cb6 01       		.byte	0x1
 4290 0cb7 72020000 		.4byte	.LASF94
 4291 0cbb 01       		.byte	0x1
 4292 0cbc 7203     		.2byte	0x372
 4293 0cbe 09       		.byte	0x9
 4294 0cbf 01       		.byte	0x1
 4295 0cc0 94000000 		.4byte	0x94
 4296 0cc4 20050000 		.4byte	.LFB44
 4297 0cc8 42050000 		.4byte	.LFE44
 4298 0ccc 02       		.byte	0x2
 4299 0ccd 7D       		.byte	0x7d
 4300 0cce 00       		.sleb128 0
 4301 0ccf 01       		.byte	0x1
 4302 0cd0 140D0000 		.4byte	0xd14
 4303 0cd4 1C       		.uleb128 0x1c
 4304 0cd5 3E060000 		.4byte	.LASF77
 4305 0cd9 01       		.byte	0x1
 4306 0cda 7203     		.2byte	0x372
 4307 0cdc 21       		.byte	0x21
 4308 0cdd D3060000 		.4byte	0x6d3
 4309 0ce1 35060000 		.4byte	.LLST21
 4310 0ce5 31060000 		.4byte	.LVUS21
 4311 0ce9 1D       		.uleb128 0x1d
 4312 0cea CC040000 		.4byte	.LASF95
 4313 0cee 01       		.byte	0x1
 4314 0cef 7403     		.2byte	0x374
 4315 0cf1 0C       		.byte	0xc
 4316 0cf2 AC000000 		.4byte	0xac
 4317 0cf6 5C060000 		.4byte	.LLST22
 4318 0cfa 56060000 		.4byte	.LVUS22
 4319 0cfe 1D       		.uleb128 0x1d
 4320 0cff 53070000 		.4byte	.LASF96
 4321 0d03 01       		.byte	0x1
 4322 0d04 7503     		.2byte	0x375
 4323 0d06 0B       		.byte	0xb
 4324 0d07 94000000 		.4byte	0x94
 4325 0d0b 90060000 		.4byte	.LLST23
 4326 0d0f 8A060000 		.4byte	.LVUS23
 4327 0d13 00       		.byte	0
 4328 0d14 1B       		.uleb128 0x1b
 4329 0d15 01       		.byte	0x1
 4330 0d16 E6030000 		.4byte	.LASF97
 4331 0d1a 01       		.byte	0x1
 4332 0d1b 5803     		.2byte	0x358
 4333 0d1d 09       		.byte	0x9
 4334 0d1e 01       		.byte	0x1
 4335 0d1f 94000000 		.4byte	0x94
ARM GAS  C:\Users\skey\AppData\Local\Temp\ccv9NfrL.s 			page 106


 4336 0d23 06050000 		.4byte	.LFB43
 4337 0d27 20050000 		.4byte	.LFE43
 4338 0d2b 02       		.byte	0x2
 4339 0d2c 7D       		.byte	0x7d
 4340 0d2d 00       		.sleb128 0
 4341 0d2e 01       		.byte	0x1
 4342 0d2f 5E0D0000 		.4byte	0xd5e
 4343 0d33 1C       		.uleb128 0x1c
 4344 0d34 3E060000 		.4byte	.LASF77
 4345 0d38 01       		.byte	0x1
 4346 0d39 5803     		.2byte	0x358
 4347 0d3b 20       		.byte	0x20
 4348 0d3c D3060000 		.4byte	0x6d3
 4349 0d40 CB060000 		.4byte	.LLST19
 4350 0d44 C7060000 		.4byte	.LVUS19
 4351 0d48 1D       		.uleb128 0x1d
 4352 0d49 73000000 		.4byte	.LASF98
 4353 0d4d 01       		.byte	0x1
 4354 0d4e 5A03     		.2byte	0x35a
 4355 0d50 0B       		.byte	0xb
 4356 0d51 94000000 		.4byte	0x94
 4357 0d55 F0060000 		.4byte	.LLST20
 4358 0d59 EC060000 		.4byte	.LVUS20
 4359 0d5d 00       		.byte	0
 4360 0d5e 1B       		.uleb128 0x1b
 4361 0d5f 01       		.byte	0x1
 4362 0d60 21030000 		.4byte	.LASF99
 4363 0d64 01       		.byte	0x1
 4364 0d65 0603     		.2byte	0x306
 4365 0d67 09       		.byte	0x9
 4366 0d68 01       		.byte	0x1
 4367 0d69 94000000 		.4byte	0x94
 4368 0d6d 7E040000 		.4byte	.LFB42
 4369 0d71 06050000 		.4byte	.LFE42
 4370 0d75 02       		.byte	0x2
 4371 0d76 7D       		.byte	0x7d
 4372 0d77 00       		.sleb128 0
 4373 0d78 01       		.byte	0x1
 4374 0d79 CC0D0000 		.4byte	0xdcc
 4375 0d7d 1C       		.uleb128 0x1c
 4376 0d7e 3E060000 		.4byte	.LASF77
 4377 0d82 01       		.byte	0x1
 4378 0d83 0603     		.2byte	0x306
 4379 0d85 2F       		.byte	0x2f
 4380 0d86 D3060000 		.4byte	0x6d3
 4381 0d8a 25070000 		.4byte	.LLST16
 4382 0d8e 15070000 		.4byte	.LVUS16
 4383 0d92 19       		.uleb128 0x19
 4384 0d93 CE050000 		.4byte	.LASF100
 4385 0d97 01       		.byte	0x1
 4386 0d98 0603     		.2byte	0x306
 4387 0d9a 3D       		.byte	0x3d
 4388 0d9b 94000000 		.4byte	0x94
 4389 0d9f 01       		.byte	0x1
 4390 0da0 51       		.byte	0x51
 4391 0da1 1D       		.uleb128 0x1d
 4392 0da2 CE010000 		.4byte	.LASF101
ARM GAS  C:\Users\skey\AppData\Local\Temp\ccv9NfrL.s 			page 107


 4393 0da6 01       		.byte	0x1
 4394 0da7 0803     		.2byte	0x308
 4395 0da9 0B       		.byte	0xb
 4396 0daa 94000000 		.4byte	0x94
 4397 0dae 95070000 		.4byte	.LLST17
 4398 0db2 91070000 		.4byte	.LVUS17
 4399 0db6 1D       		.uleb128 0x1d
 4400 0db7 4C030000 		.4byte	.LASF102
 4401 0dbb 01       		.byte	0x1
 4402 0dbc 0B03     		.2byte	0x30b
 4403 0dbe 0C       		.byte	0xc
 4404 0dbf AC000000 		.4byte	0xac
 4405 0dc3 C8070000 		.4byte	.LLST18
 4406 0dc7 B4070000 		.4byte	.LVUS18
 4407 0dcb 00       		.byte	0
 4408 0dcc 1B       		.uleb128 0x1b
 4409 0dcd 01       		.byte	0x1
 4410 0dce F0020000 		.4byte	.LASF103
 4411 0dd2 01       		.byte	0x1
 4412 0dd3 E702     		.2byte	0x2e7
 4413 0dd5 09       		.byte	0x9
 4414 0dd6 01       		.byte	0x1
 4415 0dd7 94000000 		.4byte	0x94
 4416 0ddb 68040000 		.4byte	.LFB41
 4417 0ddf 7E040000 		.4byte	.LFE41
 4418 0de3 02       		.byte	0x2
 4419 0de4 7D       		.byte	0x7d
 4420 0de5 00       		.sleb128 0
 4421 0de6 01       		.byte	0x1
 4422 0de7 250E0000 		.4byte	0xe25
 4423 0deb 1C       		.uleb128 0x1c
 4424 0dec 3E060000 		.4byte	.LASF77
 4425 0df0 01       		.byte	0x1
 4426 0df1 E702     		.2byte	0x2e7
 4427 0df3 29       		.byte	0x29
 4428 0df4 D3060000 		.4byte	0x6d3
 4429 0df8 5C080000 		.4byte	.LLST14
 4430 0dfc 50080000 		.4byte	.LVUS14
 4431 0e00 19       		.uleb128 0x19
 4432 0e01 E4040000 		.4byte	.LASF104
 4433 0e05 01       		.byte	0x1
 4434 0e06 E702     		.2byte	0x2e7
 4435 0e08 37       		.byte	0x37
 4436 0e09 94000000 		.4byte	0x94
 4437 0e0d 01       		.byte	0x1
 4438 0e0e 51       		.byte	0x51
 4439 0e0f 1D       		.uleb128 0x1d
 4440 0e10 BD000000 		.4byte	.LASF105
 4441 0e14 01       		.byte	0x1
 4442 0e15 E902     		.2byte	0x2e9
 4443 0e17 0B       		.byte	0xb
 4444 0e18 94000000 		.4byte	0x94
 4445 0e1c B7080000 		.4byte	.LLST15
 4446 0e20 AF080000 		.4byte	.LVUS15
 4447 0e24 00       		.byte	0
 4448 0e25 18       		.uleb128 0x18
 4449 0e26 01       		.byte	0x1
ARM GAS  C:\Users\skey\AppData\Local\Temp\ccv9NfrL.s 			page 108


 4450 0e27 9C000000 		.4byte	.LASF106
 4451 0e2b 01       		.byte	0x1
 4452 0e2c D002     		.2byte	0x2d0
 4453 0e2e 06       		.byte	0x6
 4454 0e2f 01       		.byte	0x1
 4455 0e30 52040000 		.4byte	.LFB40
 4456 0e34 68040000 		.4byte	.LFE40
 4457 0e38 02       		.byte	0x2
 4458 0e39 7D       		.byte	0x7d
 4459 0e3a 00       		.sleb128 0
 4460 0e3b 01       		.byte	0x1
 4461 0e3c 5F0E0000 		.4byte	0xe5f
 4462 0e40 19       		.uleb128 0x19
 4463 0e41 3E060000 		.4byte	.LASF77
 4464 0e45 01       		.byte	0x1
 4465 0e46 D002     		.2byte	0x2d0
 4466 0e48 23       		.byte	0x23
 4467 0e49 D3060000 		.4byte	0x6d3
 4468 0e4d 01       		.byte	0x1
 4469 0e4e 50       		.byte	0x50
 4470 0e4f 19       		.uleb128 0x19
 4471 0e50 E4040000 		.4byte	.LASF104
 4472 0e54 01       		.byte	0x1
 4473 0e55 D002     		.2byte	0x2d0
 4474 0e57 31       		.byte	0x31
 4475 0e58 94000000 		.4byte	0x94
 4476 0e5c 01       		.byte	0x1
 4477 0e5d 51       		.byte	0x51
 4478 0e5e 00       		.byte	0
 4479 0e5f 24       		.uleb128 0x24
 4480 0e60 01       		.byte	0x1
 4481 0e61 58060000 		.4byte	.LASF107
 4482 0e65 01       		.byte	0x1
 4483 0e66 9F02     		.2byte	0x29f
 4484 0e68 06       		.byte	0x6
 4485 0e69 01       		.byte	0x1
 4486 0e6a BC030000 		.4byte	.LFB39
 4487 0e6e 52040000 		.4byte	.LFE39
 4488 0e72 ED080000 		.4byte	.LLST13
 4489 0e76 01       		.byte	0x1
 4490 0e77 A90E0000 		.4byte	0xea9
 4491 0e7b 19       		.uleb128 0x19
 4492 0e7c 3E060000 		.4byte	.LASF77
 4493 0e80 01       		.byte	0x1
 4494 0e81 9F02     		.2byte	0x29f
 4495 0e83 1F       		.byte	0x1f
 4496 0e84 D3060000 		.4byte	0x6d3
 4497 0e88 01       		.byte	0x1
 4498 0e89 50       		.byte	0x50
 4499 0e8a 19       		.uleb128 0x19
 4500 0e8b E4040000 		.4byte	.LASF104
 4501 0e8f 01       		.byte	0x1
 4502 0e90 9F02     		.2byte	0x29f
 4503 0e92 2D       		.byte	0x2d
 4504 0e93 94000000 		.4byte	0x94
 4505 0e97 01       		.byte	0x1
 4506 0e98 51       		.byte	0x51
ARM GAS  C:\Users\skey\AppData\Local\Temp\ccv9NfrL.s 			page 109


 4507 0e99 19       		.uleb128 0x19
 4508 0e9a 22000000 		.4byte	.LASF108
 4509 0e9e 01       		.byte	0x1
 4510 0e9f 9F02     		.2byte	0x29f
 4511 0ea1 43       		.byte	0x43
 4512 0ea2 A90E0000 		.4byte	0xea9
 4513 0ea6 01       		.byte	0x1
 4514 0ea7 52       		.byte	0x52
 4515 0ea8 00       		.byte	0
 4516 0ea9 1A       		.uleb128 0x1a
 4517 0eaa 04       		.byte	0x4
 4518 0eab 52060000 		.4byte	0x652
 4519 0eaf 18       		.uleb128 0x18
 4520 0eb0 01       		.byte	0x1
 4521 0eb1 9F020000 		.4byte	.LASF109
 4522 0eb5 01       		.byte	0x1
 4523 0eb6 8302     		.2byte	0x283
 4524 0eb8 06       		.byte	0x6
 4525 0eb9 01       		.byte	0x1
 4526 0eba 98030000 		.4byte	.LFB38
 4527 0ebe BC030000 		.4byte	.LFE38
 4528 0ec2 02       		.byte	0x2
 4529 0ec3 7D       		.byte	0x7d
 4530 0ec4 00       		.sleb128 0
 4531 0ec5 01       		.byte	0x1
 4532 0ec6 E90E0000 		.4byte	0xee9
 4533 0eca 19       		.uleb128 0x19
 4534 0ecb 3E060000 		.4byte	.LASF77
 4535 0ecf 01       		.byte	0x1
 4536 0ed0 8302     		.2byte	0x283
 4537 0ed2 26       		.byte	0x26
 4538 0ed3 D3060000 		.4byte	0x6d3
 4539 0ed7 01       		.byte	0x1
 4540 0ed8 50       		.byte	0x50
 4541 0ed9 19       		.uleb128 0x19
 4542 0eda 7F000000 		.4byte	.LASF110
 4543 0ede 01       		.byte	0x1
 4544 0edf 8302     		.2byte	0x283
 4545 0ee1 34       		.byte	0x34
 4546 0ee2 94000000 		.4byte	0x94
 4547 0ee6 01       		.byte	0x1
 4548 0ee7 51       		.byte	0x51
 4549 0ee8 00       		.byte	0
 4550 0ee9 1B       		.uleb128 0x1b
 4551 0eea 01       		.byte	0x1
 4552 0eeb EF000000 		.4byte	.LASF111
 4553 0eef 01       		.byte	0x1
 4554 0ef0 4D02     		.2byte	0x24d
 4555 0ef2 09       		.byte	0x9
 4556 0ef3 01       		.byte	0x1
 4557 0ef4 94000000 		.4byte	0x94
 4558 0ef8 3E030000 		.4byte	.LFB37
 4559 0efc 98030000 		.4byte	.LFE37
 4560 0f00 02       		.byte	0x2
 4561 0f01 7D       		.byte	0x7d
 4562 0f02 00       		.sleb128 0
 4563 0f03 01       		.byte	0x1
ARM GAS  C:\Users\skey\AppData\Local\Temp\ccv9NfrL.s 			page 110


 4564 0f04 480F0000 		.4byte	0xf48
 4565 0f08 1C       		.uleb128 0x1c
 4566 0f09 3E060000 		.4byte	.LASF77
 4567 0f0d 01       		.byte	0x1
 4568 0f0e 4D02     		.2byte	0x24d
 4569 0f10 29       		.byte	0x29
 4570 0f11 D3060000 		.4byte	0x6d3
 4571 0f15 1B090000 		.4byte	.LLST10
 4572 0f19 0D090000 		.4byte	.LVUS10
 4573 0f1d 1C       		.uleb128 0x1c
 4574 0f1e 6D060000 		.4byte	.LASF112
 4575 0f22 01       		.byte	0x1
 4576 0f23 4D02     		.2byte	0x24d
 4577 0f25 37       		.byte	0x37
 4578 0f26 94000000 		.4byte	0x94
 4579 0f2a 85090000 		.4byte	.LLST11
 4580 0f2e 79090000 		.4byte	.LVUS11
 4581 0f32 1D       		.uleb128 0x1d
 4582 0f33 37020000 		.4byte	.LASF113
 4583 0f37 01       		.byte	0x1
 4584 0f38 4F02     		.2byte	0x24f
 4585 0f3a 0C       		.byte	0xc
 4586 0f3b AC000000 		.4byte	0xac
 4587 0f3f E6090000 		.4byte	.LLST12
 4588 0f43 D8090000 		.4byte	.LVUS12
 4589 0f47 00       		.byte	0
 4590 0f48 25       		.uleb128 0x25
 4591 0f49 01       		.byte	0x1
 4592 0f4a A7030000 		.4byte	.LASF114
 4593 0f4e 01       		.byte	0x1
 4594 0f4f 0302     		.2byte	0x203
 4595 0f51 09       		.byte	0x9
 4596 0f52 01       		.byte	0x1
 4597 0f53 94000000 		.4byte	0x94
 4598 0f57 A2020000 		.4byte	.LFB36
 4599 0f5b 3E030000 		.4byte	.LFE36
 4600 0f5f 3E0A0000 		.4byte	.LLST7
 4601 0f63 01       		.byte	0x1
 4602 0f64 A20F0000 		.4byte	0xfa2
 4603 0f68 1C       		.uleb128 0x1c
 4604 0f69 3E060000 		.4byte	.LASF77
 4605 0f6d 01       		.byte	0x1
 4606 0f6e 0302     		.2byte	0x203
 4607 0f70 23       		.byte	0x23
 4608 0f71 D3060000 		.4byte	0x6d3
 4609 0f75 660A0000 		.4byte	.LLST8
 4610 0f79 5E0A0000 		.4byte	.LVUS8
 4611 0f7d 19       		.uleb128 0x19
 4612 0f7e E6020000 		.4byte	.LASF115
 4613 0f82 01       		.byte	0x1
 4614 0f83 0302     		.2byte	0x203
 4615 0f85 33       		.byte	0x33
 4616 0f86 A20F0000 		.4byte	0xfa2
 4617 0f8a 01       		.byte	0x1
 4618 0f8b 51       		.byte	0x51
 4619 0f8c 1D       		.uleb128 0x1d
 4620 0f8d B3060000 		.4byte	.LASF116
ARM GAS  C:\Users\skey\AppData\Local\Temp\ccv9NfrL.s 			page 111


 4621 0f91 01       		.byte	0x1
 4622 0f92 0502     		.2byte	0x205
 4623 0f94 0B       		.byte	0xb
 4624 0f95 94000000 		.4byte	0x94
 4625 0f99 A30A0000 		.4byte	.LLST9
 4626 0f9d 9D0A0000 		.4byte	.LVUS9
 4627 0fa1 00       		.byte	0
 4628 0fa2 1A       		.uleb128 0x1a
 4629 0fa3 04       		.byte	0x4
 4630 0fa4 D3050000 		.4byte	0x5d3
 4631 0fa8 18       		.uleb128 0x18
 4632 0fa9 01       		.byte	0x1
 4633 0faa AC000000 		.4byte	.LASF117
 4634 0fae 01       		.byte	0x1
 4635 0faf E101     		.2byte	0x1e1
 4636 0fb1 06       		.byte	0x6
 4637 0fb2 01       		.byte	0x1
 4638 0fb3 4A020000 		.4byte	.LFB35
 4639 0fb7 A2020000 		.4byte	.LFE35
 4640 0fbb 02       		.byte	0x2
 4641 0fbc 7D       		.byte	0x7d
 4642 0fbd 00       		.sleb128 0
 4643 0fbe 01       		.byte	0x1
 4644 0fbf E20F0000 		.4byte	0xfe2
 4645 0fc3 19       		.uleb128 0x19
 4646 0fc4 3E060000 		.4byte	.LASF77
 4647 0fc8 01       		.byte	0x1
 4648 0fc9 E101     		.2byte	0x1e1
 4649 0fcb 24       		.byte	0x24
 4650 0fcc D3060000 		.4byte	0x6d3
 4651 0fd0 01       		.byte	0x1
 4652 0fd1 50       		.byte	0x50
 4653 0fd2 19       		.uleb128 0x19
 4654 0fd3 86020000 		.4byte	.LASF88
 4655 0fd7 01       		.byte	0x1
 4656 0fd8 E101     		.2byte	0x1e1
 4657 0fda 3A       		.byte	0x3a
 4658 0fdb 2C010000 		.4byte	0x12c
 4659 0fdf 01       		.byte	0x1
 4660 0fe0 51       		.byte	0x51
 4661 0fe1 00       		.byte	0
 4662 0fe2 18       		.uleb128 0x18
 4663 0fe3 01       		.byte	0x1
 4664 0fe4 A1050000 		.4byte	.LASF118
 4665 0fe8 01       		.byte	0x1
 4666 0fe9 C301     		.2byte	0x1c3
 4667 0feb 06       		.byte	0x6
 4668 0fec 01       		.byte	0x1
 4669 0fed 38020000 		.4byte	.LFB34
 4670 0ff1 4A020000 		.4byte	.LFE34
 4671 0ff5 02       		.byte	0x2
 4672 0ff6 7D       		.byte	0x7d
 4673 0ff7 00       		.sleb128 0
 4674 0ff8 01       		.byte	0x1
 4675 0ff9 1C100000 		.4byte	0x101c
 4676 0ffd 19       		.uleb128 0x19
 4677 0ffe 3E060000 		.4byte	.LASF77
ARM GAS  C:\Users\skey\AppData\Local\Temp\ccv9NfrL.s 			page 112


 4678 1002 01       		.byte	0x1
 4679 1003 C301     		.2byte	0x1c3
 4680 1005 21       		.byte	0x21
 4681 1006 D3060000 		.4byte	0x6d3
 4682 100a 01       		.byte	0x1
 4683 100b 50       		.byte	0x50
 4684 100c 19       		.uleb128 0x19
 4685 100d 86020000 		.4byte	.LASF88
 4686 1011 01       		.byte	0x1
 4687 1012 C301     		.2byte	0x1c3
 4688 1014 37       		.byte	0x37
 4689 1015 2C010000 		.4byte	0x12c
 4690 1019 01       		.byte	0x1
 4691 101a 51       		.byte	0x51
 4692 101b 00       		.byte	0
 4693 101c 18       		.uleb128 0x18
 4694 101d 01       		.byte	0x1
 4695 101e 03030000 		.4byte	.LASF119
 4696 1022 01       		.byte	0x1
 4697 1023 AC01     		.2byte	0x1ac
 4698 1025 06       		.byte	0x6
 4699 1026 01       		.byte	0x1
 4700 1027 FA010000 		.4byte	.LFB33
 4701 102b 38020000 		.4byte	.LFE33
 4702 102f 02       		.byte	0x2
 4703 1030 7D       		.byte	0x7d
 4704 1031 00       		.sleb128 0
 4705 1032 01       		.byte	0x1
 4706 1033 47100000 		.4byte	0x1047
 4707 1037 19       		.uleb128 0x19
 4708 1038 D5010000 		.4byte	.LASF120
 4709 103c 01       		.byte	0x1
 4710 103d AC01     		.2byte	0x1ac
 4711 103f 21       		.byte	0x21
 4712 1040 94000000 		.4byte	0x94
 4713 1044 01       		.byte	0x1
 4714 1045 50       		.byte	0x50
 4715 1046 00       		.byte	0
 4716 1047 18       		.uleb128 0x18
 4717 1048 01       		.byte	0x1
 4718 1049 41000000 		.4byte	.LASF121
 4719 104d 01       		.byte	0x1
 4720 104e 8001     		.2byte	0x180
 4721 1050 06       		.byte	0x6
 4722 1051 01       		.byte	0x1
 4723 1052 E4010000 		.4byte	.LFB32
 4724 1056 FA010000 		.4byte	.LFE32
 4725 105a 02       		.byte	0x2
 4726 105b 7D       		.byte	0x7d
 4727 105c 00       		.sleb128 0
 4728 105d 01       		.byte	0x1
 4729 105e 72100000 		.4byte	0x1072
 4730 1062 19       		.uleb128 0x19
 4731 1063 BC020000 		.4byte	.LASF122
 4732 1067 01       		.byte	0x1
 4733 1068 8001     		.2byte	0x180
 4734 106a 26       		.byte	0x26
ARM GAS  C:\Users\skey\AppData\Local\Temp\ccv9NfrL.s 			page 113


 4735 106b 72100000 		.4byte	0x1072
 4736 106f 01       		.byte	0x1
 4737 1070 50       		.byte	0x50
 4738 1071 00       		.byte	0
 4739 1072 1A       		.uleb128 0x1a
 4740 1073 04       		.byte	0x4
 4741 1074 B6040000 		.4byte	0x4b6
 4742 1078 24       		.uleb128 0x24
 4743 1079 01       		.byte	0x1
 4744 107a 60070000 		.4byte	.LASF123
 4745 107e 01       		.byte	0x1
 4746 107f 2401     		.2byte	0x124
 4747 1081 06       		.byte	0x6
 4748 1082 01       		.byte	0x1
 4749 1083 08010000 		.4byte	.LFB31
 4750 1087 E4010000 		.4byte	.LFE31
 4751 108b CF0A0000 		.4byte	.LLST5
 4752 108f 01       		.byte	0x1
 4753 1090 B9100000 		.4byte	0x10b9
 4754 1094 19       		.uleb128 0x19
 4755 1095 87000000 		.4byte	.LASF124
 4756 1099 01       		.byte	0x1
 4757 109a 2401     		.2byte	0x124
 4758 109c 2C       		.byte	0x2c
 4759 109d B9100000 		.4byte	0x10b9
 4760 10a1 01       		.byte	0x1
 4761 10a2 50       		.byte	0x50
 4762 10a3 1D       		.uleb128 0x1d
 4763 10a4 35070000 		.4byte	.LASF125
 4764 10a8 01       		.byte	0x1
 4765 10a9 2601     		.2byte	0x126
 4766 10ab 0C       		.byte	0xc
 4767 10ac AC000000 		.4byte	0xac
 4768 10b0 F50A0000 		.4byte	.LLST6
 4769 10b4 EF0A0000 		.4byte	.LVUS6
 4770 10b8 00       		.byte	0
 4771 10b9 1A       		.uleb128 0x1a
 4772 10ba 04       		.byte	0x4
 4773 10bb 53050000 		.4byte	0x553
 4774 10bf 26       		.uleb128 0x26
 4775 10c0 01       		.byte	0x1
 4776 10c1 C5030000 		.4byte	.LASF126
 4777 10c5 01       		.byte	0x1
 4778 10c6 9A       		.byte	0x9a
 4779 10c7 09       		.byte	0x9
 4780 10c8 01       		.byte	0x1
 4781 10c9 94000000 		.4byte	0x94
 4782 10cd 34000000 		.4byte	.LFB30
 4783 10d1 08010000 		.4byte	.LFE30
 4784 10d5 02       		.byte	0x2
 4785 10d6 7D       		.byte	0x7d
 4786 10d7 00       		.sleb128 0
 4787 10d8 01       		.byte	0x1
 4788 10d9 28110000 		.4byte	0x1128
 4789 10dd 27       		.uleb128 0x27
 4790 10de 3E060000 		.4byte	.LASF77
 4791 10e2 01       		.byte	0x1
ARM GAS  C:\Users\skey\AppData\Local\Temp\ccv9NfrL.s 			page 114


 4792 10e3 9A       		.byte	0x9a
 4793 10e4 1F       		.byte	0x1f
 4794 10e5 D3060000 		.4byte	0x6d3
 4795 10e9 270B0000 		.4byte	.LLST2
 4796 10ed 1F0B0000 		.4byte	.LVUS2
 4797 10f1 28       		.uleb128 0x28
 4798 10f2 BC020000 		.4byte	.LASF122
 4799 10f6 01       		.byte	0x1
 4800 10f7 9A       		.byte	0x9a
 4801 10f8 36       		.byte	0x36
 4802 10f9 72100000 		.4byte	0x1072
 4803 10fd 01       		.byte	0x1
 4804 10fe 51       		.byte	0x51
 4805 10ff 29       		.uleb128 0x29
 4806 1100 67020000 		.4byte	.LASF127
 4807 1104 01       		.byte	0x1
 4808 1105 9C       		.byte	0x9c
 4809 1106 0B       		.byte	0xb
 4810 1107 94000000 		.4byte	0x94
 4811 110b 650B0000 		.4byte	.LLST3
 4812 110f 610B0000 		.4byte	.LVUS3
 4813 1113 29       		.uleb128 0x29
 4814 1114 78070000 		.4byte	.LASF128
 4815 1118 01       		.byte	0x1
 4816 1119 9D       		.byte	0x9d
 4817 111a 0C       		.byte	0xc
 4818 111b AC000000 		.4byte	0xac
 4819 111f 900B0000 		.4byte	.LLST4
 4820 1123 840B0000 		.4byte	.LVUS4
 4821 1127 00       		.byte	0
 4822 1128 2A       		.uleb128 0x2a
 4823 1129 01       		.byte	0x1
 4824 112a 00000000 		.4byte	.LASF129
 4825 112e 01       		.byte	0x1
 4826 112f 7A       		.byte	0x7a
 4827 1130 06       		.byte	0x6
 4828 1131 01       		.byte	0x1
 4829 1132 00000000 		.4byte	.LFB29
 4830 1136 34000000 		.4byte	.LFE29
 4831 113a F40B0000 		.4byte	.LLST0
 4832 113e 01       		.byte	0x1
 4833 113f 8D110000 		.4byte	0x118d
 4834 1143 27       		.uleb128 0x27
 4835 1144 3E060000 		.4byte	.LASF77
 4836 1148 01       		.byte	0x1
 4837 1149 7A       		.byte	0x7a
 4838 114a 1E       		.byte	0x1e
 4839 114b D3060000 		.4byte	0x6d3
 4840 114f 340C0000 		.4byte	.LLST1
 4841 1153 2C0C0000 		.4byte	.LVUS1
 4842 1157 2B       		.uleb128 0x2b
 4843 1158 12000000 		.4byte	.LVL2
 4844 115c 8D110000 		.4byte	0x118d
 4845 1160 71110000 		.4byte	0x1171
 4846 1164 2C       		.uleb128 0x2c
 4847 1165 01       		.byte	0x1
 4848 1166 50       		.byte	0x50
ARM GAS  C:\Users\skey\AppData\Local\Temp\ccv9NfrL.s 			page 115


 4849 1167 03       		.byte	0x3
 4850 1168 40       		.byte	0x40
 4851 1169 45       		.byte	0x45
 4852 116a 24       		.byte	0x24
 4853 116b 2C       		.uleb128 0x2c
 4854 116c 01       		.byte	0x1
 4855 116d 51       		.byte	0x51
 4856 116e 01       		.byte	0x1
 4857 116f 31       		.byte	0x31
 4858 1170 00       		.byte	0
 4859 1171 2D       		.uleb128 0x2d
 4860 1172 20000000 		.4byte	.LVL3
 4861 1176 01       		.byte	0x1
 4862 1177 8D110000 		.4byte	0x118d
 4863 117b 2E       		.uleb128 0x2e
 4864 117c 28000000 		.4byte	.LVL5
 4865 1180 8D110000 		.4byte	0x118d
 4866 1184 2C       		.uleb128 0x2c
 4867 1185 01       		.byte	0x1
 4868 1186 50       		.byte	0x50
 4869 1187 03       		.byte	0x3
 4870 1188 40       		.byte	0x40
 4871 1189 46       		.byte	0x46
 4872 118a 24       		.byte	0x24
 4873 118b 00       		.byte	0
 4874 118c 00       		.byte	0
 4875 118d 2F       		.uleb128 0x2f
 4876 118e 01       		.byte	0x1
 4877 118f 01       		.byte	0x1
 4878 1190 5C000000 		.4byte	.LASF135
 4879 1194 5C000000 		.4byte	.LASF135
 4880 1198 08       		.byte	0x8
 4881 1199 BD02     		.2byte	0x2bd
 4882 119b 06       		.byte	0x6
 4883 119c 00       		.byte	0
 4884              		.section	.debug_abbrev,"",%progbits
 4885              	.Ldebug_abbrev0:
 4886 0000 01       		.uleb128 0x1
 4887 0001 11       		.uleb128 0x11
 4888 0002 01       		.byte	0x1
 4889 0003 25       		.uleb128 0x25
 4890 0004 0E       		.uleb128 0xe
 4891 0005 13       		.uleb128 0x13
 4892 0006 0B       		.uleb128 0xb
 4893 0007 03       		.uleb128 0x3
 4894 0008 0E       		.uleb128 0xe
 4895 0009 1B       		.uleb128 0x1b
 4896 000a 0E       		.uleb128 0xe
 4897 000b 11       		.uleb128 0x11
 4898 000c 01       		.uleb128 0x1
 4899 000d 12       		.uleb128 0x12
 4900 000e 01       		.uleb128 0x1
 4901 000f 10       		.uleb128 0x10
 4902 0010 06       		.uleb128 0x6
 4903 0011 00       		.byte	0
 4904 0012 00       		.byte	0
 4905 0013 02       		.uleb128 0x2
ARM GAS  C:\Users\skey\AppData\Local\Temp\ccv9NfrL.s 			page 116


 4906 0014 24       		.uleb128 0x24
 4907 0015 00       		.byte	0
 4908 0016 0B       		.uleb128 0xb
 4909 0017 0B       		.uleb128 0xb
 4910 0018 3E       		.uleb128 0x3e
 4911 0019 0B       		.uleb128 0xb
 4912 001a 03       		.uleb128 0x3
 4913 001b 0E       		.uleb128 0xe
 4914 001c 00       		.byte	0
 4915 001d 00       		.byte	0
 4916 001e 03       		.uleb128 0x3
 4917 001f 16       		.uleb128 0x16
 4918 0020 00       		.byte	0
 4919 0021 03       		.uleb128 0x3
 4920 0022 0E       		.uleb128 0xe
 4921 0023 3A       		.uleb128 0x3a
 4922 0024 0B       		.uleb128 0xb
 4923 0025 3B       		.uleb128 0x3b
 4924 0026 0B       		.uleb128 0xb
 4925 0027 39       		.uleb128 0x39
 4926 0028 0B       		.uleb128 0xb
 4927 0029 49       		.uleb128 0x49
 4928 002a 13       		.uleb128 0x13
 4929 002b 00       		.byte	0
 4930 002c 00       		.byte	0
 4931 002d 04       		.uleb128 0x4
 4932 002e 24       		.uleb128 0x24
 4933 002f 00       		.byte	0
 4934 0030 0B       		.uleb128 0xb
 4935 0031 0B       		.uleb128 0xb
 4936 0032 3E       		.uleb128 0x3e
 4937 0033 0B       		.uleb128 0xb
 4938 0034 03       		.uleb128 0x3
 4939 0035 08       		.uleb128 0x8
 4940 0036 00       		.byte	0
 4941 0037 00       		.byte	0
 4942 0038 05       		.uleb128 0x5
 4943 0039 35       		.uleb128 0x35
 4944 003a 00       		.byte	0
 4945 003b 49       		.uleb128 0x49
 4946 003c 13       		.uleb128 0x13
 4947 003d 00       		.byte	0
 4948 003e 00       		.byte	0
 4949 003f 06       		.uleb128 0x6
 4950 0040 34       		.uleb128 0x34
 4951 0041 00       		.byte	0
 4952 0042 03       		.uleb128 0x3
 4953 0043 0E       		.uleb128 0xe
 4954 0044 3A       		.uleb128 0x3a
 4955 0045 0B       		.uleb128 0xb
 4956 0046 3B       		.uleb128 0x3b
 4957 0047 05       		.uleb128 0x5
 4958 0048 39       		.uleb128 0x39
 4959 0049 0B       		.uleb128 0xb
 4960 004a 49       		.uleb128 0x49
 4961 004b 13       		.uleb128 0x13
 4962 004c 3F       		.uleb128 0x3f
ARM GAS  C:\Users\skey\AppData\Local\Temp\ccv9NfrL.s 			page 117


 4963 004d 0C       		.uleb128 0xc
 4964 004e 3C       		.uleb128 0x3c
 4965 004f 0C       		.uleb128 0xc
 4966 0050 00       		.byte	0
 4967 0051 00       		.byte	0
 4968 0052 07       		.uleb128 0x7
 4969 0053 34       		.uleb128 0x34
 4970 0054 00       		.byte	0
 4971 0055 03       		.uleb128 0x3
 4972 0056 0E       		.uleb128 0xe
 4973 0057 3A       		.uleb128 0x3a
 4974 0058 0B       		.uleb128 0xb
 4975 0059 3B       		.uleb128 0x3b
 4976 005a 0B       		.uleb128 0xb
 4977 005b 39       		.uleb128 0x39
 4978 005c 0B       		.uleb128 0xb
 4979 005d 49       		.uleb128 0x49
 4980 005e 13       		.uleb128 0x13
 4981 005f 3F       		.uleb128 0x3f
 4982 0060 0C       		.uleb128 0xc
 4983 0061 3C       		.uleb128 0x3c
 4984 0062 0C       		.uleb128 0xc
 4985 0063 00       		.byte	0
 4986 0064 00       		.byte	0
 4987 0065 08       		.uleb128 0x8
 4988 0066 04       		.uleb128 0x4
 4989 0067 01       		.byte	0x1
 4990 0068 3E       		.uleb128 0x3e
 4991 0069 0B       		.uleb128 0xb
 4992 006a 0B       		.uleb128 0xb
 4993 006b 0B       		.uleb128 0xb
 4994 006c 49       		.uleb128 0x49
 4995 006d 13       		.uleb128 0x13
 4996 006e 3A       		.uleb128 0x3a
 4997 006f 0B       		.uleb128 0xb
 4998 0070 3B       		.uleb128 0x3b
 4999 0071 05       		.uleb128 0x5
 5000 0072 39       		.uleb128 0x39
 5001 0073 0B       		.uleb128 0xb
 5002 0074 01       		.uleb128 0x1
 5003 0075 13       		.uleb128 0x13
 5004 0076 00       		.byte	0
 5005 0077 00       		.byte	0
 5006 0078 09       		.uleb128 0x9
 5007 0079 28       		.uleb128 0x28
 5008 007a 00       		.byte	0
 5009 007b 03       		.uleb128 0x3
 5010 007c 0E       		.uleb128 0xe
 5011 007d 1C       		.uleb128 0x1c
 5012 007e 0B       		.uleb128 0xb
 5013 007f 00       		.byte	0
 5014 0080 00       		.byte	0
 5015 0081 0A       		.uleb128 0xa
 5016 0082 28       		.uleb128 0x28
 5017 0083 00       		.byte	0
 5018 0084 03       		.uleb128 0x3
 5019 0085 08       		.uleb128 0x8
ARM GAS  C:\Users\skey\AppData\Local\Temp\ccv9NfrL.s 			page 118


 5020 0086 1C       		.uleb128 0x1c
 5021 0087 0B       		.uleb128 0xb
 5022 0088 00       		.byte	0
 5023 0089 00       		.byte	0
 5024 008a 0B       		.uleb128 0xb
 5025 008b 16       		.uleb128 0x16
 5026 008c 00       		.byte	0
 5027 008d 03       		.uleb128 0x3
 5028 008e 0E       		.uleb128 0xe
 5029 008f 3A       		.uleb128 0x3a
 5030 0090 0B       		.uleb128 0xb
 5031 0091 3B       		.uleb128 0x3b
 5032 0092 05       		.uleb128 0x5
 5033 0093 39       		.uleb128 0x39
 5034 0094 0B       		.uleb128 0xb
 5035 0095 49       		.uleb128 0x49
 5036 0096 13       		.uleb128 0x13
 5037 0097 00       		.byte	0
 5038 0098 00       		.byte	0
 5039 0099 0C       		.uleb128 0xc
 5040 009a 13       		.uleb128 0x13
 5041 009b 01       		.byte	0x1
 5042 009c 0B       		.uleb128 0xb
 5043 009d 0B       		.uleb128 0xb
 5044 009e 3A       		.uleb128 0x3a
 5045 009f 0B       		.uleb128 0xb
 5046 00a0 3B       		.uleb128 0x3b
 5047 00a1 05       		.uleb128 0x5
 5048 00a2 39       		.uleb128 0x39
 5049 00a3 0B       		.uleb128 0xb
 5050 00a4 01       		.uleb128 0x1
 5051 00a5 13       		.uleb128 0x13
 5052 00a6 00       		.byte	0
 5053 00a7 00       		.byte	0
 5054 00a8 0D       		.uleb128 0xd
 5055 00a9 0D       		.uleb128 0xd
 5056 00aa 00       		.byte	0
 5057 00ab 03       		.uleb128 0x3
 5058 00ac 08       		.uleb128 0x8
 5059 00ad 3A       		.uleb128 0x3a
 5060 00ae 0B       		.uleb128 0xb
 5061 00af 3B       		.uleb128 0x3b
 5062 00b0 05       		.uleb128 0x5
 5063 00b1 39       		.uleb128 0x39
 5064 00b2 0B       		.uleb128 0xb
 5065 00b3 49       		.uleb128 0x49
 5066 00b4 13       		.uleb128 0x13
 5067 00b5 38       		.uleb128 0x38
 5068 00b6 0A       		.uleb128 0xa
 5069 00b7 00       		.byte	0
 5070 00b8 00       		.byte	0
 5071 00b9 0E       		.uleb128 0xe
 5072 00ba 0D       		.uleb128 0xd
 5073 00bb 00       		.byte	0
 5074 00bc 03       		.uleb128 0x3
 5075 00bd 0E       		.uleb128 0xe
 5076 00be 3A       		.uleb128 0x3a
ARM GAS  C:\Users\skey\AppData\Local\Temp\ccv9NfrL.s 			page 119


 5077 00bf 0B       		.uleb128 0xb
 5078 00c0 3B       		.uleb128 0x3b
 5079 00c1 05       		.uleb128 0x5
 5080 00c2 39       		.uleb128 0x39
 5081 00c3 0B       		.uleb128 0xb
 5082 00c4 49       		.uleb128 0x49
 5083 00c5 13       		.uleb128 0x13
 5084 00c6 38       		.uleb128 0x38
 5085 00c7 0A       		.uleb128 0xa
 5086 00c8 00       		.byte	0
 5087 00c9 00       		.byte	0
 5088 00ca 0F       		.uleb128 0xf
 5089 00cb 13       		.uleb128 0x13
 5090 00cc 01       		.byte	0x1
 5091 00cd 0B       		.uleb128 0xb
 5092 00ce 05       		.uleb128 0x5
 5093 00cf 3A       		.uleb128 0x3a
 5094 00d0 0B       		.uleb128 0xb
 5095 00d1 3B       		.uleb128 0x3b
 5096 00d2 05       		.uleb128 0x5
 5097 00d3 39       		.uleb128 0x39
 5098 00d4 0B       		.uleb128 0xb
 5099 00d5 01       		.uleb128 0x1
 5100 00d6 13       		.uleb128 0x13
 5101 00d7 00       		.byte	0
 5102 00d8 00       		.byte	0
 5103 00d9 10       		.uleb128 0x10
 5104 00da 01       		.uleb128 0x1
 5105 00db 01       		.byte	0x1
 5106 00dc 49       		.uleb128 0x49
 5107 00dd 13       		.uleb128 0x13
 5108 00de 01       		.uleb128 0x1
 5109 00df 13       		.uleb128 0x13
 5110 00e0 00       		.byte	0
 5111 00e1 00       		.byte	0
 5112 00e2 11       		.uleb128 0x11
 5113 00e3 21       		.uleb128 0x21
 5114 00e4 00       		.byte	0
 5115 00e5 49       		.uleb128 0x49
 5116 00e6 13       		.uleb128 0x13
 5117 00e7 2F       		.uleb128 0x2f
 5118 00e8 0B       		.uleb128 0xb
 5119 00e9 00       		.byte	0
 5120 00ea 00       		.byte	0
 5121 00eb 12       		.uleb128 0x12
 5122 00ec 13       		.uleb128 0x13
 5123 00ed 01       		.byte	0x1
 5124 00ee 0B       		.uleb128 0xb
 5125 00ef 0B       		.uleb128 0xb
 5126 00f0 3A       		.uleb128 0x3a
 5127 00f1 0B       		.uleb128 0xb
 5128 00f2 3B       		.uleb128 0x3b
 5129 00f3 0B       		.uleb128 0xb
 5130 00f4 39       		.uleb128 0x39
 5131 00f5 0B       		.uleb128 0xb
 5132 00f6 01       		.uleb128 0x1
 5133 00f7 13       		.uleb128 0x13
ARM GAS  C:\Users\skey\AppData\Local\Temp\ccv9NfrL.s 			page 120


 5134 00f8 00       		.byte	0
 5135 00f9 00       		.byte	0
 5136 00fa 13       		.uleb128 0x13
 5137 00fb 0D       		.uleb128 0xd
 5138 00fc 00       		.byte	0
 5139 00fd 03       		.uleb128 0x3
 5140 00fe 0E       		.uleb128 0xe
 5141 00ff 3A       		.uleb128 0x3a
 5142 0100 0B       		.uleb128 0xb
 5143 0101 3B       		.uleb128 0x3b
 5144 0102 0B       		.uleb128 0xb
 5145 0103 39       		.uleb128 0x39
 5146 0104 0B       		.uleb128 0xb
 5147 0105 49       		.uleb128 0x49
 5148 0106 13       		.uleb128 0x13
 5149 0107 38       		.uleb128 0x38
 5150 0108 0A       		.uleb128 0xa
 5151 0109 00       		.byte	0
 5152 010a 00       		.byte	0
 5153 010b 14       		.uleb128 0x14
 5154 010c 0D       		.uleb128 0xd
 5155 010d 00       		.byte	0
 5156 010e 03       		.uleb128 0x3
 5157 010f 08       		.uleb128 0x8
 5158 0110 3A       		.uleb128 0x3a
 5159 0111 0B       		.uleb128 0xb
 5160 0112 3B       		.uleb128 0x3b
 5161 0113 0B       		.uleb128 0xb
 5162 0114 39       		.uleb128 0x39
 5163 0115 0B       		.uleb128 0xb
 5164 0116 49       		.uleb128 0x49
 5165 0117 13       		.uleb128 0x13
 5166 0118 38       		.uleb128 0x38
 5167 0119 0A       		.uleb128 0xa
 5168 011a 00       		.byte	0
 5169 011b 00       		.byte	0
 5170 011c 15       		.uleb128 0x15
 5171 011d 2E       		.uleb128 0x2e
 5172 011e 01       		.byte	0x1
 5173 011f 03       		.uleb128 0x3
 5174 0120 0E       		.uleb128 0xe
 5175 0121 3A       		.uleb128 0x3a
 5176 0122 0B       		.uleb128 0xb
 5177 0123 3B       		.uleb128 0x3b
 5178 0124 05       		.uleb128 0x5
 5179 0125 39       		.uleb128 0x39
 5180 0126 0B       		.uleb128 0xb
 5181 0127 27       		.uleb128 0x27
 5182 0128 0C       		.uleb128 0xc
 5183 0129 49       		.uleb128 0x49
 5184 012a 13       		.uleb128 0x13
 5185 012b 20       		.uleb128 0x20
 5186 012c 0B       		.uleb128 0xb
 5187 012d 01       		.uleb128 0x1
 5188 012e 13       		.uleb128 0x13
 5189 012f 00       		.byte	0
 5190 0130 00       		.byte	0
ARM GAS  C:\Users\skey\AppData\Local\Temp\ccv9NfrL.s 			page 121


 5191 0131 16       		.uleb128 0x16
 5192 0132 05       		.uleb128 0x5
 5193 0133 00       		.byte	0
 5194 0134 03       		.uleb128 0x3
 5195 0135 0E       		.uleb128 0xe
 5196 0136 3A       		.uleb128 0x3a
 5197 0137 0B       		.uleb128 0xb
 5198 0138 3B       		.uleb128 0x3b
 5199 0139 05       		.uleb128 0x5
 5200 013a 39       		.uleb128 0x39
 5201 013b 0B       		.uleb128 0xb
 5202 013c 49       		.uleb128 0x49
 5203 013d 13       		.uleb128 0x13
 5204 013e 00       		.byte	0
 5205 013f 00       		.byte	0
 5206 0140 17       		.uleb128 0x17
 5207 0141 34       		.uleb128 0x34
 5208 0142 00       		.byte	0
 5209 0143 03       		.uleb128 0x3
 5210 0144 0E       		.uleb128 0xe
 5211 0145 3A       		.uleb128 0x3a
 5212 0146 0B       		.uleb128 0xb
 5213 0147 3B       		.uleb128 0x3b
 5214 0148 05       		.uleb128 0x5
 5215 0149 39       		.uleb128 0x39
 5216 014a 0B       		.uleb128 0xb
 5217 014b 49       		.uleb128 0x49
 5218 014c 13       		.uleb128 0x13
 5219 014d 00       		.byte	0
 5220 014e 00       		.byte	0
 5221 014f 18       		.uleb128 0x18
 5222 0150 2E       		.uleb128 0x2e
 5223 0151 01       		.byte	0x1
 5224 0152 3F       		.uleb128 0x3f
 5225 0153 0C       		.uleb128 0xc
 5226 0154 03       		.uleb128 0x3
 5227 0155 0E       		.uleb128 0xe
 5228 0156 3A       		.uleb128 0x3a
 5229 0157 0B       		.uleb128 0xb
 5230 0158 3B       		.uleb128 0x3b
 5231 0159 05       		.uleb128 0x5
 5232 015a 39       		.uleb128 0x39
 5233 015b 0B       		.uleb128 0xb
 5234 015c 27       		.uleb128 0x27
 5235 015d 0C       		.uleb128 0xc
 5236 015e 11       		.uleb128 0x11
 5237 015f 01       		.uleb128 0x1
 5238 0160 12       		.uleb128 0x12
 5239 0161 01       		.uleb128 0x1
 5240 0162 40       		.uleb128 0x40
 5241 0163 0A       		.uleb128 0xa
 5242 0164 9742     		.uleb128 0x2117
 5243 0166 0C       		.uleb128 0xc
 5244 0167 01       		.uleb128 0x1
 5245 0168 13       		.uleb128 0x13
 5246 0169 00       		.byte	0
 5247 016a 00       		.byte	0
ARM GAS  C:\Users\skey\AppData\Local\Temp\ccv9NfrL.s 			page 122


 5248 016b 19       		.uleb128 0x19
 5249 016c 05       		.uleb128 0x5
 5250 016d 00       		.byte	0
 5251 016e 03       		.uleb128 0x3
 5252 016f 0E       		.uleb128 0xe
 5253 0170 3A       		.uleb128 0x3a
 5254 0171 0B       		.uleb128 0xb
 5255 0172 3B       		.uleb128 0x3b
 5256 0173 05       		.uleb128 0x5
 5257 0174 39       		.uleb128 0x39
 5258 0175 0B       		.uleb128 0xb
 5259 0176 49       		.uleb128 0x49
 5260 0177 13       		.uleb128 0x13
 5261 0178 02       		.uleb128 0x2
 5262 0179 0A       		.uleb128 0xa
 5263 017a 00       		.byte	0
 5264 017b 00       		.byte	0
 5265 017c 1A       		.uleb128 0x1a
 5266 017d 0F       		.uleb128 0xf
 5267 017e 00       		.byte	0
 5268 017f 0B       		.uleb128 0xb
 5269 0180 0B       		.uleb128 0xb
 5270 0181 49       		.uleb128 0x49
 5271 0182 13       		.uleb128 0x13
 5272 0183 00       		.byte	0
 5273 0184 00       		.byte	0
 5274 0185 1B       		.uleb128 0x1b
 5275 0186 2E       		.uleb128 0x2e
 5276 0187 01       		.byte	0x1
 5277 0188 3F       		.uleb128 0x3f
 5278 0189 0C       		.uleb128 0xc
 5279 018a 03       		.uleb128 0x3
 5280 018b 0E       		.uleb128 0xe
 5281 018c 3A       		.uleb128 0x3a
 5282 018d 0B       		.uleb128 0xb
 5283 018e 3B       		.uleb128 0x3b
 5284 018f 05       		.uleb128 0x5
 5285 0190 39       		.uleb128 0x39
 5286 0191 0B       		.uleb128 0xb
 5287 0192 27       		.uleb128 0x27
 5288 0193 0C       		.uleb128 0xc
 5289 0194 49       		.uleb128 0x49
 5290 0195 13       		.uleb128 0x13
 5291 0196 11       		.uleb128 0x11
 5292 0197 01       		.uleb128 0x1
 5293 0198 12       		.uleb128 0x12
 5294 0199 01       		.uleb128 0x1
 5295 019a 40       		.uleb128 0x40
 5296 019b 0A       		.uleb128 0xa
 5297 019c 9742     		.uleb128 0x2117
 5298 019e 0C       		.uleb128 0xc
 5299 019f 01       		.uleb128 0x1
 5300 01a0 13       		.uleb128 0x13
 5301 01a1 00       		.byte	0
 5302 01a2 00       		.byte	0
 5303 01a3 1C       		.uleb128 0x1c
 5304 01a4 05       		.uleb128 0x5
ARM GAS  C:\Users\skey\AppData\Local\Temp\ccv9NfrL.s 			page 123


 5305 01a5 00       		.byte	0
 5306 01a6 03       		.uleb128 0x3
 5307 01a7 0E       		.uleb128 0xe
 5308 01a8 3A       		.uleb128 0x3a
 5309 01a9 0B       		.uleb128 0xb
 5310 01aa 3B       		.uleb128 0x3b
 5311 01ab 05       		.uleb128 0x5
 5312 01ac 39       		.uleb128 0x39
 5313 01ad 0B       		.uleb128 0xb
 5314 01ae 49       		.uleb128 0x49
 5315 01af 13       		.uleb128 0x13
 5316 01b0 02       		.uleb128 0x2
 5317 01b1 06       		.uleb128 0x6
 5318 01b2 B742     		.uleb128 0x2137
 5319 01b4 06       		.uleb128 0x6
 5320 01b5 00       		.byte	0
 5321 01b6 00       		.byte	0
 5322 01b7 1D       		.uleb128 0x1d
 5323 01b8 34       		.uleb128 0x34
 5324 01b9 00       		.byte	0
 5325 01ba 03       		.uleb128 0x3
 5326 01bb 0E       		.uleb128 0xe
 5327 01bc 3A       		.uleb128 0x3a
 5328 01bd 0B       		.uleb128 0xb
 5329 01be 3B       		.uleb128 0x3b
 5330 01bf 05       		.uleb128 0x5
 5331 01c0 39       		.uleb128 0x39
 5332 01c1 0B       		.uleb128 0xb
 5333 01c2 49       		.uleb128 0x49
 5334 01c3 13       		.uleb128 0x13
 5335 01c4 02       		.uleb128 0x2
 5336 01c5 06       		.uleb128 0x6
 5337 01c6 B742     		.uleb128 0x2137
 5338 01c8 06       		.uleb128 0x6
 5339 01c9 00       		.byte	0
 5340 01ca 00       		.byte	0
 5341 01cb 1E       		.uleb128 0x1e
 5342 01cc 1D       		.uleb128 0x1d
 5343 01cd 01       		.byte	0x1
 5344 01ce 31       		.uleb128 0x31
 5345 01cf 13       		.uleb128 0x13
 5346 01d0 52       		.uleb128 0x52
 5347 01d1 01       		.uleb128 0x1
 5348 01d2 B842     		.uleb128 0x2138
 5349 01d4 0B       		.uleb128 0xb
 5350 01d5 55       		.uleb128 0x55
 5351 01d6 06       		.uleb128 0x6
 5352 01d7 58       		.uleb128 0x58
 5353 01d8 0B       		.uleb128 0xb
 5354 01d9 59       		.uleb128 0x59
 5355 01da 05       		.uleb128 0x5
 5356 01db 57       		.uleb128 0x57
 5357 01dc 0B       		.uleb128 0xb
 5358 01dd 01       		.uleb128 0x1
 5359 01de 13       		.uleb128 0x13
 5360 01df 00       		.byte	0
 5361 01e0 00       		.byte	0
ARM GAS  C:\Users\skey\AppData\Local\Temp\ccv9NfrL.s 			page 124


 5362 01e1 1F       		.uleb128 0x1f
 5363 01e2 05       		.uleb128 0x5
 5364 01e3 00       		.byte	0
 5365 01e4 31       		.uleb128 0x31
 5366 01e5 13       		.uleb128 0x13
 5367 01e6 02       		.uleb128 0x2
 5368 01e7 06       		.uleb128 0x6
 5369 01e8 B742     		.uleb128 0x2137
 5370 01ea 06       		.uleb128 0x6
 5371 01eb 00       		.byte	0
 5372 01ec 00       		.byte	0
 5373 01ed 20       		.uleb128 0x20
 5374 01ee 0B       		.uleb128 0xb
 5375 01ef 01       		.byte	0x1
 5376 01f0 55       		.uleb128 0x55
 5377 01f1 06       		.uleb128 0x6
 5378 01f2 00       		.byte	0
 5379 01f3 00       		.byte	0
 5380 01f4 21       		.uleb128 0x21
 5381 01f5 34       		.uleb128 0x34
 5382 01f6 00       		.byte	0
 5383 01f7 31       		.uleb128 0x31
 5384 01f8 13       		.uleb128 0x13
 5385 01f9 02       		.uleb128 0x2
 5386 01fa 06       		.uleb128 0x6
 5387 01fb B742     		.uleb128 0x2137
 5388 01fd 06       		.uleb128 0x6
 5389 01fe 00       		.byte	0
 5390 01ff 00       		.byte	0
 5391 0200 22       		.uleb128 0x22
 5392 0201 1D       		.uleb128 0x1d
 5393 0202 01       		.byte	0x1
 5394 0203 31       		.uleb128 0x31
 5395 0204 13       		.uleb128 0x13
 5396 0205 52       		.uleb128 0x52
 5397 0206 01       		.uleb128 0x1
 5398 0207 B842     		.uleb128 0x2138
 5399 0209 0B       		.uleb128 0xb
 5400 020a 11       		.uleb128 0x11
 5401 020b 01       		.uleb128 0x1
 5402 020c 12       		.uleb128 0x12
 5403 020d 01       		.uleb128 0x1
 5404 020e 58       		.uleb128 0x58
 5405 020f 0B       		.uleb128 0xb
 5406 0210 59       		.uleb128 0x59
 5407 0211 05       		.uleb128 0x5
 5408 0212 57       		.uleb128 0x57
 5409 0213 0B       		.uleb128 0xb
 5410 0214 01       		.uleb128 0x1
 5411 0215 13       		.uleb128 0x13
 5412 0216 00       		.byte	0
 5413 0217 00       		.byte	0
 5414 0218 23       		.uleb128 0x23
 5415 0219 1D       		.uleb128 0x1d
 5416 021a 01       		.byte	0x1
 5417 021b 31       		.uleb128 0x31
 5418 021c 13       		.uleb128 0x13
ARM GAS  C:\Users\skey\AppData\Local\Temp\ccv9NfrL.s 			page 125


 5419 021d 52       		.uleb128 0x52
 5420 021e 01       		.uleb128 0x1
 5421 021f B842     		.uleb128 0x2138
 5422 0221 0B       		.uleb128 0xb
 5423 0222 55       		.uleb128 0x55
 5424 0223 06       		.uleb128 0x6
 5425 0224 58       		.uleb128 0x58
 5426 0225 0B       		.uleb128 0xb
 5427 0226 59       		.uleb128 0x59
 5428 0227 05       		.uleb128 0x5
 5429 0228 57       		.uleb128 0x57
 5430 0229 0B       		.uleb128 0xb
 5431 022a 00       		.byte	0
 5432 022b 00       		.byte	0
 5433 022c 24       		.uleb128 0x24
 5434 022d 2E       		.uleb128 0x2e
 5435 022e 01       		.byte	0x1
 5436 022f 3F       		.uleb128 0x3f
 5437 0230 0C       		.uleb128 0xc
 5438 0231 03       		.uleb128 0x3
 5439 0232 0E       		.uleb128 0xe
 5440 0233 3A       		.uleb128 0x3a
 5441 0234 0B       		.uleb128 0xb
 5442 0235 3B       		.uleb128 0x3b
 5443 0236 05       		.uleb128 0x5
 5444 0237 39       		.uleb128 0x39
 5445 0238 0B       		.uleb128 0xb
 5446 0239 27       		.uleb128 0x27
 5447 023a 0C       		.uleb128 0xc
 5448 023b 11       		.uleb128 0x11
 5449 023c 01       		.uleb128 0x1
 5450 023d 12       		.uleb128 0x12
 5451 023e 01       		.uleb128 0x1
 5452 023f 40       		.uleb128 0x40
 5453 0240 06       		.uleb128 0x6
 5454 0241 9742     		.uleb128 0x2117
 5455 0243 0C       		.uleb128 0xc
 5456 0244 01       		.uleb128 0x1
 5457 0245 13       		.uleb128 0x13
 5458 0246 00       		.byte	0
 5459 0247 00       		.byte	0
 5460 0248 25       		.uleb128 0x25
 5461 0249 2E       		.uleb128 0x2e
 5462 024a 01       		.byte	0x1
 5463 024b 3F       		.uleb128 0x3f
 5464 024c 0C       		.uleb128 0xc
 5465 024d 03       		.uleb128 0x3
 5466 024e 0E       		.uleb128 0xe
 5467 024f 3A       		.uleb128 0x3a
 5468 0250 0B       		.uleb128 0xb
 5469 0251 3B       		.uleb128 0x3b
 5470 0252 05       		.uleb128 0x5
 5471 0253 39       		.uleb128 0x39
 5472 0254 0B       		.uleb128 0xb
 5473 0255 27       		.uleb128 0x27
 5474 0256 0C       		.uleb128 0xc
 5475 0257 49       		.uleb128 0x49
ARM GAS  C:\Users\skey\AppData\Local\Temp\ccv9NfrL.s 			page 126


 5476 0258 13       		.uleb128 0x13
 5477 0259 11       		.uleb128 0x11
 5478 025a 01       		.uleb128 0x1
 5479 025b 12       		.uleb128 0x12
 5480 025c 01       		.uleb128 0x1
 5481 025d 40       		.uleb128 0x40
 5482 025e 06       		.uleb128 0x6
 5483 025f 9742     		.uleb128 0x2117
 5484 0261 0C       		.uleb128 0xc
 5485 0262 01       		.uleb128 0x1
 5486 0263 13       		.uleb128 0x13
 5487 0264 00       		.byte	0
 5488 0265 00       		.byte	0
 5489 0266 26       		.uleb128 0x26
 5490 0267 2E       		.uleb128 0x2e
 5491 0268 01       		.byte	0x1
 5492 0269 3F       		.uleb128 0x3f
 5493 026a 0C       		.uleb128 0xc
 5494 026b 03       		.uleb128 0x3
 5495 026c 0E       		.uleb128 0xe
 5496 026d 3A       		.uleb128 0x3a
 5497 026e 0B       		.uleb128 0xb
 5498 026f 3B       		.uleb128 0x3b
 5499 0270 0B       		.uleb128 0xb
 5500 0271 39       		.uleb128 0x39
 5501 0272 0B       		.uleb128 0xb
 5502 0273 27       		.uleb128 0x27
 5503 0274 0C       		.uleb128 0xc
 5504 0275 49       		.uleb128 0x49
 5505 0276 13       		.uleb128 0x13
 5506 0277 11       		.uleb128 0x11
 5507 0278 01       		.uleb128 0x1
 5508 0279 12       		.uleb128 0x12
 5509 027a 01       		.uleb128 0x1
 5510 027b 40       		.uleb128 0x40
 5511 027c 0A       		.uleb128 0xa
 5512 027d 9742     		.uleb128 0x2117
 5513 027f 0C       		.uleb128 0xc
 5514 0280 01       		.uleb128 0x1
 5515 0281 13       		.uleb128 0x13
 5516 0282 00       		.byte	0
 5517 0283 00       		.byte	0
 5518 0284 27       		.uleb128 0x27
 5519 0285 05       		.uleb128 0x5
 5520 0286 00       		.byte	0
 5521 0287 03       		.uleb128 0x3
 5522 0288 0E       		.uleb128 0xe
 5523 0289 3A       		.uleb128 0x3a
 5524 028a 0B       		.uleb128 0xb
 5525 028b 3B       		.uleb128 0x3b
 5526 028c 0B       		.uleb128 0xb
 5527 028d 39       		.uleb128 0x39
 5528 028e 0B       		.uleb128 0xb
 5529 028f 49       		.uleb128 0x49
 5530 0290 13       		.uleb128 0x13
 5531 0291 02       		.uleb128 0x2
 5532 0292 06       		.uleb128 0x6
ARM GAS  C:\Users\skey\AppData\Local\Temp\ccv9NfrL.s 			page 127


 5533 0293 B742     		.uleb128 0x2137
 5534 0295 06       		.uleb128 0x6
 5535 0296 00       		.byte	0
 5536 0297 00       		.byte	0
 5537 0298 28       		.uleb128 0x28
 5538 0299 05       		.uleb128 0x5
 5539 029a 00       		.byte	0
 5540 029b 03       		.uleb128 0x3
 5541 029c 0E       		.uleb128 0xe
 5542 029d 3A       		.uleb128 0x3a
 5543 029e 0B       		.uleb128 0xb
 5544 029f 3B       		.uleb128 0x3b
 5545 02a0 0B       		.uleb128 0xb
 5546 02a1 39       		.uleb128 0x39
 5547 02a2 0B       		.uleb128 0xb
 5548 02a3 49       		.uleb128 0x49
 5549 02a4 13       		.uleb128 0x13
 5550 02a5 02       		.uleb128 0x2
 5551 02a6 0A       		.uleb128 0xa
 5552 02a7 00       		.byte	0
 5553 02a8 00       		.byte	0
 5554 02a9 29       		.uleb128 0x29
 5555 02aa 34       		.uleb128 0x34
 5556 02ab 00       		.byte	0
 5557 02ac 03       		.uleb128 0x3
 5558 02ad 0E       		.uleb128 0xe
 5559 02ae 3A       		.uleb128 0x3a
 5560 02af 0B       		.uleb128 0xb
 5561 02b0 3B       		.uleb128 0x3b
 5562 02b1 0B       		.uleb128 0xb
 5563 02b2 39       		.uleb128 0x39
 5564 02b3 0B       		.uleb128 0xb
 5565 02b4 49       		.uleb128 0x49
 5566 02b5 13       		.uleb128 0x13
 5567 02b6 02       		.uleb128 0x2
 5568 02b7 06       		.uleb128 0x6
 5569 02b8 B742     		.uleb128 0x2137
 5570 02ba 06       		.uleb128 0x6
 5571 02bb 00       		.byte	0
 5572 02bc 00       		.byte	0
 5573 02bd 2A       		.uleb128 0x2a
 5574 02be 2E       		.uleb128 0x2e
 5575 02bf 01       		.byte	0x1
 5576 02c0 3F       		.uleb128 0x3f
 5577 02c1 0C       		.uleb128 0xc
 5578 02c2 03       		.uleb128 0x3
 5579 02c3 0E       		.uleb128 0xe
 5580 02c4 3A       		.uleb128 0x3a
 5581 02c5 0B       		.uleb128 0xb
 5582 02c6 3B       		.uleb128 0x3b
 5583 02c7 0B       		.uleb128 0xb
 5584 02c8 39       		.uleb128 0x39
 5585 02c9 0B       		.uleb128 0xb
 5586 02ca 27       		.uleb128 0x27
 5587 02cb 0C       		.uleb128 0xc
 5588 02cc 11       		.uleb128 0x11
 5589 02cd 01       		.uleb128 0x1
ARM GAS  C:\Users\skey\AppData\Local\Temp\ccv9NfrL.s 			page 128


 5590 02ce 12       		.uleb128 0x12
 5591 02cf 01       		.uleb128 0x1
 5592 02d0 40       		.uleb128 0x40
 5593 02d1 06       		.uleb128 0x6
 5594 02d2 9742     		.uleb128 0x2117
 5595 02d4 0C       		.uleb128 0xc
 5596 02d5 01       		.uleb128 0x1
 5597 02d6 13       		.uleb128 0x13
 5598 02d7 00       		.byte	0
 5599 02d8 00       		.byte	0
 5600 02d9 2B       		.uleb128 0x2b
 5601 02da 898201   		.uleb128 0x4109
 5602 02dd 01       		.byte	0x1
 5603 02de 11       		.uleb128 0x11
 5604 02df 01       		.uleb128 0x1
 5605 02e0 31       		.uleb128 0x31
 5606 02e1 13       		.uleb128 0x13
 5607 02e2 01       		.uleb128 0x1
 5608 02e3 13       		.uleb128 0x13
 5609 02e4 00       		.byte	0
 5610 02e5 00       		.byte	0
 5611 02e6 2C       		.uleb128 0x2c
 5612 02e7 8A8201   		.uleb128 0x410a
 5613 02ea 00       		.byte	0
 5614 02eb 02       		.uleb128 0x2
 5615 02ec 0A       		.uleb128 0xa
 5616 02ed 9142     		.uleb128 0x2111
 5617 02ef 0A       		.uleb128 0xa
 5618 02f0 00       		.byte	0
 5619 02f1 00       		.byte	0
 5620 02f2 2D       		.uleb128 0x2d
 5621 02f3 898201   		.uleb128 0x4109
 5622 02f6 00       		.byte	0
 5623 02f7 11       		.uleb128 0x11
 5624 02f8 01       		.uleb128 0x1
 5625 02f9 9542     		.uleb128 0x2115
 5626 02fb 0C       		.uleb128 0xc
 5627 02fc 31       		.uleb128 0x31
 5628 02fd 13       		.uleb128 0x13
 5629 02fe 00       		.byte	0
 5630 02ff 00       		.byte	0
 5631 0300 2E       		.uleb128 0x2e
 5632 0301 898201   		.uleb128 0x4109
 5633 0304 01       		.byte	0x1
 5634 0305 11       		.uleb128 0x11
 5635 0306 01       		.uleb128 0x1
 5636 0307 31       		.uleb128 0x31
 5637 0308 13       		.uleb128 0x13
 5638 0309 00       		.byte	0
 5639 030a 00       		.byte	0
 5640 030b 2F       		.uleb128 0x2f
 5641 030c 2E       		.uleb128 0x2e
 5642 030d 00       		.byte	0
 5643 030e 3F       		.uleb128 0x3f
 5644 030f 0C       		.uleb128 0xc
 5645 0310 3C       		.uleb128 0x3c
 5646 0311 0C       		.uleb128 0xc
ARM GAS  C:\Users\skey\AppData\Local\Temp\ccv9NfrL.s 			page 129


 5647 0312 8740     		.uleb128 0x2007
 5648 0314 0E       		.uleb128 0xe
 5649 0315 03       		.uleb128 0x3
 5650 0316 0E       		.uleb128 0xe
 5651 0317 3A       		.uleb128 0x3a
 5652 0318 0B       		.uleb128 0xb
 5653 0319 3B       		.uleb128 0x3b
 5654 031a 05       		.uleb128 0x5
 5655 031b 39       		.uleb128 0x39
 5656 031c 0B       		.uleb128 0xb
 5657 031d 00       		.byte	0
 5658 031e 00       		.byte	0
 5659 031f 00       		.byte	0
 5660              		.section	.debug_loc,"",%progbits
 5661              	.Ldebug_loc0:
 5662              	.LVUS34:
 5663 0000 00       		.uleb128 0
 5664 0001 00       		.uleb128 .LVU649
 5665 0002 00       		.uleb128 .LVU649
 5666 0003 00       		.uleb128 0
 5667              	.LLST34:
 5668 0004 C8050000 		.4byte	.LVL104-.Ltext0
 5669 0008 CC050000 		.4byte	.LVL105-.Ltext0
 5670 000c 0100     		.2byte	0x1
 5671 000e 50       		.byte	0x50
 5672 000f CC050000 		.4byte	.LVL105-.Ltext0
 5673 0013 90060000 		.4byte	.LFE51-.Ltext0
 5674 0017 0100     		.2byte	0x1
 5675 0019 52       		.byte	0x52
 5676 001a 00000000 		.4byte	0
 5677 001e 00000000 		.4byte	0
 5678              	.LVUS35:
 5679 0022 00       		.uleb128 0
 5680 0023 00       		.uleb128 .LVU651
 5681 0024 00       		.uleb128 .LVU651
 5682 0025 00       		.uleb128 .LVU652
 5683 0026 00       		.uleb128 .LVU652
 5684 0027 00       		.uleb128 .LVU653
 5685 0028 00       		.uleb128 .LVU653
 5686 0029 00       		.uleb128 .LVU656
 5687 002a 00       		.uleb128 .LVU656
 5688 002b 00       		.uleb128 .LVU668
 5689 002c 00       		.uleb128 .LVU668
 5690 002d 03       		.uleb128 .LVU682
 5691 002e 03       		.uleb128 .LVU682
 5692 002f 00       		.uleb128 .LVU712
 5693 0030 00       		.uleb128 .LVU712
 5694 0031 00       		.uleb128 0
 5695              	.LLST35:
 5696 0032 C8050000 		.4byte	.LVL104-.Ltext0
 5697 0036 DE050000 		.4byte	.LVL106-.Ltext0
 5698 003a 0100     		.2byte	0x1
 5699 003c 51       		.byte	0x51
 5700 003d DE050000 		.4byte	.LVL106-.Ltext0
 5701 0041 EE050000 		.4byte	.LVL107-.Ltext0
 5702 0045 0300     		.2byte	0x3
 5703 0047 71       		.byte	0x71
ARM GAS  C:\Users\skey\AppData\Local\Temp\ccv9NfrL.s 			page 130


 5704 0048 01       		.sleb128 1
 5705 0049 9F       		.byte	0x9f
 5706 004a EE050000 		.4byte	.LVL107-.Ltext0
 5707 004e FA050000 		.4byte	.LVL108-.Ltext0
 5708 0052 0100     		.2byte	0x1
 5709 0054 51       		.byte	0x51
 5710 0055 FA050000 		.4byte	.LVL108-.Ltext0
 5711 0059 FE050000 		.4byte	.LVL110-.Ltext0
 5712 005d 0400     		.2byte	0x4
 5713 005f F3       		.byte	0xf3
 5714 0060 01       		.uleb128 0x1
 5715 0061 51       		.byte	0x51
 5716 0062 9F       		.byte	0x9f
 5717 0063 FE050000 		.4byte	.LVL110-.Ltext0
 5718 0067 30060000 		.4byte	.LVL114-.Ltext0
 5719 006b 0100     		.2byte	0x1
 5720 006d 51       		.byte	0x51
 5721 006e 30060000 		.4byte	.LVL114-.Ltext0
 5722 0072 44060000 		.4byte	.LVL118-.Ltext0
 5723 0076 0300     		.2byte	0x3
 5724 0078 71       		.byte	0x71
 5725 0079 01       		.sleb128 1
 5726 007a 9F       		.byte	0x9f
 5727 007b 44060000 		.4byte	.LVL118-.Ltext0
 5728 007f 5E060000 		.4byte	.LVL126-.Ltext0
 5729 0083 0400     		.2byte	0x4
 5730 0085 F3       		.byte	0xf3
 5731 0086 01       		.uleb128 0x1
 5732 0087 51       		.byte	0x51
 5733 0088 9F       		.byte	0x9f
 5734 0089 5E060000 		.4byte	.LVL126-.Ltext0
 5735 008d 90060000 		.4byte	.LFE51-.Ltext0
 5736 0091 0100     		.2byte	0x1
 5737 0093 51       		.byte	0x51
 5738 0094 00000000 		.4byte	0
 5739 0098 00000000 		.4byte	0
 5740              	.LVUS36:
 5741 009c 02       		.uleb128 .LVU644
 5742 009d 00       		.uleb128 .LVU654
 5743 009e 00       		.uleb128 .LVU654
 5744 009f 00       		.uleb128 .LVU656
 5745 00a0 00       		.uleb128 .LVU656
 5746 00a1 00       		.uleb128 0
 5747              	.LLST36:
 5748 00a2 C8050000 		.4byte	.LVL104-.Ltext0
 5749 00a6 FC050000 		.4byte	.LVL109-.Ltext0
 5750 00aa 0200     		.2byte	0x2
 5751 00ac 30       		.byte	0x30
 5752 00ad 9F       		.byte	0x9f
 5753 00ae FC050000 		.4byte	.LVL109-.Ltext0
 5754 00b2 FE050000 		.4byte	.LVL110-.Ltext0
 5755 00b6 0100     		.2byte	0x1
 5756 00b8 50       		.byte	0x50
 5757 00b9 FE050000 		.4byte	.LVL110-.Ltext0
 5758 00bd 90060000 		.4byte	.LFE51-.Ltext0
 5759 00c1 0200     		.2byte	0x2
 5760 00c3 30       		.byte	0x30
ARM GAS  C:\Users\skey\AppData\Local\Temp\ccv9NfrL.s 			page 131


 5761 00c4 9F       		.byte	0x9f
 5762 00c5 00000000 		.4byte	0
 5763 00c9 00000000 		.4byte	0
 5764              	.LVUS37:
 5765 00cd 00       		.uleb128 .LVU659
 5766 00ce 00       		.uleb128 .LVU664
 5767              	.LLST37:
 5768 00cf 1A060000 		.4byte	.LVL111-.Ltext0
 5769 00d3 20060000 		.4byte	.LVL113-.Ltext0
 5770 00d7 0200     		.2byte	0x2
 5771 00d9 32       		.byte	0x32
 5772 00da 9F       		.byte	0x9f
 5773 00db 00000000 		.4byte	0
 5774 00df 00000000 		.4byte	0
 5775              	.LVUS38:
 5776 00e3 00       		.uleb128 .LVU659
 5777 00e4 00       		.uleb128 .LVU663
 5778              	.LLST38:
 5779 00e5 1A060000 		.4byte	.LVL111-.Ltext0
 5780 00e9 1E060000 		.4byte	.LVL112-.Ltext0
 5781 00ed 0100     		.2byte	0x1
 5782 00ef 50       		.byte	0x50
 5783 00f0 00000000 		.4byte	0
 5784 00f4 00000000 		.4byte	0
 5785              	.LVUS39:
 5786 00f8 02       		.uleb128 .LVU661
 5787 00f9 00       		.uleb128 .LVU664
 5788              	.LLST39:
 5789 00fa 1A060000 		.4byte	.LVL111-.Ltext0
 5790 00fe 20060000 		.4byte	.LVL113-.Ltext0
 5791 0102 0200     		.2byte	0x2
 5792 0104 30       		.byte	0x30
 5793 0105 9F       		.byte	0x9f
 5794 0106 00000000 		.4byte	0
 5795 010a 00000000 		.4byte	0
 5796              	.LVUS40:
 5797 010e 00       		.uleb128 .LVU679
 5798 010f 03       		.uleb128 .LVU682
 5799              	.LLST40:
 5800 0110 44060000 		.4byte	.LVL118-.Ltext0
 5801 0114 44060000 		.4byte	.LVL118-.Ltext0
 5802 0118 0200     		.2byte	0x2
 5803 011a 33       		.byte	0x33
 5804 011b 9F       		.byte	0x9f
 5805 011c 00000000 		.4byte	0
 5806 0120 00000000 		.4byte	0
 5807              	.LVUS41:
 5808 0124 00       		.uleb128 .LVU679
 5809 0125 03       		.uleb128 .LVU682
 5810              	.LLST41:
 5811 0126 44060000 		.4byte	.LVL118-.Ltext0
 5812 012a 44060000 		.4byte	.LVL118-.Ltext0
 5813 012e 0100     		.2byte	0x1
 5814 0130 50       		.byte	0x50
 5815 0131 00000000 		.4byte	0
 5816 0135 00000000 		.4byte	0
 5817              	.LVUS42:
ARM GAS  C:\Users\skey\AppData\Local\Temp\ccv9NfrL.s 			page 132


 5818 0139 02       		.uleb128 .LVU681
 5819 013a 03       		.uleb128 .LVU682
 5820              	.LLST42:
 5821 013b 44060000 		.4byte	.LVL118-.Ltext0
 5822 013f 44060000 		.4byte	.LVL118-.Ltext0
 5823 0143 0200     		.2byte	0x2
 5824 0145 30       		.byte	0x30
 5825 0146 9F       		.byte	0x9f
 5826 0147 00000000 		.4byte	0
 5827 014b 00000000 		.4byte	0
 5828              	.LVUS43:
 5829 014f 00       		.uleb128 .LVU670
 5830 0150 00       		.uleb128 .LVU676
 5831              	.LLST43:
 5832 0151 32060000 		.4byte	.LVL115-.Ltext0
 5833 0155 42060000 		.4byte	.LVL117-.Ltext0
 5834 0159 0600     		.2byte	0x6
 5835 015b 0C       		.byte	0xc
 5836 015c 01010100 		.4byte	0x10101
 5837 0160 9F       		.byte	0x9f
 5838 0161 00000000 		.4byte	0
 5839 0165 00000000 		.4byte	0
 5840              	.LVUS44:
 5841 0169 00       		.uleb128 .LVU670
 5842 016a 00       		.uleb128 .LVU674
 5843              	.LLST44:
 5844 016b 32060000 		.4byte	.LVL115-.Ltext0
 5845 016f 36060000 		.4byte	.LVL116-.Ltext0
 5846 0173 0100     		.2byte	0x1
 5847 0175 50       		.byte	0x50
 5848 0176 00000000 		.4byte	0
 5849 017a 00000000 		.4byte	0
 5850              	.LVUS45:
 5851 017e 02       		.uleb128 .LVU672
 5852 017f 00       		.uleb128 .LVU676
 5853              	.LLST45:
 5854 0180 32060000 		.4byte	.LVL115-.Ltext0
 5855 0184 42060000 		.4byte	.LVL117-.Ltext0
 5856 0188 0200     		.2byte	0x2
 5857 018a 30       		.byte	0x30
 5858 018b 9F       		.byte	0x9f
 5859 018c 00000000 		.4byte	0
 5860 0190 00000000 		.4byte	0
 5861              	.LVUS46:
 5862 0194 00       		.uleb128 .LVU751
 5863 0195 00       		.uleb128 .LVU756
 5864              	.LLST46:
 5865 0196 80060000 		.4byte	.LVL137-.Ltext0
 5866 019a 8C060000 		.4byte	.LVL138-.Ltext0
 5867 019e 0300     		.2byte	0x3
 5868 01a0 08       		.byte	0x8
 5869 01a1 70       		.byte	0x70
 5870 01a2 9F       		.byte	0x9f
 5871 01a3 00000000 		.4byte	0
 5872 01a7 00000000 		.4byte	0
 5873              	.LVUS47:
 5874 01ab 00       		.uleb128 .LVU751
ARM GAS  C:\Users\skey\AppData\Local\Temp\ccv9NfrL.s 			page 133


 5875 01ac 00       		.uleb128 .LVU756
 5876              	.LLST47:
 5877 01ad 80060000 		.4byte	.LVL137-.Ltext0
 5878 01b1 8C060000 		.4byte	.LVL138-.Ltext0
 5879 01b5 0100     		.2byte	0x1
 5880 01b7 53       		.byte	0x53
 5881 01b8 00000000 		.4byte	0
 5882 01bc 00000000 		.4byte	0
 5883              	.LVUS48:
 5884 01c0 02       		.uleb128 .LVU753
 5885 01c1 00       		.uleb128 .LVU756
 5886              	.LLST48:
 5887 01c2 80060000 		.4byte	.LVL137-.Ltext0
 5888 01c6 8C060000 		.4byte	.LVL138-.Ltext0
 5889 01ca 0200     		.2byte	0x2
 5890 01cc 30       		.byte	0x30
 5891 01cd 9F       		.byte	0x9f
 5892 01ce 00000000 		.4byte	0
 5893 01d2 00000000 		.4byte	0
 5894              	.LVUS49:
 5895 01d6 03       		.uleb128 .LVU682
 5896 01d7 00       		.uleb128 .LVU688
 5897              	.LLST49:
 5898 01d8 44060000 		.4byte	.LVL118-.Ltext0
 5899 01dc 4E060000 		.4byte	.LVL120-.Ltext0
 5900 01e0 0200     		.2byte	0x2
 5901 01e2 33       		.byte	0x33
 5902 01e3 9F       		.byte	0x9f
 5903 01e4 00000000 		.4byte	0
 5904 01e8 00000000 		.4byte	0
 5905              	.LVUS50:
 5906 01ec 03       		.uleb128 .LVU682
 5907 01ed 00       		.uleb128 .LVU687
 5908              	.LLST50:
 5909 01ee 44060000 		.4byte	.LVL118-.Ltext0
 5910 01f2 48060000 		.4byte	.LVL119-.Ltext0
 5911 01f6 0100     		.2byte	0x1
 5912 01f8 50       		.byte	0x50
 5913 01f9 00000000 		.4byte	0
 5914 01fd 00000000 		.4byte	0
 5915              	.LVUS51:
 5916 0201 06       		.uleb128 .LVU685
 5917 0202 00       		.uleb128 .LVU688
 5918              	.LLST51:
 5919 0203 44060000 		.4byte	.LVL118-.Ltext0
 5920 0207 4E060000 		.4byte	.LVL120-.Ltext0
 5921 020b 0200     		.2byte	0x2
 5922 020d 30       		.byte	0x30
 5923 020e 9F       		.byte	0x9f
 5924 020f 00000000 		.4byte	0
 5925 0213 00000000 		.4byte	0
 5926              	.LVUS52:
 5927 0217 00       		.uleb128 .LVU691
 5928 0218 03       		.uleb128 .LVU694
 5929              	.LLST52:
 5930 0219 50060000 		.4byte	.LVL121-.Ltext0
 5931 021d 50060000 		.4byte	.LVL121-.Ltext0
ARM GAS  C:\Users\skey\AppData\Local\Temp\ccv9NfrL.s 			page 134


 5932 0221 0200     		.2byte	0x2
 5933 0223 38       		.byte	0x38
 5934 0224 9F       		.byte	0x9f
 5935 0225 00000000 		.4byte	0
 5936 0229 00000000 		.4byte	0
 5937              	.LVUS53:
 5938 022d 00       		.uleb128 .LVU691
 5939 022e 03       		.uleb128 .LVU694
 5940              	.LLST53:
 5941 022f 50060000 		.4byte	.LVL121-.Ltext0
 5942 0233 50060000 		.4byte	.LVL121-.Ltext0
 5943 0237 0100     		.2byte	0x1
 5944 0239 50       		.byte	0x50
 5945 023a 00000000 		.4byte	0
 5946 023e 00000000 		.4byte	0
 5947              	.LVUS54:
 5948 0242 02       		.uleb128 .LVU693
 5949 0243 03       		.uleb128 .LVU694
 5950              	.LLST54:
 5951 0244 50060000 		.4byte	.LVL121-.Ltext0
 5952 0248 50060000 		.4byte	.LVL121-.Ltext0
 5953 024c 0200     		.2byte	0x2
 5954 024e 30       		.byte	0x30
 5955 024f 9F       		.byte	0x9f
 5956 0250 00000000 		.4byte	0
 5957 0254 00000000 		.4byte	0
 5958              	.LVUS55:
 5959 0258 03       		.uleb128 .LVU694
 5960 0259 00       		.uleb128 .LVU700
 5961              	.LLST55:
 5962 025a 50060000 		.4byte	.LVL121-.Ltext0
 5963 025e 56060000 		.4byte	.LVL123-.Ltext0
 5964 0262 0200     		.2byte	0x2
 5965 0264 38       		.byte	0x38
 5966 0265 9F       		.byte	0x9f
 5967 0266 00000000 		.4byte	0
 5968 026a 00000000 		.4byte	0
 5969              	.LVUS56:
 5970 026e 03       		.uleb128 .LVU694
 5971 026f 00       		.uleb128 .LVU699
 5972              	.LLST56:
 5973 0270 50060000 		.4byte	.LVL121-.Ltext0
 5974 0274 54060000 		.4byte	.LVL122-.Ltext0
 5975 0278 0100     		.2byte	0x1
 5976 027a 50       		.byte	0x50
 5977 027b 00000000 		.4byte	0
 5978 027f 00000000 		.4byte	0
 5979              	.LVUS57:
 5980 0283 06       		.uleb128 .LVU697
 5981 0284 00       		.uleb128 .LVU700
 5982              	.LLST57:
 5983 0285 50060000 		.4byte	.LVL121-.Ltext0
 5984 0289 56060000 		.4byte	.LVL123-.Ltext0
 5985 028d 0200     		.2byte	0x2
 5986 028f 30       		.byte	0x30
 5987 0290 9F       		.byte	0x9f
 5988 0291 00000000 		.4byte	0
ARM GAS  C:\Users\skey\AppData\Local\Temp\ccv9NfrL.s 			page 135


 5989 0295 00000000 		.4byte	0
 5990              	.LVUS58:
 5991 0299 00       		.uleb128 .LVU703
 5992 029a 03       		.uleb128 .LVU706
 5993              	.LLST58:
 5994 029b 58060000 		.4byte	.LVL124-.Ltext0
 5995 029f 58060000 		.4byte	.LVL124-.Ltext0
 5996 02a3 0200     		.2byte	0x2
 5997 02a5 40       		.byte	0x40
 5998 02a6 9F       		.byte	0x9f
 5999 02a7 00000000 		.4byte	0
 6000 02ab 00000000 		.4byte	0
 6001              	.LVUS59:
 6002 02af 00       		.uleb128 .LVU703
 6003 02b0 03       		.uleb128 .LVU706
 6004              	.LLST59:
 6005 02b1 58060000 		.4byte	.LVL124-.Ltext0
 6006 02b5 58060000 		.4byte	.LVL124-.Ltext0
 6007 02b9 0100     		.2byte	0x1
 6008 02bb 50       		.byte	0x50
 6009 02bc 00000000 		.4byte	0
 6010 02c0 00000000 		.4byte	0
 6011              	.LVUS60:
 6012 02c4 02       		.uleb128 .LVU705
 6013 02c5 03       		.uleb128 .LVU706
 6014              	.LLST60:
 6015 02c6 58060000 		.4byte	.LVL124-.Ltext0
 6016 02ca 58060000 		.4byte	.LVL124-.Ltext0
 6017 02ce 0200     		.2byte	0x2
 6018 02d0 30       		.byte	0x30
 6019 02d1 9F       		.byte	0x9f
 6020 02d2 00000000 		.4byte	0
 6021 02d6 00000000 		.4byte	0
 6022              	.LVUS61:
 6023 02da 03       		.uleb128 .LVU706
 6024 02db 00       		.uleb128 .LVU712
 6025              	.LLST61:
 6026 02dc 58060000 		.4byte	.LVL124-.Ltext0
 6027 02e0 5E060000 		.4byte	.LVL126-.Ltext0
 6028 02e4 0200     		.2byte	0x2
 6029 02e6 40       		.byte	0x40
 6030 02e7 9F       		.byte	0x9f
 6031 02e8 00000000 		.4byte	0
 6032 02ec 00000000 		.4byte	0
 6033              	.LVUS62:
 6034 02f0 03       		.uleb128 .LVU706
 6035 02f1 00       		.uleb128 .LVU711
 6036              	.LLST62:
 6037 02f2 58060000 		.4byte	.LVL124-.Ltext0
 6038 02f6 5C060000 		.4byte	.LVL125-.Ltext0
 6039 02fa 0100     		.2byte	0x1
 6040 02fc 50       		.byte	0x50
 6041 02fd 00000000 		.4byte	0
 6042 0301 00000000 		.4byte	0
 6043              	.LVUS63:
 6044 0305 06       		.uleb128 .LVU709
 6045 0306 00       		.uleb128 .LVU712
ARM GAS  C:\Users\skey\AppData\Local\Temp\ccv9NfrL.s 			page 136


 6046              	.LLST63:
 6047 0307 58060000 		.4byte	.LVL124-.Ltext0
 6048 030b 5E060000 		.4byte	.LVL126-.Ltext0
 6049 030f 0200     		.2byte	0x2
 6050 0311 30       		.byte	0x30
 6051 0312 9F       		.byte	0x9f
 6052 0313 00000000 		.4byte	0
 6053 0317 00000000 		.4byte	0
 6054              	.LVUS64:
 6055 031b 00       		.uleb128 .LVU719
 6056 031c 00       		.uleb128 .LVU722
 6057              	.LLST64:
 6058 031d 68060000 		.4byte	.LVL127-.Ltext0
 6059 0321 6A060000 		.4byte	.LVL128-.Ltext0
 6060 0325 0200     		.2byte	0x2
 6061 0327 40       		.byte	0x40
 6062 0328 9F       		.byte	0x9f
 6063 0329 00000000 		.4byte	0
 6064 032d 00000000 		.4byte	0
 6065              	.LVUS65:
 6066 0331 00       		.uleb128 .LVU719
 6067 0332 00       		.uleb128 .LVU722
 6068              	.LLST65:
 6069 0333 68060000 		.4byte	.LVL127-.Ltext0
 6070 0337 6A060000 		.4byte	.LVL128-.Ltext0
 6071 033b 0100     		.2byte	0x1
 6072 033d 50       		.byte	0x50
 6073 033e 00000000 		.4byte	0
 6074 0342 00000000 		.4byte	0
 6075              	.LVUS66:
 6076 0346 02       		.uleb128 .LVU721
 6077 0347 00       		.uleb128 .LVU722
 6078              	.LLST66:
 6079 0348 68060000 		.4byte	.LVL127-.Ltext0
 6080 034c 6A060000 		.4byte	.LVL128-.Ltext0
 6081 0350 0200     		.2byte	0x2
 6082 0352 30       		.byte	0x30
 6083 0353 9F       		.byte	0x9f
 6084 0354 00000000 		.4byte	0
 6085 0358 00000000 		.4byte	0
 6086              	.LVUS67:
 6087 035c 00       		.uleb128 .LVU725
 6088 035d 00       		.uleb128 .LVU728
 6089              	.LLST67:
 6090 035e 6C060000 		.4byte	.LVL129-.Ltext0
 6091 0362 6E060000 		.4byte	.LVL130-.Ltext0
 6092 0366 0200     		.2byte	0x2
 6093 0368 38       		.byte	0x38
 6094 0369 9F       		.byte	0x9f
 6095 036a 00000000 		.4byte	0
 6096 036e 00000000 		.4byte	0
 6097              	.LVUS68:
 6098 0372 00       		.uleb128 .LVU725
 6099 0373 00       		.uleb128 .LVU728
 6100              	.LLST68:
 6101 0374 6C060000 		.4byte	.LVL129-.Ltext0
 6102 0378 6E060000 		.4byte	.LVL130-.Ltext0
ARM GAS  C:\Users\skey\AppData\Local\Temp\ccv9NfrL.s 			page 137


 6103 037c 0100     		.2byte	0x1
 6104 037e 50       		.byte	0x50
 6105 037f 00000000 		.4byte	0
 6106 0383 00000000 		.4byte	0
 6107              	.LVUS69:
 6108 0387 02       		.uleb128 .LVU727
 6109 0388 00       		.uleb128 .LVU728
 6110              	.LLST69:
 6111 0389 6C060000 		.4byte	.LVL129-.Ltext0
 6112 038d 6E060000 		.4byte	.LVL130-.Ltext0
 6113 0391 0200     		.2byte	0x2
 6114 0393 30       		.byte	0x30
 6115 0394 9F       		.byte	0x9f
 6116 0395 00000000 		.4byte	0
 6117 0399 00000000 		.4byte	0
 6118              	.LVUS70:
 6119 039d 00       		.uleb128 .LVU731
 6120 039e 00       		.uleb128 .LVU736
 6121              	.LLST70:
 6122 039f 70060000 		.4byte	.LVL131-.Ltext0
 6123 03a3 76060000 		.4byte	.LVL133-.Ltext0
 6124 03a7 0200     		.2byte	0x2
 6125 03a9 31       		.byte	0x31
 6126 03aa 9F       		.byte	0x9f
 6127 03ab 00000000 		.4byte	0
 6128 03af 00000000 		.4byte	0
 6129              	.LVUS71:
 6130 03b3 00       		.uleb128 .LVU731
 6131 03b4 00       		.uleb128 .LVU735
 6132              	.LLST71:
 6133 03b5 70060000 		.4byte	.LVL131-.Ltext0
 6134 03b9 74060000 		.4byte	.LVL132-.Ltext0
 6135 03bd 0100     		.2byte	0x1
 6136 03bf 50       		.byte	0x50
 6137 03c0 00000000 		.4byte	0
 6138 03c4 00000000 		.4byte	0
 6139              	.LVUS72:
 6140 03c8 02       		.uleb128 .LVU733
 6141 03c9 00       		.uleb128 .LVU736
 6142              	.LLST72:
 6143 03ca 70060000 		.4byte	.LVL131-.Ltext0
 6144 03ce 76060000 		.4byte	.LVL133-.Ltext0
 6145 03d2 0200     		.2byte	0x2
 6146 03d4 30       		.byte	0x30
 6147 03d5 9F       		.byte	0x9f
 6148 03d6 00000000 		.4byte	0
 6149 03da 00000000 		.4byte	0
 6150              	.LVUS73:
 6151 03de 00       		.uleb128 .LVU739
 6152 03df 03       		.uleb128 .LVU742
 6153              	.LLST73:
 6154 03e0 78060000 		.4byte	.LVL134-.Ltext0
 6155 03e4 78060000 		.4byte	.LVL134-.Ltext0
 6156 03e8 0200     		.2byte	0x2
 6157 03ea 34       		.byte	0x34
 6158 03eb 9F       		.byte	0x9f
 6159 03ec 00000000 		.4byte	0
ARM GAS  C:\Users\skey\AppData\Local\Temp\ccv9NfrL.s 			page 138


 6160 03f0 00000000 		.4byte	0
 6161              	.LVUS74:
 6162 03f4 00       		.uleb128 .LVU739
 6163 03f5 03       		.uleb128 .LVU742
 6164              	.LLST74:
 6165 03f6 78060000 		.4byte	.LVL134-.Ltext0
 6166 03fa 78060000 		.4byte	.LVL134-.Ltext0
 6167 03fe 0100     		.2byte	0x1
 6168 0400 50       		.byte	0x50
 6169 0401 00000000 		.4byte	0
 6170 0405 00000000 		.4byte	0
 6171              	.LVUS75:
 6172 0409 02       		.uleb128 .LVU741
 6173 040a 03       		.uleb128 .LVU742
 6174              	.LLST75:
 6175 040b 78060000 		.4byte	.LVL134-.Ltext0
 6176 040f 78060000 		.4byte	.LVL134-.Ltext0
 6177 0413 0200     		.2byte	0x2
 6178 0415 30       		.byte	0x30
 6179 0416 9F       		.byte	0x9f
 6180 0417 00000000 		.4byte	0
 6181 041b 00000000 		.4byte	0
 6182              	.LVUS76:
 6183 041f 03       		.uleb128 .LVU742
 6184 0420 00       		.uleb128 .LVU748
 6185              	.LLST76:
 6186 0421 78060000 		.4byte	.LVL134-.Ltext0
 6187 0425 7E060000 		.4byte	.LVL136-.Ltext0
 6188 0429 0200     		.2byte	0x2
 6189 042b 34       		.byte	0x34
 6190 042c 9F       		.byte	0x9f
 6191 042d 00000000 		.4byte	0
 6192 0431 00000000 		.4byte	0
 6193              	.LVUS77:
 6194 0435 03       		.uleb128 .LVU742
 6195 0436 00       		.uleb128 .LVU747
 6196              	.LLST77:
 6197 0437 78060000 		.4byte	.LVL134-.Ltext0
 6198 043b 7C060000 		.4byte	.LVL135-.Ltext0
 6199 043f 0100     		.2byte	0x1
 6200 0441 50       		.byte	0x50
 6201 0442 00000000 		.4byte	0
 6202 0446 00000000 		.4byte	0
 6203              	.LVUS78:
 6204 044a 06       		.uleb128 .LVU745
 6205 044b 00       		.uleb128 .LVU748
 6206              	.LLST78:
 6207 044c 78060000 		.4byte	.LVL134-.Ltext0
 6208 0450 7E060000 		.4byte	.LVL136-.Ltext0
 6209 0454 0200     		.2byte	0x2
 6210 0456 30       		.byte	0x30
 6211 0457 9F       		.byte	0x9f
 6212 0458 00000000 		.4byte	0
 6213 045c 00000000 		.4byte	0
 6214              	.LVUS33:
 6215 0460 02       		.uleb128 .LVU618
 6216 0461 00       		.uleb128 .LVU627
ARM GAS  C:\Users\skey\AppData\Local\Temp\ccv9NfrL.s 			page 139


 6217 0462 00       		.uleb128 .LVU627
 6218 0463 00       		.uleb128 0
 6219              	.LLST33:
 6220 0464 9A050000 		.4byte	.LVL102-.Ltext0
 6221 0468 AC050000 		.4byte	.LVL103-.Ltext0
 6222 046c 0200     		.2byte	0x2
 6223 046e 30       		.byte	0x30
 6224 046f 9F       		.byte	0x9f
 6225 0470 AC050000 		.4byte	.LVL103-.Ltext0
 6226 0474 C8050000 		.4byte	.LFE50-.Ltext0
 6227 0478 0100     		.2byte	0x1
 6228 047a 53       		.byte	0x53
 6229 047b 00000000 		.4byte	0
 6230 047f 00000000 		.4byte	0
 6231              	.LVUS31:
 6232 0483 00       		.uleb128 0
 6233 0484 00       		.uleb128 .LVU596
 6234 0485 00       		.uleb128 .LVU596
 6235 0486 00       		.uleb128 .LVU600
 6236 0487 00       		.uleb128 .LVU600
 6237 0488 00       		.uleb128 .LVU604
 6238 0489 00       		.uleb128 .LVU604
 6239 048a 00       		.uleb128 .LVU605
 6240 048b 00       		.uleb128 .LVU605
 6241 048c 00       		.uleb128 .LVU607
 6242 048d 00       		.uleb128 .LVU607
 6243 048e 00       		.uleb128 0
 6244              	.LLST31:
 6245 048f 68050000 		.4byte	.LVL95-.Ltext0
 6246 0493 72050000 		.4byte	.LVL96-.Ltext0
 6247 0497 0100     		.2byte	0x1
 6248 0499 50       		.byte	0x50
 6249 049a 72050000 		.4byte	.LVL96-.Ltext0
 6250 049e 80050000 		.4byte	.LVL98-.Ltext0
 6251 04a2 0100     		.2byte	0x1
 6252 04a4 53       		.byte	0x53
 6253 04a5 80050000 		.4byte	.LVL98-.Ltext0
 6254 04a9 86050000 		.4byte	.LVL99-.Ltext0
 6255 04ad 0100     		.2byte	0x1
 6256 04af 50       		.byte	0x50
 6257 04b0 86050000 		.4byte	.LVL99-.Ltext0
 6258 04b4 88050000 		.4byte	.LVL100-.Ltext0
 6259 04b8 0100     		.2byte	0x1
 6260 04ba 53       		.byte	0x53
 6261 04bb 88050000 		.4byte	.LVL100-.Ltext0
 6262 04bf 8A050000 		.4byte	.LVL101-.Ltext0
 6263 04c3 0100     		.2byte	0x1
 6264 04c5 50       		.byte	0x50
 6265 04c6 8A050000 		.4byte	.LVL101-.Ltext0
 6266 04ca 9A050000 		.4byte	.LFE49-.Ltext0
 6267 04ce 0100     		.2byte	0x1
 6268 04d0 53       		.byte	0x53
 6269 04d1 00000000 		.4byte	0
 6270 04d5 00000000 		.4byte	0
 6271              	.LVUS32:
 6272 04d9 02       		.uleb128 .LVU588
 6273 04da 00       		.uleb128 .LVU598
ARM GAS  C:\Users\skey\AppData\Local\Temp\ccv9NfrL.s 			page 140


 6274 04db 00       		.uleb128 .LVU598
 6275 04dc 00       		.uleb128 .LVU600
 6276 04dd 00       		.uleb128 .LVU600
 6277 04de 00       		.uleb128 0
 6278              	.LLST32:
 6279 04df 68050000 		.4byte	.LVL95-.Ltext0
 6280 04e3 7E050000 		.4byte	.LVL97-.Ltext0
 6281 04e7 0200     		.2byte	0x2
 6282 04e9 30       		.byte	0x30
 6283 04ea 9F       		.byte	0x9f
 6284 04eb 7E050000 		.4byte	.LVL97-.Ltext0
 6285 04ef 80050000 		.4byte	.LVL98-.Ltext0
 6286 04f3 0100     		.2byte	0x1
 6287 04f5 50       		.byte	0x50
 6288 04f6 80050000 		.4byte	.LVL98-.Ltext0
 6289 04fa 9A050000 		.4byte	.LFE49-.Ltext0
 6290 04fe 0200     		.2byte	0x2
 6291 0500 30       		.byte	0x30
 6292 0501 9F       		.byte	0x9f
 6293 0502 00000000 		.4byte	0
 6294 0506 00000000 		.4byte	0
 6295              	.LVUS30:
 6296 050a 00       		.uleb128 0
 6297 050b 00       		.uleb128 .LVU581
 6298 050c 00       		.uleb128 .LVU581
 6299 050d 00       		.uleb128 .LVU583
 6300 050e 00       		.uleb128 .LVU583
 6301 050f 00       		.uleb128 .LVU585
 6302 0510 00       		.uleb128 .LVU585
 6303 0511 00       		.uleb128 0
 6304              	.LLST30:
 6305 0512 58050000 		.4byte	.LVL91-.Ltext0
 6306 0516 5E050000 		.4byte	.LVL92-.Ltext0
 6307 051a 0100     		.2byte	0x1
 6308 051c 51       		.byte	0x51
 6309 051d 5E050000 		.4byte	.LVL92-.Ltext0
 6310 0521 62050000 		.4byte	.LVL93-.Ltext0
 6311 0525 0400     		.2byte	0x4
 6312 0527 F3       		.byte	0xf3
 6313 0528 01       		.uleb128 0x1
 6314 0529 51       		.byte	0x51
 6315 052a 9F       		.byte	0x9f
 6316 052b 62050000 		.4byte	.LVL93-.Ltext0
 6317 052f 66050000 		.4byte	.LVL94-.Ltext0
 6318 0533 0100     		.2byte	0x1
 6319 0535 51       		.byte	0x51
 6320 0536 66050000 		.4byte	.LVL94-.Ltext0
 6321 053a 68050000 		.4byte	.LFE48-.Ltext0
 6322 053e 0400     		.2byte	0x4
 6323 0540 F3       		.byte	0xf3
 6324 0541 01       		.uleb128 0x1
 6325 0542 51       		.byte	0x51
 6326 0543 9F       		.byte	0x9f
 6327 0544 00000000 		.4byte	0
 6328 0548 00000000 		.4byte	0
 6329              	.LVUS28:
 6330 054c 00       		.uleb128 0
ARM GAS  C:\Users\skey\AppData\Local\Temp\ccv9NfrL.s 			page 141


 6331 054d 00       		.uleb128 .LVU569
 6332 054e 00       		.uleb128 .LVU569
 6333 054f 00       		.uleb128 0
 6334              	.LLST28:
 6335 0550 50050000 		.4byte	.LVL88-.Ltext0
 6336 0554 52050000 		.4byte	.LVL89-.Ltext0
 6337 0558 0100     		.2byte	0x1
 6338 055a 50       		.byte	0x50
 6339 055b 52050000 		.4byte	.LVL89-.Ltext0
 6340 055f 58050000 		.4byte	.LFE47-.Ltext0
 6341 0563 0400     		.2byte	0x4
 6342 0565 F3       		.byte	0xf3
 6343 0566 01       		.uleb128 0x1
 6344 0567 50       		.byte	0x50
 6345 0568 9F       		.byte	0x9f
 6346 0569 00000000 		.4byte	0
 6347 056d 00000000 		.4byte	0
 6348              	.LVUS29:
 6349 0571 02       		.uleb128 .LVU566
 6350 0572 00       		.uleb128 .LVU569
 6351 0573 00       		.uleb128 .LVU569
 6352 0574 00       		.uleb128 .LVU571
 6353              	.LLST29:
 6354 0575 50050000 		.4byte	.LVL88-.Ltext0
 6355 0579 52050000 		.4byte	.LVL89-.Ltext0
 6356 057d 0200     		.2byte	0x2
 6357 057f 30       		.byte	0x30
 6358 0580 9F       		.byte	0x9f
 6359 0581 52050000 		.4byte	.LVL89-.Ltext0
 6360 0585 56050000 		.4byte	.LVL90-.Ltext0
 6361 0589 0500     		.2byte	0x5
 6362 058b 70       		.byte	0x70
 6363 058c 00       		.sleb128 0
 6364 058d 40       		.byte	0x40
 6365 058e 25       		.byte	0x25
 6366 058f 9F       		.byte	0x9f
 6367 0590 00000000 		.4byte	0
 6368 0594 00000000 		.4byte	0
 6369              	.LVUS26:
 6370 0598 00       		.uleb128 0
 6371 0599 00       		.uleb128 .LVU561
 6372 059a 00       		.uleb128 .LVU561
 6373 059b 00       		.uleb128 0
 6374              	.LLST26:
 6375 059c 4A050000 		.4byte	.LVL85-.Ltext0
 6376 05a0 4C050000 		.4byte	.LVL86-.Ltext0
 6377 05a4 0100     		.2byte	0x1
 6378 05a6 50       		.byte	0x50
 6379 05a7 4C050000 		.4byte	.LVL86-.Ltext0
 6380 05ab 50050000 		.4byte	.LFE46-.Ltext0
 6381 05af 0400     		.2byte	0x4
 6382 05b1 F3       		.byte	0xf3
 6383 05b2 01       		.uleb128 0x1
 6384 05b3 50       		.byte	0x50
 6385 05b4 9F       		.byte	0x9f
 6386 05b5 00000000 		.4byte	0
 6387 05b9 00000000 		.4byte	0
ARM GAS  C:\Users\skey\AppData\Local\Temp\ccv9NfrL.s 			page 142


 6388              	.LVUS27:
 6389 05bd 02       		.uleb128 .LVU558
 6390 05be 00       		.uleb128 .LVU561
 6391 05bf 00       		.uleb128 .LVU561
 6392 05c0 00       		.uleb128 .LVU563
 6393              	.LLST27:
 6394 05c1 4A050000 		.4byte	.LVL85-.Ltext0
 6395 05c5 4C050000 		.4byte	.LVL86-.Ltext0
 6396 05c9 0200     		.2byte	0x2
 6397 05cb 30       		.byte	0x30
 6398 05cc 9F       		.byte	0x9f
 6399 05cd 4C050000 		.4byte	.LVL86-.Ltext0
 6400 05d1 4E050000 		.4byte	.LVL87-.Ltext0
 6401 05d5 0500     		.2byte	0x5
 6402 05d7 70       		.byte	0x70
 6403 05d8 00       		.sleb128 0
 6404 05d9 48       		.byte	0x48
 6405 05da 25       		.byte	0x25
 6406 05db 9F       		.byte	0x9f
 6407 05dc 00000000 		.4byte	0
 6408 05e0 00000000 		.4byte	0
 6409              	.LVUS24:
 6410 05e4 00       		.uleb128 0
 6411 05e5 00       		.uleb128 .LVU553
 6412 05e6 00       		.uleb128 .LVU553
 6413 05e7 00       		.uleb128 0
 6414              	.LLST24:
 6415 05e8 42050000 		.4byte	.LVL82-.Ltext0
 6416 05ec 44050000 		.4byte	.LVL83-.Ltext0
 6417 05f0 0100     		.2byte	0x1
 6418 05f2 50       		.byte	0x50
 6419 05f3 44050000 		.4byte	.LVL83-.Ltext0
 6420 05f7 4A050000 		.4byte	.LFE45-.Ltext0
 6421 05fb 0400     		.2byte	0x4
 6422 05fd F3       		.byte	0xf3
 6423 05fe 01       		.uleb128 0x1
 6424 05ff 50       		.byte	0x50
 6425 0600 9F       		.byte	0x9f
 6426 0601 00000000 		.4byte	0
 6427 0605 00000000 		.4byte	0
 6428              	.LVUS25:
 6429 0609 02       		.uleb128 .LVU550
 6430 060a 00       		.uleb128 .LVU553
 6431 060b 00       		.uleb128 .LVU553
 6432 060c 00       		.uleb128 .LVU555
 6433              	.LLST25:
 6434 060d 42050000 		.4byte	.LVL82-.Ltext0
 6435 0611 44050000 		.4byte	.LVL83-.Ltext0
 6436 0615 0200     		.2byte	0x2
 6437 0617 30       		.byte	0x30
 6438 0618 9F       		.byte	0x9f
 6439 0619 44050000 		.4byte	.LVL83-.Ltext0
 6440 061d 48050000 		.4byte	.LVL84-.Ltext0
 6441 0621 0600     		.2byte	0x6
 6442 0623 70       		.byte	0x70
 6443 0624 00       		.sleb128 0
 6444 0625 08       		.byte	0x8
ARM GAS  C:\Users\skey\AppData\Local\Temp\ccv9NfrL.s 			page 143


 6445 0626 70       		.byte	0x70
 6446 0627 1A       		.byte	0x1a
 6447 0628 9F       		.byte	0x9f
 6448 0629 00000000 		.4byte	0
 6449 062d 00000000 		.4byte	0
 6450              	.LVUS21:
 6451 0631 00       		.uleb128 0
 6452 0632 00       		.uleb128 .LVU544
 6453 0633 00       		.uleb128 .LVU544
 6454 0634 00       		.uleb128 0
 6455              	.LLST21:
 6456 0635 20050000 		.4byte	.LVL75-.Ltext0
 6457 0639 38050000 		.4byte	.LVL79-.Ltext0
 6458 063d 0100     		.2byte	0x1
 6459 063f 50       		.byte	0x50
 6460 0640 38050000 		.4byte	.LVL79-.Ltext0
 6461 0644 42050000 		.4byte	.LFE44-.Ltext0
 6462 0648 0400     		.2byte	0x4
 6463 064a F3       		.byte	0xf3
 6464 064b 01       		.uleb128 0x1
 6465 064c 50       		.byte	0x50
 6466 064d 9F       		.byte	0x9f
 6467 064e 00000000 		.4byte	0
 6468 0652 00000000 		.4byte	0
 6469              	.LVUS22:
 6470 0656 02       		.uleb128 .LVU531
 6471 0657 00       		.uleb128 .LVU537
 6472 0658 00       		.uleb128 .LVU537
 6473 0659 00       		.uleb128 .LVU541
 6474 065a 00       		.uleb128 .LVU541
 6475 065b 00       		.uleb128 .LVU542
 6476              	.LLST22:
 6477 065c 20050000 		.4byte	.LVL75-.Ltext0
 6478 0660 2C050000 		.4byte	.LVL76-.Ltext0
 6479 0664 0400     		.2byte	0x4
 6480 0666 0A       		.byte	0xa
 6481 0667 FFFF     		.2byte	0xffff
 6482 0669 9F       		.byte	0x9f
 6483 066a 2C050000 		.4byte	.LVL76-.Ltext0
 6484 066e 34050000 		.4byte	.LVL77-.Ltext0
 6485 0672 0300     		.2byte	0x3
 6486 0674 73       		.byte	0x73
 6487 0675 7F       		.sleb128 -1
 6488 0676 9F       		.byte	0x9f
 6489 0677 34050000 		.4byte	.LVL77-.Ltext0
 6490 067b 36050000 		.4byte	.LVL78-.Ltext0
 6491 067f 0100     		.2byte	0x1
 6492 0681 53       		.byte	0x53
 6493 0682 00000000 		.4byte	0
 6494 0686 00000000 		.4byte	0
 6495              	.LVUS23:
 6496 068a 03       		.uleb128 .LVU532
 6497 068b 00       		.uleb128 .LVU544
 6498 068c 00       		.uleb128 .LVU544
 6499 068d 00       		.uleb128 .LVU546
 6500 068e 00       		.uleb128 .LVU546
 6501 068f 00       		.uleb128 .LVU547
ARM GAS  C:\Users\skey\AppData\Local\Temp\ccv9NfrL.s 			page 144


 6502              	.LLST23:
 6503 0690 20050000 		.4byte	.LVL75-.Ltext0
 6504 0694 38050000 		.4byte	.LVL79-.Ltext0
 6505 0698 0200     		.2byte	0x2
 6506 069a 30       		.byte	0x30
 6507 069b 9F       		.byte	0x9f
 6508 069c 38050000 		.4byte	.LVL79-.Ltext0
 6509 06a0 3C050000 		.4byte	.LVL80-.Ltext0
 6510 06a4 0700     		.2byte	0x7
 6511 06a6 70       		.byte	0x70
 6512 06a7 00       		.sleb128 0
 6513 06a8 32       		.byte	0x32
 6514 06a9 1A       		.byte	0x1a
 6515 06aa 30       		.byte	0x30
 6516 06ab 29       		.byte	0x29
 6517 06ac 9F       		.byte	0x9f
 6518 06ad 3C050000 		.4byte	.LVL80-.Ltext0
 6519 06b1 40050000 		.4byte	.LVL81-.Ltext0
 6520 06b5 0800     		.2byte	0x8
 6521 06b7 70       		.byte	0x70
 6522 06b8 00       		.sleb128 0
 6523 06b9 20       		.byte	0x20
 6524 06ba 32       		.byte	0x32
 6525 06bb 1A       		.byte	0x1a
 6526 06bc 30       		.byte	0x30
 6527 06bd 29       		.byte	0x29
 6528 06be 9F       		.byte	0x9f
 6529 06bf 00000000 		.4byte	0
 6530 06c3 00000000 		.4byte	0
 6531              	.LVUS19:
 6532 06c7 00       		.uleb128 0
 6533 06c8 00       		.uleb128 .LVU526
 6534 06c9 00       		.uleb128 .LVU526
 6535 06ca 00       		.uleb128 0
 6536              	.LLST19:
 6537 06cb 06050000 		.4byte	.LVL72-.Ltext0
 6538 06cf 14050000 		.4byte	.LVL73-.Ltext0
 6539 06d3 0100     		.2byte	0x1
 6540 06d5 50       		.byte	0x50
 6541 06d6 14050000 		.4byte	.LVL73-.Ltext0
 6542 06da 20050000 		.4byte	.LFE43-.Ltext0
 6543 06de 0400     		.2byte	0x4
 6544 06e0 F3       		.byte	0xf3
 6545 06e1 01       		.uleb128 0x1
 6546 06e2 50       		.byte	0x50
 6547 06e3 9F       		.byte	0x9f
 6548 06e4 00000000 		.4byte	0
 6549 06e8 00000000 		.4byte	0
 6550              	.LVUS20:
 6551 06ec 02       		.uleb128 .LVU519
 6552 06ed 00       		.uleb128 .LVU526
 6553 06ee 00       		.uleb128 .LVU526
 6554 06ef 00       		.uleb128 .LVU528
 6555              	.LLST20:
 6556 06f0 06050000 		.4byte	.LVL72-.Ltext0
 6557 06f4 14050000 		.4byte	.LVL73-.Ltext0
 6558 06f8 0200     		.2byte	0x2
ARM GAS  C:\Users\skey\AppData\Local\Temp\ccv9NfrL.s 			page 145


 6559 06fa 30       		.byte	0x30
 6560 06fb 9F       		.byte	0x9f
 6561 06fc 14050000 		.4byte	.LVL73-.Ltext0
 6562 0700 18050000 		.4byte	.LVL74-.Ltext0
 6563 0704 0700     		.2byte	0x7
 6564 0706 70       		.byte	0x70
 6565 0707 00       		.sleb128 0
 6566 0708 33       		.byte	0x33
 6567 0709 1A       		.byte	0x1a
 6568 070a 32       		.byte	0x32
 6569 070b 29       		.byte	0x29
 6570 070c 9F       		.byte	0x9f
 6571 070d 00000000 		.4byte	0
 6572 0711 00000000 		.4byte	0
 6573              	.LVUS16:
 6574 0715 00       		.uleb128 0
 6575 0716 00       		.uleb128 .LVU477
 6576 0717 00       		.uleb128 .LVU477
 6577 0718 00       		.uleb128 .LVU480
 6578 0719 00       		.uleb128 .LVU480
 6579 071a 00       		.uleb128 .LVU495
 6580 071b 00       		.uleb128 .LVU495
 6581 071c 00       		.uleb128 .LVU496
 6582 071d 00       		.uleb128 .LVU496
 6583 071e 00       		.uleb128 .LVU512
 6584 071f 00       		.uleb128 .LVU512
 6585 0720 00       		.uleb128 .LVU514
 6586 0721 00       		.uleb128 .LVU514
 6587 0722 00       		.uleb128 .LVU515
 6588 0723 00       		.uleb128 .LVU515
 6589 0724 00       		.uleb128 0
 6590              	.LLST16:
 6591 0725 7E040000 		.4byte	.LVL55-.Ltext0
 6592 0729 A0040000 		.4byte	.LVL59-.Ltext0
 6593 072d 0100     		.2byte	0x1
 6594 072f 50       		.byte	0x50
 6595 0730 A0040000 		.4byte	.LVL59-.Ltext0
 6596 0734 AE040000 		.4byte	.LVL60-.Ltext0
 6597 0738 0400     		.2byte	0x4
 6598 073a F3       		.byte	0xf3
 6599 073b 01       		.uleb128 0x1
 6600 073c 50       		.byte	0x50
 6601 073d 9F       		.byte	0x9f
 6602 073e AE040000 		.4byte	.LVL60-.Ltext0
 6603 0742 D2040000 		.4byte	.LVL64-.Ltext0
 6604 0746 0100     		.2byte	0x1
 6605 0748 50       		.byte	0x50
 6606 0749 D2040000 		.4byte	.LVL64-.Ltext0
 6607 074d D6040000 		.4byte	.LVL65-.Ltext0
 6608 0751 0400     		.2byte	0x4
 6609 0753 F3       		.byte	0xf3
 6610 0754 01       		.uleb128 0x1
 6611 0755 50       		.byte	0x50
 6612 0756 9F       		.byte	0x9f
 6613 0757 D6040000 		.4byte	.LVL65-.Ltext0
 6614 075b FA040000 		.4byte	.LVL69-.Ltext0
 6615 075f 0100     		.2byte	0x1
ARM GAS  C:\Users\skey\AppData\Local\Temp\ccv9NfrL.s 			page 146


 6616 0761 50       		.byte	0x50
 6617 0762 FA040000 		.4byte	.LVL69-.Ltext0
 6618 0766 02050000 		.4byte	.LVL70-.Ltext0
 6619 076a 0400     		.2byte	0x4
 6620 076c F3       		.byte	0xf3
 6621 076d 01       		.uleb128 0x1
 6622 076e 50       		.byte	0x50
 6623 076f 9F       		.byte	0x9f
 6624 0770 02050000 		.4byte	.LVL70-.Ltext0
 6625 0774 04050000 		.4byte	.LVL71-.Ltext0
 6626 0778 0100     		.2byte	0x1
 6627 077a 50       		.byte	0x50
 6628 077b 04050000 		.4byte	.LVL71-.Ltext0
 6629 077f 06050000 		.4byte	.LFE42-.Ltext0
 6630 0783 0400     		.2byte	0x4
 6631 0785 F3       		.byte	0xf3
 6632 0786 01       		.uleb128 0x1
 6633 0787 50       		.byte	0x50
 6634 0788 9F       		.byte	0x9f
 6635 0789 00000000 		.4byte	0
 6636 078d 00000000 		.4byte	0
 6637              	.LVUS17:
 6638 0791 02       		.uleb128 .LVU458
 6639 0792 00       		.uleb128 .LVU515
 6640 0793 00       		.uleb128 .LVU515
 6641 0794 00       		.uleb128 0
 6642              	.LLST17:
 6643 0795 7E040000 		.4byte	.LVL55-.Ltext0
 6644 0799 04050000 		.4byte	.LVL71-.Ltext0
 6645 079d 0200     		.2byte	0x2
 6646 079f 30       		.byte	0x30
 6647 07a0 9F       		.byte	0x9f
 6648 07a1 04050000 		.4byte	.LVL71-.Ltext0
 6649 07a5 06050000 		.4byte	.LFE42-.Ltext0
 6650 07a9 0100     		.2byte	0x1
 6651 07ab 50       		.byte	0x50
 6652 07ac 00000000 		.4byte	0
 6653 07b0 00000000 		.4byte	0
 6654              	.LVUS18:
 6655 07b4 03       		.uleb128 .LVU459
 6656 07b5 00       		.uleb128 .LVU469
 6657 07b6 00       		.uleb128 .LVU469
 6658 07b7 00       		.uleb128 .LVU474
 6659 07b8 00       		.uleb128 .LVU474
 6660 07b9 00       		.uleb128 .LVU475
 6661 07ba 00       		.uleb128 .LVU480
 6662 07bb 00       		.uleb128 .LVU486
 6663 07bc 00       		.uleb128 .LVU486
 6664 07bd 00       		.uleb128 .LVU490
 6665 07be 00       		.uleb128 .LVU490
 6666 07bf 00       		.uleb128 .LVU491
 6667 07c0 00       		.uleb128 .LVU496
 6668 07c1 00       		.uleb128 .LVU504
 6669 07c2 00       		.uleb128 .LVU504
 6670 07c3 00       		.uleb128 .LVU509
 6671 07c4 00       		.uleb128 .LVU509
 6672 07c5 00       		.uleb128 .LVU510
ARM GAS  C:\Users\skey\AppData\Local\Temp\ccv9NfrL.s 			page 147


 6673 07c6 00       		.uleb128 .LVU514
 6674 07c7 00       		.uleb128 0
 6675              	.LLST18:
 6676 07c8 7E040000 		.4byte	.LVL55-.Ltext0
 6677 07cc 90040000 		.4byte	.LVL56-.Ltext0
 6678 07d0 0400     		.2byte	0x4
 6679 07d2 0A       		.byte	0xa
 6680 07d3 FFFF     		.2byte	0xffff
 6681 07d5 9F       		.byte	0x9f
 6682 07d6 90040000 		.4byte	.LVL56-.Ltext0
 6683 07da 9C040000 		.4byte	.LVL57-.Ltext0
 6684 07de 0300     		.2byte	0x3
 6685 07e0 73       		.byte	0x73
 6686 07e1 7F       		.sleb128 -1
 6687 07e2 9F       		.byte	0x9f
 6688 07e3 9C040000 		.4byte	.LVL57-.Ltext0
 6689 07e7 9E040000 		.4byte	.LVL58-.Ltext0
 6690 07eb 0100     		.2byte	0x1
 6691 07ed 53       		.byte	0x53
 6692 07ee AE040000 		.4byte	.LVL60-.Ltext0
 6693 07f2 BE040000 		.4byte	.LVL61-.Ltext0
 6694 07f6 0400     		.2byte	0x4
 6695 07f8 0A       		.byte	0xa
 6696 07f9 FFFF     		.2byte	0xffff
 6697 07fb 9F       		.byte	0x9f
 6698 07fc BE040000 		.4byte	.LVL61-.Ltext0
 6699 0800 C6040000 		.4byte	.LVL62-.Ltext0
 6700 0804 0300     		.2byte	0x3
 6701 0806 73       		.byte	0x73
 6702 0807 7F       		.sleb128 -1
 6703 0808 9F       		.byte	0x9f
 6704 0809 C6040000 		.4byte	.LVL62-.Ltext0
 6705 080d C8040000 		.4byte	.LVL63-.Ltext0
 6706 0811 0100     		.2byte	0x1
 6707 0813 53       		.byte	0x53
 6708 0814 D6040000 		.4byte	.LVL65-.Ltext0
 6709 0818 EA040000 		.4byte	.LVL66-.Ltext0
 6710 081c 0400     		.2byte	0x4
 6711 081e 0A       		.byte	0xa
 6712 081f FFFF     		.2byte	0xffff
 6713 0821 9F       		.byte	0x9f
 6714 0822 EA040000 		.4byte	.LVL66-.Ltext0
 6715 0826 F6040000 		.4byte	.LVL67-.Ltext0
 6716 082a 0300     		.2byte	0x3
 6717 082c 73       		.byte	0x73
 6718 082d 7F       		.sleb128 -1
 6719 082e 9F       		.byte	0x9f
 6720 082f F6040000 		.4byte	.LVL67-.Ltext0
 6721 0833 F8040000 		.4byte	.LVL68-.Ltext0
 6722 0837 0100     		.2byte	0x1
 6723 0839 53       		.byte	0x53
 6724 083a 02050000 		.4byte	.LVL70-.Ltext0
 6725 083e 06050000 		.4byte	.LFE42-.Ltext0
 6726 0842 0400     		.2byte	0x4
 6727 0844 0A       		.byte	0xa
 6728 0845 FFFF     		.2byte	0xffff
 6729 0847 9F       		.byte	0x9f
ARM GAS  C:\Users\skey\AppData\Local\Temp\ccv9NfrL.s 			page 148


 6730 0848 00000000 		.4byte	0
 6731 084c 00000000 		.4byte	0
 6732              	.LVUS14:
 6733 0850 00       		.uleb128 0
 6734 0851 00       		.uleb128 .LVU446
 6735 0852 00       		.uleb128 .LVU446
 6736 0853 00       		.uleb128 .LVU448
 6737 0854 00       		.uleb128 .LVU448
 6738 0855 00       		.uleb128 .LVU452
 6739 0856 00       		.uleb128 .LVU452
 6740 0857 00       		.uleb128 .LVU453
 6741 0858 00       		.uleb128 .LVU453
 6742 0859 00       		.uleb128 .LVU454
 6743 085a 00       		.uleb128 .LVU454
 6744 085b 00       		.uleb128 0
 6745              	.LLST14:
 6746 085c 68040000 		.4byte	.LVL48-.Ltext0
 6747 0860 6C040000 		.4byte	.LVL49-.Ltext0
 6748 0864 0100     		.2byte	0x1
 6749 0866 50       		.byte	0x50
 6750 0867 6C040000 		.4byte	.LVL49-.Ltext0
 6751 086b 72040000 		.4byte	.LVL51-.Ltext0
 6752 086f 0400     		.2byte	0x4
 6753 0871 F3       		.byte	0xf3
 6754 0872 01       		.uleb128 0x1
 6755 0873 50       		.byte	0x50
 6756 0874 9F       		.byte	0x9f
 6757 0875 72040000 		.4byte	.LVL51-.Ltext0
 6758 0879 78040000 		.4byte	.LVL52-.Ltext0
 6759 087d 0100     		.2byte	0x1
 6760 087f 50       		.byte	0x50
 6761 0880 78040000 		.4byte	.LVL52-.Ltext0
 6762 0884 7A040000 		.4byte	.LVL53-.Ltext0
 6763 0888 0400     		.2byte	0x4
 6764 088a F3       		.byte	0xf3
 6765 088b 01       		.uleb128 0x1
 6766 088c 50       		.byte	0x50
 6767 088d 9F       		.byte	0x9f
 6768 088e 7A040000 		.4byte	.LVL53-.Ltext0
 6769 0892 7C040000 		.4byte	.LVL54-.Ltext0
 6770 0896 0100     		.2byte	0x1
 6771 0898 50       		.byte	0x50
 6772 0899 7C040000 		.4byte	.LVL54-.Ltext0
 6773 089d 7E040000 		.4byte	.LFE41-.Ltext0
 6774 08a1 0400     		.2byte	0x4
 6775 08a3 F3       		.byte	0xf3
 6776 08a4 01       		.uleb128 0x1
 6777 08a5 50       		.byte	0x50
 6778 08a6 9F       		.byte	0x9f
 6779 08a7 00000000 		.4byte	0
 6780 08ab 00000000 		.4byte	0
 6781              	.LVUS15:
 6782 08af 02       		.uleb128 .LVU440
 6783 08b0 00       		.uleb128 .LVU447
 6784 08b1 00       		.uleb128 .LVU447
 6785 08b2 00       		.uleb128 .LVU448
 6786 08b3 00       		.uleb128 .LVU448
ARM GAS  C:\Users\skey\AppData\Local\Temp\ccv9NfrL.s 			page 149


 6787 08b4 00       		.uleb128 .LVU454
 6788 08b5 00       		.uleb128 .LVU454
 6789 08b6 00       		.uleb128 0
 6790              	.LLST15:
 6791 08b7 68040000 		.4byte	.LVL48-.Ltext0
 6792 08bb 70040000 		.4byte	.LVL50-.Ltext0
 6793 08bf 0200     		.2byte	0x2
 6794 08c1 30       		.byte	0x30
 6795 08c2 9F       		.byte	0x9f
 6796 08c3 70040000 		.4byte	.LVL50-.Ltext0
 6797 08c7 72040000 		.4byte	.LVL51-.Ltext0
 6798 08cb 0100     		.2byte	0x1
 6799 08cd 50       		.byte	0x50
 6800 08ce 72040000 		.4byte	.LVL51-.Ltext0
 6801 08d2 7C040000 		.4byte	.LVL54-.Ltext0
 6802 08d6 0200     		.2byte	0x2
 6803 08d8 30       		.byte	0x30
 6804 08d9 9F       		.byte	0x9f
 6805 08da 7C040000 		.4byte	.LVL54-.Ltext0
 6806 08de 7E040000 		.4byte	.LFE41-.Ltext0
 6807 08e2 0100     		.2byte	0x1
 6808 08e4 50       		.byte	0x50
 6809 08e5 00000000 		.4byte	0
 6810 08e9 00000000 		.4byte	0
 6811              	.LLST13:
 6812 08ed BC030000 		.4byte	.LFB39-.Ltext0
 6813 08f1 BE030000 		.4byte	.LCFI5-.Ltext0
 6814 08f5 0200     		.2byte	0x2
 6815 08f7 7D       		.byte	0x7d
 6816 08f8 00       		.sleb128 0
 6817 08f9 BE030000 		.4byte	.LCFI5-.Ltext0
 6818 08fd 52040000 		.4byte	.LFE39-.Ltext0
 6819 0901 0200     		.2byte	0x2
 6820 0903 7D       		.byte	0x7d
 6821 0904 0C       		.sleb128 12
 6822 0905 00000000 		.4byte	0
 6823 0909 00000000 		.4byte	0
 6824              	.LVUS10:
 6825 090d 00       		.uleb128 0
 6826 090e 00       		.uleb128 .LVU320
 6827 090f 00       		.uleb128 .LVU320
 6828 0910 02       		.uleb128 .LVU326
 6829 0911 02       		.uleb128 .LVU326
 6830 0912 00       		.uleb128 .LVU328
 6831 0913 00       		.uleb128 .LVU328
 6832 0914 00       		.uleb128 .LVU331
 6833 0915 00       		.uleb128 .LVU331
 6834 0916 00       		.uleb128 .LVU334
 6835 0917 00       		.uleb128 .LVU334
 6836 0918 00       		.uleb128 .LVU338
 6837 0919 00       		.uleb128 .LVU338
 6838 091a 00       		.uleb128 0
 6839              	.LLST10:
 6840 091b 3E030000 		.4byte	.LVL32-.Ltext0
 6841 091f 44030000 		.4byte	.LVL33-.Ltext0
 6842 0923 0100     		.2byte	0x1
 6843 0925 50       		.byte	0x50
ARM GAS  C:\Users\skey\AppData\Local\Temp\ccv9NfrL.s 			page 150


 6844 0926 44030000 		.4byte	.LVL33-.Ltext0
 6845 092a 5E030000 		.4byte	.LVL35-.Ltext0
 6846 092e 0100     		.2byte	0x1
 6847 0930 53       		.byte	0x53
 6848 0931 5E030000 		.4byte	.LVL35-.Ltext0
 6849 0935 64030000 		.4byte	.LVL36-.Ltext0
 6850 0939 0400     		.2byte	0x4
 6851 093b F3       		.byte	0xf3
 6852 093c 01       		.uleb128 0x1
 6853 093d 50       		.byte	0x50
 6854 093e 9F       		.byte	0x9f
 6855 093f 64030000 		.4byte	.LVL36-.Ltext0
 6856 0943 68030000 		.4byte	.LVL37-.Ltext0
 6857 0947 0100     		.2byte	0x1
 6858 0949 53       		.byte	0x53
 6859 094a 68030000 		.4byte	.LVL37-.Ltext0
 6860 094e 72030000 		.4byte	.LVL39-.Ltext0
 6861 0952 0400     		.2byte	0x4
 6862 0954 F3       		.byte	0xf3
 6863 0955 01       		.uleb128 0x1
 6864 0956 50       		.byte	0x50
 6865 0957 9F       		.byte	0x9f
 6866 0958 72030000 		.4byte	.LVL39-.Ltext0
 6867 095c 78030000 		.4byte	.LVL41-.Ltext0
 6868 0960 0100     		.2byte	0x1
 6869 0962 53       		.byte	0x53
 6870 0963 78030000 		.4byte	.LVL41-.Ltext0
 6871 0967 98030000 		.4byte	.LFE37-.Ltext0
 6872 096b 0400     		.2byte	0x4
 6873 096d F3       		.byte	0xf3
 6874 096e 01       		.uleb128 0x1
 6875 096f 50       		.byte	0x50
 6876 0970 9F       		.byte	0x9f
 6877 0971 00000000 		.4byte	0
 6878 0975 00000000 		.4byte	0
 6879              	.LVUS11:
 6880 0979 00       		.uleb128 0
 6881 097a 00       		.uleb128 .LVU323
 6882 097b 00       		.uleb128 .LVU323
 6883 097c 00       		.uleb128 .LVU328
 6884 097d 00       		.uleb128 .LVU328
 6885 097e 00       		.uleb128 .LVU332
 6886 097f 00       		.uleb128 .LVU332
 6887 0980 00       		.uleb128 .LVU334
 6888 0981 00       		.uleb128 .LVU334
 6889 0982 00       		.uleb128 .LVU336
 6890 0983 00       		.uleb128 .LVU336
 6891 0984 00       		.uleb128 0
 6892              	.LLST11:
 6893 0985 3E030000 		.4byte	.LVL32-.Ltext0
 6894 0989 4E030000 		.4byte	.LVL34-.Ltext0
 6895 098d 0100     		.2byte	0x1
 6896 098f 51       		.byte	0x51
 6897 0990 4E030000 		.4byte	.LVL34-.Ltext0
 6898 0994 64030000 		.4byte	.LVL36-.Ltext0
 6899 0998 0400     		.2byte	0x4
 6900 099a F3       		.byte	0xf3
ARM GAS  C:\Users\skey\AppData\Local\Temp\ccv9NfrL.s 			page 151


 6901 099b 01       		.uleb128 0x1
 6902 099c 51       		.byte	0x51
 6903 099d 9F       		.byte	0x9f
 6904 099e 64030000 		.4byte	.LVL36-.Ltext0
 6905 09a2 6C030000 		.4byte	.LVL38-.Ltext0
 6906 09a6 0100     		.2byte	0x1
 6907 09a8 51       		.byte	0x51
 6908 09a9 6C030000 		.4byte	.LVL38-.Ltext0
 6909 09ad 72030000 		.4byte	.LVL39-.Ltext0
 6910 09b1 0400     		.2byte	0x4
 6911 09b3 F3       		.byte	0xf3
 6912 09b4 01       		.uleb128 0x1
 6913 09b5 51       		.byte	0x51
 6914 09b6 9F       		.byte	0x9f
 6915 09b7 72030000 		.4byte	.LVL39-.Ltext0
 6916 09bb 74030000 		.4byte	.LVL40-.Ltext0
 6917 09bf 0100     		.2byte	0x1
 6918 09c1 51       		.byte	0x51
 6919 09c2 74030000 		.4byte	.LVL40-.Ltext0
 6920 09c6 98030000 		.4byte	.LFE37-.Ltext0
 6921 09ca 0400     		.2byte	0x4
 6922 09cc F3       		.byte	0xf3
 6923 09cd 01       		.uleb128 0x1
 6924 09ce 51       		.byte	0x51
 6925 09cf 9F       		.byte	0x9f
 6926 09d0 00000000 		.4byte	0
 6927 09d4 00000000 		.4byte	0
 6928              	.LVUS12:
 6929 09d8 02       		.uleb128 .LVU316
 6930 09d9 00       		.uleb128 .LVU324
 6931 09da 00       		.uleb128 .LVU324
 6932 09db 00       		.uleb128 .LVU328
 6933 09dc 00       		.uleb128 .LVU328
 6934 09dd 00       		.uleb128 .LVU332
 6935 09de 00       		.uleb128 .LVU332
 6936 09df 00       		.uleb128 .LVU334
 6937 09e0 00       		.uleb128 .LVU334
 6938 09e1 00       		.uleb128 .LVU339
 6939 09e2 00       		.uleb128 .LVU339
 6940 09e3 00       		.uleb128 .LVU343
 6941 09e4 00       		.uleb128 .LVU344
 6942 09e5 00       		.uleb128 0
 6943              	.LLST12:
 6944 09e6 3E030000 		.4byte	.LVL32-.Ltext0
 6945 09ea 5E030000 		.4byte	.LVL35-.Ltext0
 6946 09ee 0200     		.2byte	0x2
 6947 09f0 30       		.byte	0x30
 6948 09f1 9F       		.byte	0x9f
 6949 09f2 5E030000 		.4byte	.LVL35-.Ltext0
 6950 09f6 64030000 		.4byte	.LVL36-.Ltext0
 6951 09fa 0100     		.2byte	0x1
 6952 09fc 51       		.byte	0x51
 6953 09fd 64030000 		.4byte	.LVL36-.Ltext0
 6954 0a01 6C030000 		.4byte	.LVL38-.Ltext0
 6955 0a05 0200     		.2byte	0x2
 6956 0a07 30       		.byte	0x30
 6957 0a08 9F       		.byte	0x9f
ARM GAS  C:\Users\skey\AppData\Local\Temp\ccv9NfrL.s 			page 152


 6958 0a09 6C030000 		.4byte	.LVL38-.Ltext0
 6959 0a0d 72030000 		.4byte	.LVL39-.Ltext0
 6960 0a11 0100     		.2byte	0x1
 6961 0a13 51       		.byte	0x51
 6962 0a14 72030000 		.4byte	.LVL39-.Ltext0
 6963 0a18 7A030000 		.4byte	.LVL42-.Ltext0
 6964 0a1c 0200     		.2byte	0x2
 6965 0a1e 30       		.byte	0x30
 6966 0a1f 9F       		.byte	0x9f
 6967 0a20 7A030000 		.4byte	.LVL42-.Ltext0
 6968 0a24 86030000 		.4byte	.LVL43-.Ltext0
 6969 0a28 0100     		.2byte	0x1
 6970 0a2a 51       		.byte	0x51
 6971 0a2b 88030000 		.4byte	.LVL44-.Ltext0
 6972 0a2f 98030000 		.4byte	.LFE37-.Ltext0
 6973 0a33 0100     		.2byte	0x1
 6974 0a35 50       		.byte	0x50
 6975 0a36 00000000 		.4byte	0
 6976 0a3a 00000000 		.4byte	0
 6977              	.LLST7:
 6978 0a3e A2020000 		.4byte	.LFB36-.Ltext0
 6979 0a42 A6020000 		.4byte	.LCFI4-.Ltext0
 6980 0a46 0200     		.2byte	0x2
 6981 0a48 7D       		.byte	0x7d
 6982 0a49 00       		.sleb128 0
 6983 0a4a A6020000 		.4byte	.LCFI4-.Ltext0
 6984 0a4e 3E030000 		.4byte	.LFE36-.Ltext0
 6985 0a52 0200     		.2byte	0x2
 6986 0a54 7D       		.byte	0x7d
 6987 0a55 14       		.sleb128 20
 6988 0a56 00000000 		.4byte	0
 6989 0a5a 00000000 		.4byte	0
 6990              	.LVUS8:
 6991 0a5e 00       		.uleb128 0
 6992 0a5f 00       		.uleb128 .LVU267
 6993 0a60 00       		.uleb128 .LVU267
 6994 0a61 00       		.uleb128 .LVU290
 6995 0a62 00       		.uleb128 .LVU290
 6996 0a63 00       		.uleb128 .LVU305
 6997 0a64 00       		.uleb128 .LVU305
 6998 0a65 00       		.uleb128 0
 6999              	.LLST8:
 7000 0a66 A2020000 		.4byte	.LVL25-.Ltext0
 7001 0a6a AA020000 		.4byte	.LVL26-.Ltext0
 7002 0a6e 0100     		.2byte	0x1
 7003 0a70 50       		.byte	0x50
 7004 0a71 AA020000 		.4byte	.LVL26-.Ltext0
 7005 0a75 E8020000 		.4byte	.LVL28-.Ltext0
 7006 0a79 0100     		.2byte	0x1
 7007 0a7b 54       		.byte	0x54
 7008 0a7c E8020000 		.4byte	.LVL28-.Ltext0
 7009 0a80 22030000 		.4byte	.LVL29-.Ltext0
 7010 0a84 0400     		.2byte	0x4
 7011 0a86 F3       		.byte	0xf3
 7012 0a87 01       		.uleb128 0x1
 7013 0a88 50       		.byte	0x50
 7014 0a89 9F       		.byte	0x9f
ARM GAS  C:\Users\skey\AppData\Local\Temp\ccv9NfrL.s 			page 153


 7015 0a8a 22030000 		.4byte	.LVL29-.Ltext0
 7016 0a8e 3E030000 		.4byte	.LFE36-.Ltext0
 7017 0a92 0100     		.2byte	0x1
 7018 0a94 54       		.byte	0x54
 7019 0a95 00000000 		.4byte	0
 7020 0a99 00000000 		.4byte	0
 7021              	.LVUS9:
 7022 0a9d 02       		.uleb128 .LVU258
 7023 0a9e 00       		.uleb128 .LVU275
 7024 0a9f 00       		.uleb128 .LVU305
 7025 0aa0 00       		.uleb128 .LVU307
 7026 0aa1 00       		.uleb128 .LVU313
 7027 0aa2 00       		.uleb128 0
 7028              	.LLST9:
 7029 0aa3 A2020000 		.4byte	.LVL25-.Ltext0
 7030 0aa7 BA020000 		.4byte	.LVL27-.Ltext0
 7031 0aab 0200     		.2byte	0x2
 7032 0aad 30       		.byte	0x30
 7033 0aae 9F       		.byte	0x9f
 7034 0aaf 22030000 		.4byte	.LVL29-.Ltext0
 7035 0ab3 2A030000 		.4byte	.LVL30-.Ltext0
 7036 0ab7 0200     		.2byte	0x2
 7037 0ab9 30       		.byte	0x30
 7038 0aba 9F       		.byte	0x9f
 7039 0abb 3A030000 		.4byte	.LVL31-.Ltext0
 7040 0abf 3E030000 		.4byte	.LFE36-.Ltext0
 7041 0ac3 0200     		.2byte	0x2
 7042 0ac5 30       		.byte	0x30
 7043 0ac6 9F       		.byte	0x9f
 7044 0ac7 00000000 		.4byte	0
 7045 0acb 00000000 		.4byte	0
 7046              	.LLST5:
 7047 0acf 08010000 		.4byte	.LFB31-.Ltext0
 7048 0ad3 0E010000 		.4byte	.LCFI3-.Ltext0
 7049 0ad7 0200     		.2byte	0x2
 7050 0ad9 7D       		.byte	0x7d
 7051 0ada 00       		.sleb128 0
 7052 0adb 0E010000 		.4byte	.LCFI3-.Ltext0
 7053 0adf E4010000 		.4byte	.LFE31-.Ltext0
 7054 0ae3 0200     		.2byte	0x2
 7055 0ae5 7D       		.byte	0x7d
 7056 0ae6 0C       		.sleb128 12
 7057 0ae7 00000000 		.4byte	0
 7058 0aeb 00000000 		.4byte	0
 7059              	.LVUS6:
 7060 0aef 02       		.uleb128 .LVU117
 7061 0af0 00       		.uleb128 .LVU131
 7062 0af1 00       		.uleb128 .LVU131
 7063 0af2 00       		.uleb128 .LVU165
 7064 0af3 00       		.uleb128 .LVU169
 7065 0af4 00       		.uleb128 0
 7066              	.LLST6:
 7067 0af5 08010000 		.4byte	.LVL17-.Ltext0
 7068 0af9 22010000 		.4byte	.LVL18-.Ltext0
 7069 0afd 0200     		.2byte	0x2
 7070 0aff 30       		.byte	0x30
 7071 0b00 9F       		.byte	0x9f
ARM GAS  C:\Users\skey\AppData\Local\Temp\ccv9NfrL.s 			page 154


 7072 0b01 22010000 		.4byte	.LVL18-.Ltext0
 7073 0b05 8A010000 		.4byte	.LVL19-.Ltext0
 7074 0b09 0100     		.2byte	0x1
 7075 0b0b 51       		.byte	0x51
 7076 0b0c 9C010000 		.4byte	.LVL20-.Ltext0
 7077 0b10 E4010000 		.4byte	.LFE31-.Ltext0
 7078 0b14 0100     		.2byte	0x1
 7079 0b16 51       		.byte	0x51
 7080 0b17 00000000 		.4byte	0
 7081 0b1b 00000000 		.4byte	0
 7082              	.LVUS2:
 7083 0b1f 00       		.uleb128 0
 7084 0b20 00       		.uleb128 .LVU111
 7085 0b21 00       		.uleb128 .LVU111
 7086 0b22 00       		.uleb128 .LVU112
 7087 0b23 00       		.uleb128 .LVU112
 7088 0b24 00       		.uleb128 .LVU113
 7089 0b25 00       		.uleb128 .LVU113
 7090 0b26 00       		.uleb128 0
 7091              	.LLST2:
 7092 0b27 34000000 		.4byte	.LVL6-.Ltext0
 7093 0b2b FC000000 		.4byte	.LVL14-.Ltext0
 7094 0b2f 0100     		.2byte	0x1
 7095 0b31 50       		.byte	0x50
 7096 0b32 FC000000 		.4byte	.LVL14-.Ltext0
 7097 0b36 04010000 		.4byte	.LVL15-.Ltext0
 7098 0b3a 0400     		.2byte	0x4
 7099 0b3c F3       		.byte	0xf3
 7100 0b3d 01       		.uleb128 0x1
 7101 0b3e 50       		.byte	0x50
 7102 0b3f 9F       		.byte	0x9f
 7103 0b40 04010000 		.4byte	.LVL15-.Ltext0
 7104 0b44 06010000 		.4byte	.LVL16-.Ltext0
 7105 0b48 0100     		.2byte	0x1
 7106 0b4a 50       		.byte	0x50
 7107 0b4b 06010000 		.4byte	.LVL16-.Ltext0
 7108 0b4f 08010000 		.4byte	.LFE30-.Ltext0
 7109 0b53 0400     		.2byte	0x4
 7110 0b55 F3       		.byte	0xf3
 7111 0b56 01       		.uleb128 0x1
 7112 0b57 50       		.byte	0x50
 7113 0b58 9F       		.byte	0x9f
 7114 0b59 00000000 		.4byte	0
 7115 0b5d 00000000 		.4byte	0
 7116              	.LVUS3:
 7117 0b61 02       		.uleb128 .LVU17
 7118 0b62 00       		.uleb128 .LVU113
 7119 0b63 00       		.uleb128 .LVU113
 7120 0b64 00       		.uleb128 0
 7121              	.LLST3:
 7122 0b65 34000000 		.4byte	.LVL6-.Ltext0
 7123 0b69 06010000 		.4byte	.LVL16-.Ltext0
 7124 0b6d 0200     		.2byte	0x2
 7125 0b6f 30       		.byte	0x30
 7126 0b70 9F       		.byte	0x9f
 7127 0b71 06010000 		.4byte	.LVL16-.Ltext0
 7128 0b75 08010000 		.4byte	.LFE30-.Ltext0
ARM GAS  C:\Users\skey\AppData\Local\Temp\ccv9NfrL.s 			page 155


 7129 0b79 0100     		.2byte	0x1
 7130 0b7b 50       		.byte	0x50
 7131 0b7c 00000000 		.4byte	0
 7132 0b80 00000000 		.4byte	0
 7133              	.LVUS4:
 7134 0b84 03       		.uleb128 .LVU18
 7135 0b85 00       		.uleb128 .LVU36
 7136 0b86 00       		.uleb128 .LVU36
 7137 0b87 00       		.uleb128 .LVU40
 7138 0b88 00       		.uleb128 .LVU40
 7139 0b89 00       		.uleb128 .LVU41
 7140 0b8a 01       		.uleb128 .LVU102
 7141 0b8b 00       		.uleb128 .LVU104
 7142 0b8c 00       		.uleb128 .LVU104
 7143 0b8d 00       		.uleb128 .LVU108
 7144 0b8e 00       		.uleb128 .LVU108
 7145 0b8f 00       		.uleb128 .LVU109
 7146              	.LLST4:
 7147 0b90 34000000 		.4byte	.LVL6-.Ltext0
 7148 0b94 48000000 		.4byte	.LVL7-.Ltext0
 7149 0b98 0200     		.2byte	0x2
 7150 0b9a 30       		.byte	0x30
 7151 0b9b 9F       		.byte	0x9f
 7152 0b9c 48000000 		.4byte	.LVL7-.Ltext0
 7153 0ba0 50000000 		.4byte	.LVL8-.Ltext0
 7154 0ba4 0700     		.2byte	0x7
 7155 0ba6 40       		.byte	0x40
 7156 0ba7 3C       		.byte	0x3c
 7157 0ba8 24       		.byte	0x24
 7158 0ba9 73       		.byte	0x73
 7159 0baa 00       		.sleb128 0
 7160 0bab 1C       		.byte	0x1c
 7161 0bac 9F       		.byte	0x9f
 7162 0bad 50000000 		.4byte	.LVL8-.Ltext0
 7163 0bb1 52000000 		.4byte	.LVL9-.Ltext0
 7164 0bb5 0700     		.2byte	0x7
 7165 0bb7 0A       		.byte	0xa
 7166 0bb8 FFFF     		.2byte	0xffff
 7167 0bba 73       		.byte	0x73
 7168 0bbb 00       		.sleb128 0
 7169 0bbc 1C       		.byte	0x1c
 7170 0bbd 9F       		.byte	0x9f
 7171 0bbe EC000000 		.4byte	.LVL10-.Ltext0
 7172 0bc2 F0000000 		.4byte	.LVL11-.Ltext0
 7173 0bc6 0200     		.2byte	0x2
 7174 0bc8 30       		.byte	0x30
 7175 0bc9 9F       		.byte	0x9f
 7176 0bca F0000000 		.4byte	.LVL11-.Ltext0
 7177 0bce F8000000 		.4byte	.LVL12-.Ltext0
 7178 0bd2 0700     		.2byte	0x7
 7179 0bd4 40       		.byte	0x40
 7180 0bd5 3C       		.byte	0x3c
 7181 0bd6 24       		.byte	0x24
 7182 0bd7 73       		.byte	0x73
 7183 0bd8 00       		.sleb128 0
 7184 0bd9 1C       		.byte	0x1c
 7185 0bda 9F       		.byte	0x9f
ARM GAS  C:\Users\skey\AppData\Local\Temp\ccv9NfrL.s 			page 156


 7186 0bdb F8000000 		.4byte	.LVL12-.Ltext0
 7187 0bdf FA000000 		.4byte	.LVL13-.Ltext0
 7188 0be3 0700     		.2byte	0x7
 7189 0be5 0A       		.byte	0xa
 7190 0be6 FFFF     		.2byte	0xffff
 7191 0be8 73       		.byte	0x73
 7192 0be9 00       		.sleb128 0
 7193 0bea 1C       		.byte	0x1c
 7194 0beb 9F       		.byte	0x9f
 7195 0bec 00000000 		.4byte	0
 7196 0bf0 00000000 		.4byte	0
 7197              	.LLST0:
 7198 0bf4 00000000 		.4byte	.LFB29-.Ltext0
 7199 0bf8 02000000 		.4byte	.LCFI0-.Ltext0
 7200 0bfc 0200     		.2byte	0x2
 7201 0bfe 7D       		.byte	0x7d
 7202 0bff 00       		.sleb128 0
 7203 0c00 02000000 		.4byte	.LCFI0-.Ltext0
 7204 0c04 1C000000 		.4byte	.LCFI1-.Ltext0
 7205 0c08 0200     		.2byte	0x2
 7206 0c0a 7D       		.byte	0x7d
 7207 0c0b 08       		.sleb128 8
 7208 0c0c 1C000000 		.4byte	.LCFI1-.Ltext0
 7209 0c10 20000000 		.4byte	.LCFI2-.Ltext0
 7210 0c14 0200     		.2byte	0x2
 7211 0c16 7D       		.byte	0x7d
 7212 0c17 00       		.sleb128 0
 7213 0c18 20000000 		.4byte	.LCFI2-.Ltext0
 7214 0c1c 34000000 		.4byte	.LFE29-.Ltext0
 7215 0c20 0200     		.2byte	0x2
 7216 0c22 7D       		.byte	0x7d
 7217 0c23 08       		.sleb128 8
 7218 0c24 00000000 		.4byte	0
 7219 0c28 00000000 		.4byte	0
 7220              	.LVUS1:
 7221 0c2c 00       		.uleb128 0
 7222 0c2d 00       		.uleb128 .LVU8
 7223 0c2e 00       		.uleb128 .LVU8
 7224 0c2f 00       		.uleb128 .LVU12
 7225 0c30 00       		.uleb128 .LVU12
 7226 0c31 00       		.uleb128 .LVU13
 7227 0c32 00       		.uleb128 .LVU13
 7228 0c33 00       		.uleb128 0
 7229              	.LLST1:
 7230 0c34 00000000 		.4byte	.LVL0-.Ltext0
 7231 0c38 0E000000 		.4byte	.LVL1-.Ltext0
 7232 0c3c 0100     		.2byte	0x1
 7233 0c3e 50       		.byte	0x50
 7234 0c3f 0E000000 		.4byte	.LVL1-.Ltext0
 7235 0c43 20000000 		.4byte	.LVL3-.Ltext0
 7236 0c47 0400     		.2byte	0x4
 7237 0c49 F3       		.byte	0xf3
 7238 0c4a 01       		.uleb128 0x1
 7239 0c4b 50       		.byte	0x50
 7240 0c4c 9F       		.byte	0x9f
 7241 0c4d 20000000 		.4byte	.LVL3-.Ltext0
 7242 0c51 24000000 		.4byte	.LVL4-.Ltext0
ARM GAS  C:\Users\skey\AppData\Local\Temp\ccv9NfrL.s 			page 157


 7243 0c55 0100     		.2byte	0x1
 7244 0c57 50       		.byte	0x50
 7245 0c58 24000000 		.4byte	.LVL4-.Ltext0
 7246 0c5c 34000000 		.4byte	.LFE29-.Ltext0
 7247 0c60 0400     		.2byte	0x4
 7248 0c62 F3       		.byte	0xf3
 7249 0c63 01       		.uleb128 0x1
 7250 0c64 50       		.byte	0x50
 7251 0c65 9F       		.byte	0x9f
 7252 0c66 00000000 		.4byte	0
 7253 0c6a 00000000 		.4byte	0
 7254              		.section	.debug_aranges,"",%progbits
 7255 0000 1C000000 		.4byte	0x1c
 7256 0004 0200     		.2byte	0x2
 7257 0006 00000000 		.4byte	.Ldebug_info0
 7258 000a 04       		.byte	0x4
 7259 000b 00       		.byte	0
 7260 000c 0000     		.2byte	0
 7261 000e 0000     		.2byte	0
 7262 0010 00000000 		.4byte	.Ltext0
 7263 0014 0C070000 		.4byte	.Letext0-.Ltext0
 7264 0018 00000000 		.4byte	0
 7265 001c 00000000 		.4byte	0
 7266              		.section	.debug_ranges,"",%progbits
 7267              	.Ldebug_ranges0:
 7268 0000 1A060000 		.4byte	.LBB30-.Ltext0
 7269 0004 1A060000 		.4byte	.LBE30-.Ltext0
 7270 0008 1E060000 		.4byte	.LBB41-.Ltext0
 7271 000c 20060000 		.4byte	.LBE41-.Ltext0
 7272 0010 00000000 		.4byte	0
 7273 0014 00000000 		.4byte	0
 7274 0018 1A060000 		.4byte	.LBB33-.Ltext0
 7275 001c 1E060000 		.4byte	.LBE33-.Ltext0
 7276 0020 44060000 		.4byte	.LBB50-.Ltext0
 7277 0024 44060000 		.4byte	.LBE50-.Ltext0
 7278 0028 44060000 		.4byte	.LBB54-.Ltext0
 7279 002c 4C060000 		.4byte	.LBE54-.Ltext0
 7280 0030 50060000 		.4byte	.LBB61-.Ltext0
 7281 0034 54060000 		.4byte	.LBE61-.Ltext0
 7282 0038 58060000 		.4byte	.LBB68-.Ltext0
 7283 003c 5C060000 		.4byte	.LBE68-.Ltext0
 7284 0040 78060000 		.4byte	.LBB81-.Ltext0
 7285 0044 7C060000 		.4byte	.LBE81-.Ltext0
 7286 0048 84060000 		.4byte	.LBB84-.Ltext0
 7287 004c 8A060000 		.4byte	.LBE84-.Ltext0
 7288 0050 00000000 		.4byte	0
 7289 0054 00000000 		.4byte	0
 7290 0058 32060000 		.4byte	.LBB42-.Ltext0
 7291 005c 3A060000 		.4byte	.LBE42-.Ltext0
 7292 0060 40060000 		.4byte	.LBB49-.Ltext0
 7293 0064 42060000 		.4byte	.LBE49-.Ltext0
 7294 0068 00000000 		.4byte	0
 7295 006c 00000000 		.4byte	0
 7296 0070 3A060000 		.4byte	.LBB45-.Ltext0
 7297 0074 40060000 		.4byte	.LBE45-.Ltext0
 7298 0078 80060000 		.4byte	.LBB83-.Ltext0
 7299 007c 84060000 		.4byte	.LBE83-.Ltext0
ARM GAS  C:\Users\skey\AppData\Local\Temp\ccv9NfrL.s 			page 158


 7300 0080 8A060000 		.4byte	.LBB85-.Ltext0
 7301 0084 8C060000 		.4byte	.LBE85-.Ltext0
 7302 0088 00000000 		.4byte	0
 7303 008c 00000000 		.4byte	0
 7304 0090 44060000 		.4byte	.LBB51-.Ltext0
 7305 0094 44060000 		.4byte	.LBE51-.Ltext0
 7306 0098 4C060000 		.4byte	.LBB55-.Ltext0
 7307 009c 4E060000 		.4byte	.LBE55-.Ltext0
 7308 00a0 00000000 		.4byte	0
 7309 00a4 00000000 		.4byte	0
 7310 00a8 50060000 		.4byte	.LBB58-.Ltext0
 7311 00ac 50060000 		.4byte	.LBE58-.Ltext0
 7312 00b0 54060000 		.4byte	.LBB62-.Ltext0
 7313 00b4 56060000 		.4byte	.LBE62-.Ltext0
 7314 00b8 00000000 		.4byte	0
 7315 00bc 00000000 		.4byte	0
 7316 00c0 58060000 		.4byte	.LBB65-.Ltext0
 7317 00c4 58060000 		.4byte	.LBE65-.Ltext0
 7318 00c8 5C060000 		.4byte	.LBB69-.Ltext0
 7319 00cc 5E060000 		.4byte	.LBE69-.Ltext0
 7320 00d0 00000000 		.4byte	0
 7321 00d4 00000000 		.4byte	0
 7322 00d8 78060000 		.4byte	.LBB78-.Ltext0
 7323 00dc 78060000 		.4byte	.LBE78-.Ltext0
 7324 00e0 7C060000 		.4byte	.LBB82-.Ltext0
 7325 00e4 7E060000 		.4byte	.LBE82-.Ltext0
 7326 00e8 00000000 		.4byte	0
 7327 00ec 00000000 		.4byte	0
 7328              		.section	.debug_line,"",%progbits
 7329              	.Ldebug_line0:
 7330 0000 260D0000 		.section	.debug_str,"MS",%progbits,1
 7330      0300ED01 
 7330      00000201 
 7330      FB0E0D00 
 7330      01010101 
 7331              	.LASF129:
 7332 0000 43414E5F 		.ascii	"CAN_DeInit\000"
 7332      4465496E 
 7332      697400
 7333              	.LASF74:
 7334 000b 43616E52 		.ascii	"CanRxMsg\000"
 7334      784D7367 
 7334      00
 7335              	.LASF81:
 7336 0014 43414E5F 		.ascii	"CAN_ClearFlag\000"
 7336      436C6561 
 7336      72466C61 
 7336      6700
 7337              	.LASF108:
 7338 0022 52784D65 		.ascii	"RxMessage\000"
 7338      73736167 
 7338      6500
 7339              	.LASF18:
 7340 002c 466C6167 		.ascii	"FlagStatus\000"
 7340      53746174 
 7340      757300
 7341              	.LASF3:
ARM GAS  C:\Users\skey\AppData\Local\Temp\ccv9NfrL.s 			page 159


 7342 0037 5F5F7569 		.ascii	"__uint8_t\000"
 7342      6E74385F 
 7342      7400
 7343              	.LASF121:
 7344 0041 43414E5F 		.ascii	"CAN_StructInit\000"
 7344      53747275 
 7344      6374496E 
 7344      697400
 7345              	.LASF47:
 7346 0050 43414E5F 		.ascii	"CAN_TypeDef\000"
 7346      54797065 
 7346      44656600 
 7347              	.LASF135:
 7348 005c 5243435F 		.ascii	"RCC_APB1PeriphResetCmd\000"
 7348      41504231 
 7348      50657269 
 7348      70685265 
 7348      73657443 
 7349              	.LASF98:
 7350 0073 736C6565 		.ascii	"sleepstatus\000"
 7350      70737461 
 7350      74757300 
 7351              	.LASF110:
 7352 007f 4D61696C 		.ascii	"Mailbox\000"
 7352      626F7800 
 7353              	.LASF124:
 7354 0087 43414E5F 		.ascii	"CAN_FilterInitStruct\000"
 7354      46696C74 
 7354      6572496E 
 7354      69745374 
 7354      72756374 
 7355              	.LASF106:
 7356 009c 43414E5F 		.ascii	"CAN_FIFORelease\000"
 7356      4649464F 
 7356      52656C65 
 7356      61736500 
 7357              	.LASF117:
 7358 00ac 43414E5F 		.ascii	"CAN_TTComModeCmd\000"
 7358      5454436F 
 7358      6D4D6F64 
 7358      65436D64 
 7358      00
 7359              	.LASF105:
 7360 00bd 6D657373 		.ascii	"message_pending\000"
 7360      6167655F 
 7360      70656E64 
 7360      696E6700 
 7361              	.LASF62:
 7362 00cd 43414E5F 		.ascii	"CAN_FilterMaskIdHigh\000"
 7362      46696C74 
 7362      65724D61 
 7362      736B4964 
 7362      48696768 
 7363              	.LASF15:
 7364 00e2 49544D5F 		.ascii	"ITM_RxBuffer\000"
 7364      52784275 
 7364      66666572 
ARM GAS  C:\Users\skey\AppData\Local\Temp\ccv9NfrL.s 			page 160


 7364      00
 7365              	.LASF111:
 7366 00ef 43414E5F 		.ascii	"CAN_TransmitStatus\000"
 7366      5472616E 
 7366      736D6974 
 7366      53746174 
 7366      757300
 7367              	.LASF51:
 7368 0102 43414E5F 		.ascii	"CAN_BS1\000"
 7368      42533100 
 7369              	.LASF52:
 7370 010a 43414E5F 		.ascii	"CAN_BS2\000"
 7370      42533200 
 7371              	.LASF130:
 7372 0112 474E5520 		.ascii	"GNU C17 9.2.1 20191025 (release) [ARM/arm-9-branch "
 7372      43313720 
 7372      392E322E 
 7372      31203230 
 7372      31393130 
 7373 0145 72657669 		.ascii	"revision 277599] -mcpu=cortex-m3 -mthumb -mfloat-ab"
 7373      73696F6E 
 7373      20323737 
 7373      3539395D 
 7373      202D6D63 
 7374 0178 693D736F 		.ascii	"i=soft -march=armv7-m -g -gdwarf-2 -Os -fomit-frame"
 7374      6674202D 
 7374      6D617263 
 7374      683D6172 
 7374      6D76372D 
 7375 01ab 2D706F69 		.ascii	"-pointer\000"
 7375      6E746572 
 7375      00
 7376              	.LASF9:
 7377 01b4 6C6F6E67 		.ascii	"long long int\000"
 7377      206C6F6E 
 7377      6720696E 
 7377      7400
 7378              	.LASF0:
 7379 01c2 7369676E 		.ascii	"signed char\000"
 7379      65642063 
 7379      68617200 
 7380              	.LASF101:
 7381 01ce 73746174 		.ascii	"status\000"
 7381      757300
 7382              	.LASF120:
 7383 01d5 43414E5F 		.ascii	"CAN_BankNumber\000"
 7383      42616E6B 
 7383      4E756D62 
 7383      657200
 7384              	.LASF63:
 7385 01e4 43414E5F 		.ascii	"CAN_FilterMaskIdLow\000"
 7385      46696C74 
 7385      65724D61 
 7385      736B4964 
 7385      4C6F7700 
 7386              	.LASF89:
 7387 01f8 43414E5F 		.ascii	"CAN_GetLSBTransmitErrorCounter\000"
ARM GAS  C:\Users\skey\AppData\Local\Temp\ccv9NfrL.s 			page 161


 7387      4765744C 
 7387      53425472 
 7387      616E736D 
 7387      69744572 
 7388              	.LASF10:
 7389 0217 6C6F6E67 		.ascii	"long long unsigned int\000"
 7389      206C6F6E 
 7389      6720756E 
 7389      7369676E 
 7389      65642069 
 7390              	.LASF49:
 7391 022e 43414E5F 		.ascii	"CAN_Mode\000"
 7391      4D6F6465 
 7391      00
 7392              	.LASF113:
 7393 0237 73746174 		.ascii	"state\000"
 7393      6500
 7394              	.LASF24:
 7395 023d 54444C52 		.ascii	"TDLR\000"
 7395      00
 7396              	.LASF6:
 7397 0242 6C6F6E67 		.ascii	"long int\000"
 7397      20696E74 
 7397      00
 7398              	.LASF92:
 7399 024b 43414E5F 		.ascii	"CAN_GetLastErrorCode\000"
 7399      4765744C 
 7399      61737445 
 7399      72726F72 
 7399      436F6465 
 7400              	.LASF21:
 7401 0260 454E4142 		.ascii	"ENABLE\000"
 7401      4C4500
 7402              	.LASF127:
 7403 0267 496E6974 		.ascii	"InitStatus\000"
 7403      53746174 
 7403      757300
 7404              	.LASF94:
 7405 0272 43414E5F 		.ascii	"CAN_WakeUp\000"
 7405      57616B65 
 7405      557000
 7406              	.LASF13:
 7407 027d 75696E74 		.ascii	"uint16_t\000"
 7407      31365F74 
 7407      00
 7408              	.LASF88:
 7409 0286 4E657753 		.ascii	"NewState\000"
 7409      74617465 
 7409      00
 7410              	.LASF32:
 7411 028f 52463052 		.ascii	"RF0R\000"
 7411      00
 7412              	.LASF7:
 7413 0294 5F5F7569 		.ascii	"__uint32_t\000"
 7413      6E743332 
 7413      5F7400
 7414              	.LASF109:
ARM GAS  C:\Users\skey\AppData\Local\Temp\ccv9NfrL.s 			page 162


 7415 029f 43414E5F 		.ascii	"CAN_CancelTransmit\000"
 7415      43616E63 
 7415      656C5472 
 7415      616E736D 
 7415      697400
 7416              	.LASF86:
 7417 02b2 62697473 		.ascii	"bitstatus\000"
 7417      74617475 
 7417      7300
 7418              	.LASF122:
 7419 02bc 43414E5F 		.ascii	"CAN_InitStruct\000"
 7419      496E6974 
 7419      53747275 
 7419      637400
 7420              	.LASF28:
 7421 02cb 52444C52 		.ascii	"RDLR\000"
 7421      00
 7422              	.LASF54:
 7423 02d0 43414E5F 		.ascii	"CAN_ABOM\000"
 7423      41424F4D 
 7423      00
 7424              	.LASF11:
 7425 02d9 756E7369 		.ascii	"unsigned int\000"
 7425      676E6564 
 7425      20696E74 
 7425      00
 7426              	.LASF115:
 7427 02e6 54784D65 		.ascii	"TxMessage\000"
 7427      73736167 
 7427      6500
 7428              	.LASF103:
 7429 02f0 43414E5F 		.ascii	"CAN_MessagePending\000"
 7429      4D657373 
 7429      61676550 
 7429      656E6469 
 7429      6E6700
 7430              	.LASF119:
 7431 0303 43414E5F 		.ascii	"CAN_SlaveStartBank\000"
 7431      536C6176 
 7431      65537461 
 7431      72744261 
 7431      6E6B00
 7432              	.LASF35:
 7433 0316 7354784D 		.ascii	"sTxMailBox\000"
 7433      61696C42 
 7433      6F7800
 7434              	.LASF99:
 7435 0321 43414E5F 		.ascii	"CAN_OperatingModeRequest\000"
 7435      4F706572 
 7435      6174696E 
 7435      674D6F64 
 7435      65526571 
 7436              	.LASF8:
 7437 033a 6C6F6E67 		.ascii	"long unsigned int\000"
 7437      20756E73 
 7437      69676E65 
 7437      6420696E 
ARM GAS  C:\Users\skey\AppData\Local\Temp\ccv9NfrL.s 			page 163


 7437      7400
 7438              	.LASF102:
 7439 034c 74696D65 		.ascii	"timeout\000"
 7439      6F757400 
 7440              	.LASF27:
 7441 0354 52445452 		.ascii	"RDTR\000"
 7441      00
 7442              	.LASF40:
 7443 0359 46533152 		.ascii	"FS1R\000"
 7443      00
 7444              	.LASF5:
 7445 035e 73686F72 		.ascii	"short unsigned int\000"
 7445      7420756E 
 7445      7369676E 
 7445      65642069 
 7445      6E7400
 7446              	.LASF33:
 7447 0371 52463152 		.ascii	"RF1R\000"
 7447      00
 7448              	.LASF31:
 7449 0376 43414E5F 		.ascii	"CAN_FilterRegister_TypeDef\000"
 7449      46696C74 
 7449      65725265 
 7449      67697374 
 7449      65725F54 
 7450              	.LASF71:
 7451 0391 45787449 		.ascii	"ExtId\000"
 7451      6400
 7452              	.LASF46:
 7453 0397 7346696C 		.ascii	"sFilterRegister\000"
 7453      74657252 
 7453      65676973 
 7453      74657200 
 7454              	.LASF114:
 7455 03a7 43414E5F 		.ascii	"CAN_Transmit\000"
 7455      5472616E 
 7455      736D6974 
 7455      00
 7456              	.LASF38:
 7457 03b4 464D3152 		.ascii	"FM1R\000"
 7457      00
 7458              	.LASF23:
 7459 03b9 54445452 		.ascii	"TDTR\000"
 7459      00
 7460              	.LASF78:
 7461 03be 43414E5F 		.ascii	"CAN_IT\000"
 7461      495400
 7462              	.LASF126:
 7463 03c5 43414E5F 		.ascii	"CAN_Init\000"
 7463      496E6974 
 7463      00
 7464              	.LASF30:
 7465 03ce 43414E5F 		.ascii	"CAN_FIFOMailBox_TypeDef\000"
 7465      4649464F 
 7465      4D61696C 
 7465      426F785F 
 7465      54797065 
ARM GAS  C:\Users\skey\AppData\Local\Temp\ccv9NfrL.s 			page 164


 7466              	.LASF97:
 7467 03e6 43414E5F 		.ascii	"CAN_Sleep\000"
 7467      536C6565 
 7467      7000
 7468              	.LASF76:
 7469 03f0 49745F42 		.ascii	"It_Bit\000"
 7469      697400
 7470              	.LASF69:
 7471 03f7 43414E5F 		.ascii	"CAN_FilterInitTypeDef\000"
 7471      46696C74 
 7471      6572496E 
 7471      69745479 
 7471      70654465 
 7472              	.LASF79:
 7473 040d 69747374 		.ascii	"itstatus\000"
 7473      61747573 
 7473      00
 7474              	.LASF65:
 7475 0416 43414E5F 		.ascii	"CAN_FilterNumber\000"
 7475      46696C74 
 7475      65724E75 
 7475      6D626572 
 7475      00
 7476              	.LASF22:
 7477 0427 46756E63 		.ascii	"FunctionalState\000"
 7477      74696F6E 
 7477      616C5374 
 7477      61746500 
 7478              	.LASF84:
 7479 0437 43414E5F 		.ascii	"CAN_GetITStatus\000"
 7479      47657449 
 7479      54537461 
 7479      74757300 
 7480              	.LASF25:
 7481 0447 54444852 		.ascii	"TDHR\000"
 7481      00
 7482              	.LASF70:
 7483 044c 53746449 		.ascii	"StdId\000"
 7483      6400
 7484              	.LASF42:
 7485 0452 46464131 		.ascii	"FFA1R\000"
 7485      5200
 7486              	.LASF61:
 7487 0458 43414E5F 		.ascii	"CAN_FilterIdLow\000"
 7487      46696C74 
 7487      65724964 
 7487      4C6F7700 
 7488              	.LASF16:
 7489 0468 53797374 		.ascii	"SystemCoreClock\000"
 7489      656D436F 
 7489      7265436C 
 7489      6F636B00 
 7490              	.LASF82:
 7491 0478 43414E5F 		.ascii	"CAN_FLAG\000"
 7491      464C4147 
 7491      00
 7492              	.LASF48:
ARM GAS  C:\Users\skey\AppData\Local\Temp\ccv9NfrL.s 			page 165


 7493 0481 43414E5F 		.ascii	"CAN_Prescaler\000"
 7493      50726573 
 7493      63616C65 
 7493      7200
 7494              	.LASF34:
 7495 048f 52455345 		.ascii	"RESERVED0\000"
 7495      52564544 
 7495      3000
 7496              	.LASF37:
 7497 0499 52455345 		.ascii	"RESERVED1\000"
 7497      52564544 
 7497      3100
 7498              	.LASF39:
 7499 04a3 52455345 		.ascii	"RESERVED2\000"
 7499      52564544 
 7499      3200
 7500              	.LASF41:
 7501 04ad 52455345 		.ascii	"RESERVED3\000"
 7501      52564544 
 7501      3300
 7502              	.LASF43:
 7503 04b7 52455345 		.ascii	"RESERVED4\000"
 7503      52564544 
 7503      3400
 7504              	.LASF44:
 7505 04c1 46413152 		.ascii	"FA1R\000"
 7505      00
 7506              	.LASF17:
 7507 04c6 52455345 		.ascii	"RESET\000"
 7507      5400
 7508              	.LASF95:
 7509 04cc 77616974 		.ascii	"wait_slak\000"
 7509      5F736C61 
 7509      6B00
 7510              	.LASF1:
 7511 04d6 756E7369 		.ascii	"unsigned char\000"
 7511      676E6564 
 7511      20636861 
 7511      7200
 7512              	.LASF104:
 7513 04e4 4649464F 		.ascii	"FIFONumber\000"
 7513      4E756D62 
 7513      657200
 7514              	.LASF2:
 7515 04ef 73686F72 		.ascii	"short int\000"
 7515      7420696E 
 7515      7400
 7516              	.LASF93:
 7517 04f9 6572726F 		.ascii	"errorcode\000"
 7517      72636F64 
 7517      6500
 7518              	.LASF134:
 7519 0503 70656E64 		.ascii	"pendingbitstatus\000"
 7519      696E6762 
 7519      69747374 
 7519      61747573 
 7519      00
ARM GAS  C:\Users\skey\AppData\Local\Temp\ccv9NfrL.s 			page 166


 7520              	.LASF60:
 7521 0514 43414E5F 		.ascii	"CAN_FilterIdHigh\000"
 7521      46696C74 
 7521      65724964 
 7521      48696768 
 7521      00
 7522              	.LASF20:
 7523 0525 44495341 		.ascii	"DISABLE\000"
 7523      424C4500 
 7524              	.LASF75:
 7525 052d 43414E5F 		.ascii	"CAN_Reg\000"
 7525      52656700 
 7526              	.LASF59:
 7527 0535 43414E5F 		.ascii	"CAN_InitTypeDef\000"
 7527      496E6974 
 7527      54797065 
 7527      44656600 
 7528              	.LASF132:
 7529 0545 443A5C53 		.ascii	"D:\\STM32_Freertos_GCC_Makefile_Win\000"
 7529      544D3332 
 7529      5F467265 
 7529      6572746F 
 7529      735F4743 
 7530              	.LASF64:
 7531 0568 43414E5F 		.ascii	"CAN_FilterFIFOAssignment\000"
 7531      46696C74 
 7531      65724649 
 7531      464F4173 
 7531      7369676E 
 7532              	.LASF45:
 7533 0581 52455345 		.ascii	"RESERVED5\000"
 7533      52564544 
 7533      3500
 7534              	.LASF26:
 7535 058b 43414E5F 		.ascii	"CAN_TxMailBox_TypeDef\000"
 7535      54784D61 
 7535      696C426F 
 7535      785F5479 
 7535      70654465 
 7536              	.LASF118:
 7537 05a1 43414E5F 		.ascii	"CAN_DBGFreeze\000"
 7537      44424746 
 7537      7265657A 
 7537      6500
 7538              	.LASF67:
 7539 05af 43414E5F 		.ascii	"CAN_FilterScale\000"
 7539      46696C74 
 7539      65725363 
 7539      616C6500 
 7540              	.LASF66:
 7541 05bf 43414E5F 		.ascii	"CAN_FilterMode\000"
 7541      46696C74 
 7541      65724D6F 
 7541      646500
 7542              	.LASF100:
 7543 05ce 43414E5F 		.ascii	"CAN_OperatingMode\000"
 7543      4F706572 
ARM GAS  C:\Users\skey\AppData\Local\Temp\ccv9NfrL.s 			page 167


 7543      6174696E 
 7543      674D6F64 
 7543      6500
 7544              	.LASF4:
 7545 05e0 5F5F7569 		.ascii	"__uint16_t\000"
 7545      6E743136 
 7545      5F7400
 7546              	.LASF29:
 7547 05eb 52444852 		.ascii	"RDHR\000"
 7547      00
 7548              	.LASF83:
 7549 05f0 666C6167 		.ascii	"flagtmp\000"
 7549      746D7000 
 7550              	.LASF55:
 7551 05f8 43414E5F 		.ascii	"CAN_AWUM\000"
 7551      4157554D 
 7551      00
 7552              	.LASF90:
 7553 0601 636F756E 		.ascii	"counter\000"
 7553      74657200 
 7554              	.LASF36:
 7555 0609 73464946 		.ascii	"sFIFOMailBox\000"
 7555      4F4D6169 
 7555      6C426F78 
 7555      00
 7556              	.LASF85:
 7557 0616 43414E5F 		.ascii	"CAN_GetFlagStatus\000"
 7557      47657446 
 7557      6C616753 
 7557      74617475 
 7557      7300
 7558              	.LASF57:
 7559 0628 43414E5F 		.ascii	"CAN_RFLM\000"
 7559      52464C4D 
 7559      00
 7560              	.LASF87:
 7561 0631 43414E5F 		.ascii	"CAN_ITConfig\000"
 7561      4954436F 
 7561      6E666967 
 7561      00
 7562              	.LASF77:
 7563 063e 43414E78 		.ascii	"CANx\000"
 7563      00
 7564              	.LASF68:
 7565 0643 43414E5F 		.ascii	"CAN_FilterActivation\000"
 7565      46696C74 
 7565      65724163 
 7565      74697661 
 7565      74696F6E 
 7566              	.LASF107:
 7567 0658 43414E5F 		.ascii	"CAN_Receive\000"
 7567      52656365 
 7567      69766500 
 7568              	.LASF14:
 7569 0664 75696E74 		.ascii	"uint32_t\000"
 7569      33325F74 
 7569      00
ARM GAS  C:\Users\skey\AppData\Local\Temp\ccv9NfrL.s 			page 168


 7570              	.LASF112:
 7571 066d 5472616E 		.ascii	"TransmitMailbox\000"
 7571      736D6974 
 7571      4D61696C 
 7571      626F7800 
 7572              	.LASF133:
 7573 067d 43686563 		.ascii	"CheckITStatus\000"
 7573      6B495453 
 7573      74617475 
 7573      7300
 7574              	.LASF73:
 7575 068b 43616E54 		.ascii	"CanTxMsg\000"
 7575      784D7367 
 7575      00
 7576              	.LASF80:
 7577 0694 43414E5F 		.ascii	"CAN_ClearITPendingBit\000"
 7577      436C6561 
 7577      72495450 
 7577      656E6469 
 7577      6E674269 
 7578              	.LASF58:
 7579 06aa 43414E5F 		.ascii	"CAN_TXFP\000"
 7579      54584650 
 7579      00
 7580              	.LASF116:
 7581 06b3 7472616E 		.ascii	"transmit_mailbox\000"
 7581      736D6974 
 7581      5F6D6169 
 7581      6C626F78 
 7581      00
 7582              	.LASF53:
 7583 06c4 43414E5F 		.ascii	"CAN_TTCM\000"
 7583      5454434D 
 7583      00
 7584              	.LASF91:
 7585 06cd 43414E5F 		.ascii	"CAN_GetReceiveErrorCounter\000"
 7585      47657452 
 7585      65636569 
 7585      76654572 
 7585      726F7243 
 7586              	.LASF12:
 7587 06e8 75696E74 		.ascii	"uint8_t\000"
 7587      385F7400 
 7588              	.LASF72:
 7589 06f0 44617461 		.ascii	"Data\000"
 7589      00
 7590              	.LASF131:
 7591 06f5 2E5C7374 		.ascii	".\\stlib\\STM32F10x_StdPeriph_Driver\\src\\stm32f10"
 7591      6C69625C 
 7591      53544D33 
 7591      32463130 
 7591      785F5374 
 7592 0724 785F6361 		.ascii	"x_can.c\000"
 7592      6E2E6300 
 7593              	.LASF19:
 7594 072c 49545374 		.ascii	"ITStatus\000"
 7594      61747573 
ARM GAS  C:\Users\skey\AppData\Local\Temp\ccv9NfrL.s 			page 169


 7594      00
 7595              	.LASF125:
 7596 0735 66696C74 		.ascii	"filter_number_bit_pos\000"
 7596      65725F6E 
 7596      756D6265 
 7596      725F6269 
 7596      745F706F 
 7597              	.LASF50:
 7598 074b 43414E5F 		.ascii	"CAN_SJW\000"
 7598      534A5700 
 7599              	.LASF96:
 7600 0753 77616B65 		.ascii	"wakeupstatus\000"
 7600      75707374 
 7600      61747573 
 7600      00
 7601              	.LASF123:
 7602 0760 43414E5F 		.ascii	"CAN_FilterInit\000"
 7602      46696C74 
 7602      6572496E 
 7602      697400
 7603              	.LASF56:
 7604 076f 43414E5F 		.ascii	"CAN_NART\000"
 7604      4E415254 
 7604      00
 7605              	.LASF128:
 7606 0778 77616974 		.ascii	"wait_ack\000"
 7606      5F61636B 
 7606      00
 7607              		.ident	"GCC: (GNU Tools for Arm Embedded Processors 9-2019-q4-major) 9.2.1 20191025 (release) [ARM
ARM GAS  C:\Users\skey\AppData\Local\Temp\ccv9NfrL.s 			page 170


DEFINED SYMBOLS
                            *ABS*:00000000 stm32f10x_can.c
C:\Users\skey\AppData\Local\Temp\ccv9NfrL.s:76     .text:00000000 $t
C:\Users\skey\AppData\Local\Temp\ccv9NfrL.s:84     .text:00000000 CAN_DeInit
C:\Users\skey\AppData\Local\Temp\ccv9NfrL.s:149    .text:00000030 $d
C:\Users\skey\AppData\Local\Temp\ccv9NfrL.s:153    .text:00000034 $t
C:\Users\skey\AppData\Local\Temp\ccv9NfrL.s:160    .text:00000034 CAN_Init
C:\Users\skey\AppData\Local\Temp\ccv9NfrL.s:429    .text:00000108 CAN_FilterInit
C:\Users\skey\AppData\Local\Temp\ccv9NfrL.s:643    .text:000001e0 $d
C:\Users\skey\AppData\Local\Temp\ccv9NfrL.s:647    .text:000001e4 $t
C:\Users\skey\AppData\Local\Temp\ccv9NfrL.s:654    .text:000001e4 CAN_StructInit
C:\Users\skey\AppData\Local\Temp\ccv9NfrL.s:713    .text:000001fa CAN_SlaveStartBank
C:\Users\skey\AppData\Local\Temp\ccv9NfrL.s:754    .text:00000234 $d
C:\Users\skey\AppData\Local\Temp\ccv9NfrL.s:758    .text:00000238 $t
C:\Users\skey\AppData\Local\Temp\ccv9NfrL.s:765    .text:00000238 CAN_DBGFreeze
C:\Users\skey\AppData\Local\Temp\ccv9NfrL.s:809    .text:0000024a CAN_TTComModeCmd
C:\Users\skey\AppData\Local\Temp\ccv9NfrL.s:889    .text:000002a2 CAN_Transmit
C:\Users\skey\AppData\Local\Temp\ccv9NfrL.s:1073   .text:0000033e CAN_TransmitStatus
C:\Users\skey\AppData\Local\Temp\ccv9NfrL.s:1177   .text:0000038c $d
C:\Users\skey\AppData\Local\Temp\ccv9NfrL.s:1183   .text:00000398 $t
C:\Users\skey\AppData\Local\Temp\ccv9NfrL.s:1190   .text:00000398 CAN_CancelTransmit
C:\Users\skey\AppData\Local\Temp\ccv9NfrL.s:1244   .text:000003bc CAN_Receive
C:\Users\skey\AppData\Local\Temp\ccv9NfrL.s:1441   .text:00000452 CAN_FIFORelease
C:\Users\skey\AppData\Local\Temp\ccv9NfrL.s:1482   .text:00000468 CAN_MessagePending
C:\Users\skey\AppData\Local\Temp\ccv9NfrL.s:1543   .text:0000047e CAN_OperatingModeRequest
C:\Users\skey\AppData\Local\Temp\ccv9NfrL.s:1737   .text:00000506 CAN_Sleep
C:\Users\skey\AppData\Local\Temp\ccv9NfrL.s:1784   .text:00000520 CAN_WakeUp
C:\Users\skey\AppData\Local\Temp\ccv9NfrL.s:1849   .text:00000542 CAN_GetLastErrorCode
C:\Users\skey\AppData\Local\Temp\ccv9NfrL.s:1881   .text:0000054a CAN_GetReceiveErrorCounter
C:\Users\skey\AppData\Local\Temp\ccv9NfrL.s:1913   .text:00000550 CAN_GetLSBTransmitErrorCounter
C:\Users\skey\AppData\Local\Temp\ccv9NfrL.s:1945   .text:00000558 CAN_ITConfig
C:\Users\skey\AppData\Local\Temp\ccv9NfrL.s:1994   .text:00000568 CAN_GetFlagStatus
C:\Users\skey\AppData\Local\Temp\ccv9NfrL.s:2088   .text:0000059a CAN_ClearFlag
C:\Users\skey\AppData\Local\Temp\ccv9NfrL.s:2160   .text:000005c4 $d
C:\Users\skey\AppData\Local\Temp\ccv9NfrL.s:2164   .text:000005c8 $t
C:\Users\skey\AppData\Local\Temp\ccv9NfrL.s:2171   .text:000005c8 CAN_GetITStatus
C:\Users\skey\AppData\Local\Temp\ccv9NfrL.s:2207   .text:000005e6 $d
C:\Users\skey\AppData\Local\Temp\ccv9NfrL.s:2216   .text:000005ee $t
C:\Users\skey\AppData\Local\Temp\ccv9NfrL.s:2605   .text:00000690 CAN_ClearITPendingBit
C:\Users\skey\AppData\Local\Temp\ccv9NfrL.s:2727   .text:00000708 $d

UNDEFINED SYMBOLS
RCC_APB1PeriphResetCmd
