ARM GAS  C:\Users\skey\AppData\Local\Temp\cccihEbR.s 			page 1


   1              		.cpu cortex-m3
   2              		.eabi_attribute 20, 1	@ Tag_ABI_FP_denormal
   3              		.eabi_attribute 21, 1	@ Tag_ABI_FP_exceptions
   4              		.eabi_attribute 23, 3	@ Tag_ABI_FP_number_model
   5              		.eabi_attribute 24, 1	@ Tag_ABI_align8_needed
   6              		.eabi_attribute 25, 1	@ Tag_ABI_align8_preserved
   7              		.eabi_attribute 26, 1	@ Tag_ABI_enum_size
   8              		.eabi_attribute 30, 4	@ Tag_ABI_optimization_goals
   9              		.eabi_attribute 34, 1	@ Tag_CPU_unaligned_access
  10              		.eabi_attribute 18, 4	@ Tag_ABI_PCS_wchar_t
  11              		.file	"stm32f10x_iwdg.c"
  12              	@ GNU C17 (GNU Tools for Arm Embedded Processors 9-2019-q4-major) version 9.2.1 20191025 (release) 
  13              	@	compiled by GNU C version 5.3.1 20160211, GMP version 6.1.0, MPFR version 3.1.4, MPC version 1.0.
  14              	
  15              	@ GGC heuristics: --param ggc-min-expand=100 --param ggc-min-heapsize=131072
  16              	@ options passed:  -I . -I .\usr_inc -I .\task_inc
  17              	@ -I .\stlib\CMSIS\CM3\CoreSupport
  18              	@ -I .\stlib\CMSIS\CM3\DeviceSupport\ST\STM32F10x
  19              	@ -I .\stlib\STM32F10x_StdPeriph_Driver\inc
  20              	@ -I .\stlib\STM32F10x_StdPeriph_Driver -I .\freertos\include
  21              	@ -I .\freertos\portable\GCC\ARM_CM3 -imultilib thumb/v7-m/nofp
  22              	@ -iprefix c:\program files (x86)\gnu tools arm embedded\9 2019-q4-major\bin\../lib/gcc/arm-none-ea
  23              	@ -isysroot c:\program files (x86)\gnu tools arm embedded\9 2019-q4-major\bin\../arm-none-eabi
  24              	@ -D__USES_INITFINI__ -D STM32F10X_HD -D USE_STDPERIPH_DRIVER
  25              	@ -D HSE_VALUE=8000000 -D RUN_FROM_FLASH=1
  26              	@ .\stlib\STM32F10x_StdPeriph_Driver\src\stm32f10x_iwdg.c -mcpu=cortex-m3
  27              	@ -mthumb -mfloat-abi=soft -march=armv7-m
  28              	@ -auxbase-strip .\stlib\STM32F10x_StdPeriph_Driver\src\stm32f10x_iwdg.o -g
  29              	@ -gdwarf-2 -Os -Wall -fomit-frame-pointer -fverbose-asm
  30              	@ options enabled:  -faggressive-loop-optimizations -fassume-phsa
  31              	@ -fauto-inc-dec -fbranch-count-reg -fcaller-saves -fcode-hoisting
  32              	@ -fcombine-stack-adjustments -fcommon -fcompare-elim -fcprop-registers
  33              	@ -fcrossjumping -fcse-follow-jumps -fdefer-pop
  34              	@ -fdelete-null-pointer-checks -fdevirtualize -fdevirtualize-speculatively
  35              	@ -fdwarf2-cfi-asm -fearly-inlining -feliminate-unused-debug-types
  36              	@ -fexpensive-optimizations -fforward-propagate -ffp-int-builtin-inexact
  37              	@ -ffunction-cse -fgcse -fgcse-lm -fgnu-runtime -fgnu-unique
  38              	@ -fguess-branch-probability -fhoist-adjacent-loads -fident -fif-conversion
  39              	@ -fif-conversion2 -findirect-inlining -finline -finline-atomics
  40              	@ -finline-functions -finline-functions-called-once
  41              	@ -finline-small-functions -fipa-bit-cp -fipa-cp -fipa-icf
  42              	@ -fipa-icf-functions -fipa-icf-variables -fipa-profile -fipa-pure-const
  43              	@ -fipa-ra -fipa-reference -fipa-reference-addressable -fipa-sra
  44              	@ -fipa-stack-alignment -fipa-vrp -fira-hoist-pressure
  45              	@ -fira-share-save-slots -fira-share-spill-slots
  46              	@ -fisolate-erroneous-paths-dereference -fivopts -fkeep-static-consts
  47              	@ -fleading-underscore -flifetime-dse -flra-remat -flto-odr-type-merging
  48              	@ -fmath-errno -fmerge-constants -fmerge-debug-strings
  49              	@ -fmove-loop-invariants -fomit-frame-pointer -foptimize-sibling-calls
  50              	@ -fpartial-inlining -fpeephole -fpeephole2 -fplt -fprefetch-loop-arrays
  51              	@ -freg-struct-return -freorder-blocks -freorder-functions
  52              	@ -frerun-cse-after-loop -fsched-critical-path-heuristic
  53              	@ -fsched-dep-count-heuristic -fsched-group-heuristic -fsched-interblock
  54              	@ -fsched-last-insn-heuristic -fsched-pressure -fsched-rank-heuristic
  55              	@ -fsched-spec -fsched-spec-insn-heuristic -fsched-stalled-insns-dep
  56              	@ -fschedule-insns2 -fsection-anchors -fsemantic-interposition
  57              	@ -fshow-column -fshrink-wrap-separate -fsigned-zeros
ARM GAS  C:\Users\skey\AppData\Local\Temp\cccihEbR.s 			page 2


  58              	@ -fsplit-ivs-in-unroller -fsplit-wide-types -fssa-backprop -fssa-phiopt
  59              	@ -fstdarg-opt -fstore-merging -fstrict-aliasing
  60              	@ -fstrict-volatile-bitfields -fsync-libcalls -fthread-jumps
  61              	@ -ftoplevel-reorder -ftrapping-math -ftree-bit-ccp -ftree-builtin-call-dce
  62              	@ -ftree-ccp -ftree-ch -ftree-coalesce-vars -ftree-copy-prop -ftree-cselim
  63              	@ -ftree-dce -ftree-dominator-opts -ftree-dse -ftree-forwprop -ftree-fre
  64              	@ -ftree-loop-if-convert -ftree-loop-im -ftree-loop-ivcanon
  65              	@ -ftree-loop-optimize -ftree-parallelize-loops= -ftree-phiprop -ftree-pre
  66              	@ -ftree-pta -ftree-reassoc -ftree-scev-cprop -ftree-sink -ftree-slsr
  67              	@ -ftree-sra -ftree-switch-conversion -ftree-tail-merge -ftree-ter
  68              	@ -ftree-vrp -funit-at-a-time -fvar-tracking -fvar-tracking-assignments
  69              	@ -fverbose-asm -fzero-initialized-in-bss -masm-syntax-unified -mbe32
  70              	@ -mfix-cortex-m3-ldrd -mlittle-endian -mpic-data-is-text-relative
  71              	@ -msched-prolog -mthumb -munaligned-access -mvectorize-with-neon-quad
  72              	
  73              		.text
  74              	.Ltext0:
  75              		.cfi_sections	.debug_frame
  76              		.align	1
  77              		.global	IWDG_WriteAccessCmd
  78              		.arch armv7-m
  79              		.syntax unified
  80              		.thumb
  81              		.thumb_func
  82              		.fpu softvfp
  83              		.type	IWDG_WriteAccessCmd, %function
  84              	IWDG_WriteAccessCmd:
  85              	.LVL0:
  86              	.LFB29:
  87              		.file 1 ".\\stlib\\STM32F10x_StdPeriph_Driver\\src\\stm32f10x_iwdg.c"
   1:.\stlib\STM32F10x_StdPeriph_Driver\src/stm32f10x_iwdg.c **** /**
   2:.\stlib\STM32F10x_StdPeriph_Driver\src/stm32f10x_iwdg.c ****   ******************************************************************************
   3:.\stlib\STM32F10x_StdPeriph_Driver\src/stm32f10x_iwdg.c ****   * @file    stm32f10x_iwdg.c
   4:.\stlib\STM32F10x_StdPeriph_Driver\src/stm32f10x_iwdg.c ****   * @author  MCD Application Team
   5:.\stlib\STM32F10x_StdPeriph_Driver\src/stm32f10x_iwdg.c ****   * @version V3.5.0
   6:.\stlib\STM32F10x_StdPeriph_Driver\src/stm32f10x_iwdg.c ****   * @date    11-March-2011
   7:.\stlib\STM32F10x_StdPeriph_Driver\src/stm32f10x_iwdg.c ****   * @brief   This file provides all the IWDG firmware functions.
   8:.\stlib\STM32F10x_StdPeriph_Driver\src/stm32f10x_iwdg.c ****   ******************************************************************************
   9:.\stlib\STM32F10x_StdPeriph_Driver\src/stm32f10x_iwdg.c ****   * @attention
  10:.\stlib\STM32F10x_StdPeriph_Driver\src/stm32f10x_iwdg.c ****   *
  11:.\stlib\STM32F10x_StdPeriph_Driver\src/stm32f10x_iwdg.c ****   * THE PRESENT FIRMWARE WHICH IS FOR GUIDANCE ONLY AIMS AT PROVIDING CUSTOMERS
  12:.\stlib\STM32F10x_StdPeriph_Driver\src/stm32f10x_iwdg.c ****   * WITH CODING INFORMATION REGARDING THEIR PRODUCTS IN ORDER FOR THEM TO SAVE
  13:.\stlib\STM32F10x_StdPeriph_Driver\src/stm32f10x_iwdg.c ****   * TIME. AS A RESULT, STMICROELECTRONICS SHALL NOT BE HELD LIABLE FOR ANY
  14:.\stlib\STM32F10x_StdPeriph_Driver\src/stm32f10x_iwdg.c ****   * DIRECT, INDIRECT OR CONSEQUENTIAL DAMAGES WITH RESPECT TO ANY CLAIMS ARISING
  15:.\stlib\STM32F10x_StdPeriph_Driver\src/stm32f10x_iwdg.c ****   * FROM THE CONTENT OF SUCH FIRMWARE AND/OR THE USE MADE BY CUSTOMERS OF THE
  16:.\stlib\STM32F10x_StdPeriph_Driver\src/stm32f10x_iwdg.c ****   * CODING INFORMATION CONTAINED HEREIN IN CONNECTION WITH THEIR PRODUCTS.
  17:.\stlib\STM32F10x_StdPeriph_Driver\src/stm32f10x_iwdg.c ****   *
  18:.\stlib\STM32F10x_StdPeriph_Driver\src/stm32f10x_iwdg.c ****   * <h2><center>&copy; COPYRIGHT 2011 STMicroelectronics</center></h2>
  19:.\stlib\STM32F10x_StdPeriph_Driver\src/stm32f10x_iwdg.c ****   ******************************************************************************
  20:.\stlib\STM32F10x_StdPeriph_Driver\src/stm32f10x_iwdg.c ****   */
  21:.\stlib\STM32F10x_StdPeriph_Driver\src/stm32f10x_iwdg.c **** 
  22:.\stlib\STM32F10x_StdPeriph_Driver\src/stm32f10x_iwdg.c **** /* Includes ------------------------------------------------------------------*/
  23:.\stlib\STM32F10x_StdPeriph_Driver\src/stm32f10x_iwdg.c **** #include "stm32f10x_iwdg.h"
  24:.\stlib\STM32F10x_StdPeriph_Driver\src/stm32f10x_iwdg.c **** 
  25:.\stlib\STM32F10x_StdPeriph_Driver\src/stm32f10x_iwdg.c **** /** @addtogroup STM32F10x_StdPeriph_Driver
  26:.\stlib\STM32F10x_StdPeriph_Driver\src/stm32f10x_iwdg.c ****   * @{
  27:.\stlib\STM32F10x_StdPeriph_Driver\src/stm32f10x_iwdg.c ****   */
ARM GAS  C:\Users\skey\AppData\Local\Temp\cccihEbR.s 			page 3


  28:.\stlib\STM32F10x_StdPeriph_Driver\src/stm32f10x_iwdg.c **** 
  29:.\stlib\STM32F10x_StdPeriph_Driver\src/stm32f10x_iwdg.c **** /** @defgroup IWDG 
  30:.\stlib\STM32F10x_StdPeriph_Driver\src/stm32f10x_iwdg.c ****   * @brief IWDG driver modules
  31:.\stlib\STM32F10x_StdPeriph_Driver\src/stm32f10x_iwdg.c ****   * @{
  32:.\stlib\STM32F10x_StdPeriph_Driver\src/stm32f10x_iwdg.c ****   */ 
  33:.\stlib\STM32F10x_StdPeriph_Driver\src/stm32f10x_iwdg.c **** 
  34:.\stlib\STM32F10x_StdPeriph_Driver\src/stm32f10x_iwdg.c **** /** @defgroup IWDG_Private_TypesDefinitions
  35:.\stlib\STM32F10x_StdPeriph_Driver\src/stm32f10x_iwdg.c ****   * @{
  36:.\stlib\STM32F10x_StdPeriph_Driver\src/stm32f10x_iwdg.c ****   */
  37:.\stlib\STM32F10x_StdPeriph_Driver\src/stm32f10x_iwdg.c **** 
  38:.\stlib\STM32F10x_StdPeriph_Driver\src/stm32f10x_iwdg.c **** /**
  39:.\stlib\STM32F10x_StdPeriph_Driver\src/stm32f10x_iwdg.c ****   * @}
  40:.\stlib\STM32F10x_StdPeriph_Driver\src/stm32f10x_iwdg.c ****   */
  41:.\stlib\STM32F10x_StdPeriph_Driver\src/stm32f10x_iwdg.c **** 
  42:.\stlib\STM32F10x_StdPeriph_Driver\src/stm32f10x_iwdg.c **** /** @defgroup IWDG_Private_Defines
  43:.\stlib\STM32F10x_StdPeriph_Driver\src/stm32f10x_iwdg.c ****   * @{
  44:.\stlib\STM32F10x_StdPeriph_Driver\src/stm32f10x_iwdg.c ****   */ 
  45:.\stlib\STM32F10x_StdPeriph_Driver\src/stm32f10x_iwdg.c **** 
  46:.\stlib\STM32F10x_StdPeriph_Driver\src/stm32f10x_iwdg.c **** /* ---------------------- IWDG registers bit mask ----------------------------*/
  47:.\stlib\STM32F10x_StdPeriph_Driver\src/stm32f10x_iwdg.c **** 
  48:.\stlib\STM32F10x_StdPeriph_Driver\src/stm32f10x_iwdg.c **** /* KR register bit mask */
  49:.\stlib\STM32F10x_StdPeriph_Driver\src/stm32f10x_iwdg.c **** #define KR_KEY_Reload    ((uint16_t)0xAAAA)
  50:.\stlib\STM32F10x_StdPeriph_Driver\src/stm32f10x_iwdg.c **** #define KR_KEY_Enable    ((uint16_t)0xCCCC)
  51:.\stlib\STM32F10x_StdPeriph_Driver\src/stm32f10x_iwdg.c **** 
  52:.\stlib\STM32F10x_StdPeriph_Driver\src/stm32f10x_iwdg.c **** /**
  53:.\stlib\STM32F10x_StdPeriph_Driver\src/stm32f10x_iwdg.c ****   * @}
  54:.\stlib\STM32F10x_StdPeriph_Driver\src/stm32f10x_iwdg.c ****   */ 
  55:.\stlib\STM32F10x_StdPeriph_Driver\src/stm32f10x_iwdg.c **** 
  56:.\stlib\STM32F10x_StdPeriph_Driver\src/stm32f10x_iwdg.c **** /** @defgroup IWDG_Private_Macros
  57:.\stlib\STM32F10x_StdPeriph_Driver\src/stm32f10x_iwdg.c ****   * @{
  58:.\stlib\STM32F10x_StdPeriph_Driver\src/stm32f10x_iwdg.c ****   */
  59:.\stlib\STM32F10x_StdPeriph_Driver\src/stm32f10x_iwdg.c **** 
  60:.\stlib\STM32F10x_StdPeriph_Driver\src/stm32f10x_iwdg.c **** /**
  61:.\stlib\STM32F10x_StdPeriph_Driver\src/stm32f10x_iwdg.c ****   * @}
  62:.\stlib\STM32F10x_StdPeriph_Driver\src/stm32f10x_iwdg.c ****   */
  63:.\stlib\STM32F10x_StdPeriph_Driver\src/stm32f10x_iwdg.c **** 
  64:.\stlib\STM32F10x_StdPeriph_Driver\src/stm32f10x_iwdg.c **** /** @defgroup IWDG_Private_Variables
  65:.\stlib\STM32F10x_StdPeriph_Driver\src/stm32f10x_iwdg.c ****   * @{
  66:.\stlib\STM32F10x_StdPeriph_Driver\src/stm32f10x_iwdg.c ****   */
  67:.\stlib\STM32F10x_StdPeriph_Driver\src/stm32f10x_iwdg.c **** 
  68:.\stlib\STM32F10x_StdPeriph_Driver\src/stm32f10x_iwdg.c **** /**
  69:.\stlib\STM32F10x_StdPeriph_Driver\src/stm32f10x_iwdg.c ****   * @}
  70:.\stlib\STM32F10x_StdPeriph_Driver\src/stm32f10x_iwdg.c ****   */
  71:.\stlib\STM32F10x_StdPeriph_Driver\src/stm32f10x_iwdg.c **** 
  72:.\stlib\STM32F10x_StdPeriph_Driver\src/stm32f10x_iwdg.c **** /** @defgroup IWDG_Private_FunctionPrototypes
  73:.\stlib\STM32F10x_StdPeriph_Driver\src/stm32f10x_iwdg.c ****   * @{
  74:.\stlib\STM32F10x_StdPeriph_Driver\src/stm32f10x_iwdg.c ****   */
  75:.\stlib\STM32F10x_StdPeriph_Driver\src/stm32f10x_iwdg.c **** 
  76:.\stlib\STM32F10x_StdPeriph_Driver\src/stm32f10x_iwdg.c **** /**
  77:.\stlib\STM32F10x_StdPeriph_Driver\src/stm32f10x_iwdg.c ****   * @}
  78:.\stlib\STM32F10x_StdPeriph_Driver\src/stm32f10x_iwdg.c ****   */
  79:.\stlib\STM32F10x_StdPeriph_Driver\src/stm32f10x_iwdg.c **** 
  80:.\stlib\STM32F10x_StdPeriph_Driver\src/stm32f10x_iwdg.c **** /** @defgroup IWDG_Private_Functions
  81:.\stlib\STM32F10x_StdPeriph_Driver\src/stm32f10x_iwdg.c ****   * @{
  82:.\stlib\STM32F10x_StdPeriph_Driver\src/stm32f10x_iwdg.c ****   */
  83:.\stlib\STM32F10x_StdPeriph_Driver\src/stm32f10x_iwdg.c **** 
  84:.\stlib\STM32F10x_StdPeriph_Driver\src/stm32f10x_iwdg.c **** /**
ARM GAS  C:\Users\skey\AppData\Local\Temp\cccihEbR.s 			page 4


  85:.\stlib\STM32F10x_StdPeriph_Driver\src/stm32f10x_iwdg.c ****   * @brief  Enables or disables write access to IWDG_PR and IWDG_RLR registers.
  86:.\stlib\STM32F10x_StdPeriph_Driver\src/stm32f10x_iwdg.c ****   * @param  IWDG_WriteAccess: new state of write access to IWDG_PR and IWDG_RLR registers.
  87:.\stlib\STM32F10x_StdPeriph_Driver\src/stm32f10x_iwdg.c ****   *   This parameter can be one of the following values:
  88:.\stlib\STM32F10x_StdPeriph_Driver\src/stm32f10x_iwdg.c ****   *     @arg IWDG_WriteAccess_Enable: Enable write access to IWDG_PR and IWDG_RLR registers
  89:.\stlib\STM32F10x_StdPeriph_Driver\src/stm32f10x_iwdg.c ****   *     @arg IWDG_WriteAccess_Disable: Disable write access to IWDG_PR and IWDG_RLR registers
  90:.\stlib\STM32F10x_StdPeriph_Driver\src/stm32f10x_iwdg.c ****   * @retval None
  91:.\stlib\STM32F10x_StdPeriph_Driver\src/stm32f10x_iwdg.c ****   */
  92:.\stlib\STM32F10x_StdPeriph_Driver\src/stm32f10x_iwdg.c **** void IWDG_WriteAccessCmd(uint16_t IWDG_WriteAccess)
  93:.\stlib\STM32F10x_StdPeriph_Driver\src/stm32f10x_iwdg.c **** {
  88              		.loc 1 93 1 view -0
  89              		.cfi_startproc
  90              		@ args = 0, pretend = 0, frame = 0
  91              		@ frame_needed = 0, uses_anonymous_args = 0
  92              		@ link register save eliminated.
  94:.\stlib\STM32F10x_StdPeriph_Driver\src/stm32f10x_iwdg.c ****   /* Check the parameters */
  95:.\stlib\STM32F10x_StdPeriph_Driver\src/stm32f10x_iwdg.c ****   assert_param(IS_IWDG_WRITE_ACCESS(IWDG_WriteAccess));
  93              		.loc 1 95 3 view .LVU1
  96:.\stlib\STM32F10x_StdPeriph_Driver\src/stm32f10x_iwdg.c ****   IWDG->KR = IWDG_WriteAccess;
  94              		.loc 1 96 3 view .LVU2
  95              	@ .\stlib\STM32F10x_StdPeriph_Driver\src\stm32f10x_iwdg.c:96:   IWDG->KR = IWDG_WriteAccess;
  96              		.loc 1 96 12 is_stmt 0 view .LVU3
  97 0000 014B     		ldr	r3, .L2	@ tmp112,
  98 0002 1860     		str	r0, [r3]	@ IWDG_WriteAccess, MEM[(struct IWDG_TypeDef *)1073754112B].KR
  99              	@ .\stlib\STM32F10x_StdPeriph_Driver\src\stm32f10x_iwdg.c:97: }
  97:.\stlib\STM32F10x_StdPeriph_Driver\src/stm32f10x_iwdg.c **** }
 100              		.loc 1 97 1 view .LVU4
 101 0004 7047     		bx	lr	@
 102              	.L3:
 103 0006 00BF     		.align	2
 104              	.L2:
 105 0008 00300040 		.word	1073754112
 106              		.cfi_endproc
 107              	.LFE29:
 108              		.size	IWDG_WriteAccessCmd, .-IWDG_WriteAccessCmd
 109              		.align	1
 110              		.global	IWDG_SetPrescaler
 111              		.syntax unified
 112              		.thumb
 113              		.thumb_func
 114              		.fpu softvfp
 115              		.type	IWDG_SetPrescaler, %function
 116              	IWDG_SetPrescaler:
 117              	.LVL1:
 118              	.LFB30:
  98:.\stlib\STM32F10x_StdPeriph_Driver\src/stm32f10x_iwdg.c **** 
  99:.\stlib\STM32F10x_StdPeriph_Driver\src/stm32f10x_iwdg.c **** /**
 100:.\stlib\STM32F10x_StdPeriph_Driver\src/stm32f10x_iwdg.c ****   * @brief  Sets IWDG Prescaler value.
 101:.\stlib\STM32F10x_StdPeriph_Driver\src/stm32f10x_iwdg.c ****   * @param  IWDG_Prescaler: specifies the IWDG Prescaler value.
 102:.\stlib\STM32F10x_StdPeriph_Driver\src/stm32f10x_iwdg.c ****   *   This parameter can be one of the following values:
 103:.\stlib\STM32F10x_StdPeriph_Driver\src/stm32f10x_iwdg.c ****   *     @arg IWDG_Prescaler_4: IWDG prescaler set to 4
 104:.\stlib\STM32F10x_StdPeriph_Driver\src/stm32f10x_iwdg.c ****   *     @arg IWDG_Prescaler_8: IWDG prescaler set to 8
 105:.\stlib\STM32F10x_StdPeriph_Driver\src/stm32f10x_iwdg.c ****   *     @arg IWDG_Prescaler_16: IWDG prescaler set to 16
 106:.\stlib\STM32F10x_StdPeriph_Driver\src/stm32f10x_iwdg.c ****   *     @arg IWDG_Prescaler_32: IWDG prescaler set to 32
 107:.\stlib\STM32F10x_StdPeriph_Driver\src/stm32f10x_iwdg.c ****   *     @arg IWDG_Prescaler_64: IWDG prescaler set to 64
 108:.\stlib\STM32F10x_StdPeriph_Driver\src/stm32f10x_iwdg.c ****   *     @arg IWDG_Prescaler_128: IWDG prescaler set to 128
 109:.\stlib\STM32F10x_StdPeriph_Driver\src/stm32f10x_iwdg.c ****   *     @arg IWDG_Prescaler_256: IWDG prescaler set to 256
 110:.\stlib\STM32F10x_StdPeriph_Driver\src/stm32f10x_iwdg.c ****   * @retval None
ARM GAS  C:\Users\skey\AppData\Local\Temp\cccihEbR.s 			page 5


 111:.\stlib\STM32F10x_StdPeriph_Driver\src/stm32f10x_iwdg.c ****   */
 112:.\stlib\STM32F10x_StdPeriph_Driver\src/stm32f10x_iwdg.c **** void IWDG_SetPrescaler(uint8_t IWDG_Prescaler)
 113:.\stlib\STM32F10x_StdPeriph_Driver\src/stm32f10x_iwdg.c **** {
 119              		.loc 1 113 1 is_stmt 1 view -0
 120              		.cfi_startproc
 121              		@ args = 0, pretend = 0, frame = 0
 122              		@ frame_needed = 0, uses_anonymous_args = 0
 123              		@ link register save eliminated.
 114:.\stlib\STM32F10x_StdPeriph_Driver\src/stm32f10x_iwdg.c ****   /* Check the parameters */
 115:.\stlib\STM32F10x_StdPeriph_Driver\src/stm32f10x_iwdg.c ****   assert_param(IS_IWDG_PRESCALER(IWDG_Prescaler));
 124              		.loc 1 115 3 view .LVU6
 116:.\stlib\STM32F10x_StdPeriph_Driver\src/stm32f10x_iwdg.c ****   IWDG->PR = IWDG_Prescaler;
 125              		.loc 1 116 3 view .LVU7
 126              	@ .\stlib\STM32F10x_StdPeriph_Driver\src\stm32f10x_iwdg.c:116:   IWDG->PR = IWDG_Prescaler;
 127              		.loc 1 116 12 is_stmt 0 view .LVU8
 128 000c 014B     		ldr	r3, .L5	@ tmp112,
 129 000e 5860     		str	r0, [r3, #4]	@ IWDG_Prescaler, MEM[(struct IWDG_TypeDef *)1073754112B].PR
 130              	@ .\stlib\STM32F10x_StdPeriph_Driver\src\stm32f10x_iwdg.c:117: }
 117:.\stlib\STM32F10x_StdPeriph_Driver\src/stm32f10x_iwdg.c **** }
 131              		.loc 1 117 1 view .LVU9
 132 0010 7047     		bx	lr	@
 133              	.L6:
 134 0012 00BF     		.align	2
 135              	.L5:
 136 0014 00300040 		.word	1073754112
 137              		.cfi_endproc
 138              	.LFE30:
 139              		.size	IWDG_SetPrescaler, .-IWDG_SetPrescaler
 140              		.align	1
 141              		.global	IWDG_SetReload
 142              		.syntax unified
 143              		.thumb
 144              		.thumb_func
 145              		.fpu softvfp
 146              		.type	IWDG_SetReload, %function
 147              	IWDG_SetReload:
 148              	.LVL2:
 149              	.LFB31:
 118:.\stlib\STM32F10x_StdPeriph_Driver\src/stm32f10x_iwdg.c **** 
 119:.\stlib\STM32F10x_StdPeriph_Driver\src/stm32f10x_iwdg.c **** /**
 120:.\stlib\STM32F10x_StdPeriph_Driver\src/stm32f10x_iwdg.c ****   * @brief  Sets IWDG Reload value.
 121:.\stlib\STM32F10x_StdPeriph_Driver\src/stm32f10x_iwdg.c ****   * @param  Reload: specifies the IWDG Reload value.
 122:.\stlib\STM32F10x_StdPeriph_Driver\src/stm32f10x_iwdg.c ****   *   This parameter must be a number between 0 and 0x0FFF.
 123:.\stlib\STM32F10x_StdPeriph_Driver\src/stm32f10x_iwdg.c ****   * @retval None
 124:.\stlib\STM32F10x_StdPeriph_Driver\src/stm32f10x_iwdg.c ****   */
 125:.\stlib\STM32F10x_StdPeriph_Driver\src/stm32f10x_iwdg.c **** void IWDG_SetReload(uint16_t Reload)
 126:.\stlib\STM32F10x_StdPeriph_Driver\src/stm32f10x_iwdg.c **** {
 150              		.loc 1 126 1 is_stmt 1 view -0
 151              		.cfi_startproc
 152              		@ args = 0, pretend = 0, frame = 0
 153              		@ frame_needed = 0, uses_anonymous_args = 0
 154              		@ link register save eliminated.
 127:.\stlib\STM32F10x_StdPeriph_Driver\src/stm32f10x_iwdg.c ****   /* Check the parameters */
 128:.\stlib\STM32F10x_StdPeriph_Driver\src/stm32f10x_iwdg.c ****   assert_param(IS_IWDG_RELOAD(Reload));
 155              		.loc 1 128 3 view .LVU11
 129:.\stlib\STM32F10x_StdPeriph_Driver\src/stm32f10x_iwdg.c ****   IWDG->RLR = Reload;
 156              		.loc 1 129 3 view .LVU12
ARM GAS  C:\Users\skey\AppData\Local\Temp\cccihEbR.s 			page 6


 157              	@ .\stlib\STM32F10x_StdPeriph_Driver\src\stm32f10x_iwdg.c:129:   IWDG->RLR = Reload;
 158              		.loc 1 129 13 is_stmt 0 view .LVU13
 159 0018 014B     		ldr	r3, .L8	@ tmp112,
 160 001a 9860     		str	r0, [r3, #8]	@ Reload, MEM[(struct IWDG_TypeDef *)1073754112B].RLR
 161              	@ .\stlib\STM32F10x_StdPeriph_Driver\src\stm32f10x_iwdg.c:130: }
 130:.\stlib\STM32F10x_StdPeriph_Driver\src/stm32f10x_iwdg.c **** }
 162              		.loc 1 130 1 view .LVU14
 163 001c 7047     		bx	lr	@
 164              	.L9:
 165 001e 00BF     		.align	2
 166              	.L8:
 167 0020 00300040 		.word	1073754112
 168              		.cfi_endproc
 169              	.LFE31:
 170              		.size	IWDG_SetReload, .-IWDG_SetReload
 171              		.align	1
 172              		.global	IWDG_ReloadCounter
 173              		.syntax unified
 174              		.thumb
 175              		.thumb_func
 176              		.fpu softvfp
 177              		.type	IWDG_ReloadCounter, %function
 178              	IWDG_ReloadCounter:
 179              	.LFB32:
 131:.\stlib\STM32F10x_StdPeriph_Driver\src/stm32f10x_iwdg.c **** 
 132:.\stlib\STM32F10x_StdPeriph_Driver\src/stm32f10x_iwdg.c **** /**
 133:.\stlib\STM32F10x_StdPeriph_Driver\src/stm32f10x_iwdg.c ****   * @brief  Reloads IWDG counter with value defined in the reload register
 134:.\stlib\STM32F10x_StdPeriph_Driver\src/stm32f10x_iwdg.c ****   *   (write access to IWDG_PR and IWDG_RLR registers disabled).
 135:.\stlib\STM32F10x_StdPeriph_Driver\src/stm32f10x_iwdg.c ****   * @param  None
 136:.\stlib\STM32F10x_StdPeriph_Driver\src/stm32f10x_iwdg.c ****   * @retval None
 137:.\stlib\STM32F10x_StdPeriph_Driver\src/stm32f10x_iwdg.c ****   */
 138:.\stlib\STM32F10x_StdPeriph_Driver\src/stm32f10x_iwdg.c **** void IWDG_ReloadCounter(void)
 139:.\stlib\STM32F10x_StdPeriph_Driver\src/stm32f10x_iwdg.c **** {
 180              		.loc 1 139 1 is_stmt 1 view -0
 181              		.cfi_startproc
 182              		@ args = 0, pretend = 0, frame = 0
 183              		@ frame_needed = 0, uses_anonymous_args = 0
 184              		@ link register save eliminated.
 140:.\stlib\STM32F10x_StdPeriph_Driver\src/stm32f10x_iwdg.c ****   IWDG->KR = KR_KEY_Reload;
 185              		.loc 1 140 3 view .LVU16
 186              	@ .\stlib\STM32F10x_StdPeriph_Driver\src\stm32f10x_iwdg.c:140:   IWDG->KR = KR_KEY_Reload;
 187              		.loc 1 140 12 is_stmt 0 view .LVU17
 188 0024 4AF6AA22 		movw	r2, #43690	@ tmp111,
 189 0028 014B     		ldr	r3, .L11	@ tmp110,
 190 002a 1A60     		str	r2, [r3]	@ tmp111, MEM[(struct IWDG_TypeDef *)1073754112B].KR
 191              	@ .\stlib\STM32F10x_StdPeriph_Driver\src\stm32f10x_iwdg.c:141: }
 141:.\stlib\STM32F10x_StdPeriph_Driver\src/stm32f10x_iwdg.c **** }
 192              		.loc 1 141 1 view .LVU18
 193 002c 7047     		bx	lr	@
 194              	.L12:
 195 002e 00BF     		.align	2
 196              	.L11:
 197 0030 00300040 		.word	1073754112
 198              		.cfi_endproc
 199              	.LFE32:
 200              		.size	IWDG_ReloadCounter, .-IWDG_ReloadCounter
 201              		.align	1
ARM GAS  C:\Users\skey\AppData\Local\Temp\cccihEbR.s 			page 7


 202              		.global	IWDG_Enable
 203              		.syntax unified
 204              		.thumb
 205              		.thumb_func
 206              		.fpu softvfp
 207              		.type	IWDG_Enable, %function
 208              	IWDG_Enable:
 209              	.LFB33:
 142:.\stlib\STM32F10x_StdPeriph_Driver\src/stm32f10x_iwdg.c **** 
 143:.\stlib\STM32F10x_StdPeriph_Driver\src/stm32f10x_iwdg.c **** /**
 144:.\stlib\STM32F10x_StdPeriph_Driver\src/stm32f10x_iwdg.c ****   * @brief  Enables IWDG (write access to IWDG_PR and IWDG_RLR registers disabled).
 145:.\stlib\STM32F10x_StdPeriph_Driver\src/stm32f10x_iwdg.c ****   * @param  None
 146:.\stlib\STM32F10x_StdPeriph_Driver\src/stm32f10x_iwdg.c ****   * @retval None
 147:.\stlib\STM32F10x_StdPeriph_Driver\src/stm32f10x_iwdg.c ****   */
 148:.\stlib\STM32F10x_StdPeriph_Driver\src/stm32f10x_iwdg.c **** void IWDG_Enable(void)
 149:.\stlib\STM32F10x_StdPeriph_Driver\src/stm32f10x_iwdg.c **** {
 210              		.loc 1 149 1 is_stmt 1 view -0
 211              		.cfi_startproc
 212              		@ args = 0, pretend = 0, frame = 0
 213              		@ frame_needed = 0, uses_anonymous_args = 0
 214              		@ link register save eliminated.
 150:.\stlib\STM32F10x_StdPeriph_Driver\src/stm32f10x_iwdg.c ****   IWDG->KR = KR_KEY_Enable;
 215              		.loc 1 150 3 view .LVU20
 216              	@ .\stlib\STM32F10x_StdPeriph_Driver\src\stm32f10x_iwdg.c:150:   IWDG->KR = KR_KEY_Enable;
 217              		.loc 1 150 12 is_stmt 0 view .LVU21
 218 0034 4CF6CC42 		movw	r2, #52428	@ tmp111,
 219 0038 014B     		ldr	r3, .L14	@ tmp110,
 220 003a 1A60     		str	r2, [r3]	@ tmp111, MEM[(struct IWDG_TypeDef *)1073754112B].KR
 221              	@ .\stlib\STM32F10x_StdPeriph_Driver\src\stm32f10x_iwdg.c:151: }
 151:.\stlib\STM32F10x_StdPeriph_Driver\src/stm32f10x_iwdg.c **** }
 222              		.loc 1 151 1 view .LVU22
 223 003c 7047     		bx	lr	@
 224              	.L15:
 225 003e 00BF     		.align	2
 226              	.L14:
 227 0040 00300040 		.word	1073754112
 228              		.cfi_endproc
 229              	.LFE33:
 230              		.size	IWDG_Enable, .-IWDG_Enable
 231              		.align	1
 232              		.global	IWDG_GetFlagStatus
 233              		.syntax unified
 234              		.thumb
 235              		.thumb_func
 236              		.fpu softvfp
 237              		.type	IWDG_GetFlagStatus, %function
 238              	IWDG_GetFlagStatus:
 239              	.LVL3:
 240              	.LFB34:
 152:.\stlib\STM32F10x_StdPeriph_Driver\src/stm32f10x_iwdg.c **** 
 153:.\stlib\STM32F10x_StdPeriph_Driver\src/stm32f10x_iwdg.c **** /**
 154:.\stlib\STM32F10x_StdPeriph_Driver\src/stm32f10x_iwdg.c ****   * @brief  Checks whether the specified IWDG flag is set or not.
 155:.\stlib\STM32F10x_StdPeriph_Driver\src/stm32f10x_iwdg.c ****   * @param  IWDG_FLAG: specifies the flag to check.
 156:.\stlib\STM32F10x_StdPeriph_Driver\src/stm32f10x_iwdg.c ****   *   This parameter can be one of the following values:
 157:.\stlib\STM32F10x_StdPeriph_Driver\src/stm32f10x_iwdg.c ****   *     @arg IWDG_FLAG_PVU: Prescaler Value Update on going
 158:.\stlib\STM32F10x_StdPeriph_Driver\src/stm32f10x_iwdg.c ****   *     @arg IWDG_FLAG_RVU: Reload Value Update on going
 159:.\stlib\STM32F10x_StdPeriph_Driver\src/stm32f10x_iwdg.c ****   * @retval The new state of IWDG_FLAG (SET or RESET).
ARM GAS  C:\Users\skey\AppData\Local\Temp\cccihEbR.s 			page 8


 160:.\stlib\STM32F10x_StdPeriph_Driver\src/stm32f10x_iwdg.c ****   */
 161:.\stlib\STM32F10x_StdPeriph_Driver\src/stm32f10x_iwdg.c **** FlagStatus IWDG_GetFlagStatus(uint16_t IWDG_FLAG)
 162:.\stlib\STM32F10x_StdPeriph_Driver\src/stm32f10x_iwdg.c **** {
 241              		.loc 1 162 1 is_stmt 1 view -0
 242              		.cfi_startproc
 243              		@ args = 0, pretend = 0, frame = 0
 244              		@ frame_needed = 0, uses_anonymous_args = 0
 245              		@ link register save eliminated.
 163:.\stlib\STM32F10x_StdPeriph_Driver\src/stm32f10x_iwdg.c ****   FlagStatus bitstatus = RESET;
 246              		.loc 1 163 3 view .LVU24
 164:.\stlib\STM32F10x_StdPeriph_Driver\src/stm32f10x_iwdg.c ****   /* Check the parameters */
 165:.\stlib\STM32F10x_StdPeriph_Driver\src/stm32f10x_iwdg.c ****   assert_param(IS_IWDG_FLAG(IWDG_FLAG));
 247              		.loc 1 165 3 view .LVU25
 166:.\stlib\STM32F10x_StdPeriph_Driver\src/stm32f10x_iwdg.c ****   if ((IWDG->SR & IWDG_FLAG) != (uint32_t)RESET)
 248              		.loc 1 166 3 view .LVU26
 249              	@ .\stlib\STM32F10x_StdPeriph_Driver\src\stm32f10x_iwdg.c:166:   if ((IWDG->SR & IWDG_FLAG) != (uin
 250              		.loc 1 166 12 is_stmt 0 view .LVU27
 251 0044 034B     		ldr	r3, .L17	@ tmp116,
 252 0046 DB68     		ldr	r3, [r3, #12]	@ _1, MEM[(struct IWDG_TypeDef *)1073754112B].SR
 253              	.LVL4:
 167:.\stlib\STM32F10x_StdPeriph_Driver\src/stm32f10x_iwdg.c ****   {
 168:.\stlib\STM32F10x_StdPeriph_Driver\src/stm32f10x_iwdg.c ****     bitstatus = SET;
 169:.\stlib\STM32F10x_StdPeriph_Driver\src/stm32f10x_iwdg.c ****   }
 170:.\stlib\STM32F10x_StdPeriph_Driver\src/stm32f10x_iwdg.c ****   else
 171:.\stlib\STM32F10x_StdPeriph_Driver\src/stm32f10x_iwdg.c ****   {
 172:.\stlib\STM32F10x_StdPeriph_Driver\src/stm32f10x_iwdg.c ****     bitstatus = RESET;
 173:.\stlib\STM32F10x_StdPeriph_Driver\src/stm32f10x_iwdg.c ****   }
 174:.\stlib\STM32F10x_StdPeriph_Driver\src/stm32f10x_iwdg.c ****   /* Return the flag status */
 175:.\stlib\STM32F10x_StdPeriph_Driver\src/stm32f10x_iwdg.c ****   return bitstatus;
 254              		.loc 1 175 3 is_stmt 1 view .LVU28
 255              	@ .\stlib\STM32F10x_StdPeriph_Driver\src\stm32f10x_iwdg.c:166:   if ((IWDG->SR & IWDG_FLAG) != (uin
 166:.\stlib\STM32F10x_StdPeriph_Driver\src/stm32f10x_iwdg.c ****   if ((IWDG->SR & IWDG_FLAG) != (uint32_t)RESET)
 256              		.loc 1 166 6 is_stmt 0 view .LVU29
 257 0048 1842     		tst	r0, r3	@ tmp121, _1
 258              	@ .\stlib\STM32F10x_StdPeriph_Driver\src\stm32f10x_iwdg.c:176: }
 176:.\stlib\STM32F10x_StdPeriph_Driver\src/stm32f10x_iwdg.c **** }
 259              		.loc 1 176 1 view .LVU30
 260 004a 14BF     		ite	ne
 261 004c 0120     		movne	r0, #1	@,
 262              	.LVL5:
 263              		.loc 1 176 1 view .LVU31
 264 004e 0020     		moveq	r0, #0	@,
 265 0050 7047     		bx	lr	@
 266              	.L18:
 267 0052 00BF     		.align	2
 268              	.L17:
 269 0054 00300040 		.word	1073754112
 270              		.cfi_endproc
 271              	.LFE34:
 272              		.size	IWDG_GetFlagStatus, .-IWDG_GetFlagStatus
 273              	.Letext0:
 274              		.file 2 "c:\\program files (x86)\\gnu tools arm embedded\\9 2019-q4-major\\arm-none-eabi\\include\
 275              		.file 3 "c:\\program files (x86)\\gnu tools arm embedded\\9 2019-q4-major\\arm-none-eabi\\include\
 276              		.file 4 ".\\stlib\\CMSIS\\CM3\\CoreSupport/core_cm3.h"
 277              		.file 5 ".\\stlib\\CMSIS\\CM3\\DeviceSupport\\ST\\STM32F10x/system_stm32f10x.h"
 278              		.file 6 ".\\stlib\\CMSIS\\CM3\\DeviceSupport\\ST\\STM32F10x/stm32f10x.h"