ARM GAS  C:\Users\skey\AppData\Local\Temp\ccV8noAG.s 			page 1


   1              		.cpu cortex-m3
   2              		.eabi_attribute 20, 1	@ Tag_ABI_FP_denormal
   3              		.eabi_attribute 21, 1	@ Tag_ABI_FP_exceptions
   4              		.eabi_attribute 23, 3	@ Tag_ABI_FP_number_model
   5              		.eabi_attribute 24, 1	@ Tag_ABI_align8_needed
   6              		.eabi_attribute 25, 1	@ Tag_ABI_align8_preserved
   7              		.eabi_attribute 26, 1	@ Tag_ABI_enum_size
   8              		.eabi_attribute 30, 4	@ Tag_ABI_optimization_goals
   9              		.eabi_attribute 34, 1	@ Tag_CPU_unaligned_access
  10              		.eabi_attribute 18, 4	@ Tag_ABI_PCS_wchar_t
  11              		.file	"stm32f10x_rtc.c"
  12              	@ GNU C17 (GNU Tools for Arm Embedded Processors 9-2019-q4-major) version 9.2.1 20191025 (release) 
  13              	@	compiled by GNU C version 5.3.1 20160211, GMP version 6.1.0, MPFR version 3.1.4, MPC version 1.0.
  14              	
  15              	@ GGC heuristics: --param ggc-min-expand=100 --param ggc-min-heapsize=131072
  16              	@ options passed:  -I . -I .\usr_inc -I .\task_inc
  17              	@ -I .\stlib\CMSIS\CM3\CoreSupport
  18              	@ -I .\stlib\CMSIS\CM3\DeviceSupport\ST\STM32F10x
  19              	@ -I .\stlib\STM32F10x_StdPeriph_Driver\inc
  20              	@ -I .\stlib\STM32F10x_StdPeriph_Driver -I .\freertos\include
  21              	@ -I .\freertos\portable\GCC\ARM_CM3 -imultilib thumb/v7-m/nofp
  22              	@ -iprefix c:\program files (x86)\gnu tools arm embedded\9 2019-q4-major\bin\../lib/gcc/arm-none-ea
  23              	@ -isysroot c:\program files (x86)\gnu tools arm embedded\9 2019-q4-major\bin\../arm-none-eabi
  24              	@ -D__USES_INITFINI__ -D STM32F10X_HD -D USE_STDPERIPH_DRIVER
  25              	@ -D HSE_VALUE=8000000 -D RUN_FROM_FLASH=1
  26              	@ .\stlib\STM32F10x_StdPeriph_Driver\src\stm32f10x_rtc.c -mcpu=cortex-m3
  27              	@ -mthumb -mfloat-abi=soft -march=armv7-m
  28              	@ -auxbase-strip .\stlib\STM32F10x_StdPeriph_Driver\src\stm32f10x_rtc.o -g
  29              	@ -gdwarf-2 -Os -Wall -fomit-frame-pointer -fverbose-asm
  30              	@ options enabled:  -faggressive-loop-optimizations -fassume-phsa
  31              	@ -fauto-inc-dec -fbranch-count-reg -fcaller-saves -fcode-hoisting
  32              	@ -fcombine-stack-adjustments -fcommon -fcompare-elim -fcprop-registers
  33              	@ -fcrossjumping -fcse-follow-jumps -fdefer-pop
  34              	@ -fdelete-null-pointer-checks -fdevirtualize -fdevirtualize-speculatively
  35              	@ -fdwarf2-cfi-asm -fearly-inlining -feliminate-unused-debug-types
  36              	@ -fexpensive-optimizations -fforward-propagate -ffp-int-builtin-inexact
  37              	@ -ffunction-cse -fgcse -fgcse-lm -fgnu-runtime -fgnu-unique
  38              	@ -fguess-branch-probability -fhoist-adjacent-loads -fident -fif-conversion
  39              	@ -fif-conversion2 -findirect-inlining -finline -finline-atomics
  40              	@ -finline-functions -finline-functions-called-once
  41              	@ -finline-small-functions -fipa-bit-cp -fipa-cp -fipa-icf
  42              	@ -fipa-icf-functions -fipa-icf-variables -fipa-profile -fipa-pure-const
  43              	@ -fipa-ra -fipa-reference -fipa-reference-addressable -fipa-sra
  44              	@ -fipa-stack-alignment -fipa-vrp -fira-hoist-pressure
  45              	@ -fira-share-save-slots -fira-share-spill-slots
  46              	@ -fisolate-erroneous-paths-dereference -fivopts -fkeep-static-consts
  47              	@ -fleading-underscore -flifetime-dse -flra-remat -flto-odr-type-merging
  48              	@ -fmath-errno -fmerge-constants -fmerge-debug-strings
  49              	@ -fmove-loop-invariants -fomit-frame-pointer -foptimize-sibling-calls
  50              	@ -fpartial-inlining -fpeephole -fpeephole2 -fplt -fprefetch-loop-arrays
  51              	@ -freg-struct-return -freorder-blocks -freorder-functions
  52              	@ -frerun-cse-after-loop -fsched-critical-path-heuristic
  53              	@ -fsched-dep-count-heuristic -fsched-group-heuristic -fsched-interblock
  54              	@ -fsched-last-insn-heuristic -fsched-pressure -fsched-rank-heuristic
  55              	@ -fsched-spec -fsched-spec-insn-heuristic -fsched-stalled-insns-dep
  56              	@ -fschedule-insns2 -fsection-anchors -fsemantic-interposition
  57              	@ -fshow-column -fshrink-wrap-separate -fsigned-zeros
ARM GAS  C:\Users\skey\AppData\Local\Temp\ccV8noAG.s 			page 2


  58              	@ -fsplit-ivs-in-unroller -fsplit-wide-types -fssa-backprop -fssa-phiopt
  59              	@ -fstdarg-opt -fstore-merging -fstrict-aliasing
  60              	@ -fstrict-volatile-bitfields -fsync-libcalls -fthread-jumps
  61              	@ -ftoplevel-reorder -ftrapping-math -ftree-bit-ccp -ftree-builtin-call-dce
  62              	@ -ftree-ccp -ftree-ch -ftree-coalesce-vars -ftree-copy-prop -ftree-cselim
  63              	@ -ftree-dce -ftree-dominator-opts -ftree-dse -ftree-forwprop -ftree-fre
  64              	@ -ftree-loop-if-convert -ftree-loop-im -ftree-loop-ivcanon
  65              	@ -ftree-loop-optimize -ftree-parallelize-loops= -ftree-phiprop -ftree-pre
  66              	@ -ftree-pta -ftree-reassoc -ftree-scev-cprop -ftree-sink -ftree-slsr
  67              	@ -ftree-sra -ftree-switch-conversion -ftree-tail-merge -ftree-ter
  68              	@ -ftree-vrp -funit-at-a-time -fvar-tracking -fvar-tracking-assignments
  69              	@ -fverbose-asm -fzero-initialized-in-bss -masm-syntax-unified -mbe32
  70              	@ -mfix-cortex-m3-ldrd -mlittle-endian -mpic-data-is-text-relative
  71              	@ -msched-prolog -mthumb -munaligned-access -mvectorize-with-neon-quad
  72              	
  73              		.text
  74              	.Ltext0:
  75              		.cfi_sections	.debug_frame
  76              		.align	1
  77              		.global	RTC_ITConfig
  78              		.arch armv7-m
  79              		.syntax unified
  80              		.thumb
  81              		.thumb_func
  82              		.fpu softvfp
  83              		.type	RTC_ITConfig, %function
  84              	RTC_ITConfig:
  85              	.LVL0:
  86              	.LFB29:
  87              		.file 1 ".\\stlib\\STM32F10x_StdPeriph_Driver\\src\\stm32f10x_rtc.c"
   1:.\stlib\STM32F10x_StdPeriph_Driver\src/stm32f10x_rtc.c **** /**
   2:.\stlib\STM32F10x_StdPeriph_Driver\src/stm32f10x_rtc.c ****   ******************************************************************************
   3:.\stlib\STM32F10x_StdPeriph_Driver\src/stm32f10x_rtc.c ****   * @file    stm32f10x_rtc.c
   4:.\stlib\STM32F10x_StdPeriph_Driver\src/stm32f10x_rtc.c ****   * @author  MCD Application Team
   5:.\stlib\STM32F10x_StdPeriph_Driver\src/stm32f10x_rtc.c ****   * @version V3.5.0
   6:.\stlib\STM32F10x_StdPeriph_Driver\src/stm32f10x_rtc.c ****   * @date    11-March-2011
   7:.\stlib\STM32F10x_StdPeriph_Driver\src/stm32f10x_rtc.c ****   * @brief   This file provides all the RTC firmware functions.
   8:.\stlib\STM32F10x_StdPeriph_Driver\src/stm32f10x_rtc.c ****   ******************************************************************************
   9:.\stlib\STM32F10x_StdPeriph_Driver\src/stm32f10x_rtc.c ****   * @attention
  10:.\stlib\STM32F10x_StdPeriph_Driver\src/stm32f10x_rtc.c ****   *
  11:.\stlib\STM32F10x_StdPeriph_Driver\src/stm32f10x_rtc.c ****   * THE PRESENT FIRMWARE WHICH IS FOR GUIDANCE ONLY AIMS AT PROVIDING CUSTOMERS
  12:.\stlib\STM32F10x_StdPeriph_Driver\src/stm32f10x_rtc.c ****   * WITH CODING INFORMATION REGARDING THEIR PRODUCTS IN ORDER FOR THEM TO SAVE
  13:.\stlib\STM32F10x_StdPeriph_Driver\src/stm32f10x_rtc.c ****   * TIME. AS A RESULT, STMICROELECTRONICS SHALL NOT BE HELD LIABLE FOR ANY
  14:.\stlib\STM32F10x_StdPeriph_Driver\src/stm32f10x_rtc.c ****   * DIRECT, INDIRECT OR CONSEQUENTIAL DAMAGES WITH RESPECT TO ANY CLAIMS ARISING
  15:.\stlib\STM32F10x_StdPeriph_Driver\src/stm32f10x_rtc.c ****   * FROM THE CONTENT OF SUCH FIRMWARE AND/OR THE USE MADE BY CUSTOMERS OF THE
  16:.\stlib\STM32F10x_StdPeriph_Driver\src/stm32f10x_rtc.c ****   * CODING INFORMATION CONTAINED HEREIN IN CONNECTION WITH THEIR PRODUCTS.
  17:.\stlib\STM32F10x_StdPeriph_Driver\src/stm32f10x_rtc.c ****   *
  18:.\stlib\STM32F10x_StdPeriph_Driver\src/stm32f10x_rtc.c ****   * <h2><center>&copy; COPYRIGHT 2011 STMicroelectronics</center></h2>
  19:.\stlib\STM32F10x_StdPeriph_Driver\src/stm32f10x_rtc.c ****   ******************************************************************************
  20:.\stlib\STM32F10x_StdPeriph_Driver\src/stm32f10x_rtc.c ****   */
  21:.\stlib\STM32F10x_StdPeriph_Driver\src/stm32f10x_rtc.c **** 
  22:.\stlib\STM32F10x_StdPeriph_Driver\src/stm32f10x_rtc.c **** /* Includes ------------------------------------------------------------------*/
  23:.\stlib\STM32F10x_StdPeriph_Driver\src/stm32f10x_rtc.c **** #include "stm32f10x_rtc.h"
  24:.\stlib\STM32F10x_StdPeriph_Driver\src/stm32f10x_rtc.c **** 
  25:.\stlib\STM32F10x_StdPeriph_Driver\src/stm32f10x_rtc.c **** /** @addtogroup STM32F10x_StdPeriph_Driver
  26:.\stlib\STM32F10x_StdPeriph_Driver\src/stm32f10x_rtc.c ****   * @{
  27:.\stlib\STM32F10x_StdPeriph_Driver\src/stm32f10x_rtc.c ****   */
ARM GAS  C:\Users\skey\AppData\Local\Temp\ccV8noAG.s 			page 3


  28:.\stlib\STM32F10x_StdPeriph_Driver\src/stm32f10x_rtc.c **** 
  29:.\stlib\STM32F10x_StdPeriph_Driver\src/stm32f10x_rtc.c **** /** @defgroup RTC 
  30:.\stlib\STM32F10x_StdPeriph_Driver\src/stm32f10x_rtc.c ****   * @brief RTC driver modules
  31:.\stlib\STM32F10x_StdPeriph_Driver\src/stm32f10x_rtc.c ****   * @{
  32:.\stlib\STM32F10x_StdPeriph_Driver\src/stm32f10x_rtc.c ****   */
  33:.\stlib\STM32F10x_StdPeriph_Driver\src/stm32f10x_rtc.c **** 
  34:.\stlib\STM32F10x_StdPeriph_Driver\src/stm32f10x_rtc.c **** /** @defgroup RTC_Private_TypesDefinitions
  35:.\stlib\STM32F10x_StdPeriph_Driver\src/stm32f10x_rtc.c ****   * @{
  36:.\stlib\STM32F10x_StdPeriph_Driver\src/stm32f10x_rtc.c ****   */ 
  37:.\stlib\STM32F10x_StdPeriph_Driver\src/stm32f10x_rtc.c **** /**
  38:.\stlib\STM32F10x_StdPeriph_Driver\src/stm32f10x_rtc.c ****   * @}
  39:.\stlib\STM32F10x_StdPeriph_Driver\src/stm32f10x_rtc.c ****   */
  40:.\stlib\STM32F10x_StdPeriph_Driver\src/stm32f10x_rtc.c **** 
  41:.\stlib\STM32F10x_StdPeriph_Driver\src/stm32f10x_rtc.c **** /** @defgroup RTC_Private_Defines
  42:.\stlib\STM32F10x_StdPeriph_Driver\src/stm32f10x_rtc.c ****   * @{
  43:.\stlib\STM32F10x_StdPeriph_Driver\src/stm32f10x_rtc.c ****   */
  44:.\stlib\STM32F10x_StdPeriph_Driver\src/stm32f10x_rtc.c **** #define RTC_LSB_MASK     ((uint32_t)0x0000FFFF)  /*!< RTC LSB Mask */
  45:.\stlib\STM32F10x_StdPeriph_Driver\src/stm32f10x_rtc.c **** #define PRLH_MSB_MASK    ((uint32_t)0x000F0000)  /*!< RTC Prescaler MSB Mask */
  46:.\stlib\STM32F10x_StdPeriph_Driver\src/stm32f10x_rtc.c **** 
  47:.\stlib\STM32F10x_StdPeriph_Driver\src/stm32f10x_rtc.c **** /**
  48:.\stlib\STM32F10x_StdPeriph_Driver\src/stm32f10x_rtc.c ****   * @}
  49:.\stlib\STM32F10x_StdPeriph_Driver\src/stm32f10x_rtc.c ****   */
  50:.\stlib\STM32F10x_StdPeriph_Driver\src/stm32f10x_rtc.c **** 
  51:.\stlib\STM32F10x_StdPeriph_Driver\src/stm32f10x_rtc.c **** /** @defgroup RTC_Private_Macros
  52:.\stlib\STM32F10x_StdPeriph_Driver\src/stm32f10x_rtc.c ****   * @{
  53:.\stlib\STM32F10x_StdPeriph_Driver\src/stm32f10x_rtc.c ****   */
  54:.\stlib\STM32F10x_StdPeriph_Driver\src/stm32f10x_rtc.c **** 
  55:.\stlib\STM32F10x_StdPeriph_Driver\src/stm32f10x_rtc.c **** /**
  56:.\stlib\STM32F10x_StdPeriph_Driver\src/stm32f10x_rtc.c ****   * @}
  57:.\stlib\STM32F10x_StdPeriph_Driver\src/stm32f10x_rtc.c ****   */
  58:.\stlib\STM32F10x_StdPeriph_Driver\src/stm32f10x_rtc.c **** 
  59:.\stlib\STM32F10x_StdPeriph_Driver\src/stm32f10x_rtc.c **** /** @defgroup RTC_Private_Variables
  60:.\stlib\STM32F10x_StdPeriph_Driver\src/stm32f10x_rtc.c ****   * @{
  61:.\stlib\STM32F10x_StdPeriph_Driver\src/stm32f10x_rtc.c ****   */
  62:.\stlib\STM32F10x_StdPeriph_Driver\src/stm32f10x_rtc.c **** 
  63:.\stlib\STM32F10x_StdPeriph_Driver\src/stm32f10x_rtc.c **** /**
  64:.\stlib\STM32F10x_StdPeriph_Driver\src/stm32f10x_rtc.c ****   * @}
  65:.\stlib\STM32F10x_StdPeriph_Driver\src/stm32f10x_rtc.c ****   */
  66:.\stlib\STM32F10x_StdPeriph_Driver\src/stm32f10x_rtc.c **** 
  67:.\stlib\STM32F10x_StdPeriph_Driver\src/stm32f10x_rtc.c **** /** @defgroup RTC_Private_FunctionPrototypes
  68:.\stlib\STM32F10x_StdPeriph_Driver\src/stm32f10x_rtc.c ****   * @{
  69:.\stlib\STM32F10x_StdPeriph_Driver\src/stm32f10x_rtc.c ****   */
  70:.\stlib\STM32F10x_StdPeriph_Driver\src/stm32f10x_rtc.c **** 
  71:.\stlib\STM32F10x_StdPeriph_Driver\src/stm32f10x_rtc.c **** /**
  72:.\stlib\STM32F10x_StdPeriph_Driver\src/stm32f10x_rtc.c ****   * @}
  73:.\stlib\STM32F10x_StdPeriph_Driver\src/stm32f10x_rtc.c ****   */
  74:.\stlib\STM32F10x_StdPeriph_Driver\src/stm32f10x_rtc.c **** 
  75:.\stlib\STM32F10x_StdPeriph_Driver\src/stm32f10x_rtc.c **** /** @defgroup RTC_Private_Functions
  76:.\stlib\STM32F10x_StdPeriph_Driver\src/stm32f10x_rtc.c ****   * @{
  77:.\stlib\STM32F10x_StdPeriph_Driver\src/stm32f10x_rtc.c ****   */
  78:.\stlib\STM32F10x_StdPeriph_Driver\src/stm32f10x_rtc.c **** 
  79:.\stlib\STM32F10x_StdPeriph_Driver\src/stm32f10x_rtc.c **** /**
  80:.\stlib\STM32F10x_StdPeriph_Driver\src/stm32f10x_rtc.c ****   * @brief  Enables or disables the specified RTC interrupts.
  81:.\stlib\STM32F10x_StdPeriph_Driver\src/stm32f10x_rtc.c ****   * @param  RTC_IT: specifies the RTC interrupts sources to be enabled or disabled.
  82:.\stlib\STM32F10x_StdPeriph_Driver\src/stm32f10x_rtc.c ****   *   This parameter can be any combination of the following values:
  83:.\stlib\STM32F10x_StdPeriph_Driver\src/stm32f10x_rtc.c ****   *     @arg RTC_IT_OW: Overflow interrupt
  84:.\stlib\STM32F10x_StdPeriph_Driver\src/stm32f10x_rtc.c ****   *     @arg RTC_IT_ALR: Alarm interrupt
ARM GAS  C:\Users\skey\AppData\Local\Temp\ccV8noAG.s 			page 4


  85:.\stlib\STM32F10x_StdPeriph_Driver\src/stm32f10x_rtc.c ****   *     @arg RTC_IT_SEC: Second interrupt
  86:.\stlib\STM32F10x_StdPeriph_Driver\src/stm32f10x_rtc.c ****   * @param  NewState: new state of the specified RTC interrupts.
  87:.\stlib\STM32F10x_StdPeriph_Driver\src/stm32f10x_rtc.c ****   *   This parameter can be: ENABLE or DISABLE.
  88:.\stlib\STM32F10x_StdPeriph_Driver\src/stm32f10x_rtc.c ****   * @retval None
  89:.\stlib\STM32F10x_StdPeriph_Driver\src/stm32f10x_rtc.c ****   */
  90:.\stlib\STM32F10x_StdPeriph_Driver\src/stm32f10x_rtc.c **** void RTC_ITConfig(uint16_t RTC_IT, FunctionalState NewState)
  91:.\stlib\STM32F10x_StdPeriph_Driver\src/stm32f10x_rtc.c **** {
  88              		.loc 1 91 1 view -0
  89              		.cfi_startproc
  90              		@ args = 0, pretend = 0, frame = 0
  91              		@ frame_needed = 0, uses_anonymous_args = 0
  92              		@ link register save eliminated.
  92:.\stlib\STM32F10x_StdPeriph_Driver\src/stm32f10x_rtc.c ****   /* Check the parameters */
  93:.\stlib\STM32F10x_StdPeriph_Driver\src/stm32f10x_rtc.c ****   assert_param(IS_RTC_IT(RTC_IT));  
  93              		.loc 1 93 3 view .LVU1
  94:.\stlib\STM32F10x_StdPeriph_Driver\src/stm32f10x_rtc.c ****   assert_param(IS_FUNCTIONAL_STATE(NewState));
  94              		.loc 1 94 3 view .LVU2
  95:.\stlib\STM32F10x_StdPeriph_Driver\src/stm32f10x_rtc.c ****   
  96:.\stlib\STM32F10x_StdPeriph_Driver\src/stm32f10x_rtc.c ****   if (NewState != DISABLE)
  95              		.loc 1 96 3 view .LVU3
  96 0000 044A     		ldr	r2, .L5	@ tmp129,
  97              	@ .\stlib\STM32F10x_StdPeriph_Driver\src\stm32f10x_rtc.c:98:     RTC->CRH |= RTC_IT;
  97:.\stlib\STM32F10x_StdPeriph_Driver\src/stm32f10x_rtc.c ****   {
  98:.\stlib\STM32F10x_StdPeriph_Driver\src/stm32f10x_rtc.c ****     RTC->CRH |= RTC_IT;
  98              		.loc 1 98 14 is_stmt 0 view .LVU4
  99 0002 1388     		ldrh	r3, [r2]	@,
 100 0004 9BB2     		uxth	r3, r3	@ _1, MEM[(struct RTC_TypeDef *)1073752064B].CRH
 101              	@ .\stlib\STM32F10x_StdPeriph_Driver\src\stm32f10x_rtc.c:96:   if (NewState != DISABLE)
  96:.\stlib\STM32F10x_StdPeriph_Driver\src/stm32f10x_rtc.c ****   {
 102              		.loc 1 96 6 view .LVU5
 103 0006 11B1     		cbz	r1, .L2	@ tmp131,
 104              		.loc 1 98 5 is_stmt 1 view .LVU6
 105              	@ .\stlib\STM32F10x_StdPeriph_Driver\src\stm32f10x_rtc.c:98:     RTC->CRH |= RTC_IT;
 106              		.loc 1 98 14 is_stmt 0 view .LVU7
 107 0008 1843     		orrs	r0, r0, r3	@, _2, RTC_IT, _1
 108              	.LVL1:
 109              	.L4:
 110              	@ .\stlib\STM32F10x_StdPeriph_Driver\src\stm32f10x_rtc.c:102:     RTC->CRH &= (uint16_t)~RTC_IT;
  99:.\stlib\STM32F10x_StdPeriph_Driver\src/stm32f10x_rtc.c ****   }
 100:.\stlib\STM32F10x_StdPeriph_Driver\src/stm32f10x_rtc.c ****   else
 101:.\stlib\STM32F10x_StdPeriph_Driver\src/stm32f10x_rtc.c ****   {
 102:.\stlib\STM32F10x_StdPeriph_Driver\src/stm32f10x_rtc.c ****     RTC->CRH &= (uint16_t)~RTC_IT;
 111              		.loc 1 102 14 view .LVU8
 112 000a 1080     		strh	r0, [r2]	@ movhi	@ _5,
 113              	@ .\stlib\STM32F10x_StdPeriph_Driver\src\stm32f10x_rtc.c:104: }
 103:.\stlib\STM32F10x_StdPeriph_Driver\src/stm32f10x_rtc.c ****   }
 104:.\stlib\STM32F10x_StdPeriph_Driver\src/stm32f10x_rtc.c **** }
 114              		.loc 1 104 1 view .LVU9
 115 000c 7047     		bx	lr	@
 116              	.LVL2:
 117              	.L2:
 102:.\stlib\STM32F10x_StdPeriph_Driver\src/stm32f10x_rtc.c ****   }
 118              		.loc 1 102 5 is_stmt 1 view .LVU10
 119              	@ .\stlib\STM32F10x_StdPeriph_Driver\src\stm32f10x_rtc.c:102:     RTC->CRH &= (uint16_t)~RTC_IT;
 102:.\stlib\STM32F10x_StdPeriph_Driver\src/stm32f10x_rtc.c ****   }
 120              		.loc 1 102 14 is_stmt 0 view .LVU11
 121 000e 23EA0000 		bic	r0, r3, r0	@ _5, _3, RTC_IT
ARM GAS  C:\Users\skey\AppData\Local\Temp\ccV8noAG.s 			page 5


 122              	.LVL3:
 102:.\stlib\STM32F10x_StdPeriph_Driver\src/stm32f10x_rtc.c ****   }
 123              		.loc 1 102 14 view .LVU12
 124 0012 FAE7     		b	.L4		@
 125              	.L6:
 126              		.align	2
 127              	.L5:
 128 0014 00280040 		.word	1073752064
 129              		.cfi_endproc
 130              	.LFE29:
 131              		.size	RTC_ITConfig, .-RTC_ITConfig
 132              		.align	1
 133              		.global	RTC_EnterConfigMode
 134              		.syntax unified
 135              		.thumb
 136              		.thumb_func
 137              		.fpu softvfp
 138              		.type	RTC_EnterConfigMode, %function
 139              	RTC_EnterConfigMode:
 140              	.LFB30:
 105:.\stlib\STM32F10x_StdPeriph_Driver\src/stm32f10x_rtc.c **** 
 106:.\stlib\STM32F10x_StdPeriph_Driver\src/stm32f10x_rtc.c **** /**
 107:.\stlib\STM32F10x_StdPeriph_Driver\src/stm32f10x_rtc.c ****   * @brief  Enters the RTC configuration mode.
 108:.\stlib\STM32F10x_StdPeriph_Driver\src/stm32f10x_rtc.c ****   * @param  None
 109:.\stlib\STM32F10x_StdPeriph_Driver\src/stm32f10x_rtc.c ****   * @retval None
 110:.\stlib\STM32F10x_StdPeriph_Driver\src/stm32f10x_rtc.c ****   */
 111:.\stlib\STM32F10x_StdPeriph_Driver\src/stm32f10x_rtc.c **** void RTC_EnterConfigMode(void)
 112:.\stlib\STM32F10x_StdPeriph_Driver\src/stm32f10x_rtc.c **** {
 141              		.loc 1 112 1 is_stmt 1 view -0
 142              		.cfi_startproc
 143              		@ args = 0, pretend = 0, frame = 0
 144              		@ frame_needed = 0, uses_anonymous_args = 0
 145              		@ link register save eliminated.
 113:.\stlib\STM32F10x_StdPeriph_Driver\src/stm32f10x_rtc.c ****   /* Set the CNF flag to enter in the Configuration Mode */
 114:.\stlib\STM32F10x_StdPeriph_Driver\src/stm32f10x_rtc.c ****   RTC->CRL |= RTC_CRL_CNF;
 146              		.loc 1 114 3 view .LVU14
 147              	@ .\stlib\STM32F10x_StdPeriph_Driver\src\stm32f10x_rtc.c:114:   RTC->CRL |= RTC_CRL_CNF;
 148              		.loc 1 114 12 is_stmt 0 view .LVU15
 149 0018 034A     		ldr	r2, .L8	@ tmp112,
 150 001a 9388     		ldrh	r3, [r2, #4]	@, MEM[(struct RTC_TypeDef *)1073752064B].CRL
 151 001c 9BB2     		uxth	r3, r3	@ _1, MEM[(struct RTC_TypeDef *)1073752064B].CRL
 152 001e 43F01003 		orr	r3, r3, #16	@ _2, _1,
 153 0022 9380     		strh	r3, [r2, #4]	@ movhi	@ _2, MEM[(struct RTC_TypeDef *)1073752064B].CRL
 154              	@ .\stlib\STM32F10x_StdPeriph_Driver\src\stm32f10x_rtc.c:115: }
 115:.\stlib\STM32F10x_StdPeriph_Driver\src/stm32f10x_rtc.c **** }
 155              		.loc 1 115 1 view .LVU16
 156 0024 7047     		bx	lr	@
 157              	.L9:
 158 0026 00BF     		.align	2
 159              	.L8:
 160 0028 00280040 		.word	1073752064
 161              		.cfi_endproc
 162              	.LFE30:
 163              		.size	RTC_EnterConfigMode, .-RTC_EnterConfigMode
 164              		.align	1
 165              		.global	RTC_ExitConfigMode
 166              		.syntax unified
ARM GAS  C:\Users\skey\AppData\Local\Temp\ccV8noAG.s 			page 6


 167              		.thumb
 168              		.thumb_func
 169              		.fpu softvfp
 170              		.type	RTC_ExitConfigMode, %function
 171              	RTC_ExitConfigMode:
 172              	.LFB31:
 116:.\stlib\STM32F10x_StdPeriph_Driver\src/stm32f10x_rtc.c **** 
 117:.\stlib\STM32F10x_StdPeriph_Driver\src/stm32f10x_rtc.c **** /**
 118:.\stlib\STM32F10x_StdPeriph_Driver\src/stm32f10x_rtc.c ****   * @brief  Exits from the RTC configuration mode.
 119:.\stlib\STM32F10x_StdPeriph_Driver\src/stm32f10x_rtc.c ****   * @param  None
 120:.\stlib\STM32F10x_StdPeriph_Driver\src/stm32f10x_rtc.c ****   * @retval None
 121:.\stlib\STM32F10x_StdPeriph_Driver\src/stm32f10x_rtc.c ****   */
 122:.\stlib\STM32F10x_StdPeriph_Driver\src/stm32f10x_rtc.c **** void RTC_ExitConfigMode(void)
 123:.\stlib\STM32F10x_StdPeriph_Driver\src/stm32f10x_rtc.c **** {
 173              		.loc 1 123 1 is_stmt 1 view -0
 174              		.cfi_startproc
 175              		@ args = 0, pretend = 0, frame = 0
 176              		@ frame_needed = 0, uses_anonymous_args = 0
 177              		@ link register save eliminated.
 124:.\stlib\STM32F10x_StdPeriph_Driver\src/stm32f10x_rtc.c ****   /* Reset the CNF flag to exit from the Configuration Mode */
 125:.\stlib\STM32F10x_StdPeriph_Driver\src/stm32f10x_rtc.c ****   RTC->CRL &= (uint16_t)~((uint16_t)RTC_CRL_CNF); 
 178              		.loc 1 125 3 view .LVU18
 179              	@ .\stlib\STM32F10x_StdPeriph_Driver\src\stm32f10x_rtc.c:125:   RTC->CRL &= (uint16_t)~((uint16_t)R
 180              		.loc 1 125 12 is_stmt 0 view .LVU19
 181 002c 034A     		ldr	r2, .L11	@ tmp112,
 182 002e 9388     		ldrh	r3, [r2, #4]	@, MEM[(struct RTC_TypeDef *)1073752064B].CRL
 183 0030 23F01003 		bic	r3, r3, #16	@ _2, MEM[(struct RTC_TypeDef *)1073752064B].CRL,
 184 0034 1B04     		lsls	r3, r3, #16	@ _2, _2,
 185 0036 1B0C     		lsrs	r3, r3, #16	@ _2, _2,
 186 0038 9380     		strh	r3, [r2, #4]	@ movhi	@ _2, MEM[(struct RTC_TypeDef *)1073752064B].CRL
 187              	@ .\stlib\STM32F10x_StdPeriph_Driver\src\stm32f10x_rtc.c:126: }
 126:.\stlib\STM32F10x_StdPeriph_Driver\src/stm32f10x_rtc.c **** }
 188              		.loc 1 126 1 view .LVU20
 189 003a 7047     		bx	lr	@
 190              	.L12:
 191              		.align	2
 192              	.L11:
 193 003c 00280040 		.word	1073752064
 194              		.cfi_endproc
 195              	.LFE31:
 196              		.size	RTC_ExitConfigMode, .-RTC_ExitConfigMode
 197              		.align	1
 198              		.global	RTC_GetCounter
 199              		.syntax unified
 200              		.thumb
 201              		.thumb_func
 202              		.fpu softvfp
 203              		.type	RTC_GetCounter, %function
 204              	RTC_GetCounter:
 205              	.LFB32:
 127:.\stlib\STM32F10x_StdPeriph_Driver\src/stm32f10x_rtc.c **** 
 128:.\stlib\STM32F10x_StdPeriph_Driver\src/stm32f10x_rtc.c **** /**
 129:.\stlib\STM32F10x_StdPeriph_Driver\src/stm32f10x_rtc.c ****   * @brief  Gets the RTC counter value.
 130:.\stlib\STM32F10x_StdPeriph_Driver\src/stm32f10x_rtc.c ****   * @param  None
 131:.\stlib\STM32F10x_StdPeriph_Driver\src/stm32f10x_rtc.c ****   * @retval RTC counter value.
 132:.\stlib\STM32F10x_StdPeriph_Driver\src/stm32f10x_rtc.c ****   */
 133:.\stlib\STM32F10x_StdPeriph_Driver\src/stm32f10x_rtc.c **** uint32_t RTC_GetCounter(void)
ARM GAS  C:\Users\skey\AppData\Local\Temp\ccV8noAG.s 			page 7


 134:.\stlib\STM32F10x_StdPeriph_Driver\src/stm32f10x_rtc.c **** {
 206              		.loc 1 134 1 is_stmt 1 view -0
 207              		.cfi_startproc
 208              		@ args = 0, pretend = 0, frame = 0
 209              		@ frame_needed = 0, uses_anonymous_args = 0
 210              		@ link register save eliminated.
 135:.\stlib\STM32F10x_StdPeriph_Driver\src/stm32f10x_rtc.c ****   uint16_t tmp = 0;
 211              		.loc 1 135 3 view .LVU22
 212              	.LVL4:
 136:.\stlib\STM32F10x_StdPeriph_Driver\src/stm32f10x_rtc.c ****   tmp = RTC->CNTL;
 213              		.loc 1 136 3 view .LVU23
 214              	@ .\stlib\STM32F10x_StdPeriph_Driver\src\stm32f10x_rtc.c:136:   tmp = RTC->CNTL;
 215              		.loc 1 136 7 is_stmt 0 view .LVU24
 216 0040 034A     		ldr	r2, .L14	@ tmp116,
 217 0042 938B     		ldrh	r3, [r2, #28]	@, MEM[(struct RTC_TypeDef *)1073752064B].CNTL
 218              	@ .\stlib\STM32F10x_StdPeriph_Driver\src\stm32f10x_rtc.c:137:   return (((uint32_t)RTC->CNTH << 16 
 137:.\stlib\STM32F10x_StdPeriph_Driver\src/stm32f10x_rtc.c ****   return (((uint32_t)RTC->CNTH << 16 ) | tmp) ;
 219              		.loc 1 137 25 view .LVU25
 220 0044 108B     		ldrh	r0, [r2, #24]	@, MEM[(struct RTC_TypeDef *)1073752064B].CNTH
 221              	@ .\stlib\STM32F10x_StdPeriph_Driver\src\stm32f10x_rtc.c:136:   tmp = RTC->CNTL;
 136:.\stlib\STM32F10x_StdPeriph_Driver\src/stm32f10x_rtc.c ****   tmp = RTC->CNTL;
 222              		.loc 1 136 7 view .LVU26
 223 0046 9BB2     		uxth	r3, r3	@ tmp, MEM[(struct RTC_TypeDef *)1073752064B].CNTL
 224              	.LVL5:
 225              		.loc 1 137 3 is_stmt 1 view .LVU27
 226              	@ .\stlib\STM32F10x_StdPeriph_Driver\src\stm32f10x_rtc.c:138: }
 138:.\stlib\STM32F10x_StdPeriph_Driver\src/stm32f10x_rtc.c **** }
 227              		.loc 1 138 1 is_stmt 0 view .LVU28
 228 0048 43EA0040 		orr	r0, r3, r0, lsl #16	@, tmp, MEM[(struct RTC_TypeDef *)1073752064B].CNTH,
 229 004c 7047     		bx	lr	@
 230              	.L15:
 231 004e 00BF     		.align	2
 232              	.L14:
 233 0050 00280040 		.word	1073752064
 234              		.cfi_endproc
 235              	.LFE32:
 236              		.size	RTC_GetCounter, .-RTC_GetCounter
 237              		.align	1
 238              		.global	RTC_SetCounter
 239              		.syntax unified
 240              		.thumb
 241              		.thumb_func
 242              		.fpu softvfp
 243              		.type	RTC_SetCounter, %function
 244              	RTC_SetCounter:
 245              	.LVL6:
 246              	.LFB33:
 139:.\stlib\STM32F10x_StdPeriph_Driver\src/stm32f10x_rtc.c **** 
 140:.\stlib\STM32F10x_StdPeriph_Driver\src/stm32f10x_rtc.c **** /**
 141:.\stlib\STM32F10x_StdPeriph_Driver\src/stm32f10x_rtc.c ****   * @brief  Sets the RTC counter value.
 142:.\stlib\STM32F10x_StdPeriph_Driver\src/stm32f10x_rtc.c ****   * @param  CounterValue: RTC counter new value.
 143:.\stlib\STM32F10x_StdPeriph_Driver\src/stm32f10x_rtc.c ****   * @retval None
 144:.\stlib\STM32F10x_StdPeriph_Driver\src/stm32f10x_rtc.c ****   */
 145:.\stlib\STM32F10x_StdPeriph_Driver\src/stm32f10x_rtc.c **** void RTC_SetCounter(uint32_t CounterValue)
 146:.\stlib\STM32F10x_StdPeriph_Driver\src/stm32f10x_rtc.c **** { 
 247              		.loc 1 146 1 is_stmt 1 view -0
 248              		.cfi_startproc
ARM GAS  C:\Users\skey\AppData\Local\Temp\ccV8noAG.s 			page 8


 249              		@ args = 0, pretend = 0, frame = 0
 250              		@ frame_needed = 0, uses_anonymous_args = 0
 147:.\stlib\STM32F10x_StdPeriph_Driver\src/stm32f10x_rtc.c ****   RTC_EnterConfigMode();
 251              		.loc 1 147 3 view .LVU30
 252              	@ .\stlib\STM32F10x_StdPeriph_Driver\src\stm32f10x_rtc.c:146: { 
 146:.\stlib\STM32F10x_StdPeriph_Driver\src/stm32f10x_rtc.c ****   RTC_EnterConfigMode();
 253              		.loc 1 146 1 is_stmt 0 view .LVU31
 254 0054 08B5     		push	{r3, lr}	@
 255              	.LCFI0:
 256              		.cfi_def_cfa_offset 8
 257              		.cfi_offset 3, -8
 258              		.cfi_offset 14, -4
 259              	@ .\stlib\STM32F10x_StdPeriph_Driver\src\stm32f10x_rtc.c:147:   RTC_EnterConfigMode();
 260              		.loc 1 147 3 view .LVU32
 261 0056 FFF7FEFF 		bl	RTC_EnterConfigMode		@
 262              	.LVL7:
 148:.\stlib\STM32F10x_StdPeriph_Driver\src/stm32f10x_rtc.c ****   /* Set RTC COUNTER MSB word */
 149:.\stlib\STM32F10x_StdPeriph_Driver\src/stm32f10x_rtc.c ****   RTC->CNTH = CounterValue >> 16;
 263              		.loc 1 149 3 is_stmt 1 view .LVU33
 264              	@ .\stlib\STM32F10x_StdPeriph_Driver\src\stm32f10x_rtc.c:149:   RTC->CNTH = CounterValue >> 16;
 265              		.loc 1 149 13 is_stmt 0 view .LVU34
 266 005a 044B     		ldr	r3, .L17	@ tmp115,
 267 005c 020C     		lsrs	r2, r0, #16	@ _2, CounterValue,
 268              	@ .\stlib\STM32F10x_StdPeriph_Driver\src\stm32f10x_rtc.c:151:   RTC->CNTL = (CounterValue & RTC_LSB
 150:.\stlib\STM32F10x_StdPeriph_Driver\src/stm32f10x_rtc.c ****   /* Set RTC COUNTER LSB word */
 151:.\stlib\STM32F10x_StdPeriph_Driver\src/stm32f10x_rtc.c ****   RTC->CNTL = (CounterValue & RTC_LSB_MASK);
 269              		.loc 1 151 13 view .LVU35
 270 005e 80B2     		uxth	r0, r0	@ _3, CounterValue
 271              	.LVL8:
 272              	@ .\stlib\STM32F10x_StdPeriph_Driver\src\stm32f10x_rtc.c:149:   RTC->CNTH = CounterValue >> 16;
 149:.\stlib\STM32F10x_StdPeriph_Driver\src/stm32f10x_rtc.c ****   /* Set RTC COUNTER LSB word */
 273              		.loc 1 149 13 view .LVU36
 274 0060 1A83     		strh	r2, [r3, #24]	@ movhi	@ _2, MEM[(struct RTC_TypeDef *)1073752064B].CNTH
 275              		.loc 1 151 3 is_stmt 1 view .LVU37
 276              	@ .\stlib\STM32F10x_StdPeriph_Driver\src\stm32f10x_rtc.c:151:   RTC->CNTL = (CounterValue & RTC_LSB
 277              		.loc 1 151 13 is_stmt 0 view .LVU38
 278 0062 9883     		strh	r0, [r3, #28]	@ movhi	@ _3, MEM[(struct RTC_TypeDef *)1073752064B].CNTL
 152:.\stlib\STM32F10x_StdPeriph_Driver\src/stm32f10x_rtc.c ****   RTC_ExitConfigMode();
 279              		.loc 1 152 3 is_stmt 1 view .LVU39
 280              	@ .\stlib\STM32F10x_StdPeriph_Driver\src\stm32f10x_rtc.c:153: }
 153:.\stlib\STM32F10x_StdPeriph_Driver\src/stm32f10x_rtc.c **** }
 281              		.loc 1 153 1 is_stmt 0 view .LVU40
 282 0064 BDE80840 		pop	{r3, lr}	@
 283              	.LCFI1:
 284              		.cfi_restore 14
 285              		.cfi_restore 3
 286              		.cfi_def_cfa_offset 0
 287              	@ .\stlib\STM32F10x_StdPeriph_Driver\src\stm32f10x_rtc.c:152:   RTC_ExitConfigMode();
 152:.\stlib\STM32F10x_StdPeriph_Driver\src/stm32f10x_rtc.c ****   RTC_ExitConfigMode();
 288              		.loc 1 152 3 view .LVU41
 289 0068 FFF7FEBF 		b	RTC_ExitConfigMode		@
 290              	.LVL9:
 291              	.L18:
 292              		.align	2
 293              	.L17:
 294 006c 00280040 		.word	1073752064
 295              		.cfi_endproc
ARM GAS  C:\Users\skey\AppData\Local\Temp\ccV8noAG.s 			page 9


 296              	.LFE33:
 297              		.size	RTC_SetCounter, .-RTC_SetCounter
 298              		.align	1
 299              		.global	RTC_SetPrescaler
 300              		.syntax unified
 301              		.thumb
 302              		.thumb_func
 303              		.fpu softvfp
 304              		.type	RTC_SetPrescaler, %function
 305              	RTC_SetPrescaler:
 306              	.LVL10:
 307              	.LFB34:
 154:.\stlib\STM32F10x_StdPeriph_Driver\src/stm32f10x_rtc.c **** 
 155:.\stlib\STM32F10x_StdPeriph_Driver\src/stm32f10x_rtc.c **** /**
 156:.\stlib\STM32F10x_StdPeriph_Driver\src/stm32f10x_rtc.c ****   * @brief  Sets the RTC prescaler value.
 157:.\stlib\STM32F10x_StdPeriph_Driver\src/stm32f10x_rtc.c ****   * @param  PrescalerValue: RTC prescaler new value.
 158:.\stlib\STM32F10x_StdPeriph_Driver\src/stm32f10x_rtc.c ****   * @retval None
 159:.\stlib\STM32F10x_StdPeriph_Driver\src/stm32f10x_rtc.c ****   */
 160:.\stlib\STM32F10x_StdPeriph_Driver\src/stm32f10x_rtc.c **** void RTC_SetPrescaler(uint32_t PrescalerValue)
 161:.\stlib\STM32F10x_StdPeriph_Driver\src/stm32f10x_rtc.c **** {
 308              		.loc 1 161 1 is_stmt 1 view -0
 309              		.cfi_startproc
 310              		@ args = 0, pretend = 0, frame = 0
 311              		@ frame_needed = 0, uses_anonymous_args = 0
 162:.\stlib\STM32F10x_StdPeriph_Driver\src/stm32f10x_rtc.c ****   /* Check the parameters */
 163:.\stlib\STM32F10x_StdPeriph_Driver\src/stm32f10x_rtc.c ****   assert_param(IS_RTC_PRESCALER(PrescalerValue));
 312              		.loc 1 163 3 view .LVU43
 164:.\stlib\STM32F10x_StdPeriph_Driver\src/stm32f10x_rtc.c ****   
 165:.\stlib\STM32F10x_StdPeriph_Driver\src/stm32f10x_rtc.c ****   RTC_EnterConfigMode();
 313              		.loc 1 165 3 view .LVU44
 314              	@ .\stlib\STM32F10x_StdPeriph_Driver\src\stm32f10x_rtc.c:161: {
 161:.\stlib\STM32F10x_StdPeriph_Driver\src/stm32f10x_rtc.c ****   /* Check the parameters */
 315              		.loc 1 161 1 is_stmt 0 view .LVU45
 316 0070 08B5     		push	{r3, lr}	@
 317              	.LCFI2:
 318              		.cfi_def_cfa_offset 8
 319              		.cfi_offset 3, -8
 320              		.cfi_offset 14, -4
 321              	@ .\stlib\STM32F10x_StdPeriph_Driver\src\stm32f10x_rtc.c:165:   RTC_EnterConfigMode();
 322              		.loc 1 165 3 view .LVU46
 323 0072 FFF7FEFF 		bl	RTC_EnterConfigMode		@
 324              	.LVL11:
 166:.\stlib\STM32F10x_StdPeriph_Driver\src/stm32f10x_rtc.c ****   /* Set RTC PRESCALER MSB word */
 167:.\stlib\STM32F10x_StdPeriph_Driver\src/stm32f10x_rtc.c ****   RTC->PRLH = (PrescalerValue & PRLH_MSB_MASK) >> 16;
 325              		.loc 1 167 3 is_stmt 1 view .LVU47
 326              	@ .\stlib\STM32F10x_StdPeriph_Driver\src\stm32f10x_rtc.c:167:   RTC->PRLH = (PrescalerValue & PRLH_
 327              		.loc 1 167 13 is_stmt 0 view .LVU48
 328 0076 054B     		ldr	r3, .L20	@ tmp118,
 329              	@ .\stlib\STM32F10x_StdPeriph_Driver\src\stm32f10x_rtc.c:167:   RTC->PRLH = (PrescalerValue & PRLH_
 330              		.loc 1 167 48 view .LVU49
 331 0078 C0F30342 		ubfx	r2, r0, #16, #4	@ _3, PrescalerValue,,
 332              	@ .\stlib\STM32F10x_StdPeriph_Driver\src\stm32f10x_rtc.c:169:   RTC->PRLL = (PrescalerValue & RTC_L
 168:.\stlib\STM32F10x_StdPeriph_Driver\src/stm32f10x_rtc.c ****   /* Set RTC PRESCALER LSB word */
 169:.\stlib\STM32F10x_StdPeriph_Driver\src/stm32f10x_rtc.c ****   RTC->PRLL = (PrescalerValue & RTC_LSB_MASK);
 333              		.loc 1 169 13 view .LVU50
 334 007c 80B2     		uxth	r0, r0	@ _4, PrescalerValue
 335              	.LVL12:
ARM GAS  C:\Users\skey\AppData\Local\Temp\ccV8noAG.s 			page 10


 336              	@ .\stlib\STM32F10x_StdPeriph_Driver\src\stm32f10x_rtc.c:167:   RTC->PRLH = (PrescalerValue & PRLH_
 167:.\stlib\STM32F10x_StdPeriph_Driver\src/stm32f10x_rtc.c ****   /* Set RTC PRESCALER LSB word */
 337              		.loc 1 167 13 view .LVU51
 338 007e 1A81     		strh	r2, [r3, #8]	@ movhi	@ _3, MEM[(struct RTC_TypeDef *)1073752064B].PRLH
 339              		.loc 1 169 3 is_stmt 1 view .LVU52
 340              	@ .\stlib\STM32F10x_StdPeriph_Driver\src\stm32f10x_rtc.c:169:   RTC->PRLL = (PrescalerValue & RTC_L
 341              		.loc 1 169 13 is_stmt 0 view .LVU53
 342 0080 9881     		strh	r0, [r3, #12]	@ movhi	@ _4, MEM[(struct RTC_TypeDef *)1073752064B].PRLL
 170:.\stlib\STM32F10x_StdPeriph_Driver\src/stm32f10x_rtc.c ****   RTC_ExitConfigMode();
 343              		.loc 1 170 3 is_stmt 1 view .LVU54
 344              	@ .\stlib\STM32F10x_StdPeriph_Driver\src\stm32f10x_rtc.c:171: }
 171:.\stlib\STM32F10x_StdPeriph_Driver\src/stm32f10x_rtc.c **** }
 345              		.loc 1 171 1 is_stmt 0 view .LVU55
 346 0082 BDE80840 		pop	{r3, lr}	@
 347              	.LCFI3:
 348              		.cfi_restore 14
 349              		.cfi_restore 3
 350              		.cfi_def_cfa_offset 0
 351              	@ .\stlib\STM32F10x_StdPeriph_Driver\src\stm32f10x_rtc.c:170:   RTC_ExitConfigMode();
 170:.\stlib\STM32F10x_StdPeriph_Driver\src/stm32f10x_rtc.c ****   RTC_ExitConfigMode();
 352              		.loc 1 170 3 view .LVU56
 353 0086 FFF7FEBF 		b	RTC_ExitConfigMode		@
 354              	.LVL13:
 355              	.L21:
 356 008a 00BF     		.align	2
 357              	.L20:
 358 008c 00280040 		.word	1073752064
 359              		.cfi_endproc
 360              	.LFE34:
 361              		.size	RTC_SetPrescaler, .-RTC_SetPrescaler
 362              		.align	1
 363              		.global	RTC_SetAlarm
 364              		.syntax unified
 365              		.thumb
 366              		.thumb_func
 367              		.fpu softvfp
 368              		.type	RTC_SetAlarm, %function
 369              	RTC_SetAlarm:
 370              	.LVL14:
 371              	.LFB35:
 172:.\stlib\STM32F10x_StdPeriph_Driver\src/stm32f10x_rtc.c **** 
 173:.\stlib\STM32F10x_StdPeriph_Driver\src/stm32f10x_rtc.c **** /**
 174:.\stlib\STM32F10x_StdPeriph_Driver\src/stm32f10x_rtc.c ****   * @brief  Sets the RTC alarm value.
 175:.\stlib\STM32F10x_StdPeriph_Driver\src/stm32f10x_rtc.c ****   * @param  AlarmValue: RTC alarm new value.
 176:.\stlib\STM32F10x_StdPeriph_Driver\src/stm32f10x_rtc.c ****   * @retval None
 177:.\stlib\STM32F10x_StdPeriph_Driver\src/stm32f10x_rtc.c ****   */
 178:.\stlib\STM32F10x_StdPeriph_Driver\src/stm32f10x_rtc.c **** void RTC_SetAlarm(uint32_t AlarmValue)
 179:.\stlib\STM32F10x_StdPeriph_Driver\src/stm32f10x_rtc.c **** {  
 372              		.loc 1 179 1 is_stmt 1 view -0
 373              		.cfi_startproc
 374              		@ args = 0, pretend = 0, frame = 0
 375              		@ frame_needed = 0, uses_anonymous_args = 0
 180:.\stlib\STM32F10x_StdPeriph_Driver\src/stm32f10x_rtc.c ****   RTC_EnterConfigMode();
 376              		.loc 1 180 3 view .LVU58
 377              	@ .\stlib\STM32F10x_StdPeriph_Driver\src\stm32f10x_rtc.c:179: {  
 179:.\stlib\STM32F10x_StdPeriph_Driver\src/stm32f10x_rtc.c ****   RTC_EnterConfigMode();
 378              		.loc 1 179 1 is_stmt 0 view .LVU59
ARM GAS  C:\Users\skey\AppData\Local\Temp\ccV8noAG.s 			page 11


 379 0090 08B5     		push	{r3, lr}	@
 380              	.LCFI4:
 381              		.cfi_def_cfa_offset 8
 382              		.cfi_offset 3, -8
 383              		.cfi_offset 14, -4
 384              	@ .\stlib\STM32F10x_StdPeriph_Driver\src\stm32f10x_rtc.c:180:   RTC_EnterConfigMode();
 385              		.loc 1 180 3 view .LVU60
 386 0092 FFF7FEFF 		bl	RTC_EnterConfigMode		@
 387              	.LVL15:
 181:.\stlib\STM32F10x_StdPeriph_Driver\src/stm32f10x_rtc.c ****   /* Set the ALARM MSB word */
 182:.\stlib\STM32F10x_StdPeriph_Driver\src/stm32f10x_rtc.c ****   RTC->ALRH = AlarmValue >> 16;
 388              		.loc 1 182 3 is_stmt 1 view .LVU61
 389              	@ .\stlib\STM32F10x_StdPeriph_Driver\src\stm32f10x_rtc.c:182:   RTC->ALRH = AlarmValue >> 16;
 390              		.loc 1 182 13 is_stmt 0 view .LVU62
 391 0096 044B     		ldr	r3, .L23	@ tmp115,
 392 0098 020C     		lsrs	r2, r0, #16	@ _2, AlarmValue,
 393              	@ .\stlib\STM32F10x_StdPeriph_Driver\src\stm32f10x_rtc.c:184:   RTC->ALRL = (AlarmValue & RTC_LSB_M
 183:.\stlib\STM32F10x_StdPeriph_Driver\src/stm32f10x_rtc.c ****   /* Set the ALARM LSB word */
 184:.\stlib\STM32F10x_StdPeriph_Driver\src/stm32f10x_rtc.c ****   RTC->ALRL = (AlarmValue & RTC_LSB_MASK);
 394              		.loc 1 184 13 view .LVU63
 395 009a 80B2     		uxth	r0, r0	@ _3, AlarmValue
 396              	.LVL16:
 397              	@ .\stlib\STM32F10x_StdPeriph_Driver\src\stm32f10x_rtc.c:182:   RTC->ALRH = AlarmValue >> 16;
 182:.\stlib\STM32F10x_StdPeriph_Driver\src/stm32f10x_rtc.c ****   /* Set the ALARM LSB word */
 398              		.loc 1 182 13 view .LVU64
 399 009c 1A84     		strh	r2, [r3, #32]	@ movhi	@ _2, MEM[(struct RTC_TypeDef *)1073752064B].ALRH
 400              		.loc 1 184 3 is_stmt 1 view .LVU65
 401              	@ .\stlib\STM32F10x_StdPeriph_Driver\src\stm32f10x_rtc.c:184:   RTC->ALRL = (AlarmValue & RTC_LSB_M
 402              		.loc 1 184 13 is_stmt 0 view .LVU66
 403 009e 9884     		strh	r0, [r3, #36]	@ movhi	@ _3, MEM[(struct RTC_TypeDef *)1073752064B].ALRL
 185:.\stlib\STM32F10x_StdPeriph_Driver\src/stm32f10x_rtc.c ****   RTC_ExitConfigMode();
 404              		.loc 1 185 3 is_stmt 1 view .LVU67
 405              	@ .\stlib\STM32F10x_StdPeriph_Driver\src\stm32f10x_rtc.c:186: }
 186:.\stlib\STM32F10x_StdPeriph_Driver\src/stm32f10x_rtc.c **** }
 406              		.loc 1 186 1 is_stmt 0 view .LVU68
 407 00a0 BDE80840 		pop	{r3, lr}	@
 408              	.LCFI5:
 409              		.cfi_restore 14
 410              		.cfi_restore 3
 411              		.cfi_def_cfa_offset 0
 412              	@ .\stlib\STM32F10x_StdPeriph_Driver\src\stm32f10x_rtc.c:185:   RTC_ExitConfigMode();
 185:.\stlib\STM32F10x_StdPeriph_Driver\src/stm32f10x_rtc.c ****   RTC_ExitConfigMode();
 413              		.loc 1 185 3 view .LVU69
 414 00a4 FFF7FEBF 		b	RTC_ExitConfigMode		@
 415              	.LVL17:
 416              	.L24:
 417              		.align	2
 418              	.L23:
 419 00a8 00280040 		.word	1073752064
 420              		.cfi_endproc
 421              	.LFE35:
 422              		.size	RTC_SetAlarm, .-RTC_SetAlarm
 423              		.align	1
 424              		.global	RTC_GetDivider
 425              		.syntax unified
 426              		.thumb
 427              		.thumb_func
ARM GAS  C:\Users\skey\AppData\Local\Temp\ccV8noAG.s 			page 12


 428              		.fpu softvfp
 429              		.type	RTC_GetDivider, %function
 430              	RTC_GetDivider:
 431              	.LFB36:
 187:.\stlib\STM32F10x_StdPeriph_Driver\src/stm32f10x_rtc.c **** 
 188:.\stlib\STM32F10x_StdPeriph_Driver\src/stm32f10x_rtc.c **** /**
 189:.\stlib\STM32F10x_StdPeriph_Driver\src/stm32f10x_rtc.c ****   * @brief  Gets the RTC divider value.
 190:.\stlib\STM32F10x_StdPeriph_Driver\src/stm32f10x_rtc.c ****   * @param  None
 191:.\stlib\STM32F10x_StdPeriph_Driver\src/stm32f10x_rtc.c ****   * @retval RTC Divider value.
 192:.\stlib\STM32F10x_StdPeriph_Driver\src/stm32f10x_rtc.c ****   */
 193:.\stlib\STM32F10x_StdPeriph_Driver\src/stm32f10x_rtc.c **** uint32_t RTC_GetDivider(void)
 194:.\stlib\STM32F10x_StdPeriph_Driver\src/stm32f10x_rtc.c **** {
 432              		.loc 1 194 1 is_stmt 1 view -0
 433              		.cfi_startproc
 434              		@ args = 0, pretend = 0, frame = 0
 435              		@ frame_needed = 0, uses_anonymous_args = 0
 436              		@ link register save eliminated.
 195:.\stlib\STM32F10x_StdPeriph_Driver\src/stm32f10x_rtc.c ****   uint32_t tmp = 0x00;
 437              		.loc 1 195 3 view .LVU71
 438              	.LVL18:
 196:.\stlib\STM32F10x_StdPeriph_Driver\src/stm32f10x_rtc.c ****   tmp = ((uint32_t)RTC->DIVH & (uint32_t)0x000F) << 16;
 439              		.loc 1 196 3 view .LVU72
 440              	@ .\stlib\STM32F10x_StdPeriph_Driver\src\stm32f10x_rtc.c:196:   tmp = ((uint32_t)RTC->DIVH & (uint3
 441              		.loc 1 196 23 is_stmt 0 view .LVU73
 442 00ac 044A     		ldr	r2, .L26	@ tmp117,
 443 00ae 138A     		ldrh	r3, [r2, #16]	@, MEM[(struct RTC_TypeDef *)1073752064B].DIVH
 444              	@ .\stlib\STM32F10x_StdPeriph_Driver\src\stm32f10x_rtc.c:197:   tmp |= RTC->DIVL;
 197:.\stlib\STM32F10x_StdPeriph_Driver\src/stm32f10x_rtc.c ****   tmp |= RTC->DIVL;
 445              		.loc 1 197 13 view .LVU74
 446 00b0 908A     		ldrh	r0, [r2, #20]	@, MEM[(struct RTC_TypeDef *)1073752064B].DIVL
 447              	@ .\stlib\STM32F10x_StdPeriph_Driver\src\stm32f10x_rtc.c:196:   tmp = ((uint32_t)RTC->DIVH & (uint3
 196:.\stlib\STM32F10x_StdPeriph_Driver\src/stm32f10x_rtc.c ****   tmp = ((uint32_t)RTC->DIVH & (uint32_t)0x000F) << 16;
 448              		.loc 1 196 50 view .LVU75
 449 00b2 1B04     		lsls	r3, r3, #16	@ tmp120, MEM[(struct RTC_TypeDef *)1073752064B].DIVH,
 450              	@ .\stlib\STM32F10x_StdPeriph_Driver\src\stm32f10x_rtc.c:196:   tmp = ((uint32_t)RTC->DIVH & (uint3
 196:.\stlib\STM32F10x_StdPeriph_Driver\src/stm32f10x_rtc.c ****   tmp = ((uint32_t)RTC->DIVH & (uint32_t)0x000F) << 16;
 451              		.loc 1 196 7 view .LVU76
 452 00b4 03F47023 		and	r3, r3, #983040	@ tmp, tmp120,
 453              	.LVL19:
 454              		.loc 1 197 3 is_stmt 1 view .LVU77
 455              	@ .\stlib\STM32F10x_StdPeriph_Driver\src\stm32f10x_rtc.c:197:   tmp |= RTC->DIVL;
 456              		.loc 1 197 13 is_stmt 0 view .LVU78
 457 00b8 80B2     		uxth	r0, r0	@ _7, MEM[(struct RTC_TypeDef *)1073752064B].DIVL
 458              	.LVL20:
 198:.\stlib\STM32F10x_StdPeriph_Driver\src/stm32f10x_rtc.c ****   return tmp;
 459              		.loc 1 198 3 is_stmt 1 view .LVU79
 460              	@ .\stlib\STM32F10x_StdPeriph_Driver\src\stm32f10x_rtc.c:199: }
 199:.\stlib\STM32F10x_StdPeriph_Driver\src/stm32f10x_rtc.c **** }
 461              		.loc 1 199 1 is_stmt 0 view .LVU80
 462 00ba 1843     		orrs	r0, r0, r3	@,, _7, tmp
 463              	.LVL21:
 464              		.loc 1 199 1 view .LVU81
 465 00bc 7047     		bx	lr	@
 466              	.L27:
 467 00be 00BF     		.align	2
 468              	.L26:
 469 00c0 00280040 		.word	1073752064
ARM GAS  C:\Users\skey\AppData\Local\Temp\ccV8noAG.s 			page 13


 470              		.cfi_endproc
 471              	.LFE36:
 472              		.size	RTC_GetDivider, .-RTC_GetDivider
 473              		.align	1
 474              		.global	RTC_WaitForLastTask
 475              		.syntax unified
 476              		.thumb
 477              		.thumb_func
 478              		.fpu softvfp
 479              		.type	RTC_WaitForLastTask, %function
 480              	RTC_WaitForLastTask:
 481              	.LFB37:
 200:.\stlib\STM32F10x_StdPeriph_Driver\src/stm32f10x_rtc.c **** 
 201:.\stlib\STM32F10x_StdPeriph_Driver\src/stm32f10x_rtc.c **** /**
 202:.\stlib\STM32F10x_StdPeriph_Driver\src/stm32f10x_rtc.c ****   * @brief  Waits until last write operation on RTC registers has finished.
 203:.\stlib\STM32F10x_StdPeriph_Driver\src/stm32f10x_rtc.c ****   * @note   This function must be called before any write to RTC registers.
 204:.\stlib\STM32F10x_StdPeriph_Driver\src/stm32f10x_rtc.c ****   * @param  None
 205:.\stlib\STM32F10x_StdPeriph_Driver\src/stm32f10x_rtc.c ****   * @retval None
 206:.\stlib\STM32F10x_StdPeriph_Driver\src/stm32f10x_rtc.c ****   */
 207:.\stlib\STM32F10x_StdPeriph_Driver\src/stm32f10x_rtc.c **** void RTC_WaitForLastTask(void)
 208:.\stlib\STM32F10x_StdPeriph_Driver\src/stm32f10x_rtc.c **** {
 482              		.loc 1 208 1 is_stmt 1 view -0
 483              		.cfi_startproc
 484              		@ args = 0, pretend = 0, frame = 0
 485              		@ frame_needed = 0, uses_anonymous_args = 0
 486              		@ link register save eliminated.
 209:.\stlib\STM32F10x_StdPeriph_Driver\src/stm32f10x_rtc.c ****   /* Loop until RTOFF flag is set */
 210:.\stlib\STM32F10x_StdPeriph_Driver\src/stm32f10x_rtc.c ****   while ((RTC->CRL & RTC_FLAG_RTOFF) == (uint16_t)RESET)
 487              		.loc 1 210 3 view .LVU83
 488              	@ .\stlib\STM32F10x_StdPeriph_Driver\src\stm32f10x_rtc.c:210:   while ((RTC->CRL & RTC_FLAG_RTOFF) 
 489              		.loc 1 210 14 is_stmt 0 view .LVU84
 490 00c4 024A     		ldr	r2, .L32	@ tmp112,
 491              	.L29:
 211:.\stlib\STM32F10x_StdPeriph_Driver\src/stm32f10x_rtc.c ****   {
 212:.\stlib\STM32F10x_StdPeriph_Driver\src/stm32f10x_rtc.c ****   }
 492              		.loc 1 212 3 is_stmt 1 discriminator 1 view .LVU85
 210:.\stlib\STM32F10x_StdPeriph_Driver\src/stm32f10x_rtc.c ****   {
 493              		.loc 1 210 9 discriminator 1 view .LVU86
 494              	@ .\stlib\STM32F10x_StdPeriph_Driver\src\stm32f10x_rtc.c:210:   while ((RTC->CRL & RTC_FLAG_RTOFF) 
 210:.\stlib\STM32F10x_StdPeriph_Driver\src/stm32f10x_rtc.c ****   {
 495              		.loc 1 210 14 is_stmt 0 discriminator 1 view .LVU87
 496 00c6 9388     		ldrh	r3, [r2, #4]	@, MEM[(struct RTC_TypeDef *)1073752064B].CRL
 497              	@ .\stlib\STM32F10x_StdPeriph_Driver\src\stm32f10x_rtc.c:210:   while ((RTC->CRL & RTC_FLAG_RTOFF) 
 210:.\stlib\STM32F10x_StdPeriph_Driver\src/stm32f10x_rtc.c ****   {
 498              		.loc 1 210 9 discriminator 1 view .LVU88
 499 00c8 9B06     		lsls	r3, r3, #26	@, MEM[(struct RTC_TypeDef *)1073752064B].CRL,
 500 00ca FCD5     		bpl	.L29		@,
 501              	@ .\stlib\STM32F10x_StdPeriph_Driver\src\stm32f10x_rtc.c:213: }
 213:.\stlib\STM32F10x_StdPeriph_Driver\src/stm32f10x_rtc.c **** }
 502              		.loc 1 213 1 view .LVU89
 503 00cc 7047     		bx	lr	@
 504              	.L33:
 505 00ce 00BF     		.align	2
 506              	.L32:
 507 00d0 00280040 		.word	1073752064
 508              		.cfi_endproc
 509              	.LFE37:
ARM GAS  C:\Users\skey\AppData\Local\Temp\ccV8noAG.s 			page 14


 510              		.size	RTC_WaitForLastTask, .-RTC_WaitForLastTask
 511              		.align	1
 512              		.global	RTC_WaitForSynchro
 513              		.syntax unified
 514              		.thumb
 515              		.thumb_func
 516              		.fpu softvfp
 517              		.type	RTC_WaitForSynchro, %function
 518              	RTC_WaitForSynchro:
 519              	.LFB38:
 214:.\stlib\STM32F10x_StdPeriph_Driver\src/stm32f10x_rtc.c **** 
 215:.\stlib\STM32F10x_StdPeriph_Driver\src/stm32f10x_rtc.c **** /**
 216:.\stlib\STM32F10x_StdPeriph_Driver\src/stm32f10x_rtc.c ****   * @brief  Waits until the RTC registers (RTC_CNT, RTC_ALR and RTC_PRL)
 217:.\stlib\STM32F10x_StdPeriph_Driver\src/stm32f10x_rtc.c ****   *   are synchronized with RTC APB clock.
 218:.\stlib\STM32F10x_StdPeriph_Driver\src/stm32f10x_rtc.c ****   * @note   This function must be called before any read operation after an APB reset
 219:.\stlib\STM32F10x_StdPeriph_Driver\src/stm32f10x_rtc.c ****   *   or an APB clock stop.
 220:.\stlib\STM32F10x_StdPeriph_Driver\src/stm32f10x_rtc.c ****   * @param  None
 221:.\stlib\STM32F10x_StdPeriph_Driver\src/stm32f10x_rtc.c ****   * @retval None
 222:.\stlib\STM32F10x_StdPeriph_Driver\src/stm32f10x_rtc.c ****   */
 223:.\stlib\STM32F10x_StdPeriph_Driver\src/stm32f10x_rtc.c **** void RTC_WaitForSynchro(void)
 224:.\stlib\STM32F10x_StdPeriph_Driver\src/stm32f10x_rtc.c **** {
 520              		.loc 1 224 1 is_stmt 1 view -0
 521              		.cfi_startproc
 522              		@ args = 0, pretend = 0, frame = 0
 523              		@ frame_needed = 0, uses_anonymous_args = 0
 524              		@ link register save eliminated.
 225:.\stlib\STM32F10x_StdPeriph_Driver\src/stm32f10x_rtc.c ****   /* Clear RSF flag */
 226:.\stlib\STM32F10x_StdPeriph_Driver\src/stm32f10x_rtc.c ****   RTC->CRL &= (uint16_t)~RTC_FLAG_RSF;
 525              		.loc 1 226 3 view .LVU91
 526              	@ .\stlib\STM32F10x_StdPeriph_Driver\src\stm32f10x_rtc.c:226:   RTC->CRL &= (uint16_t)~RTC_FLAG_RSF
 527              		.loc 1 226 12 is_stmt 0 view .LVU92
 528 00d4 054A     		ldr	r2, .L38	@ tmp114,
 529 00d6 9388     		ldrh	r3, [r2, #4]	@, MEM[(struct RTC_TypeDef *)1073752064B].CRL
 530 00d8 23F00803 		bic	r3, r3, #8	@ _3, MEM[(struct RTC_TypeDef *)1073752064B].CRL,
 531 00dc 1B04     		lsls	r3, r3, #16	@ _3, _3,
 532 00de 1B0C     		lsrs	r3, r3, #16	@ _3, _3,
 533 00e0 9380     		strh	r3, [r2, #4]	@ movhi	@ _3, MEM[(struct RTC_TypeDef *)1073752064B].CRL
 227:.\stlib\STM32F10x_StdPeriph_Driver\src/stm32f10x_rtc.c ****   /* Loop until RSF flag is set */
 228:.\stlib\STM32F10x_StdPeriph_Driver\src/stm32f10x_rtc.c ****   while ((RTC->CRL & RTC_FLAG_RSF) == (uint16_t)RESET)
 534              		.loc 1 228 3 is_stmt 1 view .LVU93
 535              	.L35:
 229:.\stlib\STM32F10x_StdPeriph_Driver\src/stm32f10x_rtc.c ****   {
 230:.\stlib\STM32F10x_StdPeriph_Driver\src/stm32f10x_rtc.c ****   }
 536              		.loc 1 230 3 discriminator 1 view .LVU94
 228:.\stlib\STM32F10x_StdPeriph_Driver\src/stm32f10x_rtc.c ****   {
 537              		.loc 1 228 9 discriminator 1 view .LVU95
 538              	@ .\stlib\STM32F10x_StdPeriph_Driver\src\stm32f10x_rtc.c:228:   while ((RTC->CRL & RTC_FLAG_RSF) ==
 228:.\stlib\STM32F10x_StdPeriph_Driver\src/stm32f10x_rtc.c ****   {
 539              		.loc 1 228 14 is_stmt 0 discriminator 1 view .LVU96
 540 00e2 9388     		ldrh	r3, [r2, #4]	@, MEM[(struct RTC_TypeDef *)1073752064B].CRL
 541              	@ .\stlib\STM32F10x_StdPeriph_Driver\src\stm32f10x_rtc.c:228:   while ((RTC->CRL & RTC_FLAG_RSF) ==
 228:.\stlib\STM32F10x_StdPeriph_Driver\src/stm32f10x_rtc.c ****   {
 542              		.loc 1 228 9 discriminator 1 view .LVU97
 543 00e4 1B07     		lsls	r3, r3, #28	@, MEM[(struct RTC_TypeDef *)1073752064B].CRL,
 544 00e6 FCD5     		bpl	.L35		@,
 545              	@ .\stlib\STM32F10x_StdPeriph_Driver\src\stm32f10x_rtc.c:231: }
 231:.\stlib\STM32F10x_StdPeriph_Driver\src/stm32f10x_rtc.c **** }
ARM GAS  C:\Users\skey\AppData\Local\Temp\ccV8noAG.s 			page 15


 546              		.loc 1 231 1 view .LVU98
 547 00e8 7047     		bx	lr	@
 548              	.L39:
 549 00ea 00BF     		.align	2
 550              	.L38:
 551 00ec 00280040 		.word	1073752064
 552              		.cfi_endproc
 553              	.LFE38:
 554              		.size	RTC_WaitForSynchro, .-RTC_WaitForSynchro
 555              		.align	1
 556              		.global	RTC_GetFlagStatus
 557              		.syntax unified
 558              		.thumb
 559              		.thumb_func
 560              		.fpu softvfp
 561              		.type	RTC_GetFlagStatus, %function
 562              	RTC_GetFlagStatus:
 563              	.LVL22:
 564              	.LFB39:
 232:.\stlib\STM32F10x_StdPeriph_Driver\src/stm32f10x_rtc.c **** 
 233:.\stlib\STM32F10x_StdPeriph_Driver\src/stm32f10x_rtc.c **** /**
 234:.\stlib\STM32F10x_StdPeriph_Driver\src/stm32f10x_rtc.c ****   * @brief  Checks whether the specified RTC flag is set or not.
 235:.\stlib\STM32F10x_StdPeriph_Driver\src/stm32f10x_rtc.c ****   * @param  RTC_FLAG: specifies the flag to check.
 236:.\stlib\STM32F10x_StdPeriph_Driver\src/stm32f10x_rtc.c ****   *   This parameter can be one the following values:
 237:.\stlib\STM32F10x_StdPeriph_Driver\src/stm32f10x_rtc.c ****   *     @arg RTC_FLAG_RTOFF: RTC Operation OFF flag
 238:.\stlib\STM32F10x_StdPeriph_Driver\src/stm32f10x_rtc.c ****   *     @arg RTC_FLAG_RSF: Registers Synchronized flag
 239:.\stlib\STM32F10x_StdPeriph_Driver\src/stm32f10x_rtc.c ****   *     @arg RTC_FLAG_OW: Overflow flag
 240:.\stlib\STM32F10x_StdPeriph_Driver\src/stm32f10x_rtc.c ****   *     @arg RTC_FLAG_ALR: Alarm flag
 241:.\stlib\STM32F10x_StdPeriph_Driver\src/stm32f10x_rtc.c ****   *     @arg RTC_FLAG_SEC: Second flag
 242:.\stlib\STM32F10x_StdPeriph_Driver\src/stm32f10x_rtc.c ****   * @retval The new state of RTC_FLAG (SET or RESET).
 243:.\stlib\STM32F10x_StdPeriph_Driver\src/stm32f10x_rtc.c ****   */
 244:.\stlib\STM32F10x_StdPeriph_Driver\src/stm32f10x_rtc.c **** FlagStatus RTC_GetFlagStatus(uint16_t RTC_FLAG)
 245:.\stlib\STM32F10x_StdPeriph_Driver\src/stm32f10x_rtc.c **** {
 565              		.loc 1 245 1 is_stmt 1 view -0
 566              		.cfi_startproc
 567              		@ args = 0, pretend = 0, frame = 0
 568              		@ frame_needed = 0, uses_anonymous_args = 0
 569              		@ link register save eliminated.
 246:.\stlib\STM32F10x_StdPeriph_Driver\src/stm32f10x_rtc.c ****   FlagStatus bitstatus = RESET;
 570              		.loc 1 246 3 view .LVU100
 247:.\stlib\STM32F10x_StdPeriph_Driver\src/stm32f10x_rtc.c ****   
 248:.\stlib\STM32F10x_StdPeriph_Driver\src/stm32f10x_rtc.c ****   /* Check the parameters */
 249:.\stlib\STM32F10x_StdPeriph_Driver\src/stm32f10x_rtc.c ****   assert_param(IS_RTC_GET_FLAG(RTC_FLAG)); 
 571              		.loc 1 249 3 view .LVU101
 250:.\stlib\STM32F10x_StdPeriph_Driver\src/stm32f10x_rtc.c ****   
 251:.\stlib\STM32F10x_StdPeriph_Driver\src/stm32f10x_rtc.c ****   if ((RTC->CRL & RTC_FLAG) != (uint16_t)RESET)
 572              		.loc 1 251 3 view .LVU102
 573              	@ .\stlib\STM32F10x_StdPeriph_Driver\src\stm32f10x_rtc.c:251:   if ((RTC->CRL & RTC_FLAG) != (uint1
 574              		.loc 1 251 11 is_stmt 0 view .LVU103
 575 00f0 034B     		ldr	r3, .L41	@ tmp115,
 576 00f2 9B88     		ldrh	r3, [r3, #4]	@, MEM[(struct RTC_TypeDef *)1073752064B].CRL
 577              	.LVL23:
 252:.\stlib\STM32F10x_StdPeriph_Driver\src/stm32f10x_rtc.c ****   {
 253:.\stlib\STM32F10x_StdPeriph_Driver\src/stm32f10x_rtc.c ****     bitstatus = SET;
 254:.\stlib\STM32F10x_StdPeriph_Driver\src/stm32f10x_rtc.c ****   }
 255:.\stlib\STM32F10x_StdPeriph_Driver\src/stm32f10x_rtc.c ****   else
 256:.\stlib\STM32F10x_StdPeriph_Driver\src/stm32f10x_rtc.c ****   {
ARM GAS  C:\Users\skey\AppData\Local\Temp\ccV8noAG.s 			page 16


 257:.\stlib\STM32F10x_StdPeriph_Driver\src/stm32f10x_rtc.c ****     bitstatus = RESET;
 258:.\stlib\STM32F10x_StdPeriph_Driver\src/stm32f10x_rtc.c ****   }
 259:.\stlib\STM32F10x_StdPeriph_Driver\src/stm32f10x_rtc.c ****   return bitstatus;
 578              		.loc 1 259 3 is_stmt 1 view .LVU104
 579              	@ .\stlib\STM32F10x_StdPeriph_Driver\src\stm32f10x_rtc.c:251:   if ((RTC->CRL & RTC_FLAG) != (uint1
 251:.\stlib\STM32F10x_StdPeriph_Driver\src/stm32f10x_rtc.c ****   {
 580              		.loc 1 251 6 is_stmt 0 view .LVU105
 581 00f4 1842     		tst	r0, r3	@ tmp123, MEM[(struct RTC_TypeDef *)1073752064B].CRL
 582              	@ .\stlib\STM32F10x_StdPeriph_Driver\src\stm32f10x_rtc.c:260: }
 260:.\stlib\STM32F10x_StdPeriph_Driver\src/stm32f10x_rtc.c **** }
 583              		.loc 1 260 1 view .LVU106
 584 00f6 14BF     		ite	ne
 585 00f8 0120     		movne	r0, #1	@,
 586              	.LVL24:
 587              		.loc 1 260 1 view .LVU107
 588 00fa 0020     		moveq	r0, #0	@,
 589 00fc 7047     		bx	lr	@
 590              	.L42:
 591 00fe 00BF     		.align	2
 592              	.L41:
 593 0100 00280040 		.word	1073752064
 594              		.cfi_endproc
 595              	.LFE39:
 596              		.size	RTC_GetFlagStatus, .-RTC_GetFlagStatus
 597              		.align	1
 598              		.global	RTC_ClearFlag
 599              		.syntax unified
 600              		.thumb
 601              		.thumb_func
 602              		.fpu softvfp
 603              		.type	RTC_ClearFlag, %function
 604              	RTC_ClearFlag:
 605              	.LVL25:
 606              	.LFB40:
 261:.\stlib\STM32F10x_StdPeriph_Driver\src/stm32f10x_rtc.c **** 
 262:.\stlib\STM32F10x_StdPeriph_Driver\src/stm32f10x_rtc.c **** /**
 263:.\stlib\STM32F10x_StdPeriph_Driver\src/stm32f10x_rtc.c ****   * @brief  Clears the RTC's pending flags.
 264:.\stlib\STM32F10x_StdPeriph_Driver\src/stm32f10x_rtc.c ****   * @param  RTC_FLAG: specifies the flag to clear.
 265:.\stlib\STM32F10x_StdPeriph_Driver\src/stm32f10x_rtc.c ****   *   This parameter can be any combination of the following values:
 266:.\stlib\STM32F10x_StdPeriph_Driver\src/stm32f10x_rtc.c ****   *     @arg RTC_FLAG_RSF: Registers Synchronized flag. This flag is cleared only after
 267:.\stlib\STM32F10x_StdPeriph_Driver\src/stm32f10x_rtc.c ****   *                        an APB reset or an APB Clock stop.
 268:.\stlib\STM32F10x_StdPeriph_Driver\src/stm32f10x_rtc.c ****   *     @arg RTC_FLAG_OW: Overflow flag
 269:.\stlib\STM32F10x_StdPeriph_Driver\src/stm32f10x_rtc.c ****   *     @arg RTC_FLAG_ALR: Alarm flag
 270:.\stlib\STM32F10x_StdPeriph_Driver\src/stm32f10x_rtc.c ****   *     @arg RTC_FLAG_SEC: Second flag
 271:.\stlib\STM32F10x_StdPeriph_Driver\src/stm32f10x_rtc.c ****   * @retval None
 272:.\stlib\STM32F10x_StdPeriph_Driver\src/stm32f10x_rtc.c ****   */
 273:.\stlib\STM32F10x_StdPeriph_Driver\src/stm32f10x_rtc.c **** void RTC_ClearFlag(uint16_t RTC_FLAG)
 274:.\stlib\STM32F10x_StdPeriph_Driver\src/stm32f10x_rtc.c **** {
 607              		.loc 1 274 1 is_stmt 1 view -0
 608              		.cfi_startproc
 609              		@ args = 0, pretend = 0, frame = 0
 610              		@ frame_needed = 0, uses_anonymous_args = 0
 611              		@ link register save eliminated.
 275:.\stlib\STM32F10x_StdPeriph_Driver\src/stm32f10x_rtc.c ****   /* Check the parameters */
 276:.\stlib\STM32F10x_StdPeriph_Driver\src/stm32f10x_rtc.c ****   assert_param(IS_RTC_CLEAR_FLAG(RTC_FLAG)); 
 612              		.loc 1 276 3 view .LVU109
 277:.\stlib\STM32F10x_StdPeriph_Driver\src/stm32f10x_rtc.c ****     
ARM GAS  C:\Users\skey\AppData\Local\Temp\ccV8noAG.s 			page 17


 278:.\stlib\STM32F10x_StdPeriph_Driver\src/stm32f10x_rtc.c ****   /* Clear the corresponding RTC flag */
 279:.\stlib\STM32F10x_StdPeriph_Driver\src/stm32f10x_rtc.c ****   RTC->CRL &= (uint16_t)~RTC_FLAG;
 613              		.loc 1 279 3 view .LVU110
 614              	@ .\stlib\STM32F10x_StdPeriph_Driver\src\stm32f10x_rtc.c:279:   RTC->CRL &= (uint16_t)~RTC_FLAG;
 615              		.loc 1 279 12 is_stmt 0 view .LVU111
 616 0104 034A     		ldr	r2, .L44	@ tmp114,
 617 0106 9388     		ldrh	r3, [r2, #4]	@, MEM[(struct RTC_TypeDef *)1073752064B].CRL
 618 0108 9BB2     		uxth	r3, r3	@ _1, MEM[(struct RTC_TypeDef *)1073752064B].CRL
 619 010a 23EA0003 		bic	r3, r3, r0	@ _3, _1, tmp122
 620 010e 9380     		strh	r3, [r2, #4]	@ movhi	@ _3, MEM[(struct RTC_TypeDef *)1073752064B].CRL
 621              	@ .\stlib\STM32F10x_StdPeriph_Driver\src\stm32f10x_rtc.c:280: }
 280:.\stlib\STM32F10x_StdPeriph_Driver\src/stm32f10x_rtc.c **** }
 622              		.loc 1 280 1 view .LVU112
 623 0110 7047     		bx	lr	@
 624              	.L45:
 625 0112 00BF     		.align	2
 626              	.L44:
 627 0114 00280040 		.word	1073752064
 628              		.cfi_endproc
 629              	.LFE40:
 630              		.size	RTC_ClearFlag, .-RTC_ClearFlag
 631              		.align	1
 632              		.global	RTC_GetITStatus
 633              		.syntax unified
 634              		.thumb
 635              		.thumb_func
 636              		.fpu softvfp
 637              		.type	RTC_GetITStatus, %function
 638              	RTC_GetITStatus:
 639              	.LVL26:
 640              	.LFB41:
 281:.\stlib\STM32F10x_StdPeriph_Driver\src/stm32f10x_rtc.c **** 
 282:.\stlib\STM32F10x_StdPeriph_Driver\src/stm32f10x_rtc.c **** /**
 283:.\stlib\STM32F10x_StdPeriph_Driver\src/stm32f10x_rtc.c ****   * @brief  Checks whether the specified RTC interrupt has occurred or not.
 284:.\stlib\STM32F10x_StdPeriph_Driver\src/stm32f10x_rtc.c ****   * @param  RTC_IT: specifies the RTC interrupts sources to check.
 285:.\stlib\STM32F10x_StdPeriph_Driver\src/stm32f10x_rtc.c ****   *   This parameter can be one of the following values:
 286:.\stlib\STM32F10x_StdPeriph_Driver\src/stm32f10x_rtc.c ****   *     @arg RTC_IT_OW: Overflow interrupt
 287:.\stlib\STM32F10x_StdPeriph_Driver\src/stm32f10x_rtc.c ****   *     @arg RTC_IT_ALR: Alarm interrupt
 288:.\stlib\STM32F10x_StdPeriph_Driver\src/stm32f10x_rtc.c ****   *     @arg RTC_IT_SEC: Second interrupt
 289:.\stlib\STM32F10x_StdPeriph_Driver\src/stm32f10x_rtc.c ****   * @retval The new state of the RTC_IT (SET or RESET).
 290:.\stlib\STM32F10x_StdPeriph_Driver\src/stm32f10x_rtc.c ****   */
 291:.\stlib\STM32F10x_StdPeriph_Driver\src/stm32f10x_rtc.c **** ITStatus RTC_GetITStatus(uint16_t RTC_IT)
 292:.\stlib\STM32F10x_StdPeriph_Driver\src/stm32f10x_rtc.c **** {
 641              		.loc 1 292 1 is_stmt 1 view -0
 642              		.cfi_startproc
 643              		@ args = 0, pretend = 0, frame = 0
 644              		@ frame_needed = 0, uses_anonymous_args = 0
 645              		@ link register save eliminated.
 293:.\stlib\STM32F10x_StdPeriph_Driver\src/stm32f10x_rtc.c ****   ITStatus bitstatus = RESET;
 646              		.loc 1 293 3 view .LVU114
 294:.\stlib\STM32F10x_StdPeriph_Driver\src/stm32f10x_rtc.c ****   /* Check the parameters */
 295:.\stlib\STM32F10x_StdPeriph_Driver\src/stm32f10x_rtc.c ****   assert_param(IS_RTC_GET_IT(RTC_IT)); 
 647              		.loc 1 295 3 view .LVU115
 296:.\stlib\STM32F10x_StdPeriph_Driver\src/stm32f10x_rtc.c ****   
 297:.\stlib\STM32F10x_StdPeriph_Driver\src/stm32f10x_rtc.c ****   bitstatus = (ITStatus)(RTC->CRL & RTC_IT);
 648              		.loc 1 297 3 view .LVU116
 649              	@ .\stlib\STM32F10x_StdPeriph_Driver\src\stm32f10x_rtc.c:297:   bitstatus = (ITStatus)(RTC->CRL & R
ARM GAS  C:\Users\skey\AppData\Local\Temp\ccV8noAG.s 			page 18


 650              		.loc 1 297 29 is_stmt 0 view .LVU117
 651 0118 064B     		ldr	r3, .L49	@ tmp119,
 652              	@ .\stlib\STM32F10x_StdPeriph_Driver\src\stm32f10x_rtc.c:292: {
 292:.\stlib\STM32F10x_StdPeriph_Driver\src/stm32f10x_rtc.c ****   ITStatus bitstatus = RESET;
 653              		.loc 1 292 1 view .LVU118
 654 011a 0146     		mov	r1, r0	@ RTC_IT, tmp134
 655              	@ .\stlib\STM32F10x_StdPeriph_Driver\src\stm32f10x_rtc.c:297:   bitstatus = (ITStatus)(RTC->CRL & R
 656              		.loc 1 297 29 view .LVU119
 657 011c 9A88     		ldrh	r2, [r3, #4]	@, MEM[(struct RTC_TypeDef *)1073752064B].CRL
 658              	@ .\stlib\STM32F10x_StdPeriph_Driver\src\stm32f10x_rtc.c:298:   if (((RTC->CRH & RTC_IT) != (uint16
 298:.\stlib\STM32F10x_StdPeriph_Driver\src/stm32f10x_rtc.c ****   if (((RTC->CRH & RTC_IT) != (uint16_t)RESET) && (bitstatus != (uint16_t)RESET))
 659              		.loc 1 298 12 view .LVU120
 660 011e 1B88     		ldrh	r3, [r3]	@, MEM[(struct RTC_TypeDef *)1073752064B].CRH
 661              	@ .\stlib\STM32F10x_StdPeriph_Driver\src\stm32f10x_rtc.c:297:   bitstatus = (ITStatus)(RTC->CRL & R
 297:.\stlib\STM32F10x_StdPeriph_Driver\src/stm32f10x_rtc.c ****   if (((RTC->CRH & RTC_IT) != (uint16_t)RESET) && (bitstatus != (uint16_t)RESET))
 662              		.loc 1 297 29 view .LVU121
 663 0120 92B2     		uxth	r2, r2	@ _1, MEM[(struct RTC_TypeDef *)1073752064B].CRL
 664              	.LVL27:
 665              		.loc 1 298 3 is_stmt 1 view .LVU122
 666              	@ .\stlib\STM32F10x_StdPeriph_Driver\src\stm32f10x_rtc.c:298:   if (((RTC->CRH & RTC_IT) != (uint16
 667              		.loc 1 298 6 is_stmt 0 view .LVU123
 668 0122 1840     		ands	r0, r0, r3	@ tmp126, RTC_IT, MEM[(struct RTC_TypeDef *)1073752064B].CRH
 669              	.LVL28:
 670              		.loc 1 298 6 view .LVU124
 671 0124 05D0     		beq	.L47		@,
 672              	@ .\stlib\STM32F10x_StdPeriph_Driver\src\stm32f10x_rtc.c:297:   bitstatus = (ITStatus)(RTC->CRL & R
 297:.\stlib\STM32F10x_StdPeriph_Driver\src/stm32f10x_rtc.c ****   if (((RTC->CRH & RTC_IT) != (uint16_t)RESET) && (bitstatus != (uint16_t)RESET))
 673              		.loc 1 297 13 discriminator 1 view .LVU125
 674 0126 02EA0100 		and	r0, r2, r1	@ tmp129, _1, RTC_IT
 675              	@ .\stlib\STM32F10x_StdPeriph_Driver\src\stm32f10x_rtc.c:298:   if (((RTC->CRH & RTC_IT) != (uint16
 676              		.loc 1 298 48 discriminator 1 view .LVU126
 677 012a C0B2     		uxtb	r0, r0	@ tmp131, tmp129
 678              	@ .\stlib\STM32F10x_StdPeriph_Driver\src\stm32f10x_rtc.c:304:     bitstatus = RESET;
 299:.\stlib\STM32F10x_StdPeriph_Driver\src/stm32f10x_rtc.c ****   {
 300:.\stlib\STM32F10x_StdPeriph_Driver\src/stm32f10x_rtc.c ****     bitstatus = SET;
 301:.\stlib\STM32F10x_StdPeriph_Driver\src/stm32f10x_rtc.c ****   }
 302:.\stlib\STM32F10x_StdPeriph_Driver\src/stm32f10x_rtc.c ****   else
 303:.\stlib\STM32F10x_StdPeriph_Driver\src/stm32f10x_rtc.c ****   {
 304:.\stlib\STM32F10x_StdPeriph_Driver\src/stm32f10x_rtc.c ****     bitstatus = RESET;
 679              		.loc 1 304 15 discriminator 1 view .LVU127
 680 012c 0038     		subs	r0, r0, #0	@ <retval>, tmp131,
 681 012e 18BF     		it	ne
 682 0130 0120     		movne	r0, #1	@ <retval>,
 683              	.L47:
 684              	.LVL29:
 305:.\stlib\STM32F10x_StdPeriph_Driver\src/stm32f10x_rtc.c ****   }
 306:.\stlib\STM32F10x_StdPeriph_Driver\src/stm32f10x_rtc.c ****   return bitstatus;
 685              		.loc 1 306 3 is_stmt 1 view .LVU128
 686              	@ .\stlib\STM32F10x_StdPeriph_Driver\src\stm32f10x_rtc.c:307: }
 307:.\stlib\STM32F10x_StdPeriph_Driver\src/stm32f10x_rtc.c **** }
 687              		.loc 1 307 1 is_stmt 0 view .LVU129
 688 0132 7047     		bx	lr	@
 689              	.L50:
 690              		.align	2
 691              	.L49:
 692 0134 00280040 		.word	1073752064
 693              		.cfi_endproc
ARM GAS  C:\Users\skey\AppData\Local\Temp\ccV8noAG.s 			page 19


 694              	.LFE41:
 695              		.size	RTC_GetITStatus, .-RTC_GetITStatus
 696              		.align	1
 697              		.global	RTC_ClearITPendingBit
 698              		.syntax unified
 699              		.thumb
 700              		.thumb_func
 701              		.fpu softvfp
 702              		.type	RTC_ClearITPendingBit, %function
 703              	RTC_ClearITPendingBit:
 704              	.LFB44:
 705              		.cfi_startproc
 706              		@ args = 0, pretend = 0, frame = 0
 707              		@ frame_needed = 0, uses_anonymous_args = 0
 708              		@ link register save eliminated.
 709 0138 FFF7FEBF 		b	RTC_ClearFlag		@
 710              		.cfi_endproc
 711              	.LFE44:
 712              		.size	RTC_ClearITPendingBit, .-RTC_ClearITPendingBit
 713              	.Letext0:
 714              		.file 2 "c:\\program files (x86)\\gnu tools arm embedded\\9 2019-q4-major\\arm-none-eabi\\include\
 715              		.file 3 "c:\\program files (x86)\\gnu tools arm embedded\\9 2019-q4-major\\arm-none-eabi\\include\
 716              		.file 4 ".\\stlib\\CMSIS\\CM3\\CoreSupport/core_cm3.h"
 717              		.file 5 ".\\stlib\\CMSIS\\CM3\\DeviceSupport\\ST\\STM32F10x/system_stm32f10x.h"
 718              		.file 6 ".\\stlib\\CMSIS\\CM3\\DeviceSupport\\ST\\STM32F10x/stm32f10x.h"