ARM GAS  C:\Users\skey\AppData\Local\Temp\ccFDdSGQ.s 			page 1


   1              		.cpu cortex-m3
   2              		.eabi_attribute 20, 1	@ Tag_ABI_FP_denormal
   3              		.eabi_attribute 21, 1	@ Tag_ABI_FP_exceptions
   4              		.eabi_attribute 23, 3	@ Tag_ABI_FP_number_model
   5              		.eabi_attribute 24, 1	@ Tag_ABI_align8_needed
   6              		.eabi_attribute 25, 1	@ Tag_ABI_align8_preserved
   7              		.eabi_attribute 26, 1	@ Tag_ABI_enum_size
   8              		.eabi_attribute 30, 4	@ Tag_ABI_optimization_goals
   9              		.eabi_attribute 34, 1	@ Tag_CPU_unaligned_access
  10              		.eabi_attribute 18, 4	@ Tag_ABI_PCS_wchar_t
  11              		.file	"stm32f10x_fsmc.c"
  12              	@ GNU C17 (GNU Tools for Arm Embedded Processors 9-2019-q4-major) version 9.2.1 20191025 (release) 
  13              	@	compiled by GNU C version 5.3.1 20160211, GMP version 6.1.0, MPFR version 3.1.4, MPC version 1.0.
  14              	
  15              	@ GGC heuristics: --param ggc-min-expand=100 --param ggc-min-heapsize=131072
  16              	@ options passed:  -I . -I .\usr_inc -I .\task_inc
  17              	@ -I .\stlib\CMSIS\CM3\CoreSupport
  18              	@ -I .\stlib\CMSIS\CM3\DeviceSupport\ST\STM32F10x
  19              	@ -I .\stlib\STM32F10x_StdPeriph_Driver\inc
  20              	@ -I .\stlib\STM32F10x_StdPeriph_Driver -I .\freertos\include
  21              	@ -I .\freertos\portable\GCC\ARM_CM3 -imultilib thumb/v7-m/nofp
  22              	@ -iprefix c:\program files (x86)\gnu tools arm embedded\9 2019-q4-major\bin\../lib/gcc/arm-none-ea
  23              	@ -isysroot c:\program files (x86)\gnu tools arm embedded\9 2019-q4-major\bin\../arm-none-eabi
  24              	@ -D__USES_INITFINI__ -D STM32F10X_HD -D USE_STDPERIPH_DRIVER
  25              	@ -D HSE_VALUE=8000000 -D RUN_FROM_FLASH=1
  26              	@ .\stlib\STM32F10x_StdPeriph_Driver\src\stm32f10x_fsmc.c -mcpu=cortex-m3
  27              	@ -mthumb -mfloat-abi=soft -march=armv7-m
  28              	@ -auxbase-strip .\stlib\STM32F10x_StdPeriph_Driver\src\stm32f10x_fsmc.o -g
  29              	@ -gdwarf-2 -Os -Wall -fomit-frame-pointer -fverbose-asm
  30              	@ options enabled:  -faggressive-loop-optimizations -fassume-phsa
  31              	@ -fauto-inc-dec -fbranch-count-reg -fcaller-saves -fcode-hoisting
  32              	@ -fcombine-stack-adjustments -fcommon -fcompare-elim -fcprop-registers
  33              	@ -fcrossjumping -fcse-follow-jumps -fdefer-pop
  34              	@ -fdelete-null-pointer-checks -fdevirtualize -fdevirtualize-speculatively
  35              	@ -fdwarf2-cfi-asm -fearly-inlining -feliminate-unused-debug-types
  36              	@ -fexpensive-optimizations -fforward-propagate -ffp-int-builtin-inexact
  37              	@ -ffunction-cse -fgcse -fgcse-lm -fgnu-runtime -fgnu-unique
  38              	@ -fguess-branch-probability -fhoist-adjacent-loads -fident -fif-conversion
  39              	@ -fif-conversion2 -findirect-inlining -finline -finline-atomics
  40              	@ -finline-functions -finline-functions-called-once
  41              	@ -finline-small-functions -fipa-bit-cp -fipa-cp -fipa-icf
  42              	@ -fipa-icf-functions -fipa-icf-variables -fipa-profile -fipa-pure-const
  43              	@ -fipa-ra -fipa-reference -fipa-reference-addressable -fipa-sra
  44              	@ -fipa-stack-alignment -fipa-vrp -fira-hoist-pressure
  45              	@ -fira-share-save-slots -fira-share-spill-slots
  46              	@ -fisolate-erroneous-paths-dereference -fivopts -fkeep-static-consts
  47              	@ -fleading-underscore -flifetime-dse -flra-remat -flto-odr-type-merging
  48              	@ -fmath-errno -fmerge-constants -fmerge-debug-strings
  49              	@ -fmove-loop-invariants -fomit-frame-pointer -foptimize-sibling-calls
  50              	@ -fpartial-inlining -fpeephole -fpeephole2 -fplt -fprefetch-loop-arrays
  51              	@ -freg-struct-return -freorder-blocks -freorder-functions
  52              	@ -frerun-cse-after-loop -fsched-critical-path-heuristic
  53              	@ -fsched-dep-count-heuristic -fsched-group-heuristic -fsched-interblock
  54              	@ -fsched-last-insn-heuristic -fsched-pressure -fsched-rank-heuristic
  55              	@ -fsched-spec -fsched-spec-insn-heuristic -fsched-stalled-insns-dep
  56              	@ -fschedule-insns2 -fsection-anchors -fsemantic-interposition
  57              	@ -fshow-column -fshrink-wrap-separate -fsigned-zeros
ARM GAS  C:\Users\skey\AppData\Local\Temp\ccFDdSGQ.s 			page 2


  58              	@ -fsplit-ivs-in-unroller -fsplit-wide-types -fssa-backprop -fssa-phiopt
  59              	@ -fstdarg-opt -fstore-merging -fstrict-aliasing
  60              	@ -fstrict-volatile-bitfields -fsync-libcalls -fthread-jumps
  61              	@ -ftoplevel-reorder -ftrapping-math -ftree-bit-ccp -ftree-builtin-call-dce
  62              	@ -ftree-ccp -ftree-ch -ftree-coalesce-vars -ftree-copy-prop -ftree-cselim
  63              	@ -ftree-dce -ftree-dominator-opts -ftree-dse -ftree-forwprop -ftree-fre
  64              	@ -ftree-loop-if-convert -ftree-loop-im -ftree-loop-ivcanon
  65              	@ -ftree-loop-optimize -ftree-parallelize-loops= -ftree-phiprop -ftree-pre
  66              	@ -ftree-pta -ftree-reassoc -ftree-scev-cprop -ftree-sink -ftree-slsr
  67              	@ -ftree-sra -ftree-switch-conversion -ftree-tail-merge -ftree-ter
  68              	@ -ftree-vrp -funit-at-a-time -fvar-tracking -fvar-tracking-assignments
  69              	@ -fverbose-asm -fzero-initialized-in-bss -masm-syntax-unified -mbe32
  70              	@ -mfix-cortex-m3-ldrd -mlittle-endian -mpic-data-is-text-relative
  71              	@ -msched-prolog -mthumb -munaligned-access -mvectorize-with-neon-quad
  72              	
  73              		.text
  74              	.Ltext0:
  75              		.cfi_sections	.debug_frame
  76              		.align	1
  77              		.global	FSMC_NORSRAMDeInit
  78              		.arch armv7-m
  79              		.syntax unified
  80              		.thumb
  81              		.thumb_func
  82              		.fpu softvfp
  83              		.type	FSMC_NORSRAMDeInit, %function
  84              	FSMC_NORSRAMDeInit:
  85              	.LVL0:
  86              	.LFB29:
  87              		.file 1 ".\\stlib\\STM32F10x_StdPeriph_Driver\\src\\stm32f10x_fsmc.c"
   1:.\stlib\STM32F10x_StdPeriph_Driver\src/stm32f10x_fsmc.c **** /**
   2:.\stlib\STM32F10x_StdPeriph_Driver\src/stm32f10x_fsmc.c ****   ******************************************************************************
   3:.\stlib\STM32F10x_StdPeriph_Driver\src/stm32f10x_fsmc.c ****   * @file    stm32f10x_fsmc.c
   4:.\stlib\STM32F10x_StdPeriph_Driver\src/stm32f10x_fsmc.c ****   * @author  MCD Application Team
   5:.\stlib\STM32F10x_StdPeriph_Driver\src/stm32f10x_fsmc.c ****   * @version V3.5.0
   6:.\stlib\STM32F10x_StdPeriph_Driver\src/stm32f10x_fsmc.c ****   * @date    11-March-2011
   7:.\stlib\STM32F10x_StdPeriph_Driver\src/stm32f10x_fsmc.c ****   * @brief   This file provides all the FSMC firmware functions.
   8:.\stlib\STM32F10x_StdPeriph_Driver\src/stm32f10x_fsmc.c ****   ******************************************************************************
   9:.\stlib\STM32F10x_StdPeriph_Driver\src/stm32f10x_fsmc.c ****   * @attention
  10:.\stlib\STM32F10x_StdPeriph_Driver\src/stm32f10x_fsmc.c ****   *
  11:.\stlib\STM32F10x_StdPeriph_Driver\src/stm32f10x_fsmc.c ****   * THE PRESENT FIRMWARE WHICH IS FOR GUIDANCE ONLY AIMS AT PROVIDING CUSTOMERS
  12:.\stlib\STM32F10x_StdPeriph_Driver\src/stm32f10x_fsmc.c ****   * WITH CODING INFORMATION REGARDING THEIR PRODUCTS IN ORDER FOR THEM TO SAVE
  13:.\stlib\STM32F10x_StdPeriph_Driver\src/stm32f10x_fsmc.c ****   * TIME. AS A RESULT, STMICROELECTRONICS SHALL NOT BE HELD LIABLE FOR ANY
  14:.\stlib\STM32F10x_StdPeriph_Driver\src/stm32f10x_fsmc.c ****   * DIRECT, INDIRECT OR CONSEQUENTIAL DAMAGES WITH RESPECT TO ANY CLAIMS ARISING
  15:.\stlib\STM32F10x_StdPeriph_Driver\src/stm32f10x_fsmc.c ****   * FROM THE CONTENT OF SUCH FIRMWARE AND/OR THE USE MADE BY CUSTOMERS OF THE
  16:.\stlib\STM32F10x_StdPeriph_Driver\src/stm32f10x_fsmc.c ****   * CODING INFORMATION CONTAINED HEREIN IN CONNECTION WITH THEIR PRODUCTS.
  17:.\stlib\STM32F10x_StdPeriph_Driver\src/stm32f10x_fsmc.c ****   *
  18:.\stlib\STM32F10x_StdPeriph_Driver\src/stm32f10x_fsmc.c ****   * <h2><center>&copy; COPYRIGHT 2011 STMicroelectronics</center></h2>
  19:.\stlib\STM32F10x_StdPeriph_Driver\src/stm32f10x_fsmc.c ****   ******************************************************************************
  20:.\stlib\STM32F10x_StdPeriph_Driver\src/stm32f10x_fsmc.c ****   */
  21:.\stlib\STM32F10x_StdPeriph_Driver\src/stm32f10x_fsmc.c **** 
  22:.\stlib\STM32F10x_StdPeriph_Driver\src/stm32f10x_fsmc.c **** /* Includes ------------------------------------------------------------------*/
  23:.\stlib\STM32F10x_StdPeriph_Driver\src/stm32f10x_fsmc.c **** #include "stm32f10x_fsmc.h"
  24:.\stlib\STM32F10x_StdPeriph_Driver\src/stm32f10x_fsmc.c **** #include "stm32f10x_rcc.h"
  25:.\stlib\STM32F10x_StdPeriph_Driver\src/stm32f10x_fsmc.c **** 
  26:.\stlib\STM32F10x_StdPeriph_Driver\src/stm32f10x_fsmc.c **** /** @addtogroup STM32F10x_StdPeriph_Driver
  27:.\stlib\STM32F10x_StdPeriph_Driver\src/stm32f10x_fsmc.c ****   * @{
ARM GAS  C:\Users\skey\AppData\Local\Temp\ccFDdSGQ.s 			page 3


  28:.\stlib\STM32F10x_StdPeriph_Driver\src/stm32f10x_fsmc.c ****   */
  29:.\stlib\STM32F10x_StdPeriph_Driver\src/stm32f10x_fsmc.c **** 
  30:.\stlib\STM32F10x_StdPeriph_Driver\src/stm32f10x_fsmc.c **** /** @defgroup FSMC 
  31:.\stlib\STM32F10x_StdPeriph_Driver\src/stm32f10x_fsmc.c ****   * @brief FSMC driver modules
  32:.\stlib\STM32F10x_StdPeriph_Driver\src/stm32f10x_fsmc.c ****   * @{
  33:.\stlib\STM32F10x_StdPeriph_Driver\src/stm32f10x_fsmc.c ****   */ 
  34:.\stlib\STM32F10x_StdPeriph_Driver\src/stm32f10x_fsmc.c **** 
  35:.\stlib\STM32F10x_StdPeriph_Driver\src/stm32f10x_fsmc.c **** /** @defgroup FSMC_Private_TypesDefinitions
  36:.\stlib\STM32F10x_StdPeriph_Driver\src/stm32f10x_fsmc.c ****   * @{
  37:.\stlib\STM32F10x_StdPeriph_Driver\src/stm32f10x_fsmc.c ****   */ 
  38:.\stlib\STM32F10x_StdPeriph_Driver\src/stm32f10x_fsmc.c **** /**
  39:.\stlib\STM32F10x_StdPeriph_Driver\src/stm32f10x_fsmc.c ****   * @}
  40:.\stlib\STM32F10x_StdPeriph_Driver\src/stm32f10x_fsmc.c ****   */
  41:.\stlib\STM32F10x_StdPeriph_Driver\src/stm32f10x_fsmc.c **** 
  42:.\stlib\STM32F10x_StdPeriph_Driver\src/stm32f10x_fsmc.c **** /** @defgroup FSMC_Private_Defines
  43:.\stlib\STM32F10x_StdPeriph_Driver\src/stm32f10x_fsmc.c ****   * @{
  44:.\stlib\STM32F10x_StdPeriph_Driver\src/stm32f10x_fsmc.c ****   */
  45:.\stlib\STM32F10x_StdPeriph_Driver\src/stm32f10x_fsmc.c **** 
  46:.\stlib\STM32F10x_StdPeriph_Driver\src/stm32f10x_fsmc.c **** /* --------------------- FSMC registers bit mask ---------------------------- */
  47:.\stlib\STM32F10x_StdPeriph_Driver\src/stm32f10x_fsmc.c **** 
  48:.\stlib\STM32F10x_StdPeriph_Driver\src/stm32f10x_fsmc.c **** /* FSMC BCRx Mask */
  49:.\stlib\STM32F10x_StdPeriph_Driver\src/stm32f10x_fsmc.c **** #define BCR_MBKEN_Set                       ((uint32_t)0x00000001)
  50:.\stlib\STM32F10x_StdPeriph_Driver\src/stm32f10x_fsmc.c **** #define BCR_MBKEN_Reset                     ((uint32_t)0x000FFFFE)
  51:.\stlib\STM32F10x_StdPeriph_Driver\src/stm32f10x_fsmc.c **** #define BCR_FACCEN_Set                      ((uint32_t)0x00000040)
  52:.\stlib\STM32F10x_StdPeriph_Driver\src/stm32f10x_fsmc.c **** 
  53:.\stlib\STM32F10x_StdPeriph_Driver\src/stm32f10x_fsmc.c **** /* FSMC PCRx Mask */
  54:.\stlib\STM32F10x_StdPeriph_Driver\src/stm32f10x_fsmc.c **** #define PCR_PBKEN_Set                       ((uint32_t)0x00000004)
  55:.\stlib\STM32F10x_StdPeriph_Driver\src/stm32f10x_fsmc.c **** #define PCR_PBKEN_Reset                     ((uint32_t)0x000FFFFB)
  56:.\stlib\STM32F10x_StdPeriph_Driver\src/stm32f10x_fsmc.c **** #define PCR_ECCEN_Set                       ((uint32_t)0x00000040)
  57:.\stlib\STM32F10x_StdPeriph_Driver\src/stm32f10x_fsmc.c **** #define PCR_ECCEN_Reset                     ((uint32_t)0x000FFFBF)
  58:.\stlib\STM32F10x_StdPeriph_Driver\src/stm32f10x_fsmc.c **** #define PCR_MemoryType_NAND                 ((uint32_t)0x00000008)
  59:.\stlib\STM32F10x_StdPeriph_Driver\src/stm32f10x_fsmc.c **** /**
  60:.\stlib\STM32F10x_StdPeriph_Driver\src/stm32f10x_fsmc.c ****   * @}
  61:.\stlib\STM32F10x_StdPeriph_Driver\src/stm32f10x_fsmc.c ****   */
  62:.\stlib\STM32F10x_StdPeriph_Driver\src/stm32f10x_fsmc.c **** 
  63:.\stlib\STM32F10x_StdPeriph_Driver\src/stm32f10x_fsmc.c **** /** @defgroup FSMC_Private_Macros
  64:.\stlib\STM32F10x_StdPeriph_Driver\src/stm32f10x_fsmc.c ****   * @{
  65:.\stlib\STM32F10x_StdPeriph_Driver\src/stm32f10x_fsmc.c ****   */
  66:.\stlib\STM32F10x_StdPeriph_Driver\src/stm32f10x_fsmc.c **** 
  67:.\stlib\STM32F10x_StdPeriph_Driver\src/stm32f10x_fsmc.c **** /**
  68:.\stlib\STM32F10x_StdPeriph_Driver\src/stm32f10x_fsmc.c ****   * @}
  69:.\stlib\STM32F10x_StdPeriph_Driver\src/stm32f10x_fsmc.c ****   */
  70:.\stlib\STM32F10x_StdPeriph_Driver\src/stm32f10x_fsmc.c **** 
  71:.\stlib\STM32F10x_StdPeriph_Driver\src/stm32f10x_fsmc.c **** /** @defgroup FSMC_Private_Variables
  72:.\stlib\STM32F10x_StdPeriph_Driver\src/stm32f10x_fsmc.c ****   * @{
  73:.\stlib\STM32F10x_StdPeriph_Driver\src/stm32f10x_fsmc.c ****   */
  74:.\stlib\STM32F10x_StdPeriph_Driver\src/stm32f10x_fsmc.c **** 
  75:.\stlib\STM32F10x_StdPeriph_Driver\src/stm32f10x_fsmc.c **** /**
  76:.\stlib\STM32F10x_StdPeriph_Driver\src/stm32f10x_fsmc.c ****   * @}
  77:.\stlib\STM32F10x_StdPeriph_Driver\src/stm32f10x_fsmc.c ****   */
  78:.\stlib\STM32F10x_StdPeriph_Driver\src/stm32f10x_fsmc.c **** 
  79:.\stlib\STM32F10x_StdPeriph_Driver\src/stm32f10x_fsmc.c **** /** @defgroup FSMC_Private_FunctionPrototypes
  80:.\stlib\STM32F10x_StdPeriph_Driver\src/stm32f10x_fsmc.c ****   * @{
  81:.\stlib\STM32F10x_StdPeriph_Driver\src/stm32f10x_fsmc.c ****   */
  82:.\stlib\STM32F10x_StdPeriph_Driver\src/stm32f10x_fsmc.c **** 
  83:.\stlib\STM32F10x_StdPeriph_Driver\src/stm32f10x_fsmc.c **** /**
  84:.\stlib\STM32F10x_StdPeriph_Driver\src/stm32f10x_fsmc.c ****   * @}
ARM GAS  C:\Users\skey\AppData\Local\Temp\ccFDdSGQ.s 			page 4


  85:.\stlib\STM32F10x_StdPeriph_Driver\src/stm32f10x_fsmc.c ****   */
  86:.\stlib\STM32F10x_StdPeriph_Driver\src/stm32f10x_fsmc.c **** 
  87:.\stlib\STM32F10x_StdPeriph_Driver\src/stm32f10x_fsmc.c **** /** @defgroup FSMC_Private_Functions
  88:.\stlib\STM32F10x_StdPeriph_Driver\src/stm32f10x_fsmc.c ****   * @{
  89:.\stlib\STM32F10x_StdPeriph_Driver\src/stm32f10x_fsmc.c ****   */
  90:.\stlib\STM32F10x_StdPeriph_Driver\src/stm32f10x_fsmc.c **** 
  91:.\stlib\STM32F10x_StdPeriph_Driver\src/stm32f10x_fsmc.c **** /**
  92:.\stlib\STM32F10x_StdPeriph_Driver\src/stm32f10x_fsmc.c ****   * @brief  Deinitializes the FSMC NOR/SRAM Banks registers to their default 
  93:.\stlib\STM32F10x_StdPeriph_Driver\src/stm32f10x_fsmc.c ****   *         reset values.
  94:.\stlib\STM32F10x_StdPeriph_Driver\src/stm32f10x_fsmc.c ****   * @param  FSMC_Bank: specifies the FSMC Bank to be used
  95:.\stlib\STM32F10x_StdPeriph_Driver\src/stm32f10x_fsmc.c ****   *   This parameter can be one of the following values:
  96:.\stlib\STM32F10x_StdPeriph_Driver\src/stm32f10x_fsmc.c ****   *     @arg FSMC_Bank1_NORSRAM1: FSMC Bank1 NOR/SRAM1  
  97:.\stlib\STM32F10x_StdPeriph_Driver\src/stm32f10x_fsmc.c ****   *     @arg FSMC_Bank1_NORSRAM2: FSMC Bank1 NOR/SRAM2 
  98:.\stlib\STM32F10x_StdPeriph_Driver\src/stm32f10x_fsmc.c ****   *     @arg FSMC_Bank1_NORSRAM3: FSMC Bank1 NOR/SRAM3 
  99:.\stlib\STM32F10x_StdPeriph_Driver\src/stm32f10x_fsmc.c ****   *     @arg FSMC_Bank1_NORSRAM4: FSMC Bank1 NOR/SRAM4 
 100:.\stlib\STM32F10x_StdPeriph_Driver\src/stm32f10x_fsmc.c ****   * @retval None
 101:.\stlib\STM32F10x_StdPeriph_Driver\src/stm32f10x_fsmc.c ****   */
 102:.\stlib\STM32F10x_StdPeriph_Driver\src/stm32f10x_fsmc.c **** void FSMC_NORSRAMDeInit(uint32_t FSMC_Bank)
 103:.\stlib\STM32F10x_StdPeriph_Driver\src/stm32f10x_fsmc.c **** {
  88              		.loc 1 103 1 view -0
  89              		.cfi_startproc
  90              		@ args = 0, pretend = 0, frame = 0
  91              		@ frame_needed = 0, uses_anonymous_args = 0
  92              		@ link register save eliminated.
 104:.\stlib\STM32F10x_StdPeriph_Driver\src/stm32f10x_fsmc.c ****   /* Check the parameter */
 105:.\stlib\STM32F10x_StdPeriph_Driver\src/stm32f10x_fsmc.c ****   assert_param(IS_FSMC_NORSRAM_BANK(FSMC_Bank));
  93              		.loc 1 105 3 view .LVU1
 106:.\stlib\STM32F10x_StdPeriph_Driver\src/stm32f10x_fsmc.c ****   
 107:.\stlib\STM32F10x_StdPeriph_Driver\src/stm32f10x_fsmc.c ****   /* FSMC_Bank1_NORSRAM1 */
 108:.\stlib\STM32F10x_StdPeriph_Driver\src/stm32f10x_fsmc.c ****   if(FSMC_Bank == FSMC_Bank1_NORSRAM1)
  94              		.loc 1 108 3 view .LVU2
  95 0000 4FF02043 		mov	r3, #-1610612736	@ tmp121,
  96              	@ .\stlib\STM32F10x_StdPeriph_Driver\src\stm32f10x_fsmc.c:108:   if(FSMC_Bank == FSMC_Bank1_NORSRAM
  97              		.loc 1 108 5 is_stmt 0 view .LVU3
  98 0004 58B9     		cbnz	r0, .L2	@ FSMC_Bank,
 109:.\stlib\STM32F10x_StdPeriph_Driver\src/stm32f10x_fsmc.c ****   {
 110:.\stlib\STM32F10x_StdPeriph_Driver\src/stm32f10x_fsmc.c ****     FSMC_Bank1->BTCR[FSMC_Bank] = 0x000030DB;    
  99              		.loc 1 110 5 is_stmt 1 view .LVU4
 100              	@ .\stlib\STM32F10x_StdPeriph_Driver\src\stm32f10x_fsmc.c:110:     FSMC_Bank1->BTCR[FSMC_Bank] = 0x
 101              		.loc 1 110 33 is_stmt 0 view .LVU5
 102 0006 43F2DB02 		movw	r2, #12507	@ tmp115,
 103 000a 1A60     		str	r2, [r3]	@ tmp115, MEM[(struct FSMC_Bank1_TypeDef *)2684354560B]
 104              	.L3:
 111:.\stlib\STM32F10x_StdPeriph_Driver\src/stm32f10x_fsmc.c ****   }
 112:.\stlib\STM32F10x_StdPeriph_Driver\src/stm32f10x_fsmc.c ****   /* FSMC_Bank1_NORSRAM2,  FSMC_Bank1_NORSRAM3 or FSMC_Bank1_NORSRAM4 */
 113:.\stlib\STM32F10x_StdPeriph_Driver\src/stm32f10x_fsmc.c ****   else
 114:.\stlib\STM32F10x_StdPeriph_Driver\src/stm32f10x_fsmc.c ****   {   
 115:.\stlib\STM32F10x_StdPeriph_Driver\src/stm32f10x_fsmc.c ****     FSMC_Bank1->BTCR[FSMC_Bank] = 0x000030D2; 
 116:.\stlib\STM32F10x_StdPeriph_Driver\src/stm32f10x_fsmc.c ****   }
 117:.\stlib\STM32F10x_StdPeriph_Driver\src/stm32f10x_fsmc.c ****   FSMC_Bank1->BTCR[FSMC_Bank + 1] = 0x0FFFFFFF;
 105              		.loc 1 117 3 is_stmt 1 view .LVU6
 106              	@ .\stlib\STM32F10x_StdPeriph_Driver\src\stm32f10x_fsmc.c:117:   FSMC_Bank1->BTCR[FSMC_Bank + 1] = 
 107              		.loc 1 117 35 is_stmt 0 view .LVU7
 108 000c 6FF07043 		mvn	r3, #-268435456	@ tmp118,
 109 0010 8000     		lsls	r0, r0, #2	@ _10, FSMC_Bank,
 110              	.LVL1:
 111              		.loc 1 117 35 view .LVU8
ARM GAS  C:\Users\skey\AppData\Local\Temp\ccFDdSGQ.s 			page 5


 112 0012 00F12040 		add	r0, r0, #-1610612736	@ _9, _10,
 113 0016 4360     		str	r3, [r0, #4]	@ tmp118, MEM[(struct FSMC_Bank1_TypeDef *)_9 + 4B]
 118:.\stlib\STM32F10x_StdPeriph_Driver\src/stm32f10x_fsmc.c ****   FSMC_Bank1E->BWTR[FSMC_Bank] = 0x0FFFFFFF;  
 114              		.loc 1 118 3 is_stmt 1 view .LVU9
 115              	@ .\stlib\STM32F10x_StdPeriph_Driver\src\stm32f10x_fsmc.c:118:   FSMC_Bank1E->BWTR[FSMC_Bank] = 0x0
 116              		.loc 1 118 32 is_stmt 0 view .LVU10
 117 0018 C0F80431 		str	r3, [r0, #260]	@ tmp118, MEM[(struct FSMC_Bank1E_TypeDef *)_12]
 118              	@ .\stlib\STM32F10x_StdPeriph_Driver\src\stm32f10x_fsmc.c:119: }
 119:.\stlib\STM32F10x_StdPeriph_Driver\src/stm32f10x_fsmc.c **** }
 119              		.loc 1 119 1 view .LVU11
 120 001c 7047     		bx	lr	@
 121              	.LVL2:
 122              	.L2:
 115:.\stlib\STM32F10x_StdPeriph_Driver\src/stm32f10x_fsmc.c ****   }
 123              		.loc 1 115 5 is_stmt 1 view .LVU12
 124              	@ .\stlib\STM32F10x_StdPeriph_Driver\src\stm32f10x_fsmc.c:115:     FSMC_Bank1->BTCR[FSMC_Bank] = 0x
 115:.\stlib\STM32F10x_StdPeriph_Driver\src/stm32f10x_fsmc.c ****   }
 125              		.loc 1 115 33 is_stmt 0 view .LVU13
 126 001e 43F2D202 		movw	r2, #12498	@ tmp117,
 127 0022 43F82020 		str	r2, [r3, r0, lsl #2]	@ tmp117, MEM[(struct FSMC_Bank1_TypeDef *)2684354560B]
 128 0026 F1E7     		b	.L3		@
 129              		.cfi_endproc
 130              	.LFE29:
 131              		.size	FSMC_NORSRAMDeInit, .-FSMC_NORSRAMDeInit
 132              		.align	1
 133              		.global	FSMC_NANDDeInit
 134              		.syntax unified
 135              		.thumb
 136              		.thumb_func
 137              		.fpu softvfp
 138              		.type	FSMC_NANDDeInit, %function
 139              	FSMC_NANDDeInit:
 140              	.LVL3:
 141              	.LFB30:
 120:.\stlib\STM32F10x_StdPeriph_Driver\src/stm32f10x_fsmc.c **** 
 121:.\stlib\STM32F10x_StdPeriph_Driver\src/stm32f10x_fsmc.c **** /**
 122:.\stlib\STM32F10x_StdPeriph_Driver\src/stm32f10x_fsmc.c ****   * @brief  Deinitializes the FSMC NAND Banks registers to their default reset values.
 123:.\stlib\STM32F10x_StdPeriph_Driver\src/stm32f10x_fsmc.c ****   * @param  FSMC_Bank: specifies the FSMC Bank to be used
 124:.\stlib\STM32F10x_StdPeriph_Driver\src/stm32f10x_fsmc.c ****   *   This parameter can be one of the following values:
 125:.\stlib\STM32F10x_StdPeriph_Driver\src/stm32f10x_fsmc.c ****   *     @arg FSMC_Bank2_NAND: FSMC Bank2 NAND 
 126:.\stlib\STM32F10x_StdPeriph_Driver\src/stm32f10x_fsmc.c ****   *     @arg FSMC_Bank3_NAND: FSMC Bank3 NAND 
 127:.\stlib\STM32F10x_StdPeriph_Driver\src/stm32f10x_fsmc.c ****   * @retval None
 128:.\stlib\STM32F10x_StdPeriph_Driver\src/stm32f10x_fsmc.c ****   */
 129:.\stlib\STM32F10x_StdPeriph_Driver\src/stm32f10x_fsmc.c **** void FSMC_NANDDeInit(uint32_t FSMC_Bank)
 130:.\stlib\STM32F10x_StdPeriph_Driver\src/stm32f10x_fsmc.c **** {
 142              		.loc 1 130 1 is_stmt 1 view -0
 143              		.cfi_startproc
 144              		@ args = 0, pretend = 0, frame = 0
 145              		@ frame_needed = 0, uses_anonymous_args = 0
 146              		@ link register save eliminated.
 131:.\stlib\STM32F10x_StdPeriph_Driver\src/stm32f10x_fsmc.c ****   /* Check the parameter */
 132:.\stlib\STM32F10x_StdPeriph_Driver\src/stm32f10x_fsmc.c ****   assert_param(IS_FSMC_NAND_BANK(FSMC_Bank));
 147              		.loc 1 132 3 view .LVU15
 133:.\stlib\STM32F10x_StdPeriph_Driver\src/stm32f10x_fsmc.c ****   
 134:.\stlib\STM32F10x_StdPeriph_Driver\src/stm32f10x_fsmc.c ****   if(FSMC_Bank == FSMC_Bank2_NAND)
 148              		.loc 1 134 3 view .LVU16
 149 0028 4022     		movs	r2, #64	@ tmp128,
ARM GAS  C:\Users\skey\AppData\Local\Temp\ccFDdSGQ.s 			page 6


 135:.\stlib\STM32F10x_StdPeriph_Driver\src/stm32f10x_fsmc.c ****   {
 136:.\stlib\STM32F10x_StdPeriph_Driver\src/stm32f10x_fsmc.c ****     /* Set the FSMC_Bank2 registers to their reset values */
 137:.\stlib\STM32F10x_StdPeriph_Driver\src/stm32f10x_fsmc.c ****     FSMC_Bank2->PCR2 = 0x00000018;
 150              		.loc 1 137 5 view .LVU17
 151 002a 1821     		movs	r1, #24	@ tmp127,
 152              	@ .\stlib\STM32F10x_StdPeriph_Driver\src\stm32f10x_fsmc.c:134:   if(FSMC_Bank == FSMC_Bank2_NAND)
 134:.\stlib\STM32F10x_StdPeriph_Driver\src/stm32f10x_fsmc.c ****   {
 153              		.loc 1 134 5 is_stmt 0 view .LVU18
 154 002c 1028     		cmp	r0, #16	@ tmp129,
 155              	@ .\stlib\STM32F10x_StdPeriph_Driver\src\stm32f10x_fsmc.c:137:     FSMC_Bank2->PCR2 = 0x00000018;
 156              		.loc 1 137 22 view .LVU19
 157 002e 0CBF     		ite	eq
 158 0030 044B     		ldreq	r3, .L8	@ tmp111,
 138:.\stlib\STM32F10x_StdPeriph_Driver\src/stm32f10x_fsmc.c ****     FSMC_Bank2->SR2 = 0x00000040;
 139:.\stlib\STM32F10x_StdPeriph_Driver\src/stm32f10x_fsmc.c ****     FSMC_Bank2->PMEM2 = 0xFCFCFCFC;
 140:.\stlib\STM32F10x_StdPeriph_Driver\src/stm32f10x_fsmc.c ****     FSMC_Bank2->PATT2 = 0xFCFCFCFC;  
 141:.\stlib\STM32F10x_StdPeriph_Driver\src/stm32f10x_fsmc.c ****   }
 142:.\stlib\STM32F10x_StdPeriph_Driver\src/stm32f10x_fsmc.c ****   /* FSMC_Bank3_NAND */  
 143:.\stlib\STM32F10x_StdPeriph_Driver\src/stm32f10x_fsmc.c ****   else
 144:.\stlib\STM32F10x_StdPeriph_Driver\src/stm32f10x_fsmc.c ****   {
 145:.\stlib\STM32F10x_StdPeriph_Driver\src/stm32f10x_fsmc.c ****     /* Set the FSMC_Bank3 registers to their reset values */
 146:.\stlib\STM32F10x_StdPeriph_Driver\src/stm32f10x_fsmc.c ****     FSMC_Bank3->PCR3 = 0x00000018;
 159              		.loc 1 146 5 is_stmt 1 view .LVU20
 160              	@ .\stlib\STM32F10x_StdPeriph_Driver\src\stm32f10x_fsmc.c:146:     FSMC_Bank3->PCR3 = 0x00000018;
 161              		.loc 1 146 22 is_stmt 0 view .LVU21
 162 0032 054B     		ldrne	r3, .L8+4	@ tmp119,
 163 0034 1960     		str	r1, [r3]	@ tmp127,
 147:.\stlib\STM32F10x_StdPeriph_Driver\src/stm32f10x_fsmc.c ****     FSMC_Bank3->SR3 = 0x00000040;
 164              		.loc 1 147 5 is_stmt 1 view .LVU22
 165              	@ .\stlib\STM32F10x_StdPeriph_Driver\src\stm32f10x_fsmc.c:147:     FSMC_Bank3->SR3 = 0x00000040;
 166              		.loc 1 147 21 is_stmt 0 view .LVU23
 167 0036 5A60     		str	r2, [r3, #4]	@ tmp128,
 148:.\stlib\STM32F10x_StdPeriph_Driver\src/stm32f10x_fsmc.c ****     FSMC_Bank3->PMEM3 = 0xFCFCFCFC;
 168              		.loc 1 148 5 is_stmt 1 view .LVU24
 169              	@ .\stlib\STM32F10x_StdPeriph_Driver\src\stm32f10x_fsmc.c:148:     FSMC_Bank3->PMEM3 = 0xFCFCFCFC;
 170              		.loc 1 148 23 is_stmt 0 view .LVU25
 171 0038 4FF0FC32 		mov	r2, #-50529028	@ tmp124,
 172 003c 9A60     		str	r2, [r3, #8]	@ tmp124,
 149:.\stlib\STM32F10x_StdPeriph_Driver\src/stm32f10x_fsmc.c ****     FSMC_Bank3->PATT3 = 0xFCFCFCFC; 
 173              		.loc 1 149 5 is_stmt 1 view .LVU26
 174              	@ .\stlib\STM32F10x_StdPeriph_Driver\src\stm32f10x_fsmc.c:149:     FSMC_Bank3->PATT3 = 0xFCFCFCFC; 
 175              		.loc 1 149 23 is_stmt 0 view .LVU27
 176 003e DA60     		str	r2, [r3, #12]	@ tmp124,
 177              	@ .\stlib\STM32F10x_StdPeriph_Driver\src\stm32f10x_fsmc.c:151: }
 150:.\stlib\STM32F10x_StdPeriph_Driver\src/stm32f10x_fsmc.c ****   }  
 151:.\stlib\STM32F10x_StdPeriph_Driver\src/stm32f10x_fsmc.c **** }
 178              		.loc 1 151 1 view .LVU28
 179 0040 7047     		bx	lr	@
 180              	.L9:
 181 0042 00BF     		.align	2
 182              	.L8:
 183 0044 600000A0 		.word	-1610612640
 184 0048 800000A0 		.word	-1610612608
 185              		.cfi_endproc
 186              	.LFE30:
 187              		.size	FSMC_NANDDeInit, .-FSMC_NANDDeInit
 188              		.align	1
ARM GAS  C:\Users\skey\AppData\Local\Temp\ccFDdSGQ.s 			page 7


 189              		.global	FSMC_PCCARDDeInit
 190              		.syntax unified
 191              		.thumb
 192              		.thumb_func
 193              		.fpu softvfp
 194              		.type	FSMC_PCCARDDeInit, %function
 195              	FSMC_PCCARDDeInit:
 196              	.LFB31:
 152:.\stlib\STM32F10x_StdPeriph_Driver\src/stm32f10x_fsmc.c **** 
 153:.\stlib\STM32F10x_StdPeriph_Driver\src/stm32f10x_fsmc.c **** /**
 154:.\stlib\STM32F10x_StdPeriph_Driver\src/stm32f10x_fsmc.c ****   * @brief  Deinitializes the FSMC PCCARD Bank registers to their default reset values.
 155:.\stlib\STM32F10x_StdPeriph_Driver\src/stm32f10x_fsmc.c ****   * @param  None                       
 156:.\stlib\STM32F10x_StdPeriph_Driver\src/stm32f10x_fsmc.c ****   * @retval None
 157:.\stlib\STM32F10x_StdPeriph_Driver\src/stm32f10x_fsmc.c ****   */
 158:.\stlib\STM32F10x_StdPeriph_Driver\src/stm32f10x_fsmc.c **** void FSMC_PCCARDDeInit(void)
 159:.\stlib\STM32F10x_StdPeriph_Driver\src/stm32f10x_fsmc.c **** {
 197              		.loc 1 159 1 is_stmt 1 view -0
 198              		.cfi_startproc
 199              		@ args = 0, pretend = 0, frame = 0
 200              		@ frame_needed = 0, uses_anonymous_args = 0
 201              		@ link register save eliminated.
 160:.\stlib\STM32F10x_StdPeriph_Driver\src/stm32f10x_fsmc.c ****   /* Set the FSMC_Bank4 registers to their reset values */
 161:.\stlib\STM32F10x_StdPeriph_Driver\src/stm32f10x_fsmc.c ****   FSMC_Bank4->PCR4 = 0x00000018; 
 202              		.loc 1 161 3 view .LVU30
 203              	@ .\stlib\STM32F10x_StdPeriph_Driver\src\stm32f10x_fsmc.c:161:   FSMC_Bank4->PCR4 = 0x00000018; 
 204              		.loc 1 161 20 is_stmt 0 view .LVU31
 205 004c 1822     		movs	r2, #24	@ tmp111,
 206 004e 054B     		ldr	r3, .L11	@ tmp110,
 207 0050 1A60     		str	r2, [r3]	@ tmp111, MEM[(struct FSMC_Bank4_TypeDef *)2684354720B].PCR4
 162:.\stlib\STM32F10x_StdPeriph_Driver\src/stm32f10x_fsmc.c ****   FSMC_Bank4->SR4 = 0x00000000;	
 208              		.loc 1 162 3 is_stmt 1 view .LVU32
 209              	@ .\stlib\STM32F10x_StdPeriph_Driver\src\stm32f10x_fsmc.c:162:   FSMC_Bank4->SR4 = 0x00000000;	
 210              		.loc 1 162 19 is_stmt 0 view .LVU33
 211 0052 0022     		movs	r2, #0	@ tmp113,
 212 0054 5A60     		str	r2, [r3, #4]	@ tmp113, MEM[(struct FSMC_Bank4_TypeDef *)2684354720B].SR4
 163:.\stlib\STM32F10x_StdPeriph_Driver\src/stm32f10x_fsmc.c ****   FSMC_Bank4->PMEM4 = 0xFCFCFCFC;
 213              		.loc 1 163 3 is_stmt 1 view .LVU34
 214              	@ .\stlib\STM32F10x_StdPeriph_Driver\src\stm32f10x_fsmc.c:163:   FSMC_Bank4->PMEM4 = 0xFCFCFCFC;
 215              		.loc 1 163 21 is_stmt 0 view .LVU35
 216 0056 4FF0FC32 		mov	r2, #-50529028	@ tmp115,
 217 005a 9A60     		str	r2, [r3, #8]	@ tmp115, MEM[(struct FSMC_Bank4_TypeDef *)2684354720B].PMEM4
 164:.\stlib\STM32F10x_StdPeriph_Driver\src/stm32f10x_fsmc.c ****   FSMC_Bank4->PATT4 = 0xFCFCFCFC;
 218              		.loc 1 164 3 is_stmt 1 view .LVU36
 219              	@ .\stlib\STM32F10x_StdPeriph_Driver\src\stm32f10x_fsmc.c:164:   FSMC_Bank4->PATT4 = 0xFCFCFCFC;
 220              		.loc 1 164 21 is_stmt 0 view .LVU37
 221 005c DA60     		str	r2, [r3, #12]	@ tmp115, MEM[(struct FSMC_Bank4_TypeDef *)2684354720B].PATT4
 165:.\stlib\STM32F10x_StdPeriph_Driver\src/stm32f10x_fsmc.c ****   FSMC_Bank4->PIO4 = 0xFCFCFCFC;
 222              		.loc 1 165 3 is_stmt 1 view .LVU38
 223              	@ .\stlib\STM32F10x_StdPeriph_Driver\src\stm32f10x_fsmc.c:165:   FSMC_Bank4->PIO4 = 0xFCFCFCFC;
 224              		.loc 1 165 20 is_stmt 0 view .LVU39
 225 005e 1A61     		str	r2, [r3, #16]	@ tmp115, MEM[(struct FSMC_Bank4_TypeDef *)2684354720B].PIO4
 226              	@ .\stlib\STM32F10x_StdPeriph_Driver\src\stm32f10x_fsmc.c:166: }
 166:.\stlib\STM32F10x_StdPeriph_Driver\src/stm32f10x_fsmc.c **** }
 227              		.loc 1 166 1 view .LVU40
 228 0060 7047     		bx	lr	@
 229              	.L12:
 230 0062 00BF     		.align	2
ARM GAS  C:\Users\skey\AppData\Local\Temp\ccFDdSGQ.s 			page 8


 231              	.L11:
 232 0064 A00000A0 		.word	-1610612576
 233              		.cfi_endproc
 234              	.LFE31:
 235              		.size	FSMC_PCCARDDeInit, .-FSMC_PCCARDDeInit
 236              		.align	1
 237              		.global	FSMC_NORSRAMInit
 238              		.syntax unified
 239              		.thumb
 240              		.thumb_func
 241              		.fpu softvfp
 242              		.type	FSMC_NORSRAMInit, %function
 243              	FSMC_NORSRAMInit:
 244              	.LVL4:
 245              	.LFB32:
 167:.\stlib\STM32F10x_StdPeriph_Driver\src/stm32f10x_fsmc.c **** 
 168:.\stlib\STM32F10x_StdPeriph_Driver\src/stm32f10x_fsmc.c **** /**
 169:.\stlib\STM32F10x_StdPeriph_Driver\src/stm32f10x_fsmc.c ****   * @brief  Initializes the FSMC NOR/SRAM Banks according to the specified
 170:.\stlib\STM32F10x_StdPeriph_Driver\src/stm32f10x_fsmc.c ****   *         parameters in the FSMC_NORSRAMInitStruct.
 171:.\stlib\STM32F10x_StdPeriph_Driver\src/stm32f10x_fsmc.c ****   * @param  FSMC_NORSRAMInitStruct : pointer to a FSMC_NORSRAMInitTypeDef
 172:.\stlib\STM32F10x_StdPeriph_Driver\src/stm32f10x_fsmc.c ****   *         structure that contains the configuration information for 
 173:.\stlib\STM32F10x_StdPeriph_Driver\src/stm32f10x_fsmc.c ****   *        the FSMC NOR/SRAM specified Banks.                       
 174:.\stlib\STM32F10x_StdPeriph_Driver\src/stm32f10x_fsmc.c ****   * @retval None
 175:.\stlib\STM32F10x_StdPeriph_Driver\src/stm32f10x_fsmc.c ****   */
 176:.\stlib\STM32F10x_StdPeriph_Driver\src/stm32f10x_fsmc.c **** void FSMC_NORSRAMInit(FSMC_NORSRAMInitTypeDef* FSMC_NORSRAMInitStruct)
 177:.\stlib\STM32F10x_StdPeriph_Driver\src/stm32f10x_fsmc.c **** { 
 246              		.loc 1 177 1 is_stmt 1 view -0
 247              		.cfi_startproc
 248              		@ args = 0, pretend = 0, frame = 0
 249              		@ frame_needed = 0, uses_anonymous_args = 0
 178:.\stlib\STM32F10x_StdPeriph_Driver\src/stm32f10x_fsmc.c ****   /* Check the parameters */
 179:.\stlib\STM32F10x_StdPeriph_Driver\src/stm32f10x_fsmc.c ****   assert_param(IS_FSMC_NORSRAM_BANK(FSMC_NORSRAMInitStruct->FSMC_Bank));
 250              		.loc 1 179 3 view .LVU42
 180:.\stlib\STM32F10x_StdPeriph_Driver\src/stm32f10x_fsmc.c ****   assert_param(IS_FSMC_MUX(FSMC_NORSRAMInitStruct->FSMC_DataAddressMux));
 251              		.loc 1 180 3 view .LVU43
 181:.\stlib\STM32F10x_StdPeriph_Driver\src/stm32f10x_fsmc.c ****   assert_param(IS_FSMC_MEMORY(FSMC_NORSRAMInitStruct->FSMC_MemoryType));
 252              		.loc 1 181 3 view .LVU44
 182:.\stlib\STM32F10x_StdPeriph_Driver\src/stm32f10x_fsmc.c ****   assert_param(IS_FSMC_MEMORY_WIDTH(FSMC_NORSRAMInitStruct->FSMC_MemoryDataWidth));
 253              		.loc 1 182 3 view .LVU45
 183:.\stlib\STM32F10x_StdPeriph_Driver\src/stm32f10x_fsmc.c ****   assert_param(IS_FSMC_BURSTMODE(FSMC_NORSRAMInitStruct->FSMC_BurstAccessMode));
 254              		.loc 1 183 3 view .LVU46
 184:.\stlib\STM32F10x_StdPeriph_Driver\src/stm32f10x_fsmc.c ****   assert_param(IS_FSMC_ASYNWAIT(FSMC_NORSRAMInitStruct->FSMC_AsynchronousWait));
 255              		.loc 1 184 3 view .LVU47
 185:.\stlib\STM32F10x_StdPeriph_Driver\src/stm32f10x_fsmc.c ****   assert_param(IS_FSMC_WAIT_POLARITY(FSMC_NORSRAMInitStruct->FSMC_WaitSignalPolarity));
 256              		.loc 1 185 3 view .LVU48
 186:.\stlib\STM32F10x_StdPeriph_Driver\src/stm32f10x_fsmc.c ****   assert_param(IS_FSMC_WRAP_MODE(FSMC_NORSRAMInitStruct->FSMC_WrapMode));
 257              		.loc 1 186 3 view .LVU49
 187:.\stlib\STM32F10x_StdPeriph_Driver\src/stm32f10x_fsmc.c ****   assert_param(IS_FSMC_WAIT_SIGNAL_ACTIVE(FSMC_NORSRAMInitStruct->FSMC_WaitSignalActive));
 258              		.loc 1 187 3 view .LVU50
 188:.\stlib\STM32F10x_StdPeriph_Driver\src/stm32f10x_fsmc.c ****   assert_param(IS_FSMC_WRITE_OPERATION(FSMC_NORSRAMInitStruct->FSMC_WriteOperation));
 259              		.loc 1 188 3 view .LVU51
 189:.\stlib\STM32F10x_StdPeriph_Driver\src/stm32f10x_fsmc.c ****   assert_param(IS_FSMC_WAITE_SIGNAL(FSMC_NORSRAMInitStruct->FSMC_WaitSignal));
 260              		.loc 1 189 3 view .LVU52
 190:.\stlib\STM32F10x_StdPeriph_Driver\src/stm32f10x_fsmc.c ****   assert_param(IS_FSMC_EXTENDED_MODE(FSMC_NORSRAMInitStruct->FSMC_ExtendedMode));
 261              		.loc 1 190 3 view .LVU53
 191:.\stlib\STM32F10x_StdPeriph_Driver\src/stm32f10x_fsmc.c ****   assert_param(IS_FSMC_WRITE_BURST(FSMC_NORSRAMInitStruct->FSMC_WriteBurst));  
 262              		.loc 1 191 3 view .LVU54
ARM GAS  C:\Users\skey\AppData\Local\Temp\ccFDdSGQ.s 			page 9


 192:.\stlib\STM32F10x_StdPeriph_Driver\src/stm32f10x_fsmc.c ****   assert_param(IS_FSMC_ADDRESS_SETUP_TIME(FSMC_NORSRAMInitStruct->FSMC_ReadWriteTimingStruct->FSMC_
 263              		.loc 1 192 3 view .LVU55
 193:.\stlib\STM32F10x_StdPeriph_Driver\src/stm32f10x_fsmc.c ****   assert_param(IS_FSMC_ADDRESS_HOLD_TIME(FSMC_NORSRAMInitStruct->FSMC_ReadWriteTimingStruct->FSMC_A
 264              		.loc 1 193 3 view .LVU56
 194:.\stlib\STM32F10x_StdPeriph_Driver\src/stm32f10x_fsmc.c ****   assert_param(IS_FSMC_DATASETUP_TIME(FSMC_NORSRAMInitStruct->FSMC_ReadWriteTimingStruct->FSMC_Data
 265              		.loc 1 194 3 view .LVU57
 195:.\stlib\STM32F10x_StdPeriph_Driver\src/stm32f10x_fsmc.c ****   assert_param(IS_FSMC_TURNAROUND_TIME(FSMC_NORSRAMInitStruct->FSMC_ReadWriteTimingStruct->FSMC_Bus
 266              		.loc 1 195 3 view .LVU58
 196:.\stlib\STM32F10x_StdPeriph_Driver\src/stm32f10x_fsmc.c ****   assert_param(IS_FSMC_CLK_DIV(FSMC_NORSRAMInitStruct->FSMC_ReadWriteTimingStruct->FSMC_CLKDivision
 267              		.loc 1 196 3 view .LVU59
 197:.\stlib\STM32F10x_StdPeriph_Driver\src/stm32f10x_fsmc.c ****   assert_param(IS_FSMC_DATA_LATENCY(FSMC_NORSRAMInitStruct->FSMC_ReadWriteTimingStruct->FSMC_DataLa
 268              		.loc 1 197 3 view .LVU60
 198:.\stlib\STM32F10x_StdPeriph_Driver\src/stm32f10x_fsmc.c ****   assert_param(IS_FSMC_ACCESS_MODE(FSMC_NORSRAMInitStruct->FSMC_ReadWriteTimingStruct->FSMC_AccessM
 269              		.loc 1 198 3 view .LVU61
 199:.\stlib\STM32F10x_StdPeriph_Driver\src/stm32f10x_fsmc.c ****   
 200:.\stlib\STM32F10x_StdPeriph_Driver\src/stm32f10x_fsmc.c ****   /* Bank1 NOR/SRAM control register configuration */ 
 201:.\stlib\STM32F10x_StdPeriph_Driver\src/stm32f10x_fsmc.c ****   FSMC_Bank1->BTCR[FSMC_NORSRAMInitStruct->FSMC_Bank] = 
 270              		.loc 1 201 3 view .LVU62
 271              	@ .\stlib\STM32F10x_StdPeriph_Driver\src\stm32f10x_fsmc.c:203:             FSMC_NORSRAMInitStruct->
 202:.\stlib\STM32F10x_StdPeriph_Driver\src/stm32f10x_fsmc.c ****             (uint32_t)FSMC_NORSRAMInitStruct->FSMC_DataAddressMux |
 203:.\stlib\STM32F10x_StdPeriph_Driver\src/stm32f10x_fsmc.c ****             FSMC_NORSRAMInitStruct->FSMC_MemoryType |
 272              		.loc 1 203 35 is_stmt 0 view .LVU63
 273 0068 8168     		ldr	r1, [r0, #8]	@ _2, FSMC_NORSRAMInitStruct_66(D)->FSMC_MemoryType
 274              	@ .\stlib\STM32F10x_StdPeriph_Driver\src\stm32f10x_fsmc.c:202:             (uint32_t)FSMC_NORSRAMIn
 202:.\stlib\STM32F10x_StdPeriph_Driver\src/stm32f10x_fsmc.c ****             (uint32_t)FSMC_NORSRAMInitStruct->FSMC_DataAddressMux |
 275              		.loc 1 202 67 view .LVU64
 276 006a 4368     		ldr	r3, [r0, #4]	@ FSMC_NORSRAMInitStruct_66(D)->FSMC_DataAddressMux, FSMC_NORSRAMInitStruct_66(D)
 277              	@ .\stlib\STM32F10x_StdPeriph_Driver\src\stm32f10x_fsmc.c:177: { 
 177:.\stlib\STM32F10x_StdPeriph_Driver\src/stm32f10x_fsmc.c ****   /* Check the parameters */
 278              		.loc 1 177 1 view .LVU65
 279 006c 30B5     		push	{r4, r5, lr}	@
 280              	.LCFI0:
 281              		.cfi_def_cfa_offset 12
 282              		.cfi_offset 4, -12
 283              		.cfi_offset 5, -8
 284              		.cfi_offset 14, -4
 285              	@ .\stlib\STM32F10x_StdPeriph_Driver\src\stm32f10x_fsmc.c:203:             FSMC_NORSRAMInitStruct->
 286              		.loc 1 203 53 view .LVU66
 287 006e C468     		ldr	r4, [r0, #12]	@ FSMC_NORSRAMInitStruct_66(D)->FSMC_MemoryDataWidth, FSMC_NORSRAMInitStruct_66(
 288              	@ .\stlib\STM32F10x_StdPeriph_Driver\src\stm32f10x_fsmc.c:202:             (uint32_t)FSMC_NORSRAMIn
 202:.\stlib\STM32F10x_StdPeriph_Driver\src/stm32f10x_fsmc.c ****             (uint32_t)FSMC_NORSRAMInitStruct->FSMC_DataAddressMux |
 289              		.loc 1 202 67 view .LVU67
 290 0070 0B43     		orrs	r3, r3, r1	@, tmp176, FSMC_NORSRAMInitStruct_66(D)->FSMC_DataAddressMux, _2
 291              	@ .\stlib\STM32F10x_StdPeriph_Driver\src\stm32f10x_fsmc.c:203:             FSMC_NORSRAMInitStruct->
 292              		.loc 1 203 53 view .LVU68
 293 0072 2343     		orrs	r3, r3, r4	@, tmp178, tmp176, FSMC_NORSRAMInitStruct_66(D)->FSMC_MemoryDataWidth
 294              	@ .\stlib\STM32F10x_StdPeriph_Driver\src\stm32f10x_fsmc.c:204:             FSMC_NORSRAMInitStruct->
 204:.\stlib\STM32F10x_StdPeriph_Driver\src/stm32f10x_fsmc.c ****             FSMC_NORSRAMInitStruct->FSMC_MemoryDataWidth |
 295              		.loc 1 204 58 view .LVU69
 296 0074 0469     		ldr	r4, [r0, #16]	@ FSMC_NORSRAMInitStruct_66(D)->FSMC_BurstAccessMode, FSMC_NORSRAMInitStruct_66(
 297              	@ .\stlib\STM32F10x_StdPeriph_Driver\src\stm32f10x_fsmc.c:212:             FSMC_NORSRAMInitStruct->
 205:.\stlib\STM32F10x_StdPeriph_Driver\src/stm32f10x_fsmc.c ****             FSMC_NORSRAMInitStruct->FSMC_BurstAccessMode |
 206:.\stlib\STM32F10x_StdPeriph_Driver\src/stm32f10x_fsmc.c ****             FSMC_NORSRAMInitStruct->FSMC_AsynchronousWait |
 207:.\stlib\STM32F10x_StdPeriph_Driver\src/stm32f10x_fsmc.c ****             FSMC_NORSRAMInitStruct->FSMC_WaitSignalPolarity |
 208:.\stlib\STM32F10x_StdPeriph_Driver\src/stm32f10x_fsmc.c ****             FSMC_NORSRAMInitStruct->FSMC_WrapMode |
 209:.\stlib\STM32F10x_StdPeriph_Driver\src/stm32f10x_fsmc.c ****             FSMC_NORSRAMInitStruct->FSMC_WaitSignalActive |
 210:.\stlib\STM32F10x_StdPeriph_Driver\src/stm32f10x_fsmc.c ****             FSMC_NORSRAMInitStruct->FSMC_WriteOperation |
ARM GAS  C:\Users\skey\AppData\Local\Temp\ccFDdSGQ.s 			page 10


 211:.\stlib\STM32F10x_StdPeriph_Driver\src/stm32f10x_fsmc.c ****             FSMC_NORSRAMInitStruct->FSMC_WaitSignal |
 212:.\stlib\STM32F10x_StdPeriph_Driver\src/stm32f10x_fsmc.c ****             FSMC_NORSRAMInitStruct->FSMC_ExtendedMode |
 298              		.loc 1 212 35 view .LVU70
 299 0076 C26A     		ldr	r2, [r0, #44]	@ _20, FSMC_NORSRAMInitStruct_66(D)->FSMC_ExtendedMode
 300              	@ .\stlib\STM32F10x_StdPeriph_Driver\src\stm32f10x_fsmc.c:204:             FSMC_NORSRAMInitStruct->
 204:.\stlib\STM32F10x_StdPeriph_Driver\src/stm32f10x_fsmc.c ****             FSMC_NORSRAMInitStruct->FSMC_MemoryDataWidth |
 301              		.loc 1 204 58 view .LVU71
 302 0078 2343     		orrs	r3, r3, r4	@, tmp180, tmp178, FSMC_NORSRAMInitStruct_66(D)->FSMC_BurstAccessMode
 303              	@ .\stlib\STM32F10x_StdPeriph_Driver\src\stm32f10x_fsmc.c:205:             FSMC_NORSRAMInitStruct->
 205:.\stlib\STM32F10x_StdPeriph_Driver\src/stm32f10x_fsmc.c ****             FSMC_NORSRAMInitStruct->FSMC_BurstAccessMode |
 304              		.loc 1 205 58 view .LVU72
 305 007a 4469     		ldr	r4, [r0, #20]	@ FSMC_NORSRAMInitStruct_66(D)->FSMC_AsynchronousWait, FSMC_NORSRAMInitStruct_66
 306              	@ .\stlib\STM32F10x_StdPeriph_Driver\src\stm32f10x_fsmc.c:215:   if(FSMC_NORSRAMInitStruct->FSMC_Me
 213:.\stlib\STM32F10x_StdPeriph_Driver\src/stm32f10x_fsmc.c ****             FSMC_NORSRAMInitStruct->FSMC_WriteBurst;
 214:.\stlib\STM32F10x_StdPeriph_Driver\src/stm32f10x_fsmc.c **** 
 215:.\stlib\STM32F10x_StdPeriph_Driver\src/stm32f10x_fsmc.c ****   if(FSMC_NORSRAMInitStruct->FSMC_MemoryType == FSMC_MemoryType_NOR)
 307              		.loc 1 215 5 view .LVU73
 308 007c 0829     		cmp	r1, #8	@ _2,
 309              	@ .\stlib\STM32F10x_StdPeriph_Driver\src\stm32f10x_fsmc.c:205:             FSMC_NORSRAMInitStruct->
 205:.\stlib\STM32F10x_StdPeriph_Driver\src/stm32f10x_fsmc.c ****             FSMC_NORSRAMInitStruct->FSMC_BurstAccessMode |
 310              		.loc 1 205 58 view .LVU74
 311 007e 43EA0403 		orr	r3, r3, r4	@ tmp182, tmp180, FSMC_NORSRAMInitStruct_66(D)->FSMC_AsynchronousWait
 312              	@ .\stlib\STM32F10x_StdPeriph_Driver\src\stm32f10x_fsmc.c:206:             FSMC_NORSRAMInitStruct->
 206:.\stlib\STM32F10x_StdPeriph_Driver\src/stm32f10x_fsmc.c ****             FSMC_NORSRAMInitStruct->FSMC_WaitSignalPolarity |
 313              		.loc 1 206 59 view .LVU75
 314 0082 8469     		ldr	r4, [r0, #24]	@ FSMC_NORSRAMInitStruct_66(D)->FSMC_WaitSignalPolarity, FSMC_NORSRAMInitStruct_
 315              	@ .\stlib\STM32F10x_StdPeriph_Driver\src\stm32f10x_fsmc.c:222:             (uint32_t)FSMC_NORSRAMIn
 216:.\stlib\STM32F10x_StdPeriph_Driver\src/stm32f10x_fsmc.c ****   {
 217:.\stlib\STM32F10x_StdPeriph_Driver\src/stm32f10x_fsmc.c ****     FSMC_Bank1->BTCR[FSMC_NORSRAMInitStruct->FSMC_Bank] |= (uint32_t)BCR_FACCEN_Set;
 218:.\stlib\STM32F10x_StdPeriph_Driver\src/stm32f10x_fsmc.c ****   }
 219:.\stlib\STM32F10x_StdPeriph_Driver\src/stm32f10x_fsmc.c ****   
 220:.\stlib\STM32F10x_StdPeriph_Driver\src/stm32f10x_fsmc.c ****   /* Bank1 NOR/SRAM timing register configuration */
 221:.\stlib\STM32F10x_StdPeriph_Driver\src/stm32f10x_fsmc.c ****   FSMC_Bank1->BTCR[FSMC_NORSRAMInitStruct->FSMC_Bank+1] = 
 222:.\stlib\STM32F10x_StdPeriph_Driver\src/stm32f10x_fsmc.c ****             (uint32_t)FSMC_NORSRAMInitStruct->FSMC_ReadWriteTimingStruct->FSMC_AddressSetupTime |
 316              		.loc 1 222 45 view .LVU76
 317 0084 416B     		ldr	r1, [r0, #52]	@ _27, FSMC_NORSRAMInitStruct_66(D)->FSMC_ReadWriteTimingStruct
 318              	@ .\stlib\STM32F10x_StdPeriph_Driver\src\stm32f10x_fsmc.c:206:             FSMC_NORSRAMInitStruct->
 206:.\stlib\STM32F10x_StdPeriph_Driver\src/stm32f10x_fsmc.c ****             FSMC_NORSRAMInitStruct->FSMC_WaitSignalPolarity |
 319              		.loc 1 206 59 view .LVU77
 320 0086 43EA0403 		orr	r3, r3, r4	@ tmp184, tmp182, FSMC_NORSRAMInitStruct_66(D)->FSMC_WaitSignalPolarity
 321              	@ .\stlib\STM32F10x_StdPeriph_Driver\src\stm32f10x_fsmc.c:207:             FSMC_NORSRAMInitStruct->
 207:.\stlib\STM32F10x_StdPeriph_Driver\src/stm32f10x_fsmc.c ****             FSMC_NORSRAMInitStruct->FSMC_WrapMode |
 322              		.loc 1 207 61 view .LVU78
 323 008a C469     		ldr	r4, [r0, #28]	@ FSMC_NORSRAMInitStruct_66(D)->FSMC_WrapMode, FSMC_NORSRAMInitStruct_66(D)->FSM
 324              	@ .\stlib\STM32F10x_StdPeriph_Driver\src\stm32f10x_fsmc.c:227:             (FSMC_NORSRAMInitStruct-
 223:.\stlib\STM32F10x_StdPeriph_Driver\src/stm32f10x_fsmc.c ****             (FSMC_NORSRAMInitStruct->FSMC_ReadWriteTimingStruct->FSMC_AddressHoldTime << 4) |
 224:.\stlib\STM32F10x_StdPeriph_Driver\src/stm32f10x_fsmc.c ****             (FSMC_NORSRAMInitStruct->FSMC_ReadWriteTimingStruct->FSMC_DataSetupTime << 8) |
 225:.\stlib\STM32F10x_StdPeriph_Driver\src/stm32f10x_fsmc.c ****             (FSMC_NORSRAMInitStruct->FSMC_ReadWriteTimingStruct->FSMC_BusTurnAroundDuration << 16) 
 226:.\stlib\STM32F10x_StdPeriph_Driver\src/stm32f10x_fsmc.c ****             (FSMC_NORSRAMInitStruct->FSMC_ReadWriteTimingStruct->FSMC_CLKDivision << 20) |
 227:.\stlib\STM32F10x_StdPeriph_Driver\src/stm32f10x_fsmc.c ****             (FSMC_NORSRAMInitStruct->FSMC_ReadWriteTimingStruct->FSMC_DataLatency << 24) |
 325              		.loc 1 227 90 view .LVU79
 326 008c 8D69     		ldr	r5, [r1, #24]	@ _27->FSMC_AccessMode, _27->FSMC_AccessMode
 327              	@ .\stlib\STM32F10x_StdPeriph_Driver\src\stm32f10x_fsmc.c:207:             FSMC_NORSRAMInitStruct->
 207:.\stlib\STM32F10x_StdPeriph_Driver\src/stm32f10x_fsmc.c ****             FSMC_NORSRAMInitStruct->FSMC_WrapMode |
 328              		.loc 1 207 61 view .LVU80
 329 008e 43EA0403 		orr	r3, r3, r4	@ tmp186, tmp184, FSMC_NORSRAMInitStruct_66(D)->FSMC_WrapMode
 330              	@ .\stlib\STM32F10x_StdPeriph_Driver\src\stm32f10x_fsmc.c:208:             FSMC_NORSRAMInitStruct->
ARM GAS  C:\Users\skey\AppData\Local\Temp\ccFDdSGQ.s 			page 11


 208:.\stlib\STM32F10x_StdPeriph_Driver\src/stm32f10x_fsmc.c ****             FSMC_NORSRAMInitStruct->FSMC_WaitSignalActive |
 331              		.loc 1 208 51 view .LVU81
 332 0092 046A     		ldr	r4, [r0, #32]	@ FSMC_NORSRAMInitStruct_66(D)->FSMC_WaitSignalActive, FSMC_NORSRAMInitStruct_66
 333 0094 43EA0403 		orr	r3, r3, r4	@ tmp188, tmp186, FSMC_NORSRAMInitStruct_66(D)->FSMC_WaitSignalActive
 334              	@ .\stlib\STM32F10x_StdPeriph_Driver\src\stm32f10x_fsmc.c:209:             FSMC_NORSRAMInitStruct->
 209:.\stlib\STM32F10x_StdPeriph_Driver\src/stm32f10x_fsmc.c ****             FSMC_NORSRAMInitStruct->FSMC_WriteOperation |
 335              		.loc 1 209 59 view .LVU82
 336 0098 446A     		ldr	r4, [r0, #36]	@ FSMC_NORSRAMInitStruct_66(D)->FSMC_WriteOperation, FSMC_NORSRAMInitStruct_66(D
 337 009a 43EA0403 		orr	r3, r3, r4	@ tmp190, tmp188, FSMC_NORSRAMInitStruct_66(D)->FSMC_WriteOperation
 338              	@ .\stlib\STM32F10x_StdPeriph_Driver\src\stm32f10x_fsmc.c:210:             FSMC_NORSRAMInitStruct->
 210:.\stlib\STM32F10x_StdPeriph_Driver\src/stm32f10x_fsmc.c ****             FSMC_NORSRAMInitStruct->FSMC_WaitSignal |
 339              		.loc 1 210 57 view .LVU83
 340 009e 846A     		ldr	r4, [r0, #40]	@ FSMC_NORSRAMInitStruct_66(D)->FSMC_WaitSignal, FSMC_NORSRAMInitStruct_66(D)->F
 341 00a0 43EA0403 		orr	r3, r3, r4	@ tmp192, tmp190, FSMC_NORSRAMInitStruct_66(D)->FSMC_WaitSignal
 342              	@ .\stlib\STM32F10x_StdPeriph_Driver\src\stm32f10x_fsmc.c:212:             FSMC_NORSRAMInitStruct->
 212:.\stlib\STM32F10x_StdPeriph_Driver\src/stm32f10x_fsmc.c ****             FSMC_NORSRAMInitStruct->FSMC_WriteBurst;
 343              		.loc 1 212 55 view .LVU84
 344 00a4 046B     		ldr	r4, [r0, #48]	@ FSMC_NORSRAMInitStruct_66(D)->FSMC_WriteBurst, FSMC_NORSRAMInitStruct_66(D)->F
 345              	@ .\stlib\STM32F10x_StdPeriph_Driver\src\stm32f10x_fsmc.c:211:             FSMC_NORSRAMInitStruct->
 211:.\stlib\STM32F10x_StdPeriph_Driver\src/stm32f10x_fsmc.c ****             FSMC_NORSRAMInitStruct->FSMC_ExtendedMode |
 346              		.loc 1 211 53 view .LVU85
 347 00a6 43EA0203 		orr	r3, r3, r2	@ tmp194, tmp192, _20
 348              	@ .\stlib\STM32F10x_StdPeriph_Driver\src\stm32f10x_fsmc.c:212:             FSMC_NORSRAMInitStruct->
 212:.\stlib\STM32F10x_StdPeriph_Driver\src/stm32f10x_fsmc.c ****             FSMC_NORSRAMInitStruct->FSMC_WriteBurst;
 349              		.loc 1 212 55 view .LVU86
 350 00aa 43EA0403 		orr	r3, r3, r4	@ _24, tmp194, FSMC_NORSRAMInitStruct_66(D)->FSMC_WriteBurst
 351 00ae 0468     		ldr	r4, [r0]	@ FSMC_NORSRAMInitStruct_66(D)->FSMC_Bank, FSMC_NORSRAMInitStruct_66(D)->FSMC_Bank
 352 00b0 4FEA8404 		lsl	r4, r4, #2	@ _31, FSMC_NORSRAMInitStruct_66(D)->FSMC_Bank,
 353 00b4 04F12044 		add	r4, r4, #-1610612736	@ _34, _31,
 354              	@ .\stlib\STM32F10x_StdPeriph_Driver\src\stm32f10x_fsmc.c:201:   FSMC_Bank1->BTCR[FSMC_NORSRAMInitS
 201:.\stlib\STM32F10x_StdPeriph_Driver\src/stm32f10x_fsmc.c ****             (uint32_t)FSMC_NORSRAMInitStruct->FSMC_DataAddressMux |
 355              		.loc 1 201 55 view .LVU87
 356 00b8 2360     		str	r3, [r4]	@ _24, MEM[(struct FSMC_Bank1_TypeDef *)_34]
 215:.\stlib\STM32F10x_StdPeriph_Driver\src/stm32f10x_fsmc.c ****   {
 357              		.loc 1 215 3 is_stmt 1 view .LVU88
 217:.\stlib\STM32F10x_StdPeriph_Driver\src/stm32f10x_fsmc.c ****   }
 358              		.loc 1 217 5 view .LVU89
 359              	@ .\stlib\STM32F10x_StdPeriph_Driver\src\stm32f10x_fsmc.c:217:     FSMC_Bank1->BTCR[FSMC_NORSRAMIni
 217:.\stlib\STM32F10x_StdPeriph_Driver\src/stm32f10x_fsmc.c ****   }
 360              		.loc 1 217 57 is_stmt 0 view .LVU90
 361 00ba 02BF     		ittt	eq
 362 00bc 2368     		ldreq	r3, [r4]	@ _25, MEM[(struct FSMC_Bank1_TypeDef *)_34]
 363 00be 43F04003 		orreq	r3, r3, #64	@ _26, _25,
 364 00c2 2360     		streq	r3, [r4]	@ _26, MEM[(struct FSMC_Bank1_TypeDef *)_34]
 221:.\stlib\STM32F10x_StdPeriph_Driver\src/stm32f10x_fsmc.c ****             (uint32_t)FSMC_NORSRAMInitStruct->FSMC_ReadWriteTimingStruct->FSMC_AddressSetupTime |
 365              		.loc 1 221 3 is_stmt 1 view .LVU91
 366              	@ .\stlib\STM32F10x_StdPeriph_Driver\src\stm32f10x_fsmc.c:227:             (FSMC_NORSRAMInitStruct-
 367              		.loc 1 227 90 is_stmt 0 view .LVU92
 368 00c4 0B68     		ldr	r3, [r1]	@ _27->FSMC_AddressSetupTime, _27->FSMC_AddressSetupTime
 369              	@ .\stlib\STM32F10x_StdPeriph_Driver\src\stm32f10x_fsmc.c:232:   if(FSMC_NORSRAMInitStruct->FSMC_Ex
 228:.\stlib\STM32F10x_StdPeriph_Driver\src/stm32f10x_fsmc.c ****              FSMC_NORSRAMInitStruct->FSMC_ReadWriteTimingStruct->FSMC_AccessMode;
 229:.\stlib\STM32F10x_StdPeriph_Driver\src/stm32f10x_fsmc.c ****             
 230:.\stlib\STM32F10x_StdPeriph_Driver\src/stm32f10x_fsmc.c ****     
 231:.\stlib\STM32F10x_StdPeriph_Driver\src/stm32f10x_fsmc.c ****   /* Bank1 NOR/SRAM timing register for write configuration, if extended mode is used */
 232:.\stlib\STM32F10x_StdPeriph_Driver\src/stm32f10x_fsmc.c ****   if(FSMC_NORSRAMInitStruct->FSMC_ExtendedMode == FSMC_ExtendedMode_Enable)
 370              		.loc 1 232 5 view .LVU93
 371 00c6 B2F5804F 		cmp	r2, #16384	@ _20,
ARM GAS  C:\Users\skey\AppData\Local\Temp\ccFDdSGQ.s 			page 12


 372              	@ .\stlib\STM32F10x_StdPeriph_Driver\src\stm32f10x_fsmc.c:227:             (FSMC_NORSRAMInitStruct-
 227:.\stlib\STM32F10x_StdPeriph_Driver\src/stm32f10x_fsmc.c ****              FSMC_NORSRAMInitStruct->FSMC_ReadWriteTimingStruct->FSMC_AccessMode;
 373              		.loc 1 227 90 view .LVU94
 374 00ca 43EA0503 		orr	r3, r3, r5	@ tmp197, _27->FSMC_AddressSetupTime, _27->FSMC_AccessMode
 375              	@ .\stlib\STM32F10x_StdPeriph_Driver\src\stm32f10x_fsmc.c:223:             (FSMC_NORSRAMInitStruct-
 223:.\stlib\STM32F10x_StdPeriph_Driver\src/stm32f10x_fsmc.c ****             (FSMC_NORSRAMInitStruct->FSMC_ReadWriteTimingStruct->FSMC_DataSetupTime << 8) |
 376              		.loc 1 223 87 view .LVU95
 377 00ce 4D68     		ldr	r5, [r1, #4]	@ _27->FSMC_AddressHoldTime, _27->FSMC_AddressHoldTime
 378              	@ .\stlib\STM32F10x_StdPeriph_Driver\src\stm32f10x_fsmc.c:227:             (FSMC_NORSRAMInitStruct-
 227:.\stlib\STM32F10x_StdPeriph_Driver\src/stm32f10x_fsmc.c ****              FSMC_NORSRAMInitStruct->FSMC_ReadWriteTimingStruct->FSMC_AccessMode;
 379              		.loc 1 227 90 view .LVU96
 380 00d0 43EA0513 		orr	r3, r3, r5, lsl #4	@ tmp202, tmp197, _27->FSMC_AddressHoldTime,
 381              	@ .\stlib\STM32F10x_StdPeriph_Driver\src\stm32f10x_fsmc.c:224:             (FSMC_NORSRAMInitStruct-
 224:.\stlib\STM32F10x_StdPeriph_Driver\src/stm32f10x_fsmc.c ****             (FSMC_NORSRAMInitStruct->FSMC_ReadWriteTimingStruct->FSMC_BusTurnAroundDuration << 16) 
 382              		.loc 1 224 85 view .LVU97
 383 00d4 8D68     		ldr	r5, [r1, #8]	@ _27->FSMC_DataSetupTime, _27->FSMC_DataSetupTime
 384              	@ .\stlib\STM32F10x_StdPeriph_Driver\src\stm32f10x_fsmc.c:227:             (FSMC_NORSRAMInitStruct-
 227:.\stlib\STM32F10x_StdPeriph_Driver\src/stm32f10x_fsmc.c ****              FSMC_NORSRAMInitStruct->FSMC_ReadWriteTimingStruct->FSMC_AccessMode;
 385              		.loc 1 227 90 view .LVU98
 386 00d6 43EA0523 		orr	r3, r3, r5, lsl #8	@ tmp205, tmp202, _27->FSMC_DataSetupTime,
 387              	@ .\stlib\STM32F10x_StdPeriph_Driver\src\stm32f10x_fsmc.c:225:             (FSMC_NORSRAMInitStruct-
 225:.\stlib\STM32F10x_StdPeriph_Driver\src/stm32f10x_fsmc.c ****             (FSMC_NORSRAMInitStruct->FSMC_ReadWriteTimingStruct->FSMC_CLKDivision << 20) |
 388              		.loc 1 225 93 view .LVU99
 389 00da CD68     		ldr	r5, [r1, #12]	@ _27->FSMC_BusTurnAroundDuration, _27->FSMC_BusTurnAroundDuration
 390              	@ .\stlib\STM32F10x_StdPeriph_Driver\src\stm32f10x_fsmc.c:227:             (FSMC_NORSRAMInitStruct-
 227:.\stlib\STM32F10x_StdPeriph_Driver\src/stm32f10x_fsmc.c ****              FSMC_NORSRAMInitStruct->FSMC_ReadWriteTimingStruct->FSMC_AccessMode;
 391              		.loc 1 227 90 view .LVU100
 392 00dc 43EA0543 		orr	r3, r3, r5, lsl #16	@ tmp208, tmp205, _27->FSMC_BusTurnAroundDuration,
 393              	@ .\stlib\STM32F10x_StdPeriph_Driver\src\stm32f10x_fsmc.c:226:             (FSMC_NORSRAMInitStruct-
 226:.\stlib\STM32F10x_StdPeriph_Driver\src/stm32f10x_fsmc.c ****             (FSMC_NORSRAMInitStruct->FSMC_ReadWriteTimingStruct->FSMC_DataLatency << 24) |
 394              		.loc 1 226 83 view .LVU101
 395 00e0 0D69     		ldr	r5, [r1, #16]	@ _27->FSMC_CLKDivision, _27->FSMC_CLKDivision
 396              	@ .\stlib\STM32F10x_StdPeriph_Driver\src\stm32f10x_fsmc.c:227:             (FSMC_NORSRAMInitStruct-
 227:.\stlib\STM32F10x_StdPeriph_Driver\src/stm32f10x_fsmc.c ****              FSMC_NORSRAMInitStruct->FSMC_ReadWriteTimingStruct->FSMC_AccessMode;
 397              		.loc 1 227 83 view .LVU102
 398 00e2 4969     		ldr	r1, [r1, #20]	@ _27->FSMC_DataLatency, _27->FSMC_DataLatency
 399              	@ .\stlib\STM32F10x_StdPeriph_Driver\src\stm32f10x_fsmc.c:227:             (FSMC_NORSRAMInitStruct-
 227:.\stlib\STM32F10x_StdPeriph_Driver\src/stm32f10x_fsmc.c ****              FSMC_NORSRAMInitStruct->FSMC_ReadWriteTimingStruct->FSMC_AccessMode;
 400              		.loc 1 227 90 view .LVU103
 401 00e4 43EA0553 		orr	r3, r3, r5, lsl #20	@ tmp211, tmp208, _27->FSMC_CLKDivision,
 402 00e8 43EA0163 		orr	r3, r3, r1, lsl #24	@ _46, tmp211, _27->FSMC_DataLatency,
 403              	@ .\stlib\STM32F10x_StdPeriph_Driver\src\stm32f10x_fsmc.c:221:   FSMC_Bank1->BTCR[FSMC_NORSRAMInitS
 221:.\stlib\STM32F10x_StdPeriph_Driver\src/stm32f10x_fsmc.c ****             (uint32_t)FSMC_NORSRAMInitStruct->FSMC_ReadWriteTimingStruct->FSMC_AddressSetupTime |
 404              		.loc 1 221 57 view .LVU104
 405 00ec 6360     		str	r3, [r4, #4]	@ _46, MEM[(struct FSMC_Bank1_TypeDef *)_34 + 4B]
 406              		.loc 1 232 3 is_stmt 1 view .LVU105
 407              	@ .\stlib\STM32F10x_StdPeriph_Driver\src\stm32f10x_fsmc.c:232:   if(FSMC_NORSRAMInitStruct->FSMC_Ex
 408              		.loc 1 232 5 is_stmt 0 view .LVU106
 409 00ee 12D1     		bne	.L15		@,
 233:.\stlib\STM32F10x_StdPeriph_Driver\src/stm32f10x_fsmc.c ****   {
 234:.\stlib\STM32F10x_StdPeriph_Driver\src/stm32f10x_fsmc.c ****     assert_param(IS_FSMC_ADDRESS_SETUP_TIME(FSMC_NORSRAMInitStruct->FSMC_WriteTimingStruct->FSMC_Ad
 410              		.loc 1 234 5 is_stmt 1 view .LVU107
 235:.\stlib\STM32F10x_StdPeriph_Driver\src/stm32f10x_fsmc.c ****     assert_param(IS_FSMC_ADDRESS_HOLD_TIME(FSMC_NORSRAMInitStruct->FSMC_WriteTimingStruct->FSMC_Add
 411              		.loc 1 235 5 view .LVU108
 236:.\stlib\STM32F10x_StdPeriph_Driver\src/stm32f10x_fsmc.c ****     assert_param(IS_FSMC_DATASETUP_TIME(FSMC_NORSRAMInitStruct->FSMC_WriteTimingStruct->FSMC_DataSe
 412              		.loc 1 236 5 view .LVU109
 237:.\stlib\STM32F10x_StdPeriph_Driver\src/stm32f10x_fsmc.c ****     assert_param(IS_FSMC_CLK_DIV(FSMC_NORSRAMInitStruct->FSMC_WriteTimingStruct->FSMC_CLKDivision))
ARM GAS  C:\Users\skey\AppData\Local\Temp\ccFDdSGQ.s 			page 13


 413              		.loc 1 237 5 view .LVU110
 238:.\stlib\STM32F10x_StdPeriph_Driver\src/stm32f10x_fsmc.c ****     assert_param(IS_FSMC_DATA_LATENCY(FSMC_NORSRAMInitStruct->FSMC_WriteTimingStruct->FSMC_DataLate
 414              		.loc 1 238 5 view .LVU111
 239:.\stlib\STM32F10x_StdPeriph_Driver\src/stm32f10x_fsmc.c ****     assert_param(IS_FSMC_ACCESS_MODE(FSMC_NORSRAMInitStruct->FSMC_WriteTimingStruct->FSMC_AccessMod
 415              		.loc 1 239 5 view .LVU112
 240:.\stlib\STM32F10x_StdPeriph_Driver\src/stm32f10x_fsmc.c ****     FSMC_Bank1E->BWTR[FSMC_NORSRAMInitStruct->FSMC_Bank] = 
 416              		.loc 1 240 5 view .LVU113
 417              	@ .\stlib\STM32F10x_StdPeriph_Driver\src\stm32f10x_fsmc.c:241:               (uint32_t)FSMC_NORSRAM
 241:.\stlib\STM32F10x_StdPeriph_Driver\src/stm32f10x_fsmc.c ****               (uint32_t)FSMC_NORSRAMInitStruct->FSMC_WriteTimingStruct->FSMC_AddressSetupTime |
 418              		.loc 1 241 47 is_stmt 0 view .LVU114
 419 00f0 826B     		ldr	r2, [r0, #56]	@ _47, FSMC_NORSRAMInitStruct_66(D)->FSMC_WriteTimingStruct
 420              	@ .\stlib\STM32F10x_StdPeriph_Driver\src\stm32f10x_fsmc.c:245:               (FSMC_NORSRAMInitStruc
 242:.\stlib\STM32F10x_StdPeriph_Driver\src/stm32f10x_fsmc.c ****               (FSMC_NORSRAMInitStruct->FSMC_WriteTimingStruct->FSMC_AddressHoldTime << 4 )|
 243:.\stlib\STM32F10x_StdPeriph_Driver\src/stm32f10x_fsmc.c ****               (FSMC_NORSRAMInitStruct->FSMC_WriteTimingStruct->FSMC_DataSetupTime << 8) |
 244:.\stlib\STM32F10x_StdPeriph_Driver\src/stm32f10x_fsmc.c ****               (FSMC_NORSRAMInitStruct->FSMC_WriteTimingStruct->FSMC_CLKDivision << 20) |
 245:.\stlib\STM32F10x_StdPeriph_Driver\src/stm32f10x_fsmc.c ****               (FSMC_NORSRAMInitStruct->FSMC_WriteTimingStruct->FSMC_DataLatency << 24) |
 421              		.loc 1 245 88 view .LVU115
 422 00f2 9169     		ldr	r1, [r2, #24]	@ _47->FSMC_AccessMode, _47->FSMC_AccessMode
 423 00f4 1368     		ldr	r3, [r2]	@ _47->FSMC_AddressSetupTime, _47->FSMC_AddressSetupTime
 424 00f6 0B43     		orrs	r3, r3, r1	@, tmp214, _47->FSMC_AddressSetupTime, _47->FSMC_AccessMode
 425              	@ .\stlib\STM32F10x_StdPeriph_Driver\src\stm32f10x_fsmc.c:242:               (FSMC_NORSRAMInitStruc
 242:.\stlib\STM32F10x_StdPeriph_Driver\src/stm32f10x_fsmc.c ****               (FSMC_NORSRAMInitStruct->FSMC_WriteTimingStruct->FSMC_AddressHoldTime << 4 )|
 426              		.loc 1 242 85 view .LVU116
 427 00f8 5168     		ldr	r1, [r2, #4]	@ _47->FSMC_AddressHoldTime, _47->FSMC_AddressHoldTime
 428              	@ .\stlib\STM32F10x_StdPeriph_Driver\src\stm32f10x_fsmc.c:245:               (FSMC_NORSRAMInitStruc
 429              		.loc 1 245 88 view .LVU117
 430 00fa 43EA0113 		orr	r3, r3, r1, lsl #4	@ tmp219, tmp214, _47->FSMC_AddressHoldTime,
 431              	@ .\stlib\STM32F10x_StdPeriph_Driver\src\stm32f10x_fsmc.c:243:               (FSMC_NORSRAMInitStruc
 243:.\stlib\STM32F10x_StdPeriph_Driver\src/stm32f10x_fsmc.c ****               (FSMC_NORSRAMInitStruct->FSMC_WriteTimingStruct->FSMC_CLKDivision << 20) |
 432              		.loc 1 243 83 view .LVU118
 433 00fe 9168     		ldr	r1, [r2, #8]	@ _47->FSMC_DataSetupTime, _47->FSMC_DataSetupTime
 434              	@ .\stlib\STM32F10x_StdPeriph_Driver\src\stm32f10x_fsmc.c:245:               (FSMC_NORSRAMInitStruc
 435              		.loc 1 245 88 view .LVU119
 436 0100 43EA0123 		orr	r3, r3, r1, lsl #8	@ tmp222, tmp219, _47->FSMC_DataSetupTime,
 437              	@ .\stlib\STM32F10x_StdPeriph_Driver\src\stm32f10x_fsmc.c:244:               (FSMC_NORSRAMInitStruc
 244:.\stlib\STM32F10x_StdPeriph_Driver\src/stm32f10x_fsmc.c ****               (FSMC_NORSRAMInitStruct->FSMC_WriteTimingStruct->FSMC_DataLatency << 24) |
 438              		.loc 1 244 81 view .LVU120
 439 0104 1169     		ldr	r1, [r2, #16]	@ _47->FSMC_CLKDivision, _47->FSMC_CLKDivision
 440              	@ .\stlib\STM32F10x_StdPeriph_Driver\src\stm32f10x_fsmc.c:245:               (FSMC_NORSRAMInitStruc
 441              		.loc 1 245 81 view .LVU121
 442 0106 5269     		ldr	r2, [r2, #20]	@ _47->FSMC_DataLatency, _47->FSMC_DataLatency
 443              	@ .\stlib\STM32F10x_StdPeriph_Driver\src\stm32f10x_fsmc.c:245:               (FSMC_NORSRAMInitStruc
 444              		.loc 1 245 88 view .LVU122
 445 0108 43EA0153 		orr	r3, r3, r1, lsl #20	@ tmp225, tmp222, _47->FSMC_CLKDivision,
 446 010c 43EA0263 		orr	r3, r3, r2, lsl #24	@ _62, tmp225, _47->FSMC_DataLatency,
 447              	.L17:
 448              	@ .\stlib\STM32F10x_StdPeriph_Driver\src\stm32f10x_fsmc.c:250:     FSMC_Bank1E->BWTR[FSMC_NORSRAMIn
 246:.\stlib\STM32F10x_StdPeriph_Driver\src/stm32f10x_fsmc.c ****                FSMC_NORSRAMInitStruct->FSMC_WriteTimingStruct->FSMC_AccessMode;
 247:.\stlib\STM32F10x_StdPeriph_Driver\src/stm32f10x_fsmc.c ****   }
 248:.\stlib\STM32F10x_StdPeriph_Driver\src/stm32f10x_fsmc.c ****   else
 249:.\stlib\STM32F10x_StdPeriph_Driver\src/stm32f10x_fsmc.c ****   {
 250:.\stlib\STM32F10x_StdPeriph_Driver\src/stm32f10x_fsmc.c ****     FSMC_Bank1E->BWTR[FSMC_NORSRAMInitStruct->FSMC_Bank] = 0x0FFFFFFF;
 449              		.loc 1 250 58 view .LVU123
 450 0110 C4F80431 		str	r3, [r4, #260]	@ tmp230,
 451              	@ .\stlib\STM32F10x_StdPeriph_Driver\src\stm32f10x_fsmc.c:252: }
 251:.\stlib\STM32F10x_StdPeriph_Driver\src/stm32f10x_fsmc.c ****   }
 252:.\stlib\STM32F10x_StdPeriph_Driver\src/stm32f10x_fsmc.c **** }
ARM GAS  C:\Users\skey\AppData\Local\Temp\ccFDdSGQ.s 			page 14


 452              		.loc 1 252 1 view .LVU124
 453 0114 30BD     		pop	{r4, r5, pc}	@
 454              	.L15:
 250:.\stlib\STM32F10x_StdPeriph_Driver\src/stm32f10x_fsmc.c ****   }
 455              		.loc 1 250 5 is_stmt 1 view .LVU125
 456              	@ .\stlib\STM32F10x_StdPeriph_Driver\src\stm32f10x_fsmc.c:250:     FSMC_Bank1E->BWTR[FSMC_NORSRAMIn
 250:.\stlib\STM32F10x_StdPeriph_Driver\src/stm32f10x_fsmc.c ****   }
 457              		.loc 1 250 58 is_stmt 0 view .LVU126
 458 0116 6FF07043 		mvn	r3, #-268435456	@ tmp230,
 459 011a F9E7     		b	.L17		@
 460              		.cfi_endproc
 461              	.LFE32:
 462              		.size	FSMC_NORSRAMInit, .-FSMC_NORSRAMInit
 463              		.align	1
 464              		.global	FSMC_NANDInit
 465              		.syntax unified
 466              		.thumb
 467              		.thumb_func
 468              		.fpu softvfp
 469              		.type	FSMC_NANDInit, %function
 470              	FSMC_NANDInit:
 471              	.LVL5:
 472              	.LFB33:
 253:.\stlib\STM32F10x_StdPeriph_Driver\src/stm32f10x_fsmc.c **** 
 254:.\stlib\STM32F10x_StdPeriph_Driver\src/stm32f10x_fsmc.c **** /**
 255:.\stlib\STM32F10x_StdPeriph_Driver\src/stm32f10x_fsmc.c ****   * @brief  Initializes the FSMC NAND Banks according to the specified 
 256:.\stlib\STM32F10x_StdPeriph_Driver\src/stm32f10x_fsmc.c ****   *         parameters in the FSMC_NANDInitStruct.
 257:.\stlib\STM32F10x_StdPeriph_Driver\src/stm32f10x_fsmc.c ****   * @param  FSMC_NANDInitStruct : pointer to a FSMC_NANDInitTypeDef 
 258:.\stlib\STM32F10x_StdPeriph_Driver\src/stm32f10x_fsmc.c ****   *         structure that contains the configuration information for the FSMC 
 259:.\stlib\STM32F10x_StdPeriph_Driver\src/stm32f10x_fsmc.c ****   *         NAND specified Banks.                       
 260:.\stlib\STM32F10x_StdPeriph_Driver\src/stm32f10x_fsmc.c ****   * @retval None
 261:.\stlib\STM32F10x_StdPeriph_Driver\src/stm32f10x_fsmc.c ****   */
 262:.\stlib\STM32F10x_StdPeriph_Driver\src/stm32f10x_fsmc.c **** void FSMC_NANDInit(FSMC_NANDInitTypeDef* FSMC_NANDInitStruct)
 263:.\stlib\STM32F10x_StdPeriph_Driver\src/stm32f10x_fsmc.c **** {
 473              		.loc 1 263 1 is_stmt 1 view -0
 474              		.cfi_startproc
 475              		@ args = 0, pretend = 0, frame = 0
 476              		@ frame_needed = 0, uses_anonymous_args = 0
 264:.\stlib\STM32F10x_StdPeriph_Driver\src/stm32f10x_fsmc.c ****   uint32_t tmppcr = 0x00000000, tmppmem = 0x00000000, tmppatt = 0x00000000; 
 477              		.loc 1 264 3 view .LVU128
 265:.\stlib\STM32F10x_StdPeriph_Driver\src/stm32f10x_fsmc.c ****     
 266:.\stlib\STM32F10x_StdPeriph_Driver\src/stm32f10x_fsmc.c ****   /* Check the parameters */
 267:.\stlib\STM32F10x_StdPeriph_Driver\src/stm32f10x_fsmc.c ****   assert_param( IS_FSMC_NAND_BANK(FSMC_NANDInitStruct->FSMC_Bank));
 478              		.loc 1 267 3 view .LVU129
 268:.\stlib\STM32F10x_StdPeriph_Driver\src/stm32f10x_fsmc.c ****   assert_param( IS_FSMC_WAIT_FEATURE(FSMC_NANDInitStruct->FSMC_Waitfeature));
 479              		.loc 1 268 3 view .LVU130
 269:.\stlib\STM32F10x_StdPeriph_Driver\src/stm32f10x_fsmc.c ****   assert_param( IS_FSMC_MEMORY_WIDTH(FSMC_NANDInitStruct->FSMC_MemoryDataWidth));
 480              		.loc 1 269 3 view .LVU131
 270:.\stlib\STM32F10x_StdPeriph_Driver\src/stm32f10x_fsmc.c ****   assert_param( IS_FSMC_ECC_STATE(FSMC_NANDInitStruct->FSMC_ECC));
 481              		.loc 1 270 3 view .LVU132
 271:.\stlib\STM32F10x_StdPeriph_Driver\src/stm32f10x_fsmc.c ****   assert_param( IS_FSMC_ECCPAGE_SIZE(FSMC_NANDInitStruct->FSMC_ECCPageSize));
 482              		.loc 1 271 3 view .LVU133
 272:.\stlib\STM32F10x_StdPeriph_Driver\src/stm32f10x_fsmc.c ****   assert_param( IS_FSMC_TCLR_TIME(FSMC_NANDInitStruct->FSMC_TCLRSetupTime));
 483              		.loc 1 272 3 view .LVU134
 273:.\stlib\STM32F10x_StdPeriph_Driver\src/stm32f10x_fsmc.c ****   assert_param( IS_FSMC_TAR_TIME(FSMC_NANDInitStruct->FSMC_TARSetupTime));
 484              		.loc 1 273 3 view .LVU135
 274:.\stlib\STM32F10x_StdPeriph_Driver\src/stm32f10x_fsmc.c ****   assert_param(IS_FSMC_SETUP_TIME(FSMC_NANDInitStruct->FSMC_CommonSpaceTimingStruct->FSMC_SetupTime
ARM GAS  C:\Users\skey\AppData\Local\Temp\ccFDdSGQ.s 			page 15


 485              		.loc 1 274 3 view .LVU136
 275:.\stlib\STM32F10x_StdPeriph_Driver\src/stm32f10x_fsmc.c ****   assert_param(IS_FSMC_WAIT_TIME(FSMC_NANDInitStruct->FSMC_CommonSpaceTimingStruct->FSMC_WaitSetupT
 486              		.loc 1 275 3 view .LVU137
 276:.\stlib\STM32F10x_StdPeriph_Driver\src/stm32f10x_fsmc.c ****   assert_param(IS_FSMC_HOLD_TIME(FSMC_NANDInitStruct->FSMC_CommonSpaceTimingStruct->FSMC_HoldSetupT
 487              		.loc 1 276 3 view .LVU138
 277:.\stlib\STM32F10x_StdPeriph_Driver\src/stm32f10x_fsmc.c ****   assert_param(IS_FSMC_HIZ_TIME(FSMC_NANDInitStruct->FSMC_CommonSpaceTimingStruct->FSMC_HiZSetupTim
 488              		.loc 1 277 3 view .LVU139
 278:.\stlib\STM32F10x_StdPeriph_Driver\src/stm32f10x_fsmc.c ****   assert_param(IS_FSMC_SETUP_TIME(FSMC_NANDInitStruct->FSMC_AttributeSpaceTimingStruct->FSMC_SetupT
 489              		.loc 1 278 3 view .LVU140
 279:.\stlib\STM32F10x_StdPeriph_Driver\src/stm32f10x_fsmc.c ****   assert_param(IS_FSMC_WAIT_TIME(FSMC_NANDInitStruct->FSMC_AttributeSpaceTimingStruct->FSMC_WaitSet
 490              		.loc 1 279 3 view .LVU141
 280:.\stlib\STM32F10x_StdPeriph_Driver\src/stm32f10x_fsmc.c ****   assert_param(IS_FSMC_HOLD_TIME(FSMC_NANDInitStruct->FSMC_AttributeSpaceTimingStruct->FSMC_HoldSet
 491              		.loc 1 280 3 view .LVU142
 281:.\stlib\STM32F10x_StdPeriph_Driver\src/stm32f10x_fsmc.c ****   assert_param(IS_FSMC_HIZ_TIME(FSMC_NANDInitStruct->FSMC_AttributeSpaceTimingStruct->FSMC_HiZSetup
 492              		.loc 1 281 3 view .LVU143
 282:.\stlib\STM32F10x_StdPeriph_Driver\src/stm32f10x_fsmc.c ****   
 283:.\stlib\STM32F10x_StdPeriph_Driver\src/stm32f10x_fsmc.c ****   /* Set the tmppcr value according to FSMC_NANDInitStruct parameters */
 284:.\stlib\STM32F10x_StdPeriph_Driver\src/stm32f10x_fsmc.c ****   tmppcr = (uint32_t)FSMC_NANDInitStruct->FSMC_Waitfeature |
 493              		.loc 1 284 3 view .LVU144
 494              	@ .\stlib\STM32F10x_StdPeriph_Driver\src\stm32f10x_fsmc.c:285:             PCR_MemoryType_NAND |
 285:.\stlib\STM32F10x_StdPeriph_Driver\src/stm32f10x_fsmc.c ****             PCR_MemoryType_NAND |
 495              		.loc 1 285 33 is_stmt 0 view .LVU145
 496 011c D0E90132 		ldrd	r3, r2, [r0, #4]	@ FSMC_NANDInitStruct_37(D)->FSMC_Waitfeature, FSMC_NANDInitStruct_37(D)->FS
 497 0120 1343     		orrs	r3, r3, r2	@, tmp148, FSMC_NANDInitStruct_37(D)->FSMC_Waitfeature, FSMC_NANDInitStruct_37(D)-
 498              	@ .\stlib\STM32F10x_StdPeriph_Driver\src\stm32f10x_fsmc.c:290:             (FSMC_NANDInitStruct->FS
 286:.\stlib\STM32F10x_StdPeriph_Driver\src/stm32f10x_fsmc.c ****             FSMC_NANDInitStruct->FSMC_MemoryDataWidth |
 287:.\stlib\STM32F10x_StdPeriph_Driver\src/stm32f10x_fsmc.c ****             FSMC_NANDInitStruct->FSMC_ECC |
 288:.\stlib\STM32F10x_StdPeriph_Driver\src/stm32f10x_fsmc.c ****             FSMC_NANDInitStruct->FSMC_ECCPageSize |
 289:.\stlib\STM32F10x_StdPeriph_Driver\src/stm32f10x_fsmc.c ****             (FSMC_NANDInitStruct->FSMC_TCLRSetupTime << 9 )|
 290:.\stlib\STM32F10x_StdPeriph_Driver\src/stm32f10x_fsmc.c ****             (FSMC_NANDInitStruct->FSMC_TARSetupTime << 13);
 499              		.loc 1 290 53 view .LVU146
 500 0122 8269     		ldr	r2, [r0, #24]	@ FSMC_NANDInitStruct_37(D)->FSMC_TARSetupTime, FSMC_NANDInitStruct_37(D)->FSMC_
 501              	@ .\stlib\STM32F10x_StdPeriph_Driver\src\stm32f10x_fsmc.c:263: {
 263:.\stlib\STM32F10x_StdPeriph_Driver\src/stm32f10x_fsmc.c ****   uint32_t tmppcr = 0x00000000, tmppmem = 0x00000000, tmppatt = 0x00000000; 
 502              		.loc 1 263 1 view .LVU147
 503 0124 30B5     		push	{r4, r5, lr}	@
 504              	.LCFI1:
 505              		.cfi_def_cfa_offset 12
 506              		.cfi_offset 4, -12
 507              		.cfi_offset 5, -8
 508              		.cfi_offset 14, -4
 509              	@ .\stlib\STM32F10x_StdPeriph_Driver\src\stm32f10x_fsmc.c:289:             (FSMC_NANDInitStruct->FS
 289:.\stlib\STM32F10x_StdPeriph_Driver\src/stm32f10x_fsmc.c ****             (FSMC_NANDInitStruct->FSMC_TARSetupTime << 13);
 510              		.loc 1 289 60 view .LVU148
 511 0126 43EA4233 		orr	r3, r3, r2, lsl #13	@ tmp153, tmp148, FSMC_NANDInitStruct_37(D)->FSMC_TARSetupTime,
 512 012a C268     		ldr	r2, [r0, #12]	@ FSMC_NANDInitStruct_37(D)->FSMC_ECC, FSMC_NANDInitStruct_37(D)->FSMC_ECC
 513              	@ .\stlib\STM32F10x_StdPeriph_Driver\src\stm32f10x_fsmc.c:293:   tmppmem = (uint32_t)FSMC_NANDInitS
 291:.\stlib\STM32F10x_StdPeriph_Driver\src/stm32f10x_fsmc.c ****             
 292:.\stlib\STM32F10x_StdPeriph_Driver\src/stm32f10x_fsmc.c ****   /* Set tmppmem value according to FSMC_CommonSpaceTimingStructure parameters */
 293:.\stlib\STM32F10x_StdPeriph_Driver\src/stm32f10x_fsmc.c ****   tmppmem = (uint32_t)FSMC_NANDInitStruct->FSMC_CommonSpaceTimingStruct->FSMC_SetupTime |
 514              		.loc 1 293 42 view .LVU149
 515 012c C469     		ldr	r4, [r0, #28]	@ _14, FSMC_NANDInitStruct_37(D)->FSMC_CommonSpaceTimingStruct
 516              	@ .\stlib\STM32F10x_StdPeriph_Driver\src\stm32f10x_fsmc.c:289:             (FSMC_NANDInitStruct->FS
 289:.\stlib\STM32F10x_StdPeriph_Driver\src/stm32f10x_fsmc.c ****             (FSMC_NANDInitStruct->FSMC_TARSetupTime << 13);
 517              		.loc 1 289 60 view .LVU150
 518 012e 1343     		orrs	r3, r3, r2	@, tmp154, tmp153, FSMC_NANDInitStruct_37(D)->FSMC_ECC
 519 0130 0269     		ldr	r2, [r0, #16]	@ FSMC_NANDInitStruct_37(D)->FSMC_ECCPageSize, FSMC_NANDInitStruct_37(D)->FSMC_E
ARM GAS  C:\Users\skey\AppData\Local\Temp\ccFDdSGQ.s 			page 16


 520 0132 1343     		orrs	r3, r3, r2	@, tmp156, tmp154, FSMC_NANDInitStruct_37(D)->FSMC_ECCPageSize
 521              	@ .\stlib\STM32F10x_StdPeriph_Driver\src\stm32f10x_fsmc.c:289:             (FSMC_NANDInitStruct->FS
 289:.\stlib\STM32F10x_StdPeriph_Driver\src/stm32f10x_fsmc.c ****             (FSMC_NANDInitStruct->FSMC_TARSetupTime << 13);
 522              		.loc 1 289 54 view .LVU151
 523 0134 4269     		ldr	r2, [r0, #20]	@ FSMC_NANDInitStruct_37(D)->FSMC_TCLRSetupTime, FSMC_NANDInitStruct_37(D)->FSMC
 524              	@ .\stlib\STM32F10x_StdPeriph_Driver\src\stm32f10x_fsmc.c:289:             (FSMC_NANDInitStruct->FS
 289:.\stlib\STM32F10x_StdPeriph_Driver\src/stm32f10x_fsmc.c ****             (FSMC_NANDInitStruct->FSMC_TARSetupTime << 13);
 525              		.loc 1 289 60 view .LVU152
 526 0136 43EA4223 		orr	r3, r3, r2, lsl #9	@ tmp160, tmp156, FSMC_NANDInitStruct_37(D)->FSMC_TCLRSetupTime,
 527              	@ .\stlib\STM32F10x_StdPeriph_Driver\src\stm32f10x_fsmc.c:295:             (FSMC_NANDInitStruct->FS
 294:.\stlib\STM32F10x_StdPeriph_Driver\src/stm32f10x_fsmc.c ****             (FSMC_NANDInitStruct->FSMC_CommonSpaceTimingStruct->FSMC_WaitSetupTime << 8) |
 295:.\stlib\STM32F10x_StdPeriph_Driver\src/stm32f10x_fsmc.c ****             (FSMC_NANDInitStruct->FSMC_CommonSpaceTimingStruct->FSMC_HoldSetupTime << 16)|
 528              		.loc 1 295 84 view .LVU153
 529 013a D4E90152 		ldrd	r5, r2, [r4, #4]	@ _14->FSMC_WaitSetupTime, _14->FSMC_HoldSetupTime, _14,
 530 013e 1104     		lsls	r1, r2, #16	@ tmp163, _14->FSMC_HoldSetupTime,
 531              	@ .\stlib\STM32F10x_StdPeriph_Driver\src\stm32f10x_fsmc.c:294:             (FSMC_NANDInitStruct->FS
 294:.\stlib\STM32F10x_StdPeriph_Driver\src/stm32f10x_fsmc.c ****             (FSMC_NANDInitStruct->FSMC_CommonSpaceTimingStruct->FSMC_WaitSetupTime << 8) |
 532              		.loc 1 294 90 view .LVU154
 533 0140 2268     		ldr	r2, [r4]	@ _14->FSMC_SetupTime, _14->FSMC_SetupTime
 534 0142 41EA0521 		orr	r1, r1, r5, lsl #8	@ tmp165, tmp163, _14->FSMC_WaitSetupTime,
 535 0146 1143     		orrs	r1, r1, r2	@, tmp166, tmp165, _14->FSMC_SetupTime
 536              	@ .\stlib\STM32F10x_StdPeriph_Driver\src\stm32f10x_fsmc.c:296:             (FSMC_NANDInitStruct->FS
 296:.\stlib\STM32F10x_StdPeriph_Driver\src/stm32f10x_fsmc.c ****             (FSMC_NANDInitStruct->FSMC_CommonSpaceTimingStruct->FSMC_HiZSetupTime << 24); 
 537              		.loc 1 296 83 view .LVU155
 538 0148 E268     		ldr	r2, [r4, #12]	@ _14->FSMC_HiZSetupTime, _14->FSMC_HiZSetupTime
 539              	@ .\stlib\STM32F10x_StdPeriph_Driver\src\stm32f10x_fsmc.c:299:   tmppatt = (uint32_t)FSMC_NANDInitS
 297:.\stlib\STM32F10x_StdPeriph_Driver\src/stm32f10x_fsmc.c ****             
 298:.\stlib\STM32F10x_StdPeriph_Driver\src/stm32f10x_fsmc.c ****   /* Set tmppatt value according to FSMC_AttributeSpaceTimingStructure parameters */
 299:.\stlib\STM32F10x_StdPeriph_Driver\src/stm32f10x_fsmc.c ****   tmppatt = (uint32_t)FSMC_NANDInitStruct->FSMC_AttributeSpaceTimingStruct->FSMC_SetupTime |
 540              		.loc 1 299 42 view .LVU156
 541 014a 046A     		ldr	r4, [r0, #32]	@ _24, FSMC_NANDInitStruct_37(D)->FSMC_AttributeSpaceTimingStruct
 542              	@ .\stlib\STM32F10x_StdPeriph_Driver\src\stm32f10x_fsmc.c:293:   tmppmem = (uint32_t)FSMC_NANDInitS
 293:.\stlib\STM32F10x_StdPeriph_Driver\src/stm32f10x_fsmc.c ****             (FSMC_NANDInitStruct->FSMC_CommonSpaceTimingStruct->FSMC_WaitSetupTime << 8) |
 543              		.loc 1 293 11 view .LVU157
 544 014c 41EA0261 		orr	r1, r1, r2, lsl #24	@ tmppmem, tmp166, _14->FSMC_HiZSetupTime,
 545              	@ .\stlib\STM32F10x_StdPeriph_Driver\src\stm32f10x_fsmc.c:304:   if(FSMC_NANDInitStruct->FSMC_Bank 
 300:.\stlib\STM32F10x_StdPeriph_Driver\src/stm32f10x_fsmc.c ****             (FSMC_NANDInitStruct->FSMC_AttributeSpaceTimingStruct->FSMC_WaitSetupTime << 8) |
 301:.\stlib\STM32F10x_StdPeriph_Driver\src/stm32f10x_fsmc.c ****             (FSMC_NANDInitStruct->FSMC_AttributeSpaceTimingStruct->FSMC_HoldSetupTime << 16)|
 302:.\stlib\STM32F10x_StdPeriph_Driver\src/stm32f10x_fsmc.c ****             (FSMC_NANDInitStruct->FSMC_AttributeSpaceTimingStruct->FSMC_HiZSetupTime << 24);
 303:.\stlib\STM32F10x_StdPeriph_Driver\src/stm32f10x_fsmc.c ****   
 304:.\stlib\STM32F10x_StdPeriph_Driver\src/stm32f10x_fsmc.c ****   if(FSMC_NANDInitStruct->FSMC_Bank == FSMC_Bank2_NAND)
 546              		.loc 1 304 5 view .LVU158
 547 0150 0068     		ldr	r0, [r0]	@ FSMC_NANDInitStruct_37(D)->FSMC_Bank, FSMC_NANDInitStruct_37(D)->FSMC_Bank
 548              	.LVL6:
 549              	@ .\stlib\STM32F10x_StdPeriph_Driver\src\stm32f10x_fsmc.c:301:             (FSMC_NANDInitStruct->FS
 301:.\stlib\STM32F10x_StdPeriph_Driver\src/stm32f10x_fsmc.c ****             (FSMC_NANDInitStruct->FSMC_AttributeSpaceTimingStruct->FSMC_HiZSetupTime << 24);
 550              		.loc 1 301 87 view .LVU159
 551 0152 D4E90152 		ldrd	r5, r2, [r4, #4]	@ _24->FSMC_WaitSetupTime, _24->FSMC_HoldSetupTime, _24,
 552 0156 1204     		lsls	r2, r2, #16	@ tmp172, _24->FSMC_HoldSetupTime,
 553              	@ .\stlib\STM32F10x_StdPeriph_Driver\src\stm32f10x_fsmc.c:300:             (FSMC_NANDInitStruct->FS
 300:.\stlib\STM32F10x_StdPeriph_Driver\src/stm32f10x_fsmc.c ****             (FSMC_NANDInitStruct->FSMC_AttributeSpaceTimingStruct->FSMC_WaitSetupTime << 8) |
 554              		.loc 1 300 93 view .LVU160
 555 0158 42EA0522 		orr	r2, r2, r5, lsl #8	@ tmp174, tmp172, _24->FSMC_WaitSetupTime,
 556 015c 2568     		ldr	r5, [r4]	@ _24->FSMC_SetupTime, _24->FSMC_SetupTime
 557              	@ .\stlib\STM32F10x_StdPeriph_Driver\src\stm32f10x_fsmc.c:304:   if(FSMC_NANDInitStruct->FSMC_Bank 
 558              		.loc 1 304 5 view .LVU161
 559 015e 1028     		cmp	r0, #16	@ FSMC_NANDInitStruct_37(D)->FSMC_Bank,
ARM GAS  C:\Users\skey\AppData\Local\Temp\ccFDdSGQ.s 			page 17


 560              	@ .\stlib\STM32F10x_StdPeriph_Driver\src\stm32f10x_fsmc.c:302:             (FSMC_NANDInitStruct->FS
 302:.\stlib\STM32F10x_StdPeriph_Driver\src/stm32f10x_fsmc.c ****   
 561              		.loc 1 302 86 view .LVU162
 562 0160 E468     		ldr	r4, [r4, #12]	@ _24->FSMC_HiZSetupTime, _24->FSMC_HiZSetupTime
 563              	@ .\stlib\STM32F10x_StdPeriph_Driver\src\stm32f10x_fsmc.c:307:     FSMC_Bank2->PCR2 = tmppcr;
 305:.\stlib\STM32F10x_StdPeriph_Driver\src/stm32f10x_fsmc.c ****   {
 306:.\stlib\STM32F10x_StdPeriph_Driver\src/stm32f10x_fsmc.c ****     /* FSMC_Bank2_NAND registers configuration */
 307:.\stlib\STM32F10x_StdPeriph_Driver\src/stm32f10x_fsmc.c ****     FSMC_Bank2->PCR2 = tmppcr;
 564              		.loc 1 307 22 view .LVU163
 565 0162 0CBF     		ite	eq
 566 0164 0548     		ldreq	r0, .L22	@ tmp180,
 567              	@ .\stlib\STM32F10x_StdPeriph_Driver\src\stm32f10x_fsmc.c:314:     FSMC_Bank3->PCR3 = tmppcr;
 308:.\stlib\STM32F10x_StdPeriph_Driver\src/stm32f10x_fsmc.c ****     FSMC_Bank2->PMEM2 = tmppmem;
 309:.\stlib\STM32F10x_StdPeriph_Driver\src/stm32f10x_fsmc.c ****     FSMC_Bank2->PATT2 = tmppatt;
 310:.\stlib\STM32F10x_StdPeriph_Driver\src/stm32f10x_fsmc.c ****   }
 311:.\stlib\STM32F10x_StdPeriph_Driver\src/stm32f10x_fsmc.c ****   else
 312:.\stlib\STM32F10x_StdPeriph_Driver\src/stm32f10x_fsmc.c ****   {
 313:.\stlib\STM32F10x_StdPeriph_Driver\src/stm32f10x_fsmc.c ****     /* FSMC_Bank3_NAND registers configuration */
 314:.\stlib\STM32F10x_StdPeriph_Driver\src/stm32f10x_fsmc.c ****     FSMC_Bank3->PCR3 = tmppcr;
 568              		.loc 1 314 22 view .LVU164
 569 0166 0648     		ldrne	r0, .L22+4	@ tmp183,
 570              	@ .\stlib\STM32F10x_StdPeriph_Driver\src\stm32f10x_fsmc.c:300:             (FSMC_NANDInitStruct->FS
 300:.\stlib\STM32F10x_StdPeriph_Driver\src/stm32f10x_fsmc.c ****             (FSMC_NANDInitStruct->FSMC_AttributeSpaceTimingStruct->FSMC_HoldSetupTime << 16)|
 571              		.loc 1 300 93 view .LVU165
 572 0168 2A43     		orrs	r2, r2, r5	@, tmp175, tmp174, _24->FSMC_SetupTime
 573              	@ .\stlib\STM32F10x_StdPeriph_Driver\src\stm32f10x_fsmc.c:284:   tmppcr = (uint32_t)FSMC_NANDInitSt
 284:.\stlib\STM32F10x_StdPeriph_Driver\src/stm32f10x_fsmc.c ****             PCR_MemoryType_NAND |
 574              		.loc 1 284 10 view .LVU166
 575 016a 43F00803 		orr	r3, r3, #8	@ tmppcr, tmp160,
 576              	.LVL7:
 293:.\stlib\STM32F10x_StdPeriph_Driver\src/stm32f10x_fsmc.c ****             (FSMC_NANDInitStruct->FSMC_CommonSpaceTimingStruct->FSMC_WaitSetupTime << 8) |
 577              		.loc 1 293 3 is_stmt 1 view .LVU167
 299:.\stlib\STM32F10x_StdPeriph_Driver\src/stm32f10x_fsmc.c ****             (FSMC_NANDInitStruct->FSMC_AttributeSpaceTimingStruct->FSMC_WaitSetupTime << 8) |
 578              		.loc 1 299 3 view .LVU168
 579              	@ .\stlib\STM32F10x_StdPeriph_Driver\src\stm32f10x_fsmc.c:299:   tmppatt = (uint32_t)FSMC_NANDInitS
 299:.\stlib\STM32F10x_StdPeriph_Driver\src/stm32f10x_fsmc.c ****             (FSMC_NANDInitStruct->FSMC_AttributeSpaceTimingStruct->FSMC_WaitSetupTime << 8) |
 580              		.loc 1 299 11 is_stmt 0 view .LVU169
 581 016e 42EA0462 		orr	r2, r2, r4, lsl #24	@ tmppatt, tmp175, _24->FSMC_HiZSetupTime,
 582              	.LVL8:
 304:.\stlib\STM32F10x_StdPeriph_Driver\src/stm32f10x_fsmc.c ****   {
 583              		.loc 1 304 3 is_stmt 1 view .LVU170
 307:.\stlib\STM32F10x_StdPeriph_Driver\src/stm32f10x_fsmc.c ****     FSMC_Bank2->PMEM2 = tmppmem;
 584              		.loc 1 307 5 view .LVU171
 585              		.loc 1 314 5 view .LVU172
 586              	@ .\stlib\STM32F10x_StdPeriph_Driver\src\stm32f10x_fsmc.c:314:     FSMC_Bank3->PCR3 = tmppcr;
 587              		.loc 1 314 22 is_stmt 0 view .LVU173
 588 0172 0360     		str	r3, [r0]	@ tmppcr,
 315:.\stlib\STM32F10x_StdPeriph_Driver\src/stm32f10x_fsmc.c ****     FSMC_Bank3->PMEM3 = tmppmem;
 589              		.loc 1 315 5 is_stmt 1 view .LVU174
 590              	@ .\stlib\STM32F10x_StdPeriph_Driver\src\stm32f10x_fsmc.c:315:     FSMC_Bank3->PMEM3 = tmppmem;
 591              		.loc 1 315 23 is_stmt 0 view .LVU175
 592 0174 8160     		str	r1, [r0, #8]	@ tmppmem,
 316:.\stlib\STM32F10x_StdPeriph_Driver\src/stm32f10x_fsmc.c ****     FSMC_Bank3->PATT3 = tmppatt;
 593              		.loc 1 316 5 is_stmt 1 view .LVU176
 594              	@ .\stlib\STM32F10x_StdPeriph_Driver\src\stm32f10x_fsmc.c:316:     FSMC_Bank3->PATT3 = tmppatt;
 595              		.loc 1 316 23 is_stmt 0 view .LVU177
 596 0176 C260     		str	r2, [r0, #12]	@ tmppatt,
ARM GAS  C:\Users\skey\AppData\Local\Temp\ccFDdSGQ.s 			page 18


 597              	@ .\stlib\STM32F10x_StdPeriph_Driver\src\stm32f10x_fsmc.c:318: }
 317:.\stlib\STM32F10x_StdPeriph_Driver\src/stm32f10x_fsmc.c ****   }
 318:.\stlib\STM32F10x_StdPeriph_Driver\src/stm32f10x_fsmc.c **** }
 598              		.loc 1 318 1 view .LVU178
 599 0178 30BD     		pop	{r4, r5, pc}	@
 600              	.L23:
 601 017a 00BF     		.align	2
 602              	.L22:
 603 017c 600000A0 		.word	-1610612640
 604 0180 800000A0 		.word	-1610612608
 605              		.cfi_endproc
 606              	.LFE33:
 607              		.size	FSMC_NANDInit, .-FSMC_NANDInit
 608              		.align	1
 609              		.global	FSMC_PCCARDInit
 610              		.syntax unified
 611              		.thumb
 612              		.thumb_func
 613              		.fpu softvfp
 614              		.type	FSMC_PCCARDInit, %function
 615              	FSMC_PCCARDInit:
 616              	.LVL9:
 617              	.LFB34:
 319:.\stlib\STM32F10x_StdPeriph_Driver\src/stm32f10x_fsmc.c **** 
 320:.\stlib\STM32F10x_StdPeriph_Driver\src/stm32f10x_fsmc.c **** /**
 321:.\stlib\STM32F10x_StdPeriph_Driver\src/stm32f10x_fsmc.c ****   * @brief  Initializes the FSMC PCCARD Bank according to the specified 
 322:.\stlib\STM32F10x_StdPeriph_Driver\src/stm32f10x_fsmc.c ****   *         parameters in the FSMC_PCCARDInitStruct.
 323:.\stlib\STM32F10x_StdPeriph_Driver\src/stm32f10x_fsmc.c ****   * @param  FSMC_PCCARDInitStruct : pointer to a FSMC_PCCARDInitTypeDef
 324:.\stlib\STM32F10x_StdPeriph_Driver\src/stm32f10x_fsmc.c ****   *         structure that contains the configuration information for the FSMC 
 325:.\stlib\STM32F10x_StdPeriph_Driver\src/stm32f10x_fsmc.c ****   *         PCCARD Bank.                       
 326:.\stlib\STM32F10x_StdPeriph_Driver\src/stm32f10x_fsmc.c ****   * @retval None
 327:.\stlib\STM32F10x_StdPeriph_Driver\src/stm32f10x_fsmc.c ****   */
 328:.\stlib\STM32F10x_StdPeriph_Driver\src/stm32f10x_fsmc.c **** void FSMC_PCCARDInit(FSMC_PCCARDInitTypeDef* FSMC_PCCARDInitStruct)
 329:.\stlib\STM32F10x_StdPeriph_Driver\src/stm32f10x_fsmc.c **** {
 618              		.loc 1 329 1 is_stmt 1 view -0
 619              		.cfi_startproc
 620              		@ args = 0, pretend = 0, frame = 0
 621              		@ frame_needed = 0, uses_anonymous_args = 0
 330:.\stlib\STM32F10x_StdPeriph_Driver\src/stm32f10x_fsmc.c ****   /* Check the parameters */
 331:.\stlib\STM32F10x_StdPeriph_Driver\src/stm32f10x_fsmc.c ****   assert_param(IS_FSMC_WAIT_FEATURE(FSMC_PCCARDInitStruct->FSMC_Waitfeature));
 622              		.loc 1 331 3 view .LVU180
 332:.\stlib\STM32F10x_StdPeriph_Driver\src/stm32f10x_fsmc.c ****   assert_param(IS_FSMC_TCLR_TIME(FSMC_PCCARDInitStruct->FSMC_TCLRSetupTime));
 623              		.loc 1 332 3 view .LVU181
 333:.\stlib\STM32F10x_StdPeriph_Driver\src/stm32f10x_fsmc.c ****   assert_param(IS_FSMC_TAR_TIME(FSMC_PCCARDInitStruct->FSMC_TARSetupTime));
 624              		.loc 1 333 3 view .LVU182
 334:.\stlib\STM32F10x_StdPeriph_Driver\src/stm32f10x_fsmc.c ****  
 335:.\stlib\STM32F10x_StdPeriph_Driver\src/stm32f10x_fsmc.c ****   assert_param(IS_FSMC_SETUP_TIME(FSMC_PCCARDInitStruct->FSMC_CommonSpaceTimingStruct->FSMC_SetupTi
 625              		.loc 1 335 3 view .LVU183
 336:.\stlib\STM32F10x_StdPeriph_Driver\src/stm32f10x_fsmc.c ****   assert_param(IS_FSMC_WAIT_TIME(FSMC_PCCARDInitStruct->FSMC_CommonSpaceTimingStruct->FSMC_WaitSetu
 626              		.loc 1 336 3 view .LVU184
 337:.\stlib\STM32F10x_StdPeriph_Driver\src/stm32f10x_fsmc.c ****   assert_param(IS_FSMC_HOLD_TIME(FSMC_PCCARDInitStruct->FSMC_CommonSpaceTimingStruct->FSMC_HoldSetu
 627              		.loc 1 337 3 view .LVU185
 338:.\stlib\STM32F10x_StdPeriph_Driver\src/stm32f10x_fsmc.c ****   assert_param(IS_FSMC_HIZ_TIME(FSMC_PCCARDInitStruct->FSMC_CommonSpaceTimingStruct->FSMC_HiZSetupT
 628              		.loc 1 338 3 view .LVU186
 339:.\stlib\STM32F10x_StdPeriph_Driver\src/stm32f10x_fsmc.c ****   
 340:.\stlib\STM32F10x_StdPeriph_Driver\src/stm32f10x_fsmc.c ****   assert_param(IS_FSMC_SETUP_TIME(FSMC_PCCARDInitStruct->FSMC_AttributeSpaceTimingStruct->FSMC_Setu
 629              		.loc 1 340 3 view .LVU187
ARM GAS  C:\Users\skey\AppData\Local\Temp\ccFDdSGQ.s 			page 19


 341:.\stlib\STM32F10x_StdPeriph_Driver\src/stm32f10x_fsmc.c ****   assert_param(IS_FSMC_WAIT_TIME(FSMC_PCCARDInitStruct->FSMC_AttributeSpaceTimingStruct->FSMC_WaitS
 630              		.loc 1 341 3 view .LVU188
 342:.\stlib\STM32F10x_StdPeriph_Driver\src/stm32f10x_fsmc.c ****   assert_param(IS_FSMC_HOLD_TIME(FSMC_PCCARDInitStruct->FSMC_AttributeSpaceTimingStruct->FSMC_HoldS
 631              		.loc 1 342 3 view .LVU189
 343:.\stlib\STM32F10x_StdPeriph_Driver\src/stm32f10x_fsmc.c ****   assert_param(IS_FSMC_HIZ_TIME(FSMC_PCCARDInitStruct->FSMC_AttributeSpaceTimingStruct->FSMC_HiZSet
 632              		.loc 1 343 3 view .LVU190
 344:.\stlib\STM32F10x_StdPeriph_Driver\src/stm32f10x_fsmc.c ****   assert_param(IS_FSMC_SETUP_TIME(FSMC_PCCARDInitStruct->FSMC_IOSpaceTimingStruct->FSMC_SetupTime))
 633              		.loc 1 344 3 view .LVU191
 345:.\stlib\STM32F10x_StdPeriph_Driver\src/stm32f10x_fsmc.c ****   assert_param(IS_FSMC_WAIT_TIME(FSMC_PCCARDInitStruct->FSMC_IOSpaceTimingStruct->FSMC_WaitSetupTim
 634              		.loc 1 345 3 view .LVU192
 346:.\stlib\STM32F10x_StdPeriph_Driver\src/stm32f10x_fsmc.c ****   assert_param(IS_FSMC_HOLD_TIME(FSMC_PCCARDInitStruct->FSMC_IOSpaceTimingStruct->FSMC_HoldSetupTim
 635              		.loc 1 346 3 view .LVU193
 347:.\stlib\STM32F10x_StdPeriph_Driver\src/stm32f10x_fsmc.c ****   assert_param(IS_FSMC_HIZ_TIME(FSMC_PCCARDInitStruct->FSMC_IOSpaceTimingStruct->FSMC_HiZSetupTime)
 636              		.loc 1 347 3 view .LVU194
 348:.\stlib\STM32F10x_StdPeriph_Driver\src/stm32f10x_fsmc.c ****   
 349:.\stlib\STM32F10x_StdPeriph_Driver\src/stm32f10x_fsmc.c ****   /* Set the PCR4 register value according to FSMC_PCCARDInitStruct parameters */
 350:.\stlib\STM32F10x_StdPeriph_Driver\src/stm32f10x_fsmc.c ****   FSMC_Bank4->PCR4 = (uint32_t)FSMC_PCCARDInitStruct->FSMC_Waitfeature |
 637              		.loc 1 350 3 view .LVU195
 638              	@ .\stlib\STM32F10x_StdPeriph_Driver\src\stm32f10x_fsmc.c:353:                      (FSMC_PCCARDIni
 351:.\stlib\STM32F10x_StdPeriph_Driver\src/stm32f10x_fsmc.c ****                      FSMC_MemoryDataWidth_16b |  
 352:.\stlib\STM32F10x_StdPeriph_Driver\src/stm32f10x_fsmc.c ****                      (FSMC_PCCARDInitStruct->FSMC_TCLRSetupTime << 9) |
 353:.\stlib\STM32F10x_StdPeriph_Driver\src/stm32f10x_fsmc.c ****                      (FSMC_PCCARDInitStruct->FSMC_TARSetupTime << 13);
 639              		.loc 1 353 64 is_stmt 0 view .LVU196
 640 0184 D0E90123 		ldrd	r2, r3, [r0, #4]	@ FSMC_PCCARDInitStruct_43(D)->FSMC_TCLRSetupTime, FSMC_PCCARDInitStruct_43(
 641 0188 5B03     		lsls	r3, r3, #13	@ tmp154, FSMC_PCCARDInitStruct_43(D)->FSMC_TARSetupTime,
 642              	@ .\stlib\STM32F10x_StdPeriph_Driver\src\stm32f10x_fsmc.c:352:                      (FSMC_PCCARDIni
 352:.\stlib\STM32F10x_StdPeriph_Driver\src/stm32f10x_fsmc.c ****                      (FSMC_PCCARDInitStruct->FSMC_TARSetupTime << 13);
 643              		.loc 1 352 71 view .LVU197
 644 018a 43EA4223 		orr	r3, r3, r2, lsl #9	@ tmp156, tmp154, FSMC_PCCARDInitStruct_43(D)->FSMC_TCLRSetupTime,
 645 018e 0268     		ldr	r2, [r0]	@ FSMC_PCCARDInitStruct_43(D)->FSMC_Waitfeature, FSMC_PCCARDInitStruct_43(D)->FSMC_Wa
 646              	@ .\stlib\STM32F10x_StdPeriph_Driver\src\stm32f10x_fsmc.c:356:   FSMC_Bank4->PMEM4 = (uint32_t)FSMC
 354:.\stlib\STM32F10x_StdPeriph_Driver\src/stm32f10x_fsmc.c ****             
 355:.\stlib\STM32F10x_StdPeriph_Driver\src/stm32f10x_fsmc.c ****   /* Set PMEM4 register value according to FSMC_CommonSpaceTimingStructure parameters */
 356:.\stlib\STM32F10x_StdPeriph_Driver\src/stm32f10x_fsmc.c ****   FSMC_Bank4->PMEM4 = (uint32_t)FSMC_PCCARDInitStruct->FSMC_CommonSpaceTimingStruct->FSMC_SetupTime
 647              		.loc 1 356 54 view .LVU198
 648 0190 C168     		ldr	r1, [r0, #12]	@ _9, FSMC_PCCARDInitStruct_43(D)->FSMC_CommonSpaceTimingStruct
 649              	@ .\stlib\STM32F10x_StdPeriph_Driver\src\stm32f10x_fsmc.c:352:                      (FSMC_PCCARDIni
 352:.\stlib\STM32F10x_StdPeriph_Driver\src/stm32f10x_fsmc.c ****                      (FSMC_PCCARDInitStruct->FSMC_TARSetupTime << 13);
 650              		.loc 1 352 71 view .LVU199
 651 0192 1343     		orrs	r3, r3, r2	@, tmp157, tmp156, FSMC_PCCARDInitStruct_43(D)->FSMC_Waitfeature
 652              	@ .\stlib\STM32F10x_StdPeriph_Driver\src\stm32f10x_fsmc.c:350:   FSMC_Bank4->PCR4 = (uint32_t)FSMC_
 350:.\stlib\STM32F10x_StdPeriph_Driver\src/stm32f10x_fsmc.c ****                      FSMC_MemoryDataWidth_16b |  
 653              		.loc 1 350 20 view .LVU200
 654 0194 144A     		ldr	r2, .L25	@ tmp159,
 655              	@ .\stlib\STM32F10x_StdPeriph_Driver\src\stm32f10x_fsmc.c:352:                      (FSMC_PCCARDIni
 352:.\stlib\STM32F10x_StdPeriph_Driver\src/stm32f10x_fsmc.c ****                      (FSMC_PCCARDInitStruct->FSMC_TARSetupTime << 13);
 656              		.loc 1 352 71 view .LVU201
 657 0196 43F01003 		orr	r3, r3, #16	@ _8, tmp157,
 658              	@ .\stlib\STM32F10x_StdPeriph_Driver\src\stm32f10x_fsmc.c:329: {
 329:.\stlib\STM32F10x_StdPeriph_Driver\src/stm32f10x_fsmc.c ****   /* Check the parameters */
 659              		.loc 1 329 1 view .LVU202
 660 019a 10B5     		push	{r4, lr}	@
 661              	.LCFI2:
 662              		.cfi_def_cfa_offset 8
 663              		.cfi_offset 4, -8
 664              		.cfi_offset 14, -4
 665              	@ .\stlib\STM32F10x_StdPeriph_Driver\src\stm32f10x_fsmc.c:350:   FSMC_Bank4->PCR4 = (uint32_t)FSMC_
ARM GAS  C:\Users\skey\AppData\Local\Temp\ccFDdSGQ.s 			page 20


 350:.\stlib\STM32F10x_StdPeriph_Driver\src/stm32f10x_fsmc.c ****                      FSMC_MemoryDataWidth_16b |  
 666              		.loc 1 350 20 view .LVU203
 667 019c 1360     		str	r3, [r2]	@ _8, MEM[(struct FSMC_Bank4_TypeDef *)2684354720B].PCR4
 668              		.loc 1 356 3 is_stmt 1 view .LVU204
 669              	@ .\stlib\STM32F10x_StdPeriph_Driver\src\stm32f10x_fsmc.c:358:                       (FSMC_PCCARDIn
 357:.\stlib\STM32F10x_StdPeriph_Driver\src/stm32f10x_fsmc.c ****                       (FSMC_PCCARDInitStruct->FSMC_CommonSpaceTimingStruct->FSMC_WaitSetupTime << 8
 358:.\stlib\STM32F10x_StdPeriph_Driver\src/stm32f10x_fsmc.c ****                       (FSMC_PCCARDInitStruct->FSMC_CommonSpaceTimingStruct->FSMC_HoldSetupTime << 1
 670              		.loc 1 358 96 is_stmt 0 view .LVU205
 671 019e D1E90143 		ldrd	r4, r3, [r1, #4]	@ _9->FSMC_WaitSetupTime, _9->FSMC_HoldSetupTime, _9,
 672 01a2 1B04     		lsls	r3, r3, #16	@ tmp162, _9->FSMC_HoldSetupTime,
 673              	@ .\stlib\STM32F10x_StdPeriph_Driver\src\stm32f10x_fsmc.c:357:                       (FSMC_PCCARDIn
 357:.\stlib\STM32F10x_StdPeriph_Driver\src/stm32f10x_fsmc.c ****                       (FSMC_PCCARDInitStruct->FSMC_CommonSpaceTimingStruct->FSMC_WaitSetupTime << 8
 674              		.loc 1 357 102 view .LVU206
 675 01a4 43EA0423 		orr	r3, r3, r4, lsl #8	@ tmp164, tmp162, _9->FSMC_WaitSetupTime,
 676 01a8 0C68     		ldr	r4, [r1]	@ _9->FSMC_SetupTime, _9->FSMC_SetupTime
 677              	@ .\stlib\STM32F10x_StdPeriph_Driver\src\stm32f10x_fsmc.c:359:                       (FSMC_PCCARDIn
 359:.\stlib\STM32F10x_StdPeriph_Driver\src/stm32f10x_fsmc.c ****                       (FSMC_PCCARDInitStruct->FSMC_CommonSpaceTimingStruct->FSMC_HiZSetupTime << 24
 678              		.loc 1 359 95 view .LVU207
 679 01aa C968     		ldr	r1, [r1, #12]	@ _9->FSMC_HiZSetupTime, _9->FSMC_HiZSetupTime
 680              	@ .\stlib\STM32F10x_StdPeriph_Driver\src\stm32f10x_fsmc.c:357:                       (FSMC_PCCARDIn
 357:.\stlib\STM32F10x_StdPeriph_Driver\src/stm32f10x_fsmc.c ****                       (FSMC_PCCARDInitStruct->FSMC_CommonSpaceTimingStruct->FSMC_WaitSetupTime << 8
 681              		.loc 1 357 102 view .LVU208
 682 01ac 2343     		orrs	r3, r3, r4	@, tmp165, tmp164, _9->FSMC_SetupTime
 683              	@ .\stlib\STM32F10x_StdPeriph_Driver\src\stm32f10x_fsmc.c:358:                       (FSMC_PCCARDIn
 358:.\stlib\STM32F10x_StdPeriph_Driver\src/stm32f10x_fsmc.c ****                       (FSMC_PCCARDInitStruct->FSMC_CommonSpaceTimingStruct->FSMC_HiZSetupTime << 24
 684              		.loc 1 358 102 view .LVU209
 685 01ae 43EA0163 		orr	r3, r3, r1, lsl #24	@ _19, tmp165, _9->FSMC_HiZSetupTime,
 686              	@ .\stlib\STM32F10x_StdPeriph_Driver\src\stm32f10x_fsmc.c:362:   FSMC_Bank4->PATT4 = (uint32_t)FSMC
 360:.\stlib\STM32F10x_StdPeriph_Driver\src/stm32f10x_fsmc.c ****             
 361:.\stlib\STM32F10x_StdPeriph_Driver\src/stm32f10x_fsmc.c ****   /* Set PATT4 register value according to FSMC_AttributeSpaceTimingStructure parameters */
 362:.\stlib\STM32F10x_StdPeriph_Driver\src/stm32f10x_fsmc.c ****   FSMC_Bank4->PATT4 = (uint32_t)FSMC_PCCARDInitStruct->FSMC_AttributeSpaceTimingStruct->FSMC_SetupT
 687              		.loc 1 362 54 view .LVU210
 688 01b2 0169     		ldr	r1, [r0, #16]	@ _20, FSMC_PCCARDInitStruct_43(D)->FSMC_AttributeSpaceTimingStruct
 689              	@ .\stlib\STM32F10x_StdPeriph_Driver\src\stm32f10x_fsmc.c:356:   FSMC_Bank4->PMEM4 = (uint32_t)FSMC
 356:.\stlib\STM32F10x_StdPeriph_Driver\src/stm32f10x_fsmc.c ****                       (FSMC_PCCARDInitStruct->FSMC_CommonSpaceTimingStruct->FSMC_WaitSetupTime << 8
 690              		.loc 1 356 21 view .LVU211
 691 01b4 9360     		str	r3, [r2, #8]	@ _19, MEM[(struct FSMC_Bank4_TypeDef *)2684354720B].PMEM4
 692              		.loc 1 362 3 is_stmt 1 view .LVU212
 693              	@ .\stlib\STM32F10x_StdPeriph_Driver\src\stm32f10x_fsmc.c:364:                       (FSMC_PCCARDIn
 363:.\stlib\STM32F10x_StdPeriph_Driver\src/stm32f10x_fsmc.c ****                       (FSMC_PCCARDInitStruct->FSMC_AttributeSpaceTimingStruct->FSMC_WaitSetupTime <
 364:.\stlib\STM32F10x_StdPeriph_Driver\src/stm32f10x_fsmc.c ****                       (FSMC_PCCARDInitStruct->FSMC_AttributeSpaceTimingStruct->FSMC_HoldSetupTime <
 694              		.loc 1 364 99 is_stmt 0 view .LVU213
 695 01b6 D1E90143 		ldrd	r4, r3, [r1, #4]	@ _20->FSMC_WaitSetupTime, _20->FSMC_HoldSetupTime, _20,
 696 01ba 1B04     		lsls	r3, r3, #16	@ tmp172, _20->FSMC_HoldSetupTime,
 697              	@ .\stlib\STM32F10x_StdPeriph_Driver\src\stm32f10x_fsmc.c:363:                       (FSMC_PCCARDIn
 363:.\stlib\STM32F10x_StdPeriph_Driver\src/stm32f10x_fsmc.c ****                       (FSMC_PCCARDInitStruct->FSMC_AttributeSpaceTimingStruct->FSMC_WaitSetupTime <
 698              		.loc 1 363 105 view .LVU214
 699 01bc 43EA0423 		orr	r3, r3, r4, lsl #8	@ tmp174, tmp172, _20->FSMC_WaitSetupTime,
 700 01c0 0C68     		ldr	r4, [r1]	@ _20->FSMC_SetupTime, _20->FSMC_SetupTime
 701              	@ .\stlib\STM32F10x_StdPeriph_Driver\src\stm32f10x_fsmc.c:365:                       (FSMC_PCCARDIn
 365:.\stlib\STM32F10x_StdPeriph_Driver\src/stm32f10x_fsmc.c ****                       (FSMC_PCCARDInitStruct->FSMC_AttributeSpaceTimingStruct->FSMC_HiZSetupTime <<
 702              		.loc 1 365 98 view .LVU215
 703 01c2 C968     		ldr	r1, [r1, #12]	@ _20->FSMC_HiZSetupTime, _20->FSMC_HiZSetupTime
 704              	@ .\stlib\STM32F10x_StdPeriph_Driver\src\stm32f10x_fsmc.c:363:                       (FSMC_PCCARDIn
 363:.\stlib\STM32F10x_StdPeriph_Driver\src/stm32f10x_fsmc.c ****                       (FSMC_PCCARDInitStruct->FSMC_AttributeSpaceTimingStruct->FSMC_WaitSetupTime <
 705              		.loc 1 363 105 view .LVU216
 706 01c4 2343     		orrs	r3, r3, r4	@, tmp175, tmp174, _20->FSMC_SetupTime
ARM GAS  C:\Users\skey\AppData\Local\Temp\ccFDdSGQ.s 			page 21


 707              	@ .\stlib\STM32F10x_StdPeriph_Driver\src\stm32f10x_fsmc.c:364:                       (FSMC_PCCARDIn
 364:.\stlib\STM32F10x_StdPeriph_Driver\src/stm32f10x_fsmc.c ****                       (FSMC_PCCARDInitStruct->FSMC_AttributeSpaceTimingStruct->FSMC_HiZSetupTime <<
 708              		.loc 1 364 105 view .LVU217
 709 01c6 43EA0163 		orr	r3, r3, r1, lsl #24	@ _30, tmp175, _20->FSMC_HiZSetupTime,
 710              	@ .\stlib\STM32F10x_StdPeriph_Driver\src\stm32f10x_fsmc.c:368:   FSMC_Bank4->PIO4 = (uint32_t)FSMC_
 366:.\stlib\STM32F10x_StdPeriph_Driver\src/stm32f10x_fsmc.c ****             
 367:.\stlib\STM32F10x_StdPeriph_Driver\src/stm32f10x_fsmc.c ****   /* Set PIO4 register value according to FSMC_IOSpaceTimingStructure parameters */
 368:.\stlib\STM32F10x_StdPeriph_Driver\src/stm32f10x_fsmc.c ****   FSMC_Bank4->PIO4 = (uint32_t)FSMC_PCCARDInitStruct->FSMC_IOSpaceTimingStruct->FSMC_SetupTime |
 711              		.loc 1 368 53 view .LVU218
 712 01ca 4169     		ldr	r1, [r0, #20]	@ _31, FSMC_PCCARDInitStruct_43(D)->FSMC_IOSpaceTimingStruct
 713              	@ .\stlib\STM32F10x_StdPeriph_Driver\src\stm32f10x_fsmc.c:362:   FSMC_Bank4->PATT4 = (uint32_t)FSMC
 362:.\stlib\STM32F10x_StdPeriph_Driver\src/stm32f10x_fsmc.c ****                       (FSMC_PCCARDInitStruct->FSMC_AttributeSpaceTimingStruct->FSMC_WaitSetupTime <
 714              		.loc 1 362 21 view .LVU219
 715 01cc D360     		str	r3, [r2, #12]	@ _30, MEM[(struct FSMC_Bank4_TypeDef *)2684354720B].PATT4
 716              		.loc 1 368 3 is_stmt 1 view .LVU220
 717              	@ .\stlib\STM32F10x_StdPeriph_Driver\src\stm32f10x_fsmc.c:370:                      (FSMC_PCCARDIni
 369:.\stlib\STM32F10x_StdPeriph_Driver\src/stm32f10x_fsmc.c ****                      (FSMC_PCCARDInitStruct->FSMC_IOSpaceTimingStruct->FSMC_WaitSetupTime << 8) |
 370:.\stlib\STM32F10x_StdPeriph_Driver\src/stm32f10x_fsmc.c ****                      (FSMC_PCCARDInitStruct->FSMC_IOSpaceTimingStruct->FSMC_HoldSetupTime << 16)|
 718              		.loc 1 370 91 is_stmt 0 view .LVU221
 719 01ce D1E90103 		ldrd	r0, r3, [r1, #4]	@ _31->FSMC_WaitSetupTime, _31->FSMC_HoldSetupTime, _31,
 720              	.LVL10:
 721              		.loc 1 370 91 view .LVU222
 722 01d2 1B04     		lsls	r3, r3, #16	@ tmp182, _31->FSMC_HoldSetupTime,
 723              	@ .\stlib\STM32F10x_StdPeriph_Driver\src\stm32f10x_fsmc.c:369:                      (FSMC_PCCARDIni
 369:.\stlib\STM32F10x_StdPeriph_Driver\src/stm32f10x_fsmc.c ****                      (FSMC_PCCARDInitStruct->FSMC_IOSpaceTimingStruct->FSMC_WaitSetupTime << 8) |
 724              		.loc 1 369 97 view .LVU223
 725 01d4 43EA0023 		orr	r3, r3, r0, lsl #8	@ tmp184, tmp182, _31->FSMC_WaitSetupTime,
 726 01d8 0868     		ldr	r0, [r1]	@ _31->FSMC_SetupTime, _31->FSMC_SetupTime
 727              	@ .\stlib\STM32F10x_StdPeriph_Driver\src\stm32f10x_fsmc.c:371:                      (FSMC_PCCARDIni
 371:.\stlib\STM32F10x_StdPeriph_Driver\src/stm32f10x_fsmc.c ****                      (FSMC_PCCARDInitStruct->FSMC_IOSpaceTimingStruct->FSMC_HiZSetupTime << 24);   
 728              		.loc 1 371 90 view .LVU224
 729 01da C968     		ldr	r1, [r1, #12]	@ _31->FSMC_HiZSetupTime, _31->FSMC_HiZSetupTime
 730              	@ .\stlib\STM32F10x_StdPeriph_Driver\src\stm32f10x_fsmc.c:369:                      (FSMC_PCCARDIni
 369:.\stlib\STM32F10x_StdPeriph_Driver\src/stm32f10x_fsmc.c ****                      (FSMC_PCCARDInitStruct->FSMC_IOSpaceTimingStruct->FSMC_WaitSetupTime << 8) |
 731              		.loc 1 369 97 view .LVU225
 732 01dc 0343     		orrs	r3, r3, r0	@, tmp185, tmp184, _31->FSMC_SetupTime
 733              	@ .\stlib\STM32F10x_StdPeriph_Driver\src\stm32f10x_fsmc.c:370:                      (FSMC_PCCARDIni
 370:.\stlib\STM32F10x_StdPeriph_Driver\src/stm32f10x_fsmc.c ****                      (FSMC_PCCARDInitStruct->FSMC_IOSpaceTimingStruct->FSMC_HiZSetupTime << 24);   
 734              		.loc 1 370 97 view .LVU226
 735 01de 43EA0163 		orr	r3, r3, r1, lsl #24	@ _41, tmp185, _31->FSMC_HiZSetupTime,
 736              	@ .\stlib\STM32F10x_StdPeriph_Driver\src\stm32f10x_fsmc.c:368:   FSMC_Bank4->PIO4 = (uint32_t)FSMC_
 368:.\stlib\STM32F10x_StdPeriph_Driver\src/stm32f10x_fsmc.c ****                      (FSMC_PCCARDInitStruct->FSMC_IOSpaceTimingStruct->FSMC_WaitSetupTime << 8) |
 737              		.loc 1 368 20 view .LVU227
 738 01e2 1361     		str	r3, [r2, #16]	@ _41, MEM[(struct FSMC_Bank4_TypeDef *)2684354720B].PIO4
 739              	@ .\stlib\STM32F10x_StdPeriph_Driver\src\stm32f10x_fsmc.c:372: }
 372:.\stlib\STM32F10x_StdPeriph_Driver\src/stm32f10x_fsmc.c **** }
 740              		.loc 1 372 1 view .LVU228
 741 01e4 10BD     		pop	{r4, pc}	@
 742              	.L26:
 743 01e6 00BF     		.align	2
 744              	.L25:
 745 01e8 A00000A0 		.word	-1610612576
 746              		.cfi_endproc
 747              	.LFE34:
 748              		.size	FSMC_PCCARDInit, .-FSMC_PCCARDInit
 749              		.align	1
 750              		.global	FSMC_NORSRAMStructInit
ARM GAS  C:\Users\skey\AppData\Local\Temp\ccFDdSGQ.s 			page 22


 751              		.syntax unified
 752              		.thumb
 753              		.thumb_func
 754              		.fpu softvfp
 755              		.type	FSMC_NORSRAMStructInit, %function
 756              	FSMC_NORSRAMStructInit:
 757              	.LVL11:
 758              	.LFB35:
 373:.\stlib\STM32F10x_StdPeriph_Driver\src/stm32f10x_fsmc.c **** 
 374:.\stlib\STM32F10x_StdPeriph_Driver\src/stm32f10x_fsmc.c **** /**
 375:.\stlib\STM32F10x_StdPeriph_Driver\src/stm32f10x_fsmc.c ****   * @brief  Fills each FSMC_NORSRAMInitStruct member with its default value.
 376:.\stlib\STM32F10x_StdPeriph_Driver\src/stm32f10x_fsmc.c ****   * @param  FSMC_NORSRAMInitStruct: pointer to a FSMC_NORSRAMInitTypeDef 
 377:.\stlib\STM32F10x_StdPeriph_Driver\src/stm32f10x_fsmc.c ****   *         structure which will be initialized.
 378:.\stlib\STM32F10x_StdPeriph_Driver\src/stm32f10x_fsmc.c ****   * @retval None
 379:.\stlib\STM32F10x_StdPeriph_Driver\src/stm32f10x_fsmc.c ****   */
 380:.\stlib\STM32F10x_StdPeriph_Driver\src/stm32f10x_fsmc.c **** void FSMC_NORSRAMStructInit(FSMC_NORSRAMInitTypeDef* FSMC_NORSRAMInitStruct)
 381:.\stlib\STM32F10x_StdPeriph_Driver\src/stm32f10x_fsmc.c **** {  
 759              		.loc 1 381 1 is_stmt 1 view -0
 760              		.cfi_startproc
 761              		@ args = 0, pretend = 0, frame = 0
 762              		@ frame_needed = 0, uses_anonymous_args = 0
 382:.\stlib\STM32F10x_StdPeriph_Driver\src/stm32f10x_fsmc.c ****   /* Reset NOR/SRAM Init structure parameters values */
 383:.\stlib\STM32F10x_StdPeriph_Driver\src/stm32f10x_fsmc.c ****   FSMC_NORSRAMInitStruct->FSMC_Bank = FSMC_Bank1_NORSRAM1;
 763              		.loc 1 383 3 view .LVU230
 764              	@ .\stlib\STM32F10x_StdPeriph_Driver\src\stm32f10x_fsmc.c:384:   FSMC_NORSRAMInitStruct->FSMC_DataA
 384:.\stlib\STM32F10x_StdPeriph_Driver\src/stm32f10x_fsmc.c ****   FSMC_NORSRAMInitStruct->FSMC_DataAddressMux = FSMC_DataAddressMux_Enable;
 765              		.loc 1 384 47 is_stmt 0 view .LVU231
 766 01ec 0023     		movs	r3, #0	@ tmp113,
 767 01ee 0222     		movs	r2, #2	@ tmp114,
 768              	@ .\stlib\STM32F10x_StdPeriph_Driver\src\stm32f10x_fsmc.c:393:   FSMC_NORSRAMInitStruct->FSMC_WaitS
 385:.\stlib\STM32F10x_StdPeriph_Driver\src/stm32f10x_fsmc.c ****   FSMC_NORSRAMInitStruct->FSMC_MemoryType = FSMC_MemoryType_SRAM;
 386:.\stlib\STM32F10x_StdPeriph_Driver\src/stm32f10x_fsmc.c ****   FSMC_NORSRAMInitStruct->FSMC_MemoryDataWidth = FSMC_MemoryDataWidth_8b;
 387:.\stlib\STM32F10x_StdPeriph_Driver\src/stm32f10x_fsmc.c ****   FSMC_NORSRAMInitStruct->FSMC_BurstAccessMode = FSMC_BurstAccessMode_Disable;
 388:.\stlib\STM32F10x_StdPeriph_Driver\src/stm32f10x_fsmc.c ****   FSMC_NORSRAMInitStruct->FSMC_AsynchronousWait = FSMC_AsynchronousWait_Disable;
 389:.\stlib\STM32F10x_StdPeriph_Driver\src/stm32f10x_fsmc.c ****   FSMC_NORSRAMInitStruct->FSMC_WaitSignalPolarity = FSMC_WaitSignalPolarity_Low;
 390:.\stlib\STM32F10x_StdPeriph_Driver\src/stm32f10x_fsmc.c ****   FSMC_NORSRAMInitStruct->FSMC_WrapMode = FSMC_WrapMode_Disable;
 391:.\stlib\STM32F10x_StdPeriph_Driver\src/stm32f10x_fsmc.c ****   FSMC_NORSRAMInitStruct->FSMC_WaitSignalActive = FSMC_WaitSignalActive_BeforeWaitState;
 392:.\stlib\STM32F10x_StdPeriph_Driver\src/stm32f10x_fsmc.c ****   FSMC_NORSRAMInitStruct->FSMC_WriteOperation = FSMC_WriteOperation_Enable;
 393:.\stlib\STM32F10x_StdPeriph_Driver\src/stm32f10x_fsmc.c ****   FSMC_NORSRAMInitStruct->FSMC_WaitSignal = FSMC_WaitSignal_Enable;
 769              		.loc 1 393 43 view .LVU232
 770 01f0 4FF48051 		mov	r1, #4096	@,
 771              	@ .\stlib\STM32F10x_StdPeriph_Driver\src\stm32f10x_fsmc.c:384:   FSMC_NORSRAMInitStruct->FSMC_DataA
 384:.\stlib\STM32F10x_StdPeriph_Driver\src/stm32f10x_fsmc.c ****   FSMC_NORSRAMInitStruct->FSMC_DataAddressMux = FSMC_DataAddressMux_Enable;
 772              		.loc 1 384 47 view .LVU233
 773 01f4 C0E90032 		strd	r3, r2, [r0]	@ tmp113, tmp114, FSMC_NORSRAMInitStruct
 385:.\stlib\STM32F10x_StdPeriph_Driver\src/stm32f10x_fsmc.c ****   FSMC_NORSRAMInitStruct->FSMC_MemoryType = FSMC_MemoryType_SRAM;
 774              		.loc 1 385 3 is_stmt 1 view .LVU234
 775              	@ .\stlib\STM32F10x_StdPeriph_Driver\src\stm32f10x_fsmc.c:393:   FSMC_NORSRAMInitStruct->FSMC_WaitS
 776              		.loc 1 393 43 is_stmt 0 view .LVU235
 777 01f8 4FF40052 		mov	r2, #8192	@ tmp123,
 778              	@ .\stlib\STM32F10x_StdPeriph_Driver\src\stm32f10x_fsmc.c:381: {  
 381:.\stlib\STM32F10x_StdPeriph_Driver\src/stm32f10x_fsmc.c ****   /* Reset NOR/SRAM Init structure parameters values */
 779              		.loc 1 381 1 view .LVU236
 780 01fc 10B5     		push	{r4, lr}	@
 781              	.LCFI3:
 782              		.cfi_def_cfa_offset 8
 783              		.cfi_offset 4, -8
ARM GAS  C:\Users\skey\AppData\Local\Temp\ccFDdSGQ.s 			page 23


 784              		.cfi_offset 14, -4
 785              	@ .\stlib\STM32F10x_StdPeriph_Driver\src\stm32f10x_fsmc.c:393:   FSMC_NORSRAMInitStruct->FSMC_WaitS
 786              		.loc 1 393 43 view .LVU237
 787 01fe C0E90912 		strd	r1, r2, [r0, #36]	@, tmp123, FSMC_NORSRAMInitStruct,
 788              	@ .\stlib\STM32F10x_StdPeriph_Driver\src\stm32f10x_fsmc.c:398:   FSMC_NORSRAMInitStruct->FSMC_ReadW
 394:.\stlib\STM32F10x_StdPeriph_Driver\src/stm32f10x_fsmc.c ****   FSMC_NORSRAMInitStruct->FSMC_ExtendedMode = FSMC_ExtendedMode_Disable;
 395:.\stlib\STM32F10x_StdPeriph_Driver\src/stm32f10x_fsmc.c ****   FSMC_NORSRAMInitStruct->FSMC_WriteBurst = FSMC_WriteBurst_Disable;
 396:.\stlib\STM32F10x_StdPeriph_Driver\src/stm32f10x_fsmc.c ****   FSMC_NORSRAMInitStruct->FSMC_ReadWriteTimingStruct->FSMC_AddressSetupTime = 0xF;
 397:.\stlib\STM32F10x_StdPeriph_Driver\src/stm32f10x_fsmc.c ****   FSMC_NORSRAMInitStruct->FSMC_ReadWriteTimingStruct->FSMC_AddressHoldTime = 0xF;
 398:.\stlib\STM32F10x_StdPeriph_Driver\src/stm32f10x_fsmc.c ****   FSMC_NORSRAMInitStruct->FSMC_ReadWriteTimingStruct->FSMC_DataSetupTime = 0xFF;
 789              		.loc 1 398 74 view .LVU238
 790 0202 FF24     		movs	r4, #255	@ tmp128,
 791              	@ .\stlib\STM32F10x_StdPeriph_Driver\src\stm32f10x_fsmc.c:396:   FSMC_NORSRAMInitStruct->FSMC_ReadW
 396:.\stlib\STM32F10x_StdPeriph_Driver\src/stm32f10x_fsmc.c ****   FSMC_NORSRAMInitStruct->FSMC_ReadWriteTimingStruct->FSMC_AddressHoldTime = 0xF;
 792              		.loc 1 396 77 view .LVU239
 793 0204 0F22     		movs	r2, #15	@ tmp126,
 794              	@ .\stlib\STM32F10x_StdPeriph_Driver\src\stm32f10x_fsmc.c:396:   FSMC_NORSRAMInitStruct->FSMC_ReadW
 396:.\stlib\STM32F10x_StdPeriph_Driver\src/stm32f10x_fsmc.c ****   FSMC_NORSRAMInitStruct->FSMC_ReadWriteTimingStruct->FSMC_AddressHoldTime = 0xF;
 795              		.loc 1 396 25 view .LVU240
 796 0206 416B     		ldr	r1, [r0, #52]	@ _1, FSMC_NORSRAMInitStruct_4(D)->FSMC_ReadWriteTimingStruct
 797              	@ .\stlib\STM32F10x_StdPeriph_Driver\src\stm32f10x_fsmc.c:386:   FSMC_NORSRAMInitStruct->FSMC_Memor
 386:.\stlib\STM32F10x_StdPeriph_Driver\src/stm32f10x_fsmc.c ****   FSMC_NORSRAMInitStruct->FSMC_BurstAccessMode = FSMC_BurstAccessMode_Disable;
 798              		.loc 1 386 48 view .LVU241
 799 0208 C0E90233 		strd	r3, r3, [r0, #8]	@ tmp113, tmp113, FSMC_NORSRAMInitStruct,
 387:.\stlib\STM32F10x_StdPeriph_Driver\src/stm32f10x_fsmc.c ****   FSMC_NORSRAMInitStruct->FSMC_AsynchronousWait = FSMC_AsynchronousWait_Disable;
 800              		.loc 1 387 3 is_stmt 1 view .LVU242
 801              	@ .\stlib\STM32F10x_StdPeriph_Driver\src\stm32f10x_fsmc.c:388:   FSMC_NORSRAMInitStruct->FSMC_Async
 388:.\stlib\STM32F10x_StdPeriph_Driver\src/stm32f10x_fsmc.c ****   FSMC_NORSRAMInitStruct->FSMC_WaitSignalPolarity = FSMC_WaitSignalPolarity_Low;
 802              		.loc 1 388 49 is_stmt 0 view .LVU243
 803 020c C0E90433 		strd	r3, r3, [r0, #16]	@ tmp113, tmp113, FSMC_NORSRAMInitStruct,
 389:.\stlib\STM32F10x_StdPeriph_Driver\src/stm32f10x_fsmc.c ****   FSMC_NORSRAMInitStruct->FSMC_WrapMode = FSMC_WrapMode_Disable;
 804              		.loc 1 389 3 is_stmt 1 view .LVU244
 805              	@ .\stlib\STM32F10x_StdPeriph_Driver\src\stm32f10x_fsmc.c:390:   FSMC_NORSRAMInitStruct->FSMC_WrapM
 390:.\stlib\STM32F10x_StdPeriph_Driver\src/stm32f10x_fsmc.c ****   FSMC_NORSRAMInitStruct->FSMC_WaitSignalActive = FSMC_WaitSignalActive_BeforeWaitState;
 806              		.loc 1 390 41 is_stmt 0 view .LVU245
 807 0210 C0E90633 		strd	r3, r3, [r0, #24]	@ tmp113, tmp113, FSMC_NORSRAMInitStruct,
 391:.\stlib\STM32F10x_StdPeriph_Driver\src/stm32f10x_fsmc.c ****   FSMC_NORSRAMInitStruct->FSMC_WriteOperation = FSMC_WriteOperation_Enable;
 808              		.loc 1 391 3 is_stmt 1 view .LVU246
 809              	@ .\stlib\STM32F10x_StdPeriph_Driver\src\stm32f10x_fsmc.c:395:   FSMC_NORSRAMInitStruct->FSMC_Write
 395:.\stlib\STM32F10x_StdPeriph_Driver\src/stm32f10x_fsmc.c ****   FSMC_NORSRAMInitStruct->FSMC_ReadWriteTimingStruct->FSMC_AddressSetupTime = 0xF;
 810              		.loc 1 395 43 is_stmt 0 view .LVU247
 811 0214 C0E90B33 		strd	r3, r3, [r0, #44]	@ tmp113, tmp113, FSMC_NORSRAMInitStruct,
 812              	@ .\stlib\STM32F10x_StdPeriph_Driver\src\stm32f10x_fsmc.c:391:   FSMC_NORSRAMInitStruct->FSMC_WaitS
 391:.\stlib\STM32F10x_StdPeriph_Driver\src/stm32f10x_fsmc.c ****   FSMC_NORSRAMInitStruct->FSMC_WriteOperation = FSMC_WriteOperation_Enable;
 813              		.loc 1 391 49 view .LVU248
 814 0218 0362     		str	r3, [r0, #32]	@ tmp113, FSMC_NORSRAMInitStruct_4(D)->FSMC_WaitSignalActive
 392:.\stlib\STM32F10x_StdPeriph_Driver\src/stm32f10x_fsmc.c ****   FSMC_NORSRAMInitStruct->FSMC_WaitSignal = FSMC_WaitSignal_Enable;
 815              		.loc 1 392 3 is_stmt 1 view .LVU249
 394:.\stlib\STM32F10x_StdPeriph_Driver\src/stm32f10x_fsmc.c ****   FSMC_NORSRAMInitStruct->FSMC_WriteBurst = FSMC_WriteBurst_Disable;
 816              		.loc 1 394 3 view .LVU250
 396:.\stlib\STM32F10x_StdPeriph_Driver\src/stm32f10x_fsmc.c ****   FSMC_NORSRAMInitStruct->FSMC_ReadWriteTimingStruct->FSMC_AddressHoldTime = 0xF;
 817              		.loc 1 396 3 view .LVU251
 818              	@ .\stlib\STM32F10x_StdPeriph_Driver\src\stm32f10x_fsmc.c:397:   FSMC_NORSRAMInitStruct->FSMC_ReadW
 397:.\stlib\STM32F10x_StdPeriph_Driver\src/stm32f10x_fsmc.c ****   FSMC_NORSRAMInitStruct->FSMC_ReadWriteTimingStruct->FSMC_DataSetupTime = 0xFF;
 819              		.loc 1 397 76 is_stmt 0 view .LVU252
 820 021a C1E90022 		strd	r2, r2, [r1]	@ tmp126, tmp126, _1
 821              		.loc 1 398 3 is_stmt 1 view .LVU253
ARM GAS  C:\Users\skey\AppData\Local\Temp\ccFDdSGQ.s 			page 24


 822              	@ .\stlib\STM32F10x_StdPeriph_Driver\src\stm32f10x_fsmc.c:399:   FSMC_NORSRAMInitStruct->FSMC_ReadW
 399:.\stlib\STM32F10x_StdPeriph_Driver\src/stm32f10x_fsmc.c ****   FSMC_NORSRAMInitStruct->FSMC_ReadWriteTimingStruct->FSMC_BusTurnAroundDuration = 0xF;
 823              		.loc 1 399 82 is_stmt 0 view .LVU254
 824 021e C1E90242 		strd	r4, r2, [r1, #8]	@ tmp128, tmp126, _1,
 400:.\stlib\STM32F10x_StdPeriph_Driver\src/stm32f10x_fsmc.c ****   FSMC_NORSRAMInitStruct->FSMC_ReadWriteTimingStruct->FSMC_CLKDivision = 0xF;
 825              		.loc 1 400 3 is_stmt 1 view .LVU255
 826              	@ .\stlib\STM32F10x_StdPeriph_Driver\src\stm32f10x_fsmc.c:401:   FSMC_NORSRAMInitStruct->FSMC_ReadW
 401:.\stlib\STM32F10x_StdPeriph_Driver\src/stm32f10x_fsmc.c ****   FSMC_NORSRAMInitStruct->FSMC_ReadWriteTimingStruct->FSMC_DataLatency = 0xF;
 827              		.loc 1 401 72 is_stmt 0 view .LVU256
 828 0222 C1E90422 		strd	r2, r2, [r1, #16]	@ tmp126, tmp126, _1,
 402:.\stlib\STM32F10x_StdPeriph_Driver\src/stm32f10x_fsmc.c ****   FSMC_NORSRAMInitStruct->FSMC_ReadWriteTimingStruct->FSMC_AccessMode = FSMC_AccessMode_A; 
 829              		.loc 1 402 3 is_stmt 1 view .LVU257
 830              	@ .\stlib\STM32F10x_StdPeriph_Driver\src\stm32f10x_fsmc.c:402:   FSMC_NORSRAMInitStruct->FSMC_ReadW
 831              		.loc 1 402 71 is_stmt 0 view .LVU258
 832 0226 8B61     		str	r3, [r1, #24]	@ tmp113, _1->FSMC_AccessMode
 403:.\stlib\STM32F10x_StdPeriph_Driver\src/stm32f10x_fsmc.c ****   FSMC_NORSRAMInitStruct->FSMC_WriteTimingStruct->FSMC_AddressSetupTime = 0xF;
 833              		.loc 1 403 3 is_stmt 1 view .LVU259
 834              	@ .\stlib\STM32F10x_StdPeriph_Driver\src\stm32f10x_fsmc.c:403:   FSMC_NORSRAMInitStruct->FSMC_Write
 835              		.loc 1 403 25 is_stmt 0 view .LVU260
 836 0228 816B     		ldr	r1, [r0, #56]	@ _2, FSMC_NORSRAMInitStruct_4(D)->FSMC_WriteTimingStruct
 837              	@ .\stlib\STM32F10x_StdPeriph_Driver\src\stm32f10x_fsmc.c:404:   FSMC_NORSRAMInitStruct->FSMC_Write
 404:.\stlib\STM32F10x_StdPeriph_Driver\src/stm32f10x_fsmc.c ****   FSMC_NORSRAMInitStruct->FSMC_WriteTimingStruct->FSMC_AddressHoldTime = 0xF;
 838              		.loc 1 404 72 view .LVU261
 839 022a C1E90022 		strd	r2, r2, [r1]	@ tmp126, tmp126, _2
 405:.\stlib\STM32F10x_StdPeriph_Driver\src/stm32f10x_fsmc.c ****   FSMC_NORSRAMInitStruct->FSMC_WriteTimingStruct->FSMC_DataSetupTime = 0xFF;
 840              		.loc 1 405 3 is_stmt 1 view .LVU262
 841              	@ .\stlib\STM32F10x_StdPeriph_Driver\src\stm32f10x_fsmc.c:406:   FSMC_NORSRAMInitStruct->FSMC_Write
 406:.\stlib\STM32F10x_StdPeriph_Driver\src/stm32f10x_fsmc.c ****   FSMC_NORSRAMInitStruct->FSMC_WriteTimingStruct->FSMC_BusTurnAroundDuration = 0xF;
 842              		.loc 1 406 78 is_stmt 0 view .LVU263
 843 022e C1E90242 		strd	r4, r2, [r1, #8]	@ tmp128, tmp126, _2,
 407:.\stlib\STM32F10x_StdPeriph_Driver\src/stm32f10x_fsmc.c ****   FSMC_NORSRAMInitStruct->FSMC_WriteTimingStruct->FSMC_CLKDivision = 0xF;
 844              		.loc 1 407 3 is_stmt 1 view .LVU264
 845              	@ .\stlib\STM32F10x_StdPeriph_Driver\src\stm32f10x_fsmc.c:408:   FSMC_NORSRAMInitStruct->FSMC_Write
 408:.\stlib\STM32F10x_StdPeriph_Driver\src/stm32f10x_fsmc.c ****   FSMC_NORSRAMInitStruct->FSMC_WriteTimingStruct->FSMC_DataLatency = 0xF;
 846              		.loc 1 408 68 is_stmt 0 view .LVU265
 847 0232 C1E90422 		strd	r2, r2, [r1, #16]	@ tmp126, tmp126, _2,
 409:.\stlib\STM32F10x_StdPeriph_Driver\src/stm32f10x_fsmc.c ****   FSMC_NORSRAMInitStruct->FSMC_WriteTimingStruct->FSMC_AccessMode = FSMC_AccessMode_A;
 848              		.loc 1 409 3 is_stmt 1 view .LVU266
 849              	@ .\stlib\STM32F10x_StdPeriph_Driver\src\stm32f10x_fsmc.c:409:   FSMC_NORSRAMInitStruct->FSMC_Write
 850              		.loc 1 409 67 is_stmt 0 view .LVU267
 851 0236 8B61     		str	r3, [r1, #24]	@ tmp113, _2->FSMC_AccessMode
 852              	@ .\stlib\STM32F10x_StdPeriph_Driver\src\stm32f10x_fsmc.c:410: }
 410:.\stlib\STM32F10x_StdPeriph_Driver\src/stm32f10x_fsmc.c **** }
 853              		.loc 1 410 1 view .LVU268
 854 0238 10BD     		pop	{r4, pc}	@
 855              		.cfi_endproc
 856              	.LFE35:
 857              		.size	FSMC_NORSRAMStructInit, .-FSMC_NORSRAMStructInit
 858              		.align	1
 859              		.global	FSMC_NANDStructInit
 860              		.syntax unified
 861              		.thumb
 862              		.thumb_func
 863              		.fpu softvfp
 864              		.type	FSMC_NANDStructInit, %function
 865              	FSMC_NANDStructInit:
 866              	.LVL12:
ARM GAS  C:\Users\skey\AppData\Local\Temp\ccFDdSGQ.s 			page 25


 867              	.LFB36:
 411:.\stlib\STM32F10x_StdPeriph_Driver\src/stm32f10x_fsmc.c **** 
 412:.\stlib\STM32F10x_StdPeriph_Driver\src/stm32f10x_fsmc.c **** /**
 413:.\stlib\STM32F10x_StdPeriph_Driver\src/stm32f10x_fsmc.c ****   * @brief  Fills each FSMC_NANDInitStruct member with its default value.
 414:.\stlib\STM32F10x_StdPeriph_Driver\src/stm32f10x_fsmc.c ****   * @param  FSMC_NANDInitStruct: pointer to a FSMC_NANDInitTypeDef 
 415:.\stlib\STM32F10x_StdPeriph_Driver\src/stm32f10x_fsmc.c ****   *         structure which will be initialized.
 416:.\stlib\STM32F10x_StdPeriph_Driver\src/stm32f10x_fsmc.c ****   * @retval None
 417:.\stlib\STM32F10x_StdPeriph_Driver\src/stm32f10x_fsmc.c ****   */
 418:.\stlib\STM32F10x_StdPeriph_Driver\src/stm32f10x_fsmc.c **** void FSMC_NANDStructInit(FSMC_NANDInitTypeDef* FSMC_NANDInitStruct)
 419:.\stlib\STM32F10x_StdPeriph_Driver\src/stm32f10x_fsmc.c **** { 
 868              		.loc 1 419 1 is_stmt 1 view -0
 869              		.cfi_startproc
 870              		@ args = 0, pretend = 0, frame = 0
 871              		@ frame_needed = 0, uses_anonymous_args = 0
 872              		@ link register save eliminated.
 420:.\stlib\STM32F10x_StdPeriph_Driver\src/stm32f10x_fsmc.c ****   /* Reset NAND Init structure parameters values */
 421:.\stlib\STM32F10x_StdPeriph_Driver\src/stm32f10x_fsmc.c ****   FSMC_NANDInitStruct->FSMC_Bank = FSMC_Bank2_NAND;
 873              		.loc 1 421 3 view .LVU270
 874              	@ .\stlib\STM32F10x_StdPeriph_Driver\src\stm32f10x_fsmc.c:422:   FSMC_NANDInitStruct->FSMC_Waitfeat
 422:.\stlib\STM32F10x_StdPeriph_Driver\src/stm32f10x_fsmc.c ****   FSMC_NANDInitStruct->FSMC_Waitfeature = FSMC_Waitfeature_Disable;
 875              		.loc 1 422 41 is_stmt 0 view .LVU271
 876 023a 0023     		movs	r3, #0	@ tmp114,
 877 023c 1022     		movs	r2, #16	@,
 878              	@ .\stlib\STM32F10x_StdPeriph_Driver\src\stm32f10x_fsmc.c:424:   FSMC_NANDInitStruct->FSMC_ECC = FS
 423:.\stlib\STM32F10x_StdPeriph_Driver\src/stm32f10x_fsmc.c ****   FSMC_NANDInitStruct->FSMC_MemoryDataWidth = FSMC_MemoryDataWidth_8b;
 424:.\stlib\STM32F10x_StdPeriph_Driver\src/stm32f10x_fsmc.c ****   FSMC_NANDInitStruct->FSMC_ECC = FSMC_ECC_Disable;
 879              		.loc 1 424 33 view .LVU272
 880 023e C0E90233 		strd	r3, r3, [r0, #8]	@ tmp114, tmp114, FSMC_NANDInitStruct,
 881              	@ .\stlib\STM32F10x_StdPeriph_Driver\src\stm32f10x_fsmc.c:422:   FSMC_NANDInitStruct->FSMC_Waitfeat
 422:.\stlib\STM32F10x_StdPeriph_Driver\src/stm32f10x_fsmc.c ****   FSMC_NANDInitStruct->FSMC_Waitfeature = FSMC_Waitfeature_Disable;
 882              		.loc 1 422 41 view .LVU273
 883 0242 C0E90023 		strd	r2, r3, [r0]	@, tmp114, FSMC_NANDInitStruct
 423:.\stlib\STM32F10x_StdPeriph_Driver\src/stm32f10x_fsmc.c ****   FSMC_NANDInitStruct->FSMC_MemoryDataWidth = FSMC_MemoryDataWidth_8b;
 884              		.loc 1 423 3 is_stmt 1 view .LVU274
 425:.\stlib\STM32F10x_StdPeriph_Driver\src/stm32f10x_fsmc.c ****   FSMC_NANDInitStruct->FSMC_ECCPageSize = FSMC_ECCPageSize_256Bytes;
 885              		.loc 1 425 3 view .LVU275
 886              	@ .\stlib\STM32F10x_StdPeriph_Driver\src\stm32f10x_fsmc.c:426:   FSMC_NANDInitStruct->FSMC_TCLRSetu
 426:.\stlib\STM32F10x_StdPeriph_Driver\src/stm32f10x_fsmc.c ****   FSMC_NANDInitStruct->FSMC_TCLRSetupTime = 0x0;
 887              		.loc 1 426 43 is_stmt 0 view .LVU276
 888 0246 C0E90433 		strd	r3, r3, [r0, #16]	@ tmp114, tmp114, FSMC_NANDInitStruct,
 427:.\stlib\STM32F10x_StdPeriph_Driver\src/stm32f10x_fsmc.c ****   FSMC_NANDInitStruct->FSMC_TARSetupTime = 0x0;
 889              		.loc 1 427 3 is_stmt 1 view .LVU277
 890              	@ .\stlib\STM32F10x_StdPeriph_Driver\src\stm32f10x_fsmc.c:427:   FSMC_NANDInitStruct->FSMC_TARSetup
 891              		.loc 1 427 42 is_stmt 0 view .LVU278
 892 024a 8361     		str	r3, [r0, #24]	@ tmp114, FSMC_NANDInitStruct_4(D)->FSMC_TARSetupTime
 428:.\stlib\STM32F10x_StdPeriph_Driver\src/stm32f10x_fsmc.c ****   FSMC_NANDInitStruct->FSMC_CommonSpaceTimingStruct->FSMC_SetupTime = 0xFC;
 893              		.loc 1 428 3 is_stmt 1 view .LVU279
 894              	@ .\stlib\STM32F10x_StdPeriph_Driver\src\stm32f10x_fsmc.c:428:   FSMC_NANDInitStruct->FSMC_CommonSp
 895              		.loc 1 428 69 is_stmt 0 view .LVU280
 896 024c FC23     		movs	r3, #252	@ tmp120,
 897              	@ .\stlib\STM32F10x_StdPeriph_Driver\src\stm32f10x_fsmc.c:428:   FSMC_NANDInitStruct->FSMC_CommonSp
 898              		.loc 1 428 22 view .LVU281
 899 024e C269     		ldr	r2, [r0, #28]	@ _1, FSMC_NANDInitStruct_4(D)->FSMC_CommonSpaceTimingStruct
 900              	@ .\stlib\STM32F10x_StdPeriph_Driver\src\stm32f10x_fsmc.c:429:   FSMC_NANDInitStruct->FSMC_CommonSp
 429:.\stlib\STM32F10x_StdPeriph_Driver\src/stm32f10x_fsmc.c ****   FSMC_NANDInitStruct->FSMC_CommonSpaceTimingStruct->FSMC_WaitSetupTime = 0xFC;
 901              		.loc 1 429 73 view .LVU282
 902 0250 C2E90033 		strd	r3, r3, [r2]	@ tmp120, tmp120, _1
ARM GAS  C:\Users\skey\AppData\Local\Temp\ccFDdSGQ.s 			page 26


 430:.\stlib\STM32F10x_StdPeriph_Driver\src/stm32f10x_fsmc.c ****   FSMC_NANDInitStruct->FSMC_CommonSpaceTimingStruct->FSMC_HoldSetupTime = 0xFC;
 903              		.loc 1 430 3 is_stmt 1 view .LVU283
 904              	@ .\stlib\STM32F10x_StdPeriph_Driver\src\stm32f10x_fsmc.c:431:   FSMC_NANDInitStruct->FSMC_CommonSp
 431:.\stlib\STM32F10x_StdPeriph_Driver\src/stm32f10x_fsmc.c ****   FSMC_NANDInitStruct->FSMC_CommonSpaceTimingStruct->FSMC_HiZSetupTime = 0xFC;
 905              		.loc 1 431 72 is_stmt 0 view .LVU284
 906 0254 C2E90233 		strd	r3, r3, [r2, #8]	@ tmp120, tmp120, _1,
 432:.\stlib\STM32F10x_StdPeriph_Driver\src/stm32f10x_fsmc.c ****   FSMC_NANDInitStruct->FSMC_AttributeSpaceTimingStruct->FSMC_SetupTime = 0xFC;
 907              		.loc 1 432 3 is_stmt 1 view .LVU285
 908              	@ .\stlib\STM32F10x_StdPeriph_Driver\src\stm32f10x_fsmc.c:432:   FSMC_NANDInitStruct->FSMC_Attribut
 909              		.loc 1 432 22 is_stmt 0 view .LVU286
 910 0258 026A     		ldr	r2, [r0, #32]	@ _2, FSMC_NANDInitStruct_4(D)->FSMC_AttributeSpaceTimingStruct
 911              	@ .\stlib\STM32F10x_StdPeriph_Driver\src\stm32f10x_fsmc.c:433:   FSMC_NANDInitStruct->FSMC_Attribut
 433:.\stlib\STM32F10x_StdPeriph_Driver\src/stm32f10x_fsmc.c ****   FSMC_NANDInitStruct->FSMC_AttributeSpaceTimingStruct->FSMC_WaitSetupTime = 0xFC;
 912              		.loc 1 433 76 view .LVU287
 913 025a C2E90033 		strd	r3, r3, [r2]	@ tmp120, tmp120, _2
 434:.\stlib\STM32F10x_StdPeriph_Driver\src/stm32f10x_fsmc.c ****   FSMC_NANDInitStruct->FSMC_AttributeSpaceTimingStruct->FSMC_HoldSetupTime = 0xFC;
 914              		.loc 1 434 3 is_stmt 1 view .LVU288
 915              	@ .\stlib\STM32F10x_StdPeriph_Driver\src\stm32f10x_fsmc.c:435:   FSMC_NANDInitStruct->FSMC_Attribut
 435:.\stlib\STM32F10x_StdPeriph_Driver\src/stm32f10x_fsmc.c ****   FSMC_NANDInitStruct->FSMC_AttributeSpaceTimingStruct->FSMC_HiZSetupTime = 0xFC;	  
 916              		.loc 1 435 75 is_stmt 0 view .LVU289
 917 025e C2E90233 		strd	r3, r3, [r2, #8]	@ tmp120, tmp120, _2,
 918              	@ .\stlib\STM32F10x_StdPeriph_Driver\src\stm32f10x_fsmc.c:436: }
 436:.\stlib\STM32F10x_StdPeriph_Driver\src/stm32f10x_fsmc.c **** }
 919              		.loc 1 436 1 view .LVU290
 920 0262 7047     		bx	lr	@
 921              		.cfi_endproc
 922              	.LFE36:
 923              		.size	FSMC_NANDStructInit, .-FSMC_NANDStructInit
 924              		.align	1
 925              		.global	FSMC_PCCARDStructInit
 926              		.syntax unified
 927              		.thumb
 928              		.thumb_func
 929              		.fpu softvfp
 930              		.type	FSMC_PCCARDStructInit, %function
 931              	FSMC_PCCARDStructInit:
 932              	.LVL13:
 933              	.LFB37:
 437:.\stlib\STM32F10x_StdPeriph_Driver\src/stm32f10x_fsmc.c **** 
 438:.\stlib\STM32F10x_StdPeriph_Driver\src/stm32f10x_fsmc.c **** /**
 439:.\stlib\STM32F10x_StdPeriph_Driver\src/stm32f10x_fsmc.c ****   * @brief  Fills each FSMC_PCCARDInitStruct member with its default value.
 440:.\stlib\STM32F10x_StdPeriph_Driver\src/stm32f10x_fsmc.c ****   * @param  FSMC_PCCARDInitStruct: pointer to a FSMC_PCCARDInitTypeDef 
 441:.\stlib\STM32F10x_StdPeriph_Driver\src/stm32f10x_fsmc.c ****   *         structure which will be initialized.
 442:.\stlib\STM32F10x_StdPeriph_Driver\src/stm32f10x_fsmc.c ****   * @retval None
 443:.\stlib\STM32F10x_StdPeriph_Driver\src/stm32f10x_fsmc.c ****   */
 444:.\stlib\STM32F10x_StdPeriph_Driver\src/stm32f10x_fsmc.c **** void FSMC_PCCARDStructInit(FSMC_PCCARDInitTypeDef* FSMC_PCCARDInitStruct)
 445:.\stlib\STM32F10x_StdPeriph_Driver\src/stm32f10x_fsmc.c **** {
 934              		.loc 1 445 1 is_stmt 1 view -0
 935              		.cfi_startproc
 936              		@ args = 0, pretend = 0, frame = 0
 937              		@ frame_needed = 0, uses_anonymous_args = 0
 938              		@ link register save eliminated.
 446:.\stlib\STM32F10x_StdPeriph_Driver\src/stm32f10x_fsmc.c ****   /* Reset PCCARD Init structure parameters values */
 447:.\stlib\STM32F10x_StdPeriph_Driver\src/stm32f10x_fsmc.c ****   FSMC_PCCARDInitStruct->FSMC_Waitfeature = FSMC_Waitfeature_Disable;
 939              		.loc 1 447 3 view .LVU292
 940              	@ .\stlib\STM32F10x_StdPeriph_Driver\src\stm32f10x_fsmc.c:447:   FSMC_PCCARDInitStruct->FSMC_Waitfe
 941              		.loc 1 447 43 is_stmt 0 view .LVU293
ARM GAS  C:\Users\skey\AppData\Local\Temp\ccFDdSGQ.s 			page 27


 942 0264 0023     		movs	r3, #0	@ tmp114,
 943              	@ .\stlib\STM32F10x_StdPeriph_Driver\src\stm32f10x_fsmc.c:448:   FSMC_PCCARDInitStruct->FSMC_TCLRSe
 448:.\stlib\STM32F10x_StdPeriph_Driver\src/stm32f10x_fsmc.c ****   FSMC_PCCARDInitStruct->FSMC_TCLRSetupTime = 0x0;
 944              		.loc 1 448 45 view .LVU294
 945 0266 C0E90033 		strd	r3, r3, [r0]	@ tmp114, tmp114, FSMC_PCCARDInitStruct
 449:.\stlib\STM32F10x_StdPeriph_Driver\src/stm32f10x_fsmc.c ****   FSMC_PCCARDInitStruct->FSMC_TARSetupTime = 0x0;
 946              		.loc 1 449 3 is_stmt 1 view .LVU295
 947              	@ .\stlib\STM32F10x_StdPeriph_Driver\src\stm32f10x_fsmc.c:449:   FSMC_PCCARDInitStruct->FSMC_TARSet
 948              		.loc 1 449 44 is_stmt 0 view .LVU296
 949 026a 8360     		str	r3, [r0, #8]	@ tmp114, FSMC_PCCARDInitStruct_5(D)->FSMC_TARSetupTime
 450:.\stlib\STM32F10x_StdPeriph_Driver\src/stm32f10x_fsmc.c ****   FSMC_PCCARDInitStruct->FSMC_CommonSpaceTimingStruct->FSMC_SetupTime = 0xFC;
 950              		.loc 1 450 3 is_stmt 1 view .LVU297
 951              	@ .\stlib\STM32F10x_StdPeriph_Driver\src\stm32f10x_fsmc.c:450:   FSMC_PCCARDInitStruct->FSMC_Common
 952              		.loc 1 450 71 is_stmt 0 view .LVU298
 953 026c FC23     		movs	r3, #252	@ tmp117,
 954              	@ .\stlib\STM32F10x_StdPeriph_Driver\src\stm32f10x_fsmc.c:450:   FSMC_PCCARDInitStruct->FSMC_Common
 955              		.loc 1 450 24 view .LVU299
 956 026e C268     		ldr	r2, [r0, #12]	@ _1, FSMC_PCCARDInitStruct_5(D)->FSMC_CommonSpaceTimingStruct
 957              	@ .\stlib\STM32F10x_StdPeriph_Driver\src\stm32f10x_fsmc.c:451:   FSMC_PCCARDInitStruct->FSMC_Common
 451:.\stlib\STM32F10x_StdPeriph_Driver\src/stm32f10x_fsmc.c ****   FSMC_PCCARDInitStruct->FSMC_CommonSpaceTimingStruct->FSMC_WaitSetupTime = 0xFC;
 958              		.loc 1 451 75 view .LVU300
 959 0270 C2E90033 		strd	r3, r3, [r2]	@ tmp117, tmp117, _1
 452:.\stlib\STM32F10x_StdPeriph_Driver\src/stm32f10x_fsmc.c ****   FSMC_PCCARDInitStruct->FSMC_CommonSpaceTimingStruct->FSMC_HoldSetupTime = 0xFC;
 960              		.loc 1 452 3 is_stmt 1 view .LVU301
 961              	@ .\stlib\STM32F10x_StdPeriph_Driver\src\stm32f10x_fsmc.c:453:   FSMC_PCCARDInitStruct->FSMC_Common
 453:.\stlib\STM32F10x_StdPeriph_Driver\src/stm32f10x_fsmc.c ****   FSMC_PCCARDInitStruct->FSMC_CommonSpaceTimingStruct->FSMC_HiZSetupTime = 0xFC;
 962              		.loc 1 453 74 is_stmt 0 view .LVU302
 963 0274 C2E90233 		strd	r3, r3, [r2, #8]	@ tmp117, tmp117, _1,
 454:.\stlib\STM32F10x_StdPeriph_Driver\src/stm32f10x_fsmc.c ****   FSMC_PCCARDInitStruct->FSMC_AttributeSpaceTimingStruct->FSMC_SetupTime = 0xFC;
 964              		.loc 1 454 3 is_stmt 1 view .LVU303
 965              	@ .\stlib\STM32F10x_StdPeriph_Driver\src\stm32f10x_fsmc.c:454:   FSMC_PCCARDInitStruct->FSMC_Attrib
 966              		.loc 1 454 24 is_stmt 0 view .LVU304
 967 0278 0269     		ldr	r2, [r0, #16]	@ _2, FSMC_PCCARDInitStruct_5(D)->FSMC_AttributeSpaceTimingStruct
 968              	@ .\stlib\STM32F10x_StdPeriph_Driver\src\stm32f10x_fsmc.c:455:   FSMC_PCCARDInitStruct->FSMC_Attrib
 455:.\stlib\STM32F10x_StdPeriph_Driver\src/stm32f10x_fsmc.c ****   FSMC_PCCARDInitStruct->FSMC_AttributeSpaceTimingStruct->FSMC_WaitSetupTime = 0xFC;
 969              		.loc 1 455 78 view .LVU305
 970 027a C2E90033 		strd	r3, r3, [r2]	@ tmp117, tmp117, _2
 456:.\stlib\STM32F10x_StdPeriph_Driver\src/stm32f10x_fsmc.c ****   FSMC_PCCARDInitStruct->FSMC_AttributeSpaceTimingStruct->FSMC_HoldSetupTime = 0xFC;
 971              		.loc 1 456 3 is_stmt 1 view .LVU306
 972              	@ .\stlib\STM32F10x_StdPeriph_Driver\src\stm32f10x_fsmc.c:457:   FSMC_PCCARDInitStruct->FSMC_Attrib
 457:.\stlib\STM32F10x_StdPeriph_Driver\src/stm32f10x_fsmc.c ****   FSMC_PCCARDInitStruct->FSMC_AttributeSpaceTimingStruct->FSMC_HiZSetupTime = 0xFC;	
 973              		.loc 1 457 77 is_stmt 0 view .LVU307
 974 027e C2E90233 		strd	r3, r3, [r2, #8]	@ tmp117, tmp117, _2,
 458:.\stlib\STM32F10x_StdPeriph_Driver\src/stm32f10x_fsmc.c ****   FSMC_PCCARDInitStruct->FSMC_IOSpaceTimingStruct->FSMC_SetupTime = 0xFC;
 975              		.loc 1 458 3 is_stmt 1 view .LVU308
 976              	@ .\stlib\STM32F10x_StdPeriph_Driver\src\stm32f10x_fsmc.c:458:   FSMC_PCCARDInitStruct->FSMC_IOSpac
 977              		.loc 1 458 24 is_stmt 0 view .LVU309
 978 0282 4269     		ldr	r2, [r0, #20]	@ _3, FSMC_PCCARDInitStruct_5(D)->FSMC_IOSpaceTimingStruct
 979              	@ .\stlib\STM32F10x_StdPeriph_Driver\src\stm32f10x_fsmc.c:459:   FSMC_PCCARDInitStruct->FSMC_IOSpac
 459:.\stlib\STM32F10x_StdPeriph_Driver\src/stm32f10x_fsmc.c ****   FSMC_PCCARDInitStruct->FSMC_IOSpaceTimingStruct->FSMC_WaitSetupTime = 0xFC;
 980              		.loc 1 459 71 view .LVU310
 981 0284 C2E90033 		strd	r3, r3, [r2]	@ tmp117, tmp117, _3
 460:.\stlib\STM32F10x_StdPeriph_Driver\src/stm32f10x_fsmc.c ****   FSMC_PCCARDInitStruct->FSMC_IOSpaceTimingStruct->FSMC_HoldSetupTime = 0xFC;
 982              		.loc 1 460 3 is_stmt 1 view .LVU311
 983              	@ .\stlib\STM32F10x_StdPeriph_Driver\src\stm32f10x_fsmc.c:461:   FSMC_PCCARDInitStruct->FSMC_IOSpac
 461:.\stlib\STM32F10x_StdPeriph_Driver\src/stm32f10x_fsmc.c ****   FSMC_PCCARDInitStruct->FSMC_IOSpaceTimingStruct->FSMC_HiZSetupTime = 0xFC;
 984              		.loc 1 461 70 is_stmt 0 view .LVU312
ARM GAS  C:\Users\skey\AppData\Local\Temp\ccFDdSGQ.s 			page 28


 985 0288 C2E90233 		strd	r3, r3, [r2, #8]	@ tmp117, tmp117, _3,
 986              	@ .\stlib\STM32F10x_StdPeriph_Driver\src\stm32f10x_fsmc.c:462: }
 462:.\stlib\STM32F10x_StdPeriph_Driver\src/stm32f10x_fsmc.c **** }
 987              		.loc 1 462 1 view .LVU313
 988 028c 7047     		bx	lr	@
 989              		.cfi_endproc
 990              	.LFE37:
 991              		.size	FSMC_PCCARDStructInit, .-FSMC_PCCARDStructInit
 992              		.align	1
 993              		.global	FSMC_NORSRAMCmd
 994              		.syntax unified
 995              		.thumb
 996              		.thumb_func
 997              		.fpu softvfp
 998              		.type	FSMC_NORSRAMCmd, %function
 999              	FSMC_NORSRAMCmd:
 1000              	.LVL14:
 1001              	.LFB38:
 463:.\stlib\STM32F10x_StdPeriph_Driver\src/stm32f10x_fsmc.c **** 
 464:.\stlib\STM32F10x_StdPeriph_Driver\src/stm32f10x_fsmc.c **** /**
 465:.\stlib\STM32F10x_StdPeriph_Driver\src/stm32f10x_fsmc.c ****   * @brief  Enables or disables the specified NOR/SRAM Memory Bank.
 466:.\stlib\STM32F10x_StdPeriph_Driver\src/stm32f10x_fsmc.c ****   * @param  FSMC_Bank: specifies the FSMC Bank to be used
 467:.\stlib\STM32F10x_StdPeriph_Driver\src/stm32f10x_fsmc.c ****   *   This parameter can be one of the following values:
 468:.\stlib\STM32F10x_StdPeriph_Driver\src/stm32f10x_fsmc.c ****   *     @arg FSMC_Bank1_NORSRAM1: FSMC Bank1 NOR/SRAM1  
 469:.\stlib\STM32F10x_StdPeriph_Driver\src/stm32f10x_fsmc.c ****   *     @arg FSMC_Bank1_NORSRAM2: FSMC Bank1 NOR/SRAM2 
 470:.\stlib\STM32F10x_StdPeriph_Driver\src/stm32f10x_fsmc.c ****   *     @arg FSMC_Bank1_NORSRAM3: FSMC Bank1 NOR/SRAM3 
 471:.\stlib\STM32F10x_StdPeriph_Driver\src/stm32f10x_fsmc.c ****   *     @arg FSMC_Bank1_NORSRAM4: FSMC Bank1 NOR/SRAM4 
 472:.\stlib\STM32F10x_StdPeriph_Driver\src/stm32f10x_fsmc.c ****   * @param  NewState: new state of the FSMC_Bank. This parameter can be: ENABLE or DISABLE.
 473:.\stlib\STM32F10x_StdPeriph_Driver\src/stm32f10x_fsmc.c ****   * @retval None
 474:.\stlib\STM32F10x_StdPeriph_Driver\src/stm32f10x_fsmc.c ****   */
 475:.\stlib\STM32F10x_StdPeriph_Driver\src/stm32f10x_fsmc.c **** void FSMC_NORSRAMCmd(uint32_t FSMC_Bank, FunctionalState NewState)
 476:.\stlib\STM32F10x_StdPeriph_Driver\src/stm32f10x_fsmc.c **** {
 1002              		.loc 1 476 1 is_stmt 1 view -0
 1003              		.cfi_startproc
 1004              		@ args = 0, pretend = 0, frame = 0
 1005              		@ frame_needed = 0, uses_anonymous_args = 0
 1006              		@ link register save eliminated.
 477:.\stlib\STM32F10x_StdPeriph_Driver\src/stm32f10x_fsmc.c ****   assert_param(IS_FSMC_NORSRAM_BANK(FSMC_Bank));
 1007              		.loc 1 477 3 view .LVU315
 478:.\stlib\STM32F10x_StdPeriph_Driver\src/stm32f10x_fsmc.c ****   assert_param(IS_FUNCTIONAL_STATE(NewState));
 1008              		.loc 1 478 3 view .LVU316
 479:.\stlib\STM32F10x_StdPeriph_Driver\src/stm32f10x_fsmc.c ****   
 480:.\stlib\STM32F10x_StdPeriph_Driver\src/stm32f10x_fsmc.c ****   if (NewState != DISABLE)
 1009              		.loc 1 480 3 view .LVU317
 1010 028e 8000     		lsls	r0, r0, #2	@ tmp123, tmp124,
 1011              	.LVL15:
 1012              		.loc 1 480 3 is_stmt 0 view .LVU318
 1013 0290 00F12040 		add	r0, r0, #-1610612736	@ _16, tmp123,
 1014              	@ .\stlib\STM32F10x_StdPeriph_Driver\src\stm32f10x_fsmc.c:480:   if (NewState != DISABLE)
 1015              		.loc 1 480 6 view .LVU319
 1016 0294 21B1     		cbz	r1, .L31	@ tmp125,
 481:.\stlib\STM32F10x_StdPeriph_Driver\src/stm32f10x_fsmc.c ****   {
 482:.\stlib\STM32F10x_StdPeriph_Driver\src/stm32f10x_fsmc.c ****     /* Enable the selected NOR/SRAM Bank by setting the PBKEN bit in the BCRx register */
 483:.\stlib\STM32F10x_StdPeriph_Driver\src/stm32f10x_fsmc.c ****     FSMC_Bank1->BTCR[FSMC_Bank] |= BCR_MBKEN_Set;
 1017              		.loc 1 483 5 is_stmt 1 view .LVU320
 1018              	@ .\stlib\STM32F10x_StdPeriph_Driver\src\stm32f10x_fsmc.c:483:     FSMC_Bank1->BTCR[FSMC_Bank] |= B
 1019              		.loc 1 483 33 is_stmt 0 view .LVU321
ARM GAS  C:\Users\skey\AppData\Local\Temp\ccFDdSGQ.s 			page 29


 1020 0296 0368     		ldr	r3, [r0]	@ _1, MEM[(struct FSMC_Bank1_TypeDef *)_16]
 1021 0298 43F00103 		orr	r3, r3, #1	@ _2, _1,
 1022              	.L33:
 1023              	@ .\stlib\STM32F10x_StdPeriph_Driver\src\stm32f10x_fsmc.c:488:     FSMC_Bank1->BTCR[FSMC_Bank] &= B
 484:.\stlib\STM32F10x_StdPeriph_Driver\src/stm32f10x_fsmc.c ****   }
 485:.\stlib\STM32F10x_StdPeriph_Driver\src/stm32f10x_fsmc.c ****   else
 486:.\stlib\STM32F10x_StdPeriph_Driver\src/stm32f10x_fsmc.c ****   {
 487:.\stlib\STM32F10x_StdPeriph_Driver\src/stm32f10x_fsmc.c ****     /* Disable the selected NOR/SRAM Bank by clearing the PBKEN bit in the BCRx register */
 488:.\stlib\STM32F10x_StdPeriph_Driver\src/stm32f10x_fsmc.c ****     FSMC_Bank1->BTCR[FSMC_Bank] &= BCR_MBKEN_Reset;
 1024              		.loc 1 488 33 view .LVU322
 1025 029c 0360     		str	r3, [r0]	@ _4,* _12
 1026              	@ .\stlib\STM32F10x_StdPeriph_Driver\src\stm32f10x_fsmc.c:490: }
 489:.\stlib\STM32F10x_StdPeriph_Driver\src/stm32f10x_fsmc.c ****   }
 490:.\stlib\STM32F10x_StdPeriph_Driver\src/stm32f10x_fsmc.c **** }
 1027              		.loc 1 490 1 view .LVU323
 1028 029e 7047     		bx	lr	@
 1029              	.L31:
 488:.\stlib\STM32F10x_StdPeriph_Driver\src/stm32f10x_fsmc.c ****   }
 1030              		.loc 1 488 5 is_stmt 1 view .LVU324
 1031              	@ .\stlib\STM32F10x_StdPeriph_Driver\src\stm32f10x_fsmc.c:488:     FSMC_Bank1->BTCR[FSMC_Bank] &= B
 488:.\stlib\STM32F10x_StdPeriph_Driver\src/stm32f10x_fsmc.c ****   }
 1032              		.loc 1 488 33 is_stmt 0 view .LVU325
 1033 02a0 0268     		ldr	r2, [r0]	@ _3, MEM[(struct FSMC_Bank1_TypeDef *)_12]
 1034 02a2 014B     		ldr	r3, .L34	@ _4,
 1035 02a4 1340     		ands	r3, r3, r2	@, _4, _4, _3
 1036 02a6 F9E7     		b	.L33		@
 1037              	.L35:
 1038              		.align	2
 1039              	.L34:
 1040 02a8 FEFF0F00 		.word	1048574
 1041              		.cfi_endproc
 1042              	.LFE38:
 1043              		.size	FSMC_NORSRAMCmd, .-FSMC_NORSRAMCmd
 1044              		.align	1
 1045              		.global	FSMC_NANDCmd
 1046              		.syntax unified
 1047              		.thumb
 1048              		.thumb_func
 1049              		.fpu softvfp
 1050              		.type	FSMC_NANDCmd, %function
 1051              	FSMC_NANDCmd:
 1052              	.LVL16:
 1053              	.LFB39:
 491:.\stlib\STM32F10x_StdPeriph_Driver\src/stm32f10x_fsmc.c **** 
 492:.\stlib\STM32F10x_StdPeriph_Driver\src/stm32f10x_fsmc.c **** /**
 493:.\stlib\STM32F10x_StdPeriph_Driver\src/stm32f10x_fsmc.c ****   * @brief  Enables or disables the specified NAND Memory Bank.
 494:.\stlib\STM32F10x_StdPeriph_Driver\src/stm32f10x_fsmc.c ****   * @param  FSMC_Bank: specifies the FSMC Bank to be used
 495:.\stlib\STM32F10x_StdPeriph_Driver\src/stm32f10x_fsmc.c ****   *   This parameter can be one of the following values:
 496:.\stlib\STM32F10x_StdPeriph_Driver\src/stm32f10x_fsmc.c ****   *     @arg FSMC_Bank2_NAND: FSMC Bank2 NAND 
 497:.\stlib\STM32F10x_StdPeriph_Driver\src/stm32f10x_fsmc.c ****   *     @arg FSMC_Bank3_NAND: FSMC Bank3 NAND
 498:.\stlib\STM32F10x_StdPeriph_Driver\src/stm32f10x_fsmc.c ****   * @param  NewState: new state of the FSMC_Bank. This parameter can be: ENABLE or DISABLE.
 499:.\stlib\STM32F10x_StdPeriph_Driver\src/stm32f10x_fsmc.c ****   * @retval None
 500:.\stlib\STM32F10x_StdPeriph_Driver\src/stm32f10x_fsmc.c ****   */
 501:.\stlib\STM32F10x_StdPeriph_Driver\src/stm32f10x_fsmc.c **** void FSMC_NANDCmd(uint32_t FSMC_Bank, FunctionalState NewState)
 502:.\stlib\STM32F10x_StdPeriph_Driver\src/stm32f10x_fsmc.c **** {
 1054              		.loc 1 502 1 is_stmt 1 view -0
 1055              		.cfi_startproc
ARM GAS  C:\Users\skey\AppData\Local\Temp\ccFDdSGQ.s 			page 30


 1056              		@ args = 0, pretend = 0, frame = 0
 1057              		@ frame_needed = 0, uses_anonymous_args = 0
 1058              		@ link register save eliminated.
 503:.\stlib\STM32F10x_StdPeriph_Driver\src/stm32f10x_fsmc.c ****   assert_param(IS_FSMC_NAND_BANK(FSMC_Bank));
 1059              		.loc 1 503 3 view .LVU327
 504:.\stlib\STM32F10x_StdPeriph_Driver\src/stm32f10x_fsmc.c ****   assert_param(IS_FUNCTIONAL_STATE(NewState));
 1060              		.loc 1 504 3 view .LVU328
 505:.\stlib\STM32F10x_StdPeriph_Driver\src/stm32f10x_fsmc.c ****   
 506:.\stlib\STM32F10x_StdPeriph_Driver\src/stm32f10x_fsmc.c ****   if (NewState != DISABLE)
 1061              		.loc 1 506 3 view .LVU329
 1062              	@ .\stlib\STM32F10x_StdPeriph_Driver\src\stm32f10x_fsmc.c:506:   if (NewState != DISABLE)
 1063              		.loc 1 506 6 is_stmt 0 view .LVU330
 1064 02ac 41B1     		cbz	r1, .L37	@ tmp132,
 507:.\stlib\STM32F10x_StdPeriph_Driver\src/stm32f10x_fsmc.c ****   {
 508:.\stlib\STM32F10x_StdPeriph_Driver\src/stm32f10x_fsmc.c ****     /* Enable the selected NAND Bank by setting the PBKEN bit in the PCRx register */
 509:.\stlib\STM32F10x_StdPeriph_Driver\src/stm32f10x_fsmc.c ****     if(FSMC_Bank == FSMC_Bank2_NAND)
 1065              		.loc 1 509 5 is_stmt 1 view .LVU331
 1066              	@ .\stlib\STM32F10x_StdPeriph_Driver\src\stm32f10x_fsmc.c:509:     if(FSMC_Bank == FSMC_Bank2_NAND)
 1067              		.loc 1 509 7 is_stmt 0 view .LVU332
 1068 02ae 1028     		cmp	r0, #16	@ FSMC_Bank,
 510:.\stlib\STM32F10x_StdPeriph_Driver\src/stm32f10x_fsmc.c ****     {
 511:.\stlib\STM32F10x_StdPeriph_Driver\src/stm32f10x_fsmc.c ****       FSMC_Bank2->PCR2 |= PCR_PBKEN_Set;
 1069              		.loc 1 511 7 is_stmt 1 view .LVU333
 1070              	@ .\stlib\STM32F10x_StdPeriph_Driver\src\stm32f10x_fsmc.c:511:       FSMC_Bank2->PCR2 |= PCR_PBKEN_
 1071              		.loc 1 511 24 is_stmt 0 view .LVU334
 1072 02b0 0CBF     		ite	eq
 1073 02b2 074A     		ldreq	r2, .L44	@ tmp120,
 512:.\stlib\STM32F10x_StdPeriph_Driver\src/stm32f10x_fsmc.c ****     }
 513:.\stlib\STM32F10x_StdPeriph_Driver\src/stm32f10x_fsmc.c ****     else
 514:.\stlib\STM32F10x_StdPeriph_Driver\src/stm32f10x_fsmc.c ****     {
 515:.\stlib\STM32F10x_StdPeriph_Driver\src/stm32f10x_fsmc.c ****       FSMC_Bank3->PCR3 |= PCR_PBKEN_Set;
 1074              		.loc 1 515 7 is_stmt 1 view .LVU335
 1075              	@ .\stlib\STM32F10x_StdPeriph_Driver\src\stm32f10x_fsmc.c:515:       FSMC_Bank3->PCR3 |= PCR_PBKEN_
 1076              		.loc 1 515 24 is_stmt 0 view .LVU336
 1077 02b4 074A     		ldrne	r2, .L44+4	@ tmp122,
 1078 02b6 1368     		ldr	r3, [r2]	@ _3,
 1079 02b8 43F00403 		orr	r3, r3, #4	@ _4, _3,
 1080              	.LVL17:
 1081              	.L41:
 1082              	@ .\stlib\STM32F10x_StdPeriph_Driver\src\stm32f10x_fsmc.c:527:       FSMC_Bank3->PCR3 &= PCR_PBKEN_
 516:.\stlib\STM32F10x_StdPeriph_Driver\src/stm32f10x_fsmc.c ****     }
 517:.\stlib\STM32F10x_StdPeriph_Driver\src/stm32f10x_fsmc.c ****   }
 518:.\stlib\STM32F10x_StdPeriph_Driver\src/stm32f10x_fsmc.c ****   else
 519:.\stlib\STM32F10x_StdPeriph_Driver\src/stm32f10x_fsmc.c ****   {
 520:.\stlib\STM32F10x_StdPeriph_Driver\src/stm32f10x_fsmc.c ****     /* Disable the selected NAND Bank by clearing the PBKEN bit in the PCRx register */
 521:.\stlib\STM32F10x_StdPeriph_Driver\src/stm32f10x_fsmc.c ****     if(FSMC_Bank == FSMC_Bank2_NAND)
 522:.\stlib\STM32F10x_StdPeriph_Driver\src/stm32f10x_fsmc.c ****     {
 523:.\stlib\STM32F10x_StdPeriph_Driver\src/stm32f10x_fsmc.c ****       FSMC_Bank2->PCR2 &= PCR_PBKEN_Reset;
 524:.\stlib\STM32F10x_StdPeriph_Driver\src/stm32f10x_fsmc.c ****     }
 525:.\stlib\STM32F10x_StdPeriph_Driver\src/stm32f10x_fsmc.c ****     else
 526:.\stlib\STM32F10x_StdPeriph_Driver\src/stm32f10x_fsmc.c ****     {
 527:.\stlib\STM32F10x_StdPeriph_Driver\src/stm32f10x_fsmc.c ****       FSMC_Bank3->PCR3 &= PCR_PBKEN_Reset;
 1083              		.loc 1 527 24 view .LVU337
 1084 02bc 1360     		str	r3, [r2]	@ _8,
 1085              	@ .\stlib\STM32F10x_StdPeriph_Driver\src\stm32f10x_fsmc.c:530: }
 528:.\stlib\STM32F10x_StdPeriph_Driver\src/stm32f10x_fsmc.c ****     }
 529:.\stlib\STM32F10x_StdPeriph_Driver\src/stm32f10x_fsmc.c ****   }
ARM GAS  C:\Users\skey\AppData\Local\Temp\ccFDdSGQ.s 			page 31


 530:.\stlib\STM32F10x_StdPeriph_Driver\src/stm32f10x_fsmc.c **** }
 1086              		.loc 1 530 1 view .LVU338
 1087 02be 7047     		bx	lr	@
 1088              	.LVL18:
 1089              	.L37:
 521:.\stlib\STM32F10x_StdPeriph_Driver\src/stm32f10x_fsmc.c ****     {
 1090              		.loc 1 521 5 is_stmt 1 view .LVU339
 1091              	@ .\stlib\STM32F10x_StdPeriph_Driver\src\stm32f10x_fsmc.c:521:     if(FSMC_Bank == FSMC_Bank2_NAND)
 521:.\stlib\STM32F10x_StdPeriph_Driver\src/stm32f10x_fsmc.c ****     {
 1092              		.loc 1 521 7 is_stmt 0 view .LVU340
 1093 02c0 1028     		cmp	r0, #16	@ FSMC_Bank,
 1094              	@ .\stlib\STM32F10x_StdPeriph_Driver\src\stm32f10x_fsmc.c:523:       FSMC_Bank2->PCR2 &= PCR_PBKEN_
 523:.\stlib\STM32F10x_StdPeriph_Driver\src/stm32f10x_fsmc.c ****     }
 1095              		.loc 1 523 24 view .LVU341
 1096 02c2 0CBF     		ite	eq
 1097 02c4 024A     		ldreq	r2, .L44	@ tmp124,
 1098              	@ .\stlib\STM32F10x_StdPeriph_Driver\src\stm32f10x_fsmc.c:527:       FSMC_Bank3->PCR3 &= PCR_PBKEN_
 527:.\stlib\STM32F10x_StdPeriph_Driver\src/stm32f10x_fsmc.c ****     }
 1099              		.loc 1 527 24 view .LVU342
 1100 02c6 034A     		ldrne	r2, .L44+4	@ tmp127,
 1101 02c8 0349     		ldr	r1, .L44+8	@ tmp130,
 1102              	.LVL19:
 523:.\stlib\STM32F10x_StdPeriph_Driver\src/stm32f10x_fsmc.c ****     }
 1103              		.loc 1 523 7 is_stmt 1 view .LVU343
 527:.\stlib\STM32F10x_StdPeriph_Driver\src/stm32f10x_fsmc.c ****     }
 1104              		.loc 1 527 7 view .LVU344
 1105              	@ .\stlib\STM32F10x_StdPeriph_Driver\src\stm32f10x_fsmc.c:527:       FSMC_Bank3->PCR3 &= PCR_PBKEN_
 527:.\stlib\STM32F10x_StdPeriph_Driver\src/stm32f10x_fsmc.c ****     }
 1106              		.loc 1 527 24 is_stmt 0 view .LVU345
 1107 02ca 1368     		ldr	r3, [r2]	@ _7,
 1108 02cc 0B40     		ands	r3, r3, r1	@, _8, _7, tmp130
 1109 02ce F5E7     		b	.L41		@
 1110              	.L45:
 1111              		.align	2
 1112              	.L44:
 1113 02d0 600000A0 		.word	-1610612640
 1114 02d4 800000A0 		.word	-1610612608
 1115 02d8 FBFF0F00 		.word	1048571
 1116              		.cfi_endproc
 1117              	.LFE39:
 1118              		.size	FSMC_NANDCmd, .-FSMC_NANDCmd
 1119              		.align	1
 1120              		.global	FSMC_PCCARDCmd
 1121              		.syntax unified
 1122              		.thumb
 1123              		.thumb_func
 1124              		.fpu softvfp
 1125              		.type	FSMC_PCCARDCmd, %function
 1126              	FSMC_PCCARDCmd:
 1127              	.LVL20:
 1128              	.LFB40:
 531:.\stlib\STM32F10x_StdPeriph_Driver\src/stm32f10x_fsmc.c **** 
 532:.\stlib\STM32F10x_StdPeriph_Driver\src/stm32f10x_fsmc.c **** /**
 533:.\stlib\STM32F10x_StdPeriph_Driver\src/stm32f10x_fsmc.c ****   * @brief  Enables or disables the PCCARD Memory Bank.
 534:.\stlib\STM32F10x_StdPeriph_Driver\src/stm32f10x_fsmc.c ****   * @param  NewState: new state of the PCCARD Memory Bank.  
 535:.\stlib\STM32F10x_StdPeriph_Driver\src/stm32f10x_fsmc.c ****   *   This parameter can be: ENABLE or DISABLE.
 536:.\stlib\STM32F10x_StdPeriph_Driver\src/stm32f10x_fsmc.c ****   * @retval None
ARM GAS  C:\Users\skey\AppData\Local\Temp\ccFDdSGQ.s 			page 32


 537:.\stlib\STM32F10x_StdPeriph_Driver\src/stm32f10x_fsmc.c ****   */
 538:.\stlib\STM32F10x_StdPeriph_Driver\src/stm32f10x_fsmc.c **** void FSMC_PCCARDCmd(FunctionalState NewState)
 539:.\stlib\STM32F10x_StdPeriph_Driver\src/stm32f10x_fsmc.c **** {
 1129              		.loc 1 539 1 is_stmt 1 view -0
 1130              		.cfi_startproc
 1131              		@ args = 0, pretend = 0, frame = 0
 1132              		@ frame_needed = 0, uses_anonymous_args = 0
 1133              		@ link register save eliminated.
 540:.\stlib\STM32F10x_StdPeriph_Driver\src/stm32f10x_fsmc.c ****   assert_param(IS_FUNCTIONAL_STATE(NewState));
 1134              		.loc 1 540 3 view .LVU347
 541:.\stlib\STM32F10x_StdPeriph_Driver\src/stm32f10x_fsmc.c ****   
 542:.\stlib\STM32F10x_StdPeriph_Driver\src/stm32f10x_fsmc.c ****   if (NewState != DISABLE)
 1135              		.loc 1 542 3 view .LVU348
 1136 02dc 054B     		ldr	r3, .L50	@ tmp120,
 1137              	@ .\stlib\STM32F10x_StdPeriph_Driver\src\stm32f10x_fsmc.c:542:   if (NewState != DISABLE)
 1138              		.loc 1 542 6 is_stmt 0 view .LVU349
 1139 02de 20B1     		cbz	r0, .L47	@ tmp121,
 543:.\stlib\STM32F10x_StdPeriph_Driver\src/stm32f10x_fsmc.c ****   {
 544:.\stlib\STM32F10x_StdPeriph_Driver\src/stm32f10x_fsmc.c ****     /* Enable the PCCARD Bank by setting the PBKEN bit in the PCR4 register */
 545:.\stlib\STM32F10x_StdPeriph_Driver\src/stm32f10x_fsmc.c ****     FSMC_Bank4->PCR4 |= PCR_PBKEN_Set;
 1140              		.loc 1 545 5 is_stmt 1 view .LVU350
 1141              	@ .\stlib\STM32F10x_StdPeriph_Driver\src\stm32f10x_fsmc.c:545:     FSMC_Bank4->PCR4 |= PCR_PBKEN_Se
 1142              		.loc 1 545 22 is_stmt 0 view .LVU351
 1143 02e0 1A68     		ldr	r2, [r3]	@ _1, MEM[(struct FSMC_Bank4_TypeDef *)2684354720B].PCR4
 1144 02e2 42F00402 		orr	r2, r2, #4	@ _2, _1,
 1145              	.L49:
 1146              	@ .\stlib\STM32F10x_StdPeriph_Driver\src\stm32f10x_fsmc.c:550:     FSMC_Bank4->PCR4 &= PCR_PBKEN_Re
 546:.\stlib\STM32F10x_StdPeriph_Driver\src/stm32f10x_fsmc.c ****   }
 547:.\stlib\STM32F10x_StdPeriph_Driver\src/stm32f10x_fsmc.c ****   else
 548:.\stlib\STM32F10x_StdPeriph_Driver\src/stm32f10x_fsmc.c ****   {
 549:.\stlib\STM32F10x_StdPeriph_Driver\src/stm32f10x_fsmc.c ****     /* Disable the PCCARD Bank by clearing the PBKEN bit in the PCR4 register */
 550:.\stlib\STM32F10x_StdPeriph_Driver\src/stm32f10x_fsmc.c ****     FSMC_Bank4->PCR4 &= PCR_PBKEN_Reset;
 1147              		.loc 1 550 22 view .LVU352
 1148 02e6 1A60     		str	r2, [r3]	@ _4,
 1149              	@ .\stlib\STM32F10x_StdPeriph_Driver\src\stm32f10x_fsmc.c:552: }
 551:.\stlib\STM32F10x_StdPeriph_Driver\src/stm32f10x_fsmc.c ****   }
 552:.\stlib\STM32F10x_StdPeriph_Driver\src/stm32f10x_fsmc.c **** }
 1150              		.loc 1 552 1 view .LVU353
 1151 02e8 7047     		bx	lr	@
 1152              	.L47:
 550:.\stlib\STM32F10x_StdPeriph_Driver\src/stm32f10x_fsmc.c ****   }
 1153              		.loc 1 550 5 is_stmt 1 view .LVU354
 1154              	@ .\stlib\STM32F10x_StdPeriph_Driver\src\stm32f10x_fsmc.c:550:     FSMC_Bank4->PCR4 &= PCR_PBKEN_Re
 550:.\stlib\STM32F10x_StdPeriph_Driver\src/stm32f10x_fsmc.c ****   }
 1155              		.loc 1 550 22 is_stmt 0 view .LVU355
 1156 02ea 1968     		ldr	r1, [r3]	@ _3, MEM[(struct FSMC_Bank4_TypeDef *)2684354720B].PCR4
 1157 02ec 024A     		ldr	r2, .L50+4	@ _4,
 1158 02ee 0A40     		ands	r2, r2, r1	@, _4, _4, _3
 1159 02f0 F9E7     		b	.L49		@
 1160              	.L51:
 1161 02f2 00BF     		.align	2
 1162              	.L50:
 1163 02f4 A00000A0 		.word	-1610612576
 1164 02f8 FBFF0F00 		.word	1048571
 1165              		.cfi_endproc
 1166              	.LFE40:
 1167              		.size	FSMC_PCCARDCmd, .-FSMC_PCCARDCmd
ARM GAS  C:\Users\skey\AppData\Local\Temp\ccFDdSGQ.s 			page 33


 1168              		.align	1
 1169              		.global	FSMC_NANDECCCmd
 1170              		.syntax unified
 1171              		.thumb
 1172              		.thumb_func
 1173              		.fpu softvfp
 1174              		.type	FSMC_NANDECCCmd, %function
 1175              	FSMC_NANDECCCmd:
 1176              	.LVL21:
 1177              	.LFB41:
 553:.\stlib\STM32F10x_StdPeriph_Driver\src/stm32f10x_fsmc.c **** 
 554:.\stlib\STM32F10x_StdPeriph_Driver\src/stm32f10x_fsmc.c **** /**
 555:.\stlib\STM32F10x_StdPeriph_Driver\src/stm32f10x_fsmc.c ****   * @brief  Enables or disables the FSMC NAND ECC feature.
 556:.\stlib\STM32F10x_StdPeriph_Driver\src/stm32f10x_fsmc.c ****   * @param  FSMC_Bank: specifies the FSMC Bank to be used
 557:.\stlib\STM32F10x_StdPeriph_Driver\src/stm32f10x_fsmc.c ****   *   This parameter can be one of the following values:
 558:.\stlib\STM32F10x_StdPeriph_Driver\src/stm32f10x_fsmc.c ****   *     @arg FSMC_Bank2_NAND: FSMC Bank2 NAND 
 559:.\stlib\STM32F10x_StdPeriph_Driver\src/stm32f10x_fsmc.c ****   *     @arg FSMC_Bank3_NAND: FSMC Bank3 NAND
 560:.\stlib\STM32F10x_StdPeriph_Driver\src/stm32f10x_fsmc.c ****   * @param  NewState: new state of the FSMC NAND ECC feature.  
 561:.\stlib\STM32F10x_StdPeriph_Driver\src/stm32f10x_fsmc.c ****   *   This parameter can be: ENABLE or DISABLE.
 562:.\stlib\STM32F10x_StdPeriph_Driver\src/stm32f10x_fsmc.c ****   * @retval None
 563:.\stlib\STM32F10x_StdPeriph_Driver\src/stm32f10x_fsmc.c ****   */
 564:.\stlib\STM32F10x_StdPeriph_Driver\src/stm32f10x_fsmc.c **** void FSMC_NANDECCCmd(uint32_t FSMC_Bank, FunctionalState NewState)
 565:.\stlib\STM32F10x_StdPeriph_Driver\src/stm32f10x_fsmc.c **** {
 1178              		.loc 1 565 1 is_stmt 1 view -0
 1179              		.cfi_startproc
 1180              		@ args = 0, pretend = 0, frame = 0
 1181              		@ frame_needed = 0, uses_anonymous_args = 0
 1182              		@ link register save eliminated.
 566:.\stlib\STM32F10x_StdPeriph_Driver\src/stm32f10x_fsmc.c ****   assert_param(IS_FSMC_NAND_BANK(FSMC_Bank));
 1183              		.loc 1 566 3 view .LVU357
 567:.\stlib\STM32F10x_StdPeriph_Driver\src/stm32f10x_fsmc.c ****   assert_param(IS_FUNCTIONAL_STATE(NewState));
 1184              		.loc 1 567 3 view .LVU358
 568:.\stlib\STM32F10x_StdPeriph_Driver\src/stm32f10x_fsmc.c ****   
 569:.\stlib\STM32F10x_StdPeriph_Driver\src/stm32f10x_fsmc.c ****   if (NewState != DISABLE)
 1185              		.loc 1 569 3 view .LVU359
 1186              	@ .\stlib\STM32F10x_StdPeriph_Driver\src\stm32f10x_fsmc.c:569:   if (NewState != DISABLE)
 1187              		.loc 1 569 6 is_stmt 0 view .LVU360
 1188 02fc 41B1     		cbz	r1, .L53	@ tmp132,
 570:.\stlib\STM32F10x_StdPeriph_Driver\src/stm32f10x_fsmc.c ****   {
 571:.\stlib\STM32F10x_StdPeriph_Driver\src/stm32f10x_fsmc.c ****     /* Enable the selected NAND Bank ECC function by setting the ECCEN bit in the PCRx register */
 572:.\stlib\STM32F10x_StdPeriph_Driver\src/stm32f10x_fsmc.c ****     if(FSMC_Bank == FSMC_Bank2_NAND)
 1189              		.loc 1 572 5 is_stmt 1 view .LVU361
 1190              	@ .\stlib\STM32F10x_StdPeriph_Driver\src\stm32f10x_fsmc.c:572:     if(FSMC_Bank == FSMC_Bank2_NAND)
 1191              		.loc 1 572 7 is_stmt 0 view .LVU362
 1192 02fe 1028     		cmp	r0, #16	@ FSMC_Bank,
 573:.\stlib\STM32F10x_StdPeriph_Driver\src/stm32f10x_fsmc.c ****     {
 574:.\stlib\STM32F10x_StdPeriph_Driver\src/stm32f10x_fsmc.c ****       FSMC_Bank2->PCR2 |= PCR_ECCEN_Set;
 1193              		.loc 1 574 7 is_stmt 1 view .LVU363
 1194              	@ .\stlib\STM32F10x_StdPeriph_Driver\src\stm32f10x_fsmc.c:574:       FSMC_Bank2->PCR2 |= PCR_ECCEN_
 1195              		.loc 1 574 24 is_stmt 0 view .LVU364
 1196 0300 0CBF     		ite	eq
 1197 0302 074A     		ldreq	r2, .L60	@ tmp120,
 575:.\stlib\STM32F10x_StdPeriph_Driver\src/stm32f10x_fsmc.c ****     }
 576:.\stlib\STM32F10x_StdPeriph_Driver\src/stm32f10x_fsmc.c ****     else
 577:.\stlib\STM32F10x_StdPeriph_Driver\src/stm32f10x_fsmc.c ****     {
 578:.\stlib\STM32F10x_StdPeriph_Driver\src/stm32f10x_fsmc.c ****       FSMC_Bank3->PCR3 |= PCR_ECCEN_Set;
 1198              		.loc 1 578 7 is_stmt 1 view .LVU365
ARM GAS  C:\Users\skey\AppData\Local\Temp\ccFDdSGQ.s 			page 34


 1199              	@ .\stlib\STM32F10x_StdPeriph_Driver\src\stm32f10x_fsmc.c:578:       FSMC_Bank3->PCR3 |= PCR_ECCEN_
 1200              		.loc 1 578 24 is_stmt 0 view .LVU366
 1201 0304 074A     		ldrne	r2, .L60+4	@ tmp122,
 1202 0306 1368     		ldr	r3, [r2]	@ _3,
 1203 0308 43F04003 		orr	r3, r3, #64	@ _4, _3,
 1204              	.LVL22:
 1205              	.L57:
 1206              	@ .\stlib\STM32F10x_StdPeriph_Driver\src\stm32f10x_fsmc.c:590:       FSMC_Bank3->PCR3 &= PCR_ECCEN_
 579:.\stlib\STM32F10x_StdPeriph_Driver\src/stm32f10x_fsmc.c ****     }
 580:.\stlib\STM32F10x_StdPeriph_Driver\src/stm32f10x_fsmc.c ****   }
 581:.\stlib\STM32F10x_StdPeriph_Driver\src/stm32f10x_fsmc.c ****   else
 582:.\stlib\STM32F10x_StdPeriph_Driver\src/stm32f10x_fsmc.c ****   {
 583:.\stlib\STM32F10x_StdPeriph_Driver\src/stm32f10x_fsmc.c ****     /* Disable the selected NAND Bank ECC function by clearing the ECCEN bit in the PCRx register *
 584:.\stlib\STM32F10x_StdPeriph_Driver\src/stm32f10x_fsmc.c ****     if(FSMC_Bank == FSMC_Bank2_NAND)
 585:.\stlib\STM32F10x_StdPeriph_Driver\src/stm32f10x_fsmc.c ****     {
 586:.\stlib\STM32F10x_StdPeriph_Driver\src/stm32f10x_fsmc.c ****       FSMC_Bank2->PCR2 &= PCR_ECCEN_Reset;
 587:.\stlib\STM32F10x_StdPeriph_Driver\src/stm32f10x_fsmc.c ****     }
 588:.\stlib\STM32F10x_StdPeriph_Driver\src/stm32f10x_fsmc.c ****     else
 589:.\stlib\STM32F10x_StdPeriph_Driver\src/stm32f10x_fsmc.c ****     {
 590:.\stlib\STM32F10x_StdPeriph_Driver\src/stm32f10x_fsmc.c ****       FSMC_Bank3->PCR3 &= PCR_ECCEN_Reset;
 1207              		.loc 1 590 24 view .LVU367
 1208 030c 1360     		str	r3, [r2]	@ _8,
 1209              	@ .\stlib\STM32F10x_StdPeriph_Driver\src\stm32f10x_fsmc.c:593: }
 591:.\stlib\STM32F10x_StdPeriph_Driver\src/stm32f10x_fsmc.c ****     }
 592:.\stlib\STM32F10x_StdPeriph_Driver\src/stm32f10x_fsmc.c ****   }
 593:.\stlib\STM32F10x_StdPeriph_Driver\src/stm32f10x_fsmc.c **** }
 1210              		.loc 1 593 1 view .LVU368
 1211 030e 7047     		bx	lr	@
 1212              	.LVL23:
 1213              	.L53:
 584:.\stlib\STM32F10x_StdPeriph_Driver\src/stm32f10x_fsmc.c ****     {
 1214              		.loc 1 584 5 is_stmt 1 view .LVU369
 1215              	@ .\stlib\STM32F10x_StdPeriph_Driver\src\stm32f10x_fsmc.c:584:     if(FSMC_Bank == FSMC_Bank2_NAND)
 584:.\stlib\STM32F10x_StdPeriph_Driver\src/stm32f10x_fsmc.c ****     {
 1216              		.loc 1 584 7 is_stmt 0 view .LVU370
 1217 0310 1028     		cmp	r0, #16	@ FSMC_Bank,
 1218              	@ .\stlib\STM32F10x_StdPeriph_Driver\src\stm32f10x_fsmc.c:586:       FSMC_Bank2->PCR2 &= PCR_ECCEN_
 586:.\stlib\STM32F10x_StdPeriph_Driver\src/stm32f10x_fsmc.c ****     }
 1219              		.loc 1 586 24 view .LVU371
 1220 0312 0CBF     		ite	eq
 1221 0314 024A     		ldreq	r2, .L60	@ tmp124,
 1222              	@ .\stlib\STM32F10x_StdPeriph_Driver\src\stm32f10x_fsmc.c:590:       FSMC_Bank3->PCR3 &= PCR_ECCEN_
 590:.\stlib\STM32F10x_StdPeriph_Driver\src/stm32f10x_fsmc.c ****     }
 1223              		.loc 1 590 24 view .LVU372
 1224 0316 034A     		ldrne	r2, .L60+4	@ tmp127,
 1225 0318 0349     		ldr	r1, .L60+8	@ tmp130,
 1226              	.LVL24:
 586:.\stlib\STM32F10x_StdPeriph_Driver\src/stm32f10x_fsmc.c ****     }
 1227              		.loc 1 586 7 is_stmt 1 view .LVU373
 590:.\stlib\STM32F10x_StdPeriph_Driver\src/stm32f10x_fsmc.c ****     }
 1228              		.loc 1 590 7 view .LVU374
 1229              	@ .\stlib\STM32F10x_StdPeriph_Driver\src\stm32f10x_fsmc.c:590:       FSMC_Bank3->PCR3 &= PCR_ECCEN_
 590:.\stlib\STM32F10x_StdPeriph_Driver\src/stm32f10x_fsmc.c ****     }
 1230              		.loc 1 590 24 is_stmt 0 view .LVU375
 1231 031a 1368     		ldr	r3, [r2]	@ _7,
 1232 031c 0B40     		ands	r3, r3, r1	@, _8, _7, tmp130
 1233 031e F5E7     		b	.L57		@
ARM GAS  C:\Users\skey\AppData\Local\Temp\ccFDdSGQ.s 			page 35


 1234              	.L61:
 1235              		.align	2
 1236              	.L60:
 1237 0320 600000A0 		.word	-1610612640
 1238 0324 800000A0 		.word	-1610612608
 1239 0328 BFFF0F00 		.word	1048511
 1240              		.cfi_endproc
 1241              	.LFE41:
 1242              		.size	FSMC_NANDECCCmd, .-FSMC_NANDECCCmd
 1243              		.align	1
 1244              		.global	FSMC_GetECC
 1245              		.syntax unified
 1246              		.thumb
 1247              		.thumb_func
 1248              		.fpu softvfp
 1249              		.type	FSMC_GetECC, %function
 1250              	FSMC_GetECC:
 1251              	.LVL25:
 1252              	.LFB42:
 594:.\stlib\STM32F10x_StdPeriph_Driver\src/stm32f10x_fsmc.c **** 
 595:.\stlib\STM32F10x_StdPeriph_Driver\src/stm32f10x_fsmc.c **** /**
 596:.\stlib\STM32F10x_StdPeriph_Driver\src/stm32f10x_fsmc.c ****   * @brief  Returns the error correction code register value.
 597:.\stlib\STM32F10x_StdPeriph_Driver\src/stm32f10x_fsmc.c ****   * @param  FSMC_Bank: specifies the FSMC Bank to be used
 598:.\stlib\STM32F10x_StdPeriph_Driver\src/stm32f10x_fsmc.c ****   *   This parameter can be one of the following values:
 599:.\stlib\STM32F10x_StdPeriph_Driver\src/stm32f10x_fsmc.c ****   *     @arg FSMC_Bank2_NAND: FSMC Bank2 NAND 
 600:.\stlib\STM32F10x_StdPeriph_Driver\src/stm32f10x_fsmc.c ****   *     @arg FSMC_Bank3_NAND: FSMC Bank3 NAND
 601:.\stlib\STM32F10x_StdPeriph_Driver\src/stm32f10x_fsmc.c ****   * @retval The Error Correction Code (ECC) value.
 602:.\stlib\STM32F10x_StdPeriph_Driver\src/stm32f10x_fsmc.c ****   */
 603:.\stlib\STM32F10x_StdPeriph_Driver\src/stm32f10x_fsmc.c **** uint32_t FSMC_GetECC(uint32_t FSMC_Bank)
 604:.\stlib\STM32F10x_StdPeriph_Driver\src/stm32f10x_fsmc.c **** {
 1253              		.loc 1 604 1 is_stmt 1 view -0
 1254              		.cfi_startproc
 1255              		@ args = 0, pretend = 0, frame = 0
 1256              		@ frame_needed = 0, uses_anonymous_args = 0
 1257              		@ link register save eliminated.
 605:.\stlib\STM32F10x_StdPeriph_Driver\src/stm32f10x_fsmc.c ****   uint32_t eccval = 0x00000000;
 1258              		.loc 1 605 3 view .LVU377
 606:.\stlib\STM32F10x_StdPeriph_Driver\src/stm32f10x_fsmc.c ****   
 607:.\stlib\STM32F10x_StdPeriph_Driver\src/stm32f10x_fsmc.c ****   if(FSMC_Bank == FSMC_Bank2_NAND)
 1259              		.loc 1 607 3 view .LVU378
 1260              	@ .\stlib\STM32F10x_StdPeriph_Driver\src\stm32f10x_fsmc.c:607:   if(FSMC_Bank == FSMC_Bank2_NAND)
 1261              		.loc 1 607 5 is_stmt 0 view .LVU379
 1262 032c 1028     		cmp	r0, #16	@ tmp115,
 608:.\stlib\STM32F10x_StdPeriph_Driver\src/stm32f10x_fsmc.c ****   {
 609:.\stlib\STM32F10x_StdPeriph_Driver\src/stm32f10x_fsmc.c ****     /* Get the ECCR2 register value */
 610:.\stlib\STM32F10x_StdPeriph_Driver\src/stm32f10x_fsmc.c ****     eccval = FSMC_Bank2->ECCR2;
 1263              		.loc 1 610 5 is_stmt 1 view .LVU380
 1264              	@ .\stlib\STM32F10x_StdPeriph_Driver\src\stm32f10x_fsmc.c:610:     eccval = FSMC_Bank2->ECCR2;
 1265              		.loc 1 610 12 is_stmt 0 view .LVU381
 1266 032e 0CBF     		ite	eq
 1267 0330 014B     		ldreq	r3, .L66	@ tmp112,
 611:.\stlib\STM32F10x_StdPeriph_Driver\src/stm32f10x_fsmc.c ****   }
 612:.\stlib\STM32F10x_StdPeriph_Driver\src/stm32f10x_fsmc.c ****   else
 613:.\stlib\STM32F10x_StdPeriph_Driver\src/stm32f10x_fsmc.c ****   {
 614:.\stlib\STM32F10x_StdPeriph_Driver\src/stm32f10x_fsmc.c ****     /* Get the ECCR3 register value */
 615:.\stlib\STM32F10x_StdPeriph_Driver\src/stm32f10x_fsmc.c ****     eccval = FSMC_Bank3->ECCR3;
 1268              		.loc 1 615 5 is_stmt 1 view .LVU382
ARM GAS  C:\Users\skey\AppData\Local\Temp\ccFDdSGQ.s 			page 36


 1269              	@ .\stlib\STM32F10x_StdPeriph_Driver\src\stm32f10x_fsmc.c:615:     eccval = FSMC_Bank3->ECCR3;
 1270              		.loc 1 615 12 is_stmt 0 view .LVU383
 1271 0332 024B     		ldrne	r3, .L66+4	@ tmp113,
 1272 0334 5869     		ldr	r0, [r3, #20]	@ <retval>,
 1273              	.LVL26:
 616:.\stlib\STM32F10x_StdPeriph_Driver\src/stm32f10x_fsmc.c ****   }
 617:.\stlib\STM32F10x_StdPeriph_Driver\src/stm32f10x_fsmc.c ****   /* Return the error correction code value */
 618:.\stlib\STM32F10x_StdPeriph_Driver\src/stm32f10x_fsmc.c ****   return(eccval);
 1274              		.loc 1 618 3 is_stmt 1 view .LVU384
 1275              	@ .\stlib\STM32F10x_StdPeriph_Driver\src\stm32f10x_fsmc.c:619: }
 619:.\stlib\STM32F10x_StdPeriph_Driver\src/stm32f10x_fsmc.c **** }
 1276              		.loc 1 619 1 is_stmt 0 view .LVU385
 1277 0336 7047     		bx	lr	@
 1278              	.L67:
 1279              		.align	2
 1280              	.L66:
 1281 0338 600000A0 		.word	-1610612640
 1282 033c 800000A0 		.word	-1610612608
 1283              		.cfi_endproc
 1284              	.LFE42:
 1285              		.size	FSMC_GetECC, .-FSMC_GetECC
 1286              		.align	1
 1287              		.global	FSMC_ITConfig
 1288              		.syntax unified
 1289              		.thumb
 1290              		.thumb_func
 1291              		.fpu softvfp
 1292              		.type	FSMC_ITConfig, %function
 1293              	FSMC_ITConfig:
 1294              	.LVL27:
 1295              	.LFB43:
 620:.\stlib\STM32F10x_StdPeriph_Driver\src/stm32f10x_fsmc.c **** 
 621:.\stlib\STM32F10x_StdPeriph_Driver\src/stm32f10x_fsmc.c **** /**
 622:.\stlib\STM32F10x_StdPeriph_Driver\src/stm32f10x_fsmc.c ****   * @brief  Enables or disables the specified FSMC interrupts.
 623:.\stlib\STM32F10x_StdPeriph_Driver\src/stm32f10x_fsmc.c ****   * @param  FSMC_Bank: specifies the FSMC Bank to be used
 624:.\stlib\STM32F10x_StdPeriph_Driver\src/stm32f10x_fsmc.c ****   *   This parameter can be one of the following values:
 625:.\stlib\STM32F10x_StdPeriph_Driver\src/stm32f10x_fsmc.c ****   *     @arg FSMC_Bank2_NAND: FSMC Bank2 NAND 
 626:.\stlib\STM32F10x_StdPeriph_Driver\src/stm32f10x_fsmc.c ****   *     @arg FSMC_Bank3_NAND: FSMC Bank3 NAND
 627:.\stlib\STM32F10x_StdPeriph_Driver\src/stm32f10x_fsmc.c ****   *     @arg FSMC_Bank4_PCCARD: FSMC Bank4 PCCARD
 628:.\stlib\STM32F10x_StdPeriph_Driver\src/stm32f10x_fsmc.c ****   * @param  FSMC_IT: specifies the FSMC interrupt sources to be enabled or disabled.
 629:.\stlib\STM32F10x_StdPeriph_Driver\src/stm32f10x_fsmc.c ****   *   This parameter can be any combination of the following values:
 630:.\stlib\STM32F10x_StdPeriph_Driver\src/stm32f10x_fsmc.c ****   *     @arg FSMC_IT_RisingEdge: Rising edge detection interrupt. 
 631:.\stlib\STM32F10x_StdPeriph_Driver\src/stm32f10x_fsmc.c ****   *     @arg FSMC_IT_Level: Level edge detection interrupt.
 632:.\stlib\STM32F10x_StdPeriph_Driver\src/stm32f10x_fsmc.c ****   *     @arg FSMC_IT_FallingEdge: Falling edge detection interrupt.
 633:.\stlib\STM32F10x_StdPeriph_Driver\src/stm32f10x_fsmc.c ****   * @param  NewState: new state of the specified FSMC interrupts.
 634:.\stlib\STM32F10x_StdPeriph_Driver\src/stm32f10x_fsmc.c ****   *   This parameter can be: ENABLE or DISABLE.
 635:.\stlib\STM32F10x_StdPeriph_Driver\src/stm32f10x_fsmc.c ****   * @retval None
 636:.\stlib\STM32F10x_StdPeriph_Driver\src/stm32f10x_fsmc.c ****   */
 637:.\stlib\STM32F10x_StdPeriph_Driver\src/stm32f10x_fsmc.c **** void FSMC_ITConfig(uint32_t FSMC_Bank, uint32_t FSMC_IT, FunctionalState NewState)
 638:.\stlib\STM32F10x_StdPeriph_Driver\src/stm32f10x_fsmc.c **** {
 1296              		.loc 1 638 1 is_stmt 1 view -0
 1297              		.cfi_startproc
 1298              		@ args = 0, pretend = 0, frame = 0
 1299              		@ frame_needed = 0, uses_anonymous_args = 0
 1300              		@ link register save eliminated.
 639:.\stlib\STM32F10x_StdPeriph_Driver\src/stm32f10x_fsmc.c ****   assert_param(IS_FSMC_IT_BANK(FSMC_Bank));
 1301              		.loc 1 639 3 view .LVU387
ARM GAS  C:\Users\skey\AppData\Local\Temp\ccFDdSGQ.s 			page 37


 640:.\stlib\STM32F10x_StdPeriph_Driver\src/stm32f10x_fsmc.c ****   assert_param(IS_FSMC_IT(FSMC_IT));	
 1302              		.loc 1 640 3 view .LVU388
 641:.\stlib\STM32F10x_StdPeriph_Driver\src/stm32f10x_fsmc.c ****   assert_param(IS_FUNCTIONAL_STATE(NewState));
 1303              		.loc 1 641 3 view .LVU389
 642:.\stlib\STM32F10x_StdPeriph_Driver\src/stm32f10x_fsmc.c ****   
 643:.\stlib\STM32F10x_StdPeriph_Driver\src/stm32f10x_fsmc.c ****   if (NewState != DISABLE)
 1304              		.loc 1 643 3 view .LVU390
 1305              	@ .\stlib\STM32F10x_StdPeriph_Driver\src\stm32f10x_fsmc.c:643:   if (NewState != DISABLE)
 1306              		.loc 1 643 6 is_stmt 0 view .LVU391
 1307 0340 62B1     		cbz	r2, .L69	@ tmp140,
 644:.\stlib\STM32F10x_StdPeriph_Driver\src/stm32f10x_fsmc.c ****   {
 645:.\stlib\STM32F10x_StdPeriph_Driver\src/stm32f10x_fsmc.c ****     /* Enable the selected FSMC_Bank2 interrupts */
 646:.\stlib\STM32F10x_StdPeriph_Driver\src/stm32f10x_fsmc.c ****     if(FSMC_Bank == FSMC_Bank2_NAND)
 1308              		.loc 1 646 5 is_stmt 1 view .LVU392
 1309              	@ .\stlib\STM32F10x_StdPeriph_Driver\src\stm32f10x_fsmc.c:646:     if(FSMC_Bank == FSMC_Bank2_NAND)
 1310              		.loc 1 646 7 is_stmt 0 view .LVU393
 1311 0342 1028     		cmp	r0, #16	@ FSMC_Bank,
 1312 0344 04D1     		bne	.L70		@,
 647:.\stlib\STM32F10x_StdPeriph_Driver\src/stm32f10x_fsmc.c ****     {
 648:.\stlib\STM32F10x_StdPeriph_Driver\src/stm32f10x_fsmc.c ****       FSMC_Bank2->SR2 |= FSMC_IT;
 1313              		.loc 1 648 7 is_stmt 1 view .LVU394
 1314              	@ .\stlib\STM32F10x_StdPeriph_Driver\src\stm32f10x_fsmc.c:648:       FSMC_Bank2->SR2 |= FSMC_IT;
 1315              		.loc 1 648 23 is_stmt 0 view .LVU395
 1316 0346 0C4A     		ldr	r2, .L78	@ tmp126,
 1317              	.LVL28:
 1318              	.L77:
 1319              	@ .\stlib\STM32F10x_StdPeriph_Driver\src\stm32f10x_fsmc.c:658:       FSMC_Bank4->SR4 |= FSMC_IT;   
 649:.\stlib\STM32F10x_StdPeriph_Driver\src/stm32f10x_fsmc.c ****     }
 650:.\stlib\STM32F10x_StdPeriph_Driver\src/stm32f10x_fsmc.c ****     /* Enable the selected FSMC_Bank3 interrupts */
 651:.\stlib\STM32F10x_StdPeriph_Driver\src/stm32f10x_fsmc.c ****     else if (FSMC_Bank == FSMC_Bank3_NAND)
 652:.\stlib\STM32F10x_StdPeriph_Driver\src/stm32f10x_fsmc.c ****     {
 653:.\stlib\STM32F10x_StdPeriph_Driver\src/stm32f10x_fsmc.c ****       FSMC_Bank3->SR3 |= FSMC_IT;
 654:.\stlib\STM32F10x_StdPeriph_Driver\src/stm32f10x_fsmc.c ****     }
 655:.\stlib\STM32F10x_StdPeriph_Driver\src/stm32f10x_fsmc.c ****     /* Enable the selected FSMC_Bank4 interrupts */
 656:.\stlib\STM32F10x_StdPeriph_Driver\src/stm32f10x_fsmc.c ****     else
 657:.\stlib\STM32F10x_StdPeriph_Driver\src/stm32f10x_fsmc.c ****     {
 658:.\stlib\STM32F10x_StdPeriph_Driver\src/stm32f10x_fsmc.c ****       FSMC_Bank4->SR4 |= FSMC_IT;    
 1320              		.loc 1 658 23 view .LVU396
 1321 0348 5368     		ldr	r3, [r2, #4]	@ _5,
 1322 034a 1943     		orrs	r1, r1, r3	@, _6, FSMC_IT, _5
 1323              	.LVL29:
 1324              	.L75:
 1325              	@ .\stlib\STM32F10x_StdPeriph_Driver\src\stm32f10x_fsmc.c:677:       FSMC_Bank4->SR4 &= (uint32_t)~
 659:.\stlib\STM32F10x_StdPeriph_Driver\src/stm32f10x_fsmc.c ****     }
 660:.\stlib\STM32F10x_StdPeriph_Driver\src/stm32f10x_fsmc.c ****   }
 661:.\stlib\STM32F10x_StdPeriph_Driver\src/stm32f10x_fsmc.c ****   else
 662:.\stlib\STM32F10x_StdPeriph_Driver\src/stm32f10x_fsmc.c ****   {
 663:.\stlib\STM32F10x_StdPeriph_Driver\src/stm32f10x_fsmc.c ****     /* Disable the selected FSMC_Bank2 interrupts */
 664:.\stlib\STM32F10x_StdPeriph_Driver\src/stm32f10x_fsmc.c ****     if(FSMC_Bank == FSMC_Bank2_NAND)
 665:.\stlib\STM32F10x_StdPeriph_Driver\src/stm32f10x_fsmc.c ****     {
 666:.\stlib\STM32F10x_StdPeriph_Driver\src/stm32f10x_fsmc.c ****       
 667:.\stlib\STM32F10x_StdPeriph_Driver\src/stm32f10x_fsmc.c ****       FSMC_Bank2->SR2 &= (uint32_t)~FSMC_IT;
 668:.\stlib\STM32F10x_StdPeriph_Driver\src/stm32f10x_fsmc.c ****     }
 669:.\stlib\STM32F10x_StdPeriph_Driver\src/stm32f10x_fsmc.c ****     /* Disable the selected FSMC_Bank3 interrupts */
 670:.\stlib\STM32F10x_StdPeriph_Driver\src/stm32f10x_fsmc.c ****     else if (FSMC_Bank == FSMC_Bank3_NAND)
 671:.\stlib\STM32F10x_StdPeriph_Driver\src/stm32f10x_fsmc.c ****     {
 672:.\stlib\STM32F10x_StdPeriph_Driver\src/stm32f10x_fsmc.c ****       FSMC_Bank3->SR3 &= (uint32_t)~FSMC_IT;
ARM GAS  C:\Users\skey\AppData\Local\Temp\ccFDdSGQ.s 			page 38


 673:.\stlib\STM32F10x_StdPeriph_Driver\src/stm32f10x_fsmc.c ****     }
 674:.\stlib\STM32F10x_StdPeriph_Driver\src/stm32f10x_fsmc.c ****     /* Disable the selected FSMC_Bank4 interrupts */
 675:.\stlib\STM32F10x_StdPeriph_Driver\src/stm32f10x_fsmc.c ****     else
 676:.\stlib\STM32F10x_StdPeriph_Driver\src/stm32f10x_fsmc.c ****     {
 677:.\stlib\STM32F10x_StdPeriph_Driver\src/stm32f10x_fsmc.c ****       FSMC_Bank4->SR4 &= (uint32_t)~FSMC_IT;    
 1326              		.loc 1 677 23 view .LVU397
 1327 034c 5160     		str	r1, [r2, #4]	@ _15,
 1328              	@ .\stlib\STM32F10x_StdPeriph_Driver\src\stm32f10x_fsmc.c:680: }
 678:.\stlib\STM32F10x_StdPeriph_Driver\src/stm32f10x_fsmc.c ****     }
 679:.\stlib\STM32F10x_StdPeriph_Driver\src/stm32f10x_fsmc.c ****   }
 680:.\stlib\STM32F10x_StdPeriph_Driver\src/stm32f10x_fsmc.c **** }
 1329              		.loc 1 680 1 view .LVU398
 1330 034e 7047     		bx	lr	@
 1331              	.LVL30:
 1332              	.L70:
 651:.\stlib\STM32F10x_StdPeriph_Driver\src/stm32f10x_fsmc.c ****     {
 1333              		.loc 1 651 10 is_stmt 1 view .LVU399
 1334              	@ .\stlib\STM32F10x_StdPeriph_Driver\src\stm32f10x_fsmc.c:651:     else if (FSMC_Bank == FSMC_Bank3
 651:.\stlib\STM32F10x_StdPeriph_Driver\src/stm32f10x_fsmc.c ****     {
 1335              		.loc 1 651 13 is_stmt 0 view .LVU400
 1336 0350 B0F5807F 		cmp	r0, #256	@ FSMC_Bank,
 653:.\stlib\STM32F10x_StdPeriph_Driver\src/stm32f10x_fsmc.c ****     }
 1337              		.loc 1 653 7 is_stmt 1 view .LVU401
 1338              	@ .\stlib\STM32F10x_StdPeriph_Driver\src\stm32f10x_fsmc.c:653:       FSMC_Bank3->SR3 |= FSMC_IT;
 653:.\stlib\STM32F10x_StdPeriph_Driver\src/stm32f10x_fsmc.c ****     }
 1339              		.loc 1 653 23 is_stmt 0 view .LVU402
 1340 0354 0CBF     		ite	eq
 1341 0356 094A     		ldreq	r2, .L78+4	@ tmp128,
 1342              	.LVL31:
 658:.\stlib\STM32F10x_StdPeriph_Driver\src/stm32f10x_fsmc.c ****     }
 1343              		.loc 1 658 7 is_stmt 1 view .LVU403
 1344              	@ .\stlib\STM32F10x_StdPeriph_Driver\src\stm32f10x_fsmc.c:658:       FSMC_Bank4->SR4 |= FSMC_IT;   
 658:.\stlib\STM32F10x_StdPeriph_Driver\src/stm32f10x_fsmc.c ****     }
 1345              		.loc 1 658 23 is_stmt 0 view .LVU404
 1346 0358 094A     		ldrne	r2, .L78+8	@ tmp130,
 1347 035a F5E7     		b	.L77		@
 1348              	.LVL32:
 1349              	.L69:
 664:.\stlib\STM32F10x_StdPeriph_Driver\src/stm32f10x_fsmc.c ****     {
 1350              		.loc 1 664 5 is_stmt 1 view .LVU405
 1351              	@ .\stlib\STM32F10x_StdPeriph_Driver\src\stm32f10x_fsmc.c:664:     if(FSMC_Bank == FSMC_Bank2_NAND)
 664:.\stlib\STM32F10x_StdPeriph_Driver\src/stm32f10x_fsmc.c ****     {
 1352              		.loc 1 664 7 is_stmt 0 view .LVU406
 1353 035c 1028     		cmp	r0, #16	@ FSMC_Bank,
 1354 035e 6FEA0101 		mvn	r1, r1	@ _28, FSMC_IT
 1355              	.LVL33:
 664:.\stlib\STM32F10x_StdPeriph_Driver\src/stm32f10x_fsmc.c ****     {
 1356              		.loc 1 664 7 view .LVU407
 1357 0362 03D1     		bne	.L73		@,
 667:.\stlib\STM32F10x_StdPeriph_Driver\src/stm32f10x_fsmc.c ****     }
 1358              		.loc 1 667 7 is_stmt 1 view .LVU408
 1359              	@ .\stlib\STM32F10x_StdPeriph_Driver\src\stm32f10x_fsmc.c:667:       FSMC_Bank2->SR2 &= (uint32_t)~
 667:.\stlib\STM32F10x_StdPeriph_Driver\src/stm32f10x_fsmc.c ****     }
 1360              		.loc 1 667 23 is_stmt 0 view .LVU409
 1361 0364 044A     		ldr	r2, .L78	@ tmp132,
 1362              	.LVL34:
 1363              	.L76:
ARM GAS  C:\Users\skey\AppData\Local\Temp\ccFDdSGQ.s 			page 39


 1364              	@ .\stlib\STM32F10x_StdPeriph_Driver\src\stm32f10x_fsmc.c:677:       FSMC_Bank4->SR4 &= (uint32_t)~
 677:.\stlib\STM32F10x_StdPeriph_Driver\src/stm32f10x_fsmc.c ****     }
 1365              		.loc 1 677 23 view .LVU410
 1366 0366 5368     		ldr	r3, [r2, #4]	@ _13,
 1367 0368 1940     		ands	r1, r1, r3	@, _15, _28, _13
 1368              	.LVL35:
 677:.\stlib\STM32F10x_StdPeriph_Driver\src/stm32f10x_fsmc.c ****     }
 1369              		.loc 1 677 23 view .LVU411
 1370 036a EFE7     		b	.L75		@
 1371              	.LVL36:
 1372              	.L73:
 670:.\stlib\STM32F10x_StdPeriph_Driver\src/stm32f10x_fsmc.c ****     {
 1373              		.loc 1 670 10 is_stmt 1 view .LVU412
 1374              	@ .\stlib\STM32F10x_StdPeriph_Driver\src\stm32f10x_fsmc.c:670:     else if (FSMC_Bank == FSMC_Bank3
 670:.\stlib\STM32F10x_StdPeriph_Driver\src/stm32f10x_fsmc.c ****     {
 1375              		.loc 1 670 13 is_stmt 0 view .LVU413
 1376 036c B0F5807F 		cmp	r0, #256	@ FSMC_Bank,
 672:.\stlib\STM32F10x_StdPeriph_Driver\src/stm32f10x_fsmc.c ****     }
 1377              		.loc 1 672 7 is_stmt 1 view .LVU414
 1378              	@ .\stlib\STM32F10x_StdPeriph_Driver\src\stm32f10x_fsmc.c:672:       FSMC_Bank3->SR3 &= (uint32_t)~
 672:.\stlib\STM32F10x_StdPeriph_Driver\src/stm32f10x_fsmc.c ****     }
 1379              		.loc 1 672 23 is_stmt 0 view .LVU415
 1380 0370 0CBF     		ite	eq
 1381 0372 024A     		ldreq	r2, .L78+4	@ tmp134,
 1382              	.LVL37:
 677:.\stlib\STM32F10x_StdPeriph_Driver\src/stm32f10x_fsmc.c ****     }
 1383              		.loc 1 677 7 is_stmt 1 view .LVU416
 1384              	@ .\stlib\STM32F10x_StdPeriph_Driver\src\stm32f10x_fsmc.c:677:       FSMC_Bank4->SR4 &= (uint32_t)~
 677:.\stlib\STM32F10x_StdPeriph_Driver\src/stm32f10x_fsmc.c ****     }
 1385              		.loc 1 677 23 is_stmt 0 view .LVU417
 1386 0374 024A     		ldrne	r2, .L78+8	@ tmp136,
 1387 0376 F6E7     		b	.L76		@
 1388              	.L79:
 1389              		.align	2
 1390              	.L78:
 1391 0378 600000A0 		.word	-1610612640
 1392 037c 800000A0 		.word	-1610612608
 1393 0380 A00000A0 		.word	-1610612576
 1394              		.cfi_endproc
 1395              	.LFE43:
 1396              		.size	FSMC_ITConfig, .-FSMC_ITConfig
 1397              		.align	1
 1398              		.global	FSMC_GetFlagStatus
 1399              		.syntax unified
 1400              		.thumb
 1401              		.thumb_func
 1402              		.fpu softvfp
 1403              		.type	FSMC_GetFlagStatus, %function
 1404              	FSMC_GetFlagStatus:
 1405              	.LVL38:
 1406              	.LFB44:
 681:.\stlib\STM32F10x_StdPeriph_Driver\src/stm32f10x_fsmc.c **** 
 682:.\stlib\STM32F10x_StdPeriph_Driver\src/stm32f10x_fsmc.c **** /**
 683:.\stlib\STM32F10x_StdPeriph_Driver\src/stm32f10x_fsmc.c ****   * @brief  Checks whether the specified FSMC flag is set or not.
 684:.\stlib\STM32F10x_StdPeriph_Driver\src/stm32f10x_fsmc.c ****   * @param  FSMC_Bank: specifies the FSMC Bank to be used
 685:.\stlib\STM32F10x_StdPeriph_Driver\src/stm32f10x_fsmc.c ****   *   This parameter can be one of the following values:
 686:.\stlib\STM32F10x_StdPeriph_Driver\src/stm32f10x_fsmc.c ****   *     @arg FSMC_Bank2_NAND: FSMC Bank2 NAND 
ARM GAS  C:\Users\skey\AppData\Local\Temp\ccFDdSGQ.s 			page 40


 687:.\stlib\STM32F10x_StdPeriph_Driver\src/stm32f10x_fsmc.c ****   *     @arg FSMC_Bank3_NAND: FSMC Bank3 NAND
 688:.\stlib\STM32F10x_StdPeriph_Driver\src/stm32f10x_fsmc.c ****   *     @arg FSMC_Bank4_PCCARD: FSMC Bank4 PCCARD
 689:.\stlib\STM32F10x_StdPeriph_Driver\src/stm32f10x_fsmc.c ****   * @param  FSMC_FLAG: specifies the flag to check.
 690:.\stlib\STM32F10x_StdPeriph_Driver\src/stm32f10x_fsmc.c ****   *   This parameter can be one of the following values:
 691:.\stlib\STM32F10x_StdPeriph_Driver\src/stm32f10x_fsmc.c ****   *     @arg FSMC_FLAG_RisingEdge: Rising egde detection Flag.
 692:.\stlib\STM32F10x_StdPeriph_Driver\src/stm32f10x_fsmc.c ****   *     @arg FSMC_FLAG_Level: Level detection Flag.
 693:.\stlib\STM32F10x_StdPeriph_Driver\src/stm32f10x_fsmc.c ****   *     @arg FSMC_FLAG_FallingEdge: Falling egde detection Flag.
 694:.\stlib\STM32F10x_StdPeriph_Driver\src/stm32f10x_fsmc.c ****   *     @arg FSMC_FLAG_FEMPT: Fifo empty Flag. 
 695:.\stlib\STM32F10x_StdPeriph_Driver\src/stm32f10x_fsmc.c ****   * @retval The new state of FSMC_FLAG (SET or RESET).
 696:.\stlib\STM32F10x_StdPeriph_Driver\src/stm32f10x_fsmc.c ****   */
 697:.\stlib\STM32F10x_StdPeriph_Driver\src/stm32f10x_fsmc.c **** FlagStatus FSMC_GetFlagStatus(uint32_t FSMC_Bank, uint32_t FSMC_FLAG)
 698:.\stlib\STM32F10x_StdPeriph_Driver\src/stm32f10x_fsmc.c **** {
 1407              		.loc 1 698 1 is_stmt 1 view -0
 1408              		.cfi_startproc
 1409              		@ args = 0, pretend = 0, frame = 0
 1410              		@ frame_needed = 0, uses_anonymous_args = 0
 1411              		@ link register save eliminated.
 699:.\stlib\STM32F10x_StdPeriph_Driver\src/stm32f10x_fsmc.c ****   FlagStatus bitstatus = RESET;
 1412              		.loc 1 699 3 view .LVU419
 700:.\stlib\STM32F10x_StdPeriph_Driver\src/stm32f10x_fsmc.c ****   uint32_t tmpsr = 0x00000000;
 1413              		.loc 1 700 3 view .LVU420
 701:.\stlib\STM32F10x_StdPeriph_Driver\src/stm32f10x_fsmc.c ****   
 702:.\stlib\STM32F10x_StdPeriph_Driver\src/stm32f10x_fsmc.c ****   /* Check the parameters */
 703:.\stlib\STM32F10x_StdPeriph_Driver\src/stm32f10x_fsmc.c ****   assert_param(IS_FSMC_GETFLAG_BANK(FSMC_Bank));
 1414              		.loc 1 703 3 view .LVU421
 704:.\stlib\STM32F10x_StdPeriph_Driver\src/stm32f10x_fsmc.c ****   assert_param(IS_FSMC_GET_FLAG(FSMC_FLAG));
 1415              		.loc 1 704 3 view .LVU422
 705:.\stlib\STM32F10x_StdPeriph_Driver\src/stm32f10x_fsmc.c ****   
 706:.\stlib\STM32F10x_StdPeriph_Driver\src/stm32f10x_fsmc.c ****   if(FSMC_Bank == FSMC_Bank2_NAND)
 1416              		.loc 1 706 3 view .LVU423
 1417              	@ .\stlib\STM32F10x_StdPeriph_Driver\src\stm32f10x_fsmc.c:706:   if(FSMC_Bank == FSMC_Bank2_NAND)
 1418              		.loc 1 706 5 is_stmt 0 view .LVU424
 1419 0384 1028     		cmp	r0, #16	@ FSMC_Bank,
 1420 0386 06D1     		bne	.L81		@,
 707:.\stlib\STM32F10x_StdPeriph_Driver\src/stm32f10x_fsmc.c ****   {
 708:.\stlib\STM32F10x_StdPeriph_Driver\src/stm32f10x_fsmc.c ****     tmpsr = FSMC_Bank2->SR2;
 1421              		.loc 1 708 5 is_stmt 1 view .LVU425
 1422              	@ .\stlib\STM32F10x_StdPeriph_Driver\src\stm32f10x_fsmc.c:708:     tmpsr = FSMC_Bank2->SR2;
 1423              		.loc 1 708 11 is_stmt 0 view .LVU426
 1424 0388 064B     		ldr	r3, .L85	@ tmp116,
 1425              	.L84:
 1426              	@ .\stlib\STM32F10x_StdPeriph_Driver\src\stm32f10x_fsmc.c:717:     tmpsr = FSMC_Bank4->SR4;
 709:.\stlib\STM32F10x_StdPeriph_Driver\src/stm32f10x_fsmc.c ****   }  
 710:.\stlib\STM32F10x_StdPeriph_Driver\src/stm32f10x_fsmc.c ****   else if(FSMC_Bank == FSMC_Bank3_NAND)
 711:.\stlib\STM32F10x_StdPeriph_Driver\src/stm32f10x_fsmc.c ****   {
 712:.\stlib\STM32F10x_StdPeriph_Driver\src/stm32f10x_fsmc.c ****     tmpsr = FSMC_Bank3->SR3;
 713:.\stlib\STM32F10x_StdPeriph_Driver\src/stm32f10x_fsmc.c ****   }
 714:.\stlib\STM32F10x_StdPeriph_Driver\src/stm32f10x_fsmc.c ****   /* FSMC_Bank4_PCCARD*/
 715:.\stlib\STM32F10x_StdPeriph_Driver\src/stm32f10x_fsmc.c ****   else
 716:.\stlib\STM32F10x_StdPeriph_Driver\src/stm32f10x_fsmc.c ****   {
 717:.\stlib\STM32F10x_StdPeriph_Driver\src/stm32f10x_fsmc.c ****     tmpsr = FSMC_Bank4->SR4;
 1427              		.loc 1 717 11 view .LVU427
 1428 038a 5B68     		ldr	r3, [r3, #4]	@ tmpsr,
 1429              	.LVL39:
 718:.\stlib\STM32F10x_StdPeriph_Driver\src/stm32f10x_fsmc.c ****   } 
 719:.\stlib\STM32F10x_StdPeriph_Driver\src/stm32f10x_fsmc.c ****   
 720:.\stlib\STM32F10x_StdPeriph_Driver\src/stm32f10x_fsmc.c ****   /* Get the flag status */
ARM GAS  C:\Users\skey\AppData\Local\Temp\ccFDdSGQ.s 			page 41


 721:.\stlib\STM32F10x_StdPeriph_Driver\src/stm32f10x_fsmc.c ****   if ((tmpsr & FSMC_FLAG) != (uint16_t)RESET )
 1430              		.loc 1 721 3 is_stmt 1 view .LVU428
 722:.\stlib\STM32F10x_StdPeriph_Driver\src/stm32f10x_fsmc.c ****   {
 723:.\stlib\STM32F10x_StdPeriph_Driver\src/stm32f10x_fsmc.c ****     bitstatus = SET;
 724:.\stlib\STM32F10x_StdPeriph_Driver\src/stm32f10x_fsmc.c ****   }
 725:.\stlib\STM32F10x_StdPeriph_Driver\src/stm32f10x_fsmc.c ****   else
 726:.\stlib\STM32F10x_StdPeriph_Driver\src/stm32f10x_fsmc.c ****   {
 727:.\stlib\STM32F10x_StdPeriph_Driver\src/stm32f10x_fsmc.c ****     bitstatus = RESET;
 728:.\stlib\STM32F10x_StdPeriph_Driver\src/stm32f10x_fsmc.c ****   }
 729:.\stlib\STM32F10x_StdPeriph_Driver\src/stm32f10x_fsmc.c ****   /* Return the flag status */
 730:.\stlib\STM32F10x_StdPeriph_Driver\src/stm32f10x_fsmc.c ****   return bitstatus;
 1431              		.loc 1 730 3 view .LVU429
 1432              	@ .\stlib\STM32F10x_StdPeriph_Driver\src\stm32f10x_fsmc.c:721:   if ((tmpsr & FSMC_FLAG) != (uint16
 721:.\stlib\STM32F10x_StdPeriph_Driver\src/stm32f10x_fsmc.c ****   {
 1433              		.loc 1 721 6 is_stmt 0 view .LVU430
 1434 038c 0B42     		tst	r3, r1	@ tmpsr, FSMC_FLAG
 1435              	@ .\stlib\STM32F10x_StdPeriph_Driver\src\stm32f10x_fsmc.c:731: }
 731:.\stlib\STM32F10x_StdPeriph_Driver\src/stm32f10x_fsmc.c **** }
 1436              		.loc 1 731 1 view .LVU431
 1437 038e 14BF     		ite	ne
 1438 0390 0120     		movne	r0, #1	@,
 1439              	.LVL40:
 1440              		.loc 1 731 1 view .LVU432
 1441 0392 0020     		moveq	r0, #0	@,
 1442 0394 7047     		bx	lr	@
 1443              	.LVL41:
 1444              	.L81:
 710:.\stlib\STM32F10x_StdPeriph_Driver\src/stm32f10x_fsmc.c ****   {
 1445              		.loc 1 710 8 is_stmt 1 view .LVU433
 1446              	@ .\stlib\STM32F10x_StdPeriph_Driver\src\stm32f10x_fsmc.c:710:   else if(FSMC_Bank == FSMC_Bank3_NA
 710:.\stlib\STM32F10x_StdPeriph_Driver\src/stm32f10x_fsmc.c ****   {
 1447              		.loc 1 710 10 is_stmt 0 view .LVU434
 1448 0396 B0F5807F 		cmp	r0, #256	@ FSMC_Bank,
 712:.\stlib\STM32F10x_StdPeriph_Driver\src/stm32f10x_fsmc.c ****   }
 1449              		.loc 1 712 5 is_stmt 1 view .LVU435
 1450              	@ .\stlib\STM32F10x_StdPeriph_Driver\src\stm32f10x_fsmc.c:712:     tmpsr = FSMC_Bank3->SR3;
 712:.\stlib\STM32F10x_StdPeriph_Driver\src/stm32f10x_fsmc.c ****   }
 1451              		.loc 1 712 11 is_stmt 0 view .LVU436
 1452 039a 0CBF     		ite	eq
 1453 039c 024B     		ldreq	r3, .L85+4	@ tmp117,
 717:.\stlib\STM32F10x_StdPeriph_Driver\src/stm32f10x_fsmc.c ****   } 
 1454              		.loc 1 717 5 is_stmt 1 view .LVU437
 1455              	@ .\stlib\STM32F10x_StdPeriph_Driver\src\stm32f10x_fsmc.c:717:     tmpsr = FSMC_Bank4->SR4;
 717:.\stlib\STM32F10x_StdPeriph_Driver\src/stm32f10x_fsmc.c ****   } 
 1456              		.loc 1 717 11 is_stmt 0 view .LVU438
 1457 039e 034B     		ldrne	r3, .L85+8	@ tmp118,
 1458 03a0 F3E7     		b	.L84		@
 1459              	.L86:
 1460 03a2 00BF     		.align	2
 1461              	.L85:
 1462 03a4 600000A0 		.word	-1610612640
 1463 03a8 800000A0 		.word	-1610612608
 1464 03ac A00000A0 		.word	-1610612576
 1465              		.cfi_endproc
 1466              	.LFE44:
 1467              		.size	FSMC_GetFlagStatus, .-FSMC_GetFlagStatus
 1468              		.align	1
ARM GAS  C:\Users\skey\AppData\Local\Temp\ccFDdSGQ.s 			page 42


 1469              		.global	FSMC_ClearFlag
 1470              		.syntax unified
 1471              		.thumb
 1472              		.thumb_func
 1473              		.fpu softvfp
 1474              		.type	FSMC_ClearFlag, %function
 1475              	FSMC_ClearFlag:
 1476              	.LVL42:
 1477              	.LFB45:
 732:.\stlib\STM32F10x_StdPeriph_Driver\src/stm32f10x_fsmc.c **** 
 733:.\stlib\STM32F10x_StdPeriph_Driver\src/stm32f10x_fsmc.c **** /**
 734:.\stlib\STM32F10x_StdPeriph_Driver\src/stm32f10x_fsmc.c ****   * @brief  Clears the FSMC's pending flags.
 735:.\stlib\STM32F10x_StdPeriph_Driver\src/stm32f10x_fsmc.c ****   * @param  FSMC_Bank: specifies the FSMC Bank to be used
 736:.\stlib\STM32F10x_StdPeriph_Driver\src/stm32f10x_fsmc.c ****   *   This parameter can be one of the following values:
 737:.\stlib\STM32F10x_StdPeriph_Driver\src/stm32f10x_fsmc.c ****   *     @arg FSMC_Bank2_NAND: FSMC Bank2 NAND 
 738:.\stlib\STM32F10x_StdPeriph_Driver\src/stm32f10x_fsmc.c ****   *     @arg FSMC_Bank3_NAND: FSMC Bank3 NAND
 739:.\stlib\STM32F10x_StdPeriph_Driver\src/stm32f10x_fsmc.c ****   *     @arg FSMC_Bank4_PCCARD: FSMC Bank4 PCCARD
 740:.\stlib\STM32F10x_StdPeriph_Driver\src/stm32f10x_fsmc.c ****   * @param  FSMC_FLAG: specifies the flag to clear.
 741:.\stlib\STM32F10x_StdPeriph_Driver\src/stm32f10x_fsmc.c ****   *   This parameter can be any combination of the following values:
 742:.\stlib\STM32F10x_StdPeriph_Driver\src/stm32f10x_fsmc.c ****   *     @arg FSMC_FLAG_RisingEdge: Rising egde detection Flag.
 743:.\stlib\STM32F10x_StdPeriph_Driver\src/stm32f10x_fsmc.c ****   *     @arg FSMC_FLAG_Level: Level detection Flag.
 744:.\stlib\STM32F10x_StdPeriph_Driver\src/stm32f10x_fsmc.c ****   *     @arg FSMC_FLAG_FallingEdge: Falling egde detection Flag.
 745:.\stlib\STM32F10x_StdPeriph_Driver\src/stm32f10x_fsmc.c ****   * @retval None
 746:.\stlib\STM32F10x_StdPeriph_Driver\src/stm32f10x_fsmc.c ****   */
 747:.\stlib\STM32F10x_StdPeriph_Driver\src/stm32f10x_fsmc.c **** void FSMC_ClearFlag(uint32_t FSMC_Bank, uint32_t FSMC_FLAG)
 748:.\stlib\STM32F10x_StdPeriph_Driver\src/stm32f10x_fsmc.c **** {
 1478              		.loc 1 748 1 is_stmt 1 view -0
 1479              		.cfi_startproc
 1480              		@ args = 0, pretend = 0, frame = 0
 1481              		@ frame_needed = 0, uses_anonymous_args = 0
 1482              		@ link register save eliminated.
 749:.\stlib\STM32F10x_StdPeriph_Driver\src/stm32f10x_fsmc.c ****  /* Check the parameters */
 750:.\stlib\STM32F10x_StdPeriph_Driver\src/stm32f10x_fsmc.c ****   assert_param(IS_FSMC_GETFLAG_BANK(FSMC_Bank));
 1483              		.loc 1 750 3 view .LVU440
 751:.\stlib\STM32F10x_StdPeriph_Driver\src/stm32f10x_fsmc.c ****   assert_param(IS_FSMC_CLEAR_FLAG(FSMC_FLAG)) ;
 1484              		.loc 1 751 3 view .LVU441
 752:.\stlib\STM32F10x_StdPeriph_Driver\src/stm32f10x_fsmc.c ****     
 753:.\stlib\STM32F10x_StdPeriph_Driver\src/stm32f10x_fsmc.c ****   if(FSMC_Bank == FSMC_Bank2_NAND)
 1485              		.loc 1 753 3 view .LVU442
 1486              	@ .\stlib\STM32F10x_StdPeriph_Driver\src\stm32f10x_fsmc.c:753:   if(FSMC_Bank == FSMC_Bank2_NAND)
 1487              		.loc 1 753 5 is_stmt 0 view .LVU443
 1488 03b0 1028     		cmp	r0, #16	@ FSMC_Bank,
 1489 03b2 6FEA0101 		mvn	r1, r1	@ _17, tmp126
 1490              	.LVL43:
 1491              		.loc 1 753 5 view .LVU444
 1492 03b6 04D1     		bne	.L88		@,
 754:.\stlib\STM32F10x_StdPeriph_Driver\src/stm32f10x_fsmc.c ****   {
 755:.\stlib\STM32F10x_StdPeriph_Driver\src/stm32f10x_fsmc.c ****     FSMC_Bank2->SR2 &= ~FSMC_FLAG; 
 1493              		.loc 1 755 5 is_stmt 1 view .LVU445
 1494              	@ .\stlib\STM32F10x_StdPeriph_Driver\src\stm32f10x_fsmc.c:755:     FSMC_Bank2->SR2 &= ~FSMC_FLAG; 
 1495              		.loc 1 755 21 is_stmt 0 view .LVU446
 1496 03b8 054A     		ldr	r2, .L92	@ tmp119,
 1497              	.L91:
 1498              	@ .\stlib\STM32F10x_StdPeriph_Driver\src\stm32f10x_fsmc.c:764:     FSMC_Bank4->SR4 &= ~FSMC_FLAG;
 756:.\stlib\STM32F10x_StdPeriph_Driver\src/stm32f10x_fsmc.c ****   }  
 757:.\stlib\STM32F10x_StdPeriph_Driver\src/stm32f10x_fsmc.c ****   else if(FSMC_Bank == FSMC_Bank3_NAND)
 758:.\stlib\STM32F10x_StdPeriph_Driver\src/stm32f10x_fsmc.c ****   {
ARM GAS  C:\Users\skey\AppData\Local\Temp\ccFDdSGQ.s 			page 43


 759:.\stlib\STM32F10x_StdPeriph_Driver\src/stm32f10x_fsmc.c ****     FSMC_Bank3->SR3 &= ~FSMC_FLAG;
 760:.\stlib\STM32F10x_StdPeriph_Driver\src/stm32f10x_fsmc.c ****   }
 761:.\stlib\STM32F10x_StdPeriph_Driver\src/stm32f10x_fsmc.c ****   /* FSMC_Bank4_PCCARD*/
 762:.\stlib\STM32F10x_StdPeriph_Driver\src/stm32f10x_fsmc.c ****   else
 763:.\stlib\STM32F10x_StdPeriph_Driver\src/stm32f10x_fsmc.c ****   {
 764:.\stlib\STM32F10x_StdPeriph_Driver\src/stm32f10x_fsmc.c ****     FSMC_Bank4->SR4 &= ~FSMC_FLAG;
 1499              		.loc 1 764 21 view .LVU447
 1500 03ba 5368     		ldr	r3, [r2, #4]	@ _7,
 1501 03bc 1940     		ands	r1, r1, r3	@, _9, _17, _7
 1502              	.LVL44:
 1503              		.loc 1 764 21 view .LVU448
 1504 03be 5160     		str	r1, [r2, #4]	@ _9,
 1505              	@ .\stlib\STM32F10x_StdPeriph_Driver\src\stm32f10x_fsmc.c:766: }
 765:.\stlib\STM32F10x_StdPeriph_Driver\src/stm32f10x_fsmc.c ****   }
 766:.\stlib\STM32F10x_StdPeriph_Driver\src/stm32f10x_fsmc.c **** }
 1506              		.loc 1 766 1 view .LVU449
 1507 03c0 7047     		bx	lr	@
 1508              	.L88:
 757:.\stlib\STM32F10x_StdPeriph_Driver\src/stm32f10x_fsmc.c ****   {
 1509              		.loc 1 757 8 is_stmt 1 view .LVU450
 1510              	@ .\stlib\STM32F10x_StdPeriph_Driver\src\stm32f10x_fsmc.c:757:   else if(FSMC_Bank == FSMC_Bank3_NA
 757:.\stlib\STM32F10x_StdPeriph_Driver\src/stm32f10x_fsmc.c ****   {
 1511              		.loc 1 757 10 is_stmt 0 view .LVU451
 1512 03c2 B0F5807F 		cmp	r0, #256	@ FSMC_Bank,
 759:.\stlib\STM32F10x_StdPeriph_Driver\src/stm32f10x_fsmc.c ****   }
 1513              		.loc 1 759 5 is_stmt 1 view .LVU452
 1514              	@ .\stlib\STM32F10x_StdPeriph_Driver\src\stm32f10x_fsmc.c:759:     FSMC_Bank3->SR3 &= ~FSMC_FLAG;
 759:.\stlib\STM32F10x_StdPeriph_Driver\src/stm32f10x_fsmc.c ****   }
 1515              		.loc 1 759 21 is_stmt 0 view .LVU453
 1516 03c6 0CBF     		ite	eq
 1517 03c8 024A     		ldreq	r2, .L92+4	@ tmp121,
 764:.\stlib\STM32F10x_StdPeriph_Driver\src/stm32f10x_fsmc.c ****   }
 1518              		.loc 1 764 5 is_stmt 1 view .LVU454
 1519              	@ .\stlib\STM32F10x_StdPeriph_Driver\src\stm32f10x_fsmc.c:764:     FSMC_Bank4->SR4 &= ~FSMC_FLAG;
 764:.\stlib\STM32F10x_StdPeriph_Driver\src/stm32f10x_fsmc.c ****   }
 1520              		.loc 1 764 21 is_stmt 0 view .LVU455
 1521 03ca 034A     		ldrne	r2, .L92+8	@ tmp123,
 1522 03cc F5E7     		b	.L91		@
 1523              	.L93:
 1524 03ce 00BF     		.align	2
 1525              	.L92:
 1526 03d0 600000A0 		.word	-1610612640
 1527 03d4 800000A0 		.word	-1610612608
 1528 03d8 A00000A0 		.word	-1610612576
 1529              		.cfi_endproc
 1530              	.LFE45:
 1531              		.size	FSMC_ClearFlag, .-FSMC_ClearFlag
 1532              		.align	1
 1533              		.global	FSMC_GetITStatus
 1534              		.syntax unified
 1535              		.thumb
 1536              		.thumb_func
 1537              		.fpu softvfp
 1538              		.type	FSMC_GetITStatus, %function
 1539              	FSMC_GetITStatus:
 1540              	.LVL45:
 1541              	.LFB46:
ARM GAS  C:\Users\skey\AppData\Local\Temp\ccFDdSGQ.s 			page 44


 767:.\stlib\STM32F10x_StdPeriph_Driver\src/stm32f10x_fsmc.c **** 
 768:.\stlib\STM32F10x_StdPeriph_Driver\src/stm32f10x_fsmc.c **** /**
 769:.\stlib\STM32F10x_StdPeriph_Driver\src/stm32f10x_fsmc.c ****   * @brief  Checks whether the specified FSMC interrupt has occurred or not.
 770:.\stlib\STM32F10x_StdPeriph_Driver\src/stm32f10x_fsmc.c ****   * @param  FSMC_Bank: specifies the FSMC Bank to be used
 771:.\stlib\STM32F10x_StdPeriph_Driver\src/stm32f10x_fsmc.c ****   *   This parameter can be one of the following values:
 772:.\stlib\STM32F10x_StdPeriph_Driver\src/stm32f10x_fsmc.c ****   *     @arg FSMC_Bank2_NAND: FSMC Bank2 NAND 
 773:.\stlib\STM32F10x_StdPeriph_Driver\src/stm32f10x_fsmc.c ****   *     @arg FSMC_Bank3_NAND: FSMC Bank3 NAND
 774:.\stlib\STM32F10x_StdPeriph_Driver\src/stm32f10x_fsmc.c ****   *     @arg FSMC_Bank4_PCCARD: FSMC Bank4 PCCARD
 775:.\stlib\STM32F10x_StdPeriph_Driver\src/stm32f10x_fsmc.c ****   * @param  FSMC_IT: specifies the FSMC interrupt source to check.
 776:.\stlib\STM32F10x_StdPeriph_Driver\src/stm32f10x_fsmc.c ****   *   This parameter can be one of the following values:
 777:.\stlib\STM32F10x_StdPeriph_Driver\src/stm32f10x_fsmc.c ****   *     @arg FSMC_IT_RisingEdge: Rising edge detection interrupt. 
 778:.\stlib\STM32F10x_StdPeriph_Driver\src/stm32f10x_fsmc.c ****   *     @arg FSMC_IT_Level: Level edge detection interrupt.
 779:.\stlib\STM32F10x_StdPeriph_Driver\src/stm32f10x_fsmc.c ****   *     @arg FSMC_IT_FallingEdge: Falling edge detection interrupt. 
 780:.\stlib\STM32F10x_StdPeriph_Driver\src/stm32f10x_fsmc.c ****   * @retval The new state of FSMC_IT (SET or RESET).
 781:.\stlib\STM32F10x_StdPeriph_Driver\src/stm32f10x_fsmc.c ****   */
 782:.\stlib\STM32F10x_StdPeriph_Driver\src/stm32f10x_fsmc.c **** ITStatus FSMC_GetITStatus(uint32_t FSMC_Bank, uint32_t FSMC_IT)
 783:.\stlib\STM32F10x_StdPeriph_Driver\src/stm32f10x_fsmc.c **** {
 1542              		.loc 1 783 1 is_stmt 1 view -0
 1543              		.cfi_startproc
 1544              		@ args = 0, pretend = 0, frame = 0
 1545              		@ frame_needed = 0, uses_anonymous_args = 0
 1546              		@ link register save eliminated.
 784:.\stlib\STM32F10x_StdPeriph_Driver\src/stm32f10x_fsmc.c ****   ITStatus bitstatus = RESET;
 1547              		.loc 1 784 3 view .LVU457
 785:.\stlib\STM32F10x_StdPeriph_Driver\src/stm32f10x_fsmc.c ****   uint32_t tmpsr = 0x0, itstatus = 0x0, itenable = 0x0; 
 1548              		.loc 1 785 3 view .LVU458
 786:.\stlib\STM32F10x_StdPeriph_Driver\src/stm32f10x_fsmc.c ****   
 787:.\stlib\STM32F10x_StdPeriph_Driver\src/stm32f10x_fsmc.c ****   /* Check the parameters */
 788:.\stlib\STM32F10x_StdPeriph_Driver\src/stm32f10x_fsmc.c ****   assert_param(IS_FSMC_IT_BANK(FSMC_Bank));
 1549              		.loc 1 788 3 view .LVU459
 789:.\stlib\STM32F10x_StdPeriph_Driver\src/stm32f10x_fsmc.c ****   assert_param(IS_FSMC_GET_IT(FSMC_IT));
 1550              		.loc 1 789 3 view .LVU460
 790:.\stlib\STM32F10x_StdPeriph_Driver\src/stm32f10x_fsmc.c ****   
 791:.\stlib\STM32F10x_StdPeriph_Driver\src/stm32f10x_fsmc.c ****   if(FSMC_Bank == FSMC_Bank2_NAND)
 1551              		.loc 1 791 3 view .LVU461
 1552              	@ .\stlib\STM32F10x_StdPeriph_Driver\src\stm32f10x_fsmc.c:791:   if(FSMC_Bank == FSMC_Bank2_NAND)
 1553              		.loc 1 791 5 is_stmt 0 view .LVU462
 1554 03dc 1028     		cmp	r0, #16	@ FSMC_Bank,
 1555 03de 0AD1     		bne	.L95		@,
 792:.\stlib\STM32F10x_StdPeriph_Driver\src/stm32f10x_fsmc.c ****   {
 793:.\stlib\STM32F10x_StdPeriph_Driver\src/stm32f10x_fsmc.c ****     tmpsr = FSMC_Bank2->SR2;
 1556              		.loc 1 793 5 is_stmt 1 view .LVU463
 1557              	@ .\stlib\STM32F10x_StdPeriph_Driver\src\stm32f10x_fsmc.c:793:     tmpsr = FSMC_Bank2->SR2;
 1558              		.loc 1 793 11 is_stmt 0 view .LVU464
 1559 03e0 084B     		ldr	r3, .L101	@ tmp118,
 1560              	.L100:
 1561              	@ .\stlib\STM32F10x_StdPeriph_Driver\src\stm32f10x_fsmc.c:802:     tmpsr = FSMC_Bank4->SR4;
 794:.\stlib\STM32F10x_StdPeriph_Driver\src/stm32f10x_fsmc.c ****   }  
 795:.\stlib\STM32F10x_StdPeriph_Driver\src/stm32f10x_fsmc.c ****   else if(FSMC_Bank == FSMC_Bank3_NAND)
 796:.\stlib\STM32F10x_StdPeriph_Driver\src/stm32f10x_fsmc.c ****   {
 797:.\stlib\STM32F10x_StdPeriph_Driver\src/stm32f10x_fsmc.c ****     tmpsr = FSMC_Bank3->SR3;
 798:.\stlib\STM32F10x_StdPeriph_Driver\src/stm32f10x_fsmc.c ****   }
 799:.\stlib\STM32F10x_StdPeriph_Driver\src/stm32f10x_fsmc.c ****   /* FSMC_Bank4_PCCARD*/
 800:.\stlib\STM32F10x_StdPeriph_Driver\src/stm32f10x_fsmc.c ****   else
 801:.\stlib\STM32F10x_StdPeriph_Driver\src/stm32f10x_fsmc.c ****   {
 802:.\stlib\STM32F10x_StdPeriph_Driver\src/stm32f10x_fsmc.c ****     tmpsr = FSMC_Bank4->SR4;
 1562              		.loc 1 802 11 view .LVU465
ARM GAS  C:\Users\skey\AppData\Local\Temp\ccFDdSGQ.s 			page 45


 1563 03e2 5B68     		ldr	r3, [r3, #4]	@ tmpsr,
 1564              	.LVL46:
 803:.\stlib\STM32F10x_StdPeriph_Driver\src/stm32f10x_fsmc.c ****   } 
 804:.\stlib\STM32F10x_StdPeriph_Driver\src/stm32f10x_fsmc.c ****   
 805:.\stlib\STM32F10x_StdPeriph_Driver\src/stm32f10x_fsmc.c ****   itstatus = tmpsr & FSMC_IT;
 1565              		.loc 1 805 3 is_stmt 1 view .LVU466
 806:.\stlib\STM32F10x_StdPeriph_Driver\src/stm32f10x_fsmc.c ****   
 807:.\stlib\STM32F10x_StdPeriph_Driver\src/stm32f10x_fsmc.c ****   itenable = tmpsr & (FSMC_IT >> 3);
 1566              		.loc 1 807 3 view .LVU467
 808:.\stlib\STM32F10x_StdPeriph_Driver\src/stm32f10x_fsmc.c ****   if ((itstatus != (uint32_t)RESET)  && (itenable != (uint32_t)RESET))
 1567              		.loc 1 808 3 view .LVU468
 1568              	@ .\stlib\STM32F10x_StdPeriph_Driver\src\stm32f10x_fsmc.c:808:   if ((itstatus != (uint32_t)RESET) 
 1569              		.loc 1 808 6 is_stmt 0 view .LVU469
 1570 03e4 13EA0100 		ands	r0, r3, r1	@ itstatus, tmpsr, FSMC_IT
 1571              	.LVL47:
 1572              		.loc 1 808 6 view .LVU470
 1573 03e8 04D0     		beq	.L98		@,
 1574              	@ .\stlib\STM32F10x_StdPeriph_Driver\src\stm32f10x_fsmc.c:808:   if ((itstatus != (uint32_t)RESET) 
 1575              		.loc 1 808 38 discriminator 1 view .LVU471
 1576 03ea 13EAD103 		ands	r3, r3, r1, lsr #3	@, tmp129, tmpsr, FSMC_IT,
 1577              	.LVL48:
 1578              	@ .\stlib\STM32F10x_StdPeriph_Driver\src\stm32f10x_fsmc.c:814:     bitstatus = RESET;
 809:.\stlib\STM32F10x_StdPeriph_Driver\src/stm32f10x_fsmc.c ****   {
 810:.\stlib\STM32F10x_StdPeriph_Driver\src/stm32f10x_fsmc.c ****     bitstatus = SET;
 811:.\stlib\STM32F10x_StdPeriph_Driver\src/stm32f10x_fsmc.c ****   }
 812:.\stlib\STM32F10x_StdPeriph_Driver\src/stm32f10x_fsmc.c ****   else
 813:.\stlib\STM32F10x_StdPeriph_Driver\src/stm32f10x_fsmc.c ****   {
 814:.\stlib\STM32F10x_StdPeriph_Driver\src/stm32f10x_fsmc.c ****     bitstatus = RESET;
 1579              		.loc 1 814 15 discriminator 1 view .LVU472
 1580 03ee 14BF     		ite	ne
 1581 03f0 0120     		movne	r0, #1	@ <retval>,
 1582              	.LVL49:
 1583              		.loc 1 814 15 discriminator 1 view .LVU473
 1584 03f2 0020     		moveq	r0, #0	@ <retval>,
 1585              	.L98:
 1586              	.LVL50:
 815:.\stlib\STM32F10x_StdPeriph_Driver\src/stm32f10x_fsmc.c ****   }
 816:.\stlib\STM32F10x_StdPeriph_Driver\src/stm32f10x_fsmc.c ****   return bitstatus; 
 1587              		.loc 1 816 3 is_stmt 1 view .LVU474
 1588              	@ .\stlib\STM32F10x_StdPeriph_Driver\src\stm32f10x_fsmc.c:817: }
 817:.\stlib\STM32F10x_StdPeriph_Driver\src/stm32f10x_fsmc.c **** }
 1589              		.loc 1 817 1 is_stmt 0 view .LVU475
 1590 03f4 7047     		bx	lr	@
 1591              	.LVL51:
 1592              	.L95:
 795:.\stlib\STM32F10x_StdPeriph_Driver\src/stm32f10x_fsmc.c ****   {
 1593              		.loc 1 795 8 is_stmt 1 view .LVU476
 1594              	@ .\stlib\STM32F10x_StdPeriph_Driver\src\stm32f10x_fsmc.c:795:   else if(FSMC_Bank == FSMC_Bank3_NA
 795:.\stlib\STM32F10x_StdPeriph_Driver\src/stm32f10x_fsmc.c ****   {
 1595              		.loc 1 795 10 is_stmt 0 view .LVU477
 1596 03f6 B0F5807F 		cmp	r0, #256	@ FSMC_Bank,
 797:.\stlib\STM32F10x_StdPeriph_Driver\src/stm32f10x_fsmc.c ****   }
 1597              		.loc 1 797 5 is_stmt 1 view .LVU478
 1598              	@ .\stlib\STM32F10x_StdPeriph_Driver\src\stm32f10x_fsmc.c:797:     tmpsr = FSMC_Bank3->SR3;
 797:.\stlib\STM32F10x_StdPeriph_Driver\src/stm32f10x_fsmc.c ****   }
 1599              		.loc 1 797 11 is_stmt 0 view .LVU479
 1600 03fa 0CBF     		ite	eq
ARM GAS  C:\Users\skey\AppData\Local\Temp\ccFDdSGQ.s 			page 46


 1601 03fc 024B     		ldreq	r3, .L101+4	@ tmp119,
 802:.\stlib\STM32F10x_StdPeriph_Driver\src/stm32f10x_fsmc.c ****   } 
 1602              		.loc 1 802 5 is_stmt 1 view .LVU480
 1603              	@ .\stlib\STM32F10x_StdPeriph_Driver\src\stm32f10x_fsmc.c:802:     tmpsr = FSMC_Bank4->SR4;
 802:.\stlib\STM32F10x_StdPeriph_Driver\src/stm32f10x_fsmc.c ****   } 
 1604              		.loc 1 802 11 is_stmt 0 view .LVU481
 1605 03fe 034B     		ldrne	r3, .L101+8	@ tmp120,
 1606 0400 EFE7     		b	.L100		@
 1607              	.L102:
 1608 0402 00BF     		.align	2
 1609              	.L101:
 1610 0404 600000A0 		.word	-1610612640
 1611 0408 800000A0 		.word	-1610612608
 1612 040c A00000A0 		.word	-1610612576
 1613              		.cfi_endproc
 1614              	.LFE46:
 1615              		.size	FSMC_GetITStatus, .-FSMC_GetITStatus
 1616              		.align	1
 1617              		.global	FSMC_ClearITPendingBit
 1618              		.syntax unified
 1619              		.thumb
 1620              		.thumb_func
 1621              		.fpu softvfp
 1622              		.type	FSMC_ClearITPendingBit, %function
 1623              	FSMC_ClearITPendingBit:
 1624              	.LVL52:
 1625              	.LFB47:
 818:.\stlib\STM32F10x_StdPeriph_Driver\src/stm32f10x_fsmc.c **** 
 819:.\stlib\STM32F10x_StdPeriph_Driver\src/stm32f10x_fsmc.c **** /**
 820:.\stlib\STM32F10x_StdPeriph_Driver\src/stm32f10x_fsmc.c ****   * @brief  Clears the FSMC's interrupt pending bits.
 821:.\stlib\STM32F10x_StdPeriph_Driver\src/stm32f10x_fsmc.c ****   * @param  FSMC_Bank: specifies the FSMC Bank to be used
 822:.\stlib\STM32F10x_StdPeriph_Driver\src/stm32f10x_fsmc.c ****   *   This parameter can be one of the following values:
 823:.\stlib\STM32F10x_StdPeriph_Driver\src/stm32f10x_fsmc.c ****   *     @arg FSMC_Bank2_NAND: FSMC Bank2 NAND 
 824:.\stlib\STM32F10x_StdPeriph_Driver\src/stm32f10x_fsmc.c ****   *     @arg FSMC_Bank3_NAND: FSMC Bank3 NAND
 825:.\stlib\STM32F10x_StdPeriph_Driver\src/stm32f10x_fsmc.c ****   *     @arg FSMC_Bank4_PCCARD: FSMC Bank4 PCCARD
 826:.\stlib\STM32F10x_StdPeriph_Driver\src/stm32f10x_fsmc.c ****   * @param  FSMC_IT: specifies the interrupt pending bit to clear.
 827:.\stlib\STM32F10x_StdPeriph_Driver\src/stm32f10x_fsmc.c ****   *   This parameter can be any combination of the following values:
 828:.\stlib\STM32F10x_StdPeriph_Driver\src/stm32f10x_fsmc.c ****   *     @arg FSMC_IT_RisingEdge: Rising edge detection interrupt. 
 829:.\stlib\STM32F10x_StdPeriph_Driver\src/stm32f10x_fsmc.c ****   *     @arg FSMC_IT_Level: Level edge detection interrupt.
 830:.\stlib\STM32F10x_StdPeriph_Driver\src/stm32f10x_fsmc.c ****   *     @arg FSMC_IT_FallingEdge: Falling edge detection interrupt.
 831:.\stlib\STM32F10x_StdPeriph_Driver\src/stm32f10x_fsmc.c ****   * @retval None
 832:.\stlib\STM32F10x_StdPeriph_Driver\src/stm32f10x_fsmc.c ****   */
 833:.\stlib\STM32F10x_StdPeriph_Driver\src/stm32f10x_fsmc.c **** void FSMC_ClearITPendingBit(uint32_t FSMC_Bank, uint32_t FSMC_IT)
 834:.\stlib\STM32F10x_StdPeriph_Driver\src/stm32f10x_fsmc.c **** {
 1626              		.loc 1 834 1 is_stmt 1 view -0
 1627              		.cfi_startproc
 1628              		@ args = 0, pretend = 0, frame = 0
 1629              		@ frame_needed = 0, uses_anonymous_args = 0
 1630              		@ link register save eliminated.
 835:.\stlib\STM32F10x_StdPeriph_Driver\src/stm32f10x_fsmc.c ****   /* Check the parameters */
 836:.\stlib\STM32F10x_StdPeriph_Driver\src/stm32f10x_fsmc.c ****   assert_param(IS_FSMC_IT_BANK(FSMC_Bank));
 1631              		.loc 1 836 3 view .LVU483
 837:.\stlib\STM32F10x_StdPeriph_Driver\src/stm32f10x_fsmc.c ****   assert_param(IS_FSMC_IT(FSMC_IT));
 1632              		.loc 1 837 3 view .LVU484
 838:.\stlib\STM32F10x_StdPeriph_Driver\src/stm32f10x_fsmc.c ****     
 839:.\stlib\STM32F10x_StdPeriph_Driver\src/stm32f10x_fsmc.c ****   if(FSMC_Bank == FSMC_Bank2_NAND)
 1633              		.loc 1 839 3 view .LVU485
ARM GAS  C:\Users\skey\AppData\Local\Temp\ccFDdSGQ.s 			page 47


 1634              	@ .\stlib\STM32F10x_StdPeriph_Driver\src\stm32f10x_fsmc.c:839:   if(FSMC_Bank == FSMC_Bank2_NAND)
 1635              		.loc 1 839 5 is_stmt 0 view .LVU486
 1636 0410 1028     		cmp	r0, #16	@ FSMC_Bank,
 1637 0412 6FEAD101 		mvn	r1, r1, lsr #3	@ _21, tmp128,
 1638              	.LVL53:
 1639              		.loc 1 839 5 view .LVU487
 1640 0416 04D1     		bne	.L104		@,
 840:.\stlib\STM32F10x_StdPeriph_Driver\src/stm32f10x_fsmc.c ****   {
 841:.\stlib\STM32F10x_StdPeriph_Driver\src/stm32f10x_fsmc.c ****     FSMC_Bank2->SR2 &= ~(FSMC_IT >> 3); 
 1641              		.loc 1 841 5 is_stmt 1 view .LVU488
 1642              	@ .\stlib\STM32F10x_StdPeriph_Driver\src\stm32f10x_fsmc.c:841:     FSMC_Bank2->SR2 &= ~(FSMC_IT >> 
 1643              		.loc 1 841 21 is_stmt 0 view .LVU489
 1644 0418 054A     		ldr	r2, .L108	@ tmp121,
 1645              	.L107:
 1646              	@ .\stlib\STM32F10x_StdPeriph_Driver\src\stm32f10x_fsmc.c:850:     FSMC_Bank4->SR4 &= ~(FSMC_IT >> 
 842:.\stlib\STM32F10x_StdPeriph_Driver\src/stm32f10x_fsmc.c ****   }  
 843:.\stlib\STM32F10x_StdPeriph_Driver\src/stm32f10x_fsmc.c ****   else if(FSMC_Bank == FSMC_Bank3_NAND)
 844:.\stlib\STM32F10x_StdPeriph_Driver\src/stm32f10x_fsmc.c ****   {
 845:.\stlib\STM32F10x_StdPeriph_Driver\src/stm32f10x_fsmc.c ****     FSMC_Bank3->SR3 &= ~(FSMC_IT >> 3);
 846:.\stlib\STM32F10x_StdPeriph_Driver\src/stm32f10x_fsmc.c ****   }
 847:.\stlib\STM32F10x_StdPeriph_Driver\src/stm32f10x_fsmc.c ****   /* FSMC_Bank4_PCCARD*/
 848:.\stlib\STM32F10x_StdPeriph_Driver\src/stm32f10x_fsmc.c ****   else
 849:.\stlib\STM32F10x_StdPeriph_Driver\src/stm32f10x_fsmc.c ****   {
 850:.\stlib\STM32F10x_StdPeriph_Driver\src/stm32f10x_fsmc.c ****     FSMC_Bank4->SR4 &= ~(FSMC_IT >> 3);
 1647              		.loc 1 850 21 view .LVU490
 1648 041a 5368     		ldr	r3, [r2, #4]	@ _9,
 1649 041c 1940     		ands	r1, r1, r3	@, _12, _21, _9
 1650 041e 5160     		str	r1, [r2, #4]	@ _12,
 1651              	@ .\stlib\STM32F10x_StdPeriph_Driver\src\stm32f10x_fsmc.c:852: }
 851:.\stlib\STM32F10x_StdPeriph_Driver\src/stm32f10x_fsmc.c ****   }
 852:.\stlib\STM32F10x_StdPeriph_Driver\src/stm32f10x_fsmc.c **** }
 1652              		.loc 1 852 1 view .LVU491
 1653 0420 7047     		bx	lr	@
 1654              	.L104:
 843:.\stlib\STM32F10x_StdPeriph_Driver\src/stm32f10x_fsmc.c ****   {
 1655              		.loc 1 843 8 is_stmt 1 view .LVU492
 1656              	@ .\stlib\STM32F10x_StdPeriph_Driver\src\stm32f10x_fsmc.c:843:   else if(FSMC_Bank == FSMC_Bank3_NA
 843:.\stlib\STM32F10x_StdPeriph_Driver\src/stm32f10x_fsmc.c ****   {
 1657              		.loc 1 843 10 is_stmt 0 view .LVU493
 1658 0422 B0F5807F 		cmp	r0, #256	@ FSMC_Bank,
 845:.\stlib\STM32F10x_StdPeriph_Driver\src/stm32f10x_fsmc.c ****   }
 1659              		.loc 1 845 5 is_stmt 1 view .LVU494
 1660              	@ .\stlib\STM32F10x_StdPeriph_Driver\src\stm32f10x_fsmc.c:845:     FSMC_Bank3->SR3 &= ~(FSMC_IT >> 
 845:.\stlib\STM32F10x_StdPeriph_Driver\src/stm32f10x_fsmc.c ****   }
 1661              		.loc 1 845 21 is_stmt 0 view .LVU495
 1662 0426 0CBF     		ite	eq
 1663 0428 024A     		ldreq	r2, .L108+4	@ tmp123,
 850:.\stlib\STM32F10x_StdPeriph_Driver\src/stm32f10x_fsmc.c ****   }
 1664              		.loc 1 850 5 is_stmt 1 view .LVU496
 1665              	@ .\stlib\STM32F10x_StdPeriph_Driver\src\stm32f10x_fsmc.c:850:     FSMC_Bank4->SR4 &= ~(FSMC_IT >> 
 850:.\stlib\STM32F10x_StdPeriph_Driver\src/stm32f10x_fsmc.c ****   }
 1666              		.loc 1 850 21 is_stmt 0 view .LVU497
 1667 042a 034A     		ldrne	r2, .L108+8	@ tmp125,
 1668 042c F5E7     		b	.L107		@
 1669              	.L109:
 1670 042e 00BF     		.align	2
 1671              	.L108:
ARM GAS  C:\Users\skey\AppData\Local\Temp\ccFDdSGQ.s 			page 48


 1672 0430 600000A0 		.word	-1610612640
 1673 0434 800000A0 		.word	-1610612608
 1674 0438 A00000A0 		.word	-1610612576
 1675              		.cfi_endproc
 1676              	.LFE47:
 1677              		.size	FSMC_ClearITPendingBit, .-FSMC_ClearITPendingBit
 1678              	.Letext0:
 1679              		.file 2 "c:\\program files (x86)\\gnu tools arm embedded\\9 2019-q4-major\\arm-none-eabi\\include\
 1680              		.file 3 "c:\\program files (x86)\\gnu tools arm embedded\\9 2019-q4-major\\arm-none-eabi\\include\
 1681              		.file 4 ".\\stlib\\CMSIS\\CM3\\CoreSupport/core_cm3.h"
 1682              		.file 5 ".\\stlib\\CMSIS\\CM3\\DeviceSupport\\ST\\STM32F10x/system_stm32f10x.h"
 1683              		.file 6 ".\\stlib\\CMSIS\\CM3\\DeviceSupport\\ST\\STM32F10x/stm32f10x.h"
 1684              		.file 7 ".\\stlib\\STM32F10x_StdPeriph_Driver\\inc/stm32f10x_fsmc.h"
 1685              		.section	.debug_info,"",%progbits
 1686              	.Ldebug_info0:
 1687 0000 AC0A0000 		.4byte	0xaac
 1688 0004 0200     		.2byte	0x2
 1689 0006 00000000 		.4byte	.Ldebug_abbrev0
 1690 000a 04       		.byte	0x4
 1691 000b 01       		.uleb128 0x1
 1692 000c F4000000 		.4byte	.LASF111
 1693 0010 0C       		.byte	0xc
 1694 0011 94050000 		.4byte	.LASF112
 1695 0015 C9060000 		.4byte	.LASF113
 1696 0019 00000000 		.4byte	.Ltext0
 1697 001d 3C040000 		.4byte	.Letext0
 1698 0021 00000000 		.4byte	.Ldebug_line0
 1699 0025 02       		.uleb128 0x2
 1700 0026 01       		.byte	0x1
 1701 0027 06       		.byte	0x6
 1702 0028 F6030000 		.4byte	.LASF0
 1703 002c 02       		.uleb128 0x2
 1704 002d 01       		.byte	0x1
 1705 002e 08       		.byte	0x8
 1706 002f B1030000 		.4byte	.LASF1
 1707 0033 02       		.uleb128 0x2
 1708 0034 02       		.byte	0x2
 1709 0035 05       		.byte	0x5
 1710 0036 EF010000 		.4byte	.LASF2
 1711 003a 03       		.uleb128 0x3
 1712 003b D5010000 		.4byte	.LASF5
 1713 003f 02       		.byte	0x2
 1714 0040 39       		.byte	0x39
 1715 0041 19       		.byte	0x19
 1716 0042 46000000 		.4byte	0x46
 1717 0046 02       		.uleb128 0x2
 1718 0047 02       		.byte	0x2
 1719 0048 07       		.byte	0x7
 1720 0049 76060000 		.4byte	.LASF3
 1721 004d 02       		.uleb128 0x2
 1722 004e 04       		.byte	0x4
 1723 004f 05       		.byte	0x5
 1724 0050 FB020000 		.4byte	.LASF4
 1725 0054 03       		.uleb128 0x3
 1726 0055 AC010000 		.4byte	.LASF6
 1727 0059 02       		.byte	0x2
 1728 005a 4F       		.byte	0x4f
ARM GAS  C:\Users\skey\AppData\Local\Temp\ccFDdSGQ.s 			page 49


 1729 005b 19       		.byte	0x19
 1730 005c 60000000 		.4byte	0x60
 1731 0060 02       		.uleb128 0x2
 1732 0061 04       		.byte	0x4
 1733 0062 07       		.byte	0x7
 1734 0063 44060000 		.4byte	.LASF7
 1735 0067 02       		.uleb128 0x2
 1736 0068 08       		.byte	0x8
 1737 0069 05       		.byte	0x5
 1738 006a BA020000 		.4byte	.LASF8
 1739 006e 02       		.uleb128 0x2
 1740 006f 08       		.byte	0x8
 1741 0070 07       		.byte	0x7
 1742 0071 02040000 		.4byte	.LASF9
 1743 0075 04       		.uleb128 0x4
 1744 0076 04       		.byte	0x4
 1745 0077 05       		.byte	0x5
 1746 0078 696E7400 		.ascii	"int\000"
 1747 007c 05       		.uleb128 0x5
 1748 007d 75000000 		.4byte	0x75
 1749 0081 02       		.uleb128 0x2
 1750 0082 04       		.byte	0x4
 1751 0083 07       		.byte	0x7
 1752 0084 40040000 		.4byte	.LASF10
 1753 0088 03       		.uleb128 0x3
 1754 0089 2A050000 		.4byte	.LASF11
 1755 008d 03       		.byte	0x3
 1756 008e 24       		.byte	0x24
 1757 008f 14       		.byte	0x14
 1758 0090 3A000000 		.4byte	0x3a
 1759 0094 03       		.uleb128 0x3
 1760 0095 00000000 		.4byte	.LASF12
 1761 0099 03       		.byte	0x3
 1762 009a 30       		.byte	0x30
 1763 009b 14       		.byte	0x14
 1764 009c 54000000 		.4byte	0x54
 1765 00a0 05       		.uleb128 0x5
 1766 00a1 94000000 		.4byte	0x94
 1767 00a5 06       		.uleb128 0x6
 1768 00a6 A0000000 		.4byte	0xa0
 1769 00aa B5000000 		.4byte	0xb5
 1770 00ae 07       		.uleb128 0x7
 1771 00af 81000000 		.4byte	0x81
 1772 00b3 07       		.byte	0x7
 1773 00b4 00       		.byte	0
 1774 00b5 05       		.uleb128 0x5
 1775 00b6 A5000000 		.4byte	0xa5
 1776 00ba 08       		.uleb128 0x8
 1777 00bb 66070000 		.4byte	.LASF13
 1778 00bf 04       		.byte	0x4
 1779 00c0 CE06     		.2byte	0x6ce
 1780 00c2 15       		.byte	0x15
 1781 00c3 7C000000 		.4byte	0x7c
 1782 00c7 01       		.byte	0x1
 1783 00c8 01       		.byte	0x1
 1784 00c9 09       		.uleb128 0x9
 1785 00ca CC050000 		.4byte	.LASF14
ARM GAS  C:\Users\skey\AppData\Local\Temp\ccFDdSGQ.s 			page 50


 1786 00ce 05       		.byte	0x5
 1787 00cf 35       		.byte	0x35
 1788 00d0 11       		.byte	0x11
 1789 00d1 94000000 		.4byte	0x94
 1790 00d5 01       		.byte	0x1
 1791 00d6 01       		.byte	0x1
 1792 00d7 0A       		.uleb128 0xa
 1793 00d8 07       		.byte	0x7
 1794 00d9 01       		.byte	0x1
 1795 00da 2C000000 		.4byte	0x2c
 1796 00de 06       		.byte	0x6
 1797 00df 0702     		.2byte	0x207
 1798 00e1 0E       		.byte	0xe
 1799 00e2 F3000000 		.4byte	0xf3
 1800 00e6 0B       		.uleb128 0xb
 1801 00e7 C3060000 		.4byte	.LASF15
 1802 00eb 00       		.byte	0
 1803 00ec 0C       		.uleb128 0xc
 1804 00ed 53455400 		.ascii	"SET\000"
 1805 00f1 01       		.byte	0x1
 1806 00f2 00       		.byte	0
 1807 00f3 0D       		.uleb128 0xd
 1808 00f4 CA010000 		.4byte	.LASF16
 1809 00f8 06       		.byte	0x6
 1810 00f9 0702     		.2byte	0x207
 1811 00fb 28       		.byte	0x28
 1812 00fc D7000000 		.4byte	0xd7
 1813 0100 0D       		.uleb128 0xd
 1814 0101 F2020000 		.4byte	.LASF17
 1815 0105 06       		.byte	0x6
 1816 0106 0702     		.2byte	0x207
 1817 0108 34       		.byte	0x34
 1818 0109 D7000000 		.4byte	0xd7
 1819 010d 0A       		.uleb128 0xa
 1820 010e 07       		.byte	0x7
 1821 010f 01       		.byte	0x1
 1822 0110 2C000000 		.4byte	0x2c
 1823 0114 06       		.byte	0x6
 1824 0115 0902     		.2byte	0x209
 1825 0117 0E       		.byte	0xe
 1826 0118 29010000 		.4byte	0x129
 1827 011c 0B       		.uleb128 0xb
 1828 011d 82020000 		.4byte	.LASF18
 1829 0121 00       		.byte	0
 1830 0122 0B       		.uleb128 0xb
 1831 0123 A6070000 		.4byte	.LASF19
 1832 0127 01       		.byte	0x1
 1833 0128 00       		.byte	0
 1834 0129 0D       		.uleb128 0xd
 1835 012a 66060000 		.4byte	.LASF20
 1836 012e 06       		.byte	0x6
 1837 012f 0902     		.2byte	0x209
 1838 0131 2F       		.byte	0x2f
 1839 0132 0D010000 		.4byte	0x10d
 1840 0136 0E       		.uleb128 0xe
 1841 0137 20       		.byte	0x20
 1842 0138 06       		.byte	0x6
ARM GAS  C:\Users\skey\AppData\Local\Temp\ccFDdSGQ.s 			page 51


 1843 0139 AE03     		.2byte	0x3ae
 1844 013b 09       		.byte	0x9
 1845 013c 51010000 		.4byte	0x151
 1846 0140 0F       		.uleb128 0xf
 1847 0141 58020000 		.4byte	.LASF22
 1848 0145 06       		.byte	0x6
 1849 0146 B003     		.2byte	0x3b0
 1850 0148 11       		.byte	0x11
 1851 0149 B5000000 		.4byte	0xb5
 1852 014d 02       		.byte	0x2
 1853 014e 23       		.byte	0x23
 1854 014f 00       		.uleb128 0
 1855 0150 00       		.byte	0
 1856 0151 0D       		.uleb128 0xd
 1857 0152 4E070000 		.4byte	.LASF21
 1858 0156 06       		.byte	0x6
 1859 0157 B103     		.2byte	0x3b1
 1860 0159 03       		.byte	0x3
 1861 015a 36010000 		.4byte	0x136
 1862 015e 0E       		.uleb128 0xe
 1863 015f 1C       		.byte	0x1c
 1864 0160 06       		.byte	0x6
 1865 0161 B703     		.2byte	0x3b7
 1866 0163 09       		.byte	0x9
 1867 0164 79010000 		.4byte	0x179
 1868 0168 0F       		.uleb128 0xf
 1869 0169 61070000 		.4byte	.LASF23
 1870 016d 06       		.byte	0x6
 1871 016e B903     		.2byte	0x3b9
 1872 0170 11       		.byte	0x11
 1873 0171 89010000 		.4byte	0x189
 1874 0175 02       		.byte	0x2
 1875 0176 23       		.byte	0x23
 1876 0177 00       		.uleb128 0
 1877 0178 00       		.byte	0
 1878 0179 06       		.uleb128 0x6
 1879 017a A0000000 		.4byte	0xa0
 1880 017e 89010000 		.4byte	0x189
 1881 0182 07       		.uleb128 0x7
 1882 0183 81000000 		.4byte	0x81
 1883 0187 06       		.byte	0x6
 1884 0188 00       		.byte	0
 1885 0189 05       		.uleb128 0x5
 1886 018a 79010000 		.4byte	0x179
 1887 018e 0D       		.uleb128 0xd
 1888 018f 05020000 		.4byte	.LASF24
 1889 0193 06       		.byte	0x6
 1890 0194 BA03     		.2byte	0x3ba
 1891 0196 03       		.byte	0x3
 1892 0197 5E010000 		.4byte	0x15e
 1893 019b 0E       		.uleb128 0xe
 1894 019c 18       		.byte	0x18
 1895 019d 06       		.byte	0x6
 1896 019e C003     		.2byte	0x3c0
 1897 01a0 09       		.byte	0x9
 1898 01a1 06020000 		.4byte	0x206
 1899 01a5 0F       		.uleb128 0xf
ARM GAS  C:\Users\skey\AppData\Local\Temp\ccFDdSGQ.s 			page 52


 1900 01a6 26060000 		.4byte	.LASF25
 1901 01aa 06       		.byte	0x6
 1902 01ab C203     		.2byte	0x3c2
 1903 01ad 11       		.byte	0x11
 1904 01ae A0000000 		.4byte	0xa0
 1905 01b2 02       		.byte	0x2
 1906 01b3 23       		.byte	0x23
 1907 01b4 00       		.uleb128 0
 1908 01b5 10       		.uleb128 0x10
 1909 01b6 53523200 		.ascii	"SR2\000"
 1910 01ba 06       		.byte	0x6
 1911 01bb C303     		.2byte	0x3c3
 1912 01bd 11       		.byte	0x11
 1913 01be A0000000 		.4byte	0xa0
 1914 01c2 02       		.byte	0x2
 1915 01c3 23       		.byte	0x23
 1916 01c4 04       		.uleb128 0x4
 1917 01c5 0F       		.uleb128 0xf
 1918 01c6 B1060000 		.4byte	.LASF26
 1919 01ca 06       		.byte	0x6
 1920 01cb C403     		.2byte	0x3c4
 1921 01cd 11       		.byte	0x11
 1922 01ce A0000000 		.4byte	0xa0
 1923 01d2 02       		.byte	0x2
 1924 01d3 23       		.byte	0x23
 1925 01d4 08       		.uleb128 0x8
 1926 01d5 0F       		.uleb128 0xf
 1927 01d6 87040000 		.4byte	.LASF27
 1928 01da 06       		.byte	0x6
 1929 01db C503     		.2byte	0x3c5
 1930 01dd 11       		.byte	0x11
 1931 01de A0000000 		.4byte	0xa0
 1932 01e2 02       		.byte	0x2
 1933 01e3 23       		.byte	0x23
 1934 01e4 0C       		.uleb128 0xc
 1935 01e5 0F       		.uleb128 0xf
 1936 01e6 1C060000 		.4byte	.LASF28
 1937 01ea 06       		.byte	0x6
 1938 01eb C603     		.2byte	0x3c6
 1939 01ed 0D       		.byte	0xd
 1940 01ee 94000000 		.4byte	0x94
 1941 01f2 02       		.byte	0x2
 1942 01f3 23       		.byte	0x23
 1943 01f4 10       		.uleb128 0x10
 1944 01f5 0F       		.uleb128 0xf
 1945 01f6 73070000 		.4byte	.LASF29
 1946 01fa 06       		.byte	0x6
 1947 01fb C703     		.2byte	0x3c7
 1948 01fd 11       		.byte	0x11
 1949 01fe A0000000 		.4byte	0xa0
 1950 0202 02       		.byte	0x2
 1951 0203 23       		.byte	0x23
 1952 0204 14       		.uleb128 0x14
 1953 0205 00       		.byte	0
 1954 0206 0D       		.uleb128 0xd
 1955 0207 61040000 		.4byte	.LASF30
 1956 020b 06       		.byte	0x6
ARM GAS  C:\Users\skey\AppData\Local\Temp\ccFDdSGQ.s 			page 53


 1957 020c C803     		.2byte	0x3c8
 1958 020e 03       		.byte	0x3
 1959 020f 9B010000 		.4byte	0x19b
 1960 0213 0E       		.uleb128 0xe
 1961 0214 18       		.byte	0x18
 1962 0215 06       		.byte	0x6
 1963 0216 CE03     		.2byte	0x3ce
 1964 0218 09       		.byte	0x9
 1965 0219 7E020000 		.4byte	0x27e
 1966 021d 0F       		.uleb128 0xf
 1967 021e C8020000 		.4byte	.LASF31
 1968 0222 06       		.byte	0x6
 1969 0223 D003     		.2byte	0x3d0
 1970 0225 11       		.byte	0x11
 1971 0226 A0000000 		.4byte	0xa0
 1972 022a 02       		.byte	0x2
 1973 022b 23       		.byte	0x23
 1974 022c 00       		.uleb128 0
 1975 022d 10       		.uleb128 0x10
 1976 022e 53523300 		.ascii	"SR3\000"
 1977 0232 06       		.byte	0x6
 1978 0233 D103     		.2byte	0x3d1
 1979 0235 11       		.byte	0x11
 1980 0236 A0000000 		.4byte	0xa0
 1981 023a 02       		.byte	0x2
 1982 023b 23       		.byte	0x23
 1983 023c 04       		.uleb128 0x4
 1984 023d 0F       		.uleb128 0xf
 1985 023e B7060000 		.4byte	.LASF32
 1986 0242 06       		.byte	0x6
 1987 0243 D203     		.2byte	0x3d2
 1988 0245 11       		.byte	0x11
 1989 0246 A0000000 		.4byte	0xa0
 1990 024a 02       		.byte	0x2
 1991 024b 23       		.byte	0x23
 1992 024c 08       		.uleb128 0x8
 1993 024d 0F       		.uleb128 0xf
 1994 024e EC060000 		.4byte	.LASF33
 1995 0252 06       		.byte	0x6
 1996 0253 D303     		.2byte	0x3d3
 1997 0255 11       		.byte	0x11
 1998 0256 A0000000 		.4byte	0xa0
 1999 025a 02       		.byte	0x2
 2000 025b 23       		.byte	0x23
 2001 025c 0C       		.uleb128 0xc
 2002 025d 0F       		.uleb128 0xf
 2003 025e 1C060000 		.4byte	.LASF28
 2004 0262 06       		.byte	0x6
 2005 0263 D403     		.2byte	0x3d4
 2006 0265 0D       		.byte	0xd
 2007 0266 94000000 		.4byte	0x94
 2008 026a 02       		.byte	0x2
 2009 026b 23       		.byte	0x23
 2010 026c 10       		.uleb128 0x10
 2011 026d 0F       		.uleb128 0xf
 2012 026e 79070000 		.4byte	.LASF34
 2013 0272 06       		.byte	0x6
ARM GAS  C:\Users\skey\AppData\Local\Temp\ccFDdSGQ.s 			page 54


 2014 0273 D503     		.2byte	0x3d5
 2015 0275 11       		.byte	0x11
 2016 0276 A0000000 		.4byte	0xa0
 2017 027a 02       		.byte	0x2
 2018 027b 23       		.byte	0x23
 2019 027c 14       		.uleb128 0x14
 2020 027d 00       		.byte	0
 2021 027e 0D       		.uleb128 0xd
 2022 027f 4A050000 		.4byte	.LASF35
 2023 0283 06       		.byte	0x6
 2024 0284 D603     		.2byte	0x3d6
 2025 0286 03       		.byte	0x3
 2026 0287 13020000 		.4byte	0x213
 2027 028b 0E       		.uleb128 0xe
 2028 028c 14       		.byte	0x14
 2029 028d 06       		.byte	0x6
 2030 028e DC03     		.2byte	0x3dc
 2031 0290 09       		.byte	0x9
 2032 0291 E6020000 		.4byte	0x2e6
 2033 0295 0F       		.uleb128 0xf
 2034 0296 3F060000 		.4byte	.LASF36
 2035 029a 06       		.byte	0x6
 2036 029b DE03     		.2byte	0x3de
 2037 029d 11       		.byte	0x11
 2038 029e A0000000 		.4byte	0xa0
 2039 02a2 02       		.byte	0x2
 2040 02a3 23       		.byte	0x23
 2041 02a4 00       		.uleb128 0
 2042 02a5 10       		.uleb128 0x10
 2043 02a6 53523400 		.ascii	"SR4\000"
 2044 02aa 06       		.byte	0x6
 2045 02ab DF03     		.2byte	0x3df
 2046 02ad 11       		.byte	0x11
 2047 02ae A0000000 		.4byte	0xa0
 2048 02b2 02       		.byte	0x2
 2049 02b3 23       		.byte	0x23
 2050 02b4 04       		.uleb128 0x4
 2051 02b5 0F       		.uleb128 0xf
 2052 02b6 BD060000 		.4byte	.LASF37
 2053 02ba 06       		.byte	0x6
 2054 02bb E003     		.2byte	0x3e0
 2055 02bd 11       		.byte	0x11
 2056 02be A0000000 		.4byte	0xa0
 2057 02c2 02       		.byte	0x2
 2058 02c3 23       		.byte	0x23
 2059 02c4 08       		.uleb128 0x8
 2060 02c5 0F       		.uleb128 0xf
 2061 02c6 F2060000 		.4byte	.LASF38
 2062 02ca 06       		.byte	0x6
 2063 02cb E103     		.2byte	0x3e1
 2064 02cd 11       		.byte	0x11
 2065 02ce A0000000 		.4byte	0xa0
 2066 02d2 02       		.byte	0x2
 2067 02d3 23       		.byte	0x23
 2068 02d4 0C       		.uleb128 0xc
 2069 02d5 0F       		.uleb128 0xf
 2070 02d6 46020000 		.4byte	.LASF39
ARM GAS  C:\Users\skey\AppData\Local\Temp\ccFDdSGQ.s 			page 55


 2071 02da 06       		.byte	0x6
 2072 02db E203     		.2byte	0x3e2
 2073 02dd 11       		.byte	0x11
 2074 02de A0000000 		.4byte	0xa0
 2075 02e2 02       		.byte	0x2
 2076 02e3 23       		.byte	0x23
 2077 02e4 10       		.uleb128 0x10
 2078 02e5 00       		.byte	0
 2079 02e6 0D       		.uleb128 0xd
 2080 02e7 17050000 		.4byte	.LASF40
 2081 02eb 06       		.byte	0x6
 2082 02ec E303     		.2byte	0x3e3
 2083 02ee 03       		.byte	0x3
 2084 02ef 8B020000 		.4byte	0x28b
 2085 02f3 11       		.uleb128 0x11
 2086 02f4 1C       		.byte	0x1c
 2087 02f5 07       		.byte	0x7
 2088 02f6 32       		.byte	0x32
 2089 02f7 09       		.byte	0x9
 2090 02f8 66030000 		.4byte	0x366
 2091 02fc 12       		.uleb128 0x12
 2092 02fd 1F000000 		.4byte	.LASF41
 2093 0301 07       		.byte	0x7
 2094 0302 34       		.byte	0x34
 2095 0303 0C       		.byte	0xc
 2096 0304 94000000 		.4byte	0x94
 2097 0308 02       		.byte	0x2
 2098 0309 23       		.byte	0x23
 2099 030a 00       		.uleb128 0
 2100 030b 12       		.uleb128 0x12
 2101 030c 2E030000 		.4byte	.LASF42
 2102 0310 07       		.byte	0x7
 2103 0311 39       		.byte	0x39
 2104 0312 0C       		.byte	0xc
 2105 0313 94000000 		.4byte	0x94
 2106 0317 02       		.byte	0x2
 2107 0318 23       		.byte	0x23
 2108 0319 04       		.uleb128 0x4
 2109 031a 12       		.uleb128 0x12
 2110 031b 8D040000 		.4byte	.LASF43
 2111 031f 07       		.byte	0x7
 2112 0320 3E       		.byte	0x3e
 2113 0321 0C       		.byte	0xc
 2114 0322 94000000 		.4byte	0x94
 2115 0326 02       		.byte	0x2
 2116 0327 23       		.byte	0x23
 2117 0328 08       		.uleb128 0x8
 2118 0329 12       		.uleb128 0x12
 2119 032a D9000000 		.4byte	.LASF44
 2120 032e 07       		.byte	0x7
 2121 032f 43       		.byte	0x43
 2122 0330 0C       		.byte	0xc
 2123 0331 94000000 		.4byte	0x94
 2124 0335 02       		.byte	0x2
 2125 0336 23       		.byte	0x23
 2126 0337 0C       		.uleb128 0xc
 2127 0338 12       		.uleb128 0x12
ARM GAS  C:\Users\skey\AppData\Local\Temp\ccFDdSGQ.s 			page 56


 2128 0339 A0060000 		.4byte	.LASF45
 2129 033d 07       		.byte	0x7
 2130 033e 48       		.byte	0x48
 2131 033f 0C       		.byte	0xc
 2132 0340 94000000 		.4byte	0x94
 2133 0344 02       		.byte	0x2
 2134 0345 23       		.byte	0x23
 2135 0346 10       		.uleb128 0x10
 2136 0347 12       		.uleb128 0x12
 2137 0348 A0030000 		.4byte	.LASF46
 2138 034c 07       		.byte	0x7
 2139 034d 4C       		.byte	0x4c
 2140 034e 0C       		.byte	0xc
 2141 034f 94000000 		.4byte	0x94
 2142 0353 02       		.byte	0x2
 2143 0354 23       		.byte	0x23
 2144 0355 14       		.uleb128 0x14
 2145 0356 12       		.uleb128 0x12
 2146 0357 E2020000 		.4byte	.LASF47
 2147 035b 07       		.byte	0x7
 2148 035c 54       		.byte	0x54
 2149 035d 0C       		.byte	0xc
 2150 035e 94000000 		.4byte	0x94
 2151 0362 02       		.byte	0x2
 2152 0363 23       		.byte	0x23
 2153 0364 18       		.uleb128 0x18
 2154 0365 00       		.byte	0
 2155 0366 03       		.uleb128 0x3
 2156 0367 BF030000 		.4byte	.LASF48
 2157 036b 07       		.byte	0x7
 2158 036c 56       		.byte	0x56
 2159 036d 02       		.byte	0x2
 2160 036e F3020000 		.4byte	0x2f3
 2161 0372 11       		.uleb128 0x11
 2162 0373 3C       		.byte	0x3c
 2163 0374 07       		.byte	0x7
 2164 0375 5C       		.byte	0x5c
 2165 0376 09       		.byte	0x9
 2166 0377 5D040000 		.4byte	0x45d
 2167 037b 12       		.uleb128 0x12
 2168 037c 85000000 		.4byte	.LASF49
 2169 0380 07       		.byte	0x7
 2170 0381 5E       		.byte	0x5e
 2171 0382 0C       		.byte	0xc
 2172 0383 94000000 		.4byte	0x94
 2173 0387 02       		.byte	0x2
 2174 0388 23       		.byte	0x23
 2175 0389 00       		.uleb128 0
 2176 038a 12       		.uleb128 0x12
 2177 038b 2B060000 		.4byte	.LASF50
 2178 038f 07       		.byte	0x7
 2179 0390 61       		.byte	0x61
 2180 0391 0C       		.byte	0xc
 2181 0392 94000000 		.4byte	0x94
 2182 0396 02       		.byte	0x2
 2183 0397 23       		.byte	0x23
 2184 0398 04       		.uleb128 0x4
ARM GAS  C:\Users\skey\AppData\Local\Temp\ccFDdSGQ.s 			page 57


 2185 0399 12       		.uleb128 0x12
 2186 039a F8060000 		.4byte	.LASF51
 2187 039e 07       		.byte	0x7
 2188 039f 65       		.byte	0x65
 2189 03a0 0C       		.byte	0xc
 2190 03a1 94000000 		.4byte	0x94
 2191 03a5 02       		.byte	0x2
 2192 03a6 23       		.byte	0x23
 2193 03a7 08       		.uleb128 0x8
 2194 03a8 12       		.uleb128 0x12
 2195 03a9 CD020000 		.4byte	.LASF52
 2196 03ad 07       		.byte	0x7
 2197 03ae 69       		.byte	0x69
 2198 03af 0C       		.byte	0xc
 2199 03b0 94000000 		.4byte	0x94
 2200 03b4 02       		.byte	0x2
 2201 03b5 23       		.byte	0x23
 2202 03b6 0C       		.uleb128 0xc
 2203 03b7 12       		.uleb128 0x12
 2204 03b8 19040000 		.4byte	.LASF53
 2205 03bc 07       		.byte	0x7
 2206 03bd 6C       		.byte	0x6c
 2207 03be 0C       		.byte	0xc
 2208 03bf 94000000 		.4byte	0x94
 2209 03c3 02       		.byte	0x2
 2210 03c4 23       		.byte	0x23
 2211 03c5 10       		.uleb128 0x10
 2212 03c6 12       		.uleb128 0x12
 2213 03c7 96010000 		.4byte	.LASF54
 2214 03cb 07       		.byte	0x7
 2215 03cc 70       		.byte	0x70
 2216 03cd 0C       		.byte	0xc
 2217 03ce 94000000 		.4byte	0x94
 2218 03d2 02       		.byte	0x2
 2219 03d3 23       		.byte	0x23
 2220 03d4 14       		.uleb128 0x14
 2221 03d5 12       		.uleb128 0x12
 2222 03d6 8E070000 		.4byte	.LASF55
 2223 03da 07       		.byte	0x7
 2224 03db 74       		.byte	0x74
 2225 03dc 0C       		.byte	0xc
 2226 03dd 94000000 		.4byte	0x94
 2227 03e1 02       		.byte	0x2
 2228 03e2 23       		.byte	0x23
 2229 03e3 18       		.uleb128 0x18
 2230 03e4 12       		.uleb128 0x12
 2231 03e5 BD000000 		.4byte	.LASF56
 2232 03e9 07       		.byte	0x7
 2233 03ea 78       		.byte	0x78
 2234 03eb 0C       		.byte	0xc
 2235 03ec 94000000 		.4byte	0x94
 2236 03f0 02       		.byte	0x2
 2237 03f1 23       		.byte	0x23
 2238 03f2 1C       		.uleb128 0x1c
 2239 03f3 12       		.uleb128 0x12
 2240 03f4 09000000 		.4byte	.LASF57
 2241 03f8 07       		.byte	0x7
ARM GAS  C:\Users\skey\AppData\Local\Temp\ccFDdSGQ.s 			page 58


 2242 03f9 7C       		.byte	0x7c
 2243 03fa 0C       		.byte	0xc
 2244 03fb 94000000 		.4byte	0x94
 2245 03ff 02       		.byte	0x2
 2246 0400 23       		.byte	0x23
 2247 0401 20       		.uleb128 0x20
 2248 0402 12       		.uleb128 0x12
 2249 0403 4D040000 		.4byte	.LASF58
 2250 0407 07       		.byte	0x7
 2251 0408 81       		.byte	0x81
 2252 0409 0C       		.byte	0xc
 2253 040a 94000000 		.4byte	0x94
 2254 040e 02       		.byte	0x2
 2255 040f 23       		.byte	0x23
 2256 0410 24       		.uleb128 0x24
 2257 0411 12       		.uleb128 0x12
 2258 0412 5C030000 		.4byte	.LASF59
 2259 0416 07       		.byte	0x7
 2260 0417 84       		.byte	0x84
 2261 0418 0C       		.byte	0xc
 2262 0419 94000000 		.4byte	0x94
 2263 041d 02       		.byte	0x2
 2264 041e 23       		.byte	0x23
 2265 041f 28       		.uleb128 0x28
 2266 0420 12       		.uleb128 0x12
 2267 0421 2E040000 		.4byte	.LASF60
 2268 0425 07       		.byte	0x7
 2269 0426 88       		.byte	0x88
 2270 0427 0C       		.byte	0xc
 2271 0428 94000000 		.4byte	0x94
 2272 042c 02       		.byte	0x2
 2273 042d 23       		.byte	0x23
 2274 042e 2C       		.uleb128 0x2c
 2275 042f 12       		.uleb128 0x12
 2276 0430 56060000 		.4byte	.LASF61
 2277 0434 07       		.byte	0x7
 2278 0435 8B       		.byte	0x8b
 2279 0436 0C       		.byte	0xc
 2280 0437 94000000 		.4byte	0x94
 2281 043b 02       		.byte	0x2
 2282 043c 23       		.byte	0x23
 2283 043d 30       		.uleb128 0x30
 2284 043e 12       		.uleb128 0x12
 2285 043f A0040000 		.4byte	.LASF62
 2286 0443 07       		.byte	0x7
 2287 0444 8E       		.byte	0x8e
 2288 0445 22       		.byte	0x22
 2289 0446 5D040000 		.4byte	0x45d
 2290 044a 02       		.byte	0x2
 2291 044b 23       		.byte	0x23
 2292 044c 34       		.uleb128 0x34
 2293 044d 12       		.uleb128 0x12
 2294 044e 89060000 		.4byte	.LASF63
 2295 0452 07       		.byte	0x7
 2296 0453 90       		.byte	0x90
 2297 0454 22       		.byte	0x22
 2298 0455 5D040000 		.4byte	0x45d
ARM GAS  C:\Users\skey\AppData\Local\Temp\ccFDdSGQ.s 			page 59


 2299 0459 02       		.byte	0x2
 2300 045a 23       		.byte	0x23
 2301 045b 38       		.uleb128 0x38
 2302 045c 00       		.byte	0
 2303 045d 13       		.uleb128 0x13
 2304 045e 04       		.byte	0x4
 2305 045f 66030000 		.4byte	0x366
 2306 0463 03       		.uleb128 0x3
 2307 0464 5D050000 		.4byte	.LASF64
 2308 0468 07       		.byte	0x7
 2309 0469 91       		.byte	0x91
 2310 046a 02       		.byte	0x2
 2311 046b 72030000 		.4byte	0x372
 2312 046f 11       		.uleb128 0x11
 2313 0470 10       		.byte	0x10
 2314 0471 07       		.byte	0x7
 2315 0472 97       		.byte	0x97
 2316 0473 09       		.byte	0x9
 2317 0474 B5040000 		.4byte	0x4b5
 2318 0478 12       		.uleb128 0x12
 2319 0479 43030000 		.4byte	.LASF65
 2320 047d 07       		.byte	0x7
 2321 047e 99       		.byte	0x99
 2322 047f 0C       		.byte	0xc
 2323 0480 94000000 		.4byte	0x94
 2324 0484 02       		.byte	0x2
 2325 0485 23       		.byte	0x23
 2326 0486 00       		.uleb128 0
 2327 0487 12       		.uleb128 0x12
 2328 0488 A2000000 		.4byte	.LASF66
 2329 048c 07       		.byte	0x7
 2330 048d 9F       		.byte	0x9f
 2331 048e 0C       		.byte	0xc
 2332 048f 94000000 		.4byte	0x94
 2333 0493 02       		.byte	0x2
 2334 0494 23       		.byte	0x23
 2335 0495 04       		.uleb128 0x4
 2336 0496 12       		.uleb128 0x12
 2337 0497 8F000000 		.4byte	.LASF67
 2338 049b 07       		.byte	0x7
 2339 049c A5       		.byte	0xa5
 2340 049d 0C       		.byte	0xc
 2341 049e 94000000 		.4byte	0x94
 2342 04a2 02       		.byte	0x2
 2343 04a3 23       		.byte	0x23
 2344 04a4 08       		.uleb128 0x8
 2345 04a5 12       		.uleb128 0x12
 2346 04a6 D4040000 		.4byte	.LASF68
 2347 04aa 07       		.byte	0x7
 2348 04ab AC       		.byte	0xac
 2349 04ac 0C       		.byte	0xc
 2350 04ad 94000000 		.4byte	0x94
 2351 04b1 02       		.byte	0x2
 2352 04b2 23       		.byte	0x23
 2353 04b3 0C       		.uleb128 0xc
 2354 04b4 00       		.byte	0
 2355 04b5 03       		.uleb128 0x3
ARM GAS  C:\Users\skey\AppData\Local\Temp\ccFDdSGQ.s 			page 60


 2356 04b6 8A020000 		.4byte	.LASF69
 2357 04ba 07       		.byte	0x7
 2358 04bb B1       		.byte	0xb1
 2359 04bc 02       		.byte	0x2
 2360 04bd 6F040000 		.4byte	0x46f
 2361 04c1 11       		.uleb128 0x11
 2362 04c2 24       		.byte	0x24
 2363 04c3 07       		.byte	0x7
 2364 04c4 B7       		.byte	0xb7
 2365 04c5 09       		.byte	0x9
 2366 04c6 52050000 		.4byte	0x552
 2367 04ca 12       		.uleb128 0x12
 2368 04cb 85000000 		.4byte	.LASF49
 2369 04cf 07       		.byte	0x7
 2370 04d0 B9       		.byte	0xb9
 2371 04d1 0C       		.byte	0xc
 2372 04d2 94000000 		.4byte	0x94
 2373 04d6 02       		.byte	0x2
 2374 04d7 23       		.byte	0x23
 2375 04d8 00       		.uleb128 0
 2376 04d9 12       		.uleb128 0x12
 2377 04da 46000000 		.4byte	.LASF70
 2378 04de 07       		.byte	0x7
 2379 04df BC       		.byte	0xbc
 2380 04e0 0C       		.byte	0xc
 2381 04e1 94000000 		.4byte	0x94
 2382 04e5 02       		.byte	0x2
 2383 04e6 23       		.byte	0x23
 2384 04e7 04       		.uleb128 0x4
 2385 04e8 12       		.uleb128 0x12
 2386 04e9 CD020000 		.4byte	.LASF52
 2387 04ed 07       		.byte	0x7
 2388 04ee BF       		.byte	0xbf
 2389 04ef 0C       		.byte	0xc
 2390 04f0 94000000 		.4byte	0x94
 2391 04f4 02       		.byte	0x2
 2392 04f5 23       		.byte	0x23
 2393 04f6 08       		.uleb128 0x8
 2394 04f7 12       		.uleb128 0x12
 2395 04f8 DD030000 		.4byte	.LASF71
 2396 04fc 07       		.byte	0x7
 2397 04fd C2       		.byte	0xc2
 2398 04fe 0C       		.byte	0xc
 2399 04ff 94000000 		.4byte	0x94
 2400 0503 02       		.byte	0x2
 2401 0504 23       		.byte	0x23
 2402 0505 0C       		.uleb128 0xc
 2403 0506 12       		.uleb128 0x12
 2404 0507 57000000 		.4byte	.LASF72
 2405 050b 07       		.byte	0x7
 2406 050c C5       		.byte	0xc5
 2407 050d 0C       		.byte	0xc
 2408 050e 94000000 		.4byte	0x94
 2409 0512 02       		.byte	0x2
 2410 0513 23       		.byte	0x23
 2411 0514 10       		.uleb128 0x10
 2412 0515 12       		.uleb128 0x12
ARM GAS  C:\Users\skey\AppData\Local\Temp\ccFDdSGQ.s 			page 61


 2413 0516 B7010000 		.4byte	.LASF73
 2414 051a 07       		.byte	0x7
 2415 051b C8       		.byte	0xc8
 2416 051c 0C       		.byte	0xc
 2417 051d 94000000 		.4byte	0x94
 2418 0521 02       		.byte	0x2
 2419 0522 23       		.byte	0x23
 2420 0523 14       		.uleb128 0x14
 2421 0524 12       		.uleb128 0x12
 2422 0525 75050000 		.4byte	.LASF74
 2423 0529 07       		.byte	0x7
 2424 052a CC       		.byte	0xcc
 2425 052b 0C       		.byte	0xc
 2426 052c 94000000 		.4byte	0x94
 2427 0530 02       		.byte	0x2
 2428 0531 23       		.byte	0x23
 2429 0532 18       		.uleb128 0x18
 2430 0533 12       		.uleb128 0x12
 2431 0534 68000000 		.4byte	.LASF75
 2432 0538 07       		.byte	0x7
 2433 0539 D0       		.byte	0xd0
 2434 053a 27       		.byte	0x27
 2435 053b 52050000 		.4byte	0x552
 2436 053f 02       		.byte	0x2
 2437 0540 23       		.byte	0x23
 2438 0541 1C       		.uleb128 0x1c
 2439 0542 12       		.uleb128 0x12
 2440 0543 2E070000 		.4byte	.LASF76
 2441 0547 07       		.byte	0x7
 2442 0548 D2       		.byte	0xd2
 2443 0549 27       		.byte	0x27
 2444 054a 52050000 		.4byte	0x552
 2445 054e 02       		.byte	0x2
 2446 054f 23       		.byte	0x23
 2447 0550 20       		.uleb128 0x20
 2448 0551 00       		.byte	0
 2449 0552 13       		.uleb128 0x13
 2450 0553 04       		.byte	0x4
 2451 0554 B5040000 		.4byte	0x4b5
 2452 0558 03       		.uleb128 0x3
 2453 0559 19070000 		.4byte	.LASF77
 2454 055d 07       		.byte	0x7
 2455 055e D3       		.byte	0xd3
 2456 055f 02       		.byte	0x2
 2457 0560 C1040000 		.4byte	0x4c1
 2458 0564 11       		.uleb128 0x11
 2459 0565 18       		.byte	0x18
 2460 0566 07       		.byte	0x7
 2461 0567 D9       		.byte	0xd9
 2462 0568 09       		.byte	0x9
 2463 0569 C8050000 		.4byte	0x5c8
 2464 056d 12       		.uleb128 0x12
 2465 056e 46000000 		.4byte	.LASF70
 2466 0572 07       		.byte	0x7
 2467 0573 DB       		.byte	0xdb
 2468 0574 0C       		.byte	0xc
 2469 0575 94000000 		.4byte	0x94
ARM GAS  C:\Users\skey\AppData\Local\Temp\ccFDdSGQ.s 			page 62


 2470 0579 02       		.byte	0x2
 2471 057a 23       		.byte	0x23
 2472 057b 00       		.uleb128 0
 2473 057c 12       		.uleb128 0x12
 2474 057d B7010000 		.4byte	.LASF73
 2475 0581 07       		.byte	0x7
 2476 0582 DE       		.byte	0xde
 2477 0583 0C       		.byte	0xc
 2478 0584 94000000 		.4byte	0x94
 2479 0588 02       		.byte	0x2
 2480 0589 23       		.byte	0x23
 2481 058a 04       		.uleb128 0x4
 2482 058b 12       		.uleb128 0x12
 2483 058c 75050000 		.4byte	.LASF74
 2484 0590 07       		.byte	0x7
 2485 0591 E2       		.byte	0xe2
 2486 0592 0C       		.byte	0xc
 2487 0593 94000000 		.4byte	0x94
 2488 0597 02       		.byte	0x2
 2489 0598 23       		.byte	0x23
 2490 0599 08       		.uleb128 0x8
 2491 059a 12       		.uleb128 0x12
 2492 059b 68000000 		.4byte	.LASF75
 2493 059f 07       		.byte	0x7
 2494 05a0 E7       		.byte	0xe7
 2495 05a1 27       		.byte	0x27
 2496 05a2 52050000 		.4byte	0x552
 2497 05a6 02       		.byte	0x2
 2498 05a7 23       		.byte	0x23
 2499 05a8 0C       		.uleb128 0xc
 2500 05a9 12       		.uleb128 0x12
 2501 05aa 2E070000 		.4byte	.LASF76
 2502 05ae 07       		.byte	0x7
 2503 05af E9       		.byte	0xe9
 2504 05b0 27       		.byte	0x27
 2505 05b1 52050000 		.4byte	0x552
 2506 05b5 02       		.byte	0x2
 2507 05b6 23       		.byte	0x23
 2508 05b7 10       		.uleb128 0x10
 2509 05b8 12       		.uleb128 0x12
 2510 05b9 BB040000 		.4byte	.LASF78
 2511 05bd 07       		.byte	0x7
 2512 05be EB       		.byte	0xeb
 2513 05bf 27       		.byte	0x27
 2514 05c0 52050000 		.4byte	0x552
 2515 05c4 02       		.byte	0x2
 2516 05c5 23       		.byte	0x23
 2517 05c6 14       		.uleb128 0x14
 2518 05c7 00       		.byte	0
 2519 05c8 03       		.uleb128 0x3
 2520 05c9 19020000 		.4byte	.LASF79
 2521 05cd 07       		.byte	0x7
 2522 05ce EC       		.byte	0xec
 2523 05cf 02       		.byte	0x2
 2524 05d0 64050000 		.4byte	0x564
 2525 05d4 14       		.uleb128 0x14
 2526 05d5 01       		.byte	0x1
ARM GAS  C:\Users\skey\AppData\Local\Temp\ccFDdSGQ.s 			page 63


 2527 05d6 6C030000 		.4byte	.LASF85
 2528 05da 01       		.byte	0x1
 2529 05db 4103     		.2byte	0x341
 2530 05dd 06       		.byte	0x6
 2531 05de 01       		.byte	0x1
 2532 05df 10040000 		.4byte	.LFB47
 2533 05e3 3C040000 		.4byte	.LFE47
 2534 05e7 02       		.byte	0x2
 2535 05e8 7D       		.byte	0x7d
 2536 05e9 00       		.sleb128 0
 2537 05ea 01       		.byte	0x1
 2538 05eb 14060000 		.4byte	0x614
 2539 05ef 15       		.uleb128 0x15
 2540 05f0 85000000 		.4byte	.LASF49
 2541 05f4 01       		.byte	0x1
 2542 05f5 4103     		.2byte	0x341
 2543 05f7 26       		.byte	0x26
 2544 05f8 94000000 		.4byte	0x94
 2545 05fc 01       		.byte	0x1
 2546 05fd 50       		.byte	0x50
 2547 05fe 16       		.uleb128 0x16
 2548 05ff B5000000 		.4byte	.LASF80
 2549 0603 01       		.byte	0x1
 2550 0604 4103     		.2byte	0x341
 2551 0606 3A       		.byte	0x3a
 2552 0607 94000000 		.4byte	0x94
 2553 060b 04000000 		.4byte	.LLST26
 2554 060f 00000000 		.4byte	.LVUS26
 2555 0613 00       		.byte	0
 2556 0614 17       		.uleb128 0x17
 2557 0615 01       		.byte	0x1
 2558 0616 35000000 		.4byte	.LASF88
 2559 061a 01       		.byte	0x1
 2560 061b 0E03     		.2byte	0x30e
 2561 061d 0A       		.byte	0xa
 2562 061e 01       		.byte	0x1
 2563 061f 00010000 		.4byte	0x100
 2564 0623 DC030000 		.4byte	.LFB46
 2565 0627 10040000 		.4byte	.LFE46
 2566 062b 02       		.byte	0x2
 2567 062c 7D       		.byte	0x7d
 2568 062d 00       		.sleb128 0
 2569 062e 01       		.byte	0x1
 2570 062f AC060000 		.4byte	0x6ac
 2571 0633 16       		.uleb128 0x16
 2572 0634 85000000 		.4byte	.LASF49
 2573 0638 01       		.byte	0x1
 2574 0639 0E03     		.2byte	0x30e
 2575 063b 24       		.byte	0x24
 2576 063c 94000000 		.4byte	0x94
 2577 0640 2B000000 		.4byte	.LLST21
 2578 0644 25000000 		.4byte	.LVUS21
 2579 0648 15       		.uleb128 0x15
 2580 0649 B5000000 		.4byte	.LASF80
 2581 064d 01       		.byte	0x1
 2582 064e 0E03     		.2byte	0x30e
 2583 0650 38       		.byte	0x38
ARM GAS  C:\Users\skey\AppData\Local\Temp\ccFDdSGQ.s 			page 64


 2584 0651 94000000 		.4byte	0x94
 2585 0655 01       		.byte	0x1
 2586 0656 51       		.byte	0x51
 2587 0657 18       		.uleb128 0x18
 2588 0658 52030000 		.4byte	.LASF81
 2589 065c 01       		.byte	0x1
 2590 065d 1003     		.2byte	0x310
 2591 065f 0C       		.byte	0xc
 2592 0660 00010000 		.4byte	0x100
 2593 0664 5D000000 		.4byte	.LLST22
 2594 0668 57000000 		.4byte	.LVUS22
 2595 066c 18       		.uleb128 0x18
 2596 066d 87050000 		.4byte	.LASF82
 2597 0671 01       		.byte	0x1
 2598 0672 1103     		.2byte	0x311
 2599 0674 0C       		.byte	0xc
 2600 0675 94000000 		.4byte	0x94
 2601 0679 8E000000 		.4byte	.LLST23
 2602 067d 88000000 		.4byte	.LVUS23
 2603 0681 18       		.uleb128 0x18
 2604 0682 AD070000 		.4byte	.LASF83
 2605 0686 01       		.byte	0x1
 2606 0687 1103     		.2byte	0x311
 2607 0689 19       		.byte	0x19
 2608 068a 94000000 		.4byte	0x94
 2609 068e C1000000 		.4byte	.LLST24
 2610 0692 B9000000 		.4byte	.LVUS24
 2611 0696 18       		.uleb128 0x18
 2612 0697 DC050000 		.4byte	.LASF84
 2613 069b 01       		.byte	0x1
 2614 069c 1103     		.2byte	0x311
 2615 069e 29       		.byte	0x29
 2616 069f 94000000 		.4byte	0x94
 2617 06a3 02010000 		.4byte	.LLST25
 2618 06a7 FC000000 		.4byte	.LVUS25
 2619 06ab 00       		.byte	0
 2620 06ac 14       		.uleb128 0x14
 2621 06ad 01       		.byte	0x1
 2622 06ae 7F070000 		.4byte	.LASF86
 2623 06b2 01       		.byte	0x1
 2624 06b3 EB02     		.2byte	0x2eb
 2625 06b5 06       		.byte	0x6
 2626 06b6 01       		.byte	0x1
 2627 06b7 B0030000 		.4byte	.LFB45
 2628 06bb DC030000 		.4byte	.LFE45
 2629 06bf 02       		.byte	0x2
 2630 06c0 7D       		.byte	0x7d
 2631 06c1 00       		.sleb128 0
 2632 06c2 01       		.byte	0x1
 2633 06c3 EC060000 		.4byte	0x6ec
 2634 06c7 15       		.uleb128 0x15
 2635 06c8 85000000 		.4byte	.LASF49
 2636 06cc 01       		.byte	0x1
 2637 06cd EB02     		.2byte	0x2eb
 2638 06cf 1E       		.byte	0x1e
 2639 06d0 94000000 		.4byte	0x94
 2640 06d4 01       		.byte	0x1
ARM GAS  C:\Users\skey\AppData\Local\Temp\ccFDdSGQ.s 			page 65


 2641 06d5 50       		.byte	0x50
 2642 06d6 16       		.uleb128 0x16
 2643 06d7 5D020000 		.4byte	.LASF87
 2644 06db 01       		.byte	0x1
 2645 06dc EB02     		.2byte	0x2eb
 2646 06de 32       		.byte	0x32
 2647 06df 94000000 		.4byte	0x94
 2648 06e3 3A010000 		.4byte	.LLST20
 2649 06e7 34010000 		.4byte	.LVUS20
 2650 06eb 00       		.byte	0
 2651 06ec 17       		.uleb128 0x17
 2652 06ed 01       		.byte	0x1
 2653 06ee 74040000 		.4byte	.LASF89
 2654 06f2 01       		.byte	0x1
 2655 06f3 B902     		.2byte	0x2b9
 2656 06f5 0C       		.byte	0xc
 2657 06f6 01       		.byte	0x1
 2658 06f7 F3000000 		.4byte	0xf3
 2659 06fb 84030000 		.4byte	.LFB44
 2660 06ff B0030000 		.4byte	.LFE44
 2661 0703 02       		.byte	0x2
 2662 0704 7D       		.byte	0x7d
 2663 0705 00       		.sleb128 0
 2664 0706 01       		.byte	0x1
 2665 0707 5A070000 		.4byte	0x75a
 2666 070b 16       		.uleb128 0x16
 2667 070c 85000000 		.4byte	.LASF49
 2668 0710 01       		.byte	0x1
 2669 0711 B902     		.2byte	0x2b9
 2670 0713 28       		.byte	0x28
 2671 0714 94000000 		.4byte	0x94
 2672 0718 6F010000 		.4byte	.LLST17
 2673 071c 69010000 		.4byte	.LVUS17
 2674 0720 15       		.uleb128 0x15
 2675 0721 5D020000 		.4byte	.LASF87
 2676 0725 01       		.byte	0x1
 2677 0726 B902     		.2byte	0x2b9
 2678 0728 3C       		.byte	0x3c
 2679 0729 94000000 		.4byte	0x94
 2680 072d 01       		.byte	0x1
 2681 072e 51       		.byte	0x51
 2682 072f 18       		.uleb128 0x18
 2683 0730 52030000 		.4byte	.LASF81
 2684 0734 01       		.byte	0x1
 2685 0735 BB02     		.2byte	0x2bb
 2686 0737 0E       		.byte	0xe
 2687 0738 F3000000 		.4byte	0xf3
 2688 073c A1010000 		.4byte	.LLST18
 2689 0740 9B010000 		.4byte	.LVUS18
 2690 0744 18       		.uleb128 0x18
 2691 0745 87050000 		.4byte	.LASF82
 2692 0749 01       		.byte	0x1
 2693 074a BC02     		.2byte	0x2bc
 2694 074c 0C       		.byte	0xc
 2695 074d 94000000 		.4byte	0x94
 2696 0751 D9010000 		.4byte	.LLST19
 2697 0755 D3010000 		.4byte	.LVUS19
ARM GAS  C:\Users\skey\AppData\Local\Temp\ccFDdSGQ.s 			page 66


 2698 0759 00       		.byte	0
 2699 075a 14       		.uleb128 0x14
 2700 075b 01       		.byte	0x1
 2701 075c AC020000 		.4byte	.LASF90
 2702 0760 01       		.byte	0x1
 2703 0761 7D02     		.2byte	0x27d
 2704 0763 06       		.byte	0x6
 2705 0764 01       		.byte	0x1
 2706 0765 40030000 		.4byte	.LFB43
 2707 0769 84030000 		.4byte	.LFE43
 2708 076d 02       		.byte	0x2
 2709 076e 7D       		.byte	0x7d
 2710 076f 00       		.sleb128 0
 2711 0770 01       		.byte	0x1
 2712 0771 AF070000 		.4byte	0x7af
 2713 0775 15       		.uleb128 0x15
 2714 0776 85000000 		.4byte	.LASF49
 2715 077a 01       		.byte	0x1
 2716 077b 7D02     		.2byte	0x27d
 2717 077d 1D       		.byte	0x1d
 2718 077e 94000000 		.4byte	0x94
 2719 0782 01       		.byte	0x1
 2720 0783 50       		.byte	0x50
 2721 0784 16       		.uleb128 0x16
 2722 0785 B5000000 		.4byte	.LASF80
 2723 0789 01       		.byte	0x1
 2724 078a 7D02     		.2byte	0x27d
 2725 078c 31       		.byte	0x31
 2726 078d 94000000 		.4byte	0x94
 2727 0791 0E020000 		.4byte	.LLST15
 2728 0795 04020000 		.4byte	.LVUS15
 2729 0799 16       		.uleb128 0x16
 2730 079a 97030000 		.4byte	.LASF91
 2731 079e 01       		.byte	0x1
 2732 079f 7D02     		.2byte	0x27d
 2733 07a1 4A       		.byte	0x4a
 2734 07a2 29010000 		.4byte	0x129
 2735 07a6 66020000 		.4byte	.LLST16
 2736 07aa 56020000 		.4byte	.LVUS16
 2737 07ae 00       		.byte	0
 2738 07af 17       		.uleb128 0x17
 2739 07b0 01       		.byte	0x1
 2740 07b1 F9010000 		.4byte	.LASF92
 2741 07b5 01       		.byte	0x1
 2742 07b6 5B02     		.2byte	0x25b
 2743 07b8 0A       		.byte	0xa
 2744 07b9 01       		.byte	0x1
 2745 07ba 94000000 		.4byte	0x94
 2746 07be 2C030000 		.4byte	.LFB42
 2747 07c2 40030000 		.4byte	.LFE42
 2748 07c6 02       		.byte	0x2
 2749 07c7 7D       		.byte	0x7d
 2750 07c8 00       		.sleb128 0
 2751 07c9 01       		.byte	0x1
 2752 07ca F9070000 		.4byte	0x7f9
 2753 07ce 16       		.uleb128 0x16
 2754 07cf 85000000 		.4byte	.LASF49
ARM GAS  C:\Users\skey\AppData\Local\Temp\ccFDdSGQ.s 			page 67


 2755 07d3 01       		.byte	0x1
 2756 07d4 5B02     		.2byte	0x25b
 2757 07d6 1F       		.byte	0x1f
 2758 07d7 94000000 		.4byte	0x94
 2759 07db D6020000 		.4byte	.LLST13
 2760 07df D2020000 		.4byte	.LVUS13
 2761 07e3 18       		.uleb128 0x18
 2762 07e4 8D050000 		.4byte	.LASF93
 2763 07e8 01       		.byte	0x1
 2764 07e9 5D02     		.2byte	0x25d
 2765 07eb 0C       		.byte	0xc
 2766 07ec 94000000 		.4byte	0x94
 2767 07f0 FB020000 		.4byte	.LLST14
 2768 07f4 F7020000 		.4byte	.LVUS14
 2769 07f8 00       		.byte	0
 2770 07f9 14       		.uleb128 0x14
 2771 07fa 01       		.byte	0x1
 2772 07fb E5050000 		.4byte	.LASF94
 2773 07ff 01       		.byte	0x1
 2774 0800 3402     		.2byte	0x234
 2775 0802 06       		.byte	0x6
 2776 0803 01       		.byte	0x1
 2777 0804 FC020000 		.4byte	.LFB41
 2778 0808 2C030000 		.4byte	.LFE41
 2779 080c 02       		.byte	0x2
 2780 080d 7D       		.byte	0x7d
 2781 080e 00       		.sleb128 0
 2782 080f 01       		.byte	0x1
 2783 0810 39080000 		.4byte	0x839
 2784 0814 15       		.uleb128 0x15
 2785 0815 85000000 		.4byte	.LASF49
 2786 0819 01       		.byte	0x1
 2787 081a 3402     		.2byte	0x234
 2788 081c 1F       		.byte	0x1f
 2789 081d 94000000 		.4byte	0x94
 2790 0821 01       		.byte	0x1
 2791 0822 50       		.byte	0x50
 2792 0823 16       		.uleb128 0x16
 2793 0824 97030000 		.4byte	.LASF91
 2794 0828 01       		.byte	0x1
 2795 0829 3402     		.2byte	0x234
 2796 082b 3A       		.byte	0x3a
 2797 082c 29010000 		.4byte	0x129
 2798 0830 22030000 		.4byte	.LLST12
 2799 0834 1A030000 		.4byte	.LVUS12
 2800 0838 00       		.byte	0
 2801 0839 14       		.uleb128 0x14
 2802 083a 01       		.byte	0x1
 2803 083b F8040000 		.4byte	.LASF95
 2804 083f 01       		.byte	0x1
 2805 0840 1A02     		.2byte	0x21a
 2806 0842 06       		.byte	0x6
 2807 0843 01       		.byte	0x1
 2808 0844 DC020000 		.4byte	.LFB40
 2809 0848 FC020000 		.4byte	.LFE40
 2810 084c 02       		.byte	0x2
 2811 084d 7D       		.byte	0x7d
ARM GAS  C:\Users\skey\AppData\Local\Temp\ccFDdSGQ.s 			page 68


 2812 084e 00       		.sleb128 0
 2813 084f 01       		.byte	0x1
 2814 0850 64080000 		.4byte	0x864
 2815 0854 15       		.uleb128 0x15
 2816 0855 97030000 		.4byte	.LASF91
 2817 0859 01       		.byte	0x1
 2818 085a 1A02     		.2byte	0x21a
 2819 085c 25       		.byte	0x25
 2820 085d 29010000 		.4byte	0x129
 2821 0861 01       		.byte	0x1
 2822 0862 50       		.byte	0x50
 2823 0863 00       		.byte	0
 2824 0864 14       		.uleb128 0x14
 2825 0865 01       		.byte	0x1
 2826 0866 4B020000 		.4byte	.LASF96
 2827 086a 01       		.byte	0x1
 2828 086b F501     		.2byte	0x1f5
 2829 086d 06       		.byte	0x6
 2830 086e 01       		.byte	0x1
 2831 086f AC020000 		.4byte	.LFB39
 2832 0873 DC020000 		.4byte	.LFE39
 2833 0877 02       		.byte	0x2
 2834 0878 7D       		.byte	0x7d
 2835 0879 00       		.sleb128 0
 2836 087a 01       		.byte	0x1
 2837 087b A4080000 		.4byte	0x8a4
 2838 087f 15       		.uleb128 0x15
 2839 0880 85000000 		.4byte	.LASF49
 2840 0884 01       		.byte	0x1
 2841 0885 F501     		.2byte	0x1f5
 2842 0887 1C       		.byte	0x1c
 2843 0888 94000000 		.4byte	0x94
 2844 088c 01       		.byte	0x1
 2845 088d 50       		.byte	0x50
 2846 088e 16       		.uleb128 0x16
 2847 088f 97030000 		.4byte	.LASF91
 2848 0893 01       		.byte	0x1
 2849 0894 F501     		.2byte	0x1f5
 2850 0896 37       		.byte	0x37
 2851 0897 29010000 		.4byte	0x129
 2852 089b 64030000 		.4byte	.LLST11
 2853 089f 5C030000 		.4byte	.LVUS11
 2854 08a3 00       		.byte	0
 2855 08a4 14       		.uleb128 0x14
 2856 08a5 01       		.byte	0x1
 2857 08a6 07050000 		.4byte	.LASF97
 2858 08aa 01       		.byte	0x1
 2859 08ab DB01     		.2byte	0x1db
 2860 08ad 06       		.byte	0x6
 2861 08ae 01       		.byte	0x1
 2862 08af 8E020000 		.4byte	.LFB38
 2863 08b3 AC020000 		.4byte	.LFE38
 2864 08b7 02       		.byte	0x2
 2865 08b8 7D       		.byte	0x7d
 2866 08b9 00       		.sleb128 0
 2867 08ba 01       		.byte	0x1
 2868 08bb E4080000 		.4byte	0x8e4
ARM GAS  C:\Users\skey\AppData\Local\Temp\ccFDdSGQ.s 			page 69


 2869 08bf 16       		.uleb128 0x16
 2870 08c0 85000000 		.4byte	.LASF49
 2871 08c4 01       		.byte	0x1
 2872 08c5 DB01     		.2byte	0x1db
 2873 08c7 1F       		.byte	0x1f
 2874 08c8 94000000 		.4byte	0x94
 2875 08cc A2030000 		.4byte	.LLST10
 2876 08d0 9E030000 		.4byte	.LVUS10
 2877 08d4 15       		.uleb128 0x15
 2878 08d5 97030000 		.4byte	.LASF91
 2879 08d9 01       		.byte	0x1
 2880 08da DB01     		.2byte	0x1db
 2881 08dc 3A       		.byte	0x3a
 2882 08dd 29010000 		.4byte	0x129
 2883 08e1 01       		.byte	0x1
 2884 08e2 51       		.byte	0x51
 2885 08e3 00       		.byte	0
 2886 08e4 14       		.uleb128 0x14
 2887 08e5 01       		.byte	0x1
 2888 08e6 30020000 		.4byte	.LASF98
 2889 08ea 01       		.byte	0x1
 2890 08eb BC01     		.2byte	0x1bc
 2891 08ed 06       		.byte	0x6
 2892 08ee 01       		.byte	0x1
 2893 08ef 64020000 		.4byte	.LFB37
 2894 08f3 8E020000 		.4byte	.LFE37
 2895 08f7 02       		.byte	0x2
 2896 08f8 7D       		.byte	0x7d
 2897 08f9 00       		.sleb128 0
 2898 08fa 01       		.byte	0x1
 2899 08fb 0F090000 		.4byte	0x90f
 2900 08ff 15       		.uleb128 0x15
 2901 0900 04030000 		.4byte	.LASF99
 2902 0904 01       		.byte	0x1
 2903 0905 BC01     		.2byte	0x1bc
 2904 0907 34       		.byte	0x34
 2905 0908 0F090000 		.4byte	0x90f
 2906 090c 01       		.byte	0x1
 2907 090d 50       		.byte	0x50
 2908 090e 00       		.byte	0
 2909 090f 13       		.uleb128 0x13
 2910 0910 04       		.byte	0x4
 2911 0911 C8050000 		.4byte	0x5c8
 2912 0915 14       		.uleb128 0x14
 2913 0916 01       		.byte	0x1
 2914 0917 83030000 		.4byte	.LASF100
 2915 091b 01       		.byte	0x1
 2916 091c A201     		.2byte	0x1a2
 2917 091e 06       		.byte	0x6
 2918 091f 01       		.byte	0x1
 2919 0920 3A020000 		.4byte	.LFB36
 2920 0924 64020000 		.4byte	.LFE36
 2921 0928 02       		.byte	0x2
 2922 0929 7D       		.byte	0x7d
 2923 092a 00       		.sleb128 0
 2924 092b 01       		.byte	0x1
 2925 092c 40090000 		.4byte	0x940
ARM GAS  C:\Users\skey\AppData\Local\Temp\ccFDdSGQ.s 			page 70


 2926 0930 15       		.uleb128 0x15
 2927 0931 1A030000 		.4byte	.LASF101
 2928 0935 01       		.byte	0x1
 2929 0936 A201     		.2byte	0x1a2
 2930 0938 30       		.byte	0x30
 2931 0939 40090000 		.4byte	0x940
 2932 093d 01       		.byte	0x1
 2933 093e 50       		.byte	0x50
 2934 093f 00       		.byte	0
 2935 0940 13       		.uleb128 0x13
 2936 0941 04       		.byte	0x4
 2937 0942 58050000 		.4byte	0x558
 2938 0946 19       		.uleb128 0x19
 2939 0947 01       		.byte	0x1
 2940 0948 33050000 		.4byte	.LASF102
 2941 094c 01       		.byte	0x1
 2942 094d 7C01     		.2byte	0x17c
 2943 094f 06       		.byte	0x6
 2944 0950 01       		.byte	0x1
 2945 0951 EC010000 		.4byte	.LFB35
 2946 0955 3A020000 		.4byte	.LFE35
 2947 0959 C3030000 		.4byte	.LLST9
 2948 095d 01       		.byte	0x1
 2949 095e 72090000 		.4byte	0x972
 2950 0962 15       		.uleb128 0x15
 2951 0963 F5050000 		.4byte	.LASF103
 2952 0967 01       		.byte	0x1
 2953 0968 7C01     		.2byte	0x17c
 2954 096a 36       		.byte	0x36
 2955 096b 72090000 		.4byte	0x972
 2956 096f 01       		.byte	0x1
 2957 0970 50       		.byte	0x50
 2958 0971 00       		.byte	0
 2959 0972 13       		.uleb128 0x13
 2960 0973 04       		.byte	0x4
 2961 0974 63040000 		.4byte	0x463
 2962 0978 19       		.uleb128 0x19
 2963 0979 01       		.byte	0x1
 2964 097a E6030000 		.4byte	.LASF104
 2965 097e 01       		.byte	0x1
 2966 097f 4801     		.2byte	0x148
 2967 0981 06       		.byte	0x6
 2968 0982 01       		.byte	0x1
 2969 0983 84010000 		.4byte	.LFB34
 2970 0987 EC010000 		.4byte	.LFE34
 2971 098b E3030000 		.4byte	.LLST7
 2972 098f 01       		.byte	0x1
 2973 0990 AA090000 		.4byte	0x9aa
 2974 0994 16       		.uleb128 0x16
 2975 0995 04030000 		.4byte	.LASF99
 2976 0999 01       		.byte	0x1
 2977 099a 4801     		.2byte	0x148
 2978 099c 2E       		.byte	0x2e
 2979 099d 0F090000 		.4byte	0x90f
 2980 09a1 07040000 		.4byte	.LLST8
 2981 09a5 03040000 		.4byte	.LVUS8
 2982 09a9 00       		.byte	0
ARM GAS  C:\Users\skey\AppData\Local\Temp\ccFDdSGQ.s 			page 71


 2983 09aa 19       		.uleb128 0x19
 2984 09ab 01       		.byte	0x1
 2985 09ac CB000000 		.4byte	.LASF105
 2986 09b0 01       		.byte	0x1
 2987 09b1 0601     		.2byte	0x106
 2988 09b3 06       		.byte	0x6
 2989 09b4 01       		.byte	0x1
 2990 09b5 1C010000 		.4byte	.LFB33
 2991 09b9 84010000 		.4byte	.LFE33
 2992 09bd 28040000 		.4byte	.LLST2
 2993 09c1 01       		.byte	0x1
 2994 09c2 1B0A0000 		.4byte	0xa1b
 2995 09c6 16       		.uleb128 0x16
 2996 09c7 1A030000 		.4byte	.LASF101
 2997 09cb 01       		.byte	0x1
 2998 09cc 0601     		.2byte	0x106
 2999 09ce 2A       		.byte	0x2a
 3000 09cf 40090000 		.4byte	0x940
 3001 09d3 4C040000 		.4byte	.LLST3
 3002 09d7 48040000 		.4byte	.LVUS3
 3003 09db 18       		.uleb128 0x18
 3004 09dc E8010000 		.4byte	.LASF106
 3005 09e0 01       		.byte	0x1
 3006 09e1 0801     		.2byte	0x108
 3007 09e3 0C       		.byte	0xc
 3008 09e4 94000000 		.4byte	0x94
 3009 09e8 71040000 		.4byte	.LLST4
 3010 09ec 6D040000 		.4byte	.LVUS4
 3011 09f0 18       		.uleb128 0x18
 3012 09f1 7A020000 		.4byte	.LASF107
 3013 09f5 01       		.byte	0x1
 3014 09f6 0801     		.2byte	0x108
 3015 09f8 21       		.byte	0x21
 3016 09f9 94000000 		.4byte	0x94
 3017 09fd 94040000 		.4byte	.LLST5
 3018 0a01 90040000 		.4byte	.LVUS5
 3019 0a05 18       		.uleb128 0x18
 3020 0a06 E0010000 		.4byte	.LASF108
 3021 0a0a 01       		.byte	0x1
 3022 0a0b 0801     		.2byte	0x108
 3023 0a0d 37       		.byte	0x37
 3024 0a0e 94000000 		.4byte	0x94
 3025 0a12 B7040000 		.4byte	.LLST6
 3026 0a16 B3040000 		.4byte	.LVUS6
 3027 0a1a 00       		.byte	0
 3028 0a1b 1A       		.uleb128 0x1a
 3029 0a1c 01       		.byte	0x1
 3030 0a1d 08070000 		.4byte	.LASF109
 3031 0a21 01       		.byte	0x1
 3032 0a22 B0       		.byte	0xb0
 3033 0a23 06       		.byte	0x6
 3034 0a24 01       		.byte	0x1
 3035 0a25 68000000 		.4byte	.LFB32
 3036 0a29 1C010000 		.4byte	.LFE32
 3037 0a2d D6040000 		.4byte	.LLST1
 3038 0a31 01       		.byte	0x1
 3039 0a32 450A0000 		.4byte	0xa45
ARM GAS  C:\Users\skey\AppData\Local\Temp\ccFDdSGQ.s 			page 72


 3040 0a36 1B       		.uleb128 0x1b
 3041 0a37 F5050000 		.4byte	.LASF103
 3042 0a3b 01       		.byte	0x1
 3043 0a3c B0       		.byte	0xb0
 3044 0a3d 30       		.byte	0x30
 3045 0a3e 72090000 		.4byte	0x972
 3046 0a42 01       		.byte	0x1
 3047 0a43 50       		.byte	0x50
 3048 0a44 00       		.byte	0
 3049 0a45 1C       		.uleb128 0x1c
 3050 0a46 01       		.byte	0x1
 3051 0a47 E6040000 		.4byte	.LASF114
 3052 0a4b 01       		.byte	0x1
 3053 0a4c 9E       		.byte	0x9e
 3054 0a4d 06       		.byte	0x6
 3055 0a4e 01       		.byte	0x1
 3056 0a4f 4C000000 		.4byte	.LFB31
 3057 0a53 68000000 		.4byte	.LFE31
 3058 0a57 02       		.byte	0x2
 3059 0a58 7D       		.byte	0x7d
 3060 0a59 00       		.sleb128 0
 3061 0a5a 01       		.byte	0x1
 3062 0a5b 1D       		.uleb128 0x1d
 3063 0a5c 01       		.byte	0x1
 3064 0a5d 0C060000 		.4byte	.LASF110
 3065 0a61 01       		.byte	0x1
 3066 0a62 81       		.byte	0x81
 3067 0a63 06       		.byte	0x6
 3068 0a64 01       		.byte	0x1
 3069 0a65 28000000 		.4byte	.LFB30
 3070 0a69 4C000000 		.4byte	.LFE30
 3071 0a6d 02       		.byte	0x2
 3072 0a6e 7D       		.byte	0x7d
 3073 0a6f 00       		.sleb128 0
 3074 0a70 01       		.byte	0x1
 3075 0a71 840A0000 		.4byte	0xa84
 3076 0a75 1B       		.uleb128 0x1b
 3077 0a76 85000000 		.4byte	.LASF49
 3078 0a7a 01       		.byte	0x1
 3079 0a7b 81       		.byte	0x81
 3080 0a7c 1F       		.byte	0x1f
 3081 0a7d 94000000 		.4byte	0x94
 3082 0a81 01       		.byte	0x1
 3083 0a82 50       		.byte	0x50
 3084 0a83 00       		.byte	0
 3085 0a84 1E       		.uleb128 0x1e
 3086 0a85 01       		.byte	0x1
 3087 0a86 67020000 		.4byte	.LASF115
 3088 0a8a 01       		.byte	0x1
 3089 0a8b 66       		.byte	0x66
 3090 0a8c 06       		.byte	0x6
 3091 0a8d 01       		.byte	0x1
 3092 0a8e 00000000 		.4byte	.LFB29
 3093 0a92 28000000 		.4byte	.LFE29
 3094 0a96 02       		.byte	0x2
 3095 0a97 7D       		.byte	0x7d
 3096 0a98 00       		.sleb128 0
ARM GAS  C:\Users\skey\AppData\Local\Temp\ccFDdSGQ.s 			page 73


 3097 0a99 01       		.byte	0x1
 3098 0a9a 1F       		.uleb128 0x1f
 3099 0a9b 85000000 		.4byte	.LASF49
 3100 0a9f 01       		.byte	0x1
 3101 0aa0 66       		.byte	0x66
 3102 0aa1 22       		.byte	0x22
 3103 0aa2 94000000 		.4byte	0x94
 3104 0aa6 FC040000 		.4byte	.LLST0
 3105 0aaa F6040000 		.4byte	.LVUS0
 3106 0aae 00       		.byte	0
 3107 0aaf 00       		.byte	0
 3108              		.section	.debug_abbrev,"",%progbits
 3109              	.Ldebug_abbrev0:
 3110 0000 01       		.uleb128 0x1
 3111 0001 11       		.uleb128 0x11
 3112 0002 01       		.byte	0x1
 3113 0003 25       		.uleb128 0x25
 3114 0004 0E       		.uleb128 0xe
 3115 0005 13       		.uleb128 0x13
 3116 0006 0B       		.uleb128 0xb
 3117 0007 03       		.uleb128 0x3
 3118 0008 0E       		.uleb128 0xe
 3119 0009 1B       		.uleb128 0x1b
 3120 000a 0E       		.uleb128 0xe
 3121 000b 11       		.uleb128 0x11
 3122 000c 01       		.uleb128 0x1
 3123 000d 12       		.uleb128 0x12
 3124 000e 01       		.uleb128 0x1
 3125 000f 10       		.uleb128 0x10
 3126 0010 06       		.uleb128 0x6
 3127 0011 00       		.byte	0
 3128 0012 00       		.byte	0
 3129 0013 02       		.uleb128 0x2
 3130 0014 24       		.uleb128 0x24
 3131 0015 00       		.byte	0
 3132 0016 0B       		.uleb128 0xb
 3133 0017 0B       		.uleb128 0xb
 3134 0018 3E       		.uleb128 0x3e
 3135 0019 0B       		.uleb128 0xb
 3136 001a 03       		.uleb128 0x3
 3137 001b 0E       		.uleb128 0xe
 3138 001c 00       		.byte	0
 3139 001d 00       		.byte	0
 3140 001e 03       		.uleb128 0x3
 3141 001f 16       		.uleb128 0x16
 3142 0020 00       		.byte	0
 3143 0021 03       		.uleb128 0x3
 3144 0022 0E       		.uleb128 0xe
 3145 0023 3A       		.uleb128 0x3a
 3146 0024 0B       		.uleb128 0xb
 3147 0025 3B       		.uleb128 0x3b
 3148 0026 0B       		.uleb128 0xb
 3149 0027 39       		.uleb128 0x39
 3150 0028 0B       		.uleb128 0xb
 3151 0029 49       		.uleb128 0x49
 3152 002a 13       		.uleb128 0x13
 3153 002b 00       		.byte	0
ARM GAS  C:\Users\skey\AppData\Local\Temp\ccFDdSGQ.s 			page 74


 3154 002c 00       		.byte	0
 3155 002d 04       		.uleb128 0x4
 3156 002e 24       		.uleb128 0x24
 3157 002f 00       		.byte	0
 3158 0030 0B       		.uleb128 0xb
 3159 0031 0B       		.uleb128 0xb
 3160 0032 3E       		.uleb128 0x3e
 3161 0033 0B       		.uleb128 0xb
 3162 0034 03       		.uleb128 0x3
 3163 0035 08       		.uleb128 0x8
 3164 0036 00       		.byte	0
 3165 0037 00       		.byte	0
 3166 0038 05       		.uleb128 0x5
 3167 0039 35       		.uleb128 0x35
 3168 003a 00       		.byte	0
 3169 003b 49       		.uleb128 0x49
 3170 003c 13       		.uleb128 0x13
 3171 003d 00       		.byte	0
 3172 003e 00       		.byte	0
 3173 003f 06       		.uleb128 0x6
 3174 0040 01       		.uleb128 0x1
 3175 0041 01       		.byte	0x1
 3176 0042 49       		.uleb128 0x49
 3177 0043 13       		.uleb128 0x13
 3178 0044 01       		.uleb128 0x1
 3179 0045 13       		.uleb128 0x13
 3180 0046 00       		.byte	0
 3181 0047 00       		.byte	0
 3182 0048 07       		.uleb128 0x7
 3183 0049 21       		.uleb128 0x21
 3184 004a 00       		.byte	0
 3185 004b 49       		.uleb128 0x49
 3186 004c 13       		.uleb128 0x13
 3187 004d 2F       		.uleb128 0x2f
 3188 004e 0B       		.uleb128 0xb
 3189 004f 00       		.byte	0
 3190 0050 00       		.byte	0
 3191 0051 08       		.uleb128 0x8
 3192 0052 34       		.uleb128 0x34
 3193 0053 00       		.byte	0
 3194 0054 03       		.uleb128 0x3
 3195 0055 0E       		.uleb128 0xe
 3196 0056 3A       		.uleb128 0x3a
 3197 0057 0B       		.uleb128 0xb
 3198 0058 3B       		.uleb128 0x3b
 3199 0059 05       		.uleb128 0x5
 3200 005a 39       		.uleb128 0x39
 3201 005b 0B       		.uleb128 0xb
 3202 005c 49       		.uleb128 0x49
 3203 005d 13       		.uleb128 0x13
 3204 005e 3F       		.uleb128 0x3f
 3205 005f 0C       		.uleb128 0xc
 3206 0060 3C       		.uleb128 0x3c
 3207 0061 0C       		.uleb128 0xc
 3208 0062 00       		.byte	0
 3209 0063 00       		.byte	0
 3210 0064 09       		.uleb128 0x9
ARM GAS  C:\Users\skey\AppData\Local\Temp\ccFDdSGQ.s 			page 75


 3211 0065 34       		.uleb128 0x34
 3212 0066 00       		.byte	0
 3213 0067 03       		.uleb128 0x3
 3214 0068 0E       		.uleb128 0xe
 3215 0069 3A       		.uleb128 0x3a
 3216 006a 0B       		.uleb128 0xb
 3217 006b 3B       		.uleb128 0x3b
 3218 006c 0B       		.uleb128 0xb
 3219 006d 39       		.uleb128 0x39
 3220 006e 0B       		.uleb128 0xb
 3221 006f 49       		.uleb128 0x49
 3222 0070 13       		.uleb128 0x13
 3223 0071 3F       		.uleb128 0x3f
 3224 0072 0C       		.uleb128 0xc
 3225 0073 3C       		.uleb128 0x3c
 3226 0074 0C       		.uleb128 0xc
 3227 0075 00       		.byte	0
 3228 0076 00       		.byte	0
 3229 0077 0A       		.uleb128 0xa
 3230 0078 04       		.uleb128 0x4
 3231 0079 01       		.byte	0x1
 3232 007a 3E       		.uleb128 0x3e
 3233 007b 0B       		.uleb128 0xb
 3234 007c 0B       		.uleb128 0xb
 3235 007d 0B       		.uleb128 0xb
 3236 007e 49       		.uleb128 0x49
 3237 007f 13       		.uleb128 0x13
 3238 0080 3A       		.uleb128 0x3a
 3239 0081 0B       		.uleb128 0xb
 3240 0082 3B       		.uleb128 0x3b
 3241 0083 05       		.uleb128 0x5
 3242 0084 39       		.uleb128 0x39
 3243 0085 0B       		.uleb128 0xb
 3244 0086 01       		.uleb128 0x1
 3245 0087 13       		.uleb128 0x13
 3246 0088 00       		.byte	0
 3247 0089 00       		.byte	0
 3248 008a 0B       		.uleb128 0xb
 3249 008b 28       		.uleb128 0x28
 3250 008c 00       		.byte	0
 3251 008d 03       		.uleb128 0x3
 3252 008e 0E       		.uleb128 0xe
 3253 008f 1C       		.uleb128 0x1c
 3254 0090 0B       		.uleb128 0xb
 3255 0091 00       		.byte	0
 3256 0092 00       		.byte	0
 3257 0093 0C       		.uleb128 0xc
 3258 0094 28       		.uleb128 0x28
 3259 0095 00       		.byte	0
 3260 0096 03       		.uleb128 0x3
 3261 0097 08       		.uleb128 0x8
 3262 0098 1C       		.uleb128 0x1c
 3263 0099 0B       		.uleb128 0xb
 3264 009a 00       		.byte	0
 3265 009b 00       		.byte	0
 3266 009c 0D       		.uleb128 0xd
 3267 009d 16       		.uleb128 0x16
ARM GAS  C:\Users\skey\AppData\Local\Temp\ccFDdSGQ.s 			page 76


 3268 009e 00       		.byte	0
 3269 009f 03       		.uleb128 0x3
 3270 00a0 0E       		.uleb128 0xe
 3271 00a1 3A       		.uleb128 0x3a
 3272 00a2 0B       		.uleb128 0xb
 3273 00a3 3B       		.uleb128 0x3b
 3274 00a4 05       		.uleb128 0x5
 3275 00a5 39       		.uleb128 0x39
 3276 00a6 0B       		.uleb128 0xb
 3277 00a7 49       		.uleb128 0x49
 3278 00a8 13       		.uleb128 0x13
 3279 00a9 00       		.byte	0
 3280 00aa 00       		.byte	0
 3281 00ab 0E       		.uleb128 0xe
 3282 00ac 13       		.uleb128 0x13
 3283 00ad 01       		.byte	0x1
 3284 00ae 0B       		.uleb128 0xb
 3285 00af 0B       		.uleb128 0xb
 3286 00b0 3A       		.uleb128 0x3a
 3287 00b1 0B       		.uleb128 0xb
 3288 00b2 3B       		.uleb128 0x3b
 3289 00b3 05       		.uleb128 0x5
 3290 00b4 39       		.uleb128 0x39
 3291 00b5 0B       		.uleb128 0xb
 3292 00b6 01       		.uleb128 0x1
 3293 00b7 13       		.uleb128 0x13
 3294 00b8 00       		.byte	0
 3295 00b9 00       		.byte	0
 3296 00ba 0F       		.uleb128 0xf
 3297 00bb 0D       		.uleb128 0xd
 3298 00bc 00       		.byte	0
 3299 00bd 03       		.uleb128 0x3
 3300 00be 0E       		.uleb128 0xe
 3301 00bf 3A       		.uleb128 0x3a
 3302 00c0 0B       		.uleb128 0xb
 3303 00c1 3B       		.uleb128 0x3b
 3304 00c2 05       		.uleb128 0x5
 3305 00c3 39       		.uleb128 0x39
 3306 00c4 0B       		.uleb128 0xb
 3307 00c5 49       		.uleb128 0x49
 3308 00c6 13       		.uleb128 0x13
 3309 00c7 38       		.uleb128 0x38
 3310 00c8 0A       		.uleb128 0xa
 3311 00c9 00       		.byte	0
 3312 00ca 00       		.byte	0
 3313 00cb 10       		.uleb128 0x10
 3314 00cc 0D       		.uleb128 0xd
 3315 00cd 00       		.byte	0
 3316 00ce 03       		.uleb128 0x3
 3317 00cf 08       		.uleb128 0x8
 3318 00d0 3A       		.uleb128 0x3a
 3319 00d1 0B       		.uleb128 0xb
 3320 00d2 3B       		.uleb128 0x3b
 3321 00d3 05       		.uleb128 0x5
 3322 00d4 39       		.uleb128 0x39
 3323 00d5 0B       		.uleb128 0xb
 3324 00d6 49       		.uleb128 0x49
ARM GAS  C:\Users\skey\AppData\Local\Temp\ccFDdSGQ.s 			page 77


 3325 00d7 13       		.uleb128 0x13
 3326 00d8 38       		.uleb128 0x38
 3327 00d9 0A       		.uleb128 0xa
 3328 00da 00       		.byte	0
 3329 00db 00       		.byte	0
 3330 00dc 11       		.uleb128 0x11
 3331 00dd 13       		.uleb128 0x13
 3332 00de 01       		.byte	0x1
 3333 00df 0B       		.uleb128 0xb
 3334 00e0 0B       		.uleb128 0xb
 3335 00e1 3A       		.uleb128 0x3a
 3336 00e2 0B       		.uleb128 0xb
 3337 00e3 3B       		.uleb128 0x3b
 3338 00e4 0B       		.uleb128 0xb
 3339 00e5 39       		.uleb128 0x39
 3340 00e6 0B       		.uleb128 0xb
 3341 00e7 01       		.uleb128 0x1
 3342 00e8 13       		.uleb128 0x13
 3343 00e9 00       		.byte	0
 3344 00ea 00       		.byte	0
 3345 00eb 12       		.uleb128 0x12
 3346 00ec 0D       		.uleb128 0xd
 3347 00ed 00       		.byte	0
 3348 00ee 03       		.uleb128 0x3
 3349 00ef 0E       		.uleb128 0xe
 3350 00f0 3A       		.uleb128 0x3a
 3351 00f1 0B       		.uleb128 0xb
 3352 00f2 3B       		.uleb128 0x3b
 3353 00f3 0B       		.uleb128 0xb
 3354 00f4 39       		.uleb128 0x39
 3355 00f5 0B       		.uleb128 0xb
 3356 00f6 49       		.uleb128 0x49
 3357 00f7 13       		.uleb128 0x13
 3358 00f8 38       		.uleb128 0x38
 3359 00f9 0A       		.uleb128 0xa
 3360 00fa 00       		.byte	0
 3361 00fb 00       		.byte	0
 3362 00fc 13       		.uleb128 0x13
 3363 00fd 0F       		.uleb128 0xf
 3364 00fe 00       		.byte	0
 3365 00ff 0B       		.uleb128 0xb
 3366 0100 0B       		.uleb128 0xb
 3367 0101 49       		.uleb128 0x49
 3368 0102 13       		.uleb128 0x13
 3369 0103 00       		.byte	0
 3370 0104 00       		.byte	0
 3371 0105 14       		.uleb128 0x14
 3372 0106 2E       		.uleb128 0x2e
 3373 0107 01       		.byte	0x1
 3374 0108 3F       		.uleb128 0x3f
 3375 0109 0C       		.uleb128 0xc
 3376 010a 03       		.uleb128 0x3
 3377 010b 0E       		.uleb128 0xe
 3378 010c 3A       		.uleb128 0x3a
 3379 010d 0B       		.uleb128 0xb
 3380 010e 3B       		.uleb128 0x3b
 3381 010f 05       		.uleb128 0x5
ARM GAS  C:\Users\skey\AppData\Local\Temp\ccFDdSGQ.s 			page 78


 3382 0110 39       		.uleb128 0x39
 3383 0111 0B       		.uleb128 0xb
 3384 0112 27       		.uleb128 0x27
 3385 0113 0C       		.uleb128 0xc
 3386 0114 11       		.uleb128 0x11
 3387 0115 01       		.uleb128 0x1
 3388 0116 12       		.uleb128 0x12
 3389 0117 01       		.uleb128 0x1
 3390 0118 40       		.uleb128 0x40
 3391 0119 0A       		.uleb128 0xa
 3392 011a 9742     		.uleb128 0x2117
 3393 011c 0C       		.uleb128 0xc
 3394 011d 01       		.uleb128 0x1
 3395 011e 13       		.uleb128 0x13
 3396 011f 00       		.byte	0
 3397 0120 00       		.byte	0
 3398 0121 15       		.uleb128 0x15
 3399 0122 05       		.uleb128 0x5
 3400 0123 00       		.byte	0
 3401 0124 03       		.uleb128 0x3
 3402 0125 0E       		.uleb128 0xe
 3403 0126 3A       		.uleb128 0x3a
 3404 0127 0B       		.uleb128 0xb
 3405 0128 3B       		.uleb128 0x3b
 3406 0129 05       		.uleb128 0x5
 3407 012a 39       		.uleb128 0x39
 3408 012b 0B       		.uleb128 0xb
 3409 012c 49       		.uleb128 0x49
 3410 012d 13       		.uleb128 0x13
 3411 012e 02       		.uleb128 0x2
 3412 012f 0A       		.uleb128 0xa
 3413 0130 00       		.byte	0
 3414 0131 00       		.byte	0
 3415 0132 16       		.uleb128 0x16
 3416 0133 05       		.uleb128 0x5
 3417 0134 00       		.byte	0
 3418 0135 03       		.uleb128 0x3
 3419 0136 0E       		.uleb128 0xe
 3420 0137 3A       		.uleb128 0x3a
 3421 0138 0B       		.uleb128 0xb
 3422 0139 3B       		.uleb128 0x3b
 3423 013a 05       		.uleb128 0x5
 3424 013b 39       		.uleb128 0x39
 3425 013c 0B       		.uleb128 0xb
 3426 013d 49       		.uleb128 0x49
 3427 013e 13       		.uleb128 0x13
 3428 013f 02       		.uleb128 0x2
 3429 0140 06       		.uleb128 0x6
 3430 0141 B742     		.uleb128 0x2137
 3431 0143 06       		.uleb128 0x6
 3432 0144 00       		.byte	0
 3433 0145 00       		.byte	0
 3434 0146 17       		.uleb128 0x17
 3435 0147 2E       		.uleb128 0x2e
 3436 0148 01       		.byte	0x1
 3437 0149 3F       		.uleb128 0x3f
 3438 014a 0C       		.uleb128 0xc
ARM GAS  C:\Users\skey\AppData\Local\Temp\ccFDdSGQ.s 			page 79


 3439 014b 03       		.uleb128 0x3
 3440 014c 0E       		.uleb128 0xe
 3441 014d 3A       		.uleb128 0x3a
 3442 014e 0B       		.uleb128 0xb
 3443 014f 3B       		.uleb128 0x3b
 3444 0150 05       		.uleb128 0x5
 3445 0151 39       		.uleb128 0x39
 3446 0152 0B       		.uleb128 0xb
 3447 0153 27       		.uleb128 0x27
 3448 0154 0C       		.uleb128 0xc
 3449 0155 49       		.uleb128 0x49
 3450 0156 13       		.uleb128 0x13
 3451 0157 11       		.uleb128 0x11
 3452 0158 01       		.uleb128 0x1
 3453 0159 12       		.uleb128 0x12
 3454 015a 01       		.uleb128 0x1
 3455 015b 40       		.uleb128 0x40
 3456 015c 0A       		.uleb128 0xa
 3457 015d 9742     		.uleb128 0x2117
 3458 015f 0C       		.uleb128 0xc
 3459 0160 01       		.uleb128 0x1
 3460 0161 13       		.uleb128 0x13
 3461 0162 00       		.byte	0
 3462 0163 00       		.byte	0
 3463 0164 18       		.uleb128 0x18
 3464 0165 34       		.uleb128 0x34
 3465 0166 00       		.byte	0
 3466 0167 03       		.uleb128 0x3
 3467 0168 0E       		.uleb128 0xe
 3468 0169 3A       		.uleb128 0x3a
 3469 016a 0B       		.uleb128 0xb
 3470 016b 3B       		.uleb128 0x3b
 3471 016c 05       		.uleb128 0x5
 3472 016d 39       		.uleb128 0x39
 3473 016e 0B       		.uleb128 0xb
 3474 016f 49       		.uleb128 0x49
 3475 0170 13       		.uleb128 0x13
 3476 0171 02       		.uleb128 0x2
 3477 0172 06       		.uleb128 0x6
 3478 0173 B742     		.uleb128 0x2137
 3479 0175 06       		.uleb128 0x6
 3480 0176 00       		.byte	0
 3481 0177 00       		.byte	0
 3482 0178 19       		.uleb128 0x19
 3483 0179 2E       		.uleb128 0x2e
 3484 017a 01       		.byte	0x1
 3485 017b 3F       		.uleb128 0x3f
 3486 017c 0C       		.uleb128 0xc
 3487 017d 03       		.uleb128 0x3
 3488 017e 0E       		.uleb128 0xe
 3489 017f 3A       		.uleb128 0x3a
 3490 0180 0B       		.uleb128 0xb
 3491 0181 3B       		.uleb128 0x3b
 3492 0182 05       		.uleb128 0x5
 3493 0183 39       		.uleb128 0x39
 3494 0184 0B       		.uleb128 0xb
 3495 0185 27       		.uleb128 0x27
ARM GAS  C:\Users\skey\AppData\Local\Temp\ccFDdSGQ.s 			page 80


 3496 0186 0C       		.uleb128 0xc
 3497 0187 11       		.uleb128 0x11
 3498 0188 01       		.uleb128 0x1
 3499 0189 12       		.uleb128 0x12
 3500 018a 01       		.uleb128 0x1
 3501 018b 40       		.uleb128 0x40
 3502 018c 06       		.uleb128 0x6
 3503 018d 9742     		.uleb128 0x2117
 3504 018f 0C       		.uleb128 0xc
 3505 0190 01       		.uleb128 0x1
 3506 0191 13       		.uleb128 0x13
 3507 0192 00       		.byte	0
 3508 0193 00       		.byte	0
 3509 0194 1A       		.uleb128 0x1a
 3510 0195 2E       		.uleb128 0x2e
 3511 0196 01       		.byte	0x1
 3512 0197 3F       		.uleb128 0x3f
 3513 0198 0C       		.uleb128 0xc
 3514 0199 03       		.uleb128 0x3
 3515 019a 0E       		.uleb128 0xe
 3516 019b 3A       		.uleb128 0x3a
 3517 019c 0B       		.uleb128 0xb
 3518 019d 3B       		.uleb128 0x3b
 3519 019e 0B       		.uleb128 0xb
 3520 019f 39       		.uleb128 0x39
 3521 01a0 0B       		.uleb128 0xb
 3522 01a1 27       		.uleb128 0x27
 3523 01a2 0C       		.uleb128 0xc
 3524 01a3 11       		.uleb128 0x11
 3525 01a4 01       		.uleb128 0x1
 3526 01a5 12       		.uleb128 0x12
 3527 01a6 01       		.uleb128 0x1
 3528 01a7 40       		.uleb128 0x40
 3529 01a8 06       		.uleb128 0x6
 3530 01a9 9742     		.uleb128 0x2117
 3531 01ab 0C       		.uleb128 0xc
 3532 01ac 01       		.uleb128 0x1
 3533 01ad 13       		.uleb128 0x13
 3534 01ae 00       		.byte	0
 3535 01af 00       		.byte	0
 3536 01b0 1B       		.uleb128 0x1b
 3537 01b1 05       		.uleb128 0x5
 3538 01b2 00       		.byte	0
 3539 01b3 03       		.uleb128 0x3
 3540 01b4 0E       		.uleb128 0xe
 3541 01b5 3A       		.uleb128 0x3a
 3542 01b6 0B       		.uleb128 0xb
 3543 01b7 3B       		.uleb128 0x3b
 3544 01b8 0B       		.uleb128 0xb
 3545 01b9 39       		.uleb128 0x39
 3546 01ba 0B       		.uleb128 0xb
 3547 01bb 49       		.uleb128 0x49
 3548 01bc 13       		.uleb128 0x13
 3549 01bd 02       		.uleb128 0x2
 3550 01be 0A       		.uleb128 0xa
 3551 01bf 00       		.byte	0
 3552 01c0 00       		.byte	0
ARM GAS  C:\Users\skey\AppData\Local\Temp\ccFDdSGQ.s 			page 81


 3553 01c1 1C       		.uleb128 0x1c
 3554 01c2 2E       		.uleb128 0x2e
 3555 01c3 00       		.byte	0
 3556 01c4 3F       		.uleb128 0x3f
 3557 01c5 0C       		.uleb128 0xc
 3558 01c6 03       		.uleb128 0x3
 3559 01c7 0E       		.uleb128 0xe
 3560 01c8 3A       		.uleb128 0x3a
 3561 01c9 0B       		.uleb128 0xb
 3562 01ca 3B       		.uleb128 0x3b
 3563 01cb 0B       		.uleb128 0xb
 3564 01cc 39       		.uleb128 0x39
 3565 01cd 0B       		.uleb128 0xb
 3566 01ce 27       		.uleb128 0x27
 3567 01cf 0C       		.uleb128 0xc
 3568 01d0 11       		.uleb128 0x11
 3569 01d1 01       		.uleb128 0x1
 3570 01d2 12       		.uleb128 0x12
 3571 01d3 01       		.uleb128 0x1
 3572 01d4 40       		.uleb128 0x40
 3573 01d5 0A       		.uleb128 0xa
 3574 01d6 9742     		.uleb128 0x2117
 3575 01d8 0C       		.uleb128 0xc
 3576 01d9 00       		.byte	0
 3577 01da 00       		.byte	0
 3578 01db 1D       		.uleb128 0x1d
 3579 01dc 2E       		.uleb128 0x2e
 3580 01dd 01       		.byte	0x1
 3581 01de 3F       		.uleb128 0x3f
 3582 01df 0C       		.uleb128 0xc
 3583 01e0 03       		.uleb128 0x3
 3584 01e1 0E       		.uleb128 0xe
 3585 01e2 3A       		.uleb128 0x3a
 3586 01e3 0B       		.uleb128 0xb
 3587 01e4 3B       		.uleb128 0x3b
 3588 01e5 0B       		.uleb128 0xb
 3589 01e6 39       		.uleb128 0x39
 3590 01e7 0B       		.uleb128 0xb
 3591 01e8 27       		.uleb128 0x27
 3592 01e9 0C       		.uleb128 0xc
 3593 01ea 11       		.uleb128 0x11
 3594 01eb 01       		.uleb128 0x1
 3595 01ec 12       		.uleb128 0x12
 3596 01ed 01       		.uleb128 0x1
 3597 01ee 40       		.uleb128 0x40
 3598 01ef 0A       		.uleb128 0xa
 3599 01f0 9742     		.uleb128 0x2117
 3600 01f2 0C       		.uleb128 0xc
 3601 01f3 01       		.uleb128 0x1
 3602 01f4 13       		.uleb128 0x13
 3603 01f5 00       		.byte	0
 3604 01f6 00       		.byte	0
 3605 01f7 1E       		.uleb128 0x1e
 3606 01f8 2E       		.uleb128 0x2e
 3607 01f9 01       		.byte	0x1
 3608 01fa 3F       		.uleb128 0x3f
 3609 01fb 0C       		.uleb128 0xc
ARM GAS  C:\Users\skey\AppData\Local\Temp\ccFDdSGQ.s 			page 82


 3610 01fc 03       		.uleb128 0x3
 3611 01fd 0E       		.uleb128 0xe
 3612 01fe 3A       		.uleb128 0x3a
 3613 01ff 0B       		.uleb128 0xb
 3614 0200 3B       		.uleb128 0x3b
 3615 0201 0B       		.uleb128 0xb
 3616 0202 39       		.uleb128 0x39
 3617 0203 0B       		.uleb128 0xb
 3618 0204 27       		.uleb128 0x27
 3619 0205 0C       		.uleb128 0xc
 3620 0206 11       		.uleb128 0x11
 3621 0207 01       		.uleb128 0x1
 3622 0208 12       		.uleb128 0x12
 3623 0209 01       		.uleb128 0x1
 3624 020a 40       		.uleb128 0x40
 3625 020b 0A       		.uleb128 0xa
 3626 020c 9742     		.uleb128 0x2117
 3627 020e 0C       		.uleb128 0xc
 3628 020f 00       		.byte	0
 3629 0210 00       		.byte	0
 3630 0211 1F       		.uleb128 0x1f
 3631 0212 05       		.uleb128 0x5
 3632 0213 00       		.byte	0
 3633 0214 03       		.uleb128 0x3
 3634 0215 0E       		.uleb128 0xe
 3635 0216 3A       		.uleb128 0x3a
 3636 0217 0B       		.uleb128 0xb
 3637 0218 3B       		.uleb128 0x3b
 3638 0219 0B       		.uleb128 0xb
 3639 021a 39       		.uleb128 0x39
 3640 021b 0B       		.uleb128 0xb
 3641 021c 49       		.uleb128 0x49
 3642 021d 13       		.uleb128 0x13
 3643 021e 02       		.uleb128 0x2
 3644 021f 06       		.uleb128 0x6
 3645 0220 B742     		.uleb128 0x2137
 3646 0222 06       		.uleb128 0x6
 3647 0223 00       		.byte	0
 3648 0224 00       		.byte	0
 3649 0225 00       		.byte	0
 3650              		.section	.debug_loc,"",%progbits
 3651              	.Ldebug_loc0:
 3652              	.LVUS26:
 3653 0000 00       		.uleb128 0
 3654 0001 00       		.uleb128 .LVU487
 3655 0002 00       		.uleb128 .LVU487
 3656 0003 00       		.uleb128 0
 3657              	.LLST26:
 3658 0004 10040000 		.4byte	.LVL52-.Ltext0
 3659 0008 16040000 		.4byte	.LVL53-.Ltext0
 3660 000c 0100     		.2byte	0x1
 3661 000e 51       		.byte	0x51
 3662 000f 16040000 		.4byte	.LVL53-.Ltext0
 3663 0013 3C040000 		.4byte	.LFE47-.Ltext0
 3664 0017 0400     		.2byte	0x4
 3665 0019 F3       		.byte	0xf3
 3666 001a 01       		.uleb128 0x1
ARM GAS  C:\Users\skey\AppData\Local\Temp\ccFDdSGQ.s 			page 83


 3667 001b 51       		.byte	0x51
 3668 001c 9F       		.byte	0x9f
 3669 001d 00000000 		.4byte	0
 3670 0021 00000000 		.4byte	0
 3671              	.LVUS21:
 3672 0025 00       		.uleb128 0
 3673 0026 00       		.uleb128 .LVU470
 3674 0027 00       		.uleb128 .LVU470
 3675 0028 00       		.uleb128 .LVU476
 3676 0029 00       		.uleb128 .LVU476
 3677 002a 00       		.uleb128 0
 3678              	.LLST21:
 3679 002b DC030000 		.4byte	.LVL45-.Ltext0
 3680 002f E8030000 		.4byte	.LVL47-.Ltext0
 3681 0033 0100     		.2byte	0x1
 3682 0035 50       		.byte	0x50
 3683 0036 E8030000 		.4byte	.LVL47-.Ltext0
 3684 003a F6030000 		.4byte	.LVL51-.Ltext0
 3685 003e 0400     		.2byte	0x4
 3686 0040 F3       		.byte	0xf3
 3687 0041 01       		.uleb128 0x1
 3688 0042 50       		.byte	0x50
 3689 0043 9F       		.byte	0x9f
 3690 0044 F6030000 		.4byte	.LVL51-.Ltext0
 3691 0048 10040000 		.4byte	.LFE46-.Ltext0
 3692 004c 0100     		.2byte	0x1
 3693 004e 50       		.byte	0x50
 3694 004f 00000000 		.4byte	0
 3695 0053 00000000 		.4byte	0
 3696              	.LVUS22:
 3697 0057 02       		.uleb128 .LVU458
 3698 0058 00       		.uleb128 .LVU474
 3699 0059 00       		.uleb128 .LVU474
 3700 005a 00       		.uleb128 .LVU476
 3701 005b 00       		.uleb128 .LVU476
 3702 005c 00       		.uleb128 0
 3703              	.LLST22:
 3704 005d DC030000 		.4byte	.LVL45-.Ltext0
 3705 0061 F4030000 		.4byte	.LVL50-.Ltext0
 3706 0065 0200     		.2byte	0x2
 3707 0067 30       		.byte	0x30
 3708 0068 9F       		.byte	0x9f
 3709 0069 F4030000 		.4byte	.LVL50-.Ltext0
 3710 006d F6030000 		.4byte	.LVL51-.Ltext0
 3711 0071 0100     		.2byte	0x1
 3712 0073 50       		.byte	0x50
 3713 0074 F6030000 		.4byte	.LVL51-.Ltext0
 3714 0078 10040000 		.4byte	.LFE46-.Ltext0
 3715 007c 0200     		.2byte	0x2
 3716 007e 30       		.byte	0x30
 3717 007f 9F       		.byte	0x9f
 3718 0080 00000000 		.4byte	0
 3719 0084 00000000 		.4byte	0
 3720              	.LVUS23:
 3721 0088 03       		.uleb128 .LVU459
 3722 0089 00       		.uleb128 .LVU466
 3723 008a 00       		.uleb128 .LVU466
ARM GAS  C:\Users\skey\AppData\Local\Temp\ccFDdSGQ.s 			page 84


 3724 008b 00       		.uleb128 .LVU472
 3725 008c 00       		.uleb128 .LVU476
 3726 008d 00       		.uleb128 0
 3727              	.LLST23:
 3728 008e DC030000 		.4byte	.LVL45-.Ltext0
 3729 0092 E4030000 		.4byte	.LVL46-.Ltext0
 3730 0096 0200     		.2byte	0x2
 3731 0098 30       		.byte	0x30
 3732 0099 9F       		.byte	0x9f
 3733 009a E4030000 		.4byte	.LVL46-.Ltext0
 3734 009e EE030000 		.4byte	.LVL48-.Ltext0
 3735 00a2 0100     		.2byte	0x1
 3736 00a4 53       		.byte	0x53
 3737 00a5 F6030000 		.4byte	.LVL51-.Ltext0
 3738 00a9 10040000 		.4byte	.LFE46-.Ltext0
 3739 00ad 0200     		.2byte	0x2
 3740 00af 30       		.byte	0x30
 3741 00b0 9F       		.byte	0x9f
 3742 00b1 00000000 		.4byte	0
 3743 00b5 00000000 		.4byte	0
 3744              	.LVUS24:
 3745 00b9 03       		.uleb128 .LVU459
 3746 00ba 01       		.uleb128 .LVU467
 3747 00bb 01       		.uleb128 .LVU467
 3748 00bc 00       		.uleb128 .LVU470
 3749 00bd 00       		.uleb128 .LVU470
 3750 00be 00       		.uleb128 .LVU473
 3751 00bf 00       		.uleb128 .LVU476
 3752 00c0 00       		.uleb128 0
 3753              	.LLST24:
 3754 00c1 DC030000 		.4byte	.LVL45-.Ltext0
 3755 00c5 E4030000 		.4byte	.LVL46-.Ltext0
 3756 00c9 0200     		.2byte	0x2
 3757 00cb 30       		.byte	0x30
 3758 00cc 9F       		.byte	0x9f
 3759 00cd E4030000 		.4byte	.LVL46-.Ltext0
 3760 00d1 E8030000 		.4byte	.LVL47-.Ltext0
 3761 00d5 0600     		.2byte	0x6
 3762 00d7 73       		.byte	0x73
 3763 00d8 00       		.sleb128 0
 3764 00d9 71       		.byte	0x71
 3765 00da 00       		.sleb128 0
 3766 00db 1A       		.byte	0x1a
 3767 00dc 9F       		.byte	0x9f
 3768 00dd E8030000 		.4byte	.LVL47-.Ltext0
 3769 00e1 F2030000 		.4byte	.LVL49-.Ltext0
 3770 00e5 0100     		.2byte	0x1
 3771 00e7 50       		.byte	0x50
 3772 00e8 F6030000 		.4byte	.LVL51-.Ltext0
 3773 00ec 10040000 		.4byte	.LFE46-.Ltext0
 3774 00f0 0200     		.2byte	0x2
 3775 00f2 30       		.byte	0x30
 3776 00f3 9F       		.byte	0x9f
 3777 00f4 00000000 		.4byte	0
 3778 00f8 00000000 		.4byte	0
 3779              	.LVUS25:
 3780 00fc 03       		.uleb128 .LVU459
ARM GAS  C:\Users\skey\AppData\Local\Temp\ccFDdSGQ.s 			page 85


 3781 00fd 02       		.uleb128 .LVU468
 3782 00fe 02       		.uleb128 .LVU468
 3783 00ff 00       		.uleb128 .LVU472
 3784 0100 00       		.uleb128 .LVU476
 3785 0101 00       		.uleb128 0
 3786              	.LLST25:
 3787 0102 DC030000 		.4byte	.LVL45-.Ltext0
 3788 0106 E4030000 		.4byte	.LVL46-.Ltext0
 3789 010a 0200     		.2byte	0x2
 3790 010c 30       		.byte	0x30
 3791 010d 9F       		.byte	0x9f
 3792 010e E4030000 		.4byte	.LVL46-.Ltext0
 3793 0112 EE030000 		.4byte	.LVL48-.Ltext0
 3794 0116 0800     		.2byte	0x8
 3795 0118 71       		.byte	0x71
 3796 0119 00       		.sleb128 0
 3797 011a 33       		.byte	0x33
 3798 011b 25       		.byte	0x25
 3799 011c 73       		.byte	0x73
 3800 011d 00       		.sleb128 0
 3801 011e 1A       		.byte	0x1a
 3802 011f 9F       		.byte	0x9f
 3803 0120 F6030000 		.4byte	.LVL51-.Ltext0
 3804 0124 10040000 		.4byte	.LFE46-.Ltext0
 3805 0128 0200     		.2byte	0x2
 3806 012a 30       		.byte	0x30
 3807 012b 9F       		.byte	0x9f
 3808 012c 00000000 		.4byte	0
 3809 0130 00000000 		.4byte	0
 3810              	.LVUS20:
 3811 0134 00       		.uleb128 0
 3812 0135 00       		.uleb128 .LVU444
 3813 0136 00       		.uleb128 .LVU444
 3814 0137 00       		.uleb128 .LVU448
 3815 0138 00       		.uleb128 .LVU448
 3816 0139 00       		.uleb128 0
 3817              	.LLST20:
 3818 013a B0030000 		.4byte	.LVL42-.Ltext0
 3819 013e B6030000 		.4byte	.LVL43-.Ltext0
 3820 0142 0100     		.2byte	0x1
 3821 0144 51       		.byte	0x51
 3822 0145 B6030000 		.4byte	.LVL43-.Ltext0
 3823 0149 BE030000 		.4byte	.LVL44-.Ltext0
 3824 014d 0400     		.2byte	0x4
 3825 014f 71       		.byte	0x71
 3826 0150 00       		.sleb128 0
 3827 0151 20       		.byte	0x20
 3828 0152 9F       		.byte	0x9f
 3829 0153 BE030000 		.4byte	.LVL44-.Ltext0
 3830 0157 DC030000 		.4byte	.LFE45-.Ltext0
 3831 015b 0400     		.2byte	0x4
 3832 015d F3       		.byte	0xf3
 3833 015e 01       		.uleb128 0x1
 3834 015f 51       		.byte	0x51
 3835 0160 9F       		.byte	0x9f
 3836 0161 00000000 		.4byte	0
 3837 0165 00000000 		.4byte	0
ARM GAS  C:\Users\skey\AppData\Local\Temp\ccFDdSGQ.s 			page 86


 3838              	.LVUS17:
 3839 0169 00       		.uleb128 0
 3840 016a 00       		.uleb128 .LVU432
 3841 016b 00       		.uleb128 .LVU432
 3842 016c 00       		.uleb128 .LVU433
 3843 016d 00       		.uleb128 .LVU433
 3844 016e 00       		.uleb128 0
 3845              	.LLST17:
 3846 016f 84030000 		.4byte	.LVL38-.Ltext0
 3847 0173 92030000 		.4byte	.LVL40-.Ltext0
 3848 0177 0100     		.2byte	0x1
 3849 0179 50       		.byte	0x50
 3850 017a 92030000 		.4byte	.LVL40-.Ltext0
 3851 017e 96030000 		.4byte	.LVL41-.Ltext0
 3852 0182 0400     		.2byte	0x4
 3853 0184 F3       		.byte	0xf3
 3854 0185 01       		.uleb128 0x1
 3855 0186 50       		.byte	0x50
 3856 0187 9F       		.byte	0x9f
 3857 0188 96030000 		.4byte	.LVL41-.Ltext0
 3858 018c B0030000 		.4byte	.LFE44-.Ltext0
 3859 0190 0100     		.2byte	0x1
 3860 0192 50       		.byte	0x50
 3861 0193 00000000 		.4byte	0
 3862 0197 00000000 		.4byte	0
 3863              	.LVUS18:
 3864 019b 02       		.uleb128 .LVU420
 3865 019c 01       		.uleb128 .LVU429
 3866 019d 01       		.uleb128 .LVU429
 3867 019e 00       		.uleb128 .LVU433
 3868 019f 00       		.uleb128 .LVU433
 3869 01a0 00       		.uleb128 0
 3870              	.LLST18:
 3871 01a1 84030000 		.4byte	.LVL38-.Ltext0
 3872 01a5 8C030000 		.4byte	.LVL39-.Ltext0
 3873 01a9 0200     		.2byte	0x2
 3874 01ab 30       		.byte	0x30
 3875 01ac 9F       		.byte	0x9f
 3876 01ad 8C030000 		.4byte	.LVL39-.Ltext0
 3877 01b1 96030000 		.4byte	.LVL41-.Ltext0
 3878 01b5 0800     		.2byte	0x8
 3879 01b7 73       		.byte	0x73
 3880 01b8 00       		.sleb128 0
 3881 01b9 71       		.byte	0x71
 3882 01ba 00       		.sleb128 0
 3883 01bb 1A       		.byte	0x1a
 3884 01bc 30       		.byte	0x30
 3885 01bd 2E       		.byte	0x2e
 3886 01be 9F       		.byte	0x9f
 3887 01bf 96030000 		.4byte	.LVL41-.Ltext0
 3888 01c3 B0030000 		.4byte	.LFE44-.Ltext0
 3889 01c7 0200     		.2byte	0x2
 3890 01c9 30       		.byte	0x30
 3891 01ca 9F       		.byte	0x9f
 3892 01cb 00000000 		.4byte	0
 3893 01cf 00000000 		.4byte	0
 3894              	.LVUS19:
ARM GAS  C:\Users\skey\AppData\Local\Temp\ccFDdSGQ.s 			page 87


 3895 01d3 03       		.uleb128 .LVU421
 3896 01d4 00       		.uleb128 .LVU428
 3897 01d5 00       		.uleb128 .LVU428
 3898 01d6 00       		.uleb128 .LVU433
 3899 01d7 00       		.uleb128 .LVU433
 3900 01d8 00       		.uleb128 0
 3901              	.LLST19:
 3902 01d9 84030000 		.4byte	.LVL38-.Ltext0
 3903 01dd 8C030000 		.4byte	.LVL39-.Ltext0
 3904 01e1 0200     		.2byte	0x2
 3905 01e3 30       		.byte	0x30
 3906 01e4 9F       		.byte	0x9f
 3907 01e5 8C030000 		.4byte	.LVL39-.Ltext0
 3908 01e9 96030000 		.4byte	.LVL41-.Ltext0
 3909 01ed 0100     		.2byte	0x1
 3910 01ef 53       		.byte	0x53
 3911 01f0 96030000 		.4byte	.LVL41-.Ltext0
 3912 01f4 B0030000 		.4byte	.LFE44-.Ltext0
 3913 01f8 0200     		.2byte	0x2
 3914 01fa 30       		.byte	0x30
 3915 01fb 9F       		.byte	0x9f
 3916 01fc 00000000 		.4byte	0
 3917 0200 00000000 		.4byte	0
 3918              	.LVUS15:
 3919 0204 00       		.uleb128 0
 3920 0205 00       		.uleb128 .LVU397
 3921 0206 00       		.uleb128 .LVU397
 3922 0207 00       		.uleb128 .LVU399
 3923 0208 00       		.uleb128 .LVU399
 3924 0209 00       		.uleb128 .LVU407
 3925 020a 00       		.uleb128 .LVU407
 3926 020b 00       		.uleb128 .LVU411
 3927 020c 00       		.uleb128 .LVU411
 3928 020d 00       		.uleb128 0
 3929              	.LLST15:
 3930 020e 40030000 		.4byte	.LVL27-.Ltext0
 3931 0212 4C030000 		.4byte	.LVL29-.Ltext0
 3932 0216 0100     		.2byte	0x1
 3933 0218 51       		.byte	0x51
 3934 0219 4C030000 		.4byte	.LVL29-.Ltext0
 3935 021d 50030000 		.4byte	.LVL30-.Ltext0
 3936 0221 0400     		.2byte	0x4
 3937 0223 F3       		.byte	0xf3
 3938 0224 01       		.uleb128 0x1
 3939 0225 51       		.byte	0x51
 3940 0226 9F       		.byte	0x9f
 3941 0227 50030000 		.4byte	.LVL30-.Ltext0
 3942 022b 62030000 		.4byte	.LVL33-.Ltext0
 3943 022f 0100     		.2byte	0x1
 3944 0231 51       		.byte	0x51
 3945 0232 62030000 		.4byte	.LVL33-.Ltext0
 3946 0236 6A030000 		.4byte	.LVL35-.Ltext0
 3947 023a 0400     		.2byte	0x4
 3948 023c 71       		.byte	0x71
 3949 023d 00       		.sleb128 0
 3950 023e 20       		.byte	0x20
 3951 023f 9F       		.byte	0x9f
ARM GAS  C:\Users\skey\AppData\Local\Temp\ccFDdSGQ.s 			page 88


 3952 0240 6A030000 		.4byte	.LVL35-.Ltext0
 3953 0244 84030000 		.4byte	.LFE43-.Ltext0
 3954 0248 0400     		.2byte	0x4
 3955 024a F3       		.byte	0xf3
 3956 024b 01       		.uleb128 0x1
 3957 024c 51       		.byte	0x51
 3958 024d 9F       		.byte	0x9f
 3959 024e 00000000 		.4byte	0
 3960 0252 00000000 		.4byte	0
 3961              	.LVUS16:
 3962 0256 00       		.uleb128 0
 3963 0257 00       		.uleb128 .LVU396
 3964 0258 00       		.uleb128 .LVU396
 3965 0259 00       		.uleb128 .LVU399
 3966 025a 00       		.uleb128 .LVU399
 3967 025b 00       		.uleb128 .LVU403
 3968 025c 00       		.uleb128 .LVU403
 3969 025d 00       		.uleb128 .LVU405
 3970 025e 00       		.uleb128 .LVU405
 3971 025f 00       		.uleb128 .LVU410
 3972 0260 00       		.uleb128 .LVU410
 3973 0261 00       		.uleb128 .LVU412
 3974 0262 00       		.uleb128 .LVU412
 3975 0263 00       		.uleb128 .LVU416
 3976 0264 00       		.uleb128 .LVU416
 3977 0265 00       		.uleb128 0
 3978              	.LLST16:
 3979 0266 40030000 		.4byte	.LVL27-.Ltext0
 3980 026a 48030000 		.4byte	.LVL28-.Ltext0
 3981 026e 0100     		.2byte	0x1
 3982 0270 52       		.byte	0x52
 3983 0271 48030000 		.4byte	.LVL28-.Ltext0
 3984 0275 50030000 		.4byte	.LVL30-.Ltext0
 3985 0279 0400     		.2byte	0x4
 3986 027b F3       		.byte	0xf3
 3987 027c 01       		.uleb128 0x1
 3988 027d 52       		.byte	0x52
 3989 027e 9F       		.byte	0x9f
 3990 027f 50030000 		.4byte	.LVL30-.Ltext0
 3991 0283 58030000 		.4byte	.LVL31-.Ltext0
 3992 0287 0100     		.2byte	0x1
 3993 0289 52       		.byte	0x52
 3994 028a 58030000 		.4byte	.LVL31-.Ltext0
 3995 028e 5C030000 		.4byte	.LVL32-.Ltext0
 3996 0292 0400     		.2byte	0x4
 3997 0294 F3       		.byte	0xf3
 3998 0295 01       		.uleb128 0x1
 3999 0296 52       		.byte	0x52
 4000 0297 9F       		.byte	0x9f
 4001 0298 5C030000 		.4byte	.LVL32-.Ltext0
 4002 029c 66030000 		.4byte	.LVL34-.Ltext0
 4003 02a0 0100     		.2byte	0x1
 4004 02a2 52       		.byte	0x52
 4005 02a3 66030000 		.4byte	.LVL34-.Ltext0
 4006 02a7 6C030000 		.4byte	.LVL36-.Ltext0
 4007 02ab 0400     		.2byte	0x4
 4008 02ad F3       		.byte	0xf3
ARM GAS  C:\Users\skey\AppData\Local\Temp\ccFDdSGQ.s 			page 89


 4009 02ae 01       		.uleb128 0x1
 4010 02af 52       		.byte	0x52
 4011 02b0 9F       		.byte	0x9f
 4012 02b1 6C030000 		.4byte	.LVL36-.Ltext0
 4013 02b5 74030000 		.4byte	.LVL37-.Ltext0
 4014 02b9 0100     		.2byte	0x1
 4015 02bb 52       		.byte	0x52
 4016 02bc 74030000 		.4byte	.LVL37-.Ltext0
 4017 02c0 84030000 		.4byte	.LFE43-.Ltext0
 4018 02c4 0400     		.2byte	0x4
 4019 02c6 F3       		.byte	0xf3
 4020 02c7 01       		.uleb128 0x1
 4021 02c8 52       		.byte	0x52
 4022 02c9 9F       		.byte	0x9f
 4023 02ca 00000000 		.4byte	0
 4024 02ce 00000000 		.4byte	0
 4025              	.LVUS13:
 4026 02d2 00       		.uleb128 0
 4027 02d3 00       		.uleb128 .LVU384
 4028 02d4 00       		.uleb128 .LVU384
 4029 02d5 00       		.uleb128 0
 4030              	.LLST13:
 4031 02d6 2C030000 		.4byte	.LVL25-.Ltext0
 4032 02da 36030000 		.4byte	.LVL26-.Ltext0
 4033 02de 0100     		.2byte	0x1
 4034 02e0 50       		.byte	0x50
 4035 02e1 36030000 		.4byte	.LVL26-.Ltext0
 4036 02e5 40030000 		.4byte	.LFE42-.Ltext0
 4037 02e9 0400     		.2byte	0x4
 4038 02eb F3       		.byte	0xf3
 4039 02ec 01       		.uleb128 0x1
 4040 02ed 50       		.byte	0x50
 4041 02ee 9F       		.byte	0x9f
 4042 02ef 00000000 		.4byte	0
 4043 02f3 00000000 		.4byte	0
 4044              	.LVUS14:
 4045 02f7 02       		.uleb128 .LVU378
 4046 02f8 00       		.uleb128 .LVU384
 4047 02f9 00       		.uleb128 .LVU384
 4048 02fa 00       		.uleb128 0
 4049              	.LLST14:
 4050 02fb 2C030000 		.4byte	.LVL25-.Ltext0
 4051 02ff 36030000 		.4byte	.LVL26-.Ltext0
 4052 0303 0200     		.2byte	0x2
 4053 0305 30       		.byte	0x30
 4054 0306 9F       		.byte	0x9f
 4055 0307 36030000 		.4byte	.LVL26-.Ltext0
 4056 030b 40030000 		.4byte	.LFE42-.Ltext0
 4057 030f 0100     		.2byte	0x1
 4058 0311 50       		.byte	0x50
 4059 0312 00000000 		.4byte	0
 4060 0316 00000000 		.4byte	0
 4061              	.LVUS12:
 4062 031a 00       		.uleb128 0
 4063 031b 00       		.uleb128 .LVU367
 4064 031c 00       		.uleb128 .LVU367
 4065 031d 00       		.uleb128 .LVU369
ARM GAS  C:\Users\skey\AppData\Local\Temp\ccFDdSGQ.s 			page 90


 4066 031e 00       		.uleb128 .LVU369
 4067 031f 00       		.uleb128 .LVU373
 4068 0320 00       		.uleb128 .LVU373
 4069 0321 00       		.uleb128 0
 4070              	.LLST12:
 4071 0322 FC020000 		.4byte	.LVL21-.Ltext0
 4072 0326 0C030000 		.4byte	.LVL22-.Ltext0
 4073 032a 0100     		.2byte	0x1
 4074 032c 51       		.byte	0x51
 4075 032d 0C030000 		.4byte	.LVL22-.Ltext0
 4076 0331 10030000 		.4byte	.LVL23-.Ltext0
 4077 0335 0400     		.2byte	0x4
 4078 0337 F3       		.byte	0xf3
 4079 0338 01       		.uleb128 0x1
 4080 0339 51       		.byte	0x51
 4081 033a 9F       		.byte	0x9f
 4082 033b 10030000 		.4byte	.LVL23-.Ltext0
 4083 033f 1A030000 		.4byte	.LVL24-.Ltext0
 4084 0343 0100     		.2byte	0x1
 4085 0345 51       		.byte	0x51
 4086 0346 1A030000 		.4byte	.LVL24-.Ltext0
 4087 034a 2C030000 		.4byte	.LFE41-.Ltext0
 4088 034e 0400     		.2byte	0x4
 4089 0350 F3       		.byte	0xf3
 4090 0351 01       		.uleb128 0x1
 4091 0352 51       		.byte	0x51
 4092 0353 9F       		.byte	0x9f
 4093 0354 00000000 		.4byte	0
 4094 0358 00000000 		.4byte	0
 4095              	.LVUS11:
 4096 035c 00       		.uleb128 0
 4097 035d 00       		.uleb128 .LVU337
 4098 035e 00       		.uleb128 .LVU337
 4099 035f 00       		.uleb128 .LVU339
 4100 0360 00       		.uleb128 .LVU339
 4101 0361 00       		.uleb128 .LVU343
 4102 0362 00       		.uleb128 .LVU343
 4103 0363 00       		.uleb128 0
 4104              	.LLST11:
 4105 0364 AC020000 		.4byte	.LVL16-.Ltext0
 4106 0368 BC020000 		.4byte	.LVL17-.Ltext0
 4107 036c 0100     		.2byte	0x1
 4108 036e 51       		.byte	0x51
 4109 036f BC020000 		.4byte	.LVL17-.Ltext0
 4110 0373 C0020000 		.4byte	.LVL18-.Ltext0
 4111 0377 0400     		.2byte	0x4
 4112 0379 F3       		.byte	0xf3
 4113 037a 01       		.uleb128 0x1
 4114 037b 51       		.byte	0x51
 4115 037c 9F       		.byte	0x9f
 4116 037d C0020000 		.4byte	.LVL18-.Ltext0
 4117 0381 CA020000 		.4byte	.LVL19-.Ltext0
 4118 0385 0100     		.2byte	0x1
 4119 0387 51       		.byte	0x51
 4120 0388 CA020000 		.4byte	.LVL19-.Ltext0
 4121 038c DC020000 		.4byte	.LFE39-.Ltext0
 4122 0390 0400     		.2byte	0x4
ARM GAS  C:\Users\skey\AppData\Local\Temp\ccFDdSGQ.s 			page 91


 4123 0392 F3       		.byte	0xf3
 4124 0393 01       		.uleb128 0x1
 4125 0394 51       		.byte	0x51
 4126 0395 9F       		.byte	0x9f
 4127 0396 00000000 		.4byte	0
 4128 039a 00000000 		.4byte	0
 4129              	.LVUS10:
 4130 039e 00       		.uleb128 0
 4131 039f 00       		.uleb128 .LVU318
 4132 03a0 00       		.uleb128 .LVU318
 4133 03a1 00       		.uleb128 0
 4134              	.LLST10:
 4135 03a2 8E020000 		.4byte	.LVL14-.Ltext0
 4136 03a6 90020000 		.4byte	.LVL15-.Ltext0
 4137 03aa 0100     		.2byte	0x1
 4138 03ac 50       		.byte	0x50
 4139 03ad 90020000 		.4byte	.LVL15-.Ltext0
 4140 03b1 AC020000 		.4byte	.LFE38-.Ltext0
 4141 03b5 0400     		.2byte	0x4
 4142 03b7 F3       		.byte	0xf3
 4143 03b8 01       		.uleb128 0x1
 4144 03b9 50       		.byte	0x50
 4145 03ba 9F       		.byte	0x9f
 4146 03bb 00000000 		.4byte	0
 4147 03bf 00000000 		.4byte	0
 4148              	.LLST9:
 4149 03c3 EC010000 		.4byte	.LFB35-.Ltext0
 4150 03c7 FE010000 		.4byte	.LCFI3-.Ltext0
 4151 03cb 0200     		.2byte	0x2
 4152 03cd 7D       		.byte	0x7d
 4153 03ce 00       		.sleb128 0
 4154 03cf FE010000 		.4byte	.LCFI3-.Ltext0
 4155 03d3 3A020000 		.4byte	.LFE35-.Ltext0
 4156 03d7 0200     		.2byte	0x2
 4157 03d9 7D       		.byte	0x7d
 4158 03da 08       		.sleb128 8
 4159 03db 00000000 		.4byte	0
 4160 03df 00000000 		.4byte	0
 4161              	.LLST7:
 4162 03e3 84010000 		.4byte	.LFB34-.Ltext0
 4163 03e7 9C010000 		.4byte	.LCFI2-.Ltext0
 4164 03eb 0200     		.2byte	0x2
 4165 03ed 7D       		.byte	0x7d
 4166 03ee 00       		.sleb128 0
 4167 03ef 9C010000 		.4byte	.LCFI2-.Ltext0
 4168 03f3 EC010000 		.4byte	.LFE34-.Ltext0
 4169 03f7 0200     		.2byte	0x2
 4170 03f9 7D       		.byte	0x7d
 4171 03fa 08       		.sleb128 8
 4172 03fb 00000000 		.4byte	0
 4173 03ff 00000000 		.4byte	0
 4174              	.LVUS8:
 4175 0403 00       		.uleb128 0
 4176 0404 00       		.uleb128 .LVU222
 4177 0405 00       		.uleb128 .LVU222
 4178 0406 00       		.uleb128 0
 4179              	.LLST8:
ARM GAS  C:\Users\skey\AppData\Local\Temp\ccFDdSGQ.s 			page 92


 4180 0407 84010000 		.4byte	.LVL9-.Ltext0
 4181 040b D2010000 		.4byte	.LVL10-.Ltext0
 4182 040f 0100     		.2byte	0x1
 4183 0411 50       		.byte	0x50
 4184 0412 D2010000 		.4byte	.LVL10-.Ltext0
 4185 0416 EC010000 		.4byte	.LFE34-.Ltext0
 4186 041a 0400     		.2byte	0x4
 4187 041c F3       		.byte	0xf3
 4188 041d 01       		.uleb128 0x1
 4189 041e 50       		.byte	0x50
 4190 041f 9F       		.byte	0x9f
 4191 0420 00000000 		.4byte	0
 4192 0424 00000000 		.4byte	0
 4193              	.LLST2:
 4194 0428 1C010000 		.4byte	.LFB33-.Ltext0
 4195 042c 26010000 		.4byte	.LCFI1-.Ltext0
 4196 0430 0200     		.2byte	0x2
 4197 0432 7D       		.byte	0x7d
 4198 0433 00       		.sleb128 0
 4199 0434 26010000 		.4byte	.LCFI1-.Ltext0
 4200 0438 84010000 		.4byte	.LFE33-.Ltext0
 4201 043c 0200     		.2byte	0x2
 4202 043e 7D       		.byte	0x7d
 4203 043f 0C       		.sleb128 12
 4204 0440 00000000 		.4byte	0
 4205 0444 00000000 		.4byte	0
 4206              	.LVUS3:
 4207 0448 00       		.uleb128 0
 4208 0449 00       		.uleb128 .LVU159
 4209 044a 00       		.uleb128 .LVU159
 4210 044b 00       		.uleb128 0
 4211              	.LLST3:
 4212 044c 1C010000 		.4byte	.LVL5-.Ltext0
 4213 0450 52010000 		.4byte	.LVL6-.Ltext0
 4214 0454 0100     		.2byte	0x1
 4215 0456 50       		.byte	0x50
 4216 0457 52010000 		.4byte	.LVL6-.Ltext0
 4217 045b 84010000 		.4byte	.LFE33-.Ltext0
 4218 045f 0400     		.2byte	0x4
 4219 0461 F3       		.byte	0xf3
 4220 0462 01       		.uleb128 0x1
 4221 0463 50       		.byte	0x50
 4222 0464 9F       		.byte	0x9f
 4223 0465 00000000 		.4byte	0
 4224 0469 00000000 		.4byte	0
 4225              	.LVUS4:
 4226 046d 02       		.uleb128 .LVU129
 4227 046e 00       		.uleb128 .LVU167
 4228 046f 00       		.uleb128 .LVU167
 4229 0470 00       		.uleb128 0
 4230              	.LLST4:
 4231 0471 1C010000 		.4byte	.LVL5-.Ltext0
 4232 0475 6E010000 		.4byte	.LVL7-.Ltext0
 4233 0479 0200     		.2byte	0x2
 4234 047b 30       		.byte	0x30
 4235 047c 9F       		.byte	0x9f
 4236 047d 6E010000 		.4byte	.LVL7-.Ltext0
ARM GAS  C:\Users\skey\AppData\Local\Temp\ccFDdSGQ.s 			page 93


 4237 0481 84010000 		.4byte	.LFE33-.Ltext0
 4238 0485 0100     		.2byte	0x1
 4239 0487 53       		.byte	0x53
 4240 0488 00000000 		.4byte	0
 4241 048c 00000000 		.4byte	0
 4242              	.LVUS5:
 4243 0490 02       		.uleb128 .LVU129
 4244 0491 01       		.uleb128 .LVU168
 4245 0492 01       		.uleb128 .LVU168
 4246 0493 00       		.uleb128 0
 4247              	.LLST5:
 4248 0494 1C010000 		.4byte	.LVL5-.Ltext0
 4249 0498 6E010000 		.4byte	.LVL7-.Ltext0
 4250 049c 0200     		.2byte	0x2
 4251 049e 30       		.byte	0x30
 4252 049f 9F       		.byte	0x9f
 4253 04a0 6E010000 		.4byte	.LVL7-.Ltext0
 4254 04a4 84010000 		.4byte	.LFE33-.Ltext0
 4255 04a8 0100     		.2byte	0x1
 4256 04aa 51       		.byte	0x51
 4257 04ab 00000000 		.4byte	0
 4258 04af 00000000 		.4byte	0
 4259              	.LVUS6:
 4260 04b3 02       		.uleb128 .LVU129
 4261 04b4 00       		.uleb128 .LVU170
 4262 04b5 00       		.uleb128 .LVU170
 4263 04b6 00       		.uleb128 0
 4264              	.LLST6:
 4265 04b7 1C010000 		.4byte	.LVL5-.Ltext0
 4266 04bb 72010000 		.4byte	.LVL8-.Ltext0
 4267 04bf 0200     		.2byte	0x2
 4268 04c1 30       		.byte	0x30
 4269 04c2 9F       		.byte	0x9f
 4270 04c3 72010000 		.4byte	.LVL8-.Ltext0
 4271 04c7 84010000 		.4byte	.LFE33-.Ltext0
 4272 04cb 0100     		.2byte	0x1
 4273 04cd 52       		.byte	0x52
 4274 04ce 00000000 		.4byte	0
 4275 04d2 00000000 		.4byte	0
 4276              	.LLST1:
 4277 04d6 68000000 		.4byte	.LFB32-.Ltext0
 4278 04da 6E000000 		.4byte	.LCFI0-.Ltext0
 4279 04de 0200     		.2byte	0x2
 4280 04e0 7D       		.byte	0x7d
 4281 04e1 00       		.sleb128 0
 4282 04e2 6E000000 		.4byte	.LCFI0-.Ltext0
 4283 04e6 1C010000 		.4byte	.LFE32-.Ltext0
 4284 04ea 0200     		.2byte	0x2
 4285 04ec 7D       		.byte	0x7d
 4286 04ed 0C       		.sleb128 12
 4287 04ee 00000000 		.4byte	0
 4288 04f2 00000000 		.4byte	0
 4289              	.LVUS0:
 4290 04f6 00       		.uleb128 0
 4291 04f7 00       		.uleb128 .LVU8
 4292 04f8 00       		.uleb128 .LVU8
 4293 04f9 00       		.uleb128 .LVU12
ARM GAS  C:\Users\skey\AppData\Local\Temp\ccFDdSGQ.s 			page 94


 4294 04fa 00       		.uleb128 .LVU12
 4295 04fb 00       		.uleb128 0
 4296              	.LLST0:
 4297 04fc 00000000 		.4byte	.LVL0-.Ltext0
 4298 0500 12000000 		.4byte	.LVL1-.Ltext0
 4299 0504 0100     		.2byte	0x1
 4300 0506 50       		.byte	0x50
 4301 0507 12000000 		.4byte	.LVL1-.Ltext0
 4302 050b 1E000000 		.4byte	.LVL2-.Ltext0
 4303 050f 0400     		.2byte	0x4
 4304 0511 F3       		.byte	0xf3
 4305 0512 01       		.uleb128 0x1
 4306 0513 50       		.byte	0x50
 4307 0514 9F       		.byte	0x9f
 4308 0515 1E000000 		.4byte	.LVL2-.Ltext0
 4309 0519 28000000 		.4byte	.LFE29-.Ltext0
 4310 051d 0100     		.2byte	0x1
 4311 051f 50       		.byte	0x50
 4312 0520 00000000 		.4byte	0
 4313 0524 00000000 		.4byte	0
 4314              		.section	.debug_aranges,"",%progbits
 4315 0000 1C000000 		.4byte	0x1c
 4316 0004 0200     		.2byte	0x2
 4317 0006 00000000 		.4byte	.Ldebug_info0
 4318 000a 04       		.byte	0x4
 4319 000b 00       		.byte	0
 4320 000c 0000     		.2byte	0
 4321 000e 0000     		.2byte	0
 4322 0010 00000000 		.4byte	.Ltext0
 4323 0014 3C040000 		.4byte	.Letext0-.Ltext0
 4324 0018 00000000 		.4byte	0
 4325 001c 00000000 		.4byte	0
 4326              		.section	.debug_line,"",%progbits
 4327              	.Ldebug_line0:
 4328 0000 9A080000 		.section	.debug_str,"MS",%progbits,1
 4328      0300DC01 
 4328      00000201 
 4328      FB0E0D00 
 4328      01010101 
 4329              	.LASF12:
 4330 0000 75696E74 		.ascii	"uint32_t\000"
 4330      33325F74 
 4330      00
 4331              	.LASF57:
 4332 0009 46534D43 		.ascii	"FSMC_WaitSignalActive\000"
 4332      5F576169 
 4332      74536967 
 4332      6E616C41 
 4332      63746976 
 4333              	.LASF41:
 4334 001f 46534D43 		.ascii	"FSMC_AddressSetupTime\000"
 4334      5F416464 
 4334      72657373 
 4334      53657475 
 4334      7054696D 
 4335              	.LASF88:
 4336 0035 46534D43 		.ascii	"FSMC_GetITStatus\000"
ARM GAS  C:\Users\skey\AppData\Local\Temp\ccFDdSGQ.s 			page 95


 4336      5F476574 
 4336      49545374 
 4336      61747573 
 4336      00
 4337              	.LASF70:
 4338 0046 46534D43 		.ascii	"FSMC_Waitfeature\000"
 4338      5F576169 
 4338      74666561 
 4338      74757265 
 4338      00
 4339              	.LASF72:
 4340 0057 46534D43 		.ascii	"FSMC_ECCPageSize\000"
 4340      5F454343 
 4340      50616765 
 4340      53697A65 
 4340      00
 4341              	.LASF75:
 4342 0068 46534D43 		.ascii	"FSMC_CommonSpaceTimingStruct\000"
 4342      5F436F6D 
 4342      6D6F6E53 
 4342      70616365 
 4342      54696D69 
 4343              	.LASF49:
 4344 0085 46534D43 		.ascii	"FSMC_Bank\000"
 4344      5F42616E 
 4344      6B00
 4345              	.LASF67:
 4346 008f 46534D43 		.ascii	"FSMC_HoldSetupTime\000"
 4346      5F486F6C 
 4346      64536574 
 4346      75705469 
 4346      6D6500
 4347              	.LASF66:
 4348 00a2 46534D43 		.ascii	"FSMC_WaitSetupTime\000"
 4348      5F576169 
 4348      74536574 
 4348      75705469 
 4348      6D6500
 4349              	.LASF80:
 4350 00b5 46534D43 		.ascii	"FSMC_IT\000"
 4350      5F495400 
 4351              	.LASF56:
 4352 00bd 46534D43 		.ascii	"FSMC_WrapMode\000"
 4352      5F577261 
 4352      704D6F64 
 4352      6500
 4353              	.LASF105:
 4354 00cb 46534D43 		.ascii	"FSMC_NANDInit\000"
 4354      5F4E414E 
 4354      44496E69 
 4354      7400
 4355              	.LASF44:
 4356 00d9 46534D43 		.ascii	"FSMC_BusTurnAroundDuration\000"
 4356      5F427573 
 4356      5475726E 
 4356      41726F75 
 4356      6E644475 
ARM GAS  C:\Users\skey\AppData\Local\Temp\ccFDdSGQ.s 			page 96


 4357              	.LASF111:
 4358 00f4 474E5520 		.ascii	"GNU C17 9.2.1 20191025 (release) [ARM/arm-9-branch "
 4358      43313720 
 4358      392E322E 
 4358      31203230 
 4358      31393130 
 4359 0127 72657669 		.ascii	"revision 277599] -mcpu=cortex-m3 -mthumb -mfloat-ab"
 4359      73696F6E 
 4359      20323737 
 4359      3539395D 
 4359      202D6D63 
 4360 015a 693D736F 		.ascii	"i=soft -march=armv7-m -g -gdwarf-2 -Os -fomit-frame"
 4360      6674202D 
 4360      6D617263 
 4360      683D6172 
 4360      6D76372D 
 4361 018d 2D706F69 		.ascii	"-pointer\000"
 4361      6E746572 
 4361      00
 4362              	.LASF54:
 4363 0196 46534D43 		.ascii	"FSMC_AsynchronousWait\000"
 4363      5F417379 
 4363      6E636872 
 4363      6F6E6F75 
 4363      73576169 
 4364              	.LASF6:
 4365 01ac 5F5F7569 		.ascii	"__uint32_t\000"
 4365      6E743332 
 4365      5F7400
 4366              	.LASF73:
 4367 01b7 46534D43 		.ascii	"FSMC_TCLRSetupTime\000"
 4367      5F54434C 
 4367      52536574 
 4367      75705469 
 4367      6D6500
 4368              	.LASF16:
 4369 01ca 466C6167 		.ascii	"FlagStatus\000"
 4369      53746174 
 4369      757300
 4370              	.LASF5:
 4371 01d5 5F5F7569 		.ascii	"__uint16_t\000"
 4371      6E743136 
 4371      5F7400
 4372              	.LASF108:
 4373 01e0 746D7070 		.ascii	"tmppatt\000"
 4373      61747400 
 4374              	.LASF106:
 4375 01e8 746D7070 		.ascii	"tmppcr\000"
 4375      637200
 4376              	.LASF2:
 4377 01ef 73686F72 		.ascii	"short int\000"
 4377      7420696E 
 4377      7400
 4378              	.LASF92:
 4379 01f9 46534D43 		.ascii	"FSMC_GetECC\000"
 4379      5F476574 
 4379      45434300 
ARM GAS  C:\Users\skey\AppData\Local\Temp\ccFDdSGQ.s 			page 97


 4380              	.LASF24:
 4381 0205 46534D43 		.ascii	"FSMC_Bank1E_TypeDef\000"
 4381      5F42616E 
 4381      6B31455F 
 4381      54797065 
 4381      44656600 
 4382              	.LASF79:
 4383 0219 46534D43 		.ascii	"FSMC_PCCARDInitTypeDef\000"
 4383      5F504343 
 4383      41524449 
 4383      6E697454 
 4383      79706544 
 4384              	.LASF98:
 4385 0230 46534D43 		.ascii	"FSMC_PCCARDStructInit\000"
 4385      5F504343 
 4385      41524453 
 4385      74727563 
 4385      74496E69 
 4386              	.LASF39:
 4387 0246 50494F34 		.ascii	"PIO4\000"
 4387      00
 4388              	.LASF96:
 4389 024b 46534D43 		.ascii	"FSMC_NANDCmd\000"
 4389      5F4E414E 
 4389      44436D64 
 4389      00
 4390              	.LASF22:
 4391 0258 42544352 		.ascii	"BTCR\000"
 4391      00
 4392              	.LASF87:
 4393 025d 46534D43 		.ascii	"FSMC_FLAG\000"
 4393      5F464C41 
 4393      4700
 4394              	.LASF115:
 4395 0267 46534D43 		.ascii	"FSMC_NORSRAMDeInit\000"
 4395      5F4E4F52 
 4395      5352414D 
 4395      4465496E 
 4395      697400
 4396              	.LASF107:
 4397 027a 746D7070 		.ascii	"tmppmem\000"
 4397      6D656D00 
 4398              	.LASF18:
 4399 0282 44495341 		.ascii	"DISABLE\000"
 4399      424C4500 
 4400              	.LASF69:
 4401 028a 46534D43 		.ascii	"FSMC_NAND_PCCARDTimingInitTypeDef\000"
 4401      5F4E414E 
 4401      445F5043 
 4401      43415244 
 4401      54696D69 
 4402              	.LASF90:
 4403 02ac 46534D43 		.ascii	"FSMC_ITConfig\000"
 4403      5F495443 
 4403      6F6E6669 
 4403      6700
 4404              	.LASF8:
ARM GAS  C:\Users\skey\AppData\Local\Temp\ccFDdSGQ.s 			page 98


 4405 02ba 6C6F6E67 		.ascii	"long long int\000"
 4405      206C6F6E 
 4405      6720696E 
 4405      7400
 4406              	.LASF31:
 4407 02c8 50435233 		.ascii	"PCR3\000"
 4407      00
 4408              	.LASF52:
 4409 02cd 46534D43 		.ascii	"FSMC_MemoryDataWidth\000"
 4409      5F4D656D 
 4409      6F727944 
 4409      61746157 
 4409      69647468 
 4410              	.LASF47:
 4411 02e2 46534D43 		.ascii	"FSMC_AccessMode\000"
 4411      5F416363 
 4411      6573734D 
 4411      6F646500 
 4412              	.LASF17:
 4413 02f2 49545374 		.ascii	"ITStatus\000"
 4413      61747573 
 4413      00
 4414              	.LASF4:
 4415 02fb 6C6F6E67 		.ascii	"long int\000"
 4415      20696E74 
 4415      00
 4416              	.LASF99:
 4417 0304 46534D43 		.ascii	"FSMC_PCCARDInitStruct\000"
 4417      5F504343 
 4417      41524449 
 4417      6E697453 
 4417      74727563 
 4418              	.LASF101:
 4419 031a 46534D43 		.ascii	"FSMC_NANDInitStruct\000"
 4419      5F4E414E 
 4419      44496E69 
 4419      74537472 
 4419      75637400 
 4420              	.LASF42:
 4421 032e 46534D43 		.ascii	"FSMC_AddressHoldTime\000"
 4421      5F416464 
 4421      72657373 
 4421      486F6C64 
 4421      54696D65 
 4422              	.LASF65:
 4423 0343 46534D43 		.ascii	"FSMC_SetupTime\000"
 4423      5F536574 
 4423      75705469 
 4423      6D6500
 4424              	.LASF81:
 4425 0352 62697473 		.ascii	"bitstatus\000"
 4425      74617475 
 4425      7300
 4426              	.LASF59:
 4427 035c 46534D43 		.ascii	"FSMC_WaitSignal\000"
 4427      5F576169 
 4427      74536967 
ARM GAS  C:\Users\skey\AppData\Local\Temp\ccFDdSGQ.s 			page 99


 4427      6E616C00 
 4428              	.LASF85:
 4429 036c 46534D43 		.ascii	"FSMC_ClearITPendingBit\000"
 4429      5F436C65 
 4429      61724954 
 4429      50656E64 
 4429      696E6742 
 4430              	.LASF100:
 4431 0383 46534D43 		.ascii	"FSMC_NANDStructInit\000"
 4431      5F4E414E 
 4431      44537472 
 4431      75637449 
 4431      6E697400 
 4432              	.LASF91:
 4433 0397 4E657753 		.ascii	"NewState\000"
 4433      74617465 
 4433      00
 4434              	.LASF46:
 4435 03a0 46534D43 		.ascii	"FSMC_DataLatency\000"
 4435      5F446174 
 4435      614C6174 
 4435      656E6379 
 4435      00
 4436              	.LASF1:
 4437 03b1 756E7369 		.ascii	"unsigned char\000"
 4437      676E6564 
 4437      20636861 
 4437      7200
 4438              	.LASF48:
 4439 03bf 46534D43 		.ascii	"FSMC_NORSRAMTimingInitTypeDef\000"
 4439      5F4E4F52 
 4439      5352414D 
 4439      54696D69 
 4439      6E67496E 
 4440              	.LASF71:
 4441 03dd 46534D43 		.ascii	"FSMC_ECC\000"
 4441      5F454343 
 4441      00
 4442              	.LASF104:
 4443 03e6 46534D43 		.ascii	"FSMC_PCCARDInit\000"
 4443      5F504343 
 4443      41524449 
 4443      6E697400 
 4444              	.LASF0:
 4445 03f6 7369676E 		.ascii	"signed char\000"
 4445      65642063 
 4445      68617200 
 4446              	.LASF9:
 4447 0402 6C6F6E67 		.ascii	"long long unsigned int\000"
 4447      206C6F6E 
 4447      6720756E 
 4447      7369676E 
 4447      65642069 
 4448              	.LASF53:
 4449 0419 46534D43 		.ascii	"FSMC_BurstAccessMode\000"
 4449      5F427572 
 4449      73744163 
ARM GAS  C:\Users\skey\AppData\Local\Temp\ccFDdSGQ.s 			page 100


 4449      63657373 
 4449      4D6F6465 
 4450              	.LASF60:
 4451 042e 46534D43 		.ascii	"FSMC_ExtendedMode\000"
 4451      5F457874 
 4451      656E6465 
 4451      644D6F64 
 4451      6500
 4452              	.LASF10:
 4453 0440 756E7369 		.ascii	"unsigned int\000"
 4453      676E6564 
 4453      20696E74 
 4453      00
 4454              	.LASF58:
 4455 044d 46534D43 		.ascii	"FSMC_WriteOperation\000"
 4455      5F577269 
 4455      74654F70 
 4455      65726174 
 4455      696F6E00 
 4456              	.LASF30:
 4457 0461 46534D43 		.ascii	"FSMC_Bank2_TypeDef\000"
 4457      5F42616E 
 4457      6B325F54 
 4457      79706544 
 4457      656600
 4458              	.LASF89:
 4459 0474 46534D43 		.ascii	"FSMC_GetFlagStatus\000"
 4459      5F476574 
 4459      466C6167 
 4459      53746174 
 4459      757300
 4460              	.LASF27:
 4461 0487 50415454 		.ascii	"PATT2\000"
 4461      3200
 4462              	.LASF43:
 4463 048d 46534D43 		.ascii	"FSMC_DataSetupTime\000"
 4463      5F446174 
 4463      61536574 
 4463      75705469 
 4463      6D6500
 4464              	.LASF62:
 4465 04a0 46534D43 		.ascii	"FSMC_ReadWriteTimingStruct\000"
 4465      5F526561 
 4465      64577269 
 4465      74655469 
 4465      6D696E67 
 4466              	.LASF78:
 4467 04bb 46534D43 		.ascii	"FSMC_IOSpaceTimingStruct\000"
 4467      5F494F53 
 4467      70616365 
 4467      54696D69 
 4467      6E675374 
 4468              	.LASF68:
 4469 04d4 46534D43 		.ascii	"FSMC_HiZSetupTime\000"
 4469      5F48695A 
 4469      53657475 
 4469      7054696D 
ARM GAS  C:\Users\skey\AppData\Local\Temp\ccFDdSGQ.s 			page 101


 4469      6500
 4470              	.LASF114:
 4471 04e6 46534D43 		.ascii	"FSMC_PCCARDDeInit\000"
 4471      5F504343 
 4471      41524444 
 4471      65496E69 
 4471      7400
 4472              	.LASF95:
 4473 04f8 46534D43 		.ascii	"FSMC_PCCARDCmd\000"
 4473      5F504343 
 4473      41524443 
 4473      6D6400
 4474              	.LASF97:
 4475 0507 46534D43 		.ascii	"FSMC_NORSRAMCmd\000"
 4475      5F4E4F52 
 4475      5352414D 
 4475      436D6400 
 4476              	.LASF40:
 4477 0517 46534D43 		.ascii	"FSMC_Bank4_TypeDef\000"
 4477      5F42616E 
 4477      6B345F54 
 4477      79706544 
 4477      656600
 4478              	.LASF11:
 4479 052a 75696E74 		.ascii	"uint16_t\000"
 4479      31365F74 
 4479      00
 4480              	.LASF102:
 4481 0533 46534D43 		.ascii	"FSMC_NORSRAMStructInit\000"
 4481      5F4E4F52 
 4481      5352414D 
 4481      53747275 
 4481      6374496E 
 4482              	.LASF35:
 4483 054a 46534D43 		.ascii	"FSMC_Bank3_TypeDef\000"
 4483      5F42616E 
 4483      6B335F54 
 4483      79706544 
 4483      656600
 4484              	.LASF64:
 4485 055d 46534D43 		.ascii	"FSMC_NORSRAMInitTypeDef\000"
 4485      5F4E4F52 
 4485      5352414D 
 4485      496E6974 
 4485      54797065 
 4486              	.LASF74:
 4487 0575 46534D43 		.ascii	"FSMC_TARSetupTime\000"
 4487      5F544152 
 4487      53657475 
 4487      7054696D 
 4487      6500
 4488              	.LASF82:
 4489 0587 746D7073 		.ascii	"tmpsr\000"
 4489      7200
 4490              	.LASF93:
 4491 058d 65636376 		.ascii	"eccval\000"
 4491      616C00
ARM GAS  C:\Users\skey\AppData\Local\Temp\ccFDdSGQ.s 			page 102


 4492              	.LASF112:
 4493 0594 2E5C7374 		.ascii	".\\stlib\\STM32F10x_StdPeriph_Driver\\src\\stm32f10"
 4493      6C69625C 
 4493      53544D33 
 4493      32463130 
 4493      785F5374 
 4494 05c3 785F6673 		.ascii	"x_fsmc.c\000"
 4494      6D632E63 
 4494      00
 4495              	.LASF14:
 4496 05cc 53797374 		.ascii	"SystemCoreClock\000"
 4496      656D436F 
 4496      7265436C 
 4496      6F636B00 
 4497              	.LASF84:
 4498 05dc 6974656E 		.ascii	"itenable\000"
 4498      61626C65 
 4498      00
 4499              	.LASF94:
 4500 05e5 46534D43 		.ascii	"FSMC_NANDECCCmd\000"
 4500      5F4E414E 
 4500      44454343 
 4500      436D6400 
 4501              	.LASF103:
 4502 05f5 46534D43 		.ascii	"FSMC_NORSRAMInitStruct\000"
 4502      5F4E4F52 
 4502      5352414D 
 4502      496E6974 
 4502      53747275 
 4503              	.LASF110:
 4504 060c 46534D43 		.ascii	"FSMC_NANDDeInit\000"
 4504      5F4E414E 
 4504      44446549 
 4504      6E697400 
 4505              	.LASF28:
 4506 061c 52455345 		.ascii	"RESERVED0\000"
 4506      52564544 
 4506      3000
 4507              	.LASF25:
 4508 0626 50435232 		.ascii	"PCR2\000"
 4508      00
 4509              	.LASF50:
 4510 062b 46534D43 		.ascii	"FSMC_DataAddressMux\000"
 4510      5F446174 
 4510      61416464 
 4510      72657373 
 4510      4D757800 
 4511              	.LASF36:
 4512 063f 50435234 		.ascii	"PCR4\000"
 4512      00
 4513              	.LASF7:
 4514 0644 6C6F6E67 		.ascii	"long unsigned int\000"
 4514      20756E73 
 4514      69676E65 
 4514      6420696E 
 4514      7400
 4515              	.LASF61:
ARM GAS  C:\Users\skey\AppData\Local\Temp\ccFDdSGQ.s 			page 103


 4516 0656 46534D43 		.ascii	"FSMC_WriteBurst\000"
 4516      5F577269 
 4516      74654275 
 4516      72737400 
 4517              	.LASF20:
 4518 0666 46756E63 		.ascii	"FunctionalState\000"
 4518      74696F6E 
 4518      616C5374 
 4518      61746500 
 4519              	.LASF3:
 4520 0676 73686F72 		.ascii	"short unsigned int\000"
 4520      7420756E 
 4520      7369676E 
 4520      65642069 
 4520      6E7400
 4521              	.LASF63:
 4522 0689 46534D43 		.ascii	"FSMC_WriteTimingStruct\000"
 4522      5F577269 
 4522      74655469 
 4522      6D696E67 
 4522      53747275 
 4523              	.LASF45:
 4524 06a0 46534D43 		.ascii	"FSMC_CLKDivision\000"
 4524      5F434C4B 
 4524      44697669 
 4524      73696F6E 
 4524      00
 4525              	.LASF26:
 4526 06b1 504D454D 		.ascii	"PMEM2\000"
 4526      3200
 4527              	.LASF32:
 4528 06b7 504D454D 		.ascii	"PMEM3\000"
 4528      3300
 4529              	.LASF37:
 4530 06bd 504D454D 		.ascii	"PMEM4\000"
 4530      3400
 4531              	.LASF15:
 4532 06c3 52455345 		.ascii	"RESET\000"
 4532      5400
 4533              	.LASF113:
 4534 06c9 443A5C53 		.ascii	"D:\\STM32_Freertos_GCC_Makefile_Win\000"
 4534      544D3332 
 4534      5F467265 
 4534      6572746F 
 4534      735F4743 
 4535              	.LASF33:
 4536 06ec 50415454 		.ascii	"PATT3\000"
 4536      3300
 4537              	.LASF38:
 4538 06f2 50415454 		.ascii	"PATT4\000"
 4538      3400
 4539              	.LASF51:
 4540 06f8 46534D43 		.ascii	"FSMC_MemoryType\000"
 4540      5F4D656D 
 4540      6F727954 
 4540      79706500 
 4541              	.LASF109:
ARM GAS  C:\Users\skey\AppData\Local\Temp\ccFDdSGQ.s 			page 104


 4542 0708 46534D43 		.ascii	"FSMC_NORSRAMInit\000"
 4542      5F4E4F52 
 4542      5352414D 
 4542      496E6974 
 4542      00
 4543              	.LASF77:
 4544 0719 46534D43 		.ascii	"FSMC_NANDInitTypeDef\000"
 4544      5F4E414E 
 4544      44496E69 
 4544      74547970 
 4544      65446566 
 4545              	.LASF76:
 4546 072e 46534D43 		.ascii	"FSMC_AttributeSpaceTimingStruct\000"
 4546      5F417474 
 4546      72696275 
 4546      74655370 
 4546      61636554 
 4547              	.LASF21:
 4548 074e 46534D43 		.ascii	"FSMC_Bank1_TypeDef\000"
 4548      5F42616E 
 4548      6B315F54 
 4548      79706544 
 4548      656600
 4549              	.LASF23:
 4550 0761 42575452 		.ascii	"BWTR\000"
 4550      00
 4551              	.LASF13:
 4552 0766 49544D5F 		.ascii	"ITM_RxBuffer\000"
 4552      52784275 
 4552      66666572 
 4552      00
 4553              	.LASF29:
 4554 0773 45434352 		.ascii	"ECCR2\000"
 4554      3200
 4555              	.LASF34:
 4556 0779 45434352 		.ascii	"ECCR3\000"
 4556      3300
 4557              	.LASF86:
 4558 077f 46534D43 		.ascii	"FSMC_ClearFlag\000"
 4558      5F436C65 
 4558      6172466C 
 4558      616700
 4559              	.LASF55:
 4560 078e 46534D43 		.ascii	"FSMC_WaitSignalPolarity\000"
 4560      5F576169 
 4560      74536967 
 4560      6E616C50 
 4560      6F6C6172 
 4561              	.LASF19:
 4562 07a6 454E4142 		.ascii	"ENABLE\000"
 4562      4C4500
 4563              	.LASF83:
 4564 07ad 69747374 		.ascii	"itstatus\000"
 4564      61747573 
 4564      00
 4565              		.ident	"GCC: (GNU Tools for Arm Embedded Processors 9-2019-q4-major) 9.2.1 20191025 (release) [ARM
ARM GAS  C:\Users\skey\AppData\Local\Temp\ccFDdSGQ.s 			page 105


DEFINED SYMBOLS
                            *ABS*:00000000 stm32f10x_fsmc.c
C:\Users\skey\AppData\Local\Temp\ccFDdSGQ.s:76     .text:00000000 $t
C:\Users\skey\AppData\Local\Temp\ccFDdSGQ.s:84     .text:00000000 FSMC_NORSRAMDeInit
C:\Users\skey\AppData\Local\Temp\ccFDdSGQ.s:139    .text:00000028 FSMC_NANDDeInit
C:\Users\skey\AppData\Local\Temp\ccFDdSGQ.s:183    .text:00000044 $d
C:\Users\skey\AppData\Local\Temp\ccFDdSGQ.s:188    .text:0000004c $t
C:\Users\skey\AppData\Local\Temp\ccFDdSGQ.s:195    .text:0000004c FSMC_PCCARDDeInit
C:\Users\skey\AppData\Local\Temp\ccFDdSGQ.s:232    .text:00000064 $d
C:\Users\skey\AppData\Local\Temp\ccFDdSGQ.s:236    .text:00000068 $t
C:\Users\skey\AppData\Local\Temp\ccFDdSGQ.s:243    .text:00000068 FSMC_NORSRAMInit
C:\Users\skey\AppData\Local\Temp\ccFDdSGQ.s:470    .text:0000011c FSMC_NANDInit
C:\Users\skey\AppData\Local\Temp\ccFDdSGQ.s:603    .text:0000017c $d
C:\Users\skey\AppData\Local\Temp\ccFDdSGQ.s:608    .text:00000184 $t
C:\Users\skey\AppData\Local\Temp\ccFDdSGQ.s:615    .text:00000184 FSMC_PCCARDInit
C:\Users\skey\AppData\Local\Temp\ccFDdSGQ.s:745    .text:000001e8 $d
C:\Users\skey\AppData\Local\Temp\ccFDdSGQ.s:749    .text:000001ec $t
C:\Users\skey\AppData\Local\Temp\ccFDdSGQ.s:756    .text:000001ec FSMC_NORSRAMStructInit
C:\Users\skey\AppData\Local\Temp\ccFDdSGQ.s:865    .text:0000023a FSMC_NANDStructInit
C:\Users\skey\AppData\Local\Temp\ccFDdSGQ.s:931    .text:00000264 FSMC_PCCARDStructInit
C:\Users\skey\AppData\Local\Temp\ccFDdSGQ.s:999    .text:0000028e FSMC_NORSRAMCmd
C:\Users\skey\AppData\Local\Temp\ccFDdSGQ.s:1040   .text:000002a8 $d
C:\Users\skey\AppData\Local\Temp\ccFDdSGQ.s:1044   .text:000002ac $t
C:\Users\skey\AppData\Local\Temp\ccFDdSGQ.s:1051   .text:000002ac FSMC_NANDCmd
C:\Users\skey\AppData\Local\Temp\ccFDdSGQ.s:1113   .text:000002d0 $d
C:\Users\skey\AppData\Local\Temp\ccFDdSGQ.s:1119   .text:000002dc $t
C:\Users\skey\AppData\Local\Temp\ccFDdSGQ.s:1126   .text:000002dc FSMC_PCCARDCmd
C:\Users\skey\AppData\Local\Temp\ccFDdSGQ.s:1163   .text:000002f4 $d
C:\Users\skey\AppData\Local\Temp\ccFDdSGQ.s:1168   .text:000002fc $t
C:\Users\skey\AppData\Local\Temp\ccFDdSGQ.s:1175   .text:000002fc FSMC_NANDECCCmd
C:\Users\skey\AppData\Local\Temp\ccFDdSGQ.s:1237   .text:00000320 $d
C:\Users\skey\AppData\Local\Temp\ccFDdSGQ.s:1243   .text:0000032c $t
C:\Users\skey\AppData\Local\Temp\ccFDdSGQ.s:1250   .text:0000032c FSMC_GetECC
C:\Users\skey\AppData\Local\Temp\ccFDdSGQ.s:1281   .text:00000338 $d
C:\Users\skey\AppData\Local\Temp\ccFDdSGQ.s:1286   .text:00000340 $t
C:\Users\skey\AppData\Local\Temp\ccFDdSGQ.s:1293   .text:00000340 FSMC_ITConfig
C:\Users\skey\AppData\Local\Temp\ccFDdSGQ.s:1391   .text:00000378 $d
C:\Users\skey\AppData\Local\Temp\ccFDdSGQ.s:1397   .text:00000384 $t
C:\Users\skey\AppData\Local\Temp\ccFDdSGQ.s:1404   .text:00000384 FSMC_GetFlagStatus
C:\Users\skey\AppData\Local\Temp\ccFDdSGQ.s:1462   .text:000003a4 $d
C:\Users\skey\AppData\Local\Temp\ccFDdSGQ.s:1468   .text:000003b0 $t
C:\Users\skey\AppData\Local\Temp\ccFDdSGQ.s:1475   .text:000003b0 FSMC_ClearFlag
C:\Users\skey\AppData\Local\Temp\ccFDdSGQ.s:1526   .text:000003d0 $d
C:\Users\skey\AppData\Local\Temp\ccFDdSGQ.s:1532   .text:000003dc $t
C:\Users\skey\AppData\Local\Temp\ccFDdSGQ.s:1539   .text:000003dc FSMC_GetITStatus
C:\Users\skey\AppData\Local\Temp\ccFDdSGQ.s:1610   .text:00000404 $d
C:\Users\skey\AppData\Local\Temp\ccFDdSGQ.s:1616   .text:00000410 $t
C:\Users\skey\AppData\Local\Temp\ccFDdSGQ.s:1623   .text:00000410 FSMC_ClearITPendingBit
C:\Users\skey\AppData\Local\Temp\ccFDdSGQ.s:1672   .text:00000430 $d

NO UNDEFINED SYMBOLS
