ARM GAS  C:\Users\skey\AppData\Local\Temp\ccKAsNbo.s 			page 1


   1              		.cpu cortex-m3
   2              		.eabi_attribute 20, 1	@ Tag_ABI_FP_denormal
   3              		.eabi_attribute 21, 1	@ Tag_ABI_FP_exceptions
   4              		.eabi_attribute 23, 3	@ Tag_ABI_FP_number_model
   5              		.eabi_attribute 24, 1	@ Tag_ABI_align8_needed
   6              		.eabi_attribute 25, 1	@ Tag_ABI_align8_preserved
   7              		.eabi_attribute 26, 1	@ Tag_ABI_enum_size
   8              		.eabi_attribute 30, 4	@ Tag_ABI_optimization_goals
   9              		.eabi_attribute 34, 1	@ Tag_CPU_unaligned_access
  10              		.eabi_attribute 18, 4	@ Tag_ABI_PCS_wchar_t
  11              		.file	"stm32f10x_dac.c"
  12              	@ GNU C17 (GNU Tools for Arm Embedded Processors 9-2019-q4-major) version 9.2.1 20191025 (release) 
  13              	@	compiled by GNU C version 5.3.1 20160211, GMP version 6.1.0, MPFR version 3.1.4, MPC version 1.0.
  14              	
  15              	@ GGC heuristics: --param ggc-min-expand=100 --param ggc-min-heapsize=131072
  16              	@ options passed:  -I . -I .\usr_inc -I .\task_inc
  17              	@ -I .\stlib\CMSIS\CM3\CoreSupport
  18              	@ -I .\stlib\CMSIS\CM3\DeviceSupport\ST\STM32F10x
  19              	@ -I .\stlib\STM32F10x_StdPeriph_Driver\inc
  20              	@ -I .\stlib\STM32F10x_StdPeriph_Driver -I .\freertos\include
  21              	@ -I .\freertos\portable\GCC\ARM_CM3 -imultilib thumb/v7-m/nofp
  22              	@ -iprefix c:\program files (x86)\gnu tools arm embedded\9 2019-q4-major\bin\../lib/gcc/arm-none-ea
  23              	@ -isysroot c:\program files (x86)\gnu tools arm embedded\9 2019-q4-major\bin\../arm-none-eabi
  24              	@ -D__USES_INITFINI__ -D STM32F10X_HD -D USE_STDPERIPH_DRIVER
  25              	@ -D HSE_VALUE=8000000 -D RUN_FROM_FLASH=1
  26              	@ .\stlib\STM32F10x_StdPeriph_Driver\src\stm32f10x_dac.c -mcpu=cortex-m3
  27              	@ -mthumb -mfloat-abi=soft -march=armv7-m
  28              	@ -auxbase-strip .\stlib\STM32F10x_StdPeriph_Driver\src\stm32f10x_dac.o -g
  29              	@ -gdwarf-2 -Os -Wall -fomit-frame-pointer -fverbose-asm
  30              	@ options enabled:  -faggressive-loop-optimizations -fassume-phsa
  31              	@ -fauto-inc-dec -fbranch-count-reg -fcaller-saves -fcode-hoisting
  32              	@ -fcombine-stack-adjustments -fcommon -fcompare-elim -fcprop-registers
  33              	@ -fcrossjumping -fcse-follow-jumps -fdefer-pop
  34              	@ -fdelete-null-pointer-checks -fdevirtualize -fdevirtualize-speculatively
  35              	@ -fdwarf2-cfi-asm -fearly-inlining -feliminate-unused-debug-types
  36              	@ -fexpensive-optimizations -fforward-propagate -ffp-int-builtin-inexact
  37              	@ -ffunction-cse -fgcse -fgcse-lm -fgnu-runtime -fgnu-unique
  38              	@ -fguess-branch-probability -fhoist-adjacent-loads -fident -fif-conversion
  39              	@ -fif-conversion2 -findirect-inlining -finline -finline-atomics
  40              	@ -finline-functions -finline-functions-called-once
  41              	@ -finline-small-functions -fipa-bit-cp -fipa-cp -fipa-icf
  42              	@ -fipa-icf-functions -fipa-icf-variables -fipa-profile -fipa-pure-const
  43              	@ -fipa-ra -fipa-reference -fipa-reference-addressable -fipa-sra
  44              	@ -fipa-stack-alignment -fipa-vrp -fira-hoist-pressure
  45              	@ -fira-share-save-slots -fira-share-spill-slots
  46              	@ -fisolate-erroneous-paths-dereference -fivopts -fkeep-static-consts
  47              	@ -fleading-underscore -flifetime-dse -flra-remat -flto-odr-type-merging
  48              	@ -fmath-errno -fmerge-constants -fmerge-debug-strings
  49              	@ -fmove-loop-invariants -fomit-frame-pointer -foptimize-sibling-calls
  50              	@ -fpartial-inlining -fpeephole -fpeephole2 -fplt -fprefetch-loop-arrays
  51              	@ -freg-struct-return -freorder-blocks -freorder-functions
  52              	@ -frerun-cse-after-loop -fsched-critical-path-heuristic
  53              	@ -fsched-dep-count-heuristic -fsched-group-heuristic -fsched-interblock
  54              	@ -fsched-last-insn-heuristic -fsched-pressure -fsched-rank-heuristic
  55              	@ -fsched-spec -fsched-spec-insn-heuristic -fsched-stalled-insns-dep
  56              	@ -fschedule-insns2 -fsection-anchors -fsemantic-interposition
  57              	@ -fshow-column -fshrink-wrap-separate -fsigned-zeros
ARM GAS  C:\Users\skey\AppData\Local\Temp\ccKAsNbo.s 			page 2


  58              	@ -fsplit-ivs-in-unroller -fsplit-wide-types -fssa-backprop -fssa-phiopt
  59              	@ -fstdarg-opt -fstore-merging -fstrict-aliasing
  60              	@ -fstrict-volatile-bitfields -fsync-libcalls -fthread-jumps
  61              	@ -ftoplevel-reorder -ftrapping-math -ftree-bit-ccp -ftree-builtin-call-dce
  62              	@ -ftree-ccp -ftree-ch -ftree-coalesce-vars -ftree-copy-prop -ftree-cselim
  63              	@ -ftree-dce -ftree-dominator-opts -ftree-dse -ftree-forwprop -ftree-fre
  64              	@ -ftree-loop-if-convert -ftree-loop-im -ftree-loop-ivcanon
  65              	@ -ftree-loop-optimize -ftree-parallelize-loops= -ftree-phiprop -ftree-pre
  66              	@ -ftree-pta -ftree-reassoc -ftree-scev-cprop -ftree-sink -ftree-slsr
  67              	@ -ftree-sra -ftree-switch-conversion -ftree-tail-merge -ftree-ter
  68              	@ -ftree-vrp -funit-at-a-time -fvar-tracking -fvar-tracking-assignments
  69              	@ -fverbose-asm -fzero-initialized-in-bss -masm-syntax-unified -mbe32
  70              	@ -mfix-cortex-m3-ldrd -mlittle-endian -mpic-data-is-text-relative
  71              	@ -msched-prolog -mthumb -munaligned-access -mvectorize-with-neon-quad
  72              	
  73              		.text
  74              	.Ltext0:
  75              		.cfi_sections	.debug_frame
  76              		.align	1
  77              		.global	DAC_DeInit
  78              		.arch armv7-m
  79              		.syntax unified
  80              		.thumb
  81              		.thumb_func
  82              		.fpu softvfp
  83              		.type	DAC_DeInit, %function
  84              	DAC_DeInit:
  85              	.LFB29:
  86              		.file 1 ".\\stlib\\STM32F10x_StdPeriph_Driver\\src\\stm32f10x_dac.c"
   1:.\stlib\STM32F10x_StdPeriph_Driver\src/stm32f10x_dac.c **** /**
   2:.\stlib\STM32F10x_StdPeriph_Driver\src/stm32f10x_dac.c ****   ******************************************************************************
   3:.\stlib\STM32F10x_StdPeriph_Driver\src/stm32f10x_dac.c ****   * @file    stm32f10x_dac.c
   4:.\stlib\STM32F10x_StdPeriph_Driver\src/stm32f10x_dac.c ****   * @author  MCD Application Team
   5:.\stlib\STM32F10x_StdPeriph_Driver\src/stm32f10x_dac.c ****   * @version V3.5.0
   6:.\stlib\STM32F10x_StdPeriph_Driver\src/stm32f10x_dac.c ****   * @date    11-March-2011
   7:.\stlib\STM32F10x_StdPeriph_Driver\src/stm32f10x_dac.c ****   * @brief   This file provides all the DAC firmware functions.
   8:.\stlib\STM32F10x_StdPeriph_Driver\src/stm32f10x_dac.c ****   ******************************************************************************
   9:.\stlib\STM32F10x_StdPeriph_Driver\src/stm32f10x_dac.c ****   * @attention
  10:.\stlib\STM32F10x_StdPeriph_Driver\src/stm32f10x_dac.c ****   *
  11:.\stlib\STM32F10x_StdPeriph_Driver\src/stm32f10x_dac.c ****   * THE PRESENT FIRMWARE WHICH IS FOR GUIDANCE ONLY AIMS AT PROVIDING CUSTOMERS
  12:.\stlib\STM32F10x_StdPeriph_Driver\src/stm32f10x_dac.c ****   * WITH CODING INFORMATION REGARDING THEIR PRODUCTS IN ORDER FOR THEM TO SAVE
  13:.\stlib\STM32F10x_StdPeriph_Driver\src/stm32f10x_dac.c ****   * TIME. AS A RESULT, STMICROELECTRONICS SHALL NOT BE HELD LIABLE FOR ANY
  14:.\stlib\STM32F10x_StdPeriph_Driver\src/stm32f10x_dac.c ****   * DIRECT, INDIRECT OR CONSEQUENTIAL DAMAGES WITH RESPECT TO ANY CLAIMS ARISING
  15:.\stlib\STM32F10x_StdPeriph_Driver\src/stm32f10x_dac.c ****   * FROM THE CONTENT OF SUCH FIRMWARE AND/OR THE USE MADE BY CUSTOMERS OF THE
  16:.\stlib\STM32F10x_StdPeriph_Driver\src/stm32f10x_dac.c ****   * CODING INFORMATION CONTAINED HEREIN IN CONNECTION WITH THEIR PRODUCTS.
  17:.\stlib\STM32F10x_StdPeriph_Driver\src/stm32f10x_dac.c ****   *
  18:.\stlib\STM32F10x_StdPeriph_Driver\src/stm32f10x_dac.c ****   * <h2><center>&copy; COPYRIGHT 2011 STMicroelectronics</center></h2>
  19:.\stlib\STM32F10x_StdPeriph_Driver\src/stm32f10x_dac.c ****   ******************************************************************************
  20:.\stlib\STM32F10x_StdPeriph_Driver\src/stm32f10x_dac.c ****   */
  21:.\stlib\STM32F10x_StdPeriph_Driver\src/stm32f10x_dac.c **** 
  22:.\stlib\STM32F10x_StdPeriph_Driver\src/stm32f10x_dac.c **** /* Includes ------------------------------------------------------------------*/
  23:.\stlib\STM32F10x_StdPeriph_Driver\src/stm32f10x_dac.c **** #include "stm32f10x_dac.h"
  24:.\stlib\STM32F10x_StdPeriph_Driver\src/stm32f10x_dac.c **** #include "stm32f10x_rcc.h"
  25:.\stlib\STM32F10x_StdPeriph_Driver\src/stm32f10x_dac.c **** 
  26:.\stlib\STM32F10x_StdPeriph_Driver\src/stm32f10x_dac.c **** /** @addtogroup STM32F10x_StdPeriph_Driver
  27:.\stlib\STM32F10x_StdPeriph_Driver\src/stm32f10x_dac.c ****   * @{
  28:.\stlib\STM32F10x_StdPeriph_Driver\src/stm32f10x_dac.c ****   */
ARM GAS  C:\Users\skey\AppData\Local\Temp\ccKAsNbo.s 			page 3


  29:.\stlib\STM32F10x_StdPeriph_Driver\src/stm32f10x_dac.c **** 
  30:.\stlib\STM32F10x_StdPeriph_Driver\src/stm32f10x_dac.c **** /** @defgroup DAC 
  31:.\stlib\STM32F10x_StdPeriph_Driver\src/stm32f10x_dac.c ****   * @brief DAC driver modules
  32:.\stlib\STM32F10x_StdPeriph_Driver\src/stm32f10x_dac.c ****   * @{
  33:.\stlib\STM32F10x_StdPeriph_Driver\src/stm32f10x_dac.c ****   */ 
  34:.\stlib\STM32F10x_StdPeriph_Driver\src/stm32f10x_dac.c **** 
  35:.\stlib\STM32F10x_StdPeriph_Driver\src/stm32f10x_dac.c **** /** @defgroup DAC_Private_TypesDefinitions
  36:.\stlib\STM32F10x_StdPeriph_Driver\src/stm32f10x_dac.c ****   * @{
  37:.\stlib\STM32F10x_StdPeriph_Driver\src/stm32f10x_dac.c ****   */
  38:.\stlib\STM32F10x_StdPeriph_Driver\src/stm32f10x_dac.c **** 
  39:.\stlib\STM32F10x_StdPeriph_Driver\src/stm32f10x_dac.c **** /**
  40:.\stlib\STM32F10x_StdPeriph_Driver\src/stm32f10x_dac.c ****   * @}
  41:.\stlib\STM32F10x_StdPeriph_Driver\src/stm32f10x_dac.c ****   */
  42:.\stlib\STM32F10x_StdPeriph_Driver\src/stm32f10x_dac.c **** 
  43:.\stlib\STM32F10x_StdPeriph_Driver\src/stm32f10x_dac.c **** /** @defgroup DAC_Private_Defines
  44:.\stlib\STM32F10x_StdPeriph_Driver\src/stm32f10x_dac.c ****   * @{
  45:.\stlib\STM32F10x_StdPeriph_Driver\src/stm32f10x_dac.c ****   */
  46:.\stlib\STM32F10x_StdPeriph_Driver\src/stm32f10x_dac.c **** 
  47:.\stlib\STM32F10x_StdPeriph_Driver\src/stm32f10x_dac.c **** /* CR register Mask */
  48:.\stlib\STM32F10x_StdPeriph_Driver\src/stm32f10x_dac.c **** #define CR_CLEAR_MASK              ((uint32_t)0x00000FFE)
  49:.\stlib\STM32F10x_StdPeriph_Driver\src/stm32f10x_dac.c **** 
  50:.\stlib\STM32F10x_StdPeriph_Driver\src/stm32f10x_dac.c **** /* DAC Dual Channels SWTRIG masks */
  51:.\stlib\STM32F10x_StdPeriph_Driver\src/stm32f10x_dac.c **** #define DUAL_SWTRIG_SET            ((uint32_t)0x00000003)
  52:.\stlib\STM32F10x_StdPeriph_Driver\src/stm32f10x_dac.c **** #define DUAL_SWTRIG_RESET          ((uint32_t)0xFFFFFFFC)
  53:.\stlib\STM32F10x_StdPeriph_Driver\src/stm32f10x_dac.c **** 
  54:.\stlib\STM32F10x_StdPeriph_Driver\src/stm32f10x_dac.c **** /* DHR registers offsets */
  55:.\stlib\STM32F10x_StdPeriph_Driver\src/stm32f10x_dac.c **** #define DHR12R1_OFFSET             ((uint32_t)0x00000008)
  56:.\stlib\STM32F10x_StdPeriph_Driver\src/stm32f10x_dac.c **** #define DHR12R2_OFFSET             ((uint32_t)0x00000014)
  57:.\stlib\STM32F10x_StdPeriph_Driver\src/stm32f10x_dac.c **** #define DHR12RD_OFFSET             ((uint32_t)0x00000020)
  58:.\stlib\STM32F10x_StdPeriph_Driver\src/stm32f10x_dac.c **** 
  59:.\stlib\STM32F10x_StdPeriph_Driver\src/stm32f10x_dac.c **** /* DOR register offset */
  60:.\stlib\STM32F10x_StdPeriph_Driver\src/stm32f10x_dac.c **** #define DOR_OFFSET                 ((uint32_t)0x0000002C)
  61:.\stlib\STM32F10x_StdPeriph_Driver\src/stm32f10x_dac.c **** /**
  62:.\stlib\STM32F10x_StdPeriph_Driver\src/stm32f10x_dac.c ****   * @}
  63:.\stlib\STM32F10x_StdPeriph_Driver\src/stm32f10x_dac.c ****   */
  64:.\stlib\STM32F10x_StdPeriph_Driver\src/stm32f10x_dac.c **** 
  65:.\stlib\STM32F10x_StdPeriph_Driver\src/stm32f10x_dac.c **** /** @defgroup DAC_Private_Macros
  66:.\stlib\STM32F10x_StdPeriph_Driver\src/stm32f10x_dac.c ****   * @{
  67:.\stlib\STM32F10x_StdPeriph_Driver\src/stm32f10x_dac.c ****   */
  68:.\stlib\STM32F10x_StdPeriph_Driver\src/stm32f10x_dac.c **** 
  69:.\stlib\STM32F10x_StdPeriph_Driver\src/stm32f10x_dac.c **** /**
  70:.\stlib\STM32F10x_StdPeriph_Driver\src/stm32f10x_dac.c ****   * @}
  71:.\stlib\STM32F10x_StdPeriph_Driver\src/stm32f10x_dac.c ****   */
  72:.\stlib\STM32F10x_StdPeriph_Driver\src/stm32f10x_dac.c **** 
  73:.\stlib\STM32F10x_StdPeriph_Driver\src/stm32f10x_dac.c **** /** @defgroup DAC_Private_Variables
  74:.\stlib\STM32F10x_StdPeriph_Driver\src/stm32f10x_dac.c ****   * @{
  75:.\stlib\STM32F10x_StdPeriph_Driver\src/stm32f10x_dac.c ****   */
  76:.\stlib\STM32F10x_StdPeriph_Driver\src/stm32f10x_dac.c **** 
  77:.\stlib\STM32F10x_StdPeriph_Driver\src/stm32f10x_dac.c **** /**
  78:.\stlib\STM32F10x_StdPeriph_Driver\src/stm32f10x_dac.c ****   * @}
  79:.\stlib\STM32F10x_StdPeriph_Driver\src/stm32f10x_dac.c ****   */
  80:.\stlib\STM32F10x_StdPeriph_Driver\src/stm32f10x_dac.c **** 
  81:.\stlib\STM32F10x_StdPeriph_Driver\src/stm32f10x_dac.c **** /** @defgroup DAC_Private_FunctionPrototypes
  82:.\stlib\STM32F10x_StdPeriph_Driver\src/stm32f10x_dac.c ****   * @{
  83:.\stlib\STM32F10x_StdPeriph_Driver\src/stm32f10x_dac.c ****   */
  84:.\stlib\STM32F10x_StdPeriph_Driver\src/stm32f10x_dac.c **** 
  85:.\stlib\STM32F10x_StdPeriph_Driver\src/stm32f10x_dac.c **** /**
ARM GAS  C:\Users\skey\AppData\Local\Temp\ccKAsNbo.s 			page 4


  86:.\stlib\STM32F10x_StdPeriph_Driver\src/stm32f10x_dac.c ****   * @}
  87:.\stlib\STM32F10x_StdPeriph_Driver\src/stm32f10x_dac.c ****   */
  88:.\stlib\STM32F10x_StdPeriph_Driver\src/stm32f10x_dac.c **** 
  89:.\stlib\STM32F10x_StdPeriph_Driver\src/stm32f10x_dac.c **** /** @defgroup DAC_Private_Functions
  90:.\stlib\STM32F10x_StdPeriph_Driver\src/stm32f10x_dac.c ****   * @{
  91:.\stlib\STM32F10x_StdPeriph_Driver\src/stm32f10x_dac.c ****   */
  92:.\stlib\STM32F10x_StdPeriph_Driver\src/stm32f10x_dac.c **** 
  93:.\stlib\STM32F10x_StdPeriph_Driver\src/stm32f10x_dac.c **** /**
  94:.\stlib\STM32F10x_StdPeriph_Driver\src/stm32f10x_dac.c ****   * @brief  Deinitializes the DAC peripheral registers to their default reset values.
  95:.\stlib\STM32F10x_StdPeriph_Driver\src/stm32f10x_dac.c ****   * @param  None
  96:.\stlib\STM32F10x_StdPeriph_Driver\src/stm32f10x_dac.c ****   * @retval None
  97:.\stlib\STM32F10x_StdPeriph_Driver\src/stm32f10x_dac.c ****   */
  98:.\stlib\STM32F10x_StdPeriph_Driver\src/stm32f10x_dac.c **** void DAC_DeInit(void)
  99:.\stlib\STM32F10x_StdPeriph_Driver\src/stm32f10x_dac.c **** {
  87              		.loc 1 99 1 view -0
  88              		.cfi_startproc
  89              		@ args = 0, pretend = 0, frame = 0
  90              		@ frame_needed = 0, uses_anonymous_args = 0
 100:.\stlib\STM32F10x_StdPeriph_Driver\src/stm32f10x_dac.c ****   /* Enable DAC reset state */
 101:.\stlib\STM32F10x_StdPeriph_Driver\src/stm32f10x_dac.c ****   RCC_APB1PeriphResetCmd(RCC_APB1Periph_DAC, ENABLE);
  91              		.loc 1 101 3 view .LVU1
  92              	@ .\stlib\STM32F10x_StdPeriph_Driver\src\stm32f10x_dac.c:99: {
  99:.\stlib\STM32F10x_StdPeriph_Driver\src/stm32f10x_dac.c ****   /* Enable DAC reset state */
  93              		.loc 1 99 1 is_stmt 0 view .LVU2
  94 0000 08B5     		push	{r3, lr}	@
  95              	.LCFI0:
  96              		.cfi_def_cfa_offset 8
  97              		.cfi_offset 3, -8
  98              		.cfi_offset 14, -4
  99              	@ .\stlib\STM32F10x_StdPeriph_Driver\src\stm32f10x_dac.c:101:   RCC_APB1PeriphResetCmd(RCC_APB1Peri
 100              		.loc 1 101 3 view .LVU3
 101 0002 0121     		movs	r1, #1	@,
 102 0004 4FF00050 		mov	r0, #536870912	@,
 103 0008 FFF7FEFF 		bl	RCC_APB1PeriphResetCmd		@
 104              	.LVL0:
 102:.\stlib\STM32F10x_StdPeriph_Driver\src/stm32f10x_dac.c ****   /* Release DAC from reset state */
 103:.\stlib\STM32F10x_StdPeriph_Driver\src/stm32f10x_dac.c ****   RCC_APB1PeriphResetCmd(RCC_APB1Periph_DAC, DISABLE);
 105              		.loc 1 103 3 is_stmt 1 view .LVU4
 106              	@ .\stlib\STM32F10x_StdPeriph_Driver\src\stm32f10x_dac.c:104: }
 104:.\stlib\STM32F10x_StdPeriph_Driver\src/stm32f10x_dac.c **** }
 107              		.loc 1 104 1 is_stmt 0 view .LVU5
 108 000c BDE80840 		pop	{r3, lr}	@
 109              	.LCFI1:
 110              		.cfi_restore 14
 111              		.cfi_restore 3
 112              		.cfi_def_cfa_offset 0
 113              	@ .\stlib\STM32F10x_StdPeriph_Driver\src\stm32f10x_dac.c:103:   RCC_APB1PeriphResetCmd(RCC_APB1Peri
 103:.\stlib\STM32F10x_StdPeriph_Driver\src/stm32f10x_dac.c **** }
 114              		.loc 1 103 3 view .LVU6
 115 0010 0021     		movs	r1, #0	@,
 116 0012 4FF00050 		mov	r0, #536870912	@,
 117 0016 FFF7FEBF 		b	RCC_APB1PeriphResetCmd		@
 118              	.LVL1:
 119              		.cfi_endproc
 120              	.LFE29:
 121              		.size	DAC_DeInit, .-DAC_DeInit
 122              		.align	1
ARM GAS  C:\Users\skey\AppData\Local\Temp\ccKAsNbo.s 			page 5


 123              		.global	DAC_Init
 124              		.syntax unified
 125              		.thumb
 126              		.thumb_func
 127              		.fpu softvfp
 128              		.type	DAC_Init, %function
 129              	DAC_Init:
 130              	.LVL2:
 131              	.LFB30:
 105:.\stlib\STM32F10x_StdPeriph_Driver\src/stm32f10x_dac.c **** 
 106:.\stlib\STM32F10x_StdPeriph_Driver\src/stm32f10x_dac.c **** /**
 107:.\stlib\STM32F10x_StdPeriph_Driver\src/stm32f10x_dac.c ****   * @brief  Initializes the DAC peripheral according to the specified 
 108:.\stlib\STM32F10x_StdPeriph_Driver\src/stm32f10x_dac.c ****   *         parameters in the DAC_InitStruct.
 109:.\stlib\STM32F10x_StdPeriph_Driver\src/stm32f10x_dac.c ****   * @param  DAC_Channel: the selected DAC channel. 
 110:.\stlib\STM32F10x_StdPeriph_Driver\src/stm32f10x_dac.c ****   *   This parameter can be one of the following values:
 111:.\stlib\STM32F10x_StdPeriph_Driver\src/stm32f10x_dac.c ****   *     @arg DAC_Channel_1: DAC Channel1 selected
 112:.\stlib\STM32F10x_StdPeriph_Driver\src/stm32f10x_dac.c ****   *     @arg DAC_Channel_2: DAC Channel2 selected
 113:.\stlib\STM32F10x_StdPeriph_Driver\src/stm32f10x_dac.c ****   * @param  DAC_InitStruct: pointer to a DAC_InitTypeDef structure that
 114:.\stlib\STM32F10x_StdPeriph_Driver\src/stm32f10x_dac.c ****   *        contains the configuration information for the specified DAC channel.
 115:.\stlib\STM32F10x_StdPeriph_Driver\src/stm32f10x_dac.c ****   * @retval None
 116:.\stlib\STM32F10x_StdPeriph_Driver\src/stm32f10x_dac.c ****   */
 117:.\stlib\STM32F10x_StdPeriph_Driver\src/stm32f10x_dac.c **** void DAC_Init(uint32_t DAC_Channel, DAC_InitTypeDef* DAC_InitStruct)
 118:.\stlib\STM32F10x_StdPeriph_Driver\src/stm32f10x_dac.c **** {
 132              		.loc 1 118 1 is_stmt 1 view -0
 133              		.cfi_startproc
 134              		@ args = 0, pretend = 0, frame = 0
 135              		@ frame_needed = 0, uses_anonymous_args = 0
 119:.\stlib\STM32F10x_StdPeriph_Driver\src/stm32f10x_dac.c ****   uint32_t tmpreg1 = 0, tmpreg2 = 0;
 136              		.loc 1 119 3 view .LVU8
 120:.\stlib\STM32F10x_StdPeriph_Driver\src/stm32f10x_dac.c ****   /* Check the DAC parameters */
 121:.\stlib\STM32F10x_StdPeriph_Driver\src/stm32f10x_dac.c ****   assert_param(IS_DAC_TRIGGER(DAC_InitStruct->DAC_Trigger));
 137              		.loc 1 121 3 view .LVU9
 122:.\stlib\STM32F10x_StdPeriph_Driver\src/stm32f10x_dac.c ****   assert_param(IS_DAC_GENERATE_WAVE(DAC_InitStruct->DAC_WaveGeneration));
 138              		.loc 1 122 3 view .LVU10
 123:.\stlib\STM32F10x_StdPeriph_Driver\src/stm32f10x_dac.c ****   assert_param(IS_DAC_LFSR_UNMASK_TRIANGLE_AMPLITUDE(DAC_InitStruct->DAC_LFSRUnmask_TriangleAmplitu
 139              		.loc 1 123 3 view .LVU11
 124:.\stlib\STM32F10x_StdPeriph_Driver\src/stm32f10x_dac.c ****   assert_param(IS_DAC_OUTPUT_BUFFER_STATE(DAC_InitStruct->DAC_OutputBuffer));
 140              		.loc 1 124 3 view .LVU12
 125:.\stlib\STM32F10x_StdPeriph_Driver\src/stm32f10x_dac.c **** /*---------------------------- DAC CR Configuration --------------------------*/
 126:.\stlib\STM32F10x_StdPeriph_Driver\src/stm32f10x_dac.c ****   /* Get the DAC CR value */
 127:.\stlib\STM32F10x_StdPeriph_Driver\src/stm32f10x_dac.c ****   tmpreg1 = DAC->CR;
 141              		.loc 1 127 3 view .LVU13
 142              	@ .\stlib\STM32F10x_StdPeriph_Driver\src\stm32f10x_dac.c:129:   tmpreg1 &= ~(CR_CLEAR_MASK << DAC_C
 128:.\stlib\STM32F10x_StdPeriph_Driver\src/stm32f10x_dac.c ****   /* Clear BOFFx, TENx, TSELx, WAVEx and MAMPx bits */
 129:.\stlib\STM32F10x_StdPeriph_Driver\src/stm32f10x_dac.c ****   tmpreg1 &= ~(CR_CLEAR_MASK << DAC_Channel);
 143              		.loc 1 129 30 is_stmt 0 view .LVU14
 144 001a 40F6FE73 		movw	r3, #4094	@ tmp127,
 145              	@ .\stlib\STM32F10x_StdPeriph_Driver\src\stm32f10x_dac.c:118: {
 118:.\stlib\STM32F10x_StdPeriph_Driver\src/stm32f10x_dac.c ****   uint32_t tmpreg1 = 0, tmpreg2 = 0;
 146              		.loc 1 118 1 view .LVU15
 147 001e 30B5     		push	{r4, r5, lr}	@
 148              	.LCFI2:
 149              		.cfi_def_cfa_offset 12
 150              		.cfi_offset 4, -12
 151              		.cfi_offset 5, -8
 152              		.cfi_offset 14, -4
 153              	@ .\stlib\STM32F10x_StdPeriph_Driver\src\stm32f10x_dac.c:127:   tmpreg1 = DAC->CR;
ARM GAS  C:\Users\skey\AppData\Local\Temp\ccKAsNbo.s 			page 6


 127:.\stlib\STM32F10x_StdPeriph_Driver\src/stm32f10x_dac.c ****   /* Clear BOFFx, TENx, TSELx, WAVEx and MAMPx bits */
 154              		.loc 1 127 11 view .LVU16
 155 0020 084C     		ldr	r4, .L3	@ tmp125,
 156              	@ .\stlib\STM32F10x_StdPeriph_Driver\src\stm32f10x_dac.c:129:   tmpreg1 &= ~(CR_CLEAR_MASK << DAC_C
 157              		.loc 1 129 30 view .LVU17
 158 0022 8340     		lsls	r3, r3, r0	@ tmp126, tmp127, DAC_Channel
 159              	@ .\stlib\STM32F10x_StdPeriph_Driver\src\stm32f10x_dac.c:127:   tmpreg1 = DAC->CR;
 127:.\stlib\STM32F10x_StdPeriph_Driver\src/stm32f10x_dac.c ****   /* Clear BOFFx, TENx, TSELx, WAVEx and MAMPx bits */
 160              		.loc 1 127 11 view .LVU18
 161 0024 2268     		ldr	r2, [r4]	@ tmpreg1, MEM[(struct DAC_TypeDef *)1073771520B].CR
 162              	.LVL3:
 163              		.loc 1 129 3 is_stmt 1 view .LVU19
 164              	@ .\stlib\STM32F10x_StdPeriph_Driver\src\stm32f10x_dac.c:129:   tmpreg1 &= ~(CR_CLEAR_MASK << DAC_C
 165              		.loc 1 129 11 is_stmt 0 view .LVU20
 166 0026 22EA0302 		bic	r2, r2, r3	@ tmpreg1, tmpreg1, tmp126
 167              	.LVL4:
 130:.\stlib\STM32F10x_StdPeriph_Driver\src/stm32f10x_dac.c ****   /* Configure for the selected DAC channel: buffer output, trigger, wave generation,
 131:.\stlib\STM32F10x_StdPeriph_Driver\src/stm32f10x_dac.c ****      mask/amplitude for wave generation */
 132:.\stlib\STM32F10x_StdPeriph_Driver\src/stm32f10x_dac.c ****   /* Set TSELx and TENx bits according to DAC_Trigger value */
 133:.\stlib\STM32F10x_StdPeriph_Driver\src/stm32f10x_dac.c ****   /* Set WAVEx bits according to DAC_WaveGeneration value */
 134:.\stlib\STM32F10x_StdPeriph_Driver\src/stm32f10x_dac.c ****   /* Set MAMPx bits according to DAC_LFSRUnmask_TriangleAmplitude value */ 
 135:.\stlib\STM32F10x_StdPeriph_Driver\src/stm32f10x_dac.c ****   /* Set BOFFx bit according to DAC_OutputBuffer value */   
 136:.\stlib\STM32F10x_StdPeriph_Driver\src/stm32f10x_dac.c ****   tmpreg2 = (DAC_InitStruct->DAC_Trigger | DAC_InitStruct->DAC_WaveGeneration |
 168              		.loc 1 136 3 is_stmt 1 view .LVU21
 137:.\stlib\STM32F10x_StdPeriph_Driver\src/stm32f10x_dac.c ****              DAC_InitStruct->DAC_LFSRUnmask_TriangleAmplitude | DAC_InitStruct->DAC_OutputBuffer);
 138:.\stlib\STM32F10x_StdPeriph_Driver\src/stm32f10x_dac.c ****   /* Calculate CR register value depending on DAC_Channel */
 139:.\stlib\STM32F10x_StdPeriph_Driver\src/stm32f10x_dac.c ****   tmpreg1 |= tmpreg2 << DAC_Channel;
 169              		.loc 1 139 3 view .LVU22
 170              	@ .\stlib\STM32F10x_StdPeriph_Driver\src\stm32f10x_dac.c:136:   tmpreg2 = (DAC_InitStruct->DAC_Trig
 136:.\stlib\STM32F10x_StdPeriph_Driver\src/stm32f10x_dac.c ****              DAC_InitStruct->DAC_LFSRUnmask_TriangleAmplitude | DAC_InitStruct->DAC_OutputBuffer);
 171              		.loc 1 136 42 is_stmt 0 view .LVU23
 172 002a D1E90035 		ldrd	r3, r5, [r1]	@ DAC_InitStruct_14(D)->DAC_Trigger, DAC_InitStruct_14(D)->DAC_WaveGeneration, D
 173 002e 2B43     		orrs	r3, r3, r5	@, tmp129, DAC_InitStruct_14(D)->DAC_Trigger, DAC_InitStruct_14(D)->DAC_WaveGenera
 174              	@ .\stlib\STM32F10x_StdPeriph_Driver\src\stm32f10x_dac.c:136:   tmpreg2 = (DAC_InitStruct->DAC_Trig
 136:.\stlib\STM32F10x_StdPeriph_Driver\src/stm32f10x_dac.c ****              DAC_InitStruct->DAC_LFSRUnmask_TriangleAmplitude | DAC_InitStruct->DAC_OutputBuffer);
 175              		.loc 1 136 79 view .LVU24
 176 0030 8D68     		ldr	r5, [r1, #8]	@ DAC_InitStruct_14(D)->DAC_LFSRUnmask_TriangleAmplitude, DAC_InitStruct_14(D)->D
 177              	@ .\stlib\STM32F10x_StdPeriph_Driver\src\stm32f10x_dac.c:136:   tmpreg2 = (DAC_InitStruct->DAC_Trig
 136:.\stlib\STM32F10x_StdPeriph_Driver\src/stm32f10x_dac.c ****              DAC_InitStruct->DAC_LFSRUnmask_TriangleAmplitude | DAC_InitStruct->DAC_OutputBuffer);
 178              		.loc 1 136 11 view .LVU25
 179 0032 C968     		ldr	r1, [r1, #12]	@ DAC_InitStruct_14(D)->DAC_OutputBuffer, DAC_InitStruct_14(D)->DAC_OutputBuffer
 180              	.LVL5:
 181              	@ .\stlib\STM32F10x_StdPeriph_Driver\src\stm32f10x_dac.c:136:   tmpreg2 = (DAC_InitStruct->DAC_Trig
 136:.\stlib\STM32F10x_StdPeriph_Driver\src/stm32f10x_dac.c ****              DAC_InitStruct->DAC_LFSRUnmask_TriangleAmplitude | DAC_InitStruct->DAC_OutputBuffer);
 182              		.loc 1 136 79 view .LVU26
 183 0034 2B43     		orrs	r3, r3, r5	@, tmp132, tmp129, DAC_InitStruct_14(D)->DAC_LFSRUnmask_TriangleAmplitude
 184              	@ .\stlib\STM32F10x_StdPeriph_Driver\src\stm32f10x_dac.c:136:   tmpreg2 = (DAC_InitStruct->DAC_Trig
 136:.\stlib\STM32F10x_StdPeriph_Driver\src/stm32f10x_dac.c ****              DAC_InitStruct->DAC_LFSRUnmask_TriangleAmplitude | DAC_InitStruct->DAC_OutputBuffer);
 185              		.loc 1 136 11 view .LVU27
 186 0036 0B43     		orrs	r3, r3, r1	@, tmpreg2, tmp132, DAC_InitStruct_14(D)->DAC_OutputBuffer
 187              	@ .\stlib\STM32F10x_StdPeriph_Driver\src\stm32f10x_dac.c:139:   tmpreg1 |= tmpreg2 << DAC_Channel;
 188              		.loc 1 139 22 view .LVU28
 189 0038 03FA00F0 		lsl	r0, r3, r0	@ tmp136, tmpreg2, DAC_Channel
 190              	.LVL6:
 191              	@ .\stlib\STM32F10x_StdPeriph_Driver\src\stm32f10x_dac.c:139:   tmpreg1 |= tmpreg2 << DAC_Channel;
 192              		.loc 1 139 11 view .LVU29
 193 003c 1043     		orrs	r0, r0, r2	@, tmpreg1, tmp136, tmpreg1
ARM GAS  C:\Users\skey\AppData\Local\Temp\ccKAsNbo.s 			page 7


 194              	.LVL7:
 140:.\stlib\STM32F10x_StdPeriph_Driver\src/stm32f10x_dac.c ****   /* Write to DAC CR */
 141:.\stlib\STM32F10x_StdPeriph_Driver\src/stm32f10x_dac.c ****   DAC->CR = tmpreg1;
 195              		.loc 1 141 3 is_stmt 1 view .LVU30
 196              	@ .\stlib\STM32F10x_StdPeriph_Driver\src\stm32f10x_dac.c:141:   DAC->CR = tmpreg1;
 197              		.loc 1 141 11 is_stmt 0 view .LVU31
 198 003e 2060     		str	r0, [r4]	@ tmpreg1, MEM[(struct DAC_TypeDef *)1073771520B].CR
 199              	.LVL8:
 200              	@ .\stlib\STM32F10x_StdPeriph_Driver\src\stm32f10x_dac.c:142: }
 142:.\stlib\STM32F10x_StdPeriph_Driver\src/stm32f10x_dac.c **** }
 201              		.loc 1 142 1 view .LVU32
 202 0040 30BD     		pop	{r4, r5, pc}	@
 203              	.L4:
 204 0042 00BF     		.align	2
 205              	.L3:
 206 0044 00740040 		.word	1073771520
 207              		.cfi_endproc
 208              	.LFE30:
 209              		.size	DAC_Init, .-DAC_Init
 210              		.align	1
 211              		.global	DAC_StructInit
 212              		.syntax unified
 213              		.thumb
 214              		.thumb_func
 215              		.fpu softvfp
 216              		.type	DAC_StructInit, %function
 217              	DAC_StructInit:
 218              	.LVL9:
 219              	.LFB31:
 143:.\stlib\STM32F10x_StdPeriph_Driver\src/stm32f10x_dac.c **** 
 144:.\stlib\STM32F10x_StdPeriph_Driver\src/stm32f10x_dac.c **** /**
 145:.\stlib\STM32F10x_StdPeriph_Driver\src/stm32f10x_dac.c ****   * @brief  Fills each DAC_InitStruct member with its default value.
 146:.\stlib\STM32F10x_StdPeriph_Driver\src/stm32f10x_dac.c ****   * @param  DAC_InitStruct : pointer to a DAC_InitTypeDef structure which will
 147:.\stlib\STM32F10x_StdPeriph_Driver\src/stm32f10x_dac.c ****   *         be initialized.
 148:.\stlib\STM32F10x_StdPeriph_Driver\src/stm32f10x_dac.c ****   * @retval None
 149:.\stlib\STM32F10x_StdPeriph_Driver\src/stm32f10x_dac.c ****   */
 150:.\stlib\STM32F10x_StdPeriph_Driver\src/stm32f10x_dac.c **** void DAC_StructInit(DAC_InitTypeDef* DAC_InitStruct)
 151:.\stlib\STM32F10x_StdPeriph_Driver\src/stm32f10x_dac.c **** {
 220              		.loc 1 151 1 is_stmt 1 view -0
 221              		.cfi_startproc
 222              		@ args = 0, pretend = 0, frame = 0
 223              		@ frame_needed = 0, uses_anonymous_args = 0
 224              		@ link register save eliminated.
 152:.\stlib\STM32F10x_StdPeriph_Driver\src/stm32f10x_dac.c **** /*--------------- Reset DAC init structure parameters values -----------------*/
 153:.\stlib\STM32F10x_StdPeriph_Driver\src/stm32f10x_dac.c ****   /* Initialize the DAC_Trigger member */
 154:.\stlib\STM32F10x_StdPeriph_Driver\src/stm32f10x_dac.c ****   DAC_InitStruct->DAC_Trigger = DAC_Trigger_None;
 225              		.loc 1 154 3 view .LVU34
 226              	@ .\stlib\STM32F10x_StdPeriph_Driver\src\stm32f10x_dac.c:154:   DAC_InitStruct->DAC_Trigger = DAC_T
 227              		.loc 1 154 31 is_stmt 0 view .LVU35
 228 0048 0023     		movs	r3, #0	@ tmp111,
 229              	@ .\stlib\STM32F10x_StdPeriph_Driver\src\stm32f10x_dac.c:156:   DAC_InitStruct->DAC_WaveGeneration 
 155:.\stlib\STM32F10x_StdPeriph_Driver\src/stm32f10x_dac.c ****   /* Initialize the DAC_WaveGeneration member */
 156:.\stlib\STM32F10x_StdPeriph_Driver\src/stm32f10x_dac.c ****   DAC_InitStruct->DAC_WaveGeneration = DAC_WaveGeneration_None;
 230              		.loc 1 156 38 view .LVU36
 231 004a C0E90033 		strd	r3, r3, [r0]	@ tmp111, tmp111, DAC_InitStruct
 157:.\stlib\STM32F10x_StdPeriph_Driver\src/stm32f10x_dac.c ****   /* Initialize the DAC_LFSRUnmask_TriangleAmplitude member */
 158:.\stlib\STM32F10x_StdPeriph_Driver\src/stm32f10x_dac.c ****   DAC_InitStruct->DAC_LFSRUnmask_TriangleAmplitude = DAC_LFSRUnmask_Bit0;
ARM GAS  C:\Users\skey\AppData\Local\Temp\ccKAsNbo.s 			page 8


 232              		.loc 1 158 3 is_stmt 1 view .LVU37
 233              	@ .\stlib\STM32F10x_StdPeriph_Driver\src\stm32f10x_dac.c:160:   DAC_InitStruct->DAC_OutputBuffer = 
 159:.\stlib\STM32F10x_StdPeriph_Driver\src/stm32f10x_dac.c ****   /* Initialize the DAC_OutputBuffer member */
 160:.\stlib\STM32F10x_StdPeriph_Driver\src/stm32f10x_dac.c ****   DAC_InitStruct->DAC_OutputBuffer = DAC_OutputBuffer_Enable;
 234              		.loc 1 160 36 is_stmt 0 view .LVU38
 235 004e C0E90233 		strd	r3, r3, [r0, #8]	@ tmp111, tmp111, DAC_InitStruct,
 236              	@ .\stlib\STM32F10x_StdPeriph_Driver\src\stm32f10x_dac.c:161: }
 161:.\stlib\STM32F10x_StdPeriph_Driver\src/stm32f10x_dac.c **** }
 237              		.loc 1 161 1 view .LVU39
 238 0052 7047     		bx	lr	@
 239              		.cfi_endproc
 240              	.LFE31:
 241              		.size	DAC_StructInit, .-DAC_StructInit
 242              		.align	1
 243              		.global	DAC_Cmd
 244              		.syntax unified
 245              		.thumb
 246              		.thumb_func
 247              		.fpu softvfp
 248              		.type	DAC_Cmd, %function
 249              	DAC_Cmd:
 250              	.LVL10:
 251              	.LFB32:
 162:.\stlib\STM32F10x_StdPeriph_Driver\src/stm32f10x_dac.c **** 
 163:.\stlib\STM32F10x_StdPeriph_Driver\src/stm32f10x_dac.c **** /**
 164:.\stlib\STM32F10x_StdPeriph_Driver\src/stm32f10x_dac.c ****   * @brief  Enables or disables the specified DAC channel.
 165:.\stlib\STM32F10x_StdPeriph_Driver\src/stm32f10x_dac.c ****   * @param  DAC_Channel: the selected DAC channel. 
 166:.\stlib\STM32F10x_StdPeriph_Driver\src/stm32f10x_dac.c ****   *   This parameter can be one of the following values:
 167:.\stlib\STM32F10x_StdPeriph_Driver\src/stm32f10x_dac.c ****   *     @arg DAC_Channel_1: DAC Channel1 selected
 168:.\stlib\STM32F10x_StdPeriph_Driver\src/stm32f10x_dac.c ****   *     @arg DAC_Channel_2: DAC Channel2 selected
 169:.\stlib\STM32F10x_StdPeriph_Driver\src/stm32f10x_dac.c ****   * @param  NewState: new state of the DAC channel. 
 170:.\stlib\STM32F10x_StdPeriph_Driver\src/stm32f10x_dac.c ****   *   This parameter can be: ENABLE or DISABLE.
 171:.\stlib\STM32F10x_StdPeriph_Driver\src/stm32f10x_dac.c ****   * @retval None
 172:.\stlib\STM32F10x_StdPeriph_Driver\src/stm32f10x_dac.c ****   */
 173:.\stlib\STM32F10x_StdPeriph_Driver\src/stm32f10x_dac.c **** void DAC_Cmd(uint32_t DAC_Channel, FunctionalState NewState)
 174:.\stlib\STM32F10x_StdPeriph_Driver\src/stm32f10x_dac.c **** {
 252              		.loc 1 174 1 is_stmt 1 view -0
 253              		.cfi_startproc
 254              		@ args = 0, pretend = 0, frame = 0
 255              		@ frame_needed = 0, uses_anonymous_args = 0
 256              		@ link register save eliminated.
 175:.\stlib\STM32F10x_StdPeriph_Driver\src/stm32f10x_dac.c ****   /* Check the parameters */
 176:.\stlib\STM32F10x_StdPeriph_Driver\src/stm32f10x_dac.c ****   assert_param(IS_DAC_CHANNEL(DAC_Channel));
 257              		.loc 1 176 3 view .LVU41
 177:.\stlib\STM32F10x_StdPeriph_Driver\src/stm32f10x_dac.c ****   assert_param(IS_FUNCTIONAL_STATE(NewState));
 258              		.loc 1 177 3 view .LVU42
 178:.\stlib\STM32F10x_StdPeriph_Driver\src/stm32f10x_dac.c ****   if (NewState != DISABLE)
 259              		.loc 1 178 3 view .LVU43
 260 0054 0123     		movs	r3, #1	@ tmp118,
 261 0056 03FA00F0 		lsl	r0, r3, r0	@ _14, tmp118, tmp125
 262              	.LVL11:
 263              		.loc 1 178 3 is_stmt 0 view .LVU44
 264 005a 044B     		ldr	r3, .L10	@ tmp124,
 265              	@ .\stlib\STM32F10x_StdPeriph_Driver\src\stm32f10x_dac.c:181:     DAC->CR |= (DAC_CR_EN1 << DAC_Cha
 179:.\stlib\STM32F10x_StdPeriph_Driver\src/stm32f10x_dac.c ****   {
 180:.\stlib\STM32F10x_StdPeriph_Driver\src/stm32f10x_dac.c ****     /* Enable the selected DAC channel */
 181:.\stlib\STM32F10x_StdPeriph_Driver\src/stm32f10x_dac.c ****     DAC->CR |= (DAC_CR_EN1 << DAC_Channel);
ARM GAS  C:\Users\skey\AppData\Local\Temp\ccKAsNbo.s 			page 9


 266              		.loc 1 181 13 view .LVU45
 267 005c 1A68     		ldr	r2, [r3]	@ _1,
 268              	@ .\stlib\STM32F10x_StdPeriph_Driver\src\stm32f10x_dac.c:178:   if (NewState != DISABLE)
 178:.\stlib\STM32F10x_StdPeriph_Driver\src/stm32f10x_dac.c ****   if (NewState != DISABLE)
 269              		.loc 1 178 6 view .LVU46
 270 005e 11B1     		cbz	r1, .L7	@ tmp126,
 271              		.loc 1 181 5 is_stmt 1 view .LVU47
 272              	@ .\stlib\STM32F10x_StdPeriph_Driver\src\stm32f10x_dac.c:181:     DAC->CR |= (DAC_CR_EN1 << DAC_Cha
 273              		.loc 1 181 13 is_stmt 0 view .LVU48
 274 0060 1043     		orrs	r0, r0, r2	@, _3, _14, _1
 275              	.L9:
 276              	@ .\stlib\STM32F10x_StdPeriph_Driver\src\stm32f10x_dac.c:186:     DAC->CR &= ~(DAC_CR_EN1 << DAC_Ch
 182:.\stlib\STM32F10x_StdPeriph_Driver\src/stm32f10x_dac.c ****   }
 183:.\stlib\STM32F10x_StdPeriph_Driver\src/stm32f10x_dac.c ****   else
 184:.\stlib\STM32F10x_StdPeriph_Driver\src/stm32f10x_dac.c ****   {
 185:.\stlib\STM32F10x_StdPeriph_Driver\src/stm32f10x_dac.c ****     /* Disable the selected DAC channel */
 186:.\stlib\STM32F10x_StdPeriph_Driver\src/stm32f10x_dac.c ****     DAC->CR &= ~(DAC_CR_EN1 << DAC_Channel);
 277              		.loc 1 186 13 view .LVU49
 278 0062 1860     		str	r0, [r3]	@ _7,
 279              	@ .\stlib\STM32F10x_StdPeriph_Driver\src\stm32f10x_dac.c:188: }
 187:.\stlib\STM32F10x_StdPeriph_Driver\src/stm32f10x_dac.c ****   }
 188:.\stlib\STM32F10x_StdPeriph_Driver\src/stm32f10x_dac.c **** }
 280              		.loc 1 188 1 view .LVU50
 281 0064 7047     		bx	lr	@
 282              	.L7:
 186:.\stlib\STM32F10x_StdPeriph_Driver\src/stm32f10x_dac.c ****   }
 283              		.loc 1 186 5 is_stmt 1 view .LVU51
 284              	@ .\stlib\STM32F10x_StdPeriph_Driver\src\stm32f10x_dac.c:186:     DAC->CR &= ~(DAC_CR_EN1 << DAC_Ch
 186:.\stlib\STM32F10x_StdPeriph_Driver\src/stm32f10x_dac.c ****   }
 285              		.loc 1 186 13 is_stmt 0 view .LVU52
 286 0066 22EA0000 		bic	r0, r2, r0	@ _7, _4, _14
 287 006a FAE7     		b	.L9		@
 288              	.L11:
 289              		.align	2
 290              	.L10:
 291 006c 00740040 		.word	1073771520
 292              		.cfi_endproc
 293              	.LFE32:
 294              		.size	DAC_Cmd, .-DAC_Cmd
 295              		.align	1
 296              		.global	DAC_DMACmd
 297              		.syntax unified
 298              		.thumb
 299              		.thumb_func
 300              		.fpu softvfp
 301              		.type	DAC_DMACmd, %function
 302              	DAC_DMACmd:
 303              	.LVL12:
 304              	.LFB33:
 189:.\stlib\STM32F10x_StdPeriph_Driver\src/stm32f10x_dac.c **** #if defined (STM32F10X_LD_VL) || defined (STM32F10X_MD_VL) || defined (STM32F10X_HD_VL)
 190:.\stlib\STM32F10x_StdPeriph_Driver\src/stm32f10x_dac.c **** /**
 191:.\stlib\STM32F10x_StdPeriph_Driver\src/stm32f10x_dac.c ****   * @brief  Enables or disables the specified DAC interrupts.
 192:.\stlib\STM32F10x_StdPeriph_Driver\src/stm32f10x_dac.c ****   * @param  DAC_Channel: the selected DAC channel. 
 193:.\stlib\STM32F10x_StdPeriph_Driver\src/stm32f10x_dac.c ****   *   This parameter can be one of the following values:
 194:.\stlib\STM32F10x_StdPeriph_Driver\src/stm32f10x_dac.c ****   *     @arg DAC_Channel_1: DAC Channel1 selected
 195:.\stlib\STM32F10x_StdPeriph_Driver\src/stm32f10x_dac.c ****   *     @arg DAC_Channel_2: DAC Channel2 selected
 196:.\stlib\STM32F10x_StdPeriph_Driver\src/stm32f10x_dac.c ****   * @param  DAC_IT: specifies the DAC interrupt sources to be enabled or disabled. 
ARM GAS  C:\Users\skey\AppData\Local\Temp\ccKAsNbo.s 			page 10


 197:.\stlib\STM32F10x_StdPeriph_Driver\src/stm32f10x_dac.c ****   *   This parameter can be the following values:
 198:.\stlib\STM32F10x_StdPeriph_Driver\src/stm32f10x_dac.c ****   *     @arg DAC_IT_DMAUDR: DMA underrun interrupt mask                      
 199:.\stlib\STM32F10x_StdPeriph_Driver\src/stm32f10x_dac.c ****   * @param  NewState: new state of the specified DAC interrupts.
 200:.\stlib\STM32F10x_StdPeriph_Driver\src/stm32f10x_dac.c ****   *   This parameter can be: ENABLE or DISABLE.
 201:.\stlib\STM32F10x_StdPeriph_Driver\src/stm32f10x_dac.c ****   * @retval None
 202:.\stlib\STM32F10x_StdPeriph_Driver\src/stm32f10x_dac.c ****   */ 
 203:.\stlib\STM32F10x_StdPeriph_Driver\src/stm32f10x_dac.c **** void DAC_ITConfig(uint32_t DAC_Channel, uint32_t DAC_IT, FunctionalState NewState)  
 204:.\stlib\STM32F10x_StdPeriph_Driver\src/stm32f10x_dac.c **** {
 205:.\stlib\STM32F10x_StdPeriph_Driver\src/stm32f10x_dac.c ****   /* Check the parameters */
 206:.\stlib\STM32F10x_StdPeriph_Driver\src/stm32f10x_dac.c ****   assert_param(IS_DAC_CHANNEL(DAC_Channel));
 207:.\stlib\STM32F10x_StdPeriph_Driver\src/stm32f10x_dac.c ****   assert_param(IS_FUNCTIONAL_STATE(NewState));
 208:.\stlib\STM32F10x_StdPeriph_Driver\src/stm32f10x_dac.c ****   assert_param(IS_DAC_IT(DAC_IT)); 
 209:.\stlib\STM32F10x_StdPeriph_Driver\src/stm32f10x_dac.c **** 
 210:.\stlib\STM32F10x_StdPeriph_Driver\src/stm32f10x_dac.c ****   if (NewState != DISABLE)
 211:.\stlib\STM32F10x_StdPeriph_Driver\src/stm32f10x_dac.c ****   {
 212:.\stlib\STM32F10x_StdPeriph_Driver\src/stm32f10x_dac.c ****     /* Enable the selected DAC interrupts */
 213:.\stlib\STM32F10x_StdPeriph_Driver\src/stm32f10x_dac.c ****     DAC->CR |=  (DAC_IT << DAC_Channel);
 214:.\stlib\STM32F10x_StdPeriph_Driver\src/stm32f10x_dac.c ****   }
 215:.\stlib\STM32F10x_StdPeriph_Driver\src/stm32f10x_dac.c ****   else
 216:.\stlib\STM32F10x_StdPeriph_Driver\src/stm32f10x_dac.c ****   {
 217:.\stlib\STM32F10x_StdPeriph_Driver\src/stm32f10x_dac.c ****     /* Disable the selected DAC interrupts */
 218:.\stlib\STM32F10x_StdPeriph_Driver\src/stm32f10x_dac.c ****     DAC->CR &= (~(uint32_t)(DAC_IT << DAC_Channel));
 219:.\stlib\STM32F10x_StdPeriph_Driver\src/stm32f10x_dac.c ****   }
 220:.\stlib\STM32F10x_StdPeriph_Driver\src/stm32f10x_dac.c **** }
 221:.\stlib\STM32F10x_StdPeriph_Driver\src/stm32f10x_dac.c **** #endif
 222:.\stlib\STM32F10x_StdPeriph_Driver\src/stm32f10x_dac.c **** 
 223:.\stlib\STM32F10x_StdPeriph_Driver\src/stm32f10x_dac.c **** /**
 224:.\stlib\STM32F10x_StdPeriph_Driver\src/stm32f10x_dac.c ****   * @brief  Enables or disables the specified DAC channel DMA request.
 225:.\stlib\STM32F10x_StdPeriph_Driver\src/stm32f10x_dac.c ****   * @param  DAC_Channel: the selected DAC channel. 
 226:.\stlib\STM32F10x_StdPeriph_Driver\src/stm32f10x_dac.c ****   *   This parameter can be one of the following values:
 227:.\stlib\STM32F10x_StdPeriph_Driver\src/stm32f10x_dac.c ****   *     @arg DAC_Channel_1: DAC Channel1 selected
 228:.\stlib\STM32F10x_StdPeriph_Driver\src/stm32f10x_dac.c ****   *     @arg DAC_Channel_2: DAC Channel2 selected
 229:.\stlib\STM32F10x_StdPeriph_Driver\src/stm32f10x_dac.c ****   * @param  NewState: new state of the selected DAC channel DMA request.
 230:.\stlib\STM32F10x_StdPeriph_Driver\src/stm32f10x_dac.c ****   *   This parameter can be: ENABLE or DISABLE.
 231:.\stlib\STM32F10x_StdPeriph_Driver\src/stm32f10x_dac.c ****   * @retval None
 232:.\stlib\STM32F10x_StdPeriph_Driver\src/stm32f10x_dac.c ****   */
 233:.\stlib\STM32F10x_StdPeriph_Driver\src/stm32f10x_dac.c **** void DAC_DMACmd(uint32_t DAC_Channel, FunctionalState NewState)
 234:.\stlib\STM32F10x_StdPeriph_Driver\src/stm32f10x_dac.c **** {
 305              		.loc 1 234 1 is_stmt 1 view -0
 306              		.cfi_startproc
 307              		@ args = 0, pretend = 0, frame = 0
 308              		@ frame_needed = 0, uses_anonymous_args = 0
 309              		@ link register save eliminated.
 235:.\stlib\STM32F10x_StdPeriph_Driver\src/stm32f10x_dac.c ****   /* Check the parameters */
 236:.\stlib\STM32F10x_StdPeriph_Driver\src/stm32f10x_dac.c ****   assert_param(IS_DAC_CHANNEL(DAC_Channel));
 310              		.loc 1 236 3 view .LVU54
 237:.\stlib\STM32F10x_StdPeriph_Driver\src/stm32f10x_dac.c ****   assert_param(IS_FUNCTIONAL_STATE(NewState));
 311              		.loc 1 237 3 view .LVU55
 238:.\stlib\STM32F10x_StdPeriph_Driver\src/stm32f10x_dac.c ****   if (NewState != DISABLE)
 312              		.loc 1 238 3 view .LVU56
 313 0070 4FF48053 		mov	r3, #4096	@ tmp118,
 314 0074 03FA00F0 		lsl	r0, r3, r0	@ _14, tmp118, tmp125
 315              	.LVL13:
 316              		.loc 1 238 3 is_stmt 0 view .LVU57
 317 0078 044B     		ldr	r3, .L16	@ tmp124,
 318              	@ .\stlib\STM32F10x_StdPeriph_Driver\src\stm32f10x_dac.c:241:     DAC->CR |= (DAC_CR_DMAEN1 << DAC_
 239:.\stlib\STM32F10x_StdPeriph_Driver\src/stm32f10x_dac.c ****   {
ARM GAS  C:\Users\skey\AppData\Local\Temp\ccKAsNbo.s 			page 11


 240:.\stlib\STM32F10x_StdPeriph_Driver\src/stm32f10x_dac.c ****     /* Enable the selected DAC channel DMA request */
 241:.\stlib\STM32F10x_StdPeriph_Driver\src/stm32f10x_dac.c ****     DAC->CR |= (DAC_CR_DMAEN1 << DAC_Channel);
 319              		.loc 1 241 13 view .LVU58
 320 007a 1A68     		ldr	r2, [r3]	@ _1,
 321              	@ .\stlib\STM32F10x_StdPeriph_Driver\src\stm32f10x_dac.c:238:   if (NewState != DISABLE)
 238:.\stlib\STM32F10x_StdPeriph_Driver\src/stm32f10x_dac.c ****   if (NewState != DISABLE)
 322              		.loc 1 238 6 view .LVU59
 323 007c 11B1     		cbz	r1, .L13	@ tmp126,
 324              		.loc 1 241 5 is_stmt 1 view .LVU60
 325              	@ .\stlib\STM32F10x_StdPeriph_Driver\src\stm32f10x_dac.c:241:     DAC->CR |= (DAC_CR_DMAEN1 << DAC_
 326              		.loc 1 241 13 is_stmt 0 view .LVU61
 327 007e 1043     		orrs	r0, r0, r2	@, _3, _14, _1
 328              	.L15:
 329              	@ .\stlib\STM32F10x_StdPeriph_Driver\src\stm32f10x_dac.c:246:     DAC->CR &= ~(DAC_CR_DMAEN1 << DAC
 242:.\stlib\STM32F10x_StdPeriph_Driver\src/stm32f10x_dac.c ****   }
 243:.\stlib\STM32F10x_StdPeriph_Driver\src/stm32f10x_dac.c ****   else
 244:.\stlib\STM32F10x_StdPeriph_Driver\src/stm32f10x_dac.c ****   {
 245:.\stlib\STM32F10x_StdPeriph_Driver\src/stm32f10x_dac.c ****     /* Disable the selected DAC channel DMA request */
 246:.\stlib\STM32F10x_StdPeriph_Driver\src/stm32f10x_dac.c ****     DAC->CR &= ~(DAC_CR_DMAEN1 << DAC_Channel);
 330              		.loc 1 246 13 view .LVU62
 331 0080 1860     		str	r0, [r3]	@ _7,
 332              	@ .\stlib\STM32F10x_StdPeriph_Driver\src\stm32f10x_dac.c:248: }
 247:.\stlib\STM32F10x_StdPeriph_Driver\src/stm32f10x_dac.c ****   }
 248:.\stlib\STM32F10x_StdPeriph_Driver\src/stm32f10x_dac.c **** }
 333              		.loc 1 248 1 view .LVU63
 334 0082 7047     		bx	lr	@
 335              	.L13:
 246:.\stlib\STM32F10x_StdPeriph_Driver\src/stm32f10x_dac.c ****   }
 336              		.loc 1 246 5 is_stmt 1 view .LVU64
 337              	@ .\stlib\STM32F10x_StdPeriph_Driver\src\stm32f10x_dac.c:246:     DAC->CR &= ~(DAC_CR_DMAEN1 << DAC
 246:.\stlib\STM32F10x_StdPeriph_Driver\src/stm32f10x_dac.c ****   }
 338              		.loc 1 246 13 is_stmt 0 view .LVU65
 339 0084 22EA0000 		bic	r0, r2, r0	@ _7, _4, _14
 340 0088 FAE7     		b	.L15		@
 341              	.L17:
 342 008a 00BF     		.align	2
 343              	.L16:
 344 008c 00740040 		.word	1073771520
 345              		.cfi_endproc
 346              	.LFE33:
 347              		.size	DAC_DMACmd, .-DAC_DMACmd
 348              		.align	1
 349              		.global	DAC_SoftwareTriggerCmd
 350              		.syntax unified
 351              		.thumb
 352              		.thumb_func
 353              		.fpu softvfp
 354              		.type	DAC_SoftwareTriggerCmd, %function
 355              	DAC_SoftwareTriggerCmd:
 356              	.LVL14:
 357              	.LFB34:
 249:.\stlib\STM32F10x_StdPeriph_Driver\src/stm32f10x_dac.c **** 
 250:.\stlib\STM32F10x_StdPeriph_Driver\src/stm32f10x_dac.c **** /**
 251:.\stlib\STM32F10x_StdPeriph_Driver\src/stm32f10x_dac.c ****   * @brief  Enables or disables the selected DAC channel software trigger.
 252:.\stlib\STM32F10x_StdPeriph_Driver\src/stm32f10x_dac.c ****   * @param  DAC_Channel: the selected DAC channel. 
 253:.\stlib\STM32F10x_StdPeriph_Driver\src/stm32f10x_dac.c ****   *   This parameter can be one of the following values:
 254:.\stlib\STM32F10x_StdPeriph_Driver\src/stm32f10x_dac.c ****   *     @arg DAC_Channel_1: DAC Channel1 selected
ARM GAS  C:\Users\skey\AppData\Local\Temp\ccKAsNbo.s 			page 12


 255:.\stlib\STM32F10x_StdPeriph_Driver\src/stm32f10x_dac.c ****   *     @arg DAC_Channel_2: DAC Channel2 selected
 256:.\stlib\STM32F10x_StdPeriph_Driver\src/stm32f10x_dac.c ****   * @param  NewState: new state of the selected DAC channel software trigger.
 257:.\stlib\STM32F10x_StdPeriph_Driver\src/stm32f10x_dac.c ****   *   This parameter can be: ENABLE or DISABLE.
 258:.\stlib\STM32F10x_StdPeriph_Driver\src/stm32f10x_dac.c ****   * @retval None
 259:.\stlib\STM32F10x_StdPeriph_Driver\src/stm32f10x_dac.c ****   */
 260:.\stlib\STM32F10x_StdPeriph_Driver\src/stm32f10x_dac.c **** void DAC_SoftwareTriggerCmd(uint32_t DAC_Channel, FunctionalState NewState)
 261:.\stlib\STM32F10x_StdPeriph_Driver\src/stm32f10x_dac.c **** {
 358              		.loc 1 261 1 is_stmt 1 view -0
 359              		.cfi_startproc
 360              		@ args = 0, pretend = 0, frame = 0
 361              		@ frame_needed = 0, uses_anonymous_args = 0
 362              		@ link register save eliminated.
 262:.\stlib\STM32F10x_StdPeriph_Driver\src/stm32f10x_dac.c ****   /* Check the parameters */
 263:.\stlib\STM32F10x_StdPeriph_Driver\src/stm32f10x_dac.c ****   assert_param(IS_DAC_CHANNEL(DAC_Channel));
 363              		.loc 1 263 3 view .LVU67
 264:.\stlib\STM32F10x_StdPeriph_Driver\src/stm32f10x_dac.c ****   assert_param(IS_FUNCTIONAL_STATE(NewState));
 364              		.loc 1 264 3 view .LVU68
 265:.\stlib\STM32F10x_StdPeriph_Driver\src/stm32f10x_dac.c ****   if (NewState != DISABLE)
 365              		.loc 1 265 3 view .LVU69
 366 0090 0309     		lsrs	r3, r0, #4	@ tmp119, tmp127,
 367 0092 0120     		movs	r0, #1	@ tmp120,
 368              	.LVL15:
 369              		.loc 1 265 3 is_stmt 0 view .LVU70
 370 0094 9840     		lsls	r0, r0, r3	@ _17, tmp120, tmp119
 371 0096 044B     		ldr	r3, .L22	@ tmp126,
 372              	@ .\stlib\STM32F10x_StdPeriph_Driver\src\stm32f10x_dac.c:268:     DAC->SWTRIGR |= (uint32_t)DAC_SWT
 266:.\stlib\STM32F10x_StdPeriph_Driver\src/stm32f10x_dac.c ****   {
 267:.\stlib\STM32F10x_StdPeriph_Driver\src/stm32f10x_dac.c ****     /* Enable software trigger for the selected DAC channel */
 268:.\stlib\STM32F10x_StdPeriph_Driver\src/stm32f10x_dac.c ****     DAC->SWTRIGR |= (uint32_t)DAC_SWTRIGR_SWTRIG1 << (DAC_Channel >> 4);
 373              		.loc 1 268 18 view .LVU71
 374 0098 5A68     		ldr	r2, [r3, #4]	@ _1,
 375              	@ .\stlib\STM32F10x_StdPeriph_Driver\src\stm32f10x_dac.c:265:   if (NewState != DISABLE)
 265:.\stlib\STM32F10x_StdPeriph_Driver\src/stm32f10x_dac.c ****   if (NewState != DISABLE)
 376              		.loc 1 265 6 view .LVU72
 377 009a 11B1     		cbz	r1, .L19	@ tmp128,
 378              		.loc 1 268 5 is_stmt 1 view .LVU73
 379              	@ .\stlib\STM32F10x_StdPeriph_Driver\src\stm32f10x_dac.c:268:     DAC->SWTRIGR |= (uint32_t)DAC_SWT
 380              		.loc 1 268 18 is_stmt 0 view .LVU74
 381 009c 1043     		orrs	r0, r0, r2	@, _4, _17, _1
 382              	.L21:
 383              	@ .\stlib\STM32F10x_StdPeriph_Driver\src\stm32f10x_dac.c:273:     DAC->SWTRIGR &= ~((uint32_t)DAC_S
 269:.\stlib\STM32F10x_StdPeriph_Driver\src/stm32f10x_dac.c ****   }
 270:.\stlib\STM32F10x_StdPeriph_Driver\src/stm32f10x_dac.c ****   else
 271:.\stlib\STM32F10x_StdPeriph_Driver\src/stm32f10x_dac.c ****   {
 272:.\stlib\STM32F10x_StdPeriph_Driver\src/stm32f10x_dac.c ****     /* Disable software trigger for the selected DAC channel */
 273:.\stlib\STM32F10x_StdPeriph_Driver\src/stm32f10x_dac.c ****     DAC->SWTRIGR &= ~((uint32_t)DAC_SWTRIGR_SWTRIG1 << (DAC_Channel >> 4));
 384              		.loc 1 273 18 view .LVU75
 385 009e 5860     		str	r0, [r3, #4]	@ _9,
 386              	@ .\stlib\STM32F10x_StdPeriph_Driver\src\stm32f10x_dac.c:275: }
 274:.\stlib\STM32F10x_StdPeriph_Driver\src/stm32f10x_dac.c ****   }
 275:.\stlib\STM32F10x_StdPeriph_Driver\src/stm32f10x_dac.c **** }
 387              		.loc 1 275 1 view .LVU76
 388 00a0 7047     		bx	lr	@
 389              	.L19:
 273:.\stlib\STM32F10x_StdPeriph_Driver\src/stm32f10x_dac.c ****   }
 390              		.loc 1 273 5 is_stmt 1 view .LVU77
 391              	@ .\stlib\STM32F10x_StdPeriph_Driver\src\stm32f10x_dac.c:273:     DAC->SWTRIGR &= ~((uint32_t)DAC_S
ARM GAS  C:\Users\skey\AppData\Local\Temp\ccKAsNbo.s 			page 13


 273:.\stlib\STM32F10x_StdPeriph_Driver\src/stm32f10x_dac.c ****   }
 392              		.loc 1 273 18 is_stmt 0 view .LVU78
 393 00a2 22EA0000 		bic	r0, r2, r0	@ _9, _5, _17
 394 00a6 FAE7     		b	.L21		@
 395              	.L23:
 396              		.align	2
 397              	.L22:
 398 00a8 00740040 		.word	1073771520
 399              		.cfi_endproc
 400              	.LFE34:
 401              		.size	DAC_SoftwareTriggerCmd, .-DAC_SoftwareTriggerCmd
 402              		.align	1
 403              		.global	DAC_DualSoftwareTriggerCmd
 404              		.syntax unified
 405              		.thumb
 406              		.thumb_func
 407              		.fpu softvfp
 408              		.type	DAC_DualSoftwareTriggerCmd, %function
 409              	DAC_DualSoftwareTriggerCmd:
 410              	.LVL16:
 411              	.LFB35:
 276:.\stlib\STM32F10x_StdPeriph_Driver\src/stm32f10x_dac.c **** 
 277:.\stlib\STM32F10x_StdPeriph_Driver\src/stm32f10x_dac.c **** /**
 278:.\stlib\STM32F10x_StdPeriph_Driver\src/stm32f10x_dac.c ****   * @brief  Enables or disables simultaneously the two DAC channels software
 279:.\stlib\STM32F10x_StdPeriph_Driver\src/stm32f10x_dac.c ****   *   triggers.
 280:.\stlib\STM32F10x_StdPeriph_Driver\src/stm32f10x_dac.c ****   * @param  NewState: new state of the DAC channels software triggers.
 281:.\stlib\STM32F10x_StdPeriph_Driver\src/stm32f10x_dac.c ****   *   This parameter can be: ENABLE or DISABLE.
 282:.\stlib\STM32F10x_StdPeriph_Driver\src/stm32f10x_dac.c ****   * @retval None
 283:.\stlib\STM32F10x_StdPeriph_Driver\src/stm32f10x_dac.c ****   */
 284:.\stlib\STM32F10x_StdPeriph_Driver\src/stm32f10x_dac.c **** void DAC_DualSoftwareTriggerCmd(FunctionalState NewState)
 285:.\stlib\STM32F10x_StdPeriph_Driver\src/stm32f10x_dac.c **** {
 412              		.loc 1 285 1 is_stmt 1 view -0
 413              		.cfi_startproc
 414              		@ args = 0, pretend = 0, frame = 0
 415              		@ frame_needed = 0, uses_anonymous_args = 0
 416              		@ link register save eliminated.
 286:.\stlib\STM32F10x_StdPeriph_Driver\src/stm32f10x_dac.c ****   /* Check the parameters */
 287:.\stlib\STM32F10x_StdPeriph_Driver\src/stm32f10x_dac.c ****   assert_param(IS_FUNCTIONAL_STATE(NewState));
 417              		.loc 1 287 3 view .LVU80
 288:.\stlib\STM32F10x_StdPeriph_Driver\src/stm32f10x_dac.c ****   if (NewState != DISABLE)
 418              		.loc 1 288 3 view .LVU81
 419 00ac 044B     		ldr	r3, .L28	@ tmp119,
 420              	@ .\stlib\STM32F10x_StdPeriph_Driver\src\stm32f10x_dac.c:291:     DAC->SWTRIGR |= DUAL_SWTRIG_SET ;
 289:.\stlib\STM32F10x_StdPeriph_Driver\src/stm32f10x_dac.c ****   {
 290:.\stlib\STM32F10x_StdPeriph_Driver\src/stm32f10x_dac.c ****     /* Enable software trigger for both DAC channels */
 291:.\stlib\STM32F10x_StdPeriph_Driver\src/stm32f10x_dac.c ****     DAC->SWTRIGR |= DUAL_SWTRIG_SET ;
 421              		.loc 1 291 18 is_stmt 0 view .LVU82
 422 00ae 5A68     		ldr	r2, [r3, #4]	@ _1,
 423              	@ .\stlib\STM32F10x_StdPeriph_Driver\src\stm32f10x_dac.c:288:   if (NewState != DISABLE)
 288:.\stlib\STM32F10x_StdPeriph_Driver\src/stm32f10x_dac.c ****   if (NewState != DISABLE)
 424              		.loc 1 288 6 view .LVU83
 425 00b0 18B1     		cbz	r0, .L25	@ tmp120,
 426              		.loc 1 291 5 is_stmt 1 view .LVU84
 427              	@ .\stlib\STM32F10x_StdPeriph_Driver\src\stm32f10x_dac.c:291:     DAC->SWTRIGR |= DUAL_SWTRIG_SET ;
 428              		.loc 1 291 18 is_stmt 0 view .LVU85
 429 00b2 42F00302 		orr	r2, r2, #3	@ _2, _1,
 430              	.L27:
ARM GAS  C:\Users\skey\AppData\Local\Temp\ccKAsNbo.s 			page 14


 431              	@ .\stlib\STM32F10x_StdPeriph_Driver\src\stm32f10x_dac.c:296:     DAC->SWTRIGR &= DUAL_SWTRIG_RESET
 292:.\stlib\STM32F10x_StdPeriph_Driver\src/stm32f10x_dac.c ****   }
 293:.\stlib\STM32F10x_StdPeriph_Driver\src/stm32f10x_dac.c ****   else
 294:.\stlib\STM32F10x_StdPeriph_Driver\src/stm32f10x_dac.c ****   {
 295:.\stlib\STM32F10x_StdPeriph_Driver\src/stm32f10x_dac.c ****     /* Disable software trigger for both DAC channels */
 296:.\stlib\STM32F10x_StdPeriph_Driver\src/stm32f10x_dac.c ****     DAC->SWTRIGR &= DUAL_SWTRIG_RESET;
 432              		.loc 1 296 18 view .LVU86
 433 00b6 5A60     		str	r2, [r3, #4]	@ _4,
 434              	@ .\stlib\STM32F10x_StdPeriph_Driver\src\stm32f10x_dac.c:298: }
 297:.\stlib\STM32F10x_StdPeriph_Driver\src/stm32f10x_dac.c ****   }
 298:.\stlib\STM32F10x_StdPeriph_Driver\src/stm32f10x_dac.c **** }
 435              		.loc 1 298 1 view .LVU87
 436 00b8 7047     		bx	lr	@
 437              	.L25:
 296:.\stlib\STM32F10x_StdPeriph_Driver\src/stm32f10x_dac.c ****   }
 438              		.loc 1 296 5 is_stmt 1 view .LVU88
 439              	@ .\stlib\STM32F10x_StdPeriph_Driver\src\stm32f10x_dac.c:296:     DAC->SWTRIGR &= DUAL_SWTRIG_RESET
 296:.\stlib\STM32F10x_StdPeriph_Driver\src/stm32f10x_dac.c ****   }
 440              		.loc 1 296 18 is_stmt 0 view .LVU89
 441 00ba 22F00302 		bic	r2, r2, #3	@ _4, _3,
 442 00be FAE7     		b	.L27		@
 443              	.L29:
 444              		.align	2
 445              	.L28:
 446 00c0 00740040 		.word	1073771520
 447              		.cfi_endproc
 448              	.LFE35:
 449              		.size	DAC_DualSoftwareTriggerCmd, .-DAC_DualSoftwareTriggerCmd
 450              		.align	1
 451              		.global	DAC_WaveGenerationCmd
 452              		.syntax unified
 453              		.thumb
 454              		.thumb_func
 455              		.fpu softvfp
 456              		.type	DAC_WaveGenerationCmd, %function
 457              	DAC_WaveGenerationCmd:
 458              	.LVL17:
 459              	.LFB36:
 299:.\stlib\STM32F10x_StdPeriph_Driver\src/stm32f10x_dac.c **** 
 300:.\stlib\STM32F10x_StdPeriph_Driver\src/stm32f10x_dac.c **** /**
 301:.\stlib\STM32F10x_StdPeriph_Driver\src/stm32f10x_dac.c ****   * @brief  Enables or disables the selected DAC channel wave generation.
 302:.\stlib\STM32F10x_StdPeriph_Driver\src/stm32f10x_dac.c ****   * @param  DAC_Channel: the selected DAC channel. 
 303:.\stlib\STM32F10x_StdPeriph_Driver\src/stm32f10x_dac.c ****   *   This parameter can be one of the following values:
 304:.\stlib\STM32F10x_StdPeriph_Driver\src/stm32f10x_dac.c ****   *     @arg DAC_Channel_1: DAC Channel1 selected
 305:.\stlib\STM32F10x_StdPeriph_Driver\src/stm32f10x_dac.c ****   *     @arg DAC_Channel_2: DAC Channel2 selected
 306:.\stlib\STM32F10x_StdPeriph_Driver\src/stm32f10x_dac.c ****   * @param  DAC_Wave: Specifies the wave type to enable or disable.
 307:.\stlib\STM32F10x_StdPeriph_Driver\src/stm32f10x_dac.c ****   *   This parameter can be one of the following values:
 308:.\stlib\STM32F10x_StdPeriph_Driver\src/stm32f10x_dac.c ****   *     @arg DAC_Wave_Noise: noise wave generation
 309:.\stlib\STM32F10x_StdPeriph_Driver\src/stm32f10x_dac.c ****   *     @arg DAC_Wave_Triangle: triangle wave generation
 310:.\stlib\STM32F10x_StdPeriph_Driver\src/stm32f10x_dac.c ****   * @param  NewState: new state of the selected DAC channel wave generation.
 311:.\stlib\STM32F10x_StdPeriph_Driver\src/stm32f10x_dac.c ****   *   This parameter can be: ENABLE or DISABLE.
 312:.\stlib\STM32F10x_StdPeriph_Driver\src/stm32f10x_dac.c ****   * @retval None
 313:.\stlib\STM32F10x_StdPeriph_Driver\src/stm32f10x_dac.c ****   */
 314:.\stlib\STM32F10x_StdPeriph_Driver\src/stm32f10x_dac.c **** void DAC_WaveGenerationCmd(uint32_t DAC_Channel, uint32_t DAC_Wave, FunctionalState NewState)
 315:.\stlib\STM32F10x_StdPeriph_Driver\src/stm32f10x_dac.c **** {
 460              		.loc 1 315 1 is_stmt 1 view -0
 461              		.cfi_startproc
ARM GAS  C:\Users\skey\AppData\Local\Temp\ccKAsNbo.s 			page 15


 462              		@ args = 0, pretend = 0, frame = 0
 463              		@ frame_needed = 0, uses_anonymous_args = 0
 464              		@ link register save eliminated.
 316:.\stlib\STM32F10x_StdPeriph_Driver\src/stm32f10x_dac.c ****   /* Check the parameters */
 317:.\stlib\STM32F10x_StdPeriph_Driver\src/stm32f10x_dac.c ****   assert_param(IS_DAC_CHANNEL(DAC_Channel));
 465              		.loc 1 317 3 view .LVU91
 318:.\stlib\STM32F10x_StdPeriph_Driver\src/stm32f10x_dac.c ****   assert_param(IS_DAC_WAVE(DAC_Wave)); 
 466              		.loc 1 318 3 view .LVU92
 319:.\stlib\STM32F10x_StdPeriph_Driver\src/stm32f10x_dac.c ****   assert_param(IS_FUNCTIONAL_STATE(NewState));
 467              		.loc 1 319 3 view .LVU93
 320:.\stlib\STM32F10x_StdPeriph_Driver\src/stm32f10x_dac.c ****   if (NewState != DISABLE)
 468              		.loc 1 320 3 view .LVU94
 469 00c4 044B     		ldr	r3, .L34	@ tmp124,
 470 00c6 8140     		lsls	r1, r1, r0	@ _15, tmp126, tmp125
 471              	.LVL18:
 472              	@ .\stlib\STM32F10x_StdPeriph_Driver\src\stm32f10x_dac.c:323:     DAC->CR |= DAC_Wave << DAC_Channe
 321:.\stlib\STM32F10x_StdPeriph_Driver\src/stm32f10x_dac.c ****   {
 322:.\stlib\STM32F10x_StdPeriph_Driver\src/stm32f10x_dac.c ****     /* Enable the selected wave generation for the selected DAC channel */
 323:.\stlib\STM32F10x_StdPeriph_Driver\src/stm32f10x_dac.c ****     DAC->CR |= DAC_Wave << DAC_Channel;
 473              		.loc 1 323 13 is_stmt 0 view .LVU95
 474 00c8 1868     		ldr	r0, [r3]	@ _1,
 475              	.LVL19:
 476              	@ .\stlib\STM32F10x_StdPeriph_Driver\src\stm32f10x_dac.c:320:   if (NewState != DISABLE)
 320:.\stlib\STM32F10x_StdPeriph_Driver\src/stm32f10x_dac.c ****   if (NewState != DISABLE)
 477              		.loc 1 320 6 view .LVU96
 478 00ca 12B1     		cbz	r2, .L31	@ tmp127,
 479              		.loc 1 323 5 is_stmt 1 view .LVU97
 480              	@ .\stlib\STM32F10x_StdPeriph_Driver\src\stm32f10x_dac.c:323:     DAC->CR |= DAC_Wave << DAC_Channe
 481              		.loc 1 323 13 is_stmt 0 view .LVU98
 482 00cc 0143     		orrs	r1, r1, r0	@, _3, _15, _1
 483              	.L33:
 484              	@ .\stlib\STM32F10x_StdPeriph_Driver\src\stm32f10x_dac.c:328:     DAC->CR &= ~(DAC_Wave << DAC_Chan
 324:.\stlib\STM32F10x_StdPeriph_Driver\src/stm32f10x_dac.c ****   }
 325:.\stlib\STM32F10x_StdPeriph_Driver\src/stm32f10x_dac.c ****   else
 326:.\stlib\STM32F10x_StdPeriph_Driver\src/stm32f10x_dac.c ****   {
 327:.\stlib\STM32F10x_StdPeriph_Driver\src/stm32f10x_dac.c ****     /* Disable the selected wave generation for the selected DAC channel */
 328:.\stlib\STM32F10x_StdPeriph_Driver\src/stm32f10x_dac.c ****     DAC->CR &= ~(DAC_Wave << DAC_Channel);
 485              		.loc 1 328 13 view .LVU99
 486 00ce 1960     		str	r1, [r3]	@ _7,
 487              	@ .\stlib\STM32F10x_StdPeriph_Driver\src\stm32f10x_dac.c:330: }
 329:.\stlib\STM32F10x_StdPeriph_Driver\src/stm32f10x_dac.c ****   }
 330:.\stlib\STM32F10x_StdPeriph_Driver\src/stm32f10x_dac.c **** }
 488              		.loc 1 330 1 view .LVU100
 489 00d0 7047     		bx	lr	@
 490              	.L31:
 328:.\stlib\STM32F10x_StdPeriph_Driver\src/stm32f10x_dac.c ****   }
 491              		.loc 1 328 5 is_stmt 1 view .LVU101
 492              	@ .\stlib\STM32F10x_StdPeriph_Driver\src\stm32f10x_dac.c:328:     DAC->CR &= ~(DAC_Wave << DAC_Chan
 328:.\stlib\STM32F10x_StdPeriph_Driver\src/stm32f10x_dac.c ****   }
 493              		.loc 1 328 13 is_stmt 0 view .LVU102
 494 00d2 20EA0101 		bic	r1, r0, r1	@ _7, _4, _15
 495 00d6 FAE7     		b	.L33		@
 496              	.L35:
 497              		.align	2
 498              	.L34:
 499 00d8 00740040 		.word	1073771520
 500              		.cfi_endproc
ARM GAS  C:\Users\skey\AppData\Local\Temp\ccKAsNbo.s 			page 16


 501              	.LFE36:
 502              		.size	DAC_WaveGenerationCmd, .-DAC_WaveGenerationCmd
 503              		.align	1
 504              		.global	DAC_SetChannel1Data
 505              		.syntax unified
 506              		.thumb
 507              		.thumb_func
 508              		.fpu softvfp
 509              		.type	DAC_SetChannel1Data, %function
 510              	DAC_SetChannel1Data:
 511              	.LVL20:
 512              	.LFB37:
 331:.\stlib\STM32F10x_StdPeriph_Driver\src/stm32f10x_dac.c **** 
 332:.\stlib\STM32F10x_StdPeriph_Driver\src/stm32f10x_dac.c **** /**
 333:.\stlib\STM32F10x_StdPeriph_Driver\src/stm32f10x_dac.c ****   * @brief  Set the specified data holding register value for DAC channel1.
 334:.\stlib\STM32F10x_StdPeriph_Driver\src/stm32f10x_dac.c ****   * @param  DAC_Align: Specifies the data alignment for DAC channel1.
 335:.\stlib\STM32F10x_StdPeriph_Driver\src/stm32f10x_dac.c ****   *   This parameter can be one of the following values:
 336:.\stlib\STM32F10x_StdPeriph_Driver\src/stm32f10x_dac.c ****   *     @arg DAC_Align_8b_R: 8bit right data alignment selected
 337:.\stlib\STM32F10x_StdPeriph_Driver\src/stm32f10x_dac.c ****   *     @arg DAC_Align_12b_L: 12bit left data alignment selected
 338:.\stlib\STM32F10x_StdPeriph_Driver\src/stm32f10x_dac.c ****   *     @arg DAC_Align_12b_R: 12bit right data alignment selected
 339:.\stlib\STM32F10x_StdPeriph_Driver\src/stm32f10x_dac.c ****   * @param  Data : Data to be loaded in the selected data holding register.
 340:.\stlib\STM32F10x_StdPeriph_Driver\src/stm32f10x_dac.c ****   * @retval None
 341:.\stlib\STM32F10x_StdPeriph_Driver\src/stm32f10x_dac.c ****   */
 342:.\stlib\STM32F10x_StdPeriph_Driver\src/stm32f10x_dac.c **** void DAC_SetChannel1Data(uint32_t DAC_Align, uint16_t Data)
 343:.\stlib\STM32F10x_StdPeriph_Driver\src/stm32f10x_dac.c **** {  
 513              		.loc 1 343 1 is_stmt 1 view -0
 514              		.cfi_startproc
 515              		@ args = 0, pretend = 0, frame = 8
 516              		@ frame_needed = 0, uses_anonymous_args = 0
 517              		@ link register save eliminated.
 344:.\stlib\STM32F10x_StdPeriph_Driver\src/stm32f10x_dac.c ****   __IO uint32_t tmp = 0;
 518              		.loc 1 344 3 view .LVU104
 519              	@ .\stlib\STM32F10x_StdPeriph_Driver\src\stm32f10x_dac.c:344:   __IO uint32_t tmp = 0;
 520              		.loc 1 344 17 is_stmt 0 view .LVU105
 521 00dc 0023     		movs	r3, #0	@ tmp118,
 522              	@ .\stlib\STM32F10x_StdPeriph_Driver\src\stm32f10x_dac.c:343: {  
 343:.\stlib\STM32F10x_StdPeriph_Driver\src/stm32f10x_dac.c ****   __IO uint32_t tmp = 0;
 523              		.loc 1 343 1 view .LVU106
 524 00de 82B0     		sub	sp, sp, #8	@,,
 525              	.LCFI3:
 526              		.cfi_def_cfa_offset 8
 527              	@ .\stlib\STM32F10x_StdPeriph_Driver\src\stm32f10x_dac.c:344:   __IO uint32_t tmp = 0;
 528              		.loc 1 344 17 view .LVU107
 529 00e0 0193     		str	r3, [sp, #4]	@ tmp118, tmp
 345:.\stlib\STM32F10x_StdPeriph_Driver\src/stm32f10x_dac.c ****   
 346:.\stlib\STM32F10x_StdPeriph_Driver\src/stm32f10x_dac.c ****   /* Check the parameters */
 347:.\stlib\STM32F10x_StdPeriph_Driver\src/stm32f10x_dac.c ****   assert_param(IS_DAC_ALIGN(DAC_Align));
 530              		.loc 1 347 3 is_stmt 1 view .LVU108
 348:.\stlib\STM32F10x_StdPeriph_Driver\src/stm32f10x_dac.c ****   assert_param(IS_DAC_DATA(Data));
 531              		.loc 1 348 3 view .LVU109
 349:.\stlib\STM32F10x_StdPeriph_Driver\src/stm32f10x_dac.c ****   
 350:.\stlib\STM32F10x_StdPeriph_Driver\src/stm32f10x_dac.c ****   tmp = (uint32_t)DAC_BASE; 
 532              		.loc 1 350 3 view .LVU110
 533              	@ .\stlib\STM32F10x_StdPeriph_Driver\src\stm32f10x_dac.c:350:   tmp = (uint32_t)DAC_BASE; 
 534              		.loc 1 350 7 is_stmt 0 view .LVU111
 535 00e2 054B     		ldr	r3, .L37	@ tmp119,
 536 00e4 0193     		str	r3, [sp, #4]	@ tmp119, tmp
ARM GAS  C:\Users\skey\AppData\Local\Temp\ccKAsNbo.s 			page 17


 351:.\stlib\STM32F10x_StdPeriph_Driver\src/stm32f10x_dac.c ****   tmp += DHR12R1_OFFSET + DAC_Align;
 537              		.loc 1 351 3 is_stmt 1 view .LVU112
 538              	@ .\stlib\STM32F10x_StdPeriph_Driver\src\stm32f10x_dac.c:351:   tmp += DHR12R1_OFFSET + DAC_Align;
 539              		.loc 1 351 7 is_stmt 0 view .LVU113
 540 00e6 019B     		ldr	r3, [sp, #4]	@ tmp.0_1, tmp
 541 00e8 0833     		adds	r3, r3, #8	@ tmp120, tmp.0_1,
 542 00ea 0344     		add	r3, r3, r0	@ _3, tmp121
 543 00ec 0193     		str	r3, [sp, #4]	@ _3, tmp
 352:.\stlib\STM32F10x_StdPeriph_Driver\src/stm32f10x_dac.c **** 
 353:.\stlib\STM32F10x_StdPeriph_Driver\src/stm32f10x_dac.c ****   /* Set the DAC channel1 selected data holding register */
 354:.\stlib\STM32F10x_StdPeriph_Driver\src/stm32f10x_dac.c ****   *(__IO uint32_t *) tmp = Data;
 544              		.loc 1 354 3 is_stmt 1 view .LVU114
 545              	@ .\stlib\STM32F10x_StdPeriph_Driver\src\stm32f10x_dac.c:354:   *(__IO uint32_t *) tmp = Data;
 546              		.loc 1 354 4 is_stmt 0 view .LVU115
 547 00ee 019B     		ldr	r3, [sp, #4]	@ tmp.1_4, tmp
 548              	@ .\stlib\STM32F10x_StdPeriph_Driver\src\stm32f10x_dac.c:354:   *(__IO uint32_t *) tmp = Data;
 549              		.loc 1 354 26 view .LVU116
 550 00f0 1960     		str	r1, [r3]	@ Data, *tmp.2_5
 551              	@ .\stlib\STM32F10x_StdPeriph_Driver\src\stm32f10x_dac.c:355: }
 355:.\stlib\STM32F10x_StdPeriph_Driver\src/stm32f10x_dac.c **** }
 552              		.loc 1 355 1 view .LVU117
 553 00f2 02B0     		add	sp, sp, #8	@,,
 554              	.LCFI4:
 555              		.cfi_def_cfa_offset 0
 556              		@ sp needed	@
 557 00f4 7047     		bx	lr	@
 558              	.L38:
 559 00f6 00BF     		.align	2
 560              	.L37:
 561 00f8 00740040 		.word	1073771520
 562              		.cfi_endproc
 563              	.LFE37:
 564              		.size	DAC_SetChannel1Data, .-DAC_SetChannel1Data
 565              		.align	1
 566              		.global	DAC_SetChannel2Data
 567              		.syntax unified
 568              		.thumb
 569              		.thumb_func
 570              		.fpu softvfp
 571              		.type	DAC_SetChannel2Data, %function
 572              	DAC_SetChannel2Data:
 573              	.LVL21:
 574              	.LFB38:
 356:.\stlib\STM32F10x_StdPeriph_Driver\src/stm32f10x_dac.c **** 
 357:.\stlib\STM32F10x_StdPeriph_Driver\src/stm32f10x_dac.c **** /**
 358:.\stlib\STM32F10x_StdPeriph_Driver\src/stm32f10x_dac.c ****   * @brief  Set the specified data holding register value for DAC channel2.
 359:.\stlib\STM32F10x_StdPeriph_Driver\src/stm32f10x_dac.c ****   * @param  DAC_Align: Specifies the data alignment for DAC channel2.
 360:.\stlib\STM32F10x_StdPeriph_Driver\src/stm32f10x_dac.c ****   *   This parameter can be one of the following values:
 361:.\stlib\STM32F10x_StdPeriph_Driver\src/stm32f10x_dac.c ****   *     @arg DAC_Align_8b_R: 8bit right data alignment selected
 362:.\stlib\STM32F10x_StdPeriph_Driver\src/stm32f10x_dac.c ****   *     @arg DAC_Align_12b_L: 12bit left data alignment selected
 363:.\stlib\STM32F10x_StdPeriph_Driver\src/stm32f10x_dac.c ****   *     @arg DAC_Align_12b_R: 12bit right data alignment selected
 364:.\stlib\STM32F10x_StdPeriph_Driver\src/stm32f10x_dac.c ****   * @param  Data : Data to be loaded in the selected data holding register.
 365:.\stlib\STM32F10x_StdPeriph_Driver\src/stm32f10x_dac.c ****   * @retval None
 366:.\stlib\STM32F10x_StdPeriph_Driver\src/stm32f10x_dac.c ****   */
 367:.\stlib\STM32F10x_StdPeriph_Driver\src/stm32f10x_dac.c **** void DAC_SetChannel2Data(uint32_t DAC_Align, uint16_t Data)
 368:.\stlib\STM32F10x_StdPeriph_Driver\src/stm32f10x_dac.c **** {
 575              		.loc 1 368 1 is_stmt 1 view -0
ARM GAS  C:\Users\skey\AppData\Local\Temp\ccKAsNbo.s 			page 18


 576              		.cfi_startproc
 577              		@ args = 0, pretend = 0, frame = 8
 578              		@ frame_needed = 0, uses_anonymous_args = 0
 579              		@ link register save eliminated.
 369:.\stlib\STM32F10x_StdPeriph_Driver\src/stm32f10x_dac.c ****   __IO uint32_t tmp = 0;
 580              		.loc 1 369 3 view .LVU119
 581              	@ .\stlib\STM32F10x_StdPeriph_Driver\src\stm32f10x_dac.c:369:   __IO uint32_t tmp = 0;
 582              		.loc 1 369 17 is_stmt 0 view .LVU120
 583 00fc 0023     		movs	r3, #0	@ tmp118,
 584              	@ .\stlib\STM32F10x_StdPeriph_Driver\src\stm32f10x_dac.c:368: {
 368:.\stlib\STM32F10x_StdPeriph_Driver\src/stm32f10x_dac.c ****   __IO uint32_t tmp = 0;
 585              		.loc 1 368 1 view .LVU121
 586 00fe 82B0     		sub	sp, sp, #8	@,,
 587              	.LCFI5:
 588              		.cfi_def_cfa_offset 8
 589              	@ .\stlib\STM32F10x_StdPeriph_Driver\src\stm32f10x_dac.c:369:   __IO uint32_t tmp = 0;
 590              		.loc 1 369 17 view .LVU122
 591 0100 0193     		str	r3, [sp, #4]	@ tmp118, tmp
 370:.\stlib\STM32F10x_StdPeriph_Driver\src/stm32f10x_dac.c **** 
 371:.\stlib\STM32F10x_StdPeriph_Driver\src/stm32f10x_dac.c ****   /* Check the parameters */
 372:.\stlib\STM32F10x_StdPeriph_Driver\src/stm32f10x_dac.c ****   assert_param(IS_DAC_ALIGN(DAC_Align));
 592              		.loc 1 372 3 is_stmt 1 view .LVU123
 373:.\stlib\STM32F10x_StdPeriph_Driver\src/stm32f10x_dac.c ****   assert_param(IS_DAC_DATA(Data));
 593              		.loc 1 373 3 view .LVU124
 374:.\stlib\STM32F10x_StdPeriph_Driver\src/stm32f10x_dac.c ****   
 375:.\stlib\STM32F10x_StdPeriph_Driver\src/stm32f10x_dac.c ****   tmp = (uint32_t)DAC_BASE;
 594              		.loc 1 375 3 view .LVU125
 595              	@ .\stlib\STM32F10x_StdPeriph_Driver\src\stm32f10x_dac.c:375:   tmp = (uint32_t)DAC_BASE;
 596              		.loc 1 375 7 is_stmt 0 view .LVU126
 597 0102 054B     		ldr	r3, .L40	@ tmp119,
 598 0104 0193     		str	r3, [sp, #4]	@ tmp119, tmp
 376:.\stlib\STM32F10x_StdPeriph_Driver\src/stm32f10x_dac.c ****   tmp += DHR12R2_OFFSET + DAC_Align;
 599              		.loc 1 376 3 is_stmt 1 view .LVU127
 600              	@ .\stlib\STM32F10x_StdPeriph_Driver\src\stm32f10x_dac.c:376:   tmp += DHR12R2_OFFSET + DAC_Align;
 601              		.loc 1 376 7 is_stmt 0 view .LVU128
 602 0106 019B     		ldr	r3, [sp, #4]	@ tmp.3_1, tmp
 603 0108 1433     		adds	r3, r3, #20	@ tmp120, tmp.3_1,
 604 010a 0344     		add	r3, r3, r0	@ _3, tmp121
 605 010c 0193     		str	r3, [sp, #4]	@ _3, tmp
 377:.\stlib\STM32F10x_StdPeriph_Driver\src/stm32f10x_dac.c **** 
 378:.\stlib\STM32F10x_StdPeriph_Driver\src/stm32f10x_dac.c ****   /* Set the DAC channel2 selected data holding register */
 379:.\stlib\STM32F10x_StdPeriph_Driver\src/stm32f10x_dac.c ****   *(__IO uint32_t *)tmp = Data;
 606              		.loc 1 379 3 is_stmt 1 view .LVU129
 607              	@ .\stlib\STM32F10x_StdPeriph_Driver\src\stm32f10x_dac.c:379:   *(__IO uint32_t *)tmp = Data;
 608              		.loc 1 379 4 is_stmt 0 view .LVU130
 609 010e 019B     		ldr	r3, [sp, #4]	@ tmp.4_4, tmp
 610              	@ .\stlib\STM32F10x_StdPeriph_Driver\src\stm32f10x_dac.c:379:   *(__IO uint32_t *)tmp = Data;
 611              		.loc 1 379 25 view .LVU131
 612 0110 1960     		str	r1, [r3]	@ Data, *tmp.5_5
 613              	@ .\stlib\STM32F10x_StdPeriph_Driver\src\stm32f10x_dac.c:380: }
 380:.\stlib\STM32F10x_StdPeriph_Driver\src/stm32f10x_dac.c **** }
 614              		.loc 1 380 1 view .LVU132
 615 0112 02B0     		add	sp, sp, #8	@,,
 616              	.LCFI6:
 617              		.cfi_def_cfa_offset 0
 618              		@ sp needed	@
 619 0114 7047     		bx	lr	@
ARM GAS  C:\Users\skey\AppData\Local\Temp\ccKAsNbo.s 			page 19


 620              	.L41:
 621 0116 00BF     		.align	2
 622              	.L40:
 623 0118 00740040 		.word	1073771520
 624              		.cfi_endproc
 625              	.LFE38:
 626              		.size	DAC_SetChannel2Data, .-DAC_SetChannel2Data
 627              		.align	1
 628              		.global	DAC_SetDualChannelData
 629              		.syntax unified
 630              		.thumb
 631              		.thumb_func
 632              		.fpu softvfp
 633              		.type	DAC_SetDualChannelData, %function
 634              	DAC_SetDualChannelData:
 635              	.LVL22:
 636              	.LFB39:
 381:.\stlib\STM32F10x_StdPeriph_Driver\src/stm32f10x_dac.c **** 
 382:.\stlib\STM32F10x_StdPeriph_Driver\src/stm32f10x_dac.c **** /**
 383:.\stlib\STM32F10x_StdPeriph_Driver\src/stm32f10x_dac.c ****   * @brief  Set the specified data holding register value for dual channel
 384:.\stlib\STM32F10x_StdPeriph_Driver\src/stm32f10x_dac.c ****   *   DAC.
 385:.\stlib\STM32F10x_StdPeriph_Driver\src/stm32f10x_dac.c ****   * @param  DAC_Align: Specifies the data alignment for dual channel DAC.
 386:.\stlib\STM32F10x_StdPeriph_Driver\src/stm32f10x_dac.c ****   *   This parameter can be one of the following values:
 387:.\stlib\STM32F10x_StdPeriph_Driver\src/stm32f10x_dac.c ****   *     @arg DAC_Align_8b_R: 8bit right data alignment selected
 388:.\stlib\STM32F10x_StdPeriph_Driver\src/stm32f10x_dac.c ****   *     @arg DAC_Align_12b_L: 12bit left data alignment selected
 389:.\stlib\STM32F10x_StdPeriph_Driver\src/stm32f10x_dac.c ****   *     @arg DAC_Align_12b_R: 12bit right data alignment selected
 390:.\stlib\STM32F10x_StdPeriph_Driver\src/stm32f10x_dac.c ****   * @param  Data2: Data for DAC Channel2 to be loaded in the selected data 
 391:.\stlib\STM32F10x_StdPeriph_Driver\src/stm32f10x_dac.c ****   *   holding register.
 392:.\stlib\STM32F10x_StdPeriph_Driver\src/stm32f10x_dac.c ****   * @param  Data1: Data for DAC Channel1 to be loaded in the selected data 
 393:.\stlib\STM32F10x_StdPeriph_Driver\src/stm32f10x_dac.c ****   *   holding register.
 394:.\stlib\STM32F10x_StdPeriph_Driver\src/stm32f10x_dac.c ****   * @retval None
 395:.\stlib\STM32F10x_StdPeriph_Driver\src/stm32f10x_dac.c ****   */
 396:.\stlib\STM32F10x_StdPeriph_Driver\src/stm32f10x_dac.c **** void DAC_SetDualChannelData(uint32_t DAC_Align, uint16_t Data2, uint16_t Data1)
 397:.\stlib\STM32F10x_StdPeriph_Driver\src/stm32f10x_dac.c **** {
 637              		.loc 1 397 1 is_stmt 1 view -0
 638              		.cfi_startproc
 639              		@ args = 0, pretend = 0, frame = 0
 640              		@ frame_needed = 0, uses_anonymous_args = 0
 641              		@ link register save eliminated.
 398:.\stlib\STM32F10x_StdPeriph_Driver\src/stm32f10x_dac.c ****   uint32_t data = 0, tmp = 0;
 642              		.loc 1 398 3 view .LVU134
 399:.\stlib\STM32F10x_StdPeriph_Driver\src/stm32f10x_dac.c ****   
 400:.\stlib\STM32F10x_StdPeriph_Driver\src/stm32f10x_dac.c ****   /* Check the parameters */
 401:.\stlib\STM32F10x_StdPeriph_Driver\src/stm32f10x_dac.c ****   assert_param(IS_DAC_ALIGN(DAC_Align));
 643              		.loc 1 401 3 view .LVU135
 402:.\stlib\STM32F10x_StdPeriph_Driver\src/stm32f10x_dac.c ****   assert_param(IS_DAC_DATA(Data1));
 644              		.loc 1 402 3 view .LVU136
 403:.\stlib\STM32F10x_StdPeriph_Driver\src/stm32f10x_dac.c ****   assert_param(IS_DAC_DATA(Data2));
 645              		.loc 1 403 3 view .LVU137
 404:.\stlib\STM32F10x_StdPeriph_Driver\src/stm32f10x_dac.c ****   
 405:.\stlib\STM32F10x_StdPeriph_Driver\src/stm32f10x_dac.c ****   /* Calculate and set dual DAC data holding register value */
 406:.\stlib\STM32F10x_StdPeriph_Driver\src/stm32f10x_dac.c ****   if (DAC_Align == DAC_Align_8b_R)
 646              		.loc 1 406 3 view .LVU138
 647              	@ .\stlib\STM32F10x_StdPeriph_Driver\src\stm32f10x_dac.c:406:   if (DAC_Align == DAC_Align_8b_R)
 648              		.loc 1 406 6 is_stmt 0 view .LVU139
 649 011c 0828     		cmp	r0, #8	@ DAC_Align,
 407:.\stlib\STM32F10x_StdPeriph_Driver\src/stm32f10x_dac.c ****   {
ARM GAS  C:\Users\skey\AppData\Local\Temp\ccKAsNbo.s 			page 20


 408:.\stlib\STM32F10x_StdPeriph_Driver\src/stm32f10x_dac.c ****     data = ((uint32_t)Data2 << 8) | Data1; 
 650              		.loc 1 408 5 is_stmt 1 view .LVU140
 651              	@ .\stlib\STM32F10x_StdPeriph_Driver\src\stm32f10x_dac.c:416:   tmp += DHR12RD_OFFSET + DAC_Align;
 409:.\stlib\STM32F10x_StdPeriph_Driver\src/stm32f10x_dac.c ****   }
 410:.\stlib\STM32F10x_StdPeriph_Driver\src/stm32f10x_dac.c ****   else
 411:.\stlib\STM32F10x_StdPeriph_Driver\src/stm32f10x_dac.c ****   {
 412:.\stlib\STM32F10x_StdPeriph_Driver\src/stm32f10x_dac.c ****     data = ((uint32_t)Data2 << 16) | Data1;
 413:.\stlib\STM32F10x_StdPeriph_Driver\src/stm32f10x_dac.c ****   }
 414:.\stlib\STM32F10x_StdPeriph_Driver\src/stm32f10x_dac.c ****   
 415:.\stlib\STM32F10x_StdPeriph_Driver\src/stm32f10x_dac.c ****   tmp = (uint32_t)DAC_BASE;
 416:.\stlib\STM32F10x_StdPeriph_Driver\src/stm32f10x_dac.c ****   tmp += DHR12RD_OFFSET + DAC_Align;
 652              		.loc 1 416 7 is_stmt 0 view .LVU141
 653 011e 044B     		ldr	r3, .L45	@ tmp122,
 654              	@ .\stlib\STM32F10x_StdPeriph_Driver\src\stm32f10x_dac.c:408:     data = ((uint32_t)Data2 << 8) | D
 408:.\stlib\STM32F10x_StdPeriph_Driver\src/stm32f10x_dac.c ****   }
 655              		.loc 1 408 10 view .LVU142
 656 0120 0CBF     		ite	eq
 657 0122 42EA0122 		orreq	r2, r2, r1, lsl #8	@ data, Data1, Data2,
 658              	.LVL23:
 412:.\stlib\STM32F10x_StdPeriph_Driver\src/stm32f10x_dac.c ****   }
 659              		.loc 1 412 5 is_stmt 1 view .LVU143
 660              	@ .\stlib\STM32F10x_StdPeriph_Driver\src\stm32f10x_dac.c:412:     data = ((uint32_t)Data2 << 16) | 
 412:.\stlib\STM32F10x_StdPeriph_Driver\src/stm32f10x_dac.c ****   }
 661              		.loc 1 412 10 is_stmt 0 view .LVU144
 662 0126 42EA0142 		orrne	r2, r2, r1, lsl #16	@ data, Data1, Data2,
 663              	.LVL24:
 415:.\stlib\STM32F10x_StdPeriph_Driver\src/stm32f10x_dac.c ****   tmp += DHR12RD_OFFSET + DAC_Align;
 664              		.loc 1 415 3 is_stmt 1 view .LVU145
 665              		.loc 1 416 3 view .LVU146
 417:.\stlib\STM32F10x_StdPeriph_Driver\src/stm32f10x_dac.c **** 
 418:.\stlib\STM32F10x_StdPeriph_Driver\src/stm32f10x_dac.c ****   /* Set the dual DAC selected data holding register */
 419:.\stlib\STM32F10x_StdPeriph_Driver\src/stm32f10x_dac.c ****   *(__IO uint32_t *)tmp = data;
 666              		.loc 1 419 3 view .LVU147
 667              	@ .\stlib\STM32F10x_StdPeriph_Driver\src\stm32f10x_dac.c:419:   *(__IO uint32_t *)tmp = data;
 668              		.loc 1 419 25 is_stmt 0 view .LVU148
 669 012a C250     		str	r2, [r0, r3]	@ data, *tmp.6_7
 670              	@ .\stlib\STM32F10x_StdPeriph_Driver\src\stm32f10x_dac.c:420: }
 420:.\stlib\STM32F10x_StdPeriph_Driver\src/stm32f10x_dac.c **** }
 671              		.loc 1 420 1 view .LVU149
 672 012c 7047     		bx	lr	@
 673              	.L46:
 674 012e 00BF     		.align	2
 675              	.L45:
 676 0130 20740040 		.word	1073771552
 677              		.cfi_endproc
 678              	.LFE39:
 679              		.size	DAC_SetDualChannelData, .-DAC_SetDualChannelData
 680              		.align	1
 681              		.global	DAC_GetDataOutputValue
 682              		.syntax unified
 683              		.thumb
 684              		.thumb_func
 685              		.fpu softvfp
 686              		.type	DAC_GetDataOutputValue, %function
 687              	DAC_GetDataOutputValue:
 688              	.LVL25:
 689              	.LFB40:
ARM GAS  C:\Users\skey\AppData\Local\Temp\ccKAsNbo.s 			page 21


 421:.\stlib\STM32F10x_StdPeriph_Driver\src/stm32f10x_dac.c **** 
 422:.\stlib\STM32F10x_StdPeriph_Driver\src/stm32f10x_dac.c **** /**
 423:.\stlib\STM32F10x_StdPeriph_Driver\src/stm32f10x_dac.c ****   * @brief  Returns the last data output value of the selected DAC channel.
 424:.\stlib\STM32F10x_StdPeriph_Driver\src/stm32f10x_dac.c ****   * @param  DAC_Channel: the selected DAC channel. 
 425:.\stlib\STM32F10x_StdPeriph_Driver\src/stm32f10x_dac.c ****   *   This parameter can be one of the following values:
 426:.\stlib\STM32F10x_StdPeriph_Driver\src/stm32f10x_dac.c ****   *     @arg DAC_Channel_1: DAC Channel1 selected
 427:.\stlib\STM32F10x_StdPeriph_Driver\src/stm32f10x_dac.c ****   *     @arg DAC_Channel_2: DAC Channel2 selected
 428:.\stlib\STM32F10x_StdPeriph_Driver\src/stm32f10x_dac.c ****   * @retval The selected DAC channel data output value.
 429:.\stlib\STM32F10x_StdPeriph_Driver\src/stm32f10x_dac.c ****   */
 430:.\stlib\STM32F10x_StdPeriph_Driver\src/stm32f10x_dac.c **** uint16_t DAC_GetDataOutputValue(uint32_t DAC_Channel)
 431:.\stlib\STM32F10x_StdPeriph_Driver\src/stm32f10x_dac.c **** {
 690              		.loc 1 431 1 is_stmt 1 view -0
 691              		.cfi_startproc
 692              		@ args = 0, pretend = 0, frame = 8
 693              		@ frame_needed = 0, uses_anonymous_args = 0
 694              		@ link register save eliminated.
 432:.\stlib\STM32F10x_StdPeriph_Driver\src/stm32f10x_dac.c ****   __IO uint32_t tmp = 0;
 695              		.loc 1 432 3 view .LVU151
 696              	@ .\stlib\STM32F10x_StdPeriph_Driver\src\stm32f10x_dac.c:432:   __IO uint32_t tmp = 0;
 697              		.loc 1 432 17 is_stmt 0 view .LVU152
 698 0134 0023     		movs	r3, #0	@ tmp119,
 699              	@ .\stlib\STM32F10x_StdPeriph_Driver\src\stm32f10x_dac.c:431: {
 431:.\stlib\STM32F10x_StdPeriph_Driver\src/stm32f10x_dac.c ****   __IO uint32_t tmp = 0;
 700              		.loc 1 431 1 view .LVU153
 701 0136 82B0     		sub	sp, sp, #8	@,,
 702              	.LCFI7:
 703              		.cfi_def_cfa_offset 8
 704              	@ .\stlib\STM32F10x_StdPeriph_Driver\src\stm32f10x_dac.c:432:   __IO uint32_t tmp = 0;
 705              		.loc 1 432 17 view .LVU154
 706 0138 0193     		str	r3, [sp, #4]	@ tmp119, tmp
 433:.\stlib\STM32F10x_StdPeriph_Driver\src/stm32f10x_dac.c ****   
 434:.\stlib\STM32F10x_StdPeriph_Driver\src/stm32f10x_dac.c ****   /* Check the parameters */
 435:.\stlib\STM32F10x_StdPeriph_Driver\src/stm32f10x_dac.c ****   assert_param(IS_DAC_CHANNEL(DAC_Channel));
 707              		.loc 1 435 3 is_stmt 1 view .LVU155
 436:.\stlib\STM32F10x_StdPeriph_Driver\src/stm32f10x_dac.c ****   
 437:.\stlib\STM32F10x_StdPeriph_Driver\src/stm32f10x_dac.c ****   tmp = (uint32_t) DAC_BASE ;
 708              		.loc 1 437 3 view .LVU156
 709              	@ .\stlib\STM32F10x_StdPeriph_Driver\src\stm32f10x_dac.c:437:   tmp = (uint32_t) DAC_BASE ;
 710              		.loc 1 437 7 is_stmt 0 view .LVU157
 711 013a 064B     		ldr	r3, .L48	@ tmp120,
 712 013c 0193     		str	r3, [sp, #4]	@ tmp120, tmp
 438:.\stlib\STM32F10x_StdPeriph_Driver\src/stm32f10x_dac.c ****   tmp += DOR_OFFSET + ((uint32_t)DAC_Channel >> 2);
 713              		.loc 1 438 3 is_stmt 1 view .LVU158
 714              	@ .\stlib\STM32F10x_StdPeriph_Driver\src\stm32f10x_dac.c:438:   tmp += DOR_OFFSET + ((uint32_t)DAC_
 715              		.loc 1 438 7 is_stmt 0 view .LVU159
 716 013e 019B     		ldr	r3, [sp, #4]	@ tmp.7_2, tmp
 717 0140 2C33     		adds	r3, r3, #44	@ tmp122, tmp.7_2,
 718 0142 03EB9003 		add	r3, r3, r0, lsr #2	@ _4, tmp122, tmp125,
 719 0146 0193     		str	r3, [sp, #4]	@ _4, tmp
 439:.\stlib\STM32F10x_StdPeriph_Driver\src/stm32f10x_dac.c ****   
 440:.\stlib\STM32F10x_StdPeriph_Driver\src/stm32f10x_dac.c ****   /* Returns the DAC channel data output register value */
 441:.\stlib\STM32F10x_StdPeriph_Driver\src/stm32f10x_dac.c ****   return (uint16_t) (*(__IO uint32_t*) tmp);
 720              		.loc 1 441 3 is_stmt 1 view .LVU160
 721              	@ .\stlib\STM32F10x_StdPeriph_Driver\src\stm32f10x_dac.c:441:   return (uint16_t) (*(__IO uint32_t*
 722              		.loc 1 441 23 is_stmt 0 view .LVU161
 723 0148 019B     		ldr	r3, [sp, #4]	@ tmp.8_5, tmp
 724              	@ .\stlib\STM32F10x_StdPeriph_Driver\src\stm32f10x_dac.c:441:   return (uint16_t) (*(__IO uint32_t*
ARM GAS  C:\Users\skey\AppData\Local\Temp\ccKAsNbo.s 			page 22


 725              		.loc 1 441 22 view .LVU162
 726 014a 1868     		ldr	r0, [r3]	@ _7, *tmp.9_6
 727              	.LVL26:
 728              	@ .\stlib\STM32F10x_StdPeriph_Driver\src\stm32f10x_dac.c:442: }
 442:.\stlib\STM32F10x_StdPeriph_Driver\src/stm32f10x_dac.c **** }
 729              		.loc 1 442 1 view .LVU163
 730 014c 80B2     		uxth	r0, r0	@, _7
 731 014e 02B0     		add	sp, sp, #8	@,,
 732              	.LCFI8:
 733              		.cfi_def_cfa_offset 0
 734              		@ sp needed	@
 735 0150 7047     		bx	lr	@
 736              	.L49:
 737 0152 00BF     		.align	2
 738              	.L48:
 739 0154 00740040 		.word	1073771520
 740              		.cfi_endproc
 741              	.LFE40:
 742              		.size	DAC_GetDataOutputValue, .-DAC_GetDataOutputValue
 743              	.Letext0:
 744              		.file 2 "c:\\program files (x86)\\gnu tools arm embedded\\9 2019-q4-major\\arm-none-eabi\\include\
 745              		.file 3 "c:\\program files (x86)\\gnu tools arm embedded\\9 2019-q4-major\\arm-none-eabi\\include\
 746              		.file 4 ".\\stlib\\CMSIS\\CM3\\CoreSupport/core_cm3.h"
 747              		.file 5 ".\\stlib\\CMSIS\\CM3\\DeviceSupport\\ST\\STM32F10x/system_stm32f10x.h"
 748              		.file 6 ".\\stlib\\CMSIS\\CM3\\DeviceSupport\\ST\\STM32F10x/stm32f10x.h"
 749              		.file 7 ".\\stlib\\STM32F10x_StdPeriph_Driver\\inc/stm32f10x_dac.h"
 750              		.file 8 ".\\stlib\\STM32F10x_StdPeriph_Driver\\inc/stm32f10x_rcc.h"