ARM GAS  C:\Users\skey\AppData\Local\Temp\ccZCz5DZ.s 			page 1


   1              		.cpu cortex-m3
   2              		.eabi_attribute 20, 1	@ Tag_ABI_FP_denormal
   3              		.eabi_attribute 21, 1	@ Tag_ABI_FP_exceptions
   4              		.eabi_attribute 23, 3	@ Tag_ABI_FP_number_model
   5              		.eabi_attribute 24, 1	@ Tag_ABI_align8_needed
   6              		.eabi_attribute 25, 1	@ Tag_ABI_align8_preserved
   7              		.eabi_attribute 26, 1	@ Tag_ABI_enum_size
   8              		.eabi_attribute 30, 4	@ Tag_ABI_optimization_goals
   9              		.eabi_attribute 34, 1	@ Tag_CPU_unaligned_access
  10              		.eabi_attribute 18, 4	@ Tag_ABI_PCS_wchar_t
  11              		.file	"stm32f10x_sdio.c"
  12              	@ GNU C17 (GNU Tools for Arm Embedded Processors 9-2019-q4-major) version 9.2.1 20191025 (release) 
  13              	@	compiled by GNU C version 5.3.1 20160211, GMP version 6.1.0, MPFR version 3.1.4, MPC version 1.0.
  14              	
  15              	@ GGC heuristics: --param ggc-min-expand=100 --param ggc-min-heapsize=131072
  16              	@ options passed:  -I . -I .\usr_inc -I .\task_inc
  17              	@ -I .\stlib\CMSIS\CM3\CoreSupport
  18              	@ -I .\stlib\CMSIS\CM3\DeviceSupport\ST\STM32F10x
  19              	@ -I .\stlib\STM32F10x_StdPeriph_Driver\inc
  20              	@ -I .\stlib\STM32F10x_StdPeriph_Driver -I .\freertos\include
  21              	@ -I .\freertos\portable\GCC\ARM_CM3 -imultilib thumb/v7-m/nofp
  22              	@ -iprefix c:\program files (x86)\gnu tools arm embedded\9 2019-q4-major\bin\../lib/gcc/arm-none-ea
  23              	@ -isysroot c:\program files (x86)\gnu tools arm embedded\9 2019-q4-major\bin\../arm-none-eabi
  24              	@ -D__USES_INITFINI__ -D STM32F10X_HD -D USE_STDPERIPH_DRIVER
  25              	@ -D HSE_VALUE=8000000 -D RUN_FROM_FLASH=1
  26              	@ .\stlib\STM32F10x_StdPeriph_Driver\src\stm32f10x_sdio.c -mcpu=cortex-m3
  27              	@ -mthumb -mfloat-abi=soft -march=armv7-m
  28              	@ -auxbase-strip .\stlib\STM32F10x_StdPeriph_Driver\src\stm32f10x_sdio.o -g
  29              	@ -gdwarf-2 -Os -Wall -fomit-frame-pointer -fverbose-asm
  30              	@ options enabled:  -faggressive-loop-optimizations -fassume-phsa
  31              	@ -fauto-inc-dec -fbranch-count-reg -fcaller-saves -fcode-hoisting
  32              	@ -fcombine-stack-adjustments -fcommon -fcompare-elim -fcprop-registers
  33              	@ -fcrossjumping -fcse-follow-jumps -fdefer-pop
  34              	@ -fdelete-null-pointer-checks -fdevirtualize -fdevirtualize-speculatively
  35              	@ -fdwarf2-cfi-asm -fearly-inlining -feliminate-unused-debug-types
  36              	@ -fexpensive-optimizations -fforward-propagate -ffp-int-builtin-inexact
  37              	@ -ffunction-cse -fgcse -fgcse-lm -fgnu-runtime -fgnu-unique
  38              	@ -fguess-branch-probability -fhoist-adjacent-loads -fident -fif-conversion
  39              	@ -fif-conversion2 -findirect-inlining -finline -finline-atomics
  40              	@ -finline-functions -finline-functions-called-once
  41              	@ -finline-small-functions -fipa-bit-cp -fipa-cp -fipa-icf
  42              	@ -fipa-icf-functions -fipa-icf-variables -fipa-profile -fipa-pure-const
  43              	@ -fipa-ra -fipa-reference -fipa-reference-addressable -fipa-sra
  44              	@ -fipa-stack-alignment -fipa-vrp -fira-hoist-pressure
  45              	@ -fira-share-save-slots -fira-share-spill-slots
  46              	@ -fisolate-erroneous-paths-dereference -fivopts -fkeep-static-consts
  47              	@ -fleading-underscore -flifetime-dse -flra-remat -flto-odr-type-merging
  48              	@ -fmath-errno -fmerge-constants -fmerge-debug-strings
  49              	@ -fmove-loop-invariants -fomit-frame-pointer -foptimize-sibling-calls
  50              	@ -fpartial-inlining -fpeephole -fpeephole2 -fplt -fprefetch-loop-arrays
  51              	@ -freg-struct-return -freorder-blocks -freorder-functions
  52              	@ -frerun-cse-after-loop -fsched-critical-path-heuristic
  53              	@ -fsched-dep-count-heuristic -fsched-group-heuristic -fsched-interblock
  54              	@ -fsched-last-insn-heuristic -fsched-pressure -fsched-rank-heuristic
  55              	@ -fsched-spec -fsched-spec-insn-heuristic -fsched-stalled-insns-dep
  56              	@ -fschedule-insns2 -fsection-anchors -fsemantic-interposition
  57              	@ -fshow-column -fshrink-wrap-separate -fsigned-zeros
ARM GAS  C:\Users\skey\AppData\Local\Temp\ccZCz5DZ.s 			page 2


  58              	@ -fsplit-ivs-in-unroller -fsplit-wide-types -fssa-backprop -fssa-phiopt
  59              	@ -fstdarg-opt -fstore-merging -fstrict-aliasing
  60              	@ -fstrict-volatile-bitfields -fsync-libcalls -fthread-jumps
  61              	@ -ftoplevel-reorder -ftrapping-math -ftree-bit-ccp -ftree-builtin-call-dce
  62              	@ -ftree-ccp -ftree-ch -ftree-coalesce-vars -ftree-copy-prop -ftree-cselim
  63              	@ -ftree-dce -ftree-dominator-opts -ftree-dse -ftree-forwprop -ftree-fre
  64              	@ -ftree-loop-if-convert -ftree-loop-im -ftree-loop-ivcanon
  65              	@ -ftree-loop-optimize -ftree-parallelize-loops= -ftree-phiprop -ftree-pre
  66              	@ -ftree-pta -ftree-reassoc -ftree-scev-cprop -ftree-sink -ftree-slsr
  67              	@ -ftree-sra -ftree-switch-conversion -ftree-tail-merge -ftree-ter
  68              	@ -ftree-vrp -funit-at-a-time -fvar-tracking -fvar-tracking-assignments
  69              	@ -fverbose-asm -fzero-initialized-in-bss -masm-syntax-unified -mbe32
  70              	@ -mfix-cortex-m3-ldrd -mlittle-endian -mpic-data-is-text-relative
  71              	@ -msched-prolog -mthumb -munaligned-access -mvectorize-with-neon-quad
  72              	
  73              		.text
  74              	.Ltext0:
  75              		.cfi_sections	.debug_frame
  76              		.align	1
  77              		.global	SDIO_DeInit
  78              		.arch armv7-m
  79              		.syntax unified
  80              		.thumb
  81              		.thumb_func
  82              		.fpu softvfp
  83              		.type	SDIO_DeInit, %function
  84              	SDIO_DeInit:
  85              	.LFB29:
  86              		.file 1 ".\\stlib\\STM32F10x_StdPeriph_Driver\\src\\stm32f10x_sdio.c"
   1:.\stlib\STM32F10x_StdPeriph_Driver\src/stm32f10x_sdio.c **** /**
   2:.\stlib\STM32F10x_StdPeriph_Driver\src/stm32f10x_sdio.c ****   ******************************************************************************
   3:.\stlib\STM32F10x_StdPeriph_Driver\src/stm32f10x_sdio.c ****   * @file    stm32f10x_sdio.c
   4:.\stlib\STM32F10x_StdPeriph_Driver\src/stm32f10x_sdio.c ****   * @author  MCD Application Team
   5:.\stlib\STM32F10x_StdPeriph_Driver\src/stm32f10x_sdio.c ****   * @version V3.5.0
   6:.\stlib\STM32F10x_StdPeriph_Driver\src/stm32f10x_sdio.c ****   * @date    11-March-2011
   7:.\stlib\STM32F10x_StdPeriph_Driver\src/stm32f10x_sdio.c ****   * @brief   This file provides all the SDIO firmware functions.
   8:.\stlib\STM32F10x_StdPeriph_Driver\src/stm32f10x_sdio.c ****   ******************************************************************************
   9:.\stlib\STM32F10x_StdPeriph_Driver\src/stm32f10x_sdio.c ****   * @attention
  10:.\stlib\STM32F10x_StdPeriph_Driver\src/stm32f10x_sdio.c ****   *
  11:.\stlib\STM32F10x_StdPeriph_Driver\src/stm32f10x_sdio.c ****   * THE PRESENT FIRMWARE WHICH IS FOR GUIDANCE ONLY AIMS AT PROVIDING CUSTOMERS
  12:.\stlib\STM32F10x_StdPeriph_Driver\src/stm32f10x_sdio.c ****   * WITH CODING INFORMATION REGARDING THEIR PRODUCTS IN ORDER FOR THEM TO SAVE
  13:.\stlib\STM32F10x_StdPeriph_Driver\src/stm32f10x_sdio.c ****   * TIME. AS A RESULT, STMICROELECTRONICS SHALL NOT BE HELD LIABLE FOR ANY
  14:.\stlib\STM32F10x_StdPeriph_Driver\src/stm32f10x_sdio.c ****   * DIRECT, INDIRECT OR CONSEQUENTIAL DAMAGES WITH RESPECT TO ANY CLAIMS ARISING
  15:.\stlib\STM32F10x_StdPeriph_Driver\src/stm32f10x_sdio.c ****   * FROM THE CONTENT OF SUCH FIRMWARE AND/OR THE USE MADE BY CUSTOMERS OF THE
  16:.\stlib\STM32F10x_StdPeriph_Driver\src/stm32f10x_sdio.c ****   * CODING INFORMATION CONTAINED HEREIN IN CONNECTION WITH THEIR PRODUCTS.
  17:.\stlib\STM32F10x_StdPeriph_Driver\src/stm32f10x_sdio.c ****   *
  18:.\stlib\STM32F10x_StdPeriph_Driver\src/stm32f10x_sdio.c ****   * <h2><center>&copy; COPYRIGHT 2011 STMicroelectronics</center></h2>
  19:.\stlib\STM32F10x_StdPeriph_Driver\src/stm32f10x_sdio.c ****   ******************************************************************************
  20:.\stlib\STM32F10x_StdPeriph_Driver\src/stm32f10x_sdio.c ****   */
  21:.\stlib\STM32F10x_StdPeriph_Driver\src/stm32f10x_sdio.c **** 
  22:.\stlib\STM32F10x_StdPeriph_Driver\src/stm32f10x_sdio.c **** /* Includes ------------------------------------------------------------------*/
  23:.\stlib\STM32F10x_StdPeriph_Driver\src/stm32f10x_sdio.c **** #include "stm32f10x_sdio.h"
  24:.\stlib\STM32F10x_StdPeriph_Driver\src/stm32f10x_sdio.c **** #include "stm32f10x_rcc.h"
  25:.\stlib\STM32F10x_StdPeriph_Driver\src/stm32f10x_sdio.c **** 
  26:.\stlib\STM32F10x_StdPeriph_Driver\src/stm32f10x_sdio.c **** /** @addtogroup STM32F10x_StdPeriph_Driver
  27:.\stlib\STM32F10x_StdPeriph_Driver\src/stm32f10x_sdio.c ****   * @{
  28:.\stlib\STM32F10x_StdPeriph_Driver\src/stm32f10x_sdio.c ****   */
ARM GAS  C:\Users\skey\AppData\Local\Temp\ccZCz5DZ.s 			page 3


  29:.\stlib\STM32F10x_StdPeriph_Driver\src/stm32f10x_sdio.c **** 
  30:.\stlib\STM32F10x_StdPeriph_Driver\src/stm32f10x_sdio.c **** /** @defgroup SDIO 
  31:.\stlib\STM32F10x_StdPeriph_Driver\src/stm32f10x_sdio.c ****   * @brief SDIO driver modules
  32:.\stlib\STM32F10x_StdPeriph_Driver\src/stm32f10x_sdio.c ****   * @{
  33:.\stlib\STM32F10x_StdPeriph_Driver\src/stm32f10x_sdio.c ****   */ 
  34:.\stlib\STM32F10x_StdPeriph_Driver\src/stm32f10x_sdio.c **** 
  35:.\stlib\STM32F10x_StdPeriph_Driver\src/stm32f10x_sdio.c **** /** @defgroup SDIO_Private_TypesDefinitions
  36:.\stlib\STM32F10x_StdPeriph_Driver\src/stm32f10x_sdio.c ****   * @{
  37:.\stlib\STM32F10x_StdPeriph_Driver\src/stm32f10x_sdio.c ****   */ 
  38:.\stlib\STM32F10x_StdPeriph_Driver\src/stm32f10x_sdio.c **** 
  39:.\stlib\STM32F10x_StdPeriph_Driver\src/stm32f10x_sdio.c **** /* ------------ SDIO registers bit address in the alias region ----------- */
  40:.\stlib\STM32F10x_StdPeriph_Driver\src/stm32f10x_sdio.c **** #define SDIO_OFFSET                (SDIO_BASE - PERIPH_BASE)
  41:.\stlib\STM32F10x_StdPeriph_Driver\src/stm32f10x_sdio.c **** 
  42:.\stlib\STM32F10x_StdPeriph_Driver\src/stm32f10x_sdio.c **** /* --- CLKCR Register ---*/
  43:.\stlib\STM32F10x_StdPeriph_Driver\src/stm32f10x_sdio.c **** 
  44:.\stlib\STM32F10x_StdPeriph_Driver\src/stm32f10x_sdio.c **** /* Alias word address of CLKEN bit */
  45:.\stlib\STM32F10x_StdPeriph_Driver\src/stm32f10x_sdio.c **** #define CLKCR_OFFSET              (SDIO_OFFSET + 0x04)
  46:.\stlib\STM32F10x_StdPeriph_Driver\src/stm32f10x_sdio.c **** #define CLKEN_BitNumber           0x08
  47:.\stlib\STM32F10x_StdPeriph_Driver\src/stm32f10x_sdio.c **** #define CLKCR_CLKEN_BB            (PERIPH_BB_BASE + (CLKCR_OFFSET * 32) + (CLKEN_BitNumber * 4))
  48:.\stlib\STM32F10x_StdPeriph_Driver\src/stm32f10x_sdio.c **** 
  49:.\stlib\STM32F10x_StdPeriph_Driver\src/stm32f10x_sdio.c **** /* --- CMD Register ---*/
  50:.\stlib\STM32F10x_StdPeriph_Driver\src/stm32f10x_sdio.c **** 
  51:.\stlib\STM32F10x_StdPeriph_Driver\src/stm32f10x_sdio.c **** /* Alias word address of SDIOSUSPEND bit */
  52:.\stlib\STM32F10x_StdPeriph_Driver\src/stm32f10x_sdio.c **** #define CMD_OFFSET                (SDIO_OFFSET + 0x0C)
  53:.\stlib\STM32F10x_StdPeriph_Driver\src/stm32f10x_sdio.c **** #define SDIOSUSPEND_BitNumber     0x0B
  54:.\stlib\STM32F10x_StdPeriph_Driver\src/stm32f10x_sdio.c **** #define CMD_SDIOSUSPEND_BB        (PERIPH_BB_BASE + (CMD_OFFSET * 32) + (SDIOSUSPEND_BitNumber * 4)
  55:.\stlib\STM32F10x_StdPeriph_Driver\src/stm32f10x_sdio.c **** 
  56:.\stlib\STM32F10x_StdPeriph_Driver\src/stm32f10x_sdio.c **** /* Alias word address of ENCMDCOMPL bit */
  57:.\stlib\STM32F10x_StdPeriph_Driver\src/stm32f10x_sdio.c **** #define ENCMDCOMPL_BitNumber      0x0C
  58:.\stlib\STM32F10x_StdPeriph_Driver\src/stm32f10x_sdio.c **** #define CMD_ENCMDCOMPL_BB         (PERIPH_BB_BASE + (CMD_OFFSET * 32) + (ENCMDCOMPL_BitNumber * 4))
  59:.\stlib\STM32F10x_StdPeriph_Driver\src/stm32f10x_sdio.c **** 
  60:.\stlib\STM32F10x_StdPeriph_Driver\src/stm32f10x_sdio.c **** /* Alias word address of NIEN bit */
  61:.\stlib\STM32F10x_StdPeriph_Driver\src/stm32f10x_sdio.c **** #define NIEN_BitNumber            0x0D
  62:.\stlib\STM32F10x_StdPeriph_Driver\src/stm32f10x_sdio.c **** #define CMD_NIEN_BB               (PERIPH_BB_BASE + (CMD_OFFSET * 32) + (NIEN_BitNumber * 4))
  63:.\stlib\STM32F10x_StdPeriph_Driver\src/stm32f10x_sdio.c **** 
  64:.\stlib\STM32F10x_StdPeriph_Driver\src/stm32f10x_sdio.c **** /* Alias word address of ATACMD bit */
  65:.\stlib\STM32F10x_StdPeriph_Driver\src/stm32f10x_sdio.c **** #define ATACMD_BitNumber          0x0E
  66:.\stlib\STM32F10x_StdPeriph_Driver\src/stm32f10x_sdio.c **** #define CMD_ATACMD_BB             (PERIPH_BB_BASE + (CMD_OFFSET * 32) + (ATACMD_BitNumber * 4))
  67:.\stlib\STM32F10x_StdPeriph_Driver\src/stm32f10x_sdio.c **** 
  68:.\stlib\STM32F10x_StdPeriph_Driver\src/stm32f10x_sdio.c **** /* --- DCTRL Register ---*/
  69:.\stlib\STM32F10x_StdPeriph_Driver\src/stm32f10x_sdio.c **** 
  70:.\stlib\STM32F10x_StdPeriph_Driver\src/stm32f10x_sdio.c **** /* Alias word address of DMAEN bit */
  71:.\stlib\STM32F10x_StdPeriph_Driver\src/stm32f10x_sdio.c **** #define DCTRL_OFFSET              (SDIO_OFFSET + 0x2C)
  72:.\stlib\STM32F10x_StdPeriph_Driver\src/stm32f10x_sdio.c **** #define DMAEN_BitNumber           0x03
  73:.\stlib\STM32F10x_StdPeriph_Driver\src/stm32f10x_sdio.c **** #define DCTRL_DMAEN_BB            (PERIPH_BB_BASE + (DCTRL_OFFSET * 32) + (DMAEN_BitNumber * 4))
  74:.\stlib\STM32F10x_StdPeriph_Driver\src/stm32f10x_sdio.c **** 
  75:.\stlib\STM32F10x_StdPeriph_Driver\src/stm32f10x_sdio.c **** /* Alias word address of RWSTART bit */
  76:.\stlib\STM32F10x_StdPeriph_Driver\src/stm32f10x_sdio.c **** #define RWSTART_BitNumber         0x08
  77:.\stlib\STM32F10x_StdPeriph_Driver\src/stm32f10x_sdio.c **** #define DCTRL_RWSTART_BB          (PERIPH_BB_BASE + (DCTRL_OFFSET * 32) + (RWSTART_BitNumber * 4))
  78:.\stlib\STM32F10x_StdPeriph_Driver\src/stm32f10x_sdio.c **** 
  79:.\stlib\STM32F10x_StdPeriph_Driver\src/stm32f10x_sdio.c **** /* Alias word address of RWSTOP bit */
  80:.\stlib\STM32F10x_StdPeriph_Driver\src/stm32f10x_sdio.c **** #define RWSTOP_BitNumber          0x09
  81:.\stlib\STM32F10x_StdPeriph_Driver\src/stm32f10x_sdio.c **** #define DCTRL_RWSTOP_BB           (PERIPH_BB_BASE + (DCTRL_OFFSET * 32) + (RWSTOP_BitNumber * 4))
  82:.\stlib\STM32F10x_StdPeriph_Driver\src/stm32f10x_sdio.c **** 
  83:.\stlib\STM32F10x_StdPeriph_Driver\src/stm32f10x_sdio.c **** /* Alias word address of RWMOD bit */
  84:.\stlib\STM32F10x_StdPeriph_Driver\src/stm32f10x_sdio.c **** #define RWMOD_BitNumber           0x0A
  85:.\stlib\STM32F10x_StdPeriph_Driver\src/stm32f10x_sdio.c **** #define DCTRL_RWMOD_BB            (PERIPH_BB_BASE + (DCTRL_OFFSET * 32) + (RWMOD_BitNumber * 4))
ARM GAS  C:\Users\skey\AppData\Local\Temp\ccZCz5DZ.s 			page 4


  86:.\stlib\STM32F10x_StdPeriph_Driver\src/stm32f10x_sdio.c **** 
  87:.\stlib\STM32F10x_StdPeriph_Driver\src/stm32f10x_sdio.c **** /* Alias word address of SDIOEN bit */
  88:.\stlib\STM32F10x_StdPeriph_Driver\src/stm32f10x_sdio.c **** #define SDIOEN_BitNumber          0x0B
  89:.\stlib\STM32F10x_StdPeriph_Driver\src/stm32f10x_sdio.c **** #define DCTRL_SDIOEN_BB           (PERIPH_BB_BASE + (DCTRL_OFFSET * 32) + (SDIOEN_BitNumber * 4))
  90:.\stlib\STM32F10x_StdPeriph_Driver\src/stm32f10x_sdio.c **** 
  91:.\stlib\STM32F10x_StdPeriph_Driver\src/stm32f10x_sdio.c **** /* ---------------------- SDIO registers bit mask ------------------------ */
  92:.\stlib\STM32F10x_StdPeriph_Driver\src/stm32f10x_sdio.c **** 
  93:.\stlib\STM32F10x_StdPeriph_Driver\src/stm32f10x_sdio.c **** /* --- CLKCR Register ---*/
  94:.\stlib\STM32F10x_StdPeriph_Driver\src/stm32f10x_sdio.c **** 
  95:.\stlib\STM32F10x_StdPeriph_Driver\src/stm32f10x_sdio.c **** /* CLKCR register clear mask */
  96:.\stlib\STM32F10x_StdPeriph_Driver\src/stm32f10x_sdio.c **** #define CLKCR_CLEAR_MASK         ((uint32_t)0xFFFF8100) 
  97:.\stlib\STM32F10x_StdPeriph_Driver\src/stm32f10x_sdio.c **** 
  98:.\stlib\STM32F10x_StdPeriph_Driver\src/stm32f10x_sdio.c **** /* --- PWRCTRL Register ---*/
  99:.\stlib\STM32F10x_StdPeriph_Driver\src/stm32f10x_sdio.c **** 
 100:.\stlib\STM32F10x_StdPeriph_Driver\src/stm32f10x_sdio.c **** /* SDIO PWRCTRL Mask */
 101:.\stlib\STM32F10x_StdPeriph_Driver\src/stm32f10x_sdio.c **** #define PWR_PWRCTRL_MASK         ((uint32_t)0xFFFFFFFC)
 102:.\stlib\STM32F10x_StdPeriph_Driver\src/stm32f10x_sdio.c **** 
 103:.\stlib\STM32F10x_StdPeriph_Driver\src/stm32f10x_sdio.c **** /* --- DCTRL Register ---*/
 104:.\stlib\STM32F10x_StdPeriph_Driver\src/stm32f10x_sdio.c **** 
 105:.\stlib\STM32F10x_StdPeriph_Driver\src/stm32f10x_sdio.c **** /* SDIO DCTRL Clear Mask */
 106:.\stlib\STM32F10x_StdPeriph_Driver\src/stm32f10x_sdio.c **** #define DCTRL_CLEAR_MASK         ((uint32_t)0xFFFFFF08)
 107:.\stlib\STM32F10x_StdPeriph_Driver\src/stm32f10x_sdio.c **** 
 108:.\stlib\STM32F10x_StdPeriph_Driver\src/stm32f10x_sdio.c **** /* --- CMD Register ---*/
 109:.\stlib\STM32F10x_StdPeriph_Driver\src/stm32f10x_sdio.c **** 
 110:.\stlib\STM32F10x_StdPeriph_Driver\src/stm32f10x_sdio.c **** /* CMD Register clear mask */
 111:.\stlib\STM32F10x_StdPeriph_Driver\src/stm32f10x_sdio.c **** #define CMD_CLEAR_MASK           ((uint32_t)0xFFFFF800)
 112:.\stlib\STM32F10x_StdPeriph_Driver\src/stm32f10x_sdio.c **** 
 113:.\stlib\STM32F10x_StdPeriph_Driver\src/stm32f10x_sdio.c **** /* SDIO RESP Registers Address */
 114:.\stlib\STM32F10x_StdPeriph_Driver\src/stm32f10x_sdio.c **** #define SDIO_RESP_ADDR           ((uint32_t)(SDIO_BASE + 0x14))
 115:.\stlib\STM32F10x_StdPeriph_Driver\src/stm32f10x_sdio.c **** 
 116:.\stlib\STM32F10x_StdPeriph_Driver\src/stm32f10x_sdio.c **** /**
 117:.\stlib\STM32F10x_StdPeriph_Driver\src/stm32f10x_sdio.c ****   * @}
 118:.\stlib\STM32F10x_StdPeriph_Driver\src/stm32f10x_sdio.c ****   */
 119:.\stlib\STM32F10x_StdPeriph_Driver\src/stm32f10x_sdio.c **** 
 120:.\stlib\STM32F10x_StdPeriph_Driver\src/stm32f10x_sdio.c **** /** @defgroup SDIO_Private_Defines
 121:.\stlib\STM32F10x_StdPeriph_Driver\src/stm32f10x_sdio.c ****   * @{
 122:.\stlib\STM32F10x_StdPeriph_Driver\src/stm32f10x_sdio.c ****   */
 123:.\stlib\STM32F10x_StdPeriph_Driver\src/stm32f10x_sdio.c **** 
 124:.\stlib\STM32F10x_StdPeriph_Driver\src/stm32f10x_sdio.c **** /**
 125:.\stlib\STM32F10x_StdPeriph_Driver\src/stm32f10x_sdio.c ****   * @}
 126:.\stlib\STM32F10x_StdPeriph_Driver\src/stm32f10x_sdio.c ****   */
 127:.\stlib\STM32F10x_StdPeriph_Driver\src/stm32f10x_sdio.c **** 
 128:.\stlib\STM32F10x_StdPeriph_Driver\src/stm32f10x_sdio.c **** /** @defgroup SDIO_Private_Macros
 129:.\stlib\STM32F10x_StdPeriph_Driver\src/stm32f10x_sdio.c ****   * @{
 130:.\stlib\STM32F10x_StdPeriph_Driver\src/stm32f10x_sdio.c ****   */
 131:.\stlib\STM32F10x_StdPeriph_Driver\src/stm32f10x_sdio.c **** 
 132:.\stlib\STM32F10x_StdPeriph_Driver\src/stm32f10x_sdio.c **** /**
 133:.\stlib\STM32F10x_StdPeriph_Driver\src/stm32f10x_sdio.c ****   * @}
 134:.\stlib\STM32F10x_StdPeriph_Driver\src/stm32f10x_sdio.c ****   */
 135:.\stlib\STM32F10x_StdPeriph_Driver\src/stm32f10x_sdio.c **** 
 136:.\stlib\STM32F10x_StdPeriph_Driver\src/stm32f10x_sdio.c **** /** @defgroup SDIO_Private_Variables
 137:.\stlib\STM32F10x_StdPeriph_Driver\src/stm32f10x_sdio.c ****   * @{
 138:.\stlib\STM32F10x_StdPeriph_Driver\src/stm32f10x_sdio.c ****   */
 139:.\stlib\STM32F10x_StdPeriph_Driver\src/stm32f10x_sdio.c **** 
 140:.\stlib\STM32F10x_StdPeriph_Driver\src/stm32f10x_sdio.c **** /**
 141:.\stlib\STM32F10x_StdPeriph_Driver\src/stm32f10x_sdio.c ****   * @}
 142:.\stlib\STM32F10x_StdPeriph_Driver\src/stm32f10x_sdio.c ****   */
ARM GAS  C:\Users\skey\AppData\Local\Temp\ccZCz5DZ.s 			page 5


 143:.\stlib\STM32F10x_StdPeriph_Driver\src/stm32f10x_sdio.c **** 
 144:.\stlib\STM32F10x_StdPeriph_Driver\src/stm32f10x_sdio.c **** /** @defgroup SDIO_Private_FunctionPrototypes
 145:.\stlib\STM32F10x_StdPeriph_Driver\src/stm32f10x_sdio.c ****   * @{
 146:.\stlib\STM32F10x_StdPeriph_Driver\src/stm32f10x_sdio.c ****   */
 147:.\stlib\STM32F10x_StdPeriph_Driver\src/stm32f10x_sdio.c **** 
 148:.\stlib\STM32F10x_StdPeriph_Driver\src/stm32f10x_sdio.c **** /**
 149:.\stlib\STM32F10x_StdPeriph_Driver\src/stm32f10x_sdio.c ****   * @}
 150:.\stlib\STM32F10x_StdPeriph_Driver\src/stm32f10x_sdio.c ****   */
 151:.\stlib\STM32F10x_StdPeriph_Driver\src/stm32f10x_sdio.c **** 
 152:.\stlib\STM32F10x_StdPeriph_Driver\src/stm32f10x_sdio.c **** /** @defgroup SDIO_Private_Functions
 153:.\stlib\STM32F10x_StdPeriph_Driver\src/stm32f10x_sdio.c ****   * @{
 154:.\stlib\STM32F10x_StdPeriph_Driver\src/stm32f10x_sdio.c ****   */
 155:.\stlib\STM32F10x_StdPeriph_Driver\src/stm32f10x_sdio.c **** 
 156:.\stlib\STM32F10x_StdPeriph_Driver\src/stm32f10x_sdio.c **** /**
 157:.\stlib\STM32F10x_StdPeriph_Driver\src/stm32f10x_sdio.c ****   * @brief  Deinitializes the SDIO peripheral registers to their default reset values.
 158:.\stlib\STM32F10x_StdPeriph_Driver\src/stm32f10x_sdio.c ****   * @param  None
 159:.\stlib\STM32F10x_StdPeriph_Driver\src/stm32f10x_sdio.c ****   * @retval None
 160:.\stlib\STM32F10x_StdPeriph_Driver\src/stm32f10x_sdio.c ****   */
 161:.\stlib\STM32F10x_StdPeriph_Driver\src/stm32f10x_sdio.c **** void SDIO_DeInit(void)
 162:.\stlib\STM32F10x_StdPeriph_Driver\src/stm32f10x_sdio.c **** {
  87              		.loc 1 162 1 view -0
  88              		.cfi_startproc
  89              		@ args = 0, pretend = 0, frame = 0
  90              		@ frame_needed = 0, uses_anonymous_args = 0
  91              		@ link register save eliminated.
 163:.\stlib\STM32F10x_StdPeriph_Driver\src/stm32f10x_sdio.c ****   SDIO->POWER = 0x00000000;
  92              		.loc 1 163 3 view .LVU1
  93              	@ .\stlib\STM32F10x_StdPeriph_Driver\src\stm32f10x_sdio.c:163:   SDIO->POWER = 0x00000000;
  94              		.loc 1 163 15 is_stmt 0 view .LVU2
  95 0000 0022     		movs	r2, #0	@ tmp111,
  96 0002 064B     		ldr	r3, .L2	@ tmp110,
  97              	@ .\stlib\STM32F10x_StdPeriph_Driver\src\stm32f10x_sdio.c:170:   SDIO->ICR = 0x00C007FF;
 164:.\stlib\STM32F10x_StdPeriph_Driver\src/stm32f10x_sdio.c ****   SDIO->CLKCR = 0x00000000;
 165:.\stlib\STM32F10x_StdPeriph_Driver\src/stm32f10x_sdio.c ****   SDIO->ARG = 0x00000000;
 166:.\stlib\STM32F10x_StdPeriph_Driver\src/stm32f10x_sdio.c ****   SDIO->CMD = 0x00000000;
 167:.\stlib\STM32F10x_StdPeriph_Driver\src/stm32f10x_sdio.c ****   SDIO->DTIMER = 0x00000000;
 168:.\stlib\STM32F10x_StdPeriph_Driver\src/stm32f10x_sdio.c ****   SDIO->DLEN = 0x00000000;
 169:.\stlib\STM32F10x_StdPeriph_Driver\src/stm32f10x_sdio.c ****   SDIO->DCTRL = 0x00000000;
 170:.\stlib\STM32F10x_StdPeriph_Driver\src/stm32f10x_sdio.c ****   SDIO->ICR = 0x00C007FF;
  98              		.loc 1 170 13 view .LVU3
  99 0004 0649     		ldr	r1, .L2+4	@ tmp125,
 100              	@ .\stlib\STM32F10x_StdPeriph_Driver\src\stm32f10x_sdio.c:163:   SDIO->POWER = 0x00000000;
 163:.\stlib\STM32F10x_StdPeriph_Driver\src/stm32f10x_sdio.c ****   SDIO->POWER = 0x00000000;
 101              		.loc 1 163 15 view .LVU4
 102 0006 1A60     		str	r2, [r3]	@ tmp111, MEM[(struct SDIO_TypeDef *)1073840128B].POWER
 164:.\stlib\STM32F10x_StdPeriph_Driver\src/stm32f10x_sdio.c ****   SDIO->CLKCR = 0x00000000;
 103              		.loc 1 164 3 is_stmt 1 view .LVU5
 104              	@ .\stlib\STM32F10x_StdPeriph_Driver\src\stm32f10x_sdio.c:164:   SDIO->CLKCR = 0x00000000;
 164:.\stlib\STM32F10x_StdPeriph_Driver\src/stm32f10x_sdio.c ****   SDIO->CLKCR = 0x00000000;
 105              		.loc 1 164 15 is_stmt 0 view .LVU6
 106 0008 5A60     		str	r2, [r3, #4]	@ tmp111, MEM[(struct SDIO_TypeDef *)1073840128B].CLKCR
 165:.\stlib\STM32F10x_StdPeriph_Driver\src/stm32f10x_sdio.c ****   SDIO->CMD = 0x00000000;
 107              		.loc 1 165 3 is_stmt 1 view .LVU7
 108              	@ .\stlib\STM32F10x_StdPeriph_Driver\src\stm32f10x_sdio.c:165:   SDIO->ARG = 0x00000000;
 165:.\stlib\STM32F10x_StdPeriph_Driver\src/stm32f10x_sdio.c ****   SDIO->CMD = 0x00000000;
 109              		.loc 1 165 13 is_stmt 0 view .LVU8
 110 000a 9A60     		str	r2, [r3, #8]	@ tmp111, MEM[(struct SDIO_TypeDef *)1073840128B].ARG
ARM GAS  C:\Users\skey\AppData\Local\Temp\ccZCz5DZ.s 			page 6


 166:.\stlib\STM32F10x_StdPeriph_Driver\src/stm32f10x_sdio.c ****   SDIO->DTIMER = 0x00000000;
 111              		.loc 1 166 3 is_stmt 1 view .LVU9
 112              	@ .\stlib\STM32F10x_StdPeriph_Driver\src\stm32f10x_sdio.c:166:   SDIO->CMD = 0x00000000;
 166:.\stlib\STM32F10x_StdPeriph_Driver\src/stm32f10x_sdio.c ****   SDIO->DTIMER = 0x00000000;
 113              		.loc 1 166 13 is_stmt 0 view .LVU10
 114 000c DA60     		str	r2, [r3, #12]	@ tmp111, MEM[(struct SDIO_TypeDef *)1073840128B].CMD
 167:.\stlib\STM32F10x_StdPeriph_Driver\src/stm32f10x_sdio.c ****   SDIO->DLEN = 0x00000000;
 115              		.loc 1 167 3 is_stmt 1 view .LVU11
 116              	@ .\stlib\STM32F10x_StdPeriph_Driver\src\stm32f10x_sdio.c:167:   SDIO->DTIMER = 0x00000000;
 167:.\stlib\STM32F10x_StdPeriph_Driver\src/stm32f10x_sdio.c ****   SDIO->DLEN = 0x00000000;
 117              		.loc 1 167 16 is_stmt 0 view .LVU12
 118 000e 5A62     		str	r2, [r3, #36]	@ tmp111, MEM[(struct SDIO_TypeDef *)1073840128B].DTIMER
 168:.\stlib\STM32F10x_StdPeriph_Driver\src/stm32f10x_sdio.c ****   SDIO->DCTRL = 0x00000000;
 119              		.loc 1 168 3 is_stmt 1 view .LVU13
 120              	@ .\stlib\STM32F10x_StdPeriph_Driver\src\stm32f10x_sdio.c:168:   SDIO->DLEN = 0x00000000;
 168:.\stlib\STM32F10x_StdPeriph_Driver\src/stm32f10x_sdio.c ****   SDIO->DCTRL = 0x00000000;
 121              		.loc 1 168 14 is_stmt 0 view .LVU14
 122 0010 9A62     		str	r2, [r3, #40]	@ tmp111, MEM[(struct SDIO_TypeDef *)1073840128B].DLEN
 169:.\stlib\STM32F10x_StdPeriph_Driver\src/stm32f10x_sdio.c ****   SDIO->ICR = 0x00C007FF;
 123              		.loc 1 169 3 is_stmt 1 view .LVU15
 124              	@ .\stlib\STM32F10x_StdPeriph_Driver\src\stm32f10x_sdio.c:169:   SDIO->DCTRL = 0x00000000;
 169:.\stlib\STM32F10x_StdPeriph_Driver\src/stm32f10x_sdio.c ****   SDIO->ICR = 0x00C007FF;
 125              		.loc 1 169 15 is_stmt 0 view .LVU16
 126 0012 DA62     		str	r2, [r3, #44]	@ tmp111, MEM[(struct SDIO_TypeDef *)1073840128B].DCTRL
 127              		.loc 1 170 3 is_stmt 1 view .LVU17
 128              	@ .\stlib\STM32F10x_StdPeriph_Driver\src\stm32f10x_sdio.c:170:   SDIO->ICR = 0x00C007FF;
 129              		.loc 1 170 13 is_stmt 0 view .LVU18
 130 0014 9963     		str	r1, [r3, #56]	@ tmp125, MEM[(struct SDIO_TypeDef *)1073840128B].ICR
 171:.\stlib\STM32F10x_StdPeriph_Driver\src/stm32f10x_sdio.c ****   SDIO->MASK = 0x00000000;
 131              		.loc 1 171 3 is_stmt 1 view .LVU19
 132              	@ .\stlib\STM32F10x_StdPeriph_Driver\src\stm32f10x_sdio.c:171:   SDIO->MASK = 0x00000000;
 133              		.loc 1 171 14 is_stmt 0 view .LVU20
 134 0016 DA63     		str	r2, [r3, #60]	@ tmp111, MEM[(struct SDIO_TypeDef *)1073840128B].MASK
 135              	@ .\stlib\STM32F10x_StdPeriph_Driver\src\stm32f10x_sdio.c:172: }
 172:.\stlib\STM32F10x_StdPeriph_Driver\src/stm32f10x_sdio.c **** }
 136              		.loc 1 172 1 view .LVU21
 137 0018 7047     		bx	lr	@
 138              	.L3:
 139 001a 00BF     		.align	2
 140              	.L2:
 141 001c 00800140 		.word	1073840128
 142 0020 FF07C000 		.word	12584959
 143              		.cfi_endproc
 144              	.LFE29:
 145              		.size	SDIO_DeInit, .-SDIO_DeInit
 146              		.align	1
 147              		.global	SDIO_Init
 148              		.syntax unified
 149              		.thumb
 150              		.thumb_func
 151              		.fpu softvfp
 152              		.type	SDIO_Init, %function
 153              	SDIO_Init:
 154              	.LVL0:
 155              	.LFB30:
 173:.\stlib\STM32F10x_StdPeriph_Driver\src/stm32f10x_sdio.c **** 
 174:.\stlib\STM32F10x_StdPeriph_Driver\src/stm32f10x_sdio.c **** /**
ARM GAS  C:\Users\skey\AppData\Local\Temp\ccZCz5DZ.s 			page 7


 175:.\stlib\STM32F10x_StdPeriph_Driver\src/stm32f10x_sdio.c ****   * @brief  Initializes the SDIO peripheral according to the specified 
 176:.\stlib\STM32F10x_StdPeriph_Driver\src/stm32f10x_sdio.c ****   *         parameters in the SDIO_InitStruct.
 177:.\stlib\STM32F10x_StdPeriph_Driver\src/stm32f10x_sdio.c ****   * @param  SDIO_InitStruct : pointer to a SDIO_InitTypeDef structure 
 178:.\stlib\STM32F10x_StdPeriph_Driver\src/stm32f10x_sdio.c ****   *         that contains the configuration information for the SDIO peripheral.
 179:.\stlib\STM32F10x_StdPeriph_Driver\src/stm32f10x_sdio.c ****   * @retval None
 180:.\stlib\STM32F10x_StdPeriph_Driver\src/stm32f10x_sdio.c ****   */
 181:.\stlib\STM32F10x_StdPeriph_Driver\src/stm32f10x_sdio.c **** void SDIO_Init(SDIO_InitTypeDef* SDIO_InitStruct)
 182:.\stlib\STM32F10x_StdPeriph_Driver\src/stm32f10x_sdio.c **** {
 156              		.loc 1 182 1 is_stmt 1 view -0
 157              		.cfi_startproc
 158              		@ args = 0, pretend = 0, frame = 0
 159              		@ frame_needed = 0, uses_anonymous_args = 0
 183:.\stlib\STM32F10x_StdPeriph_Driver\src/stm32f10x_sdio.c ****   uint32_t tmpreg = 0;
 160              		.loc 1 183 3 view .LVU23
 184:.\stlib\STM32F10x_StdPeriph_Driver\src/stm32f10x_sdio.c ****     
 185:.\stlib\STM32F10x_StdPeriph_Driver\src/stm32f10x_sdio.c ****   /* Check the parameters */
 186:.\stlib\STM32F10x_StdPeriph_Driver\src/stm32f10x_sdio.c ****   assert_param(IS_SDIO_CLOCK_EDGE(SDIO_InitStruct->SDIO_ClockEdge));
 161              		.loc 1 186 3 view .LVU24
 187:.\stlib\STM32F10x_StdPeriph_Driver\src/stm32f10x_sdio.c ****   assert_param(IS_SDIO_CLOCK_BYPASS(SDIO_InitStruct->SDIO_ClockBypass));
 162              		.loc 1 187 3 view .LVU25
 188:.\stlib\STM32F10x_StdPeriph_Driver\src/stm32f10x_sdio.c ****   assert_param(IS_SDIO_CLOCK_POWER_SAVE(SDIO_InitStruct->SDIO_ClockPowerSave));
 163              		.loc 1 188 3 view .LVU26
 189:.\stlib\STM32F10x_StdPeriph_Driver\src/stm32f10x_sdio.c ****   assert_param(IS_SDIO_BUS_WIDE(SDIO_InitStruct->SDIO_BusWide));
 164              		.loc 1 189 3 view .LVU27
 190:.\stlib\STM32F10x_StdPeriph_Driver\src/stm32f10x_sdio.c ****   assert_param(IS_SDIO_HARDWARE_FLOW_CONTROL(SDIO_InitStruct->SDIO_HardwareFlowControl)); 
 165              		.loc 1 190 3 view .LVU28
 191:.\stlib\STM32F10x_StdPeriph_Driver\src/stm32f10x_sdio.c ****    
 192:.\stlib\STM32F10x_StdPeriph_Driver\src/stm32f10x_sdio.c **** /*---------------------------- SDIO CLKCR Configuration ------------------------*/  
 193:.\stlib\STM32F10x_StdPeriph_Driver\src/stm32f10x_sdio.c ****   /* Get the SDIO CLKCR value */
 194:.\stlib\STM32F10x_StdPeriph_Driver\src/stm32f10x_sdio.c ****   tmpreg = SDIO->CLKCR;
 166              		.loc 1 194 3 view .LVU29
 167              	@ .\stlib\STM32F10x_StdPeriph_Driver\src\stm32f10x_sdio.c:194:   tmpreg = SDIO->CLKCR;
 168              		.loc 1 194 10 is_stmt 0 view .LVU30
 169 0024 0A49     		ldr	r1, .L5	@ tmp126,
 170              	@ .\stlib\STM32F10x_StdPeriph_Driver\src\stm32f10x_sdio.c:182: {
 182:.\stlib\STM32F10x_StdPeriph_Driver\src/stm32f10x_sdio.c ****   uint32_t tmpreg = 0;
 171              		.loc 1 182 1 view .LVU31
 172 0026 10B5     		push	{r4, lr}	@
 173              	.LCFI0:
 174              		.cfi_def_cfa_offset 8
 175              		.cfi_offset 4, -8
 176              		.cfi_offset 14, -4
 177 0028 D0E90143 		ldrd	r4, r3, [r0, #4]	@ SDIO_InitStruct_16(D)->SDIO_ClockBypass, SDIO_InitStruct_16(D)->SDIO_Clock
 178              	@ .\stlib\STM32F10x_StdPeriph_Driver\src\stm32f10x_sdio.c:194:   tmpreg = SDIO->CLKCR;
 179              		.loc 1 194 10 view .LVU32
 180 002c 4A68     		ldr	r2, [r1, #4]	@ tmpreg, MEM[(struct SDIO_TypeDef *)1073840128B].CLKCR
 181              	.LVL1:
 195:.\stlib\STM32F10x_StdPeriph_Driver\src/stm32f10x_sdio.c ****   
 196:.\stlib\STM32F10x_StdPeriph_Driver\src/stm32f10x_sdio.c ****   /* Clear CLKDIV, PWRSAV, BYPASS, WIDBUS, NEGEDGE, HWFC_EN bits */
 197:.\stlib\STM32F10x_StdPeriph_Driver\src/stm32f10x_sdio.c ****   tmpreg &= CLKCR_CLEAR_MASK;
 182              		.loc 1 197 3 is_stmt 1 view .LVU33
 198:.\stlib\STM32F10x_StdPeriph_Driver\src/stm32f10x_sdio.c ****   
 199:.\stlib\STM32F10x_StdPeriph_Driver\src/stm32f10x_sdio.c ****   /* Set CLKDIV bits according to SDIO_ClockDiv value */
 200:.\stlib\STM32F10x_StdPeriph_Driver\src/stm32f10x_sdio.c ****   /* Set PWRSAV bit according to SDIO_ClockPowerSave value */
 201:.\stlib\STM32F10x_StdPeriph_Driver\src/stm32f10x_sdio.c ****   /* Set BYPASS bit according to SDIO_ClockBypass value */
 202:.\stlib\STM32F10x_StdPeriph_Driver\src/stm32f10x_sdio.c ****   /* Set WIDBUS bits according to SDIO_BusWide value */
 203:.\stlib\STM32F10x_StdPeriph_Driver\src/stm32f10x_sdio.c ****   /* Set NEGEDGE bits according to SDIO_ClockEdge value */
ARM GAS  C:\Users\skey\AppData\Local\Temp\ccZCz5DZ.s 			page 8


 204:.\stlib\STM32F10x_StdPeriph_Driver\src/stm32f10x_sdio.c ****   /* Set HWFC_EN bits according to SDIO_HardwareFlowControl value */
 205:.\stlib\STM32F10x_StdPeriph_Driver\src/stm32f10x_sdio.c ****   tmpreg |= (SDIO_InitStruct->SDIO_ClockDiv  | SDIO_InitStruct->SDIO_ClockPowerSave |
 183              		.loc 1 205 3 view .LVU34
 184 002e 2343     		orrs	r3, r3, r4	@, tmp127, SDIO_InitStruct_16(D)->SDIO_ClockPowerSave, SDIO_InitStruct_16(D)->SDIO
 185              	@ .\stlib\STM32F10x_StdPeriph_Driver\src\stm32f10x_sdio.c:197:   tmpreg &= CLKCR_CLEAR_MASK;
 197:.\stlib\STM32F10x_StdPeriph_Driver\src/stm32f10x_sdio.c ****   
 186              		.loc 1 197 10 is_stmt 0 view .LVU35
 187 0030 22F4FD42 		bic	r2, r2, #32384	@ tmpreg, tmpreg,
 188              	.LVL2:
 197:.\stlib\STM32F10x_StdPeriph_Driver\src/stm32f10x_sdio.c ****   
 189              		.loc 1 197 10 view .LVU36
 190 0034 22F07F02 		bic	r2, r2, #127	@ tmpreg, tmpreg,
 191 0038 1343     		orrs	r3, r3, r2	@, tmp132, tmp127, tmpreg
 192 003a C268     		ldr	r2, [r0, #12]	@ SDIO_InitStruct_16(D)->SDIO_BusWide, SDIO_InitStruct_16(D)->SDIO_BusWide
 193 003c 1343     		orrs	r3, r3, r2	@, tmp133, tmp132, SDIO_InitStruct_16(D)->SDIO_BusWide
 194 003e 0268     		ldr	r2, [r0]	@ SDIO_InitStruct_16(D)->SDIO_ClockEdge, SDIO_InitStruct_16(D)->SDIO_ClockEdge
 195 0040 1343     		orrs	r3, r3, r2	@, tmp135, tmp133, SDIO_InitStruct_16(D)->SDIO_ClockEdge
 196 0042 0269     		ldr	r2, [r0, #16]	@ SDIO_InitStruct_16(D)->SDIO_HardwareFlowControl, SDIO_InitStruct_16(D)->SDIO_H
 197 0044 1343     		orrs	r3, r3, r2	@, _23, tmp135, SDIO_InitStruct_16(D)->SDIO_HardwareFlowControl
 198              	@ .\stlib\STM32F10x_StdPeriph_Driver\src\stm32f10x_sdio.c:205:   tmpreg |= (SDIO_InitStruct->SDIO_C
 199              		.loc 1 205 29 view .LVU37
 200 0046 027D     		ldrb	r2, [r0, #20]	@ zero_extendqisi2	@ SDIO_InitStruct_16(D)->SDIO_ClockDiv, SDIO_InitStruct_16(D
 201              	@ .\stlib\STM32F10x_StdPeriph_Driver\src\stm32f10x_sdio.c:205:   tmpreg |= (SDIO_InitStruct->SDIO_C
 202              		.loc 1 205 10 view .LVU38
 203 0048 1343     		orrs	r3, r3, r2	@, tmpreg, _23, SDIO_InitStruct_16(D)->SDIO_ClockDiv
 204              	.LVL3:
 206:.\stlib\STM32F10x_StdPeriph_Driver\src/stm32f10x_sdio.c ****              SDIO_InitStruct->SDIO_ClockBypass | SDIO_InitStruct->SDIO_BusWide |
 207:.\stlib\STM32F10x_StdPeriph_Driver\src/stm32f10x_sdio.c ****              SDIO_InitStruct->SDIO_ClockEdge | SDIO_InitStruct->SDIO_HardwareFlowControl); 
 208:.\stlib\STM32F10x_StdPeriph_Driver\src/stm32f10x_sdio.c ****   
 209:.\stlib\STM32F10x_StdPeriph_Driver\src/stm32f10x_sdio.c ****   /* Write to SDIO CLKCR */
 210:.\stlib\STM32F10x_StdPeriph_Driver\src/stm32f10x_sdio.c ****   SDIO->CLKCR = tmpreg;
 205              		.loc 1 210 3 is_stmt 1 view .LVU39
 206              	@ .\stlib\STM32F10x_StdPeriph_Driver\src\stm32f10x_sdio.c:210:   SDIO->CLKCR = tmpreg;
 207              		.loc 1 210 15 is_stmt 0 view .LVU40
 208 004a 4B60     		str	r3, [r1, #4]	@ tmpreg, MEM[(struct SDIO_TypeDef *)1073840128B].CLKCR
 209              	@ .\stlib\STM32F10x_StdPeriph_Driver\src\stm32f10x_sdio.c:211: }
 211:.\stlib\STM32F10x_StdPeriph_Driver\src/stm32f10x_sdio.c **** }
 210              		.loc 1 211 1 view .LVU41
 211 004c 10BD     		pop	{r4, pc}	@
 212              	.L6:
 213 004e 00BF     		.align	2
 214              	.L5:
 215 0050 00800140 		.word	1073840128
 216              		.cfi_endproc
 217              	.LFE30:
 218              		.size	SDIO_Init, .-SDIO_Init
 219              		.align	1
 220              		.global	SDIO_StructInit
 221              		.syntax unified
 222              		.thumb
 223              		.thumb_func
 224              		.fpu softvfp
 225              		.type	SDIO_StructInit, %function
 226              	SDIO_StructInit:
 227              	.LVL4:
 228              	.LFB31:
 212:.\stlib\STM32F10x_StdPeriph_Driver\src/stm32f10x_sdio.c **** 
ARM GAS  C:\Users\skey\AppData\Local\Temp\ccZCz5DZ.s 			page 9


 213:.\stlib\STM32F10x_StdPeriph_Driver\src/stm32f10x_sdio.c **** /**
 214:.\stlib\STM32F10x_StdPeriph_Driver\src/stm32f10x_sdio.c ****   * @brief  Fills each SDIO_InitStruct member with its default value.
 215:.\stlib\STM32F10x_StdPeriph_Driver\src/stm32f10x_sdio.c ****   * @param  SDIO_InitStruct: pointer to an SDIO_InitTypeDef structure which 
 216:.\stlib\STM32F10x_StdPeriph_Driver\src/stm32f10x_sdio.c ****   *   will be initialized.
 217:.\stlib\STM32F10x_StdPeriph_Driver\src/stm32f10x_sdio.c ****   * @retval None
 218:.\stlib\STM32F10x_StdPeriph_Driver\src/stm32f10x_sdio.c ****   */
 219:.\stlib\STM32F10x_StdPeriph_Driver\src/stm32f10x_sdio.c **** void SDIO_StructInit(SDIO_InitTypeDef* SDIO_InitStruct)
 220:.\stlib\STM32F10x_StdPeriph_Driver\src/stm32f10x_sdio.c **** {
 229              		.loc 1 220 1 is_stmt 1 view -0
 230              		.cfi_startproc
 231              		@ args = 0, pretend = 0, frame = 0
 232              		@ frame_needed = 0, uses_anonymous_args = 0
 233              		@ link register save eliminated.
 221:.\stlib\STM32F10x_StdPeriph_Driver\src/stm32f10x_sdio.c ****   /* SDIO_InitStruct members default value */
 222:.\stlib\STM32F10x_StdPeriph_Driver\src/stm32f10x_sdio.c ****   SDIO_InitStruct->SDIO_ClockDiv = 0x00;
 234              		.loc 1 222 3 view .LVU43
 235              	@ .\stlib\STM32F10x_StdPeriph_Driver\src\stm32f10x_sdio.c:222:   SDIO_InitStruct->SDIO_ClockDiv = 0
 236              		.loc 1 222 34 is_stmt 0 view .LVU44
 237 0054 0023     		movs	r3, #0	@ tmp111,
 238              	@ .\stlib\STM32F10x_StdPeriph_Driver\src\stm32f10x_sdio.c:224:   SDIO_InitStruct->SDIO_ClockBypass 
 223:.\stlib\STM32F10x_StdPeriph_Driver\src/stm32f10x_sdio.c ****   SDIO_InitStruct->SDIO_ClockEdge = SDIO_ClockEdge_Rising;
 224:.\stlib\STM32F10x_StdPeriph_Driver\src/stm32f10x_sdio.c ****   SDIO_InitStruct->SDIO_ClockBypass = SDIO_ClockBypass_Disable;
 239              		.loc 1 224 37 view .LVU45
 240 0056 C0E90033 		strd	r3, r3, [r0]	@ tmp111, tmp111, SDIO_InitStruct
 241              	@ .\stlib\STM32F10x_StdPeriph_Driver\src\stm32f10x_sdio.c:226:   SDIO_InitStruct->SDIO_BusWide = SD
 225:.\stlib\STM32F10x_StdPeriph_Driver\src/stm32f10x_sdio.c ****   SDIO_InitStruct->SDIO_ClockPowerSave = SDIO_ClockPowerSave_Disable;
 226:.\stlib\STM32F10x_StdPeriph_Driver\src/stm32f10x_sdio.c ****   SDIO_InitStruct->SDIO_BusWide = SDIO_BusWide_1b;
 242              		.loc 1 226 33 view .LVU46
 243 005a C0E90233 		strd	r3, r3, [r0, #8]	@ tmp111, tmp111, SDIO_InitStruct,
 244              	@ .\stlib\STM32F10x_StdPeriph_Driver\src\stm32f10x_sdio.c:222:   SDIO_InitStruct->SDIO_ClockDiv = 0
 222:.\stlib\STM32F10x_StdPeriph_Driver\src/stm32f10x_sdio.c ****   SDIO_InitStruct->SDIO_ClockEdge = SDIO_ClockEdge_Rising;
 245              		.loc 1 222 34 view .LVU47
 246 005e 0375     		strb	r3, [r0, #20]	@ tmp111, SDIO_InitStruct_2(D)->SDIO_ClockDiv
 223:.\stlib\STM32F10x_StdPeriph_Driver\src/stm32f10x_sdio.c ****   SDIO_InitStruct->SDIO_ClockEdge = SDIO_ClockEdge_Rising;
 247              		.loc 1 223 3 is_stmt 1 view .LVU48
 225:.\stlib\STM32F10x_StdPeriph_Driver\src/stm32f10x_sdio.c ****   SDIO_InitStruct->SDIO_ClockPowerSave = SDIO_ClockPowerSave_Disable;
 248              		.loc 1 225 3 view .LVU49
 227:.\stlib\STM32F10x_StdPeriph_Driver\src/stm32f10x_sdio.c ****   SDIO_InitStruct->SDIO_HardwareFlowControl = SDIO_HardwareFlowControl_Disable;
 249              		.loc 1 227 3 view .LVU50
 250              	@ .\stlib\STM32F10x_StdPeriph_Driver\src\stm32f10x_sdio.c:227:   SDIO_InitStruct->SDIO_HardwareFlow
 251              		.loc 1 227 45 is_stmt 0 view .LVU51
 252 0060 0361     		str	r3, [r0, #16]	@ tmp111, SDIO_InitStruct_2(D)->SDIO_HardwareFlowControl
 253              	@ .\stlib\STM32F10x_StdPeriph_Driver\src\stm32f10x_sdio.c:228: }
 228:.\stlib\STM32F10x_StdPeriph_Driver\src/stm32f10x_sdio.c **** }
 254              		.loc 1 228 1 view .LVU52
 255 0062 7047     		bx	lr	@
 256              		.cfi_endproc
 257              	.LFE31:
 258              		.size	SDIO_StructInit, .-SDIO_StructInit
 259              		.align	1
 260              		.global	SDIO_ClockCmd
 261              		.syntax unified
 262              		.thumb
 263              		.thumb_func
 264              		.fpu softvfp
 265              		.type	SDIO_ClockCmd, %function
 266              	SDIO_ClockCmd:
ARM GAS  C:\Users\skey\AppData\Local\Temp\ccZCz5DZ.s 			page 10


 267              	.LVL5:
 268              	.LFB32:
 229:.\stlib\STM32F10x_StdPeriph_Driver\src/stm32f10x_sdio.c **** 
 230:.\stlib\STM32F10x_StdPeriph_Driver\src/stm32f10x_sdio.c **** /**
 231:.\stlib\STM32F10x_StdPeriph_Driver\src/stm32f10x_sdio.c ****   * @brief  Enables or disables the SDIO Clock.
 232:.\stlib\STM32F10x_StdPeriph_Driver\src/stm32f10x_sdio.c ****   * @param  NewState: new state of the SDIO Clock. This parameter can be: ENABLE or DISABLE.
 233:.\stlib\STM32F10x_StdPeriph_Driver\src/stm32f10x_sdio.c ****   * @retval None
 234:.\stlib\STM32F10x_StdPeriph_Driver\src/stm32f10x_sdio.c ****   */
 235:.\stlib\STM32F10x_StdPeriph_Driver\src/stm32f10x_sdio.c **** void SDIO_ClockCmd(FunctionalState NewState)
 236:.\stlib\STM32F10x_StdPeriph_Driver\src/stm32f10x_sdio.c **** {
 269              		.loc 1 236 1 is_stmt 1 view -0
 270              		.cfi_startproc
 271              		@ args = 0, pretend = 0, frame = 0
 272              		@ frame_needed = 0, uses_anonymous_args = 0
 273              		@ link register save eliminated.
 237:.\stlib\STM32F10x_StdPeriph_Driver\src/stm32f10x_sdio.c ****   /* Check the parameters */
 238:.\stlib\STM32F10x_StdPeriph_Driver\src/stm32f10x_sdio.c ****   assert_param(IS_FUNCTIONAL_STATE(NewState));
 274              		.loc 1 238 3 view .LVU54
 239:.\stlib\STM32F10x_StdPeriph_Driver\src/stm32f10x_sdio.c ****   
 240:.\stlib\STM32F10x_StdPeriph_Driver\src/stm32f10x_sdio.c ****   *(__IO uint32_t *) CLKCR_CLKEN_BB = (uint32_t)NewState;
 275              		.loc 1 240 3 view .LVU55
 276              	@ .\stlib\STM32F10x_StdPeriph_Driver\src\stm32f10x_sdio.c:240:   *(__IO uint32_t *) CLKCR_CLKEN_BB 
 277              		.loc 1 240 37 is_stmt 0 view .LVU56
 278 0064 014B     		ldr	r3, .L9	@ tmp112,
 279 0066 1860     		str	r0, [r3]	@ NewState, MEM[(volatile uint32_t *)1110442144B]
 280              	@ .\stlib\STM32F10x_StdPeriph_Driver\src\stm32f10x_sdio.c:241: }
 241:.\stlib\STM32F10x_StdPeriph_Driver\src/stm32f10x_sdio.c **** }
 281              		.loc 1 241 1 view .LVU57
 282 0068 7047     		bx	lr	@
 283              	.L10:
 284 006a 00BF     		.align	2
 285              	.L9:
 286 006c A0003042 		.word	1110442144
 287              		.cfi_endproc
 288              	.LFE32:
 289              		.size	SDIO_ClockCmd, .-SDIO_ClockCmd
 290              		.align	1
 291              		.global	SDIO_SetPowerState
 292              		.syntax unified
 293              		.thumb
 294              		.thumb_func
 295              		.fpu softvfp
 296              		.type	SDIO_SetPowerState, %function
 297              	SDIO_SetPowerState:
 298              	.LVL6:
 299              	.LFB33:
 242:.\stlib\STM32F10x_StdPeriph_Driver\src/stm32f10x_sdio.c **** 
 243:.\stlib\STM32F10x_StdPeriph_Driver\src/stm32f10x_sdio.c **** /**
 244:.\stlib\STM32F10x_StdPeriph_Driver\src/stm32f10x_sdio.c ****   * @brief  Sets the power status of the controller.
 245:.\stlib\STM32F10x_StdPeriph_Driver\src/stm32f10x_sdio.c ****   * @param  SDIO_PowerState: new state of the Power state. 
 246:.\stlib\STM32F10x_StdPeriph_Driver\src/stm32f10x_sdio.c ****   *   This parameter can be one of the following values:
 247:.\stlib\STM32F10x_StdPeriph_Driver\src/stm32f10x_sdio.c ****   *     @arg SDIO_PowerState_OFF
 248:.\stlib\STM32F10x_StdPeriph_Driver\src/stm32f10x_sdio.c ****   *     @arg SDIO_PowerState_ON
 249:.\stlib\STM32F10x_StdPeriph_Driver\src/stm32f10x_sdio.c ****   * @retval None
 250:.\stlib\STM32F10x_StdPeriph_Driver\src/stm32f10x_sdio.c ****   */
 251:.\stlib\STM32F10x_StdPeriph_Driver\src/stm32f10x_sdio.c **** void SDIO_SetPowerState(uint32_t SDIO_PowerState)
 252:.\stlib\STM32F10x_StdPeriph_Driver\src/stm32f10x_sdio.c **** {
ARM GAS  C:\Users\skey\AppData\Local\Temp\ccZCz5DZ.s 			page 11


 300              		.loc 1 252 1 is_stmt 1 view -0
 301              		.cfi_startproc
 302              		@ args = 0, pretend = 0, frame = 0
 303              		@ frame_needed = 0, uses_anonymous_args = 0
 304              		@ link register save eliminated.
 253:.\stlib\STM32F10x_StdPeriph_Driver\src/stm32f10x_sdio.c ****   /* Check the parameters */
 254:.\stlib\STM32F10x_StdPeriph_Driver\src/stm32f10x_sdio.c ****   assert_param(IS_SDIO_POWER_STATE(SDIO_PowerState));
 305              		.loc 1 254 3 view .LVU59
 255:.\stlib\STM32F10x_StdPeriph_Driver\src/stm32f10x_sdio.c ****   
 256:.\stlib\STM32F10x_StdPeriph_Driver\src/stm32f10x_sdio.c ****   SDIO->POWER &= PWR_PWRCTRL_MASK;
 306              		.loc 1 256 3 view .LVU60
 307              	@ .\stlib\STM32F10x_StdPeriph_Driver\src\stm32f10x_sdio.c:256:   SDIO->POWER &= PWR_PWRCTRL_MASK;
 308              		.loc 1 256 15 is_stmt 0 view .LVU61
 309 0070 044B     		ldr	r3, .L12	@ tmp115,
 310 0072 1968     		ldr	r1, [r3]	@ _1, MEM[(struct SDIO_TypeDef *)1073840128B].POWER
 311 0074 21F00301 		bic	r1, r1, #3	@ _2, _1,
 312 0078 1960     		str	r1, [r3]	@ _2, MEM[(struct SDIO_TypeDef *)1073840128B].POWER
 257:.\stlib\STM32F10x_StdPeriph_Driver\src/stm32f10x_sdio.c ****   SDIO->POWER |= SDIO_PowerState;
 313              		.loc 1 257 3 is_stmt 1 view .LVU62
 314              	@ .\stlib\STM32F10x_StdPeriph_Driver\src\stm32f10x_sdio.c:257:   SDIO->POWER |= SDIO_PowerState;
 315              		.loc 1 257 15 is_stmt 0 view .LVU63
 316 007a 1A68     		ldr	r2, [r3]	@ _3, MEM[(struct SDIO_TypeDef *)1073840128B].POWER
 317 007c 0243     		orrs	r2, r2, r0	@, _4, _3, tmp119
 318 007e 1A60     		str	r2, [r3]	@ _4, MEM[(struct SDIO_TypeDef *)1073840128B].POWER
 319              	@ .\stlib\STM32F10x_StdPeriph_Driver\src\stm32f10x_sdio.c:258: }
 258:.\stlib\STM32F10x_StdPeriph_Driver\src/stm32f10x_sdio.c **** }
 320              		.loc 1 258 1 view .LVU64
 321 0080 7047     		bx	lr	@
 322              	.L13:
 323 0082 00BF     		.align	2
 324              	.L12:
 325 0084 00800140 		.word	1073840128
 326              		.cfi_endproc
 327              	.LFE33:
 328              		.size	SDIO_SetPowerState, .-SDIO_SetPowerState
 329              		.align	1
 330              		.global	SDIO_GetPowerState
 331              		.syntax unified
 332              		.thumb
 333              		.thumb_func
 334              		.fpu softvfp
 335              		.type	SDIO_GetPowerState, %function
 336              	SDIO_GetPowerState:
 337              	.LFB34:
 259:.\stlib\STM32F10x_StdPeriph_Driver\src/stm32f10x_sdio.c **** 
 260:.\stlib\STM32F10x_StdPeriph_Driver\src/stm32f10x_sdio.c **** /**
 261:.\stlib\STM32F10x_StdPeriph_Driver\src/stm32f10x_sdio.c ****   * @brief  Gets the power status of the controller.
 262:.\stlib\STM32F10x_StdPeriph_Driver\src/stm32f10x_sdio.c ****   * @param  None
 263:.\stlib\STM32F10x_StdPeriph_Driver\src/stm32f10x_sdio.c ****   * @retval Power status of the controller. The returned value can
 264:.\stlib\STM32F10x_StdPeriph_Driver\src/stm32f10x_sdio.c ****   *   be one of the following:
 265:.\stlib\STM32F10x_StdPeriph_Driver\src/stm32f10x_sdio.c ****   * - 0x00: Power OFF
 266:.\stlib\STM32F10x_StdPeriph_Driver\src/stm32f10x_sdio.c ****   * - 0x02: Power UP
 267:.\stlib\STM32F10x_StdPeriph_Driver\src/stm32f10x_sdio.c ****   * - 0x03: Power ON 
 268:.\stlib\STM32F10x_StdPeriph_Driver\src/stm32f10x_sdio.c ****   */
 269:.\stlib\STM32F10x_StdPeriph_Driver\src/stm32f10x_sdio.c **** uint32_t SDIO_GetPowerState(void)
 270:.\stlib\STM32F10x_StdPeriph_Driver\src/stm32f10x_sdio.c **** {
 338              		.loc 1 270 1 is_stmt 1 view -0
ARM GAS  C:\Users\skey\AppData\Local\Temp\ccZCz5DZ.s 			page 12


 339              		.cfi_startproc
 340              		@ args = 0, pretend = 0, frame = 0
 341              		@ frame_needed = 0, uses_anonymous_args = 0
 342              		@ link register save eliminated.
 271:.\stlib\STM32F10x_StdPeriph_Driver\src/stm32f10x_sdio.c ****   return (SDIO->POWER & (~PWR_PWRCTRL_MASK));
 343              		.loc 1 271 3 view .LVU66
 344              	@ .\stlib\STM32F10x_StdPeriph_Driver\src\stm32f10x_sdio.c:271:   return (SDIO->POWER & (~PWR_PWRCTR
 345              		.loc 1 271 15 is_stmt 0 view .LVU67
 346 0088 024B     		ldr	r3, .L15	@ tmp112,
 347 008a 1868     		ldr	r0, [r3]	@ _1, MEM[(struct SDIO_TypeDef *)1073840128B].POWER
 348              	@ .\stlib\STM32F10x_StdPeriph_Driver\src\stm32f10x_sdio.c:272: }
 272:.\stlib\STM32F10x_StdPeriph_Driver\src/stm32f10x_sdio.c **** }
 349              		.loc 1 272 1 view .LVU68
 350 008c 00F00300 		and	r0, r0, #3	@, _1,
 351 0090 7047     		bx	lr	@
 352              	.L16:
 353 0092 00BF     		.align	2
 354              	.L15:
 355 0094 00800140 		.word	1073840128
 356              		.cfi_endproc
 357              	.LFE34:
 358              		.size	SDIO_GetPowerState, .-SDIO_GetPowerState
 359              		.align	1
 360              		.global	SDIO_ITConfig
 361              		.syntax unified
 362              		.thumb
 363              		.thumb_func
 364              		.fpu softvfp
 365              		.type	SDIO_ITConfig, %function
 366              	SDIO_ITConfig:
 367              	.LVL7:
 368              	.LFB35:
 273:.\stlib\STM32F10x_StdPeriph_Driver\src/stm32f10x_sdio.c **** 
 274:.\stlib\STM32F10x_StdPeriph_Driver\src/stm32f10x_sdio.c **** /**
 275:.\stlib\STM32F10x_StdPeriph_Driver\src/stm32f10x_sdio.c ****   * @brief  Enables or disables the SDIO interrupts.
 276:.\stlib\STM32F10x_StdPeriph_Driver\src/stm32f10x_sdio.c ****   * @param  SDIO_IT: specifies the SDIO interrupt sources to be enabled or disabled.
 277:.\stlib\STM32F10x_StdPeriph_Driver\src/stm32f10x_sdio.c ****   *   This parameter can be one or a combination of the following values:
 278:.\stlib\STM32F10x_StdPeriph_Driver\src/stm32f10x_sdio.c ****   *     @arg SDIO_IT_CCRCFAIL: Command response received (CRC check failed) interrupt
 279:.\stlib\STM32F10x_StdPeriph_Driver\src/stm32f10x_sdio.c ****   *     @arg SDIO_IT_DCRCFAIL: Data block sent/received (CRC check failed) interrupt
 280:.\stlib\STM32F10x_StdPeriph_Driver\src/stm32f10x_sdio.c ****   *     @arg SDIO_IT_CTIMEOUT: Command response timeout interrupt
 281:.\stlib\STM32F10x_StdPeriph_Driver\src/stm32f10x_sdio.c ****   *     @arg SDIO_IT_DTIMEOUT: Data timeout interrupt
 282:.\stlib\STM32F10x_StdPeriph_Driver\src/stm32f10x_sdio.c ****   *     @arg SDIO_IT_TXUNDERR: Transmit FIFO underrun error interrupt
 283:.\stlib\STM32F10x_StdPeriph_Driver\src/stm32f10x_sdio.c ****   *     @arg SDIO_IT_RXOVERR:  Received FIFO overrun error interrupt
 284:.\stlib\STM32F10x_StdPeriph_Driver\src/stm32f10x_sdio.c ****   *     @arg SDIO_IT_CMDREND:  Command response received (CRC check passed) interrupt
 285:.\stlib\STM32F10x_StdPeriph_Driver\src/stm32f10x_sdio.c ****   *     @arg SDIO_IT_CMDSENT:  Command sent (no response required) interrupt
 286:.\stlib\STM32F10x_StdPeriph_Driver\src/stm32f10x_sdio.c ****   *     @arg SDIO_IT_DATAEND:  Data end (data counter, SDIDCOUNT, is zero) interrupt
 287:.\stlib\STM32F10x_StdPeriph_Driver\src/stm32f10x_sdio.c ****   *     @arg SDIO_IT_STBITERR: Start bit not detected on all data signals in wide 
 288:.\stlib\STM32F10x_StdPeriph_Driver\src/stm32f10x_sdio.c ****   *                            bus mode interrupt
 289:.\stlib\STM32F10x_StdPeriph_Driver\src/stm32f10x_sdio.c ****   *     @arg SDIO_IT_DBCKEND:  Data block sent/received (CRC check passed) interrupt
 290:.\stlib\STM32F10x_StdPeriph_Driver\src/stm32f10x_sdio.c ****   *     @arg SDIO_IT_CMDACT:   Command transfer in progress interrupt
 291:.\stlib\STM32F10x_StdPeriph_Driver\src/stm32f10x_sdio.c ****   *     @arg SDIO_IT_TXACT:    Data transmit in progress interrupt
 292:.\stlib\STM32F10x_StdPeriph_Driver\src/stm32f10x_sdio.c ****   *     @arg SDIO_IT_RXACT:    Data receive in progress interrupt
 293:.\stlib\STM32F10x_StdPeriph_Driver\src/stm32f10x_sdio.c ****   *     @arg SDIO_IT_TXFIFOHE: Transmit FIFO Half Empty interrupt
 294:.\stlib\STM32F10x_StdPeriph_Driver\src/stm32f10x_sdio.c ****   *     @arg SDIO_IT_RXFIFOHF: Receive FIFO Half Full interrupt
 295:.\stlib\STM32F10x_StdPeriph_Driver\src/stm32f10x_sdio.c ****   *     @arg SDIO_IT_TXFIFOF:  Transmit FIFO full interrupt
 296:.\stlib\STM32F10x_StdPeriph_Driver\src/stm32f10x_sdio.c ****   *     @arg SDIO_IT_RXFIFOF:  Receive FIFO full interrupt
 297:.\stlib\STM32F10x_StdPeriph_Driver\src/stm32f10x_sdio.c ****   *     @arg SDIO_IT_TXFIFOE:  Transmit FIFO empty interrupt
ARM GAS  C:\Users\skey\AppData\Local\Temp\ccZCz5DZ.s 			page 13


 298:.\stlib\STM32F10x_StdPeriph_Driver\src/stm32f10x_sdio.c ****   *     @arg SDIO_IT_RXFIFOE:  Receive FIFO empty interrupt
 299:.\stlib\STM32F10x_StdPeriph_Driver\src/stm32f10x_sdio.c ****   *     @arg SDIO_IT_TXDAVL:   Data available in transmit FIFO interrupt
 300:.\stlib\STM32F10x_StdPeriph_Driver\src/stm32f10x_sdio.c ****   *     @arg SDIO_IT_RXDAVL:   Data available in receive FIFO interrupt
 301:.\stlib\STM32F10x_StdPeriph_Driver\src/stm32f10x_sdio.c ****   *     @arg SDIO_IT_SDIOIT:   SD I/O interrupt received interrupt
 302:.\stlib\STM32F10x_StdPeriph_Driver\src/stm32f10x_sdio.c ****   *     @arg SDIO_IT_CEATAEND: CE-ATA command completion signal received for CMD61 interrupt
 303:.\stlib\STM32F10x_StdPeriph_Driver\src/stm32f10x_sdio.c ****   * @param  NewState: new state of the specified SDIO interrupts.
 304:.\stlib\STM32F10x_StdPeriph_Driver\src/stm32f10x_sdio.c ****   *   This parameter can be: ENABLE or DISABLE.
 305:.\stlib\STM32F10x_StdPeriph_Driver\src/stm32f10x_sdio.c ****   * @retval None 
 306:.\stlib\STM32F10x_StdPeriph_Driver\src/stm32f10x_sdio.c ****   */
 307:.\stlib\STM32F10x_StdPeriph_Driver\src/stm32f10x_sdio.c **** void SDIO_ITConfig(uint32_t SDIO_IT, FunctionalState NewState)
 308:.\stlib\STM32F10x_StdPeriph_Driver\src/stm32f10x_sdio.c **** {
 369              		.loc 1 308 1 is_stmt 1 view -0
 370              		.cfi_startproc
 371              		@ args = 0, pretend = 0, frame = 0
 372              		@ frame_needed = 0, uses_anonymous_args = 0
 373              		@ link register save eliminated.
 309:.\stlib\STM32F10x_StdPeriph_Driver\src/stm32f10x_sdio.c ****   /* Check the parameters */
 310:.\stlib\STM32F10x_StdPeriph_Driver\src/stm32f10x_sdio.c ****   assert_param(IS_SDIO_IT(SDIO_IT));
 374              		.loc 1 310 3 view .LVU70
 311:.\stlib\STM32F10x_StdPeriph_Driver\src/stm32f10x_sdio.c ****   assert_param(IS_FUNCTIONAL_STATE(NewState));
 375              		.loc 1 311 3 view .LVU71
 312:.\stlib\STM32F10x_StdPeriph_Driver\src/stm32f10x_sdio.c ****   
 313:.\stlib\STM32F10x_StdPeriph_Driver\src/stm32f10x_sdio.c ****   if (NewState != DISABLE)
 376              		.loc 1 313 3 view .LVU72
 377 0098 044B     		ldr	r3, .L21	@ tmp122,
 378              	@ .\stlib\STM32F10x_StdPeriph_Driver\src\stm32f10x_sdio.c:316:     SDIO->MASK |= SDIO_IT;
 314:.\stlib\STM32F10x_StdPeriph_Driver\src/stm32f10x_sdio.c ****   {
 315:.\stlib\STM32F10x_StdPeriph_Driver\src/stm32f10x_sdio.c ****     /* Enable the SDIO interrupts */
 316:.\stlib\STM32F10x_StdPeriph_Driver\src/stm32f10x_sdio.c ****     SDIO->MASK |= SDIO_IT;
 379              		.loc 1 316 16 is_stmt 0 view .LVU73
 380 009a DA6B     		ldr	r2, [r3, #60]	@ _1,
 381              	@ .\stlib\STM32F10x_StdPeriph_Driver\src\stm32f10x_sdio.c:313:   if (NewState != DISABLE)
 313:.\stlib\STM32F10x_StdPeriph_Driver\src/stm32f10x_sdio.c ****   {
 382              		.loc 1 313 6 view .LVU74
 383 009c 11B1     		cbz	r1, .L18	@ tmp124,
 384              		.loc 1 316 5 is_stmt 1 view .LVU75
 385              	@ .\stlib\STM32F10x_StdPeriph_Driver\src\stm32f10x_sdio.c:316:     SDIO->MASK |= SDIO_IT;
 386              		.loc 1 316 16 is_stmt 0 view .LVU76
 387 009e 1043     		orrs	r0, r0, r2	@, _2, SDIO_IT, _1
 388              	.LVL8:
 389              	.L20:
 390              	@ .\stlib\STM32F10x_StdPeriph_Driver\src\stm32f10x_sdio.c:321:     SDIO->MASK &= ~SDIO_IT;
 317:.\stlib\STM32F10x_StdPeriph_Driver\src/stm32f10x_sdio.c ****   }
 318:.\stlib\STM32F10x_StdPeriph_Driver\src/stm32f10x_sdio.c ****   else
 319:.\stlib\STM32F10x_StdPeriph_Driver\src/stm32f10x_sdio.c ****   {
 320:.\stlib\STM32F10x_StdPeriph_Driver\src/stm32f10x_sdio.c ****     /* Disable the SDIO interrupts */
 321:.\stlib\STM32F10x_StdPeriph_Driver\src/stm32f10x_sdio.c ****     SDIO->MASK &= ~SDIO_IT;
 391              		.loc 1 321 16 view .LVU77
 392 00a0 D863     		str	r0, [r3, #60]	@ _5,
 393              	@ .\stlib\STM32F10x_StdPeriph_Driver\src\stm32f10x_sdio.c:323: }
 322:.\stlib\STM32F10x_StdPeriph_Driver\src/stm32f10x_sdio.c ****   } 
 323:.\stlib\STM32F10x_StdPeriph_Driver\src/stm32f10x_sdio.c **** }
 394              		.loc 1 323 1 view .LVU78
 395 00a2 7047     		bx	lr	@
 396              	.LVL9:
 397              	.L18:
 321:.\stlib\STM32F10x_StdPeriph_Driver\src/stm32f10x_sdio.c ****   } 
ARM GAS  C:\Users\skey\AppData\Local\Temp\ccZCz5DZ.s 			page 14


 398              		.loc 1 321 5 is_stmt 1 view .LVU79
 399              	@ .\stlib\STM32F10x_StdPeriph_Driver\src\stm32f10x_sdio.c:321:     SDIO->MASK &= ~SDIO_IT;
 321:.\stlib\STM32F10x_StdPeriph_Driver\src/stm32f10x_sdio.c ****   } 
 400              		.loc 1 321 16 is_stmt 0 view .LVU80
 401 00a4 22EA0000 		bic	r0, r2, r0	@ _5, _3, SDIO_IT
 402              	.LVL10:
 321:.\stlib\STM32F10x_StdPeriph_Driver\src/stm32f10x_sdio.c ****   } 
 403              		.loc 1 321 16 view .LVU81
 404 00a8 FAE7     		b	.L20		@
 405              	.L22:
 406 00aa 00BF     		.align	2
 407              	.L21:
 408 00ac 00800140 		.word	1073840128
 409              		.cfi_endproc
 410              	.LFE35:
 411              		.size	SDIO_ITConfig, .-SDIO_ITConfig
 412              		.align	1
 413              		.global	SDIO_DMACmd
 414              		.syntax unified
 415              		.thumb
 416              		.thumb_func
 417              		.fpu softvfp
 418              		.type	SDIO_DMACmd, %function
 419              	SDIO_DMACmd:
 420              	.LVL11:
 421              	.LFB36:
 324:.\stlib\STM32F10x_StdPeriph_Driver\src/stm32f10x_sdio.c **** 
 325:.\stlib\STM32F10x_StdPeriph_Driver\src/stm32f10x_sdio.c **** /**
 326:.\stlib\STM32F10x_StdPeriph_Driver\src/stm32f10x_sdio.c ****   * @brief  Enables or disables the SDIO DMA request.
 327:.\stlib\STM32F10x_StdPeriph_Driver\src/stm32f10x_sdio.c ****   * @param  NewState: new state of the selected SDIO DMA request.
 328:.\stlib\STM32F10x_StdPeriph_Driver\src/stm32f10x_sdio.c ****   *   This parameter can be: ENABLE or DISABLE.
 329:.\stlib\STM32F10x_StdPeriph_Driver\src/stm32f10x_sdio.c ****   * @retval None
 330:.\stlib\STM32F10x_StdPeriph_Driver\src/stm32f10x_sdio.c ****   */
 331:.\stlib\STM32F10x_StdPeriph_Driver\src/stm32f10x_sdio.c **** void SDIO_DMACmd(FunctionalState NewState)
 332:.\stlib\STM32F10x_StdPeriph_Driver\src/stm32f10x_sdio.c **** {
 422              		.loc 1 332 1 is_stmt 1 view -0
 423              		.cfi_startproc
 424              		@ args = 0, pretend = 0, frame = 0
 425              		@ frame_needed = 0, uses_anonymous_args = 0
 426              		@ link register save eliminated.
 333:.\stlib\STM32F10x_StdPeriph_Driver\src/stm32f10x_sdio.c ****   /* Check the parameters */
 334:.\stlib\STM32F10x_StdPeriph_Driver\src/stm32f10x_sdio.c ****   assert_param(IS_FUNCTIONAL_STATE(NewState));
 427              		.loc 1 334 3 view .LVU83
 335:.\stlib\STM32F10x_StdPeriph_Driver\src/stm32f10x_sdio.c ****   
 336:.\stlib\STM32F10x_StdPeriph_Driver\src/stm32f10x_sdio.c ****   *(__IO uint32_t *) DCTRL_DMAEN_BB = (uint32_t)NewState;
 428              		.loc 1 336 3 view .LVU84
 429              	@ .\stlib\STM32F10x_StdPeriph_Driver\src\stm32f10x_sdio.c:336:   *(__IO uint32_t *) DCTRL_DMAEN_BB 
 430              		.loc 1 336 37 is_stmt 0 view .LVU85
 431 00b0 014B     		ldr	r3, .L24	@ tmp112,
 432 00b2 1860     		str	r0, [r3]	@ NewState, MEM[(volatile uint32_t *)1110443404B]
 433              	@ .\stlib\STM32F10x_StdPeriph_Driver\src\stm32f10x_sdio.c:337: }
 337:.\stlib\STM32F10x_StdPeriph_Driver\src/stm32f10x_sdio.c **** }
 434              		.loc 1 337 1 view .LVU86
 435 00b4 7047     		bx	lr	@
 436              	.L25:
 437 00b6 00BF     		.align	2
 438              	.L24:
ARM GAS  C:\Users\skey\AppData\Local\Temp\ccZCz5DZ.s 			page 15


 439 00b8 8C053042 		.word	1110443404
 440              		.cfi_endproc
 441              	.LFE36:
 442              		.size	SDIO_DMACmd, .-SDIO_DMACmd
 443              		.align	1
 444              		.global	SDIO_SendCommand
 445              		.syntax unified
 446              		.thumb
 447              		.thumb_func
 448              		.fpu softvfp
 449              		.type	SDIO_SendCommand, %function
 450              	SDIO_SendCommand:
 451              	.LVL12:
 452              	.LFB37:
 338:.\stlib\STM32F10x_StdPeriph_Driver\src/stm32f10x_sdio.c **** 
 339:.\stlib\STM32F10x_StdPeriph_Driver\src/stm32f10x_sdio.c **** /**
 340:.\stlib\STM32F10x_StdPeriph_Driver\src/stm32f10x_sdio.c ****   * @brief  Initializes the SDIO Command according to the specified 
 341:.\stlib\STM32F10x_StdPeriph_Driver\src/stm32f10x_sdio.c ****   *         parameters in the SDIO_CmdInitStruct and send the command.
 342:.\stlib\STM32F10x_StdPeriph_Driver\src/stm32f10x_sdio.c ****   * @param  SDIO_CmdInitStruct : pointer to a SDIO_CmdInitTypeDef 
 343:.\stlib\STM32F10x_StdPeriph_Driver\src/stm32f10x_sdio.c ****   *         structure that contains the configuration information for the SDIO command.
 344:.\stlib\STM32F10x_StdPeriph_Driver\src/stm32f10x_sdio.c ****   * @retval None
 345:.\stlib\STM32F10x_StdPeriph_Driver\src/stm32f10x_sdio.c ****   */
 346:.\stlib\STM32F10x_StdPeriph_Driver\src/stm32f10x_sdio.c **** void SDIO_SendCommand(SDIO_CmdInitTypeDef *SDIO_CmdInitStruct)
 347:.\stlib\STM32F10x_StdPeriph_Driver\src/stm32f10x_sdio.c **** {
 453              		.loc 1 347 1 is_stmt 1 view -0
 454              		.cfi_startproc
 455              		@ args = 0, pretend = 0, frame = 0
 456              		@ frame_needed = 0, uses_anonymous_args = 0
 348:.\stlib\STM32F10x_StdPeriph_Driver\src/stm32f10x_sdio.c ****   uint32_t tmpreg = 0;
 457              		.loc 1 348 3 view .LVU88
 349:.\stlib\STM32F10x_StdPeriph_Driver\src/stm32f10x_sdio.c ****   
 350:.\stlib\STM32F10x_StdPeriph_Driver\src/stm32f10x_sdio.c ****   /* Check the parameters */
 351:.\stlib\STM32F10x_StdPeriph_Driver\src/stm32f10x_sdio.c ****   assert_param(IS_SDIO_CMD_INDEX(SDIO_CmdInitStruct->SDIO_CmdIndex));
 458              		.loc 1 351 3 view .LVU89
 352:.\stlib\STM32F10x_StdPeriph_Driver\src/stm32f10x_sdio.c ****   assert_param(IS_SDIO_RESPONSE(SDIO_CmdInitStruct->SDIO_Response));
 459              		.loc 1 352 3 view .LVU90
 353:.\stlib\STM32F10x_StdPeriph_Driver\src/stm32f10x_sdio.c ****   assert_param(IS_SDIO_WAIT(SDIO_CmdInitStruct->SDIO_Wait));
 460              		.loc 1 353 3 view .LVU91
 354:.\stlib\STM32F10x_StdPeriph_Driver\src/stm32f10x_sdio.c ****   assert_param(IS_SDIO_CPSM(SDIO_CmdInitStruct->SDIO_CPSM));
 461              		.loc 1 354 3 view .LVU92
 355:.\stlib\STM32F10x_StdPeriph_Driver\src/stm32f10x_sdio.c ****   
 356:.\stlib\STM32F10x_StdPeriph_Driver\src/stm32f10x_sdio.c **** /*---------------------------- SDIO ARG Configuration ------------------------*/
 357:.\stlib\STM32F10x_StdPeriph_Driver\src/stm32f10x_sdio.c ****   /* Set the SDIO Argument value */
 358:.\stlib\STM32F10x_StdPeriph_Driver\src/stm32f10x_sdio.c ****   SDIO->ARG = SDIO_CmdInitStruct->SDIO_Argument;
 462              		.loc 1 358 3 view .LVU93
 463              	@ .\stlib\STM32F10x_StdPeriph_Driver\src\stm32f10x_sdio.c:358:   SDIO->ARG = SDIO_CmdInitStruct->SD
 464              		.loc 1 358 33 is_stmt 0 view .LVU94
 465 00bc 0368     		ldr	r3, [r0]	@ _1, SDIO_CmdInitStruct_10(D)->SDIO_Argument
 466              	@ .\stlib\STM32F10x_StdPeriph_Driver\src\stm32f10x_sdio.c:358:   SDIO->ARG = SDIO_CmdInitStruct->SD
 467              		.loc 1 358 13 view .LVU95
 468 00be 0949     		ldr	r1, .L27	@ tmp122,
 469              	@ .\stlib\STM32F10x_StdPeriph_Driver\src\stm32f10x_sdio.c:347: {
 347:.\stlib\STM32F10x_StdPeriph_Driver\src/stm32f10x_sdio.c ****   uint32_t tmpreg = 0;
 470              		.loc 1 347 1 view .LVU96
 471 00c0 10B5     		push	{r4, lr}	@
 472              	.LCFI1:
 473              		.cfi_def_cfa_offset 8
ARM GAS  C:\Users\skey\AppData\Local\Temp\ccZCz5DZ.s 			page 16


 474              		.cfi_offset 4, -8
 475              		.cfi_offset 14, -4
 476              	@ .\stlib\STM32F10x_StdPeriph_Driver\src\stm32f10x_sdio.c:358:   SDIO->ARG = SDIO_CmdInitStruct->SD
 477              		.loc 1 358 13 view .LVU97
 478 00c2 8B60     		str	r3, [r1, #8]	@ _1, MEM[(struct SDIO_TypeDef *)1073840128B].ARG
 359:.\stlib\STM32F10x_StdPeriph_Driver\src/stm32f10x_sdio.c ****   
 360:.\stlib\STM32F10x_StdPeriph_Driver\src/stm32f10x_sdio.c **** /*---------------------------- SDIO CMD Configuration ------------------------*/  
 361:.\stlib\STM32F10x_StdPeriph_Driver\src/stm32f10x_sdio.c ****   /* Get the SDIO CMD value */
 362:.\stlib\STM32F10x_StdPeriph_Driver\src/stm32f10x_sdio.c ****   tmpreg = SDIO->CMD;
 479              		.loc 1 362 3 is_stmt 1 view .LVU98
 480              	@ .\stlib\STM32F10x_StdPeriph_Driver\src\stm32f10x_sdio.c:362:   tmpreg = SDIO->CMD;
 481              		.loc 1 362 10 is_stmt 0 view .LVU99
 482 00c4 CA68     		ldr	r2, [r1, #12]	@ tmpreg, MEM[(struct SDIO_TypeDef *)1073840128B].CMD
 483              	.LVL13:
 363:.\stlib\STM32F10x_StdPeriph_Driver\src/stm32f10x_sdio.c ****   /* Clear CMDINDEX, WAITRESP, WAITINT, WAITPEND, CPSMEN bits */
 364:.\stlib\STM32F10x_StdPeriph_Driver\src/stm32f10x_sdio.c ****   tmpreg &= CMD_CLEAR_MASK;
 484              		.loc 1 364 3 is_stmt 1 view .LVU100
 365:.\stlib\STM32F10x_StdPeriph_Driver\src/stm32f10x_sdio.c ****   /* Set CMDINDEX bits according to SDIO_CmdIndex value */
 366:.\stlib\STM32F10x_StdPeriph_Driver\src/stm32f10x_sdio.c ****   /* Set WAITRESP bits according to SDIO_Response value */
 367:.\stlib\STM32F10x_StdPeriph_Driver\src/stm32f10x_sdio.c ****   /* Set WAITINT and WAITPEND bits according to SDIO_Wait value */
 368:.\stlib\STM32F10x_StdPeriph_Driver\src/stm32f10x_sdio.c ****   /* Set CPSMEN bits according to SDIO_CPSM value */
 369:.\stlib\STM32F10x_StdPeriph_Driver\src/stm32f10x_sdio.c ****   tmpreg |= (uint32_t)SDIO_CmdInitStruct->SDIO_CmdIndex | SDIO_CmdInitStruct->SDIO_Response
 485              		.loc 1 369 3 view .LVU101
 486              	@ .\stlib\STM32F10x_StdPeriph_Driver\src\stm32f10x_sdio.c:369:   tmpreg |= (uint32_t)SDIO_CmdInitSt
 487              		.loc 1 369 57 is_stmt 0 view .LVU102
 488 00c6 D0E90134 		ldrd	r3, r4, [r0, #4]	@ SDIO_CmdInitStruct_10(D)->SDIO_CmdIndex, SDIO_CmdInitStruct_10(D)->SDIO_Re
 489              	@ .\stlib\STM32F10x_StdPeriph_Driver\src\stm32f10x_sdio.c:364:   tmpreg &= CMD_CLEAR_MASK;
 364:.\stlib\STM32F10x_StdPeriph_Driver\src/stm32f10x_sdio.c ****   /* Set CMDINDEX bits according to SDIO_CmdIndex value */
 490              		.loc 1 364 10 view .LVU103
 491 00ca 22F4FF62 		bic	r2, r2, #2040	@ tmpreg, tmpreg,
 492              	.LVL14:
 364:.\stlib\STM32F10x_StdPeriph_Driver\src/stm32f10x_sdio.c ****   /* Set CMDINDEX bits according to SDIO_CmdIndex value */
 493              		.loc 1 364 10 view .LVU104
 494 00ce 22F00702 		bic	r2, r2, #7	@ tmpreg, tmpreg,
 495              	@ .\stlib\STM32F10x_StdPeriph_Driver\src\stm32f10x_sdio.c:369:   tmpreg |= (uint32_t)SDIO_CmdInitSt
 496              		.loc 1 369 57 view .LVU105
 497 00d2 2343     		orrs	r3, r3, r4	@, tmp124, SDIO_CmdInitStruct_10(D)->SDIO_CmdIndex, SDIO_CmdInitStruct_10(D)->SDIO
 498 00d4 1343     		orrs	r3, r3, r2	@, tmp129, tmp124, tmpreg
 499 00d6 C268     		ldr	r2, [r0, #12]	@ SDIO_CmdInitStruct_10(D)->SDIO_Wait, SDIO_CmdInitStruct_10(D)->SDIO_Wait
 500 00d8 1343     		orrs	r3, r3, r2	@, _17, tmp129, SDIO_CmdInitStruct_10(D)->SDIO_Wait
 501              	@ .\stlib\STM32F10x_StdPeriph_Driver\src\stm32f10x_sdio.c:369:   tmpreg |= (uint32_t)SDIO_CmdInitSt
 502              		.loc 1 369 10 view .LVU106
 503 00da 0269     		ldr	r2, [r0, #16]	@ SDIO_CmdInitStruct_10(D)->SDIO_CPSM, SDIO_CmdInitStruct_10(D)->SDIO_CPSM
 504 00dc 1343     		orrs	r3, r3, r2	@, tmpreg, _17, SDIO_CmdInitStruct_10(D)->SDIO_CPSM
 505              	.LVL15:
 370:.\stlib\STM32F10x_StdPeriph_Driver\src/stm32f10x_sdio.c ****            | SDIO_CmdInitStruct->SDIO_Wait | SDIO_CmdInitStruct->SDIO_CPSM;
 371:.\stlib\STM32F10x_StdPeriph_Driver\src/stm32f10x_sdio.c ****   
 372:.\stlib\STM32F10x_StdPeriph_Driver\src/stm32f10x_sdio.c ****   /* Write to SDIO CMD */
 373:.\stlib\STM32F10x_StdPeriph_Driver\src/stm32f10x_sdio.c ****   SDIO->CMD = tmpreg;
 506              		.loc 1 373 3 is_stmt 1 view .LVU107
 507              	@ .\stlib\STM32F10x_StdPeriph_Driver\src\stm32f10x_sdio.c:373:   SDIO->CMD = tmpreg;
 508              		.loc 1 373 13 is_stmt 0 view .LVU108
 509 00de CB60     		str	r3, [r1, #12]	@ tmpreg, MEM[(struct SDIO_TypeDef *)1073840128B].CMD
 510              	@ .\stlib\STM32F10x_StdPeriph_Driver\src\stm32f10x_sdio.c:374: }
 374:.\stlib\STM32F10x_StdPeriph_Driver\src/stm32f10x_sdio.c **** }
 511              		.loc 1 374 1 view .LVU109
 512 00e0 10BD     		pop	{r4, pc}	@
ARM GAS  C:\Users\skey\AppData\Local\Temp\ccZCz5DZ.s 			page 17


 513              	.L28:
 514 00e2 00BF     		.align	2
 515              	.L27:
 516 00e4 00800140 		.word	1073840128
 517              		.cfi_endproc
 518              	.LFE37:
 519              		.size	SDIO_SendCommand, .-SDIO_SendCommand
 520              		.align	1
 521              		.global	SDIO_CmdStructInit
 522              		.syntax unified
 523              		.thumb
 524              		.thumb_func
 525              		.fpu softvfp
 526              		.type	SDIO_CmdStructInit, %function
 527              	SDIO_CmdStructInit:
 528              	.LVL16:
 529              	.LFB38:
 375:.\stlib\STM32F10x_StdPeriph_Driver\src/stm32f10x_sdio.c **** 
 376:.\stlib\STM32F10x_StdPeriph_Driver\src/stm32f10x_sdio.c **** /**
 377:.\stlib\STM32F10x_StdPeriph_Driver\src/stm32f10x_sdio.c ****   * @brief  Fills each SDIO_CmdInitStruct member with its default value.
 378:.\stlib\STM32F10x_StdPeriph_Driver\src/stm32f10x_sdio.c ****   * @param  SDIO_CmdInitStruct: pointer to an SDIO_CmdInitTypeDef 
 379:.\stlib\STM32F10x_StdPeriph_Driver\src/stm32f10x_sdio.c ****   *         structure which will be initialized.
 380:.\stlib\STM32F10x_StdPeriph_Driver\src/stm32f10x_sdio.c ****   * @retval None
 381:.\stlib\STM32F10x_StdPeriph_Driver\src/stm32f10x_sdio.c ****   */
 382:.\stlib\STM32F10x_StdPeriph_Driver\src/stm32f10x_sdio.c **** void SDIO_CmdStructInit(SDIO_CmdInitTypeDef* SDIO_CmdInitStruct)
 383:.\stlib\STM32F10x_StdPeriph_Driver\src/stm32f10x_sdio.c **** {
 530              		.loc 1 383 1 is_stmt 1 view -0
 531              		.cfi_startproc
 532              		@ args = 0, pretend = 0, frame = 0
 533              		@ frame_needed = 0, uses_anonymous_args = 0
 534              		@ link register save eliminated.
 384:.\stlib\STM32F10x_StdPeriph_Driver\src/stm32f10x_sdio.c ****   /* SDIO_CmdInitStruct members default value */
 385:.\stlib\STM32F10x_StdPeriph_Driver\src/stm32f10x_sdio.c ****   SDIO_CmdInitStruct->SDIO_Argument = 0x00;
 535              		.loc 1 385 3 view .LVU111
 536              	@ .\stlib\STM32F10x_StdPeriph_Driver\src\stm32f10x_sdio.c:385:   SDIO_CmdInitStruct->SDIO_Argument 
 537              		.loc 1 385 37 is_stmt 0 view .LVU112
 538 00e8 0023     		movs	r3, #0	@ tmp111,
 539              	@ .\stlib\STM32F10x_StdPeriph_Driver\src\stm32f10x_sdio.c:386:   SDIO_CmdInitStruct->SDIO_CmdIndex 
 386:.\stlib\STM32F10x_StdPeriph_Driver\src/stm32f10x_sdio.c ****   SDIO_CmdInitStruct->SDIO_CmdIndex = 0x00;
 540              		.loc 1 386 37 view .LVU113
 541 00ea C0E90033 		strd	r3, r3, [r0]	@ tmp111, tmp111, SDIO_CmdInitStruct
 387:.\stlib\STM32F10x_StdPeriph_Driver\src/stm32f10x_sdio.c ****   SDIO_CmdInitStruct->SDIO_Response = SDIO_Response_No;
 542              		.loc 1 387 3 is_stmt 1 view .LVU114
 543              	@ .\stlib\STM32F10x_StdPeriph_Driver\src\stm32f10x_sdio.c:388:   SDIO_CmdInitStruct->SDIO_Wait = SD
 388:.\stlib\STM32F10x_StdPeriph_Driver\src/stm32f10x_sdio.c ****   SDIO_CmdInitStruct->SDIO_Wait = SDIO_Wait_No;
 544              		.loc 1 388 33 is_stmt 0 view .LVU115
 545 00ee C0E90233 		strd	r3, r3, [r0, #8]	@ tmp111, tmp111, SDIO_CmdInitStruct,
 389:.\stlib\STM32F10x_StdPeriph_Driver\src/stm32f10x_sdio.c ****   SDIO_CmdInitStruct->SDIO_CPSM = SDIO_CPSM_Disable;
 546              		.loc 1 389 3 is_stmt 1 view .LVU116
 547              	@ .\stlib\STM32F10x_StdPeriph_Driver\src\stm32f10x_sdio.c:389:   SDIO_CmdInitStruct->SDIO_CPSM = SD
 548              		.loc 1 389 33 is_stmt 0 view .LVU117
 549 00f2 0361     		str	r3, [r0, #16]	@ tmp111, SDIO_CmdInitStruct_2(D)->SDIO_CPSM
 550              	@ .\stlib\STM32F10x_StdPeriph_Driver\src\stm32f10x_sdio.c:390: }
 390:.\stlib\STM32F10x_StdPeriph_Driver\src/stm32f10x_sdio.c **** }
 551              		.loc 1 390 1 view .LVU118
 552 00f4 7047     		bx	lr	@
 553              		.cfi_endproc
ARM GAS  C:\Users\skey\AppData\Local\Temp\ccZCz5DZ.s 			page 18


 554              	.LFE38:
 555              		.size	SDIO_CmdStructInit, .-SDIO_CmdStructInit
 556              		.align	1
 557              		.global	SDIO_GetCommandResponse
 558              		.syntax unified
 559              		.thumb
 560              		.thumb_func
 561              		.fpu softvfp
 562              		.type	SDIO_GetCommandResponse, %function
 563              	SDIO_GetCommandResponse:
 564              	.LFB39:
 391:.\stlib\STM32F10x_StdPeriph_Driver\src/stm32f10x_sdio.c **** 
 392:.\stlib\STM32F10x_StdPeriph_Driver\src/stm32f10x_sdio.c **** /**
 393:.\stlib\STM32F10x_StdPeriph_Driver\src/stm32f10x_sdio.c ****   * @brief  Returns command index of last command for which response received.
 394:.\stlib\STM32F10x_StdPeriph_Driver\src/stm32f10x_sdio.c ****   * @param  None
 395:.\stlib\STM32F10x_StdPeriph_Driver\src/stm32f10x_sdio.c ****   * @retval Returns the command index of the last command response received.
 396:.\stlib\STM32F10x_StdPeriph_Driver\src/stm32f10x_sdio.c ****   */
 397:.\stlib\STM32F10x_StdPeriph_Driver\src/stm32f10x_sdio.c **** uint8_t SDIO_GetCommandResponse(void)
 398:.\stlib\STM32F10x_StdPeriph_Driver\src/stm32f10x_sdio.c **** {
 565              		.loc 1 398 1 is_stmt 1 view -0
 566              		.cfi_startproc
 567              		@ args = 0, pretend = 0, frame = 0
 568              		@ frame_needed = 0, uses_anonymous_args = 0
 569              		@ link register save eliminated.
 399:.\stlib\STM32F10x_StdPeriph_Driver\src/stm32f10x_sdio.c ****   return (uint8_t)(SDIO->RESPCMD);
 570              		.loc 1 399 3 view .LVU120
 571              	@ .\stlib\STM32F10x_StdPeriph_Driver\src\stm32f10x_sdio.c:399:   return (uint8_t)(SDIO->RESPCMD);
 572              		.loc 1 399 24 is_stmt 0 view .LVU121
 573 00f6 024B     		ldr	r3, .L31	@ tmp112,
 574 00f8 1869     		ldr	r0, [r3, #16]	@ _1, MEM[(struct SDIO_TypeDef *)1073840128B].RESPCMD
 575              	@ .\stlib\STM32F10x_StdPeriph_Driver\src\stm32f10x_sdio.c:400: }
 400:.\stlib\STM32F10x_StdPeriph_Driver\src/stm32f10x_sdio.c **** }
 576              		.loc 1 400 1 view .LVU122
 577 00fa C0B2     		uxtb	r0, r0	@, _1
 578 00fc 7047     		bx	lr	@
 579              	.L32:
 580 00fe 00BF     		.align	2
 581              	.L31:
 582 0100 00800140 		.word	1073840128
 583              		.cfi_endproc
 584              	.LFE39:
 585              		.size	SDIO_GetCommandResponse, .-SDIO_GetCommandResponse
 586              		.align	1
 587              		.global	SDIO_GetResponse
 588              		.syntax unified
 589              		.thumb
 590              		.thumb_func
 591              		.fpu softvfp
 592              		.type	SDIO_GetResponse, %function
 593              	SDIO_GetResponse:
 594              	.LVL17:
 595              	.LFB40:
 401:.\stlib\STM32F10x_StdPeriph_Driver\src/stm32f10x_sdio.c **** 
 402:.\stlib\STM32F10x_StdPeriph_Driver\src/stm32f10x_sdio.c **** /**
 403:.\stlib\STM32F10x_StdPeriph_Driver\src/stm32f10x_sdio.c ****   * @brief  Returns response received from the card for the last command.
 404:.\stlib\STM32F10x_StdPeriph_Driver\src/stm32f10x_sdio.c ****   * @param  SDIO_RESP: Specifies the SDIO response register. 
 405:.\stlib\STM32F10x_StdPeriph_Driver\src/stm32f10x_sdio.c ****   *   This parameter can be one of the following values:
ARM GAS  C:\Users\skey\AppData\Local\Temp\ccZCz5DZ.s 			page 19


 406:.\stlib\STM32F10x_StdPeriph_Driver\src/stm32f10x_sdio.c ****   *     @arg SDIO_RESP1: Response Register 1
 407:.\stlib\STM32F10x_StdPeriph_Driver\src/stm32f10x_sdio.c ****   *     @arg SDIO_RESP2: Response Register 2
 408:.\stlib\STM32F10x_StdPeriph_Driver\src/stm32f10x_sdio.c ****   *     @arg SDIO_RESP3: Response Register 3
 409:.\stlib\STM32F10x_StdPeriph_Driver\src/stm32f10x_sdio.c ****   *     @arg SDIO_RESP4: Response Register 4
 410:.\stlib\STM32F10x_StdPeriph_Driver\src/stm32f10x_sdio.c ****   * @retval The Corresponding response register value.
 411:.\stlib\STM32F10x_StdPeriph_Driver\src/stm32f10x_sdio.c ****   */
 412:.\stlib\STM32F10x_StdPeriph_Driver\src/stm32f10x_sdio.c **** uint32_t SDIO_GetResponse(uint32_t SDIO_RESP)
 413:.\stlib\STM32F10x_StdPeriph_Driver\src/stm32f10x_sdio.c **** {
 596              		.loc 1 413 1 is_stmt 1 view -0
 597              		.cfi_startproc
 598              		@ args = 0, pretend = 0, frame = 8
 599              		@ frame_needed = 0, uses_anonymous_args = 0
 600              		@ link register save eliminated.
 414:.\stlib\STM32F10x_StdPeriph_Driver\src/stm32f10x_sdio.c ****   __IO uint32_t tmp = 0;
 601              		.loc 1 414 3 view .LVU124
 602              	@ .\stlib\STM32F10x_StdPeriph_Driver\src\stm32f10x_sdio.c:414:   __IO uint32_t tmp = 0;
 603              		.loc 1 414 17 is_stmt 0 view .LVU125
 604 0104 0023     		movs	r3, #0	@ tmp115,
 605              	@ .\stlib\STM32F10x_StdPeriph_Driver\src\stm32f10x_sdio.c:413: {
 413:.\stlib\STM32F10x_StdPeriph_Driver\src/stm32f10x_sdio.c ****   __IO uint32_t tmp = 0;
 606              		.loc 1 413 1 view .LVU126
 607 0106 82B0     		sub	sp, sp, #8	@,,
 608              	.LCFI2:
 609              		.cfi_def_cfa_offset 8
 610              	@ .\stlib\STM32F10x_StdPeriph_Driver\src\stm32f10x_sdio.c:414:   __IO uint32_t tmp = 0;
 611              		.loc 1 414 17 view .LVU127
 612 0108 0193     		str	r3, [sp, #4]	@ tmp115, tmp
 415:.\stlib\STM32F10x_StdPeriph_Driver\src/stm32f10x_sdio.c **** 
 416:.\stlib\STM32F10x_StdPeriph_Driver\src/stm32f10x_sdio.c ****   /* Check the parameters */
 417:.\stlib\STM32F10x_StdPeriph_Driver\src/stm32f10x_sdio.c ****   assert_param(IS_SDIO_RESP(SDIO_RESP));
 613              		.loc 1 417 3 is_stmt 1 view .LVU128
 418:.\stlib\STM32F10x_StdPeriph_Driver\src/stm32f10x_sdio.c **** 
 419:.\stlib\STM32F10x_StdPeriph_Driver\src/stm32f10x_sdio.c ****   tmp = SDIO_RESP_ADDR + SDIO_RESP;
 614              		.loc 1 419 3 view .LVU129
 615              	@ .\stlib\STM32F10x_StdPeriph_Driver\src\stm32f10x_sdio.c:419:   tmp = SDIO_RESP_ADDR + SDIO_RESP;
 616              		.loc 1 419 24 is_stmt 0 view .LVU130
 617 010a 034B     		ldr	r3, .L34	@ _1,
 618 010c 0344     		add	r3, r3, r0	@ _1, tmp118
 619              	@ .\stlib\STM32F10x_StdPeriph_Driver\src\stm32f10x_sdio.c:419:   tmp = SDIO_RESP_ADDR + SDIO_RESP;
 620              		.loc 1 419 7 view .LVU131
 621 010e 0193     		str	r3, [sp, #4]	@ _1, tmp
 420:.\stlib\STM32F10x_StdPeriph_Driver\src/stm32f10x_sdio.c ****   
 421:.\stlib\STM32F10x_StdPeriph_Driver\src/stm32f10x_sdio.c ****   return (*(__IO uint32_t *) tmp); 
 622              		.loc 1 421 3 is_stmt 1 view .LVU132
 623              	@ .\stlib\STM32F10x_StdPeriph_Driver\src\stm32f10x_sdio.c:421:   return (*(__IO uint32_t *) tmp); 
 624              		.loc 1 421 12 is_stmt 0 view .LVU133
 625 0110 019B     		ldr	r3, [sp, #4]	@ tmp.0_2, tmp
 626              	@ .\stlib\STM32F10x_StdPeriph_Driver\src\stm32f10x_sdio.c:421:   return (*(__IO uint32_t *) tmp); 
 627              		.loc 1 421 11 view .LVU134
 628 0112 1868     		ldr	r0, [r3]	@ <retval>, *tmp.1_3
 629              	.LVL18:
 630              	@ .\stlib\STM32F10x_StdPeriph_Driver\src\stm32f10x_sdio.c:422: }
 422:.\stlib\STM32F10x_StdPeriph_Driver\src/stm32f10x_sdio.c **** }
 631              		.loc 1 422 1 view .LVU135
 632 0114 02B0     		add	sp, sp, #8	@,,
 633              	.LCFI3:
 634              		.cfi_def_cfa_offset 0
ARM GAS  C:\Users\skey\AppData\Local\Temp\ccZCz5DZ.s 			page 20


 635              		@ sp needed	@
 636 0116 7047     		bx	lr	@
 637              	.L35:
 638              		.align	2
 639              	.L34:
 640 0118 14800140 		.word	1073840148
 641              		.cfi_endproc
 642              	.LFE40:
 643              		.size	SDIO_GetResponse, .-SDIO_GetResponse
 644              		.align	1
 645              		.global	SDIO_DataConfig
 646              		.syntax unified
 647              		.thumb
 648              		.thumb_func
 649              		.fpu softvfp
 650              		.type	SDIO_DataConfig, %function
 651              	SDIO_DataConfig:
 652              	.LVL19:
 653              	.LFB41:
 423:.\stlib\STM32F10x_StdPeriph_Driver\src/stm32f10x_sdio.c **** 
 424:.\stlib\STM32F10x_StdPeriph_Driver\src/stm32f10x_sdio.c **** /**
 425:.\stlib\STM32F10x_StdPeriph_Driver\src/stm32f10x_sdio.c ****   * @brief  Initializes the SDIO data path according to the specified 
 426:.\stlib\STM32F10x_StdPeriph_Driver\src/stm32f10x_sdio.c ****   *   parameters in the SDIO_DataInitStruct.
 427:.\stlib\STM32F10x_StdPeriph_Driver\src/stm32f10x_sdio.c ****   * @param  SDIO_DataInitStruct : pointer to a SDIO_DataInitTypeDef structure that
 428:.\stlib\STM32F10x_StdPeriph_Driver\src/stm32f10x_sdio.c ****   *   contains the configuration information for the SDIO command.
 429:.\stlib\STM32F10x_StdPeriph_Driver\src/stm32f10x_sdio.c ****   * @retval None
 430:.\stlib\STM32F10x_StdPeriph_Driver\src/stm32f10x_sdio.c ****   */
 431:.\stlib\STM32F10x_StdPeriph_Driver\src/stm32f10x_sdio.c **** void SDIO_DataConfig(SDIO_DataInitTypeDef* SDIO_DataInitStruct)
 432:.\stlib\STM32F10x_StdPeriph_Driver\src/stm32f10x_sdio.c **** {
 654              		.loc 1 432 1 is_stmt 1 view -0
 655              		.cfi_startproc
 656              		@ args = 0, pretend = 0, frame = 0
 657              		@ frame_needed = 0, uses_anonymous_args = 0
 433:.\stlib\STM32F10x_StdPeriph_Driver\src/stm32f10x_sdio.c ****   uint32_t tmpreg = 0;
 658              		.loc 1 433 3 view .LVU137
 434:.\stlib\STM32F10x_StdPeriph_Driver\src/stm32f10x_sdio.c ****   
 435:.\stlib\STM32F10x_StdPeriph_Driver\src/stm32f10x_sdio.c ****   /* Check the parameters */
 436:.\stlib\STM32F10x_StdPeriph_Driver\src/stm32f10x_sdio.c ****   assert_param(IS_SDIO_DATA_LENGTH(SDIO_DataInitStruct->SDIO_DataLength));
 659              		.loc 1 436 3 view .LVU138
 437:.\stlib\STM32F10x_StdPeriph_Driver\src/stm32f10x_sdio.c ****   assert_param(IS_SDIO_BLOCK_SIZE(SDIO_DataInitStruct->SDIO_DataBlockSize));
 660              		.loc 1 437 3 view .LVU139
 438:.\stlib\STM32F10x_StdPeriph_Driver\src/stm32f10x_sdio.c ****   assert_param(IS_SDIO_TRANSFER_DIR(SDIO_DataInitStruct->SDIO_TransferDir));
 661              		.loc 1 438 3 view .LVU140
 439:.\stlib\STM32F10x_StdPeriph_Driver\src/stm32f10x_sdio.c ****   assert_param(IS_SDIO_TRANSFER_MODE(SDIO_DataInitStruct->SDIO_TransferMode));
 662              		.loc 1 439 3 view .LVU141
 440:.\stlib\STM32F10x_StdPeriph_Driver\src/stm32f10x_sdio.c ****   assert_param(IS_SDIO_DPSM(SDIO_DataInitStruct->SDIO_DPSM));
 663              		.loc 1 440 3 view .LVU142
 441:.\stlib\STM32F10x_StdPeriph_Driver\src/stm32f10x_sdio.c **** 
 442:.\stlib\STM32F10x_StdPeriph_Driver\src/stm32f10x_sdio.c **** /*---------------------------- SDIO DTIMER Configuration ---------------------*/
 443:.\stlib\STM32F10x_StdPeriph_Driver\src/stm32f10x_sdio.c ****   /* Set the SDIO Data TimeOut value */
 444:.\stlib\STM32F10x_StdPeriph_Driver\src/stm32f10x_sdio.c ****   SDIO->DTIMER = SDIO_DataInitStruct->SDIO_DataTimeOut;
 664              		.loc 1 444 3 view .LVU143
 665              	@ .\stlib\STM32F10x_StdPeriph_Driver\src\stm32f10x_sdio.c:444:   SDIO->DTIMER = SDIO_DataInitStruct
 666              		.loc 1 444 37 is_stmt 0 view .LVU144
 667 011c 0368     		ldr	r3, [r0]	@ _1, SDIO_DataInitStruct_11(D)->SDIO_DataTimeOut
 668              	@ .\stlib\STM32F10x_StdPeriph_Driver\src\stm32f10x_sdio.c:444:   SDIO->DTIMER = SDIO_DataInitStruct
 669              		.loc 1 444 16 view .LVU145
ARM GAS  C:\Users\skey\AppData\Local\Temp\ccZCz5DZ.s 			page 21


 670 011e 094A     		ldr	r2, .L37	@ tmp123,
 671              	@ .\stlib\STM32F10x_StdPeriph_Driver\src\stm32f10x_sdio.c:432: {
 432:.\stlib\STM32F10x_StdPeriph_Driver\src/stm32f10x_sdio.c ****   uint32_t tmpreg = 0;
 672              		.loc 1 432 1 view .LVU146
 673 0120 10B5     		push	{r4, lr}	@
 674              	.LCFI4:
 675              		.cfi_def_cfa_offset 8
 676              		.cfi_offset 4, -8
 677              		.cfi_offset 14, -4
 678              	@ .\stlib\STM32F10x_StdPeriph_Driver\src\stm32f10x_sdio.c:444:   SDIO->DTIMER = SDIO_DataInitStruct
 679              		.loc 1 444 16 view .LVU147
 680 0122 5362     		str	r3, [r2, #36]	@ _1, MEM[(struct SDIO_TypeDef *)1073840128B].DTIMER
 445:.\stlib\STM32F10x_StdPeriph_Driver\src/stm32f10x_sdio.c **** 
 446:.\stlib\STM32F10x_StdPeriph_Driver\src/stm32f10x_sdio.c **** /*---------------------------- SDIO DLEN Configuration -----------------------*/
 447:.\stlib\STM32F10x_StdPeriph_Driver\src/stm32f10x_sdio.c ****   /* Set the SDIO DataLength value */
 448:.\stlib\STM32F10x_StdPeriph_Driver\src/stm32f10x_sdio.c ****   SDIO->DLEN = SDIO_DataInitStruct->SDIO_DataLength;
 681              		.loc 1 448 3 is_stmt 1 view .LVU148
 682              	@ .\stlib\STM32F10x_StdPeriph_Driver\src\stm32f10x_sdio.c:448:   SDIO->DLEN = SDIO_DataInitStruct->
 683              		.loc 1 448 35 is_stmt 0 view .LVU149
 684 0124 4368     		ldr	r3, [r0, #4]	@ _2, SDIO_DataInitStruct_11(D)->SDIO_DataLength
 685              	@ .\stlib\STM32F10x_StdPeriph_Driver\src\stm32f10x_sdio.c:448:   SDIO->DLEN = SDIO_DataInitStruct->
 686              		.loc 1 448 14 view .LVU150
 687 0126 9362     		str	r3, [r2, #40]	@ _2, MEM[(struct SDIO_TypeDef *)1073840128B].DLEN
 449:.\stlib\STM32F10x_StdPeriph_Driver\src/stm32f10x_sdio.c **** 
 450:.\stlib\STM32F10x_StdPeriph_Driver\src/stm32f10x_sdio.c **** /*---------------------------- SDIO DCTRL Configuration ----------------------*/  
 451:.\stlib\STM32F10x_StdPeriph_Driver\src/stm32f10x_sdio.c ****   /* Get the SDIO DCTRL value */
 452:.\stlib\STM32F10x_StdPeriph_Driver\src/stm32f10x_sdio.c ****   tmpreg = SDIO->DCTRL;
 688              		.loc 1 452 3 is_stmt 1 view .LVU151
 689              	@ .\stlib\STM32F10x_StdPeriph_Driver\src\stm32f10x_sdio.c:452:   tmpreg = SDIO->DCTRL;
 690              		.loc 1 452 10 is_stmt 0 view .LVU152
 691 0128 D16A     		ldr	r1, [r2, #44]	@ tmpreg, MEM[(struct SDIO_TypeDef *)1073840128B].DCTRL
 692              	.LVL20:
 453:.\stlib\STM32F10x_StdPeriph_Driver\src/stm32f10x_sdio.c ****   /* Clear DEN, DTMODE, DTDIR and DBCKSIZE bits */
 454:.\stlib\STM32F10x_StdPeriph_Driver\src/stm32f10x_sdio.c ****   tmpreg &= DCTRL_CLEAR_MASK;
 693              		.loc 1 454 3 is_stmt 1 view .LVU153
 455:.\stlib\STM32F10x_StdPeriph_Driver\src/stm32f10x_sdio.c ****   /* Set DEN bit according to SDIO_DPSM value */
 456:.\stlib\STM32F10x_StdPeriph_Driver\src/stm32f10x_sdio.c ****   /* Set DTMODE bit according to SDIO_TransferMode value */
 457:.\stlib\STM32F10x_StdPeriph_Driver\src/stm32f10x_sdio.c ****   /* Set DTDIR bit according to SDIO_TransferDir value */
 458:.\stlib\STM32F10x_StdPeriph_Driver\src/stm32f10x_sdio.c ****   /* Set DBCKSIZE bits according to SDIO_DataBlockSize value */
 459:.\stlib\STM32F10x_StdPeriph_Driver\src/stm32f10x_sdio.c ****   tmpreg |= (uint32_t)SDIO_DataInitStruct->SDIO_DataBlockSize | SDIO_DataInitStruct->SDIO_TransferD
 694              		.loc 1 459 3 view .LVU154
 695              	@ .\stlib\STM32F10x_StdPeriph_Driver\src\stm32f10x_sdio.c:459:   tmpreg |= (uint32_t)SDIO_DataInitS
 696              		.loc 1 459 63 is_stmt 0 view .LVU155
 697 012a D0E90234 		ldrd	r3, r4, [r0, #8]	@ SDIO_DataInitStruct_11(D)->SDIO_DataBlockSize, SDIO_DataInitStruct_11(D)->
 698              	@ .\stlib\STM32F10x_StdPeriph_Driver\src\stm32f10x_sdio.c:454:   tmpreg &= DCTRL_CLEAR_MASK;
 454:.\stlib\STM32F10x_StdPeriph_Driver\src/stm32f10x_sdio.c ****   /* Set DEN bit according to SDIO_DPSM value */
 699              		.loc 1 454 10 view .LVU156
 700 012e 21F0F701 		bic	r1, r1, #247	@ tmpreg, tmpreg,
 701              	.LVL21:
 702              	@ .\stlib\STM32F10x_StdPeriph_Driver\src\stm32f10x_sdio.c:459:   tmpreg |= (uint32_t)SDIO_DataInitS
 703              		.loc 1 459 63 view .LVU157
 704 0132 2343     		orrs	r3, r3, r4	@, tmp126, SDIO_DataInitStruct_11(D)->SDIO_DataBlockSize, SDIO_DataInitStruct_11(D
 705 0134 0B43     		orrs	r3, r3, r1	@, tmp130, tmp126, tmpreg
 706 0136 0169     		ldr	r1, [r0, #16]	@ SDIO_DataInitStruct_11(D)->SDIO_TransferMode, SDIO_DataInitStruct_11(D)->SDIO_
 707              	.LVL22:
 708              		.loc 1 459 63 view .LVU158
 709 0138 0B43     		orrs	r3, r3, r1	@, _19, tmp130, SDIO_DataInitStruct_11(D)->SDIO_TransferMode
ARM GAS  C:\Users\skey\AppData\Local\Temp\ccZCz5DZ.s 			page 22


 710              	@ .\stlib\STM32F10x_StdPeriph_Driver\src\stm32f10x_sdio.c:459:   tmpreg |= (uint32_t)SDIO_DataInitS
 711              		.loc 1 459 10 view .LVU159
 712 013a 4169     		ldr	r1, [r0, #20]	@ SDIO_DataInitStruct_11(D)->SDIO_DPSM, SDIO_DataInitStruct_11(D)->SDIO_DPSM
 713 013c 0B43     		orrs	r3, r3, r1	@, tmpreg, _19, SDIO_DataInitStruct_11(D)->SDIO_DPSM
 714              	.LVL23:
 460:.\stlib\STM32F10x_StdPeriph_Driver\src/stm32f10x_sdio.c ****            | SDIO_DataInitStruct->SDIO_TransferMode | SDIO_DataInitStruct->SDIO_DPSM;
 461:.\stlib\STM32F10x_StdPeriph_Driver\src/stm32f10x_sdio.c **** 
 462:.\stlib\STM32F10x_StdPeriph_Driver\src/stm32f10x_sdio.c ****   /* Write to SDIO DCTRL */
 463:.\stlib\STM32F10x_StdPeriph_Driver\src/stm32f10x_sdio.c ****   SDIO->DCTRL = tmpreg;
 715              		.loc 1 463 3 is_stmt 1 view .LVU160
 716              	@ .\stlib\STM32F10x_StdPeriph_Driver\src\stm32f10x_sdio.c:463:   SDIO->DCTRL = tmpreg;
 717              		.loc 1 463 15 is_stmt 0 view .LVU161
 718 013e D362     		str	r3, [r2, #44]	@ tmpreg, MEM[(struct SDIO_TypeDef *)1073840128B].DCTRL
 719              	@ .\stlib\STM32F10x_StdPeriph_Driver\src\stm32f10x_sdio.c:464: }
 464:.\stlib\STM32F10x_StdPeriph_Driver\src/stm32f10x_sdio.c **** }
 720              		.loc 1 464 1 view .LVU162
 721 0140 10BD     		pop	{r4, pc}	@
 722              	.L38:
 723 0142 00BF     		.align	2
 724              	.L37:
 725 0144 00800140 		.word	1073840128
 726              		.cfi_endproc
 727              	.LFE41:
 728              		.size	SDIO_DataConfig, .-SDIO_DataConfig
 729              		.align	1
 730              		.global	SDIO_DataStructInit
 731              		.syntax unified
 732              		.thumb
 733              		.thumb_func
 734              		.fpu softvfp
 735              		.type	SDIO_DataStructInit, %function
 736              	SDIO_DataStructInit:
 737              	.LVL24:
 738              	.LFB42:
 465:.\stlib\STM32F10x_StdPeriph_Driver\src/stm32f10x_sdio.c **** 
 466:.\stlib\STM32F10x_StdPeriph_Driver\src/stm32f10x_sdio.c **** /**
 467:.\stlib\STM32F10x_StdPeriph_Driver\src/stm32f10x_sdio.c ****   * @brief  Fills each SDIO_DataInitStruct member with its default value.
 468:.\stlib\STM32F10x_StdPeriph_Driver\src/stm32f10x_sdio.c ****   * @param  SDIO_DataInitStruct: pointer to an SDIO_DataInitTypeDef structure which
 469:.\stlib\STM32F10x_StdPeriph_Driver\src/stm32f10x_sdio.c ****   *         will be initialized.
 470:.\stlib\STM32F10x_StdPeriph_Driver\src/stm32f10x_sdio.c ****   * @retval None
 471:.\stlib\STM32F10x_StdPeriph_Driver\src/stm32f10x_sdio.c ****   */
 472:.\stlib\STM32F10x_StdPeriph_Driver\src/stm32f10x_sdio.c **** void SDIO_DataStructInit(SDIO_DataInitTypeDef* SDIO_DataInitStruct)
 473:.\stlib\STM32F10x_StdPeriph_Driver\src/stm32f10x_sdio.c **** {
 739              		.loc 1 473 1 is_stmt 1 view -0
 740              		.cfi_startproc
 741              		@ args = 0, pretend = 0, frame = 0
 742              		@ frame_needed = 0, uses_anonymous_args = 0
 743              		@ link register save eliminated.
 474:.\stlib\STM32F10x_StdPeriph_Driver\src/stm32f10x_sdio.c ****   /* SDIO_DataInitStruct members default value */
 475:.\stlib\STM32F10x_StdPeriph_Driver\src/stm32f10x_sdio.c ****   SDIO_DataInitStruct->SDIO_DataTimeOut = 0xFFFFFFFF;
 744              		.loc 1 475 3 view .LVU164
 745              	@ .\stlib\STM32F10x_StdPeriph_Driver\src\stm32f10x_sdio.c:476:   SDIO_DataInitStruct->SDIO_DataLeng
 476:.\stlib\STM32F10x_StdPeriph_Driver\src/stm32f10x_sdio.c ****   SDIO_DataInitStruct->SDIO_DataLength = 0x00;
 746              		.loc 1 476 40 is_stmt 0 view .LVU165
 747 0148 0023     		movs	r3, #0	@ tmp112,
 748 014a 4FF0FF32 		mov	r2, #-1	@,
 749              	@ .\stlib\STM32F10x_StdPeriph_Driver\src\stm32f10x_sdio.c:478:   SDIO_DataInitStruct->SDIO_Transfer
ARM GAS  C:\Users\skey\AppData\Local\Temp\ccZCz5DZ.s 			page 23


 477:.\stlib\STM32F10x_StdPeriph_Driver\src/stm32f10x_sdio.c ****   SDIO_DataInitStruct->SDIO_DataBlockSize = SDIO_DataBlockSize_1b;
 478:.\stlib\STM32F10x_StdPeriph_Driver\src/stm32f10x_sdio.c ****   SDIO_DataInitStruct->SDIO_TransferDir = SDIO_TransferDir_ToCard;
 750              		.loc 1 478 41 view .LVU166
 751 014e C0E90233 		strd	r3, r3, [r0, #8]	@ tmp112, tmp112, SDIO_DataInitStruct,
 752              	@ .\stlib\STM32F10x_StdPeriph_Driver\src\stm32f10x_sdio.c:476:   SDIO_DataInitStruct->SDIO_DataLeng
 476:.\stlib\STM32F10x_StdPeriph_Driver\src/stm32f10x_sdio.c ****   SDIO_DataInitStruct->SDIO_DataLength = 0x00;
 753              		.loc 1 476 40 view .LVU167
 754 0152 C0E90023 		strd	r2, r3, [r0]	@, tmp112, SDIO_DataInitStruct
 477:.\stlib\STM32F10x_StdPeriph_Driver\src/stm32f10x_sdio.c ****   SDIO_DataInitStruct->SDIO_DataBlockSize = SDIO_DataBlockSize_1b;
 755              		.loc 1 477 3 is_stmt 1 view .LVU168
 479:.\stlib\STM32F10x_StdPeriph_Driver\src/stm32f10x_sdio.c ****   SDIO_DataInitStruct->SDIO_TransferMode = SDIO_TransferMode_Block;  
 756              		.loc 1 479 3 view .LVU169
 757              	@ .\stlib\STM32F10x_StdPeriph_Driver\src\stm32f10x_sdio.c:480:   SDIO_DataInitStruct->SDIO_DPSM = S
 480:.\stlib\STM32F10x_StdPeriph_Driver\src/stm32f10x_sdio.c ****   SDIO_DataInitStruct->SDIO_DPSM = SDIO_DPSM_Disable;
 758              		.loc 1 480 34 is_stmt 0 view .LVU170
 759 0156 C0E90433 		strd	r3, r3, [r0, #16]	@ tmp112, tmp112, SDIO_DataInitStruct,
 760              	@ .\stlib\STM32F10x_StdPeriph_Driver\src\stm32f10x_sdio.c:481: }
 481:.\stlib\STM32F10x_StdPeriph_Driver\src/stm32f10x_sdio.c **** }
 761              		.loc 1 481 1 view .LVU171
 762 015a 7047     		bx	lr	@
 763              		.cfi_endproc
 764              	.LFE42:
 765              		.size	SDIO_DataStructInit, .-SDIO_DataStructInit
 766              		.align	1
 767              		.global	SDIO_GetDataCounter
 768              		.syntax unified
 769              		.thumb
 770              		.thumb_func
 771              		.fpu softvfp
 772              		.type	SDIO_GetDataCounter, %function
 773              	SDIO_GetDataCounter:
 774              	.LFB43:
 482:.\stlib\STM32F10x_StdPeriph_Driver\src/stm32f10x_sdio.c **** 
 483:.\stlib\STM32F10x_StdPeriph_Driver\src/stm32f10x_sdio.c **** /**
 484:.\stlib\STM32F10x_StdPeriph_Driver\src/stm32f10x_sdio.c ****   * @brief  Returns number of remaining data bytes to be transferred.
 485:.\stlib\STM32F10x_StdPeriph_Driver\src/stm32f10x_sdio.c ****   * @param  None
 486:.\stlib\STM32F10x_StdPeriph_Driver\src/stm32f10x_sdio.c ****   * @retval Number of remaining data bytes to be transferred
 487:.\stlib\STM32F10x_StdPeriph_Driver\src/stm32f10x_sdio.c ****   */
 488:.\stlib\STM32F10x_StdPeriph_Driver\src/stm32f10x_sdio.c **** uint32_t SDIO_GetDataCounter(void)
 489:.\stlib\STM32F10x_StdPeriph_Driver\src/stm32f10x_sdio.c **** { 
 775              		.loc 1 489 1 is_stmt 1 view -0
 776              		.cfi_startproc
 777              		@ args = 0, pretend = 0, frame = 0
 778              		@ frame_needed = 0, uses_anonymous_args = 0
 779              		@ link register save eliminated.
 490:.\stlib\STM32F10x_StdPeriph_Driver\src/stm32f10x_sdio.c ****   return SDIO->DCOUNT;
 780              		.loc 1 490 3 view .LVU173
 781              	@ .\stlib\STM32F10x_StdPeriph_Driver\src\stm32f10x_sdio.c:490:   return SDIO->DCOUNT;
 782              		.loc 1 490 14 is_stmt 0 view .LVU174
 783 015c 014B     		ldr	r3, .L41	@ tmp111,
 784 015e 186B     		ldr	r0, [r3, #48]	@ <retval>, MEM[(struct SDIO_TypeDef *)1073840128B].DCOUNT
 785              	@ .\stlib\STM32F10x_StdPeriph_Driver\src\stm32f10x_sdio.c:491: }
 491:.\stlib\STM32F10x_StdPeriph_Driver\src/stm32f10x_sdio.c **** }
 786              		.loc 1 491 1 view .LVU175
 787 0160 7047     		bx	lr	@
 788              	.L42:
 789 0162 00BF     		.align	2
ARM GAS  C:\Users\skey\AppData\Local\Temp\ccZCz5DZ.s 			page 24


 790              	.L41:
 791 0164 00800140 		.word	1073840128
 792              		.cfi_endproc
 793              	.LFE43:
 794              		.size	SDIO_GetDataCounter, .-SDIO_GetDataCounter
 795              		.align	1
 796              		.global	SDIO_ReadData
 797              		.syntax unified
 798              		.thumb
 799              		.thumb_func
 800              		.fpu softvfp
 801              		.type	SDIO_ReadData, %function
 802              	SDIO_ReadData:
 803              	.LFB44:
 492:.\stlib\STM32F10x_StdPeriph_Driver\src/stm32f10x_sdio.c **** 
 493:.\stlib\STM32F10x_StdPeriph_Driver\src/stm32f10x_sdio.c **** /**
 494:.\stlib\STM32F10x_StdPeriph_Driver\src/stm32f10x_sdio.c ****   * @brief  Read one data word from Rx FIFO.
 495:.\stlib\STM32F10x_StdPeriph_Driver\src/stm32f10x_sdio.c ****   * @param  None
 496:.\stlib\STM32F10x_StdPeriph_Driver\src/stm32f10x_sdio.c ****   * @retval Data received
 497:.\stlib\STM32F10x_StdPeriph_Driver\src/stm32f10x_sdio.c ****   */
 498:.\stlib\STM32F10x_StdPeriph_Driver\src/stm32f10x_sdio.c **** uint32_t SDIO_ReadData(void)
 499:.\stlib\STM32F10x_StdPeriph_Driver\src/stm32f10x_sdio.c **** { 
 804              		.loc 1 499 1 is_stmt 1 view -0
 805              		.cfi_startproc
 806              		@ args = 0, pretend = 0, frame = 0
 807              		@ frame_needed = 0, uses_anonymous_args = 0
 808              		@ link register save eliminated.
 500:.\stlib\STM32F10x_StdPeriph_Driver\src/stm32f10x_sdio.c ****   return SDIO->FIFO;
 809              		.loc 1 500 3 view .LVU177
 810              	@ .\stlib\STM32F10x_StdPeriph_Driver\src\stm32f10x_sdio.c:500:   return SDIO->FIFO;
 811              		.loc 1 500 14 is_stmt 0 view .LVU178
 812 0168 014B     		ldr	r3, .L44	@ tmp111,
 813 016a D3F88000 		ldr	r0, [r3, #128]	@ <retval>, MEM[(struct SDIO_TypeDef *)1073840128B].FIFO
 814              	@ .\stlib\STM32F10x_StdPeriph_Driver\src\stm32f10x_sdio.c:501: }
 501:.\stlib\STM32F10x_StdPeriph_Driver\src/stm32f10x_sdio.c **** }
 815              		.loc 1 501 1 view .LVU179
 816 016e 7047     		bx	lr	@
 817              	.L45:
 818              		.align	2
 819              	.L44:
 820 0170 00800140 		.word	1073840128
 821              		.cfi_endproc
 822              	.LFE44:
 823              		.size	SDIO_ReadData, .-SDIO_ReadData
 824              		.align	1
 825              		.global	SDIO_WriteData
 826              		.syntax unified
 827              		.thumb
 828              		.thumb_func
 829              		.fpu softvfp
 830              		.type	SDIO_WriteData, %function
 831              	SDIO_WriteData:
 832              	.LVL25:
 833              	.LFB45:
 502:.\stlib\STM32F10x_StdPeriph_Driver\src/stm32f10x_sdio.c **** 
 503:.\stlib\STM32F10x_StdPeriph_Driver\src/stm32f10x_sdio.c **** /**
 504:.\stlib\STM32F10x_StdPeriph_Driver\src/stm32f10x_sdio.c ****   * @brief  Write one data word to Tx FIFO.
ARM GAS  C:\Users\skey\AppData\Local\Temp\ccZCz5DZ.s 			page 25


 505:.\stlib\STM32F10x_StdPeriph_Driver\src/stm32f10x_sdio.c ****   * @param  Data: 32-bit data word to write.
 506:.\stlib\STM32F10x_StdPeriph_Driver\src/stm32f10x_sdio.c ****   * @retval None
 507:.\stlib\STM32F10x_StdPeriph_Driver\src/stm32f10x_sdio.c ****   */
 508:.\stlib\STM32F10x_StdPeriph_Driver\src/stm32f10x_sdio.c **** void SDIO_WriteData(uint32_t Data)
 509:.\stlib\STM32F10x_StdPeriph_Driver\src/stm32f10x_sdio.c **** { 
 834              		.loc 1 509 1 is_stmt 1 view -0
 835              		.cfi_startproc
 836              		@ args = 0, pretend = 0, frame = 0
 837              		@ frame_needed = 0, uses_anonymous_args = 0
 838              		@ link register save eliminated.
 510:.\stlib\STM32F10x_StdPeriph_Driver\src/stm32f10x_sdio.c ****   SDIO->FIFO = Data;
 839              		.loc 1 510 3 view .LVU181
 840              	@ .\stlib\STM32F10x_StdPeriph_Driver\src\stm32f10x_sdio.c:510:   SDIO->FIFO = Data;
 841              		.loc 1 510 14 is_stmt 0 view .LVU182
 842 0174 014B     		ldr	r3, .L47	@ tmp111,
 843 0176 C3F88000 		str	r0, [r3, #128]	@ Data, MEM[(struct SDIO_TypeDef *)1073840128B].FIFO
 844              	@ .\stlib\STM32F10x_StdPeriph_Driver\src\stm32f10x_sdio.c:511: }
 511:.\stlib\STM32F10x_StdPeriph_Driver\src/stm32f10x_sdio.c **** }
 845              		.loc 1 511 1 view .LVU183
 846 017a 7047     		bx	lr	@
 847              	.L48:
 848              		.align	2
 849              	.L47:
 850 017c 00800140 		.word	1073840128
 851              		.cfi_endproc
 852              	.LFE45:
 853              		.size	SDIO_WriteData, .-SDIO_WriteData
 854              		.align	1
 855              		.global	SDIO_GetFIFOCount
 856              		.syntax unified
 857              		.thumb
 858              		.thumb_func
 859              		.fpu softvfp
 860              		.type	SDIO_GetFIFOCount, %function
 861              	SDIO_GetFIFOCount:
 862              	.LFB46:
 512:.\stlib\STM32F10x_StdPeriph_Driver\src/stm32f10x_sdio.c **** 
 513:.\stlib\STM32F10x_StdPeriph_Driver\src/stm32f10x_sdio.c **** /**
 514:.\stlib\STM32F10x_StdPeriph_Driver\src/stm32f10x_sdio.c ****   * @brief  Returns the number of words left to be written to or read from FIFO.	
 515:.\stlib\STM32F10x_StdPeriph_Driver\src/stm32f10x_sdio.c ****   * @param  None
 516:.\stlib\STM32F10x_StdPeriph_Driver\src/stm32f10x_sdio.c ****   * @retval Remaining number of words.
 517:.\stlib\STM32F10x_StdPeriph_Driver\src/stm32f10x_sdio.c ****   */
 518:.\stlib\STM32F10x_StdPeriph_Driver\src/stm32f10x_sdio.c **** uint32_t SDIO_GetFIFOCount(void)
 519:.\stlib\STM32F10x_StdPeriph_Driver\src/stm32f10x_sdio.c **** { 
 863              		.loc 1 519 1 is_stmt 1 view -0
 864              		.cfi_startproc
 865              		@ args = 0, pretend = 0, frame = 0
 866              		@ frame_needed = 0, uses_anonymous_args = 0
 867              		@ link register save eliminated.
 520:.\stlib\STM32F10x_StdPeriph_Driver\src/stm32f10x_sdio.c ****   return SDIO->FIFOCNT;
 868              		.loc 1 520 3 view .LVU185
 869              	@ .\stlib\STM32F10x_StdPeriph_Driver\src\stm32f10x_sdio.c:520:   return SDIO->FIFOCNT;
 870              		.loc 1 520 14 is_stmt 0 view .LVU186
 871 0180 014B     		ldr	r3, .L50	@ tmp111,
 872 0182 986C     		ldr	r0, [r3, #72]	@ <retval>, MEM[(struct SDIO_TypeDef *)1073840128B].FIFOCNT
 873              	@ .\stlib\STM32F10x_StdPeriph_Driver\src\stm32f10x_sdio.c:521: }
 521:.\stlib\STM32F10x_StdPeriph_Driver\src/stm32f10x_sdio.c **** }
ARM GAS  C:\Users\skey\AppData\Local\Temp\ccZCz5DZ.s 			page 26


 874              		.loc 1 521 1 view .LVU187
 875 0184 7047     		bx	lr	@
 876              	.L51:
 877 0186 00BF     		.align	2
 878              	.L50:
 879 0188 00800140 		.word	1073840128
 880              		.cfi_endproc
 881              	.LFE46:
 882              		.size	SDIO_GetFIFOCount, .-SDIO_GetFIFOCount
 883              		.align	1
 884              		.global	SDIO_StartSDIOReadWait
 885              		.syntax unified
 886              		.thumb
 887              		.thumb_func
 888              		.fpu softvfp
 889              		.type	SDIO_StartSDIOReadWait, %function
 890              	SDIO_StartSDIOReadWait:
 891              	.LVL26:
 892              	.LFB47:
 522:.\stlib\STM32F10x_StdPeriph_Driver\src/stm32f10x_sdio.c **** 
 523:.\stlib\STM32F10x_StdPeriph_Driver\src/stm32f10x_sdio.c **** /**
 524:.\stlib\STM32F10x_StdPeriph_Driver\src/stm32f10x_sdio.c ****   * @brief  Starts the SD I/O Read Wait operation.	
 525:.\stlib\STM32F10x_StdPeriph_Driver\src/stm32f10x_sdio.c ****   * @param  NewState: new state of the Start SDIO Read Wait operation. 
 526:.\stlib\STM32F10x_StdPeriph_Driver\src/stm32f10x_sdio.c ****   *   This parameter can be: ENABLE or DISABLE.
 527:.\stlib\STM32F10x_StdPeriph_Driver\src/stm32f10x_sdio.c ****   * @retval None
 528:.\stlib\STM32F10x_StdPeriph_Driver\src/stm32f10x_sdio.c ****   */
 529:.\stlib\STM32F10x_StdPeriph_Driver\src/stm32f10x_sdio.c **** void SDIO_StartSDIOReadWait(FunctionalState NewState)
 530:.\stlib\STM32F10x_StdPeriph_Driver\src/stm32f10x_sdio.c **** { 
 893              		.loc 1 530 1 is_stmt 1 view -0
 894              		.cfi_startproc
 895              		@ args = 0, pretend = 0, frame = 0
 896              		@ frame_needed = 0, uses_anonymous_args = 0
 897              		@ link register save eliminated.
 531:.\stlib\STM32F10x_StdPeriph_Driver\src/stm32f10x_sdio.c ****   /* Check the parameters */
 532:.\stlib\STM32F10x_StdPeriph_Driver\src/stm32f10x_sdio.c ****   assert_param(IS_FUNCTIONAL_STATE(NewState));
 898              		.loc 1 532 3 view .LVU189
 533:.\stlib\STM32F10x_StdPeriph_Driver\src/stm32f10x_sdio.c ****   
 534:.\stlib\STM32F10x_StdPeriph_Driver\src/stm32f10x_sdio.c ****   *(__IO uint32_t *) DCTRL_RWSTART_BB = (uint32_t) NewState;
 899              		.loc 1 534 3 view .LVU190
 900              	@ .\stlib\STM32F10x_StdPeriph_Driver\src\stm32f10x_sdio.c:534:   *(__IO uint32_t *) DCTRL_RWSTART_B
 901              		.loc 1 534 39 is_stmt 0 view .LVU191
 902 018c 014B     		ldr	r3, .L53	@ tmp112,
 903 018e 1860     		str	r0, [r3]	@ NewState, MEM[(volatile uint32_t *)1110443424B]
 904              	@ .\stlib\STM32F10x_StdPeriph_Driver\src\stm32f10x_sdio.c:535: }
 535:.\stlib\STM32F10x_StdPeriph_Driver\src/stm32f10x_sdio.c **** }
 905              		.loc 1 535 1 view .LVU192
 906 0190 7047     		bx	lr	@
 907              	.L54:
 908 0192 00BF     		.align	2
 909              	.L53:
 910 0194 A0053042 		.word	1110443424
 911              		.cfi_endproc
 912              	.LFE47:
 913              		.size	SDIO_StartSDIOReadWait, .-SDIO_StartSDIOReadWait
 914              		.align	1
 915              		.global	SDIO_StopSDIOReadWait
 916              		.syntax unified
ARM GAS  C:\Users\skey\AppData\Local\Temp\ccZCz5DZ.s 			page 27


 917              		.thumb
 918              		.thumb_func
 919              		.fpu softvfp
 920              		.type	SDIO_StopSDIOReadWait, %function
 921              	SDIO_StopSDIOReadWait:
 922              	.LVL27:
 923              	.LFB48:
 536:.\stlib\STM32F10x_StdPeriph_Driver\src/stm32f10x_sdio.c **** 
 537:.\stlib\STM32F10x_StdPeriph_Driver\src/stm32f10x_sdio.c **** /**
 538:.\stlib\STM32F10x_StdPeriph_Driver\src/stm32f10x_sdio.c ****   * @brief  Stops the SD I/O Read Wait operation.	
 539:.\stlib\STM32F10x_StdPeriph_Driver\src/stm32f10x_sdio.c ****   * @param  NewState: new state of the Stop SDIO Read Wait operation. 
 540:.\stlib\STM32F10x_StdPeriph_Driver\src/stm32f10x_sdio.c ****   *   This parameter can be: ENABLE or DISABLE.
 541:.\stlib\STM32F10x_StdPeriph_Driver\src/stm32f10x_sdio.c ****   * @retval None
 542:.\stlib\STM32F10x_StdPeriph_Driver\src/stm32f10x_sdio.c ****   */
 543:.\stlib\STM32F10x_StdPeriph_Driver\src/stm32f10x_sdio.c **** void SDIO_StopSDIOReadWait(FunctionalState NewState)
 544:.\stlib\STM32F10x_StdPeriph_Driver\src/stm32f10x_sdio.c **** { 
 924              		.loc 1 544 1 is_stmt 1 view -0
 925              		.cfi_startproc
 926              		@ args = 0, pretend = 0, frame = 0
 927              		@ frame_needed = 0, uses_anonymous_args = 0
 928              		@ link register save eliminated.
 545:.\stlib\STM32F10x_StdPeriph_Driver\src/stm32f10x_sdio.c ****   /* Check the parameters */
 546:.\stlib\STM32F10x_StdPeriph_Driver\src/stm32f10x_sdio.c ****   assert_param(IS_FUNCTIONAL_STATE(NewState));
 929              		.loc 1 546 3 view .LVU194
 547:.\stlib\STM32F10x_StdPeriph_Driver\src/stm32f10x_sdio.c ****   
 548:.\stlib\STM32F10x_StdPeriph_Driver\src/stm32f10x_sdio.c ****   *(__IO uint32_t *) DCTRL_RWSTOP_BB = (uint32_t) NewState;
 930              		.loc 1 548 3 view .LVU195
 931              	@ .\stlib\STM32F10x_StdPeriph_Driver\src\stm32f10x_sdio.c:548:   *(__IO uint32_t *) DCTRL_RWSTOP_BB
 932              		.loc 1 548 38 is_stmt 0 view .LVU196
 933 0198 014B     		ldr	r3, .L56	@ tmp112,
 934 019a 1860     		str	r0, [r3]	@ NewState, MEM[(volatile uint32_t *)1110443428B]
 935              	@ .\stlib\STM32F10x_StdPeriph_Driver\src\stm32f10x_sdio.c:549: }
 549:.\stlib\STM32F10x_StdPeriph_Driver\src/stm32f10x_sdio.c **** }
 936              		.loc 1 549 1 view .LVU197
 937 019c 7047     		bx	lr	@
 938              	.L57:
 939 019e 00BF     		.align	2
 940              	.L56:
 941 01a0 A4053042 		.word	1110443428
 942              		.cfi_endproc
 943              	.LFE48:
 944              		.size	SDIO_StopSDIOReadWait, .-SDIO_StopSDIOReadWait
 945              		.align	1
 946              		.global	SDIO_SetSDIOReadWaitMode
 947              		.syntax unified
 948              		.thumb
 949              		.thumb_func
 950              		.fpu softvfp
 951              		.type	SDIO_SetSDIOReadWaitMode, %function
 952              	SDIO_SetSDIOReadWaitMode:
 953              	.LVL28:
 954              	.LFB49:
 550:.\stlib\STM32F10x_StdPeriph_Driver\src/stm32f10x_sdio.c **** 
 551:.\stlib\STM32F10x_StdPeriph_Driver\src/stm32f10x_sdio.c **** /**
 552:.\stlib\STM32F10x_StdPeriph_Driver\src/stm32f10x_sdio.c ****   * @brief  Sets one of the two options of inserting read wait interval.
 553:.\stlib\STM32F10x_StdPeriph_Driver\src/stm32f10x_sdio.c ****   * @param  SDIO_ReadWaitMode: SD I/O Read Wait operation mode.
 554:.\stlib\STM32F10x_StdPeriph_Driver\src/stm32f10x_sdio.c ****   *   This parameter can be:
ARM GAS  C:\Users\skey\AppData\Local\Temp\ccZCz5DZ.s 			page 28


 555:.\stlib\STM32F10x_StdPeriph_Driver\src/stm32f10x_sdio.c ****   *     @arg SDIO_ReadWaitMode_CLK: Read Wait control by stopping SDIOCLK
 556:.\stlib\STM32F10x_StdPeriph_Driver\src/stm32f10x_sdio.c ****   *     @arg SDIO_ReadWaitMode_DATA2: Read Wait control using SDIO_DATA2
 557:.\stlib\STM32F10x_StdPeriph_Driver\src/stm32f10x_sdio.c ****   * @retval None
 558:.\stlib\STM32F10x_StdPeriph_Driver\src/stm32f10x_sdio.c ****   */
 559:.\stlib\STM32F10x_StdPeriph_Driver\src/stm32f10x_sdio.c **** void SDIO_SetSDIOReadWaitMode(uint32_t SDIO_ReadWaitMode)
 560:.\stlib\STM32F10x_StdPeriph_Driver\src/stm32f10x_sdio.c **** {
 955              		.loc 1 560 1 is_stmt 1 view -0
 956              		.cfi_startproc
 957              		@ args = 0, pretend = 0, frame = 0
 958              		@ frame_needed = 0, uses_anonymous_args = 0
 959              		@ link register save eliminated.
 561:.\stlib\STM32F10x_StdPeriph_Driver\src/stm32f10x_sdio.c ****   /* Check the parameters */
 562:.\stlib\STM32F10x_StdPeriph_Driver\src/stm32f10x_sdio.c ****   assert_param(IS_SDIO_READWAIT_MODE(SDIO_ReadWaitMode));
 960              		.loc 1 562 3 view .LVU199
 563:.\stlib\STM32F10x_StdPeriph_Driver\src/stm32f10x_sdio.c ****   
 564:.\stlib\STM32F10x_StdPeriph_Driver\src/stm32f10x_sdio.c ****   *(__IO uint32_t *) DCTRL_RWMOD_BB = SDIO_ReadWaitMode;
 961              		.loc 1 564 3 view .LVU200
 962              	@ .\stlib\STM32F10x_StdPeriph_Driver\src\stm32f10x_sdio.c:564:   *(__IO uint32_t *) DCTRL_RWMOD_BB 
 963              		.loc 1 564 37 is_stmt 0 view .LVU201
 964 01a4 014B     		ldr	r3, .L59	@ tmp111,
 965 01a6 1860     		str	r0, [r3]	@ SDIO_ReadWaitMode, MEM[(volatile uint32_t *)1110443432B]
 966              	@ .\stlib\STM32F10x_StdPeriph_Driver\src\stm32f10x_sdio.c:565: }
 565:.\stlib\STM32F10x_StdPeriph_Driver\src/stm32f10x_sdio.c **** }
 967              		.loc 1 565 1 view .LVU202
 968 01a8 7047     		bx	lr	@
 969              	.L60:
 970 01aa 00BF     		.align	2
 971              	.L59:
 972 01ac A8053042 		.word	1110443432
 973              		.cfi_endproc
 974              	.LFE49:
 975              		.size	SDIO_SetSDIOReadWaitMode, .-SDIO_SetSDIOReadWaitMode
 976              		.align	1
 977              		.global	SDIO_SetSDIOOperation
 978              		.syntax unified
 979              		.thumb
 980              		.thumb_func
 981              		.fpu softvfp
 982              		.type	SDIO_SetSDIOOperation, %function
 983              	SDIO_SetSDIOOperation:
 984              	.LVL29:
 985              	.LFB50:
 566:.\stlib\STM32F10x_StdPeriph_Driver\src/stm32f10x_sdio.c **** 
 567:.\stlib\STM32F10x_StdPeriph_Driver\src/stm32f10x_sdio.c **** /**
 568:.\stlib\STM32F10x_StdPeriph_Driver\src/stm32f10x_sdio.c ****   * @brief  Enables or disables the SD I/O Mode Operation.
 569:.\stlib\STM32F10x_StdPeriph_Driver\src/stm32f10x_sdio.c ****   * @param  NewState: new state of SDIO specific operation. 
 570:.\stlib\STM32F10x_StdPeriph_Driver\src/stm32f10x_sdio.c ****   *   This parameter can be: ENABLE or DISABLE.
 571:.\stlib\STM32F10x_StdPeriph_Driver\src/stm32f10x_sdio.c ****   * @retval None
 572:.\stlib\STM32F10x_StdPeriph_Driver\src/stm32f10x_sdio.c ****   */
 573:.\stlib\STM32F10x_StdPeriph_Driver\src/stm32f10x_sdio.c **** void SDIO_SetSDIOOperation(FunctionalState NewState)
 574:.\stlib\STM32F10x_StdPeriph_Driver\src/stm32f10x_sdio.c **** { 
 986              		.loc 1 574 1 is_stmt 1 view -0
 987              		.cfi_startproc
 988              		@ args = 0, pretend = 0, frame = 0
 989              		@ frame_needed = 0, uses_anonymous_args = 0
 990              		@ link register save eliminated.
 575:.\stlib\STM32F10x_StdPeriph_Driver\src/stm32f10x_sdio.c ****   /* Check the parameters */
ARM GAS  C:\Users\skey\AppData\Local\Temp\ccZCz5DZ.s 			page 29


 576:.\stlib\STM32F10x_StdPeriph_Driver\src/stm32f10x_sdio.c ****   assert_param(IS_FUNCTIONAL_STATE(NewState));
 991              		.loc 1 576 3 view .LVU204
 577:.\stlib\STM32F10x_StdPeriph_Driver\src/stm32f10x_sdio.c ****   
 578:.\stlib\STM32F10x_StdPeriph_Driver\src/stm32f10x_sdio.c ****   *(__IO uint32_t *) DCTRL_SDIOEN_BB = (uint32_t)NewState;
 992              		.loc 1 578 3 view .LVU205
 993              	@ .\stlib\STM32F10x_StdPeriph_Driver\src\stm32f10x_sdio.c:578:   *(__IO uint32_t *) DCTRL_SDIOEN_BB
 994              		.loc 1 578 38 is_stmt 0 view .LVU206
 995 01b0 014B     		ldr	r3, .L62	@ tmp112,
 996 01b2 1860     		str	r0, [r3]	@ NewState, MEM[(volatile uint32_t *)1110443436B]
 997              	@ .\stlib\STM32F10x_StdPeriph_Driver\src\stm32f10x_sdio.c:579: }
 579:.\stlib\STM32F10x_StdPeriph_Driver\src/stm32f10x_sdio.c **** }
 998              		.loc 1 579 1 view .LVU207
 999 01b4 7047     		bx	lr	@
 1000              	.L63:
 1001 01b6 00BF     		.align	2
 1002              	.L62:
 1003 01b8 AC053042 		.word	1110443436
 1004              		.cfi_endproc
 1005              	.LFE50:
 1006              		.size	SDIO_SetSDIOOperation, .-SDIO_SetSDIOOperation
 1007              		.align	1
 1008              		.global	SDIO_SendSDIOSuspendCmd
 1009              		.syntax unified
 1010              		.thumb
 1011              		.thumb_func
 1012              		.fpu softvfp
 1013              		.type	SDIO_SendSDIOSuspendCmd, %function
 1014              	SDIO_SendSDIOSuspendCmd:
 1015              	.LVL30:
 1016              	.LFB51:
 580:.\stlib\STM32F10x_StdPeriph_Driver\src/stm32f10x_sdio.c **** 
 581:.\stlib\STM32F10x_StdPeriph_Driver\src/stm32f10x_sdio.c **** /**
 582:.\stlib\STM32F10x_StdPeriph_Driver\src/stm32f10x_sdio.c ****   * @brief  Enables or disables the SD I/O Mode suspend command sending.
 583:.\stlib\STM32F10x_StdPeriph_Driver\src/stm32f10x_sdio.c ****   * @param  NewState: new state of the SD I/O Mode suspend command.
 584:.\stlib\STM32F10x_StdPeriph_Driver\src/stm32f10x_sdio.c ****   *   This parameter can be: ENABLE or DISABLE.
 585:.\stlib\STM32F10x_StdPeriph_Driver\src/stm32f10x_sdio.c ****   * @retval None
 586:.\stlib\STM32F10x_StdPeriph_Driver\src/stm32f10x_sdio.c ****   */
 587:.\stlib\STM32F10x_StdPeriph_Driver\src/stm32f10x_sdio.c **** void SDIO_SendSDIOSuspendCmd(FunctionalState NewState)
 588:.\stlib\STM32F10x_StdPeriph_Driver\src/stm32f10x_sdio.c **** { 
 1017              		.loc 1 588 1 is_stmt 1 view -0
 1018              		.cfi_startproc
 1019              		@ args = 0, pretend = 0, frame = 0
 1020              		@ frame_needed = 0, uses_anonymous_args = 0
 1021              		@ link register save eliminated.
 589:.\stlib\STM32F10x_StdPeriph_Driver\src/stm32f10x_sdio.c ****   /* Check the parameters */
 590:.\stlib\STM32F10x_StdPeriph_Driver\src/stm32f10x_sdio.c ****   assert_param(IS_FUNCTIONAL_STATE(NewState));
 1022              		.loc 1 590 3 view .LVU209
 591:.\stlib\STM32F10x_StdPeriph_Driver\src/stm32f10x_sdio.c ****   
 592:.\stlib\STM32F10x_StdPeriph_Driver\src/stm32f10x_sdio.c ****   *(__IO uint32_t *) CMD_SDIOSUSPEND_BB = (uint32_t)NewState;
 1023              		.loc 1 592 3 view .LVU210
 1024              	@ .\stlib\STM32F10x_StdPeriph_Driver\src\stm32f10x_sdio.c:592:   *(__IO uint32_t *) CMD_SDIOSUSPEND
 1025              		.loc 1 592 41 is_stmt 0 view .LVU211
 1026 01bc 014B     		ldr	r3, .L65	@ tmp112,
 1027 01be 1860     		str	r0, [r3]	@ NewState, MEM[(volatile uint32_t *)1110442412B]
 1028              	@ .\stlib\STM32F10x_StdPeriph_Driver\src\stm32f10x_sdio.c:593: }
 593:.\stlib\STM32F10x_StdPeriph_Driver\src/stm32f10x_sdio.c **** }
 1029              		.loc 1 593 1 view .LVU212
ARM GAS  C:\Users\skey\AppData\Local\Temp\ccZCz5DZ.s 			page 30


 1030 01c0 7047     		bx	lr	@
 1031              	.L66:
 1032 01c2 00BF     		.align	2
 1033              	.L65:
 1034 01c4 AC013042 		.word	1110442412
 1035              		.cfi_endproc
 1036              	.LFE51:
 1037              		.size	SDIO_SendSDIOSuspendCmd, .-SDIO_SendSDIOSuspendCmd
 1038              		.align	1
 1039              		.global	SDIO_CommandCompletionCmd
 1040              		.syntax unified
 1041              		.thumb
 1042              		.thumb_func
 1043              		.fpu softvfp
 1044              		.type	SDIO_CommandCompletionCmd, %function
 1045              	SDIO_CommandCompletionCmd:
 1046              	.LVL31:
 1047              	.LFB52:
 594:.\stlib\STM32F10x_StdPeriph_Driver\src/stm32f10x_sdio.c **** 
 595:.\stlib\STM32F10x_StdPeriph_Driver\src/stm32f10x_sdio.c **** /**
 596:.\stlib\STM32F10x_StdPeriph_Driver\src/stm32f10x_sdio.c ****   * @brief  Enables or disables the command completion signal.
 597:.\stlib\STM32F10x_StdPeriph_Driver\src/stm32f10x_sdio.c ****   * @param  NewState: new state of command completion signal. 
 598:.\stlib\STM32F10x_StdPeriph_Driver\src/stm32f10x_sdio.c ****   *   This parameter can be: ENABLE or DISABLE.
 599:.\stlib\STM32F10x_StdPeriph_Driver\src/stm32f10x_sdio.c ****   * @retval None
 600:.\stlib\STM32F10x_StdPeriph_Driver\src/stm32f10x_sdio.c ****   */
 601:.\stlib\STM32F10x_StdPeriph_Driver\src/stm32f10x_sdio.c **** void SDIO_CommandCompletionCmd(FunctionalState NewState)
 602:.\stlib\STM32F10x_StdPeriph_Driver\src/stm32f10x_sdio.c **** { 
 1048              		.loc 1 602 1 is_stmt 1 view -0
 1049              		.cfi_startproc
 1050              		@ args = 0, pretend = 0, frame = 0
 1051              		@ frame_needed = 0, uses_anonymous_args = 0
 1052              		@ link register save eliminated.
 603:.\stlib\STM32F10x_StdPeriph_Driver\src/stm32f10x_sdio.c ****   /* Check the parameters */
 604:.\stlib\STM32F10x_StdPeriph_Driver\src/stm32f10x_sdio.c ****   assert_param(IS_FUNCTIONAL_STATE(NewState));
 1053              		.loc 1 604 3 view .LVU214
 605:.\stlib\STM32F10x_StdPeriph_Driver\src/stm32f10x_sdio.c ****   
 606:.\stlib\STM32F10x_StdPeriph_Driver\src/stm32f10x_sdio.c ****   *(__IO uint32_t *) CMD_ENCMDCOMPL_BB = (uint32_t)NewState;
 1054              		.loc 1 606 3 view .LVU215
 1055              	@ .\stlib\STM32F10x_StdPeriph_Driver\src\stm32f10x_sdio.c:606:   *(__IO uint32_t *) CMD_ENCMDCOMPL_
 1056              		.loc 1 606 40 is_stmt 0 view .LVU216
 1057 01c8 014B     		ldr	r3, .L68	@ tmp112,
 1058 01ca 1860     		str	r0, [r3]	@ NewState, MEM[(volatile uint32_t *)1110442416B]
 1059              	@ .\stlib\STM32F10x_StdPeriph_Driver\src\stm32f10x_sdio.c:607: }
 607:.\stlib\STM32F10x_StdPeriph_Driver\src/stm32f10x_sdio.c **** }
 1060              		.loc 1 607 1 view .LVU217
 1061 01cc 7047     		bx	lr	@
 1062              	.L69:
 1063 01ce 00BF     		.align	2
 1064              	.L68:
 1065 01d0 B0013042 		.word	1110442416
 1066              		.cfi_endproc
 1067              	.LFE52:
 1068              		.size	SDIO_CommandCompletionCmd, .-SDIO_CommandCompletionCmd
 1069              		.align	1
 1070              		.global	SDIO_CEATAITCmd
 1071              		.syntax unified
 1072              		.thumb
ARM GAS  C:\Users\skey\AppData\Local\Temp\ccZCz5DZ.s 			page 31


 1073              		.thumb_func
 1074              		.fpu softvfp
 1075              		.type	SDIO_CEATAITCmd, %function
 1076              	SDIO_CEATAITCmd:
 1077              	.LVL32:
 1078              	.LFB53:
 608:.\stlib\STM32F10x_StdPeriph_Driver\src/stm32f10x_sdio.c **** 
 609:.\stlib\STM32F10x_StdPeriph_Driver\src/stm32f10x_sdio.c **** /**
 610:.\stlib\STM32F10x_StdPeriph_Driver\src/stm32f10x_sdio.c ****   * @brief  Enables or disables the CE-ATA interrupt.
 611:.\stlib\STM32F10x_StdPeriph_Driver\src/stm32f10x_sdio.c ****   * @param  NewState: new state of CE-ATA interrupt. This parameter can be: ENABLE or DISABLE.
 612:.\stlib\STM32F10x_StdPeriph_Driver\src/stm32f10x_sdio.c ****   * @retval None
 613:.\stlib\STM32F10x_StdPeriph_Driver\src/stm32f10x_sdio.c ****   */
 614:.\stlib\STM32F10x_StdPeriph_Driver\src/stm32f10x_sdio.c **** void SDIO_CEATAITCmd(FunctionalState NewState)
 615:.\stlib\STM32F10x_StdPeriph_Driver\src/stm32f10x_sdio.c **** { 
 1079              		.loc 1 615 1 is_stmt 1 view -0
 1080              		.cfi_startproc
 1081              		@ args = 0, pretend = 0, frame = 0
 1082              		@ frame_needed = 0, uses_anonymous_args = 0
 1083              		@ link register save eliminated.
 616:.\stlib\STM32F10x_StdPeriph_Driver\src/stm32f10x_sdio.c ****   /* Check the parameters */
 617:.\stlib\STM32F10x_StdPeriph_Driver\src/stm32f10x_sdio.c ****   assert_param(IS_FUNCTIONAL_STATE(NewState));
 1084              		.loc 1 617 3 view .LVU219
 618:.\stlib\STM32F10x_StdPeriph_Driver\src/stm32f10x_sdio.c ****   
 619:.\stlib\STM32F10x_StdPeriph_Driver\src/stm32f10x_sdio.c ****   *(__IO uint32_t *) CMD_NIEN_BB = (uint32_t)((~((uint32_t)NewState)) & ((uint32_t)0x1));
 1085              		.loc 1 619 3 view .LVU220
 1086              	@ .\stlib\STM32F10x_StdPeriph_Driver\src\stm32f10x_sdio.c:619:   *(__IO uint32_t *) CMD_NIEN_BB = (
 1087              		.loc 1 619 36 is_stmt 0 view .LVU221
 1088 01d4 C043     		mvns	r0, r0	@ tmp114, tmp118
 1089              	.LVL33:
 1090              	@ .\stlib\STM32F10x_StdPeriph_Driver\src\stm32f10x_sdio.c:619:   *(__IO uint32_t *) CMD_NIEN_BB = (
 1091              		.loc 1 619 34 view .LVU222
 1092 01d6 024B     		ldr	r3, .L71	@ tmp117,
 1093              	@ .\stlib\STM32F10x_StdPeriph_Driver\src\stm32f10x_sdio.c:619:   *(__IO uint32_t *) CMD_NIEN_BB = (
 1094              		.loc 1 619 36 view .LVU223
 1095 01d8 00F00100 		and	r0, r0, #1	@ _2, tmp114,
 1096              	@ .\stlib\STM32F10x_StdPeriph_Driver\src\stm32f10x_sdio.c:619:   *(__IO uint32_t *) CMD_NIEN_BB = (
 1097              		.loc 1 619 34 view .LVU224
 1098 01dc 1860     		str	r0, [r3]	@ _2, MEM[(volatile uint32_t *)1110442420B]
 1099              	@ .\stlib\STM32F10x_StdPeriph_Driver\src\stm32f10x_sdio.c:620: }
 620:.\stlib\STM32F10x_StdPeriph_Driver\src/stm32f10x_sdio.c **** }
 1100              		.loc 1 620 1 view .LVU225
 1101 01de 7047     		bx	lr	@
 1102              	.L72:
 1103              		.align	2
 1104              	.L71:
 1105 01e0 B4013042 		.word	1110442420
 1106              		.cfi_endproc
 1107              	.LFE53:
 1108              		.size	SDIO_CEATAITCmd, .-SDIO_CEATAITCmd
 1109              		.align	1
 1110              		.global	SDIO_SendCEATACmd
 1111              		.syntax unified
 1112              		.thumb
 1113              		.thumb_func
 1114              		.fpu softvfp
 1115              		.type	SDIO_SendCEATACmd, %function
 1116              	SDIO_SendCEATACmd:
ARM GAS  C:\Users\skey\AppData\Local\Temp\ccZCz5DZ.s 			page 32


 1117              	.LVL34:
 1118              	.LFB54:
 621:.\stlib\STM32F10x_StdPeriph_Driver\src/stm32f10x_sdio.c **** 
 622:.\stlib\STM32F10x_StdPeriph_Driver\src/stm32f10x_sdio.c **** /**
 623:.\stlib\STM32F10x_StdPeriph_Driver\src/stm32f10x_sdio.c ****   * @brief  Sends CE-ATA command (CMD61).
 624:.\stlib\STM32F10x_StdPeriph_Driver\src/stm32f10x_sdio.c ****   * @param  NewState: new state of CE-ATA command. This parameter can be: ENABLE or DISABLE.
 625:.\stlib\STM32F10x_StdPeriph_Driver\src/stm32f10x_sdio.c ****   * @retval None
 626:.\stlib\STM32F10x_StdPeriph_Driver\src/stm32f10x_sdio.c ****   */
 627:.\stlib\STM32F10x_StdPeriph_Driver\src/stm32f10x_sdio.c **** void SDIO_SendCEATACmd(FunctionalState NewState)
 628:.\stlib\STM32F10x_StdPeriph_Driver\src/stm32f10x_sdio.c **** { 
 1119              		.loc 1 628 1 is_stmt 1 view -0
 1120              		.cfi_startproc
 1121              		@ args = 0, pretend = 0, frame = 0
 1122              		@ frame_needed = 0, uses_anonymous_args = 0
 1123              		@ link register save eliminated.
 629:.\stlib\STM32F10x_StdPeriph_Driver\src/stm32f10x_sdio.c ****   /* Check the parameters */
 630:.\stlib\STM32F10x_StdPeriph_Driver\src/stm32f10x_sdio.c ****   assert_param(IS_FUNCTIONAL_STATE(NewState));
 1124              		.loc 1 630 3 view .LVU227
 631:.\stlib\STM32F10x_StdPeriph_Driver\src/stm32f10x_sdio.c ****   
 632:.\stlib\STM32F10x_StdPeriph_Driver\src/stm32f10x_sdio.c ****   *(__IO uint32_t *) CMD_ATACMD_BB = (uint32_t)NewState;
 1125              		.loc 1 632 3 view .LVU228
 1126              	@ .\stlib\STM32F10x_StdPeriph_Driver\src\stm32f10x_sdio.c:632:   *(__IO uint32_t *) CMD_ATACMD_BB =
 1127              		.loc 1 632 36 is_stmt 0 view .LVU229
 1128 01e4 014B     		ldr	r3, .L74	@ tmp112,
 1129 01e6 1860     		str	r0, [r3]	@ NewState, MEM[(volatile uint32_t *)1110442424B]
 1130              	@ .\stlib\STM32F10x_StdPeriph_Driver\src\stm32f10x_sdio.c:633: }
 633:.\stlib\STM32F10x_StdPeriph_Driver\src/stm32f10x_sdio.c **** }
 1131              		.loc 1 633 1 view .LVU230
 1132 01e8 7047     		bx	lr	@
 1133              	.L75:
 1134 01ea 00BF     		.align	2
 1135              	.L74:
 1136 01ec B8013042 		.word	1110442424
 1137              		.cfi_endproc
 1138              	.LFE54:
 1139              		.size	SDIO_SendCEATACmd, .-SDIO_SendCEATACmd
 1140              		.align	1
 1141              		.global	SDIO_GetFlagStatus
 1142              		.syntax unified
 1143              		.thumb
 1144              		.thumb_func
 1145              		.fpu softvfp
 1146              		.type	SDIO_GetFlagStatus, %function
 1147              	SDIO_GetFlagStatus:
 1148              	.LVL35:
 1149              	.LFB55:
 634:.\stlib\STM32F10x_StdPeriph_Driver\src/stm32f10x_sdio.c **** 
 635:.\stlib\STM32F10x_StdPeriph_Driver\src/stm32f10x_sdio.c **** /**
 636:.\stlib\STM32F10x_StdPeriph_Driver\src/stm32f10x_sdio.c ****   * @brief  Checks whether the specified SDIO flag is set or not.
 637:.\stlib\STM32F10x_StdPeriph_Driver\src/stm32f10x_sdio.c ****   * @param  SDIO_FLAG: specifies the flag to check. 
 638:.\stlib\STM32F10x_StdPeriph_Driver\src/stm32f10x_sdio.c ****   *   This parameter can be one of the following values:
 639:.\stlib\STM32F10x_StdPeriph_Driver\src/stm32f10x_sdio.c ****   *     @arg SDIO_FLAG_CCRCFAIL: Command response received (CRC check failed)
 640:.\stlib\STM32F10x_StdPeriph_Driver\src/stm32f10x_sdio.c ****   *     @arg SDIO_FLAG_DCRCFAIL: Data block sent/received (CRC check failed)
 641:.\stlib\STM32F10x_StdPeriph_Driver\src/stm32f10x_sdio.c ****   *     @arg SDIO_FLAG_CTIMEOUT: Command response timeout
 642:.\stlib\STM32F10x_StdPeriph_Driver\src/stm32f10x_sdio.c ****   *     @arg SDIO_FLAG_DTIMEOUT: Data timeout
 643:.\stlib\STM32F10x_StdPeriph_Driver\src/stm32f10x_sdio.c ****   *     @arg SDIO_FLAG_TXUNDERR: Transmit FIFO underrun error
 644:.\stlib\STM32F10x_StdPeriph_Driver\src/stm32f10x_sdio.c ****   *     @arg SDIO_FLAG_RXOVERR:  Received FIFO overrun error
ARM GAS  C:\Users\skey\AppData\Local\Temp\ccZCz5DZ.s 			page 33


 645:.\stlib\STM32F10x_StdPeriph_Driver\src/stm32f10x_sdio.c ****   *     @arg SDIO_FLAG_CMDREND:  Command response received (CRC check passed)
 646:.\stlib\STM32F10x_StdPeriph_Driver\src/stm32f10x_sdio.c ****   *     @arg SDIO_FLAG_CMDSENT:  Command sent (no response required)
 647:.\stlib\STM32F10x_StdPeriph_Driver\src/stm32f10x_sdio.c ****   *     @arg SDIO_FLAG_DATAEND:  Data end (data counter, SDIDCOUNT, is zero)
 648:.\stlib\STM32F10x_StdPeriph_Driver\src/stm32f10x_sdio.c ****   *     @arg SDIO_FLAG_STBITERR: Start bit not detected on all data signals in wide 
 649:.\stlib\STM32F10x_StdPeriph_Driver\src/stm32f10x_sdio.c ****   *                              bus mode.
 650:.\stlib\STM32F10x_StdPeriph_Driver\src/stm32f10x_sdio.c ****   *     @arg SDIO_FLAG_DBCKEND:  Data block sent/received (CRC check passed)
 651:.\stlib\STM32F10x_StdPeriph_Driver\src/stm32f10x_sdio.c ****   *     @arg SDIO_FLAG_CMDACT:   Command transfer in progress
 652:.\stlib\STM32F10x_StdPeriph_Driver\src/stm32f10x_sdio.c ****   *     @arg SDIO_FLAG_TXACT:    Data transmit in progress
 653:.\stlib\STM32F10x_StdPeriph_Driver\src/stm32f10x_sdio.c ****   *     @arg SDIO_FLAG_RXACT:    Data receive in progress
 654:.\stlib\STM32F10x_StdPeriph_Driver\src/stm32f10x_sdio.c ****   *     @arg SDIO_FLAG_TXFIFOHE: Transmit FIFO Half Empty
 655:.\stlib\STM32F10x_StdPeriph_Driver\src/stm32f10x_sdio.c ****   *     @arg SDIO_FLAG_RXFIFOHF: Receive FIFO Half Full
 656:.\stlib\STM32F10x_StdPeriph_Driver\src/stm32f10x_sdio.c ****   *     @arg SDIO_FLAG_TXFIFOF:  Transmit FIFO full
 657:.\stlib\STM32F10x_StdPeriph_Driver\src/stm32f10x_sdio.c ****   *     @arg SDIO_FLAG_RXFIFOF:  Receive FIFO full
 658:.\stlib\STM32F10x_StdPeriph_Driver\src/stm32f10x_sdio.c ****   *     @arg SDIO_FLAG_TXFIFOE:  Transmit FIFO empty
 659:.\stlib\STM32F10x_StdPeriph_Driver\src/stm32f10x_sdio.c ****   *     @arg SDIO_FLAG_RXFIFOE:  Receive FIFO empty
 660:.\stlib\STM32F10x_StdPeriph_Driver\src/stm32f10x_sdio.c ****   *     @arg SDIO_FLAG_TXDAVL:   Data available in transmit FIFO
 661:.\stlib\STM32F10x_StdPeriph_Driver\src/stm32f10x_sdio.c ****   *     @arg SDIO_FLAG_RXDAVL:   Data available in receive FIFO
 662:.\stlib\STM32F10x_StdPeriph_Driver\src/stm32f10x_sdio.c ****   *     @arg SDIO_FLAG_SDIOIT:   SD I/O interrupt received
 663:.\stlib\STM32F10x_StdPeriph_Driver\src/stm32f10x_sdio.c ****   *     @arg SDIO_FLAG_CEATAEND: CE-ATA command completion signal received for CMD61
 664:.\stlib\STM32F10x_StdPeriph_Driver\src/stm32f10x_sdio.c ****   * @retval The new state of SDIO_FLAG (SET or RESET).
 665:.\stlib\STM32F10x_StdPeriph_Driver\src/stm32f10x_sdio.c ****   */
 666:.\stlib\STM32F10x_StdPeriph_Driver\src/stm32f10x_sdio.c **** FlagStatus SDIO_GetFlagStatus(uint32_t SDIO_FLAG)
 667:.\stlib\STM32F10x_StdPeriph_Driver\src/stm32f10x_sdio.c **** { 
 1150              		.loc 1 667 1 is_stmt 1 view -0
 1151              		.cfi_startproc
 1152              		@ args = 0, pretend = 0, frame = 0
 1153              		@ frame_needed = 0, uses_anonymous_args = 0
 1154              		@ link register save eliminated.
 668:.\stlib\STM32F10x_StdPeriph_Driver\src/stm32f10x_sdio.c ****   FlagStatus bitstatus = RESET;
 1155              		.loc 1 668 3 view .LVU232
 669:.\stlib\STM32F10x_StdPeriph_Driver\src/stm32f10x_sdio.c ****   
 670:.\stlib\STM32F10x_StdPeriph_Driver\src/stm32f10x_sdio.c ****   /* Check the parameters */
 671:.\stlib\STM32F10x_StdPeriph_Driver\src/stm32f10x_sdio.c ****   assert_param(IS_SDIO_FLAG(SDIO_FLAG));
 1156              		.loc 1 671 3 view .LVU233
 672:.\stlib\STM32F10x_StdPeriph_Driver\src/stm32f10x_sdio.c ****   
 673:.\stlib\STM32F10x_StdPeriph_Driver\src/stm32f10x_sdio.c ****   if ((SDIO->STA & SDIO_FLAG) != (uint32_t)RESET)
 1157              		.loc 1 673 3 view .LVU234
 1158              	@ .\stlib\STM32F10x_StdPeriph_Driver\src\stm32f10x_sdio.c:673:   if ((SDIO->STA & SDIO_FLAG) != (ui
 1159              		.loc 1 673 12 is_stmt 0 view .LVU235
 1160 01f0 034B     		ldr	r3, .L77	@ tmp115,
 1161 01f2 5B6B     		ldr	r3, [r3, #52]	@ _1, MEM[(struct SDIO_TypeDef *)1073840128B].STA
 1162              	.LVL36:
 674:.\stlib\STM32F10x_StdPeriph_Driver\src/stm32f10x_sdio.c ****   {
 675:.\stlib\STM32F10x_StdPeriph_Driver\src/stm32f10x_sdio.c ****     bitstatus = SET;
 676:.\stlib\STM32F10x_StdPeriph_Driver\src/stm32f10x_sdio.c ****   }
 677:.\stlib\STM32F10x_StdPeriph_Driver\src/stm32f10x_sdio.c ****   else
 678:.\stlib\STM32F10x_StdPeriph_Driver\src/stm32f10x_sdio.c ****   {
 679:.\stlib\STM32F10x_StdPeriph_Driver\src/stm32f10x_sdio.c ****     bitstatus = RESET;
 680:.\stlib\STM32F10x_StdPeriph_Driver\src/stm32f10x_sdio.c ****   }
 681:.\stlib\STM32F10x_StdPeriph_Driver\src/stm32f10x_sdio.c ****   return bitstatus;
 1163              		.loc 1 681 3 is_stmt 1 view .LVU236
 1164              	@ .\stlib\STM32F10x_StdPeriph_Driver\src\stm32f10x_sdio.c:673:   if ((SDIO->STA & SDIO_FLAG) != (ui
 673:.\stlib\STM32F10x_StdPeriph_Driver\src/stm32f10x_sdio.c ****   {
 1165              		.loc 1 673 6 is_stmt 0 view .LVU237
 1166 01f4 0342     		tst	r3, r0	@ _1, tmp120
 1167              	@ .\stlib\STM32F10x_StdPeriph_Driver\src\stm32f10x_sdio.c:682: }
 682:.\stlib\STM32F10x_StdPeriph_Driver\src/stm32f10x_sdio.c **** }
ARM GAS  C:\Users\skey\AppData\Local\Temp\ccZCz5DZ.s 			page 34


 1168              		.loc 1 682 1 view .LVU238
 1169 01f6 14BF     		ite	ne
 1170 01f8 0120     		movne	r0, #1	@,
 1171              	.LVL37:
 1172              		.loc 1 682 1 view .LVU239
 1173 01fa 0020     		moveq	r0, #0	@,
 1174 01fc 7047     		bx	lr	@
 1175              	.L78:
 1176 01fe 00BF     		.align	2
 1177              	.L77:
 1178 0200 00800140 		.word	1073840128
 1179              		.cfi_endproc
 1180              	.LFE55:
 1181              		.size	SDIO_GetFlagStatus, .-SDIO_GetFlagStatus
 1182              		.align	1
 1183              		.global	SDIO_ClearFlag
 1184              		.syntax unified
 1185              		.thumb
 1186              		.thumb_func
 1187              		.fpu softvfp
 1188              		.type	SDIO_ClearFlag, %function
 1189              	SDIO_ClearFlag:
 1190              	.LVL38:
 1191              	.LFB56:
 683:.\stlib\STM32F10x_StdPeriph_Driver\src/stm32f10x_sdio.c **** 
 684:.\stlib\STM32F10x_StdPeriph_Driver\src/stm32f10x_sdio.c **** /**
 685:.\stlib\STM32F10x_StdPeriph_Driver\src/stm32f10x_sdio.c ****   * @brief  Clears the SDIO's pending flags.
 686:.\stlib\STM32F10x_StdPeriph_Driver\src/stm32f10x_sdio.c ****   * @param  SDIO_FLAG: specifies the flag to clear.  
 687:.\stlib\STM32F10x_StdPeriph_Driver\src/stm32f10x_sdio.c ****   *   This parameter can be one or a combination of the following values:
 688:.\stlib\STM32F10x_StdPeriph_Driver\src/stm32f10x_sdio.c ****   *     @arg SDIO_FLAG_CCRCFAIL: Command response received (CRC check failed)
 689:.\stlib\STM32F10x_StdPeriph_Driver\src/stm32f10x_sdio.c ****   *     @arg SDIO_FLAG_DCRCFAIL: Data block sent/received (CRC check failed)
 690:.\stlib\STM32F10x_StdPeriph_Driver\src/stm32f10x_sdio.c ****   *     @arg SDIO_FLAG_CTIMEOUT: Command response timeout
 691:.\stlib\STM32F10x_StdPeriph_Driver\src/stm32f10x_sdio.c ****   *     @arg SDIO_FLAG_DTIMEOUT: Data timeout
 692:.\stlib\STM32F10x_StdPeriph_Driver\src/stm32f10x_sdio.c ****   *     @arg SDIO_FLAG_TXUNDERR: Transmit FIFO underrun error
 693:.\stlib\STM32F10x_StdPeriph_Driver\src/stm32f10x_sdio.c ****   *     @arg SDIO_FLAG_RXOVERR:  Received FIFO overrun error
 694:.\stlib\STM32F10x_StdPeriph_Driver\src/stm32f10x_sdio.c ****   *     @arg SDIO_FLAG_CMDREND:  Command response received (CRC check passed)
 695:.\stlib\STM32F10x_StdPeriph_Driver\src/stm32f10x_sdio.c ****   *     @arg SDIO_FLAG_CMDSENT:  Command sent (no response required)
 696:.\stlib\STM32F10x_StdPeriph_Driver\src/stm32f10x_sdio.c ****   *     @arg SDIO_FLAG_DATAEND:  Data end (data counter, SDIDCOUNT, is zero)
 697:.\stlib\STM32F10x_StdPeriph_Driver\src/stm32f10x_sdio.c ****   *     @arg SDIO_FLAG_STBITERR: Start bit not detected on all data signals in wide 
 698:.\stlib\STM32F10x_StdPeriph_Driver\src/stm32f10x_sdio.c ****   *                              bus mode
 699:.\stlib\STM32F10x_StdPeriph_Driver\src/stm32f10x_sdio.c ****   *     @arg SDIO_FLAG_DBCKEND:  Data block sent/received (CRC check passed)
 700:.\stlib\STM32F10x_StdPeriph_Driver\src/stm32f10x_sdio.c ****   *     @arg SDIO_FLAG_SDIOIT:   SD I/O interrupt received
 701:.\stlib\STM32F10x_StdPeriph_Driver\src/stm32f10x_sdio.c ****   *     @arg SDIO_FLAG_CEATAEND: CE-ATA command completion signal received for CMD61
 702:.\stlib\STM32F10x_StdPeriph_Driver\src/stm32f10x_sdio.c ****   * @retval None
 703:.\stlib\STM32F10x_StdPeriph_Driver\src/stm32f10x_sdio.c ****   */
 704:.\stlib\STM32F10x_StdPeriph_Driver\src/stm32f10x_sdio.c **** void SDIO_ClearFlag(uint32_t SDIO_FLAG)
 705:.\stlib\STM32F10x_StdPeriph_Driver\src/stm32f10x_sdio.c **** { 
 1192              		.loc 1 705 1 is_stmt 1 view -0
 1193              		.cfi_startproc
 1194              		@ args = 0, pretend = 0, frame = 0
 1195              		@ frame_needed = 0, uses_anonymous_args = 0
 1196              		@ link register save eliminated.
 706:.\stlib\STM32F10x_StdPeriph_Driver\src/stm32f10x_sdio.c ****   /* Check the parameters */
 707:.\stlib\STM32F10x_StdPeriph_Driver\src/stm32f10x_sdio.c ****   assert_param(IS_SDIO_CLEAR_FLAG(SDIO_FLAG));
 1197              		.loc 1 707 3 view .LVU241
 708:.\stlib\STM32F10x_StdPeriph_Driver\src/stm32f10x_sdio.c ****    
 709:.\stlib\STM32F10x_StdPeriph_Driver\src/stm32f10x_sdio.c ****   SDIO->ICR = SDIO_FLAG;
ARM GAS  C:\Users\skey\AppData\Local\Temp\ccZCz5DZ.s 			page 35


 1198              		.loc 1 709 3 view .LVU242
 1199              	@ .\stlib\STM32F10x_StdPeriph_Driver\src\stm32f10x_sdio.c:709:   SDIO->ICR = SDIO_FLAG;
 1200              		.loc 1 709 13 is_stmt 0 view .LVU243
 1201 0204 014B     		ldr	r3, .L80	@ tmp111,
 1202 0206 9863     		str	r0, [r3, #56]	@ SDIO_FLAG, MEM[(struct SDIO_TypeDef *)1073840128B].ICR
 1203              	@ .\stlib\STM32F10x_StdPeriph_Driver\src\stm32f10x_sdio.c:710: }
 710:.\stlib\STM32F10x_StdPeriph_Driver\src/stm32f10x_sdio.c **** }
 1204              		.loc 1 710 1 view .LVU244
 1205 0208 7047     		bx	lr	@
 1206              	.L81:
 1207 020a 00BF     		.align	2
 1208              	.L80:
 1209 020c 00800140 		.word	1073840128
 1210              		.cfi_endproc
 1211              	.LFE56:
 1212              		.size	SDIO_ClearFlag, .-SDIO_ClearFlag
 1213              		.align	1
 1214              		.global	SDIO_GetITStatus
 1215              		.syntax unified
 1216              		.thumb
 1217              		.thumb_func
 1218              		.fpu softvfp
 1219              		.type	SDIO_GetITStatus, %function
 1220              	SDIO_GetITStatus:
 1221              	.LFB62:
 1222              		.cfi_startproc
 1223              		@ args = 0, pretend = 0, frame = 0
 1224              		@ frame_needed = 0, uses_anonymous_args = 0
 1225              		@ link register save eliminated.
 1226 0210 FFF7FEBF 		b	SDIO_GetFlagStatus		@
 1227              		.cfi_endproc
 1228              	.LFE62:
 1229              		.size	SDIO_GetITStatus, .-SDIO_GetITStatus
 1230              		.align	1
 1231              		.global	SDIO_ClearITPendingBit
 1232              		.syntax unified
 1233              		.thumb
 1234              		.thumb_func
 1235              		.fpu softvfp
 1236              		.type	SDIO_ClearITPendingBit, %function
 1237              	SDIO_ClearITPendingBit:
 1238              	.LFB60:
 1239              		.cfi_startproc
 1240              		@ args = 0, pretend = 0, frame = 0
 1241              		@ frame_needed = 0, uses_anonymous_args = 0
 1242              		@ link register save eliminated.
 1243 0214 014B     		ldr	r3, .L84	@ tmp111,
 1244 0216 9863     		str	r0, [r3, #56]	@ SDIO_IT, MEM[(struct SDIO_TypeDef *)1073840128B].ICR
 1245 0218 7047     		bx	lr	@
 1246              	.L85:
 1247 021a 00BF     		.align	2
 1248              	.L84:
 1249 021c 00800140 		.word	1073840128
 1250              		.cfi_endproc
 1251              	.LFE60:
 1252              		.size	SDIO_ClearITPendingBit, .-SDIO_ClearITPendingBit
 1253              	.Letext0:
ARM GAS  C:\Users\skey\AppData\Local\Temp\ccZCz5DZ.s 			page 36


 1254              		.file 2 "c:\\program files (x86)\\gnu tools arm embedded\\9 2019-q4-major\\arm-none-eabi\\include\
 1255              		.file 3 "c:\\program files (x86)\\gnu tools arm embedded\\9 2019-q4-major\\arm-none-eabi\\include\
 1256              		.file 4 ".\\stlib\\CMSIS\\CM3\\CoreSupport/core_cm3.h"
 1257              		.file 5 ".\\stlib\\CMSIS\\CM3\\DeviceSupport\\ST\\STM32F10x/system_stm32f10x.h"
 1258              		.file 6 ".\\stlib\\CMSIS\\CM3\\DeviceSupport\\ST\\STM32F10x/stm32f10x.h"
 1259              		.file 7 ".\\stlib\\STM32F10x_StdPeriph_Driver\\inc/stm32f10x_sdio.h"