ARM GAS  C:\Users\skey\AppData\Local\Temp\ccX2fGbd.s 			page 1


   1              		.cpu cortex-m3
   2              		.eabi_attribute 20, 1	@ Tag_ABI_FP_denormal
   3              		.eabi_attribute 21, 1	@ Tag_ABI_FP_exceptions
   4              		.eabi_attribute 23, 3	@ Tag_ABI_FP_number_model
   5              		.eabi_attribute 24, 1	@ Tag_ABI_align8_needed
   6              		.eabi_attribute 25, 1	@ Tag_ABI_align8_preserved
   7              		.eabi_attribute 26, 1	@ Tag_ABI_enum_size
   8              		.eabi_attribute 30, 4	@ Tag_ABI_optimization_goals
   9              		.eabi_attribute 34, 1	@ Tag_CPU_unaligned_access
  10              		.eabi_attribute 18, 4	@ Tag_ABI_PCS_wchar_t
  11              		.file	"heap_4.c"
  12              	@ GNU C17 (GNU Tools for Arm Embedded Processors 9-2019-q4-major) version 9.2.1 20191025 (release) 
  13              	@	compiled by GNU C version 5.3.1 20160211, GMP version 6.1.0, MPFR version 3.1.4, MPC version 1.0.
  14              	
  15              	@ GGC heuristics: --param ggc-min-expand=100 --param ggc-min-heapsize=131072
  16              	@ options passed:  -I . -I .\usr_inc -I .\task_inc
  17              	@ -I .\stlib\CMSIS\CM3\CoreSupport
  18              	@ -I .\stlib\CMSIS\CM3\DeviceSupport\ST\STM32F10x
  19              	@ -I .\stlib\STM32F10x_StdPeriph_Driver\inc
  20              	@ -I .\stlib\STM32F10x_StdPeriph_Driver -I .\freertos\include
  21              	@ -I .\freertos\portable\GCC\ARM_CM3 -imultilib thumb/v7-m/nofp
  22              	@ -iprefix c:\program files (x86)\gnu tools arm embedded\9 2019-q4-major\bin\../lib/gcc/arm-none-ea
  23              	@ -isysroot c:\program files (x86)\gnu tools arm embedded\9 2019-q4-major\bin\../arm-none-eabi
  24              	@ -D__USES_INITFINI__ -D STM32F10X_HD -D USE_STDPERIPH_DRIVER
  25              	@ -D HSE_VALUE=8000000 -D RUN_FROM_FLASH=1
  26              	@ .\freertos\portable\MemMang\heap_4.c -mcpu=cortex-m3 -mthumb
  27              	@ -mfloat-abi=soft -march=armv7-m
  28              	@ -auxbase-strip .\freertos\portable\MemMang\heap_4.o -g -gdwarf-2 -Os
  29              	@ -Wall -fomit-frame-pointer -fverbose-asm
  30              	@ options enabled:  -faggressive-loop-optimizations -fassume-phsa
  31              	@ -fauto-inc-dec -fbranch-count-reg -fcaller-saves -fcode-hoisting
  32              	@ -fcombine-stack-adjustments -fcommon -fcompare-elim -fcprop-registers
  33              	@ -fcrossjumping -fcse-follow-jumps -fdefer-pop
  34              	@ -fdelete-null-pointer-checks -fdevirtualize -fdevirtualize-speculatively
  35              	@ -fdwarf2-cfi-asm -fearly-inlining -feliminate-unused-debug-types
  36              	@ -fexpensive-optimizations -fforward-propagate -ffp-int-builtin-inexact
  37              	@ -ffunction-cse -fgcse -fgcse-lm -fgnu-runtime -fgnu-unique
  38              	@ -fguess-branch-probability -fhoist-adjacent-loads -fident -fif-conversion
  39              	@ -fif-conversion2 -findirect-inlining -finline -finline-atomics
  40              	@ -finline-functions -finline-functions-called-once
  41              	@ -finline-small-functions -fipa-bit-cp -fipa-cp -fipa-icf
  42              	@ -fipa-icf-functions -fipa-icf-variables -fipa-profile -fipa-pure-const
  43              	@ -fipa-ra -fipa-reference -fipa-reference-addressable -fipa-sra
  44              	@ -fipa-stack-alignment -fipa-vrp -fira-hoist-pressure
  45              	@ -fira-share-save-slots -fira-share-spill-slots
  46              	@ -fisolate-erroneous-paths-dereference -fivopts -fkeep-static-consts
  47              	@ -fleading-underscore -flifetime-dse -flra-remat -flto-odr-type-merging
  48              	@ -fmath-errno -fmerge-constants -fmerge-debug-strings
  49              	@ -fmove-loop-invariants -fomit-frame-pointer -foptimize-sibling-calls
  50              	@ -fpartial-inlining -fpeephole -fpeephole2 -fplt -fprefetch-loop-arrays
  51              	@ -freg-struct-return -freorder-blocks -freorder-functions
  52              	@ -frerun-cse-after-loop -fsched-critical-path-heuristic
  53              	@ -fsched-dep-count-heuristic -fsched-group-heuristic -fsched-interblock
  54              	@ -fsched-last-insn-heuristic -fsched-pressure -fsched-rank-heuristic
  55              	@ -fsched-spec -fsched-spec-insn-heuristic -fsched-stalled-insns-dep
  56              	@ -fschedule-insns2 -fsection-anchors -fsemantic-interposition
  57              	@ -fshow-column -fshrink-wrap-separate -fsigned-zeros
ARM GAS  C:\Users\skey\AppData\Local\Temp\ccX2fGbd.s 			page 2


  58              	@ -fsplit-ivs-in-unroller -fsplit-wide-types -fssa-backprop -fssa-phiopt
  59              	@ -fstdarg-opt -fstore-merging -fstrict-aliasing
  60              	@ -fstrict-volatile-bitfields -fsync-libcalls -fthread-jumps
  61              	@ -ftoplevel-reorder -ftrapping-math -ftree-bit-ccp -ftree-builtin-call-dce
  62              	@ -ftree-ccp -ftree-ch -ftree-coalesce-vars -ftree-copy-prop -ftree-cselim
  63              	@ -ftree-dce -ftree-dominator-opts -ftree-dse -ftree-forwprop -ftree-fre
  64              	@ -ftree-loop-if-convert -ftree-loop-im -ftree-loop-ivcanon
  65              	@ -ftree-loop-optimize -ftree-parallelize-loops= -ftree-phiprop -ftree-pre
  66              	@ -ftree-pta -ftree-reassoc -ftree-scev-cprop -ftree-sink -ftree-slsr
  67              	@ -ftree-sra -ftree-switch-conversion -ftree-tail-merge -ftree-ter
  68              	@ -ftree-vrp -funit-at-a-time -fvar-tracking -fvar-tracking-assignments
  69              	@ -fverbose-asm -fzero-initialized-in-bss -masm-syntax-unified -mbe32
  70              	@ -mfix-cortex-m3-ldrd -mlittle-endian -mpic-data-is-text-relative
  71              	@ -msched-prolog -mthumb -munaligned-access -mvectorize-with-neon-quad
  72              	
  73              		.text
  74              	.Ltext0:
  75              		.cfi_sections	.debug_frame
  76              		.align	1
  77              		.arch armv7-m
  78              		.syntax unified
  79              		.thumb
  80              		.thumb_func
  81              		.fpu softvfp
  82              		.type	prvInsertBlockIntoFreeList, %function
  83              	prvInsertBlockIntoFreeList:
  84              	.LVL0:
  85              	.LFB40:
  86              		.file 1 ".\\freertos\\portable\\MemMang\\heap_4.c"
   1:.\freertos\portable\MemMang/heap_4.c **** /*
   2:.\freertos\portable\MemMang/heap_4.c ****  * FreeRTOS Kernel V10.2.1
   3:.\freertos\portable\MemMang/heap_4.c ****  * Copyright (C) 2019 Amazon.com, Inc. or its affiliates.  All Rights Reserved.
   4:.\freertos\portable\MemMang/heap_4.c ****  *
   5:.\freertos\portable\MemMang/heap_4.c ****  * Permission is hereby granted, free of charge, to any person obtaining a copy of
   6:.\freertos\portable\MemMang/heap_4.c ****  * this software and associated documentation files (the "Software"), to deal in
   7:.\freertos\portable\MemMang/heap_4.c ****  * the Software without restriction, including without limitation the rights to
   8:.\freertos\portable\MemMang/heap_4.c ****  * use, copy, modify, merge, publish, distribute, sublicense, and/or sell copies of
   9:.\freertos\portable\MemMang/heap_4.c ****  * the Software, and to permit persons to whom the Software is furnished to do so,
  10:.\freertos\portable\MemMang/heap_4.c ****  * subject to the following conditions:
  11:.\freertos\portable\MemMang/heap_4.c ****  *
  12:.\freertos\portable\MemMang/heap_4.c ****  * The above copyright notice and this permission notice shall be included in all
  13:.\freertos\portable\MemMang/heap_4.c ****  * copies or substantial portions of the Software.
  14:.\freertos\portable\MemMang/heap_4.c ****  *
  15:.\freertos\portable\MemMang/heap_4.c ****  * THE SOFTWARE IS PROVIDED "AS IS", WITHOUT WARRANTY OF ANY KIND, EXPRESS OR
  16:.\freertos\portable\MemMang/heap_4.c ****  * IMPLIED, INCLUDING BUT NOT LIMITED TO THE WARRANTIES OF MERCHANTABILITY, FITNESS
  17:.\freertos\portable\MemMang/heap_4.c ****  * FOR A PARTICULAR PURPOSE AND NONINFRINGEMENT. IN NO EVENT SHALL THE AUTHORS OR
  18:.\freertos\portable\MemMang/heap_4.c ****  * COPYRIGHT HOLDERS BE LIABLE FOR ANY CLAIM, DAMAGES OR OTHER LIABILITY, WHETHER
  19:.\freertos\portable\MemMang/heap_4.c ****  * IN AN ACTION OF CONTRACT, TORT OR OTHERWISE, ARISING FROM, OUT OF OR IN
  20:.\freertos\portable\MemMang/heap_4.c ****  * CONNECTION WITH THE SOFTWARE OR THE USE OR OTHER DEALINGS IN THE SOFTWARE.
  21:.\freertos\portable\MemMang/heap_4.c ****  *
  22:.\freertos\portable\MemMang/heap_4.c ****  * http://www.FreeRTOS.org
  23:.\freertos\portable\MemMang/heap_4.c ****  * http://aws.amazon.com/freertos
  24:.\freertos\portable\MemMang/heap_4.c ****  *
  25:.\freertos\portable\MemMang/heap_4.c ****  * 1 tab == 4 spaces!
  26:.\freertos\portable\MemMang/heap_4.c ****  */
  27:.\freertos\portable\MemMang/heap_4.c **** 
  28:.\freertos\portable\MemMang/heap_4.c **** /*
ARM GAS  C:\Users\skey\AppData\Local\Temp\ccX2fGbd.s 			page 3


  29:.\freertos\portable\MemMang/heap_4.c ****  * A sample implementation of pvPortMalloc() and vPortFree() that combines
  30:.\freertos\portable\MemMang/heap_4.c ****  * (coalescences) adjacent memory blocks as they are freed, and in so doing
  31:.\freertos\portable\MemMang/heap_4.c ****  * limits memory fragmentation.
  32:.\freertos\portable\MemMang/heap_4.c ****  *
  33:.\freertos\portable\MemMang/heap_4.c ****  * See heap_1.c, heap_2.c and heap_3.c for alternative implementations, and the
  34:.\freertos\portable\MemMang/heap_4.c ****  * memory management pages of http://www.FreeRTOS.org for more information.
  35:.\freertos\portable\MemMang/heap_4.c ****  */
  36:.\freertos\portable\MemMang/heap_4.c **** #include <stdlib.h>
  37:.\freertos\portable\MemMang/heap_4.c **** 
  38:.\freertos\portable\MemMang/heap_4.c **** /* Defining MPU_WRAPPERS_INCLUDED_FROM_API_FILE prevents task.h from redefining
  39:.\freertos\portable\MemMang/heap_4.c **** all the API functions to use the MPU wrappers.  That should only be done when
  40:.\freertos\portable\MemMang/heap_4.c **** task.h is included from an application file. */
  41:.\freertos\portable\MemMang/heap_4.c **** #define MPU_WRAPPERS_INCLUDED_FROM_API_FILE
  42:.\freertos\portable\MemMang/heap_4.c **** 
  43:.\freertos\portable\MemMang/heap_4.c **** #include "FreeRTOS.h"
  44:.\freertos\portable\MemMang/heap_4.c **** #include "task.h"
  45:.\freertos\portable\MemMang/heap_4.c **** 
  46:.\freertos\portable\MemMang/heap_4.c **** #undef MPU_WRAPPERS_INCLUDED_FROM_API_FILE
  47:.\freertos\portable\MemMang/heap_4.c **** 
  48:.\freertos\portable\MemMang/heap_4.c **** #if( configSUPPORT_DYNAMIC_ALLOCATION == 0 )
  49:.\freertos\portable\MemMang/heap_4.c **** 	#error This file must not be used if configSUPPORT_DYNAMIC_ALLOCATION is 0
  50:.\freertos\portable\MemMang/heap_4.c **** #endif
  51:.\freertos\portable\MemMang/heap_4.c **** 
  52:.\freertos\portable\MemMang/heap_4.c **** /* Block sizes must not get too small. */
  53:.\freertos\portable\MemMang/heap_4.c **** #define heapMINIMUM_BLOCK_SIZE	( ( size_t ) ( xHeapStructSize << 1 ) )
  54:.\freertos\portable\MemMang/heap_4.c **** 
  55:.\freertos\portable\MemMang/heap_4.c **** /* Assumes 8bit bytes! */
  56:.\freertos\portable\MemMang/heap_4.c **** #define heapBITS_PER_BYTE		( ( size_t ) 8 )
  57:.\freertos\portable\MemMang/heap_4.c **** 
  58:.\freertos\portable\MemMang/heap_4.c **** /* Allocate the memory for the heap. */
  59:.\freertos\portable\MemMang/heap_4.c **** #if( configAPPLICATION_ALLOCATED_HEAP == 1 )
  60:.\freertos\portable\MemMang/heap_4.c **** 	/* The application writer has already defined the array used for the RTOS
  61:.\freertos\portable\MemMang/heap_4.c **** 	heap - probably so it can be placed in a special segment or address. */
  62:.\freertos\portable\MemMang/heap_4.c **** 	extern uint8_t ucHeap[ configTOTAL_HEAP_SIZE ];
  63:.\freertos\portable\MemMang/heap_4.c **** #else
  64:.\freertos\portable\MemMang/heap_4.c **** 	static uint8_t ucHeap[ configTOTAL_HEAP_SIZE ];
  65:.\freertos\portable\MemMang/heap_4.c **** #endif /* configAPPLICATION_ALLOCATED_HEAP */
  66:.\freertos\portable\MemMang/heap_4.c **** 
  67:.\freertos\portable\MemMang/heap_4.c **** /* Define the linked list structure.  This is used to link free blocks in order
  68:.\freertos\portable\MemMang/heap_4.c **** of their memory address. */
  69:.\freertos\portable\MemMang/heap_4.c **** typedef struct A_BLOCK_LINK
  70:.\freertos\portable\MemMang/heap_4.c **** {
  71:.\freertos\portable\MemMang/heap_4.c **** 	struct A_BLOCK_LINK *pxNextFreeBlock;	/*<< The next free block in the list. */
  72:.\freertos\portable\MemMang/heap_4.c **** 	size_t xBlockSize;						/*<< The size of the free block. */
  73:.\freertos\portable\MemMang/heap_4.c **** } BlockLink_t;
  74:.\freertos\portable\MemMang/heap_4.c **** 
  75:.\freertos\portable\MemMang/heap_4.c **** /*-----------------------------------------------------------*/
  76:.\freertos\portable\MemMang/heap_4.c **** 
  77:.\freertos\portable\MemMang/heap_4.c **** /*
  78:.\freertos\portable\MemMang/heap_4.c ****  * Inserts a block of memory that is being freed into the correct position in
  79:.\freertos\portable\MemMang/heap_4.c ****  * the list of free memory blocks.  The block being freed will be merged with
  80:.\freertos\portable\MemMang/heap_4.c ****  * the block in front it and/or the block behind it if the memory blocks are
  81:.\freertos\portable\MemMang/heap_4.c ****  * adjacent to each other.
  82:.\freertos\portable\MemMang/heap_4.c ****  */
  83:.\freertos\portable\MemMang/heap_4.c **** static void prvInsertBlockIntoFreeList( BlockLink_t *pxBlockToInsert );
  84:.\freertos\portable\MemMang/heap_4.c **** 
  85:.\freertos\portable\MemMang/heap_4.c **** /*
ARM GAS  C:\Users\skey\AppData\Local\Temp\ccX2fGbd.s 			page 4


  86:.\freertos\portable\MemMang/heap_4.c ****  * Called automatically to setup the required heap structures the first time
  87:.\freertos\portable\MemMang/heap_4.c ****  * pvPortMalloc() is called.
  88:.\freertos\portable\MemMang/heap_4.c ****  */
  89:.\freertos\portable\MemMang/heap_4.c **** static void prvHeapInit( void );
  90:.\freertos\portable\MemMang/heap_4.c **** 
  91:.\freertos\portable\MemMang/heap_4.c **** /*-----------------------------------------------------------*/
  92:.\freertos\portable\MemMang/heap_4.c **** 
  93:.\freertos\portable\MemMang/heap_4.c **** /* The size of the structure placed at the beginning of each allocated memory
  94:.\freertos\portable\MemMang/heap_4.c **** block must by correctly byte aligned. */
  95:.\freertos\portable\MemMang/heap_4.c **** static const size_t xHeapStructSize	= ( sizeof( BlockLink_t ) + ( ( size_t ) ( portBYTE_ALIGNMENT -
  96:.\freertos\portable\MemMang/heap_4.c **** 
  97:.\freertos\portable\MemMang/heap_4.c **** /* Create a couple of list links to mark the start and end of the list. */
  98:.\freertos\portable\MemMang/heap_4.c **** static BlockLink_t xStart, *pxEnd = NULL;
  99:.\freertos\portable\MemMang/heap_4.c **** 
 100:.\freertos\portable\MemMang/heap_4.c **** /* Keeps track of the number of free bytes remaining, but says nothing about
 101:.\freertos\portable\MemMang/heap_4.c **** fragmentation. */
 102:.\freertos\portable\MemMang/heap_4.c **** static size_t xFreeBytesRemaining = 0U;
 103:.\freertos\portable\MemMang/heap_4.c **** static size_t xMinimumEverFreeBytesRemaining = 0U;
 104:.\freertos\portable\MemMang/heap_4.c **** 
 105:.\freertos\portable\MemMang/heap_4.c **** /* Gets set to the top bit of an size_t type.  When this bit in the xBlockSize
 106:.\freertos\portable\MemMang/heap_4.c **** member of an BlockLink_t structure is set then the block belongs to the
 107:.\freertos\portable\MemMang/heap_4.c **** application.  When the bit is free the block is still part of the free heap
 108:.\freertos\portable\MemMang/heap_4.c **** space. */
 109:.\freertos\portable\MemMang/heap_4.c **** static size_t xBlockAllocatedBit = 0;
 110:.\freertos\portable\MemMang/heap_4.c **** 
 111:.\freertos\portable\MemMang/heap_4.c **** /*-----------------------------------------------------------*/
 112:.\freertos\portable\MemMang/heap_4.c **** 
 113:.\freertos\portable\MemMang/heap_4.c **** void *pvPortMalloc( size_t xWantedSize )
 114:.\freertos\portable\MemMang/heap_4.c **** {
 115:.\freertos\portable\MemMang/heap_4.c **** BlockLink_t *pxBlock, *pxPreviousBlock, *pxNewBlockLink;
 116:.\freertos\portable\MemMang/heap_4.c **** void *pvReturn = NULL;
 117:.\freertos\portable\MemMang/heap_4.c **** 
 118:.\freertos\portable\MemMang/heap_4.c **** 	vTaskSuspendAll();
 119:.\freertos\portable\MemMang/heap_4.c **** 	{
 120:.\freertos\portable\MemMang/heap_4.c **** 		/* If this is the first call to malloc then the heap will require
 121:.\freertos\portable\MemMang/heap_4.c **** 		initialisation to setup the list of free blocks. */
 122:.\freertos\portable\MemMang/heap_4.c **** 		if( pxEnd == NULL )
 123:.\freertos\portable\MemMang/heap_4.c **** 		{
 124:.\freertos\portable\MemMang/heap_4.c **** 			prvHeapInit();
 125:.\freertos\portable\MemMang/heap_4.c **** 		}
 126:.\freertos\portable\MemMang/heap_4.c **** 		else
 127:.\freertos\portable\MemMang/heap_4.c **** 		{
 128:.\freertos\portable\MemMang/heap_4.c **** 			mtCOVERAGE_TEST_MARKER();
 129:.\freertos\portable\MemMang/heap_4.c **** 		}
 130:.\freertos\portable\MemMang/heap_4.c **** 
 131:.\freertos\portable\MemMang/heap_4.c **** 		/* Check the requested block size is not so large that the top bit is
 132:.\freertos\portable\MemMang/heap_4.c **** 		set.  The top bit of the block size member of the BlockLink_t structure
 133:.\freertos\portable\MemMang/heap_4.c **** 		is used to determine who owns the block - the application or the
 134:.\freertos\portable\MemMang/heap_4.c **** 		kernel, so it must be free. */
 135:.\freertos\portable\MemMang/heap_4.c **** 		if( ( xWantedSize & xBlockAllocatedBit ) == 0 )
 136:.\freertos\portable\MemMang/heap_4.c **** 		{
 137:.\freertos\portable\MemMang/heap_4.c **** 			/* The wanted size is increased so it can contain a BlockLink_t
 138:.\freertos\portable\MemMang/heap_4.c **** 			structure in addition to the requested amount of bytes. */
 139:.\freertos\portable\MemMang/heap_4.c **** 			if( xWantedSize > 0 )
 140:.\freertos\portable\MemMang/heap_4.c **** 			{
 141:.\freertos\portable\MemMang/heap_4.c **** 				xWantedSize += xHeapStructSize;
 142:.\freertos\portable\MemMang/heap_4.c **** 
ARM GAS  C:\Users\skey\AppData\Local\Temp\ccX2fGbd.s 			page 5


 143:.\freertos\portable\MemMang/heap_4.c **** 				/* Ensure that blocks are always aligned to the required number
 144:.\freertos\portable\MemMang/heap_4.c **** 				of bytes. */
 145:.\freertos\portable\MemMang/heap_4.c **** 				if( ( xWantedSize & portBYTE_ALIGNMENT_MASK ) != 0x00 )
 146:.\freertos\portable\MemMang/heap_4.c **** 				{
 147:.\freertos\portable\MemMang/heap_4.c **** 					/* Byte alignment required. */
 148:.\freertos\portable\MemMang/heap_4.c **** 					xWantedSize += ( portBYTE_ALIGNMENT - ( xWantedSize & portBYTE_ALIGNMENT_MASK ) );
 149:.\freertos\portable\MemMang/heap_4.c **** 					configASSERT( ( xWantedSize & portBYTE_ALIGNMENT_MASK ) == 0 );
 150:.\freertos\portable\MemMang/heap_4.c **** 				}
 151:.\freertos\portable\MemMang/heap_4.c **** 				else
 152:.\freertos\portable\MemMang/heap_4.c **** 				{
 153:.\freertos\portable\MemMang/heap_4.c **** 					mtCOVERAGE_TEST_MARKER();
 154:.\freertos\portable\MemMang/heap_4.c **** 				}
 155:.\freertos\portable\MemMang/heap_4.c **** 			}
 156:.\freertos\portable\MemMang/heap_4.c **** 			else
 157:.\freertos\portable\MemMang/heap_4.c **** 			{
 158:.\freertos\portable\MemMang/heap_4.c **** 				mtCOVERAGE_TEST_MARKER();
 159:.\freertos\portable\MemMang/heap_4.c **** 			}
 160:.\freertos\portable\MemMang/heap_4.c **** 
 161:.\freertos\portable\MemMang/heap_4.c **** 			if( ( xWantedSize > 0 ) && ( xWantedSize <= xFreeBytesRemaining ) )
 162:.\freertos\portable\MemMang/heap_4.c **** 			{
 163:.\freertos\portable\MemMang/heap_4.c **** 				/* Traverse the list from the start	(lowest address) block until
 164:.\freertos\portable\MemMang/heap_4.c **** 				one	of adequate size is found. */
 165:.\freertos\portable\MemMang/heap_4.c **** 				pxPreviousBlock = &xStart;
 166:.\freertos\portable\MemMang/heap_4.c **** 				pxBlock = xStart.pxNextFreeBlock;
 167:.\freertos\portable\MemMang/heap_4.c **** 				while( ( pxBlock->xBlockSize < xWantedSize ) && ( pxBlock->pxNextFreeBlock != NULL ) )
 168:.\freertos\portable\MemMang/heap_4.c **** 				{
 169:.\freertos\portable\MemMang/heap_4.c **** 					pxPreviousBlock = pxBlock;
 170:.\freertos\portable\MemMang/heap_4.c **** 					pxBlock = pxBlock->pxNextFreeBlock;
 171:.\freertos\portable\MemMang/heap_4.c **** 				}
 172:.\freertos\portable\MemMang/heap_4.c **** 
 173:.\freertos\portable\MemMang/heap_4.c **** 				/* If the end marker was reached then a block of adequate size
 174:.\freertos\portable\MemMang/heap_4.c **** 				was	not found. */
 175:.\freertos\portable\MemMang/heap_4.c **** 				if( pxBlock != pxEnd )
 176:.\freertos\portable\MemMang/heap_4.c **** 				{
 177:.\freertos\portable\MemMang/heap_4.c **** 					/* Return the memory space pointed to - jumping over the
 178:.\freertos\portable\MemMang/heap_4.c **** 					BlockLink_t structure at its start. */
 179:.\freertos\portable\MemMang/heap_4.c **** 					pvReturn = ( void * ) ( ( ( uint8_t * ) pxPreviousBlock->pxNextFreeBlock ) + xHeapStructSize )
 180:.\freertos\portable\MemMang/heap_4.c **** 
 181:.\freertos\portable\MemMang/heap_4.c **** 					/* This block is being returned for use so must be taken out
 182:.\freertos\portable\MemMang/heap_4.c **** 					of the list of free blocks. */
 183:.\freertos\portable\MemMang/heap_4.c **** 					pxPreviousBlock->pxNextFreeBlock = pxBlock->pxNextFreeBlock;
 184:.\freertos\portable\MemMang/heap_4.c **** 
 185:.\freertos\portable\MemMang/heap_4.c **** 					/* If the block is larger than required it can be split into
 186:.\freertos\portable\MemMang/heap_4.c **** 					two. */
 187:.\freertos\portable\MemMang/heap_4.c **** 					if( ( pxBlock->xBlockSize - xWantedSize ) > heapMINIMUM_BLOCK_SIZE )
 188:.\freertos\portable\MemMang/heap_4.c **** 					{
 189:.\freertos\portable\MemMang/heap_4.c **** 						/* This block is to be split into two.  Create a new
 190:.\freertos\portable\MemMang/heap_4.c **** 						block following the number of bytes requested. The void
 191:.\freertos\portable\MemMang/heap_4.c **** 						cast is used to prevent byte alignment warnings from the
 192:.\freertos\portable\MemMang/heap_4.c **** 						compiler. */
 193:.\freertos\portable\MemMang/heap_4.c **** 						pxNewBlockLink = ( void * ) ( ( ( uint8_t * ) pxBlock ) + xWantedSize );
 194:.\freertos\portable\MemMang/heap_4.c **** 						configASSERT( ( ( ( size_t ) pxNewBlockLink ) & portBYTE_ALIGNMENT_MASK ) == 0 );
 195:.\freertos\portable\MemMang/heap_4.c **** 
 196:.\freertos\portable\MemMang/heap_4.c **** 						/* Calculate the sizes of two blocks split from the
 197:.\freertos\portable\MemMang/heap_4.c **** 						single block. */
 198:.\freertos\portable\MemMang/heap_4.c **** 						pxNewBlockLink->xBlockSize = pxBlock->xBlockSize - xWantedSize;
 199:.\freertos\portable\MemMang/heap_4.c **** 						pxBlock->xBlockSize = xWantedSize;
ARM GAS  C:\Users\skey\AppData\Local\Temp\ccX2fGbd.s 			page 6


 200:.\freertos\portable\MemMang/heap_4.c **** 
 201:.\freertos\portable\MemMang/heap_4.c **** 						/* Insert the new block into the list of free blocks. */
 202:.\freertos\portable\MemMang/heap_4.c **** 						prvInsertBlockIntoFreeList( pxNewBlockLink );
 203:.\freertos\portable\MemMang/heap_4.c **** 					}
 204:.\freertos\portable\MemMang/heap_4.c **** 					else
 205:.\freertos\portable\MemMang/heap_4.c **** 					{
 206:.\freertos\portable\MemMang/heap_4.c **** 						mtCOVERAGE_TEST_MARKER();
 207:.\freertos\portable\MemMang/heap_4.c **** 					}
 208:.\freertos\portable\MemMang/heap_4.c **** 
 209:.\freertos\portable\MemMang/heap_4.c **** 					xFreeBytesRemaining -= pxBlock->xBlockSize;
 210:.\freertos\portable\MemMang/heap_4.c **** 
 211:.\freertos\portable\MemMang/heap_4.c **** 					if( xFreeBytesRemaining < xMinimumEverFreeBytesRemaining )
 212:.\freertos\portable\MemMang/heap_4.c **** 					{
 213:.\freertos\portable\MemMang/heap_4.c **** 						xMinimumEverFreeBytesRemaining = xFreeBytesRemaining;
 214:.\freertos\portable\MemMang/heap_4.c **** 					}
 215:.\freertos\portable\MemMang/heap_4.c **** 					else
 216:.\freertos\portable\MemMang/heap_4.c **** 					{
 217:.\freertos\portable\MemMang/heap_4.c **** 						mtCOVERAGE_TEST_MARKER();
 218:.\freertos\portable\MemMang/heap_4.c **** 					}
 219:.\freertos\portable\MemMang/heap_4.c **** 
 220:.\freertos\portable\MemMang/heap_4.c **** 					/* The block is being returned - it is allocated and owned
 221:.\freertos\portable\MemMang/heap_4.c **** 					by the application and has no "next" block. */
 222:.\freertos\portable\MemMang/heap_4.c **** 					pxBlock->xBlockSize |= xBlockAllocatedBit;
 223:.\freertos\portable\MemMang/heap_4.c **** 					pxBlock->pxNextFreeBlock = NULL;
 224:.\freertos\portable\MemMang/heap_4.c **** 				}
 225:.\freertos\portable\MemMang/heap_4.c **** 				else
 226:.\freertos\portable\MemMang/heap_4.c **** 				{
 227:.\freertos\portable\MemMang/heap_4.c **** 					mtCOVERAGE_TEST_MARKER();
 228:.\freertos\portable\MemMang/heap_4.c **** 				}
 229:.\freertos\portable\MemMang/heap_4.c **** 			}
 230:.\freertos\portable\MemMang/heap_4.c **** 			else
 231:.\freertos\portable\MemMang/heap_4.c **** 			{
 232:.\freertos\portable\MemMang/heap_4.c **** 				mtCOVERAGE_TEST_MARKER();
 233:.\freertos\portable\MemMang/heap_4.c **** 			}
 234:.\freertos\portable\MemMang/heap_4.c **** 		}
 235:.\freertos\portable\MemMang/heap_4.c **** 		else
 236:.\freertos\portable\MemMang/heap_4.c **** 		{
 237:.\freertos\portable\MemMang/heap_4.c **** 			mtCOVERAGE_TEST_MARKER();
 238:.\freertos\portable\MemMang/heap_4.c **** 		}
 239:.\freertos\portable\MemMang/heap_4.c **** 
 240:.\freertos\portable\MemMang/heap_4.c **** 		traceMALLOC( pvReturn, xWantedSize );
 241:.\freertos\portable\MemMang/heap_4.c **** 	}
 242:.\freertos\portable\MemMang/heap_4.c **** 	( void ) xTaskResumeAll();
 243:.\freertos\portable\MemMang/heap_4.c **** 
 244:.\freertos\portable\MemMang/heap_4.c **** 	#if( configUSE_MALLOC_FAILED_HOOK == 1 )
 245:.\freertos\portable\MemMang/heap_4.c **** 	{
 246:.\freertos\portable\MemMang/heap_4.c **** 		if( pvReturn == NULL )
 247:.\freertos\portable\MemMang/heap_4.c **** 		{
 248:.\freertos\portable\MemMang/heap_4.c **** 			extern void vApplicationMallocFailedHook( void );
 249:.\freertos\portable\MemMang/heap_4.c **** 			vApplicationMallocFailedHook();
 250:.\freertos\portable\MemMang/heap_4.c **** 		}
 251:.\freertos\portable\MemMang/heap_4.c **** 		else
 252:.\freertos\portable\MemMang/heap_4.c **** 		{
 253:.\freertos\portable\MemMang/heap_4.c **** 			mtCOVERAGE_TEST_MARKER();
 254:.\freertos\portable\MemMang/heap_4.c **** 		}
 255:.\freertos\portable\MemMang/heap_4.c **** 	}
 256:.\freertos\portable\MemMang/heap_4.c **** 	#endif
ARM GAS  C:\Users\skey\AppData\Local\Temp\ccX2fGbd.s 			page 7


 257:.\freertos\portable\MemMang/heap_4.c **** 
 258:.\freertos\portable\MemMang/heap_4.c **** 	configASSERT( ( ( ( size_t ) pvReturn ) & ( size_t ) portBYTE_ALIGNMENT_MASK ) == 0 );
 259:.\freertos\portable\MemMang/heap_4.c **** 	return pvReturn;
 260:.\freertos\portable\MemMang/heap_4.c **** }
 261:.\freertos\portable\MemMang/heap_4.c **** /*-----------------------------------------------------------*/
 262:.\freertos\portable\MemMang/heap_4.c **** 
 263:.\freertos\portable\MemMang/heap_4.c **** void vPortFree( void *pv )
 264:.\freertos\portable\MemMang/heap_4.c **** {
 265:.\freertos\portable\MemMang/heap_4.c **** uint8_t *puc = ( uint8_t * ) pv;
 266:.\freertos\portable\MemMang/heap_4.c **** BlockLink_t *pxLink;
 267:.\freertos\portable\MemMang/heap_4.c **** 
 268:.\freertos\portable\MemMang/heap_4.c **** 	if( pv != NULL )
 269:.\freertos\portable\MemMang/heap_4.c **** 	{
 270:.\freertos\portable\MemMang/heap_4.c **** 		/* The memory being freed will have an BlockLink_t structure immediately
 271:.\freertos\portable\MemMang/heap_4.c **** 		before it. */
 272:.\freertos\portable\MemMang/heap_4.c **** 		puc -= xHeapStructSize;
 273:.\freertos\portable\MemMang/heap_4.c **** 
 274:.\freertos\portable\MemMang/heap_4.c **** 		/* This casting is to keep the compiler from issuing warnings. */
 275:.\freertos\portable\MemMang/heap_4.c **** 		pxLink = ( void * ) puc;
 276:.\freertos\portable\MemMang/heap_4.c **** 
 277:.\freertos\portable\MemMang/heap_4.c **** 		/* Check the block is actually allocated. */
 278:.\freertos\portable\MemMang/heap_4.c **** 		configASSERT( ( pxLink->xBlockSize & xBlockAllocatedBit ) != 0 );
 279:.\freertos\portable\MemMang/heap_4.c **** 		configASSERT( pxLink->pxNextFreeBlock == NULL );
 280:.\freertos\portable\MemMang/heap_4.c **** 
 281:.\freertos\portable\MemMang/heap_4.c **** 		if( ( pxLink->xBlockSize & xBlockAllocatedBit ) != 0 )
 282:.\freertos\portable\MemMang/heap_4.c **** 		{
 283:.\freertos\portable\MemMang/heap_4.c **** 			if( pxLink->pxNextFreeBlock == NULL )
 284:.\freertos\portable\MemMang/heap_4.c **** 			{
 285:.\freertos\portable\MemMang/heap_4.c **** 				/* The block is being returned to the heap - it is no longer
 286:.\freertos\portable\MemMang/heap_4.c **** 				allocated. */
 287:.\freertos\portable\MemMang/heap_4.c **** 				pxLink->xBlockSize &= ~xBlockAllocatedBit;
 288:.\freertos\portable\MemMang/heap_4.c **** 
 289:.\freertos\portable\MemMang/heap_4.c **** 				vTaskSuspendAll();
 290:.\freertos\portable\MemMang/heap_4.c **** 				{
 291:.\freertos\portable\MemMang/heap_4.c **** 					/* Add this block to the list of free blocks. */
 292:.\freertos\portable\MemMang/heap_4.c **** 					xFreeBytesRemaining += pxLink->xBlockSize;
 293:.\freertos\portable\MemMang/heap_4.c **** 					traceFREE( pv, pxLink->xBlockSize );
 294:.\freertos\portable\MemMang/heap_4.c **** 					prvInsertBlockIntoFreeList( ( ( BlockLink_t * ) pxLink ) );
 295:.\freertos\portable\MemMang/heap_4.c **** 				}
 296:.\freertos\portable\MemMang/heap_4.c **** 				( void ) xTaskResumeAll();
 297:.\freertos\portable\MemMang/heap_4.c **** 			}
 298:.\freertos\portable\MemMang/heap_4.c **** 			else
 299:.\freertos\portable\MemMang/heap_4.c **** 			{
 300:.\freertos\portable\MemMang/heap_4.c **** 				mtCOVERAGE_TEST_MARKER();
 301:.\freertos\portable\MemMang/heap_4.c **** 			}
 302:.\freertos\portable\MemMang/heap_4.c **** 		}
 303:.\freertos\portable\MemMang/heap_4.c **** 		else
 304:.\freertos\portable\MemMang/heap_4.c **** 		{
 305:.\freertos\portable\MemMang/heap_4.c **** 			mtCOVERAGE_TEST_MARKER();
 306:.\freertos\portable\MemMang/heap_4.c **** 		}
 307:.\freertos\portable\MemMang/heap_4.c **** 	}
 308:.\freertos\portable\MemMang/heap_4.c **** }
 309:.\freertos\portable\MemMang/heap_4.c **** /*-----------------------------------------------------------*/
 310:.\freertos\portable\MemMang/heap_4.c **** 
 311:.\freertos\portable\MemMang/heap_4.c **** size_t xPortGetFreeHeapSize( void )
 312:.\freertos\portable\MemMang/heap_4.c **** {
 313:.\freertos\portable\MemMang/heap_4.c **** 	return xFreeBytesRemaining;
ARM GAS  C:\Users\skey\AppData\Local\Temp\ccX2fGbd.s 			page 8


 314:.\freertos\portable\MemMang/heap_4.c **** }
 315:.\freertos\portable\MemMang/heap_4.c **** /*-----------------------------------------------------------*/
 316:.\freertos\portable\MemMang/heap_4.c **** 
 317:.\freertos\portable\MemMang/heap_4.c **** size_t xPortGetMinimumEverFreeHeapSize( void )
 318:.\freertos\portable\MemMang/heap_4.c **** {
 319:.\freertos\portable\MemMang/heap_4.c **** 	return xMinimumEverFreeBytesRemaining;
 320:.\freertos\portable\MemMang/heap_4.c **** }
 321:.\freertos\portable\MemMang/heap_4.c **** /*-----------------------------------------------------------*/
 322:.\freertos\portable\MemMang/heap_4.c **** 
 323:.\freertos\portable\MemMang/heap_4.c **** void vPortInitialiseBlocks( void )
 324:.\freertos\portable\MemMang/heap_4.c **** {
 325:.\freertos\portable\MemMang/heap_4.c **** 	/* This just exists to keep the linker quiet. */
 326:.\freertos\portable\MemMang/heap_4.c **** }
 327:.\freertos\portable\MemMang/heap_4.c **** /*-----------------------------------------------------------*/
 328:.\freertos\portable\MemMang/heap_4.c **** 
 329:.\freertos\portable\MemMang/heap_4.c **** static void prvHeapInit( void )
 330:.\freertos\portable\MemMang/heap_4.c **** {
 331:.\freertos\portable\MemMang/heap_4.c **** BlockLink_t *pxFirstFreeBlock;
 332:.\freertos\portable\MemMang/heap_4.c **** uint8_t *pucAlignedHeap;
 333:.\freertos\portable\MemMang/heap_4.c **** size_t uxAddress;
 334:.\freertos\portable\MemMang/heap_4.c **** size_t xTotalHeapSize = configTOTAL_HEAP_SIZE;
 335:.\freertos\portable\MemMang/heap_4.c **** 
 336:.\freertos\portable\MemMang/heap_4.c **** 	/* Ensure the heap starts on a correctly aligned boundary. */
 337:.\freertos\portable\MemMang/heap_4.c **** 	uxAddress = ( size_t ) ucHeap;
 338:.\freertos\portable\MemMang/heap_4.c **** 
 339:.\freertos\portable\MemMang/heap_4.c **** 	if( ( uxAddress & portBYTE_ALIGNMENT_MASK ) != 0 )
 340:.\freertos\portable\MemMang/heap_4.c **** 	{
 341:.\freertos\portable\MemMang/heap_4.c **** 		uxAddress += ( portBYTE_ALIGNMENT - 1 );
 342:.\freertos\portable\MemMang/heap_4.c **** 		uxAddress &= ~( ( size_t ) portBYTE_ALIGNMENT_MASK );
 343:.\freertos\portable\MemMang/heap_4.c **** 		xTotalHeapSize -= uxAddress - ( size_t ) ucHeap;
 344:.\freertos\portable\MemMang/heap_4.c **** 	}
 345:.\freertos\portable\MemMang/heap_4.c **** 
 346:.\freertos\portable\MemMang/heap_4.c **** 	pucAlignedHeap = ( uint8_t * ) uxAddress;
 347:.\freertos\portable\MemMang/heap_4.c **** 
 348:.\freertos\portable\MemMang/heap_4.c **** 	/* xStart is used to hold a pointer to the first item in the list of free
 349:.\freertos\portable\MemMang/heap_4.c **** 	blocks.  The void cast is used to prevent compiler warnings. */
 350:.\freertos\portable\MemMang/heap_4.c **** 	xStart.pxNextFreeBlock = ( void * ) pucAlignedHeap;
 351:.\freertos\portable\MemMang/heap_4.c **** 	xStart.xBlockSize = ( size_t ) 0;
 352:.\freertos\portable\MemMang/heap_4.c **** 
 353:.\freertos\portable\MemMang/heap_4.c **** 	/* pxEnd is used to mark the end of the list of free blocks and is inserted
 354:.\freertos\portable\MemMang/heap_4.c **** 	at the end of the heap space. */
 355:.\freertos\portable\MemMang/heap_4.c **** 	uxAddress = ( ( size_t ) pucAlignedHeap ) + xTotalHeapSize;
 356:.\freertos\portable\MemMang/heap_4.c **** 	uxAddress -= xHeapStructSize;
 357:.\freertos\portable\MemMang/heap_4.c **** 	uxAddress &= ~( ( size_t ) portBYTE_ALIGNMENT_MASK );
 358:.\freertos\portable\MemMang/heap_4.c **** 	pxEnd = ( void * ) uxAddress;
 359:.\freertos\portable\MemMang/heap_4.c **** 	pxEnd->xBlockSize = 0;
 360:.\freertos\portable\MemMang/heap_4.c **** 	pxEnd->pxNextFreeBlock = NULL;
 361:.\freertos\portable\MemMang/heap_4.c **** 
 362:.\freertos\portable\MemMang/heap_4.c **** 	/* To start with there is a single free block that is sized to take up the
 363:.\freertos\portable\MemMang/heap_4.c **** 	entire heap space, minus the space taken by pxEnd. */
 364:.\freertos\portable\MemMang/heap_4.c **** 	pxFirstFreeBlock = ( void * ) pucAlignedHeap;
 365:.\freertos\portable\MemMang/heap_4.c **** 	pxFirstFreeBlock->xBlockSize = uxAddress - ( size_t ) pxFirstFreeBlock;
 366:.\freertos\portable\MemMang/heap_4.c **** 	pxFirstFreeBlock->pxNextFreeBlock = pxEnd;
 367:.\freertos\portable\MemMang/heap_4.c **** 
 368:.\freertos\portable\MemMang/heap_4.c **** 	/* Only one block exists - and it covers the entire usable heap space. */
 369:.\freertos\portable\MemMang/heap_4.c **** 	xMinimumEverFreeBytesRemaining = pxFirstFreeBlock->xBlockSize;
 370:.\freertos\portable\MemMang/heap_4.c **** 	xFreeBytesRemaining = pxFirstFreeBlock->xBlockSize;
ARM GAS  C:\Users\skey\AppData\Local\Temp\ccX2fGbd.s 			page 9


 371:.\freertos\portable\MemMang/heap_4.c **** 
 372:.\freertos\portable\MemMang/heap_4.c **** 	/* Work out the position of the top bit in a size_t variable. */
 373:.\freertos\portable\MemMang/heap_4.c **** 	xBlockAllocatedBit = ( ( size_t ) 1 ) << ( ( sizeof( size_t ) * heapBITS_PER_BYTE ) - 1 );
 374:.\freertos\portable\MemMang/heap_4.c **** }
 375:.\freertos\portable\MemMang/heap_4.c **** /*-----------------------------------------------------------*/
 376:.\freertos\portable\MemMang/heap_4.c **** 
 377:.\freertos\portable\MemMang/heap_4.c **** static void prvInsertBlockIntoFreeList( BlockLink_t *pxBlockToInsert )
 378:.\freertos\portable\MemMang/heap_4.c **** {
  87              		.loc 1 378 1 view -0
  88              		.cfi_startproc
  89              		@ args = 0, pretend = 0, frame = 0
  90              		@ frame_needed = 0, uses_anonymous_args = 0
 379:.\freertos\portable\MemMang/heap_4.c **** BlockLink_t *pxIterator;
  91              		.loc 1 379 1 view .LVU1
 380:.\freertos\portable\MemMang/heap_4.c **** uint8_t *puc;
  92              		.loc 1 380 1 view .LVU2
 381:.\freertos\portable\MemMang/heap_4.c **** 
 382:.\freertos\portable\MemMang/heap_4.c **** 	/* Iterate through the list until a block is found that has a higher address
 383:.\freertos\portable\MemMang/heap_4.c **** 	than the block being inserted. */
 384:.\freertos\portable\MemMang/heap_4.c **** 	for( pxIterator = &xStart; pxIterator->pxNextFreeBlock < pxBlockToInsert; pxIterator = pxIterator-
  93              		.loc 1 384 2 view .LVU3
  94              	@ .\freertos\portable\MemMang\heap_4.c:384: 	for( pxIterator = &xStart; pxIterator->pxNextFreeBlock
  95              		.loc 1 384 18 is_stmt 0 view .LVU4
  96 0000 0F4B     		ldr	r3, .L9	@ _1,
  97              	@ .\freertos\portable\MemMang\heap_4.c:378: {
 378:.\freertos\portable\MemMang/heap_4.c **** BlockLink_t *pxIterator;
  98              		.loc 1 378 1 view .LVU5
  99 0002 30B5     		push	{r4, r5, lr}	@
 100              	.LCFI0:
 101              		.cfi_def_cfa_offset 12
 102              		.cfi_offset 4, -12
 103              		.cfi_offset 5, -8
 104              		.cfi_offset 14, -4
 105 0004 1D46     		mov	r5, r3	@ tmp131, _1
 106              	.LVL1:
 107              	.L2:
 108              		.loc 1 384 29 is_stmt 1 discriminator 1 view .LVU6
 109 0006 1A46     		mov	r2, r3	@ pxIterator, _1
 110              	@ .\freertos\portable\MemMang\heap_4.c:384: 	for( pxIterator = &xStart; pxIterator->pxNextFreeBlock
 111              		.loc 1 384 39 is_stmt 0 discriminator 1 view .LVU7
 112 0008 1B68     		ldr	r3, [r3]	@ _1, pxIterator_14->pxNextFreeBlock
 113              	.LVL2:
 114              	@ .\freertos\portable\MemMang\heap_4.c:384: 	for( pxIterator = &xStart; pxIterator->pxNextFreeBlock
 115              		.loc 1 384 2 discriminator 1 view .LVU8
 116 000a 8342     		cmp	r3, r0	@ _1, pxBlockToInsert
 117 000c FBD3     		bcc	.L2		@,
 385:.\freertos\portable\MemMang/heap_4.c **** 	{
 386:.\freertos\portable\MemMang/heap_4.c **** 		/* Nothing to do here, just iterate to the right position. */
 387:.\freertos\portable\MemMang/heap_4.c **** 	}
 388:.\freertos\portable\MemMang/heap_4.c **** 
 389:.\freertos\portable\MemMang/heap_4.c **** 	/* Do the block being inserted, and the block it is being inserted after
 390:.\freertos\portable\MemMang/heap_4.c **** 	make a contiguous block of memory? */
 391:.\freertos\portable\MemMang/heap_4.c **** 	puc = ( uint8_t * ) pxIterator;
 118              		.loc 1 391 2 is_stmt 1 view .LVU9
 119              	.LVL3:
 392:.\freertos\portable\MemMang/heap_4.c **** 	if( ( puc + pxIterator->xBlockSize ) == ( uint8_t * ) pxBlockToInsert )
 120              		.loc 1 392 2 view .LVU10
ARM GAS  C:\Users\skey\AppData\Local\Temp\ccX2fGbd.s 			page 10


 121              	@ .\freertos\portable\MemMang\heap_4.c:392: 	if( ( puc + pxIterator->xBlockSize ) == ( uint8_t * ) 
 122              		.loc 1 392 24 is_stmt 0 view .LVU11
 123 000e 5468     		ldr	r4, [r2, #4]	@ _2, pxIterator_43->xBlockSize
 124              	@ .\freertos\portable\MemMang\heap_4.c:392: 	if( ( puc + pxIterator->xBlockSize ) == ( uint8_t * ) 
 125              		.loc 1 392 12 view .LVU12
 126 0010 1119     		adds	r1, r2, r4	@ tmp124, pxIterator, _2
 127              	@ .\freertos\portable\MemMang\heap_4.c:392: 	if( ( puc + pxIterator->xBlockSize ) == ( uint8_t * ) 
 128              		.loc 1 392 4 view .LVU13
 129 0012 8842     		cmp	r0, r1	@ pxBlockToInsert, tmp124
 393:.\freertos\portable\MemMang/heap_4.c **** 	{
 394:.\freertos\portable\MemMang/heap_4.c **** 		pxIterator->xBlockSize += pxBlockToInsert->xBlockSize;
 130              		.loc 1 394 3 is_stmt 1 view .LVU14
 131              	@ .\freertos\portable\MemMang\heap_4.c:394: 		pxIterator->xBlockSize += pxBlockToInsert->xBlockSize
 132              		.loc 1 394 26 is_stmt 0 view .LVU15
 133 0014 01BF     		itttt	eq
 134 0016 4168     		ldreq	r1, [r0, #4]	@ pxBlockToInsert_19(D)->xBlockSize, pxBlockToInsert_19(D)->xBlockSize
 135 0018 1046     		moveq	r0, r2	@ pxBlockToInsert, pxIterator
 136              	.LVL4:
 137              		.loc 1 394 26 view .LVU16
 138 001a 0919     		addeq	r1, r1, r4	@ tmp125, _2
 139 001c 5160     		streq	r1, [r2, #4]	@ tmp125, pxIterator_43->xBlockSize
 395:.\freertos\portable\MemMang/heap_4.c **** 		pxBlockToInsert = pxIterator;
 140              		.loc 1 395 3 is_stmt 1 view .LVU17
 141              	.LVL5:
 396:.\freertos\portable\MemMang/heap_4.c **** 	}
 397:.\freertos\portable\MemMang/heap_4.c **** 	else
 398:.\freertos\portable\MemMang/heap_4.c **** 	{
 399:.\freertos\portable\MemMang/heap_4.c **** 		mtCOVERAGE_TEST_MARKER();
 142              		.loc 1 399 27 view .LVU18
 400:.\freertos\portable\MemMang/heap_4.c **** 	}
 401:.\freertos\portable\MemMang/heap_4.c **** 
 402:.\freertos\portable\MemMang/heap_4.c **** 	/* Do the block being inserted, and the block it is being inserted before
 403:.\freertos\portable\MemMang/heap_4.c **** 	make a contiguous block of memory? */
 404:.\freertos\portable\MemMang/heap_4.c **** 	puc = ( uint8_t * ) pxBlockToInsert;
 143              		.loc 1 404 2 view .LVU19
 405:.\freertos\portable\MemMang/heap_4.c **** 	if( ( puc + pxBlockToInsert->xBlockSize ) == ( uint8_t * ) pxIterator->pxNextFreeBlock )
 144              		.loc 1 405 2 view .LVU20
 145              	@ .\freertos\portable\MemMang\heap_4.c:405: 	if( ( puc + pxBlockToInsert->xBlockSize ) == ( uint8_t
 146              		.loc 1 405 29 is_stmt 0 view .LVU21
 147 001e 4468     		ldr	r4, [r0, #4]	@ _7, pxBlockToInsert_13->xBlockSize
 148              	@ .\freertos\portable\MemMang\heap_4.c:405: 	if( ( puc + pxBlockToInsert->xBlockSize ) == ( uint8_t
 149              		.loc 1 405 12 view .LVU22
 150 0020 0119     		adds	r1, r0, r4	@ tmp127, pxBlockToInsert, _7
 151              	@ .\freertos\portable\MemMang\heap_4.c:405: 	if( ( puc + pxBlockToInsert->xBlockSize ) == ( uint8_t
 152              		.loc 1 405 4 view .LVU23
 153 0022 8B42     		cmp	r3, r1	@ _1, tmp127
 154 0024 06D1     		bne	.L4		@,
 406:.\freertos\portable\MemMang/heap_4.c **** 	{
 407:.\freertos\portable\MemMang/heap_4.c **** 		if( pxIterator->pxNextFreeBlock != pxEnd )
 155              		.loc 1 407 3 is_stmt 1 view .LVU24
 156              	@ .\freertos\portable\MemMang\heap_4.c:407: 		if( pxIterator->pxNextFreeBlock != pxEnd )
 157              		.loc 1 407 35 is_stmt 0 view .LVU25
 158 0026 A968     		ldr	r1, [r5, #8]	@ pxEnd.16_9, pxEnd
 159              	@ .\freertos\portable\MemMang\heap_4.c:407: 		if( pxIterator->pxNextFreeBlock != pxEnd )
 160              		.loc 1 407 5 view .LVU26
 161 0028 8B42     		cmp	r3, r1	@ _1, pxEnd.16_9
 408:.\freertos\portable\MemMang/heap_4.c **** 		{
ARM GAS  C:\Users\skey\AppData\Local\Temp\ccX2fGbd.s 			page 11


 409:.\freertos\portable\MemMang/heap_4.c **** 			/* Form one big block from the two blocks. */
 410:.\freertos\portable\MemMang/heap_4.c **** 			pxBlockToInsert->xBlockSize += pxIterator->pxNextFreeBlock->xBlockSize;
 162              		.loc 1 410 4 is_stmt 1 view .LVU27
 163              	@ .\freertos\portable\MemMang\heap_4.c:410: 			pxBlockToInsert->xBlockSize += pxIterator->pxNextFre
 164              		.loc 1 410 32 is_stmt 0 view .LVU28
 165 002a 1FBF     		itttt	ne
 166 002c 5968     		ldrne	r1, [r3, #4]	@ _1->xBlockSize, _1->xBlockSize
 167              	@ .\freertos\portable\MemMang\heap_4.c:411: 			pxBlockToInsert->pxNextFreeBlock = pxIterator->pxNex
 411:.\freertos\portable\MemMang/heap_4.c **** 			pxBlockToInsert->pxNextFreeBlock = pxIterator->pxNextFreeBlock->pxNextFreeBlock;
 168              		.loc 1 411 66 view .LVU29
 169 002e 1B68     		ldrne	r3, [r3]	@ _12, _1->pxNextFreeBlock
 170              	@ .\freertos\portable\MemMang\heap_4.c:410: 			pxBlockToInsert->xBlockSize += pxIterator->pxNextFre
 410:.\freertos\portable\MemMang/heap_4.c **** 			pxBlockToInsert->pxNextFreeBlock = pxIterator->pxNextFreeBlock->pxNextFreeBlock;
 171              		.loc 1 410 32 view .LVU30
 172 0030 0919     		addne	r1, r1, r4	@ tmp129, _7
 173 0032 4160     		strne	r1, [r0, #4]	@ tmp129, pxBlockToInsert_13->xBlockSize
 174              		.loc 1 411 4 is_stmt 1 view .LVU31
 175              	.L4:
 412:.\freertos\portable\MemMang/heap_4.c **** 		}
 413:.\freertos\portable\MemMang/heap_4.c **** 		else
 414:.\freertos\portable\MemMang/heap_4.c **** 		{
 415:.\freertos\portable\MemMang/heap_4.c **** 			pxBlockToInsert->pxNextFreeBlock = pxEnd;
 416:.\freertos\portable\MemMang/heap_4.c **** 		}
 417:.\freertos\portable\MemMang/heap_4.c **** 	}
 418:.\freertos\portable\MemMang/heap_4.c **** 	else
 419:.\freertos\portable\MemMang/heap_4.c **** 	{
 420:.\freertos\portable\MemMang/heap_4.c **** 		pxBlockToInsert->pxNextFreeBlock = pxIterator->pxNextFreeBlock;
 176              		.loc 1 420 3 view .LVU32
 177              	@ .\freertos\portable\MemMang\heap_4.c:427: 	if( pxIterator != pxBlockToInsert )
 421:.\freertos\portable\MemMang/heap_4.c **** 	}
 422:.\freertos\portable\MemMang/heap_4.c **** 
 423:.\freertos\portable\MemMang/heap_4.c **** 	/* If the block being inserted plugged a gab, so was merged with the block
 424:.\freertos\portable\MemMang/heap_4.c **** 	before and the block after, then it's pxNextFreeBlock pointer will have
 425:.\freertos\portable\MemMang/heap_4.c **** 	already been set, and should not be set here as that would make it point
 426:.\freertos\portable\MemMang/heap_4.c **** 	to itself. */
 427:.\freertos\portable\MemMang/heap_4.c **** 	if( pxIterator != pxBlockToInsert )
 178              		.loc 1 427 4 is_stmt 0 view .LVU33
 179 0034 9042     		cmp	r0, r2	@ pxBlockToInsert, pxIterator
 180              	@ .\freertos\portable\MemMang\heap_4.c:420: 		pxBlockToInsert->pxNextFreeBlock = pxIterator->pxNext
 420:.\freertos\portable\MemMang/heap_4.c **** 	}
 181              		.loc 1 420 36 view .LVU34
 182 0036 0360     		str	r3, [r0]	@ _1, pxBlockToInsert_13->pxNextFreeBlock
 183              		.loc 1 427 2 is_stmt 1 view .LVU35
 428:.\freertos\portable\MemMang/heap_4.c **** 	{
 429:.\freertos\portable\MemMang/heap_4.c **** 		pxIterator->pxNextFreeBlock = pxBlockToInsert;
 184              		.loc 1 429 3 view .LVU36
 185              	@ .\freertos\portable\MemMang\heap_4.c:429: 		pxIterator->pxNextFreeBlock = pxBlockToInsert;
 186              		.loc 1 429 31 is_stmt 0 view .LVU37
 187 0038 18BF     		it	ne
 188 003a 1060     		strne	r0, [r2]	@ pxBlockToInsert, pxIterator_43->pxNextFreeBlock
 430:.\freertos\portable\MemMang/heap_4.c **** 	}
 431:.\freertos\portable\MemMang/heap_4.c **** 	else
 432:.\freertos\portable\MemMang/heap_4.c **** 	{
 433:.\freertos\portable\MemMang/heap_4.c **** 		mtCOVERAGE_TEST_MARKER();
 189              		.loc 1 433 27 is_stmt 1 view .LVU38
 190              	@ .\freertos\portable\MemMang\heap_4.c:435: }
 434:.\freertos\portable\MemMang/heap_4.c **** 	}
ARM GAS  C:\Users\skey\AppData\Local\Temp\ccX2fGbd.s 			page 12


 435:.\freertos\portable\MemMang/heap_4.c **** }
 191              		.loc 1 435 1 is_stmt 0 view .LVU39
 192 003c 30BD     		pop	{r4, r5, pc}	@
 193              	.L10:
 194 003e 00BF     		.align	2
 195              	.L9:
 196 0040 00000000 		.word	.LANCHOR0
 197              		.cfi_endproc
 198              	.LFE40:
 199              		.size	prvInsertBlockIntoFreeList, .-prvInsertBlockIntoFreeList
 200              		.align	1
 201              		.global	pvPortMalloc
 202              		.syntax unified
 203              		.thumb
 204              		.thumb_func
 205              		.fpu softvfp
 206              		.type	pvPortMalloc, %function
 207              	pvPortMalloc:
 208              	.LVL6:
 209              	.LFB34:
 114:.\freertos\portable\MemMang/heap_4.c **** BlockLink_t *pxBlock, *pxPreviousBlock, *pxNewBlockLink;
 210              		.loc 1 114 1 is_stmt 1 view -0
 211              		.cfi_startproc
 212              		@ args = 0, pretend = 0, frame = 0
 213              		@ frame_needed = 0, uses_anonymous_args = 0
 115:.\freertos\portable\MemMang/heap_4.c **** void *pvReturn = NULL;
 214              		.loc 1 115 1 view .LVU41
 116:.\freertos\portable\MemMang/heap_4.c **** 
 215              		.loc 1 116 1 view .LVU42
 118:.\freertos\portable\MemMang/heap_4.c **** 	{
 216              		.loc 1 118 2 view .LVU43
 217              	@ .\freertos\portable\MemMang\heap_4.c:114: {
 114:.\freertos\portable\MemMang/heap_4.c **** BlockLink_t *pxBlock, *pxPreviousBlock, *pxNewBlockLink;
 218              		.loc 1 114 1 is_stmt 0 view .LVU44
 219 0044 2DE9F041 		push	{r4, r5, r6, r7, r8, lr}	@
 220              	.LCFI1:
 221              		.cfi_def_cfa_offset 24
 222              		.cfi_offset 4, -24
 223              		.cfi_offset 5, -20
 224              		.cfi_offset 6, -16
 225              		.cfi_offset 7, -12
 226              		.cfi_offset 8, -8
 227              		.cfi_offset 14, -4
 228              	@ .\freertos\portable\MemMang\heap_4.c:122: 		if( pxEnd == NULL )
 122:.\freertos\portable\MemMang/heap_4.c **** 		{
 229              		.loc 1 122 13 view .LVU45
 230 0048 2E4D     		ldr	r5, .L30	@ tmp142,
 231              	@ .\freertos\portable\MemMang\heap_4.c:114: {
 114:.\freertos\portable\MemMang/heap_4.c **** BlockLink_t *pxBlock, *pxPreviousBlock, *pxNewBlockLink;
 232              		.loc 1 114 1 view .LVU46
 233 004a 0446     		mov	r4, r0	@ xWantedSize, tmp174
 234              	@ .\freertos\portable\MemMang\heap_4.c:118: 	vTaskSuspendAll();
 118:.\freertos\portable\MemMang/heap_4.c **** 	{
 235              		.loc 1 118 2 view .LVU47
 236 004c FFF7FEFF 		bl	vTaskSuspendAll		@
 237              	.LVL7:
 122:.\freertos\portable\MemMang/heap_4.c **** 		{
ARM GAS  C:\Users\skey\AppData\Local\Temp\ccX2fGbd.s 			page 13


 238              		.loc 1 122 3 is_stmt 1 view .LVU48
 239              	@ .\freertos\portable\MemMang\heap_4.c:122: 		if( pxEnd == NULL )
 122:.\freertos\portable\MemMang/heap_4.c **** 		{
 240              		.loc 1 122 5 is_stmt 0 view .LVU49
 241 0050 AB68     		ldr	r3, [r5, #8]	@ pxEnd, pxEnd
 242 0052 BBB9     		cbnz	r3, .L12	@ pxEnd,
 124:.\freertos\portable\MemMang/heap_4.c **** 		}
 243              		.loc 1 124 4 is_stmt 1 view .LVU50
 244              	.LBB4:
 245              	.LBI4:
 329:.\freertos\portable\MemMang/heap_4.c **** {
 246              		.loc 1 329 13 view .LVU51
 247              	.LBB5:
 331:.\freertos\portable\MemMang/heap_4.c **** uint8_t *pucAlignedHeap;
 248              		.loc 1 331 1 view .LVU52
 332:.\freertos\portable\MemMang/heap_4.c **** size_t uxAddress;
 249              		.loc 1 332 1 view .LVU53
 333:.\freertos\portable\MemMang/heap_4.c **** size_t xTotalHeapSize = configTOTAL_HEAP_SIZE;
 250              		.loc 1 333 1 view .LVU54
 334:.\freertos\portable\MemMang/heap_4.c **** 
 251              		.loc 1 334 1 view .LVU55
 252              	.LVL8:
 337:.\freertos\portable\MemMang/heap_4.c **** 
 253              		.loc 1 337 2 view .LVU56
 254              	@ .\freertos\portable\MemMang\heap_4.c:337: 	uxAddress = ( size_t ) ucHeap;
 337:.\freertos\portable\MemMang/heap_4.c **** 
 255              		.loc 1 337 12 is_stmt 0 view .LVU57
 256 0054 2C4B     		ldr	r3, .L30+4	@ uxAddress,
 257              	.LVL9:
 339:.\freertos\portable\MemMang/heap_4.c **** 	{
 258              		.loc 1 339 2 is_stmt 1 view .LVU58
 259              	@ .\freertos\portable\MemMang\heap_4.c:356: 	uxAddress -= xHeapStructSize;
 356:.\freertos\portable\MemMang/heap_4.c **** 	uxAddress &= ~( ( size_t ) portBYTE_ALIGNMENT_MASK );
 260              		.loc 1 356 12 is_stmt 0 view .LVU59
 261 0056 2D4A     		ldr	r2, .L30+8	@ uxAddress,
 262              	@ .\freertos\portable\MemMang\heap_4.c:339: 	if( ( uxAddress & portBYTE_ALIGNMENT_MASK ) != 0 )
 339:.\freertos\portable\MemMang/heap_4.c **** 	{
 263              		.loc 1 339 4 view .LVU60
 264 0058 5907     		lsls	r1, r3, #29	@, uxAddress,
 341:.\freertos\portable\MemMang/heap_4.c **** 		uxAddress &= ~( ( size_t ) portBYTE_ALIGNMENT_MASK );
 265              		.loc 1 341 3 is_stmt 1 view .LVU61
 266              	@ .\freertos\portable\MemMang\heap_4.c:351: 	xStart.xBlockSize = ( size_t ) 0;
 351:.\freertos\portable\MemMang/heap_4.c **** 
 267              		.loc 1 351 20 is_stmt 0 view .LVU62
 268 005a 4FF00001 		mov	r1, #0	@ tmp147,
 269              	@ .\freertos\portable\MemMang\heap_4.c:341: 		uxAddress += ( portBYTE_ALIGNMENT - 1 );
 341:.\freertos\portable\MemMang/heap_4.c **** 		uxAddress &= ~( ( size_t ) portBYTE_ALIGNMENT_MASK );
 270              		.loc 1 341 13 view .LVU63
 271 005e 1CBF     		itt	ne
 272 0060 0733     		addne	r3, r3, #7	@ uxAddress, uxAddress,
 273              	.LVL10:
 342:.\freertos\portable\MemMang/heap_4.c **** 		xTotalHeapSize -= uxAddress - ( size_t ) ucHeap;
 274              		.loc 1 342 3 is_stmt 1 view .LVU64
 275              	@ .\freertos\portable\MemMang\heap_4.c:342: 		uxAddress &= ~( ( size_t ) portBYTE_ALIGNMENT_MASK );
 342:.\freertos\portable\MemMang/heap_4.c **** 		xTotalHeapSize -= uxAddress - ( size_t ) ucHeap;
 276              		.loc 1 342 13 is_stmt 0 view .LVU65
 277 0062 23F00703 		bicne	r3, r3, #7	@ uxAddress, uxAddress,
ARM GAS  C:\Users\skey\AppData\Local\Temp\ccX2fGbd.s 			page 14


 278              	.LVL11:
 343:.\freertos\portable\MemMang/heap_4.c **** 	}
 279              		.loc 1 343 3 is_stmt 1 view .LVU66
 346:.\freertos\portable\MemMang/heap_4.c **** 
 280              		.loc 1 346 2 view .LVU67
 350:.\freertos\portable\MemMang/heap_4.c **** 	xStart.xBlockSize = ( size_t ) 0;
 281              		.loc 1 350 2 view .LVU68
 282              	@ .\freertos\portable\MemMang\heap_4.c:357: 	uxAddress &= ~( ( size_t ) portBYTE_ALIGNMENT_MASK );
 357:.\freertos\portable\MemMang/heap_4.c **** 	pxEnd = ( void * ) uxAddress;
 283              		.loc 1 357 12 is_stmt 0 view .LVU69
 284 0066 22F00702 		bic	r2, r2, #7	@ uxAddress, uxAddress,
 285              	@ .\freertos\portable\MemMang\heap_4.c:350: 	xStart.pxNextFreeBlock = ( void * ) pucAlignedHeap;
 350:.\freertos\portable\MemMang/heap_4.c **** 	xStart.xBlockSize = ( size_t ) 0;
 286              		.loc 1 350 25 view .LVU70
 287 006a 2B60     		str	r3, [r5]	@ uxAddress, xStart.pxNextFreeBlock
 351:.\freertos\portable\MemMang/heap_4.c **** 
 288              		.loc 1 351 2 is_stmt 1 view .LVU71
 289              	@ .\freertos\portable\MemMang\heap_4.c:351: 	xStart.xBlockSize = ( size_t ) 0;
 351:.\freertos\portable\MemMang/heap_4.c **** 
 290              		.loc 1 351 20 is_stmt 0 view .LVU72
 291 006c 6960     		str	r1, [r5, #4]	@ tmp147, xStart.xBlockSize
 355:.\freertos\portable\MemMang/heap_4.c **** 	uxAddress -= xHeapStructSize;
 292              		.loc 1 355 2 is_stmt 1 view .LVU73
 293              	.LVL12:
 356:.\freertos\portable\MemMang/heap_4.c **** 	uxAddress &= ~( ( size_t ) portBYTE_ALIGNMENT_MASK );
 294              		.loc 1 356 2 view .LVU74
 357:.\freertos\portable\MemMang/heap_4.c **** 	pxEnd = ( void * ) uxAddress;
 295              		.loc 1 357 2 view .LVU75
 358:.\freertos\portable\MemMang/heap_4.c **** 	pxEnd->xBlockSize = 0;
 296              		.loc 1 358 2 view .LVU76
 297              	@ .\freertos\portable\MemMang\heap_4.c:360: 	pxEnd->pxNextFreeBlock = NULL;
 360:.\freertos\portable\MemMang/heap_4.c **** 
 298              		.loc 1 360 25 is_stmt 0 view .LVU77
 299 006e C2E90011 		strd	r1, r1, [r2]	@ tmp147, tmp147, uxAddress
 300              	@ .\freertos\portable\MemMang\heap_4.c:365: 	pxFirstFreeBlock->xBlockSize = uxAddress - ( size_t ) 
 365:.\freertos\portable\MemMang/heap_4.c **** 	pxFirstFreeBlock->pxNextFreeBlock = pxEnd;
 301              		.loc 1 365 43 view .LVU78
 302 0072 D11A     		subs	r1, r2, r3	@ _61, uxAddress, uxAddress
 303              	@ .\freertos\portable\MemMang\heap_4.c:366: 	pxFirstFreeBlock->pxNextFreeBlock = pxEnd;
 366:.\freertos\portable\MemMang/heap_4.c **** 
 304              		.loc 1 366 36 view .LVU79
 305 0074 C3E90021 		strd	r2, r1, [r3]	@ uxAddress, _61, uxAddress
 306              	@ .\freertos\portable\MemMang\heap_4.c:373: 	xBlockAllocatedBit = ( ( size_t ) 1 ) << ( ( sizeof( s
 373:.\freertos\portable\MemMang/heap_4.c **** }
 307              		.loc 1 373 21 view .LVU80
 308 0078 4FF00043 		mov	r3, #-2147483648	@ tmp155,
 309              	.LVL13:
 310              	@ .\freertos\portable\MemMang\heap_4.c:370: 	xFreeBytesRemaining = pxFirstFreeBlock->xBlockSize;
 370:.\freertos\portable\MemMang/heap_4.c **** 
 311              		.loc 1 370 22 view .LVU81
 312 007c C5E90311 		strd	r1, r1, [r5, #12]	@ _61, _61, tmp171,
 313              	@ .\freertos\portable\MemMang\heap_4.c:358: 	pxEnd = ( void * ) uxAddress;
 358:.\freertos\portable\MemMang/heap_4.c **** 	pxEnd->xBlockSize = 0;
 314              		.loc 1 358 8 view .LVU82
 315 0080 AA60     		str	r2, [r5, #8]	@ uxAddress, pxEnd
 359:.\freertos\portable\MemMang/heap_4.c **** 	pxEnd->pxNextFreeBlock = NULL;
 316              		.loc 1 359 2 is_stmt 1 view .LVU83
ARM GAS  C:\Users\skey\AppData\Local\Temp\ccX2fGbd.s 			page 15


 364:.\freertos\portable\MemMang/heap_4.c **** 	pxFirstFreeBlock->xBlockSize = uxAddress - ( size_t ) pxFirstFreeBlock;
 317              		.loc 1 364 2 view .LVU84
 365:.\freertos\portable\MemMang/heap_4.c **** 	pxFirstFreeBlock->pxNextFreeBlock = pxEnd;
 318              		.loc 1 365 2 view .LVU85
 369:.\freertos\portable\MemMang/heap_4.c **** 	xFreeBytesRemaining = pxFirstFreeBlock->xBlockSize;
 319              		.loc 1 369 2 view .LVU86
 373:.\freertos\portable\MemMang/heap_4.c **** }
 320              		.loc 1 373 2 view .LVU87
 321              	@ .\freertos\portable\MemMang\heap_4.c:373: 	xBlockAllocatedBit = ( ( size_t ) 1 ) << ( ( sizeof( s
 373:.\freertos\portable\MemMang/heap_4.c **** }
 322              		.loc 1 373 21 is_stmt 0 view .LVU88
 323 0082 6B61     		str	r3, [r5, #20]	@ tmp155, xBlockAllocatedBit
 324              	.LVL14:
 325              	.L12:
 373:.\freertos\portable\MemMang/heap_4.c **** }
 326              		.loc 1 373 21 view .LVU89
 327              	.LBE5:
 328              	.LBE4:
 128:.\freertos\portable\MemMang/heap_4.c **** 		}
 329              		.loc 1 128 28 is_stmt 1 view .LVU90
 135:.\freertos\portable\MemMang/heap_4.c **** 		{
 330              		.loc 1 135 3 view .LVU91
 331              	@ .\freertos\portable\MemMang\heap_4.c:135: 		if( ( xWantedSize & xBlockAllocatedBit ) == 0 )
 135:.\freertos\portable\MemMang/heap_4.c **** 		{
 332              		.loc 1 135 21 is_stmt 0 view .LVU92
 333 0084 D5F81480 		ldr	r8, [r5, #20]	@ xBlockAllocatedBit.1_2, xBlockAllocatedBit
 334              	@ .\freertos\portable\MemMang\heap_4.c:135: 		if( ( xWantedSize & xBlockAllocatedBit ) == 0 )
 135:.\freertos\portable\MemMang/heap_4.c **** 		{
 335              		.loc 1 135 5 view .LVU93
 336 0088 18EA040F 		tst	r8, r4	@ xBlockAllocatedBit.1_2, xWantedSize
 337 008c 37D1     		bne	.L26		@,
 139:.\freertos\portable\MemMang/heap_4.c **** 			{
 338              		.loc 1 139 4 is_stmt 1 view .LVU94
 339              	@ .\freertos\portable\MemMang\heap_4.c:139: 			if( xWantedSize > 0 )
 139:.\freertos\portable\MemMang/heap_4.c **** 			{
 340              		.loc 1 139 6 is_stmt 0 view .LVU95
 341 008e 002C     		cmp	r4, #0	@ xWantedSize
 342 0090 2DD0     		beq	.L14	@
 141:.\freertos\portable\MemMang/heap_4.c **** 
 343              		.loc 1 141 5 is_stmt 1 view .LVU96
 344              	@ .\freertos\portable\MemMang\heap_4.c:141: 				xWantedSize += xHeapStructSize;
 141:.\freertos\portable\MemMang/heap_4.c **** 
 345              		.loc 1 141 17 is_stmt 0 view .LVU97
 346 0092 04F10803 		add	r3, r4, #8	@ xWantedSize, xWantedSize,
 347              	.LVL15:
 145:.\freertos\portable\MemMang/heap_4.c **** 				{
 348              		.loc 1 145 5 is_stmt 1 view .LVU98
 349              	@ .\freertos\portable\MemMang\heap_4.c:145: 				if( ( xWantedSize & portBYTE_ALIGNMENT_MASK ) != 0x
 145:.\freertos\portable\MemMang/heap_4.c **** 				{
 350              		.loc 1 145 7 is_stmt 0 view .LVU99
 351 0096 6207     		lsls	r2, r4, #29	@, xWantedSize,
 148:.\freertos\portable\MemMang/heap_4.c **** 					configASSERT( ( xWantedSize & portBYTE_ALIGNMENT_MASK ) == 0 );
 352              		.loc 1 148 6 is_stmt 1 view .LVU100
 353              	@ .\freertos\portable\MemMang\heap_4.c:148: 					xWantedSize += ( portBYTE_ALIGNMENT - ( xWantedSiz
 148:.\freertos\portable\MemMang/heap_4.c **** 					configASSERT( ( xWantedSize & portBYTE_ALIGNMENT_MASK ) == 0 );
 354              		.loc 1 148 18 is_stmt 0 view .LVU101
 355 0098 1CBF     		itt	ne
ARM GAS  C:\Users\skey\AppData\Local\Temp\ccX2fGbd.s 			page 16


 356 009a 23F00703 		bicne	r3, r3, #7	@ _5, xWantedSize,
 357              	.LVL16:
 148:.\freertos\portable\MemMang/heap_4.c **** 					configASSERT( ( xWantedSize & portBYTE_ALIGNMENT_MASK ) == 0 );
 358              		.loc 1 148 18 view .LVU102
 359 009e 0833     		addne	r3, r3, #8	@ xWantedSize, _5,
 360              	.LVL17:
 149:.\freertos\portable\MemMang/heap_4.c **** 				}
 361              		.loc 1 149 68 is_stmt 1 view .LVU103
 158:.\freertos\portable\MemMang/heap_4.c **** 			}
 362              		.loc 1 158 29 view .LVU104
 161:.\freertos\portable\MemMang/heap_4.c **** 			{
 363              		.loc 1 161 4 view .LVU105
 364              	@ .\freertos\portable\MemMang\heap_4.c:161: 			if( ( xWantedSize > 0 ) && ( xWantedSize <= xFreeByt
 161:.\freertos\portable\MemMang/heap_4.c **** 			{
 365              		.loc 1 161 6 is_stmt 0 view .LVU106
 366 00a0 6BB3     		cbz	r3, .L26	@ xWantedSize,
 367              	@ .\freertos\portable\MemMang\heap_4.c:161: 			if( ( xWantedSize > 0 ) && ( xWantedSize <= xFreeByt
 161:.\freertos\portable\MemMang/heap_4.c **** 			{
 368              		.loc 1 161 45 discriminator 1 view .LVU107
 369 00a2 2F69     		ldr	r7, [r5, #16]	@ xFreeBytesRemaining.2_6, xFreeBytesRemaining
 370              	@ .\freertos\portable\MemMang\heap_4.c:161: 			if( ( xWantedSize > 0 ) && ( xWantedSize <= xFreeByt
 161:.\freertos\portable\MemMang/heap_4.c **** 			{
 371              		.loc 1 161 28 discriminator 1 view .LVU108
 372 00a4 9F42     		cmp	r7, r3	@ xFreeBytesRemaining.2_6, xWantedSize
 373 00a6 2AD3     		bcc	.L26		@,
 165:.\freertos\portable\MemMang/heap_4.c **** 				pxBlock = xStart.pxNextFreeBlock;
 374              		.loc 1 165 5 is_stmt 1 view .LVU109
 375              	.LVL18:
 166:.\freertos\portable\MemMang/heap_4.c **** 				while( ( pxBlock->xBlockSize < xWantedSize ) && ( pxBlock->pxNextFreeBlock != NULL ) )
 376              		.loc 1 166 5 view .LVU110
 377              	@ .\freertos\portable\MemMang\heap_4.c:166: 				pxBlock = xStart.pxNextFreeBlock;
 166:.\freertos\portable\MemMang/heap_4.c **** 				while( ( pxBlock->xBlockSize < xWantedSize ) && ( pxBlock->pxNextFreeBlock != NULL ) )
 378              		.loc 1 166 13 is_stmt 0 view .LVU111
 379 00a8 2E68     		ldr	r6, [r5]	@ pxBlock, xStart.pxNextFreeBlock
 380              	.LVL19:
 167:.\freertos\portable\MemMang/heap_4.c **** 				{
 381              		.loc 1 167 5 is_stmt 1 view .LVU112
 382              	@ .\freertos\portable\MemMang\heap_4.c:165: 				pxPreviousBlock = &xStart;
 165:.\freertos\portable\MemMang/heap_4.c **** 				pxBlock = xStart.pxNextFreeBlock;
 383              		.loc 1 165 21 is_stmt 0 view .LVU113
 384 00aa 1648     		ldr	r0, .L30	@ pxPreviousBlock,
 385              	.LVL20:
 386              	.L17:
 167:.\freertos\portable\MemMang/heap_4.c **** 				{
 387              		.loc 1 167 10 is_stmt 1 view .LVU114
 388              	@ .\freertos\portable\MemMang\heap_4.c:167: 				while( ( pxBlock->xBlockSize < xWantedSize ) && ( p
 167:.\freertos\portable\MemMang/heap_4.c **** 				{
 389              		.loc 1 167 21 is_stmt 0 view .LVU115
 390 00ac 7268     		ldr	r2, [r6, #4]	@ _7, pxBlock_21->xBlockSize
 391              	@ .\freertos\portable\MemMang\heap_4.c:167: 				while( ( pxBlock->xBlockSize < xWantedSize ) && ( p
 167:.\freertos\portable\MemMang/heap_4.c **** 				{
 392              		.loc 1 167 10 view .LVU116
 393 00ae 9A42     		cmp	r2, r3	@ _7, xWantedSize
 394 00b0 01D2     		bcs	.L16		@,
 395              	@ .\freertos\portable\MemMang\heap_4.c:167: 				while( ( pxBlock->xBlockSize < xWantedSize ) && ( p
 167:.\freertos\portable\MemMang/heap_4.c **** 				{
 396              		.loc 1 167 62 discriminator 1 view .LVU117
ARM GAS  C:\Users\skey\AppData\Local\Temp\ccX2fGbd.s 			page 17


 397 00b2 3168     		ldr	r1, [r6]	@ _8, pxBlock_21->pxNextFreeBlock
 398              	@ .\freertos\portable\MemMang\heap_4.c:167: 				while( ( pxBlock->xBlockSize < xWantedSize ) && ( p
 167:.\freertos\portable\MemMang/heap_4.c **** 				{
 399              		.loc 1 167 50 discriminator 1 view .LVU118
 400 00b4 01BB     		cbnz	r1, .L25	@ _8,
 401              	.L16:
 175:.\freertos\portable\MemMang/heap_4.c **** 				{
 402              		.loc 1 175 5 is_stmt 1 view .LVU119
 403              	@ .\freertos\portable\MemMang\heap_4.c:175: 				if( pxBlock != pxEnd )
 175:.\freertos\portable\MemMang/heap_4.c **** 				{
 404              		.loc 1 175 7 is_stmt 0 view .LVU120
 405 00b6 A968     		ldr	r1, [r5, #8]	@ pxEnd, pxEnd
 406 00b8 B142     		cmp	r1, r6	@ pxEnd, pxBlock
 407 00ba 20D0     		beq	.L26		@,
 179:.\freertos\portable\MemMang/heap_4.c **** 
 408              		.loc 1 179 6 is_stmt 1 view .LVU121
 409              	@ .\freertos\portable\MemMang\heap_4.c:179: 					pvReturn = ( void * ) ( ( ( uint8_t * ) pxPrevious
 179:.\freertos\portable\MemMang/heap_4.c **** 
 410              		.loc 1 179 15 is_stmt 0 view .LVU122
 411 00bc 0468     		ldr	r4, [r0]	@ pxPreviousBlock_22->pxNextFreeBlock, pxPreviousBlock_22->pxNextFreeBlock
 412              	@ .\freertos\portable\MemMang\heap_4.c:183: 					pxPreviousBlock->pxNextFreeBlock = pxBlock->pxNext
 183:.\freertos\portable\MemMang/heap_4.c **** 
 413              		.loc 1 183 48 view .LVU123
 414 00be 3168     		ldr	r1, [r6]	@ _11, pxBlock_21->pxNextFreeBlock
 415              	@ .\freertos\portable\MemMang\heap_4.c:187: 					if( ( pxBlock->xBlockSize - xWantedSize ) > heapMI
 187:.\freertos\portable\MemMang/heap_4.c **** 					{
 416              		.loc 1 187 32 view .LVU124
 417 00c0 D21A     		subs	r2, r2, r3	@ _13, _7, xWantedSize
 418              	@ .\freertos\portable\MemMang\heap_4.c:187: 					if( ( pxBlock->xBlockSize - xWantedSize ) > heapMI
 187:.\freertos\portable\MemMang/heap_4.c **** 					{
 419              		.loc 1 187 8 view .LVU125
 420 00c2 102A     		cmp	r2, #16	@ _13,
 421              	@ .\freertos\portable\MemMang\heap_4.c:179: 					pvReturn = ( void * ) ( ( ( uint8_t * ) pxPrevious
 179:.\freertos\portable\MemMang/heap_4.c **** 
 422              		.loc 1 179 15 view .LVU126
 423 00c4 04F10804 		add	r4, r4, #8	@ <retval>, pxPreviousBlock_22->pxNextFreeBlock,
 424              	.LVL21:
 183:.\freertos\portable\MemMang/heap_4.c **** 
 425              		.loc 1 183 6 is_stmt 1 view .LVU127
 426              	@ .\freertos\portable\MemMang\heap_4.c:183: 					pxPreviousBlock->pxNextFreeBlock = pxBlock->pxNext
 183:.\freertos\portable\MemMang/heap_4.c **** 
 427              		.loc 1 183 39 is_stmt 0 view .LVU128
 428 00c8 0160     		str	r1, [r0]	@ _11, pxPreviousBlock_22->pxNextFreeBlock
 187:.\freertos\portable\MemMang/heap_4.c **** 					{
 429              		.loc 1 187 6 is_stmt 1 view .LVU129
 430              	@ .\freertos\portable\MemMang\heap_4.c:187: 					if( ( pxBlock->xBlockSize - xWantedSize ) > heapMI
 187:.\freertos\portable\MemMang/heap_4.c **** 					{
 431              		.loc 1 187 8 is_stmt 0 view .LVU130
 432 00ca 04D9     		bls	.L18		@,
 193:.\freertos\portable\MemMang/heap_4.c **** 						configASSERT( ( ( ( size_t ) pxNewBlockLink ) & portBYTE_ALIGNMENT_MASK ) == 0 );
 433              		.loc 1 193 7 is_stmt 1 view .LVU131
 434              	@ .\freertos\portable\MemMang\heap_4.c:193: 						pxNewBlockLink = ( void * ) ( ( ( uint8_t * ) pxB
 193:.\freertos\portable\MemMang/heap_4.c **** 						configASSERT( ( ( ( size_t ) pxNewBlockLink ) & portBYTE_ALIGNMENT_MASK ) == 0 );
 435              		.loc 1 193 22 is_stmt 0 view .LVU132
 436 00cc F018     		adds	r0, r6, r3	@ pxNewBlockLink, pxBlock, xWantedSize
 437              	.LVL22:
 194:.\freertos\portable\MemMang/heap_4.c **** 
ARM GAS  C:\Users\skey\AppData\Local\Temp\ccX2fGbd.s 			page 18


 438              		.loc 1 194 87 is_stmt 1 view .LVU133
 198:.\freertos\portable\MemMang/heap_4.c **** 						pxBlock->xBlockSize = xWantedSize;
 439              		.loc 1 198 7 view .LVU134
 440              	@ .\freertos\portable\MemMang\heap_4.c:198: 						pxNewBlockLink->xBlockSize = pxBlock->xBlockSize 
 198:.\freertos\portable\MemMang/heap_4.c **** 						pxBlock->xBlockSize = xWantedSize;
 441              		.loc 1 198 34 is_stmt 0 view .LVU135
 442 00ce 4260     		str	r2, [r0, #4]	@ _13, pxNewBlockLink_39->xBlockSize
 199:.\freertos\portable\MemMang/heap_4.c **** 
 443              		.loc 1 199 7 is_stmt 1 view .LVU136
 444              	@ .\freertos\portable\MemMang\heap_4.c:199: 						pxBlock->xBlockSize = xWantedSize;
 199:.\freertos\portable\MemMang/heap_4.c **** 
 445              		.loc 1 199 27 is_stmt 0 view .LVU137
 446 00d0 7360     		str	r3, [r6, #4]	@ xWantedSize, pxBlock_21->xBlockSize
 202:.\freertos\portable\MemMang/heap_4.c **** 					}
 447              		.loc 1 202 7 is_stmt 1 view .LVU138
 448 00d2 FFF795FF 		bl	prvInsertBlockIntoFreeList		@
 449              	.LVL23:
 450              	.L18:
 206:.\freertos\portable\MemMang/heap_4.c **** 					}
 451              		.loc 1 206 31 view .LVU139
 209:.\freertos\portable\MemMang/heap_4.c **** 
 452              		.loc 1 209 6 view .LVU140
 453              	@ .\freertos\portable\MemMang\heap_4.c:223: 					pxBlock->pxNextFreeBlock = NULL;
 223:.\freertos\portable\MemMang/heap_4.c **** 				}
 454              		.loc 1 223 31 is_stmt 0 view .LVU141
 455 00d6 0023     		movs	r3, #0	@ tmp169,
 456              	@ .\freertos\portable\MemMang\heap_4.c:209: 					xFreeBytesRemaining -= pxBlock->xBlockSize;
 209:.\freertos\portable\MemMang/heap_4.c **** 
 457              		.loc 1 209 36 view .LVU142
 458 00d8 7268     		ldr	r2, [r6, #4]	@ _15, pxBlock_21->xBlockSize
 459              	@ .\freertos\portable\MemMang\heap_4.c:211: 					if( xFreeBytesRemaining < xMinimumEverFreeBytesRem
 211:.\freertos\portable\MemMang/heap_4.c **** 					{
 460              		.loc 1 211 8 view .LVU143
 461 00da E968     		ldr	r1, [r5, #12]	@ xMinimumEverFreeBytesRemaining, xMinimumEverFreeBytesRemaining
 462              	@ .\freertos\portable\MemMang\heap_4.c:209: 					xFreeBytesRemaining -= pxBlock->xBlockSize;
 209:.\freertos\portable\MemMang/heap_4.c **** 
 463              		.loc 1 209 26 view .LVU144
 464 00dc BF1A     		subs	r7, r7, r2	@ _16, xFreeBytesRemaining.2_6, _15
 465              	@ .\freertos\portable\MemMang\heap_4.c:211: 					if( xFreeBytesRemaining < xMinimumEverFreeBytesRem
 211:.\freertos\portable\MemMang/heap_4.c **** 					{
 466              		.loc 1 211 8 view .LVU145
 467 00de 8F42     		cmp	r7, r1	@ _16, xMinimumEverFreeBytesRemaining
 468              	@ .\freertos\portable\MemMang\heap_4.c:222: 					pxBlock->xBlockSize |= xBlockAllocatedBit;
 222:.\freertos\portable\MemMang/heap_4.c **** 					pxBlock->pxNextFreeBlock = NULL;
 469              		.loc 1 222 26 view .LVU146
 470 00e0 48EA0202 		orr	r2, r8, r2	@ tmp168, xBlockAllocatedBit.1_2, _15
 471              	@ .\freertos\portable\MemMang\heap_4.c:209: 					xFreeBytesRemaining -= pxBlock->xBlockSize;
 209:.\freertos\portable\MemMang/heap_4.c **** 
 472              		.loc 1 209 26 view .LVU147
 473 00e4 2F61     		str	r7, [r5, #16]	@ _16, xFreeBytesRemaining
 211:.\freertos\portable\MemMang/heap_4.c **** 					{
 474              		.loc 1 211 6 is_stmt 1 view .LVU148
 213:.\freertos\portable\MemMang/heap_4.c **** 					}
 475              		.loc 1 213 7 view .LVU149
 476              	@ .\freertos\portable\MemMang\heap_4.c:213: 						xMinimumEverFreeBytesRemaining = xFreeBytesRemain
 213:.\freertos\portable\MemMang/heap_4.c **** 					}
 477              		.loc 1 213 38 is_stmt 0 view .LVU150
ARM GAS  C:\Users\skey\AppData\Local\Temp\ccX2fGbd.s 			page 19


 478 00e6 38BF     		it	cc
 479 00e8 EF60     		strcc	r7, [r5, #12]	@ _16, xMinimumEverFreeBytesRemaining
 217:.\freertos\portable\MemMang/heap_4.c **** 					}
 480              		.loc 1 217 31 is_stmt 1 view .LVU151
 222:.\freertos\portable\MemMang/heap_4.c **** 					pxBlock->pxNextFreeBlock = NULL;
 481              		.loc 1 222 6 view .LVU152
 482              	@ .\freertos\portable\MemMang\heap_4.c:222: 					pxBlock->xBlockSize |= xBlockAllocatedBit;
 222:.\freertos\portable\MemMang/heap_4.c **** 					pxBlock->pxNextFreeBlock = NULL;
 483              		.loc 1 222 26 is_stmt 0 view .LVU153
 484 00ea 7260     		str	r2, [r6, #4]	@ tmp168, pxBlock_21->xBlockSize
 223:.\freertos\portable\MemMang/heap_4.c **** 				}
 485              		.loc 1 223 6 is_stmt 1 view .LVU154
 486              	@ .\freertos\portable\MemMang\heap_4.c:223: 					pxBlock->pxNextFreeBlock = NULL;
 223:.\freertos\portable\MemMang/heap_4.c **** 				}
 487              		.loc 1 223 31 is_stmt 0 view .LVU155
 488 00ec 3360     		str	r3, [r6]	@ tmp169, pxBlock_21->pxNextFreeBlock
 489              	.LVL24:
 490              	.L14:
 237:.\freertos\portable\MemMang/heap_4.c **** 		}
 491              		.loc 1 237 28 is_stmt 1 view .LVU156
 240:.\freertos\portable\MemMang/heap_4.c **** 	}
 492              		.loc 1 240 39 view .LVU157
 242:.\freertos\portable\MemMang/heap_4.c **** 
 493              		.loc 1 242 2 view .LVU158
 494              	@ .\freertos\portable\MemMang\heap_4.c:242: 	( void ) xTaskResumeAll();
 242:.\freertos\portable\MemMang/heap_4.c **** 
 495              		.loc 1 242 11 is_stmt 0 view .LVU159
 496 00ee FFF7FEFF 		bl	xTaskResumeAll		@
 497              	.LVL25:
 258:.\freertos\portable\MemMang/heap_4.c **** 	return pvReturn;
 498              		.loc 1 258 87 is_stmt 1 view .LVU160
 259:.\freertos\portable\MemMang/heap_4.c **** }
 499              		.loc 1 259 2 view .LVU161
 500              	@ .\freertos\portable\MemMang\heap_4.c:260: }
 260:.\freertos\portable\MemMang/heap_4.c **** /*-----------------------------------------------------------*/
 501              		.loc 1 260 1 is_stmt 0 view .LVU162
 502 00f2 2046     		mov	r0, r4	@, <retval>
 503 00f4 BDE8F081 		pop	{r4, r5, r6, r7, r8, pc}	@
 504              	.LVL26:
 505              	.L25:
 260:.\freertos\portable\MemMang/heap_4.c **** /*-----------------------------------------------------------*/
 506              		.loc 1 260 1 view .LVU163
 507 00f8 3046     		mov	r0, r6	@ pxPreviousBlock, pxBlock
 508 00fa 0E46     		mov	r6, r1	@ pxBlock, _8
 509              	.LVL27:
 260:.\freertos\portable\MemMang/heap_4.c **** /*-----------------------------------------------------------*/
 510              		.loc 1 260 1 view .LVU164
 511 00fc D6E7     		b	.L17		@
 512              	.LVL28:
 513              	.L26:
 514              	@ .\freertos\portable\MemMang\heap_4.c:116: void *pvReturn = NULL;
 116:.\freertos\portable\MemMang/heap_4.c **** 
 515              		.loc 1 116 7 view .LVU165
 516 00fe 0024     		movs	r4, #0	@ <retval>,
 517 0100 F5E7     		b	.L14		@
 518              	.L31:
 519 0102 00BF     		.align	2
ARM GAS  C:\Users\skey\AppData\Local\Temp\ccX2fGbd.s 			page 20


 520              	.L30:
 521 0104 00000000 		.word	.LANCHOR0
 522 0108 18000000 		.word	ucHeap
 523 010c 10480000 		.word	ucHeap+18424
 524              		.cfi_endproc
 525              	.LFE34:
 526              		.size	pvPortMalloc, .-pvPortMalloc
 527              		.align	1
 528              		.global	vPortFree
 529              		.syntax unified
 530              		.thumb
 531              		.thumb_func
 532              		.fpu softvfp
 533              		.type	vPortFree, %function
 534              	vPortFree:
 535              	.LVL29:
 536              	.LFB35:
 264:.\freertos\portable\MemMang/heap_4.c **** uint8_t *puc = ( uint8_t * ) pv;
 537              		.loc 1 264 1 is_stmt 1 view -0
 538              		.cfi_startproc
 539              		@ args = 0, pretend = 0, frame = 0
 540              		@ frame_needed = 0, uses_anonymous_args = 0
 265:.\freertos\portable\MemMang/heap_4.c **** BlockLink_t *pxLink;
 541              		.loc 1 265 1 view .LVU167
 266:.\freertos\portable\MemMang/heap_4.c **** 
 542              		.loc 1 266 1 view .LVU168
 268:.\freertos\portable\MemMang/heap_4.c **** 	{
 543              		.loc 1 268 2 view .LVU169
 544              	@ .\freertos\portable\MemMang\heap_4.c:264: {
 264:.\freertos\portable\MemMang/heap_4.c **** uint8_t *puc = ( uint8_t * ) pv;
 545              		.loc 1 264 1 is_stmt 0 view .LVU170
 546 0110 38B5     		push	{r3, r4, r5, lr}	@
 547              	.LCFI2:
 548              		.cfi_def_cfa_offset 16
 549              		.cfi_offset 3, -16
 550              		.cfi_offset 4, -12
 551              		.cfi_offset 5, -8
 552              		.cfi_offset 14, -4
 553              	@ .\freertos\portable\MemMang\heap_4.c:268: 	if( pv != NULL )
 268:.\freertos\portable\MemMang/heap_4.c **** 	{
 554              		.loc 1 268 4 view .LVU171
 555 0112 0446     		mov	r4, r0	@ pv, tmp132
 556 0114 D8B1     		cbz	r0, .L32	@ pv,
 272:.\freertos\portable\MemMang/heap_4.c **** 
 557              		.loc 1 272 3 is_stmt 1 view .LVU172
 558              	.LVL30:
 275:.\freertos\portable\MemMang/heap_4.c **** 
 559              		.loc 1 275 3 view .LVU173
 278:.\freertos\portable\MemMang/heap_4.c **** 		configASSERT( pxLink->pxNextFreeBlock == NULL );
 560              		.loc 1 278 67 view .LVU174
 279:.\freertos\portable\MemMang/heap_4.c **** 
 561              		.loc 1 279 50 view .LVU175
 281:.\freertos\portable\MemMang/heap_4.c **** 		{
 562              		.loc 1 281 3 view .LVU176
 563              	@ .\freertos\portable\MemMang\heap_4.c:281: 		if( ( pxLink->xBlockSize & xBlockAllocatedBit ) != 0 
 281:.\freertos\portable\MemMang/heap_4.c **** 		{
 564              		.loc 1 281 28 is_stmt 0 view .LVU177
ARM GAS  C:\Users\skey\AppData\Local\Temp\ccX2fGbd.s 			page 21


 565 0116 0E4D     		ldr	r5, .L40	@ tmp121,
 566              	@ .\freertos\portable\MemMang\heap_4.c:281: 		if( ( pxLink->xBlockSize & xBlockAllocatedBit ) != 0 
 281:.\freertos\portable\MemMang/heap_4.c **** 		{
 567              		.loc 1 281 15 view .LVU178
 568 0118 50F8043C 		ldr	r3, [r0, #-4]	@ _1, MEM[(struct BlockLink_t *)pv_11(D) + 4294967288B].xBlockSize
 569              	@ .\freertos\portable\MemMang\heap_4.c:281: 		if( ( pxLink->xBlockSize & xBlockAllocatedBit ) != 0 
 281:.\freertos\portable\MemMang/heap_4.c **** 		{
 570              		.loc 1 281 28 view .LVU179
 571 011c 6A69     		ldr	r2, [r5, #20]	@ xBlockAllocatedBit.18_2, xBlockAllocatedBit
 572              	@ .\freertos\portable\MemMang\heap_4.c:281: 		if( ( pxLink->xBlockSize & xBlockAllocatedBit ) != 0 
 281:.\freertos\portable\MemMang/heap_4.c **** 		{
 573              		.loc 1 281 5 view .LVU180
 574 011e 1342     		tst	r3, r2	@ _1, xBlockAllocatedBit.18_2
 575 0120 15D0     		beq	.L32		@,
 283:.\freertos\portable\MemMang/heap_4.c **** 			{
 576              		.loc 1 283 4 is_stmt 1 view .LVU181
 577              	@ .\freertos\portable\MemMang\heap_4.c:283: 			if( pxLink->pxNextFreeBlock == NULL )
 283:.\freertos\portable\MemMang/heap_4.c **** 			{
 578              		.loc 1 283 6 is_stmt 0 view .LVU182
 579 0122 50F8081C 		ldr	r1, [r0, #-8]	@ MEM[(struct BlockLink_t *)pv_11(D) + 4294967288B].pxNextFreeBlock, MEM[(struct
 580 0126 91B9     		cbnz	r1, .L32	@ MEM[(struct BlockLink_t *)pv_11(D) + 4294967288B].pxNextFreeBlock,
 287:.\freertos\portable\MemMang/heap_4.c **** 
 581              		.loc 1 287 5 is_stmt 1 view .LVU183
 582              	@ .\freertos\portable\MemMang\heap_4.c:287: 				pxLink->xBlockSize &= ~xBlockAllocatedBit;
 287:.\freertos\portable\MemMang/heap_4.c **** 
 583              		.loc 1 287 24 is_stmt 0 view .LVU184
 584 0128 23EA0203 		bic	r3, r3, r2	@ tmp125, _1, xBlockAllocatedBit.18_2
 585 012c 40F8043C 		str	r3, [r0, #-4]	@ tmp125, MEM[(struct BlockLink_t *)pv_11(D) + 4294967288B].xBlockSize
 289:.\freertos\portable\MemMang/heap_4.c **** 				{
 586              		.loc 1 289 5 is_stmt 1 view .LVU185
 587 0130 FFF7FEFF 		bl	vTaskSuspendAll		@
 588              	.LVL31:
 292:.\freertos\portable\MemMang/heap_4.c **** 					traceFREE( pv, pxLink->xBlockSize );
 589              		.loc 1 292 6 view .LVU186
 590              	@ .\freertos\portable\MemMang\heap_4.c:292: 					xFreeBytesRemaining += pxLink->xBlockSize;
 292:.\freertos\portable\MemMang/heap_4.c **** 					traceFREE( pv, pxLink->xBlockSize );
 591              		.loc 1 292 26 is_stmt 0 view .LVU187
 592 0134 2A69     		ldr	r2, [r5, #16]	@ xFreeBytesRemaining, xFreeBytesRemaining
 593 0136 54F8043C 		ldr	r3, [r4, #-4]	@ MEM[(struct BlockLink_t *)pv_11(D) + 4294967288B].xBlockSize, MEM[(struct Bloc
 594              	@ .\freertos\portable\MemMang\heap_4.c:294: 					prvInsertBlockIntoFreeList( ( ( BlockLink_t * ) px
 294:.\freertos\portable\MemMang/heap_4.c **** 				}
 595              		.loc 1 294 6 view .LVU188
 596 013a A4F10800 		sub	r0, r4, #8	@, pv,
 597              	.LVL32:
 598              	@ .\freertos\portable\MemMang\heap_4.c:292: 					xFreeBytesRemaining += pxLink->xBlockSize;
 292:.\freertos\portable\MemMang/heap_4.c **** 					traceFREE( pv, pxLink->xBlockSize );
 599              		.loc 1 292 26 view .LVU189
 600 013e 1344     		add	r3, r3, r2	@ tmp128, xFreeBytesRemaining
 601 0140 2B61     		str	r3, [r5, #16]	@ tmp128, xFreeBytesRemaining
 293:.\freertos\portable\MemMang/heap_4.c **** 					prvInsertBlockIntoFreeList( ( ( BlockLink_t * ) pxLink ) );
 602              		.loc 1 293 41 is_stmt 1 view .LVU190
 294:.\freertos\portable\MemMang/heap_4.c **** 				}
 603              		.loc 1 294 6 view .LVU191
 604 0142 FFF75DFF 		bl	prvInsertBlockIntoFreeList		@
 605              	.LVL33:
 296:.\freertos\portable\MemMang/heap_4.c **** 			}
 606              		.loc 1 296 5 view .LVU192
ARM GAS  C:\Users\skey\AppData\Local\Temp\ccX2fGbd.s 			page 22


 607              	@ .\freertos\portable\MemMang\heap_4.c:308: }
 308:.\freertos\portable\MemMang/heap_4.c **** /*-----------------------------------------------------------*/
 608              		.loc 1 308 1 is_stmt 0 view .LVU193
 609 0146 BDE83840 		pop	{r3, r4, r5, lr}	@
 610              	.LCFI3:
 611              		.cfi_remember_state
 612              		.cfi_restore 14
 613              		.cfi_restore 5
 614              		.cfi_restore 4
 615              		.cfi_restore 3
 616              		.cfi_def_cfa_offset 0
 617              	.LVL34:
 618              	@ .\freertos\portable\MemMang\heap_4.c:296: 				( void ) xTaskResumeAll();
 296:.\freertos\portable\MemMang/heap_4.c **** 			}
 619              		.loc 1 296 14 view .LVU194
 620 014a FFF7FEBF 		b	xTaskResumeAll		@
 621              	.LVL35:
 622              	.L32:
 623              	.LCFI4:
 624              		.cfi_restore_state
 625              	@ .\freertos\portable\MemMang\heap_4.c:308: }
 308:.\freertos\portable\MemMang/heap_4.c **** /*-----------------------------------------------------------*/
 626              		.loc 1 308 1 view .LVU195
 627 014e 38BD     		pop	{r3, r4, r5, pc}	@
 628              	.L41:
 629              		.align	2
 630              	.L40:
 631 0150 00000000 		.word	.LANCHOR0
 632              		.cfi_endproc
 633              	.LFE35:
 634              		.size	vPortFree, .-vPortFree
 635              		.align	1
 636              		.global	xPortGetFreeHeapSize
 637              		.syntax unified
 638              		.thumb
 639              		.thumb_func
 640              		.fpu softvfp
 641              		.type	xPortGetFreeHeapSize, %function
 642              	xPortGetFreeHeapSize:
 643              	.LFB36:
 312:.\freertos\portable\MemMang/heap_4.c **** 	return xFreeBytesRemaining;
 644              		.loc 1 312 1 is_stmt 1 view -0
 645              		.cfi_startproc
 646              		@ args = 0, pretend = 0, frame = 0
 647              		@ frame_needed = 0, uses_anonymous_args = 0
 648              		@ link register save eliminated.
 313:.\freertos\portable\MemMang/heap_4.c **** }
 649              		.loc 1 313 2 view .LVU197
 650              	@ .\freertos\portable\MemMang\heap_4.c:314: }
 314:.\freertos\portable\MemMang/heap_4.c **** /*-----------------------------------------------------------*/
 651              		.loc 1 314 1 is_stmt 0 view .LVU198
 652 0154 014B     		ldr	r3, .L43	@ tmp112,
 653 0156 1869     		ldr	r0, [r3, #16]	@, xFreeBytesRemaining
 654 0158 7047     		bx	lr	@
 655              	.L44:
 656 015a 00BF     		.align	2
 657              	.L43:
ARM GAS  C:\Users\skey\AppData\Local\Temp\ccX2fGbd.s 			page 23


 658 015c 00000000 		.word	.LANCHOR0
 659              		.cfi_endproc
 660              	.LFE36:
 661              		.size	xPortGetFreeHeapSize, .-xPortGetFreeHeapSize
 662              		.align	1
 663              		.global	xPortGetMinimumEverFreeHeapSize
 664              		.syntax unified
 665              		.thumb
 666              		.thumb_func
 667              		.fpu softvfp
 668              		.type	xPortGetMinimumEverFreeHeapSize, %function
 669              	xPortGetMinimumEverFreeHeapSize:
 670              	.LFB37:
 318:.\freertos\portable\MemMang/heap_4.c **** 	return xMinimumEverFreeBytesRemaining;
 671              		.loc 1 318 1 is_stmt 1 view -0
 672              		.cfi_startproc
 673              		@ args = 0, pretend = 0, frame = 0
 674              		@ frame_needed = 0, uses_anonymous_args = 0
 675              		@ link register save eliminated.
 319:.\freertos\portable\MemMang/heap_4.c **** }
 676              		.loc 1 319 2 view .LVU200
 677              	@ .\freertos\portable\MemMang\heap_4.c:320: }
 320:.\freertos\portable\MemMang/heap_4.c **** /*-----------------------------------------------------------*/
 678              		.loc 1 320 1 is_stmt 0 view .LVU201
 679 0160 014B     		ldr	r3, .L46	@ tmp112,
 680 0162 D868     		ldr	r0, [r3, #12]	@, xMinimumEverFreeBytesRemaining
 681 0164 7047     		bx	lr	@
 682              	.L47:
 683 0166 00BF     		.align	2
 684              	.L46:
 685 0168 00000000 		.word	.LANCHOR0
 686              		.cfi_endproc
 687              	.LFE37:
 688              		.size	xPortGetMinimumEverFreeHeapSize, .-xPortGetMinimumEverFreeHeapSize
 689              		.align	1
 690              		.global	vPortInitialiseBlocks
 691              		.syntax unified
 692              		.thumb
 693              		.thumb_func
 694              		.fpu softvfp
 695              		.type	vPortInitialiseBlocks, %function
 696              	vPortInitialiseBlocks:
 697              	.LFB38:
 324:.\freertos\portable\MemMang/heap_4.c **** 	/* This just exists to keep the linker quiet. */
 698              		.loc 1 324 1 is_stmt 1 view -0
 699              		.cfi_startproc
 700              		@ args = 0, pretend = 0, frame = 0
 701              		@ frame_needed = 0, uses_anonymous_args = 0
 702              		@ link register save eliminated.
 326:.\freertos\portable\MemMang/heap_4.c **** /*-----------------------------------------------------------*/
 703              		.loc 1 326 1 view .LVU203
 704 016c 7047     		bx	lr	@
 705              		.cfi_endproc
 706              	.LFE38:
 707              		.size	vPortInitialiseBlocks, .-vPortInitialiseBlocks
 708              		.bss
 709              		.align	2
ARM GAS  C:\Users\skey\AppData\Local\Temp\ccX2fGbd.s 			page 24


 710              		.set	.LANCHOR0,. + 0
 711              		.type	xStart, %object
 712              		.size	xStart, 8
 713              	xStart:
 714 0000 00000000 		.space	8
 714      00000000 
 715              		.type	pxEnd, %object
 716              		.size	pxEnd, 4
 717              	pxEnd:
 718 0008 00000000 		.space	4
 719              		.type	xMinimumEverFreeBytesRemaining, %object
 720              		.size	xMinimumEverFreeBytesRemaining, 4
 721              	xMinimumEverFreeBytesRemaining:
 722 000c 00000000 		.space	4
 723              		.type	xFreeBytesRemaining, %object
 724              		.size	xFreeBytesRemaining, 4
 725              	xFreeBytesRemaining:
 726 0010 00000000 		.space	4
 727              		.type	xBlockAllocatedBit, %object
 728              		.size	xBlockAllocatedBit, 4
 729              	xBlockAllocatedBit:
 730 0014 00000000 		.space	4
 731              		.type	ucHeap, %object
 732              		.size	ucHeap, 18432
 733              	ucHeap:
 734 0018 00000000 		.space	18432
 734      00000000 
 734      00000000 
 734      00000000 
 734      00000000 
 735              		.text
 736              	.Letext0:
 737              		.file 2 "c:\\program files (x86)\\gnu tools arm embedded\\9 2019-q4-major\\lib\\gcc\\arm-none-eabi
 738              		.file 3 "c:\\program files (x86)\\gnu tools arm embedded\\9 2019-q4-major\\arm-none-eabi\\include\
 739              		.file 4 "c:\\program files (x86)\\gnu tools arm embedded\\9 2019-q4-major\\arm-none-eabi\\include\
 740              		.file 5 "c:\\program files (x86)\\gnu tools arm embedded\\9 2019-q4-major\\arm-none-eabi\\include\
 741              		.file 6 "c:\\program files (x86)\\gnu tools arm embedded\\9 2019-q4-major\\arm-none-eabi\\include\
 742              		.file 7 "c:\\program files (x86)\\gnu tools arm embedded\\9 2019-q4-major\\arm-none-eabi\\include\
 743              		.file 8 "c:\\program files (x86)\\gnu tools arm embedded\\9 2019-q4-major\\arm-none-eabi\\include\
 744              		.file 9 ".\\stlib\\CMSIS\\CM3\\CoreSupport/core_cm3.h"
 745              		.file 10 ".\\stlib\\CMSIS\\CM3\\DeviceSupport\\ST\\STM32F10x/system_stm32f10x.h"
 746              		.file 11 ".\\freertos\\include/task.h"