ARM GAS  C:\Users\skey\AppData\Local\Temp\ccx2DgoR.s 			page 1


   1              		.cpu cortex-m3
   2              		.eabi_attribute 20, 1	@ Tag_ABI_FP_denormal
   3              		.eabi_attribute 21, 1	@ Tag_ABI_FP_exceptions
   4              		.eabi_attribute 23, 3	@ Tag_ABI_FP_number_model
   5              		.eabi_attribute 24, 1	@ Tag_ABI_align8_needed
   6              		.eabi_attribute 25, 1	@ Tag_ABI_align8_preserved
   7              		.eabi_attribute 26, 1	@ Tag_ABI_enum_size
   8              		.eabi_attribute 30, 4	@ Tag_ABI_optimization_goals
   9              		.eabi_attribute 34, 1	@ Tag_CPU_unaligned_access
  10              		.eabi_attribute 18, 4	@ Tag_ABI_PCS_wchar_t
  11              		.file	"list.c"
  12              	@ GNU C17 (GNU Tools for Arm Embedded Processors 9-2019-q4-major) version 9.2.1 20191025 (release) 
  13              	@	compiled by GNU C version 5.3.1 20160211, GMP version 6.1.0, MPFR version 3.1.4, MPC version 1.0.
  14              	
  15              	@ GGC heuristics: --param ggc-min-expand=100 --param ggc-min-heapsize=131072
  16              	@ options passed:  -I . -I .\usr_inc -I .\task_inc
  17              	@ -I .\stlib\CMSIS\CM3\CoreSupport
  18              	@ -I .\stlib\CMSIS\CM3\DeviceSupport\ST\STM32F10x
  19              	@ -I .\stlib\STM32F10x_StdPeriph_Driver\inc
  20              	@ -I .\stlib\STM32F10x_StdPeriph_Driver -I .\freertos\include
  21              	@ -I .\freertos\portable\GCC\ARM_CM3 -imultilib thumb/v7-m/nofp
  22              	@ -iprefix c:\program files (x86)\gnu tools arm embedded\9 2019-q4-major\bin\../lib/gcc/arm-none-ea
  23              	@ -isysroot c:\program files (x86)\gnu tools arm embedded\9 2019-q4-major\bin\../arm-none-eabi
  24              	@ -D__USES_INITFINI__ -D STM32F10X_HD -D USE_STDPERIPH_DRIVER
  25              	@ -D HSE_VALUE=8000000 -D RUN_FROM_FLASH=1 .\freertos\list.c
  26              	@ -mcpu=cortex-m3 -mthumb -mfloat-abi=soft -march=armv7-m
  27              	@ -auxbase-strip .\freertos\list.o -g -gdwarf-2 -Os -Wall
  28              	@ -fomit-frame-pointer -fverbose-asm
  29              	@ options enabled:  -faggressive-loop-optimizations -fassume-phsa
  30              	@ -fauto-inc-dec -fbranch-count-reg -fcaller-saves -fcode-hoisting
  31              	@ -fcombine-stack-adjustments -fcommon -fcompare-elim -fcprop-registers
  32              	@ -fcrossjumping -fcse-follow-jumps -fdefer-pop
  33              	@ -fdelete-null-pointer-checks -fdevirtualize -fdevirtualize-speculatively
  34              	@ -fdwarf2-cfi-asm -fearly-inlining -feliminate-unused-debug-types
  35              	@ -fexpensive-optimizations -fforward-propagate -ffp-int-builtin-inexact
  36              	@ -ffunction-cse -fgcse -fgcse-lm -fgnu-runtime -fgnu-unique
  37              	@ -fguess-branch-probability -fhoist-adjacent-loads -fident -fif-conversion
  38              	@ -fif-conversion2 -findirect-inlining -finline -finline-atomics
  39              	@ -finline-functions -finline-functions-called-once
  40              	@ -finline-small-functions -fipa-bit-cp -fipa-cp -fipa-icf
  41              	@ -fipa-icf-functions -fipa-icf-variables -fipa-profile -fipa-pure-const
  42              	@ -fipa-ra -fipa-reference -fipa-reference-addressable -fipa-sra
  43              	@ -fipa-stack-alignment -fipa-vrp -fira-hoist-pressure
  44              	@ -fira-share-save-slots -fira-share-spill-slots
  45              	@ -fisolate-erroneous-paths-dereference -fivopts -fkeep-static-consts
  46              	@ -fleading-underscore -flifetime-dse -flra-remat -flto-odr-type-merging
  47              	@ -fmath-errno -fmerge-constants -fmerge-debug-strings
  48              	@ -fmove-loop-invariants -fomit-frame-pointer -foptimize-sibling-calls
  49              	@ -fpartial-inlining -fpeephole -fpeephole2 -fplt -fprefetch-loop-arrays
  50              	@ -freg-struct-return -freorder-blocks -freorder-functions
  51              	@ -frerun-cse-after-loop -fsched-critical-path-heuristic
  52              	@ -fsched-dep-count-heuristic -fsched-group-heuristic -fsched-interblock
  53              	@ -fsched-last-insn-heuristic -fsched-pressure -fsched-rank-heuristic
  54              	@ -fsched-spec -fsched-spec-insn-heuristic -fsched-stalled-insns-dep
  55              	@ -fschedule-insns2 -fsection-anchors -fsemantic-interposition
  56              	@ -fshow-column -fshrink-wrap-separate -fsigned-zeros
  57              	@ -fsplit-ivs-in-unroller -fsplit-wide-types -fssa-backprop -fssa-phiopt
ARM GAS  C:\Users\skey\AppData\Local\Temp\ccx2DgoR.s 			page 2


  58              	@ -fstdarg-opt -fstore-merging -fstrict-aliasing
  59              	@ -fstrict-volatile-bitfields -fsync-libcalls -fthread-jumps
  60              	@ -ftoplevel-reorder -ftrapping-math -ftree-bit-ccp -ftree-builtin-call-dce
  61              	@ -ftree-ccp -ftree-ch -ftree-coalesce-vars -ftree-copy-prop -ftree-cselim
  62              	@ -ftree-dce -ftree-dominator-opts -ftree-dse -ftree-forwprop -ftree-fre
  63              	@ -ftree-loop-if-convert -ftree-loop-im -ftree-loop-ivcanon
  64              	@ -ftree-loop-optimize -ftree-parallelize-loops= -ftree-phiprop -ftree-pre
  65              	@ -ftree-pta -ftree-reassoc -ftree-scev-cprop -ftree-sink -ftree-slsr
  66              	@ -ftree-sra -ftree-switch-conversion -ftree-tail-merge -ftree-ter
  67              	@ -ftree-vrp -funit-at-a-time -fvar-tracking -fvar-tracking-assignments
  68              	@ -fverbose-asm -fzero-initialized-in-bss -masm-syntax-unified -mbe32
  69              	@ -mfix-cortex-m3-ldrd -mlittle-endian -mpic-data-is-text-relative
  70              	@ -msched-prolog -mthumb -munaligned-access -mvectorize-with-neon-quad
  71              	
  72              		.text
  73              	.Ltext0:
  74              		.cfi_sections	.debug_frame
  75              		.align	1
  76              		.global	vListInitialise
  77              		.arch armv7-m
  78              		.syntax unified
  79              		.thumb
  80              		.thumb_func
  81              		.fpu softvfp
  82              		.type	vListInitialise, %function
  83              	vListInitialise:
  84              	.LVL0:
  85              	.LFB34:
  86              		.file 1 ".\\freertos\\list.c"
   1:.\freertos/list.c **** /*
   2:.\freertos/list.c ****  * FreeRTOS Kernel V10.2.1
   3:.\freertos/list.c ****  * Copyright (C) 2019 Amazon.com, Inc. or its affiliates.  All Rights Reserved.
   4:.\freertos/list.c ****  *
   5:.\freertos/list.c ****  * Permission is hereby granted, free of charge, to any person obtaining a copy of
   6:.\freertos/list.c ****  * this software and associated documentation files (the "Software"), to deal in
   7:.\freertos/list.c ****  * the Software without restriction, including without limitation the rights to
   8:.\freertos/list.c ****  * use, copy, modify, merge, publish, distribute, sublicense, and/or sell copies of
   9:.\freertos/list.c ****  * the Software, and to permit persons to whom the Software is furnished to do so,
  10:.\freertos/list.c ****  * subject to the following conditions:
  11:.\freertos/list.c ****  *
  12:.\freertos/list.c ****  * The above copyright notice and this permission notice shall be included in all
  13:.\freertos/list.c ****  * copies or substantial portions of the Software.
  14:.\freertos/list.c ****  *
  15:.\freertos/list.c ****  * THE SOFTWARE IS PROVIDED "AS IS", WITHOUT WARRANTY OF ANY KIND, EXPRESS OR
  16:.\freertos/list.c ****  * IMPLIED, INCLUDING BUT NOT LIMITED TO THE WARRANTIES OF MERCHANTABILITY, FITNESS
  17:.\freertos/list.c ****  * FOR A PARTICULAR PURPOSE AND NONINFRINGEMENT. IN NO EVENT SHALL THE AUTHORS OR
  18:.\freertos/list.c ****  * COPYRIGHT HOLDERS BE LIABLE FOR ANY CLAIM, DAMAGES OR OTHER LIABILITY, WHETHER
  19:.\freertos/list.c ****  * IN AN ACTION OF CONTRACT, TORT OR OTHERWISE, ARISING FROM, OUT OF OR IN
  20:.\freertos/list.c ****  * CONNECTION WITH THE SOFTWARE OR THE USE OR OTHER DEALINGS IN THE SOFTWARE.
  21:.\freertos/list.c ****  *
  22:.\freertos/list.c ****  * http://www.FreeRTOS.org
  23:.\freertos/list.c ****  * http://aws.amazon.com/freertos
  24:.\freertos/list.c ****  *
  25:.\freertos/list.c ****  * 1 tab == 4 spaces!
  26:.\freertos/list.c ****  */
  27:.\freertos/list.c **** 
  28:.\freertos/list.c **** 
ARM GAS  C:\Users\skey\AppData\Local\Temp\ccx2DgoR.s 			page 3


  29:.\freertos/list.c **** #include <stdlib.h>
  30:.\freertos/list.c **** #include "FreeRTOS.h"
  31:.\freertos/list.c **** #include "list.h"
  32:.\freertos/list.c **** 
  33:.\freertos/list.c **** /*-----------------------------------------------------------
  34:.\freertos/list.c ****  * PUBLIC LIST API documented in list.h
  35:.\freertos/list.c ****  *----------------------------------------------------------*/
  36:.\freertos/list.c **** 
  37:.\freertos/list.c **** void vListInitialise( List_t * const pxList )
  38:.\freertos/list.c **** {
  87              		.loc 1 38 1 view -0
  88              		.cfi_startproc
  89              		@ args = 0, pretend = 0, frame = 0
  90              		@ frame_needed = 0, uses_anonymous_args = 0
  91              		@ link register save eliminated.
  39:.\freertos/list.c **** 	/* The list structure contains a list item which is used to mark the
  40:.\freertos/list.c **** 	end of the list.  To initialise the list the list end is inserted
  41:.\freertos/list.c **** 	as the only list entry. */
  42:.\freertos/list.c **** 	pxList->pxIndex = ( ListItem_t * ) &( pxList->xListEnd );			/*lint !e826 !e740 !e9087 The mini lis
  92              		.loc 1 42 2 view .LVU1
  93              	@ .\freertos\list.c:46: 	pxList->xListEnd.xItemValue = portMAX_DELAY;
  43:.\freertos/list.c **** 
  44:.\freertos/list.c **** 	/* The list end value is the highest possible value in the list to
  45:.\freertos/list.c **** 	ensure it remains at the end of the list. */
  46:.\freertos/list.c **** 	pxList->xListEnd.xItemValue = portMAX_DELAY;
  94              		.loc 1 46 30 is_stmt 0 view .LVU2
  95 0000 4FF0FF32 		mov	r2, #-1	@ tmp112,
  96              	@ .\freertos\list.c:42: 	pxList->pxIndex = ( ListItem_t * ) &( pxList->xListEnd );			/*lint !e826 !
  42:.\freertos/list.c **** 
  97              		.loc 1 42 37 view .LVU3
  98 0004 00F10803 		add	r3, r0, #8	@ _1, pxList,
  99              	@ .\freertos\list.c:50: 	pxList->xListEnd.pxNext = ( ListItem_t * ) &( pxList->xListEnd );	/*lint !
  47:.\freertos/list.c **** 
  48:.\freertos/list.c **** 	/* The list end next and previous pointers point to itself so we know
  49:.\freertos/list.c **** 	when the list is empty. */
  50:.\freertos/list.c **** 	pxList->xListEnd.pxNext = ( ListItem_t * ) &( pxList->xListEnd );	/*lint !e826 !e740 !e9087 The mi
 100              		.loc 1 50 26 view .LVU4
 101 0008 C0E90223 		strd	r2, r3, [r0, #8]	@ tmp112, _1, pxList,
 102              	@ .\freertos\list.c:42: 	pxList->pxIndex = ( ListItem_t * ) &( pxList->xListEnd );			/*lint !e826 !
  42:.\freertos/list.c **** 
 103              		.loc 1 42 18 view .LVU5
 104 000c 4360     		str	r3, [r0, #4]	@ _1, pxList_2(D)->pxIndex
  46:.\freertos/list.c **** 
 105              		.loc 1 46 2 is_stmt 1 view .LVU6
  51:.\freertos/list.c **** 	pxList->xListEnd.pxPrevious = ( ListItem_t * ) &( pxList->xListEnd );/*lint !e826 !e740 !e9087 The
 106              		.loc 1 51 2 view .LVU7
 107              	@ .\freertos\list.c:51: 	pxList->xListEnd.pxPrevious = ( ListItem_t * ) &( pxList->xListEnd );/*lin
 108              		.loc 1 51 30 is_stmt 0 view .LVU8
 109 000e 0361     		str	r3, [r0, #16]	@ _1, pxList_2(D)->xListEnd.pxPrevious
  52:.\freertos/list.c **** 
  53:.\freertos/list.c **** 	pxList->uxNumberOfItems = ( UBaseType_t ) 0U;
 110              		.loc 1 53 2 is_stmt 1 view .LVU9
 111              	@ .\freertos\list.c:53: 	pxList->uxNumberOfItems = ( UBaseType_t ) 0U;
 112              		.loc 1 53 26 is_stmt 0 view .LVU10
 113 0010 0023     		movs	r3, #0	@ tmp113,
 114 0012 0360     		str	r3, [r0]	@ tmp113, pxList_2(D)->uxNumberOfItems
  54:.\freertos/list.c **** 
ARM GAS  C:\Users\skey\AppData\Local\Temp\ccx2DgoR.s 			page 4


  55:.\freertos/list.c **** 	/* Write known values into the list if
  56:.\freertos/list.c **** 	configUSE_LIST_DATA_INTEGRITY_CHECK_BYTES is set to 1. */
  57:.\freertos/list.c **** 	listSET_LIST_INTEGRITY_CHECK_1_VALUE( pxList );
 115              		.loc 1 57 48 is_stmt 1 view .LVU11
  58:.\freertos/list.c **** 	listSET_LIST_INTEGRITY_CHECK_2_VALUE( pxList );
 116              		.loc 1 58 48 view .LVU12
 117              	@ .\freertos\list.c:59: }
  59:.\freertos/list.c **** }
 118              		.loc 1 59 1 is_stmt 0 view .LVU13
 119 0014 7047     		bx	lr	@
 120              		.cfi_endproc
 121              	.LFE34:
 122              		.size	vListInitialise, .-vListInitialise
 123              		.align	1
 124              		.global	vListInitialiseItem
 125              		.syntax unified
 126              		.thumb
 127              		.thumb_func
 128              		.fpu softvfp
 129              		.type	vListInitialiseItem, %function
 130              	vListInitialiseItem:
 131              	.LVL1:
 132              	.LFB35:
  60:.\freertos/list.c **** /*-----------------------------------------------------------*/
  61:.\freertos/list.c **** 
  62:.\freertos/list.c **** void vListInitialiseItem( ListItem_t * const pxItem )
  63:.\freertos/list.c **** {
 133              		.loc 1 63 1 is_stmt 1 view -0
 134              		.cfi_startproc
 135              		@ args = 0, pretend = 0, frame = 0
 136              		@ frame_needed = 0, uses_anonymous_args = 0
 137              		@ link register save eliminated.
  64:.\freertos/list.c **** 	/* Make sure the list item is not recorded as being on a list. */
  65:.\freertos/list.c **** 	pxItem->pxContainer = NULL;
 138              		.loc 1 65 2 view .LVU15
 139              	@ .\freertos\list.c:65: 	pxItem->pxContainer = NULL;
 140              		.loc 1 65 22 is_stmt 0 view .LVU16
 141 0016 0023     		movs	r3, #0	@ tmp111,
 142 0018 0361     		str	r3, [r0, #16]	@ tmp111, pxItem_2(D)->pvContainer
  66:.\freertos/list.c **** 
  67:.\freertos/list.c **** 	/* Write known values into the list item if
  68:.\freertos/list.c **** 	configUSE_LIST_DATA_INTEGRITY_CHECK_BYTES is set to 1. */
  69:.\freertos/list.c **** 	listSET_FIRST_LIST_ITEM_INTEGRITY_CHECK_VALUE( pxItem );
 143              		.loc 1 69 57 is_stmt 1 view .LVU17
  70:.\freertos/list.c **** 	listSET_SECOND_LIST_ITEM_INTEGRITY_CHECK_VALUE( pxItem );
 144              		.loc 1 70 58 view .LVU18
 145              	@ .\freertos\list.c:71: }
  71:.\freertos/list.c **** }
 146              		.loc 1 71 1 is_stmt 0 view .LVU19
 147 001a 7047     		bx	lr	@
 148              		.cfi_endproc
 149              	.LFE35:
 150              		.size	vListInitialiseItem, .-vListInitialiseItem
 151              		.align	1
 152              		.global	vListInsertEnd
 153              		.syntax unified
 154              		.thumb
ARM GAS  C:\Users\skey\AppData\Local\Temp\ccx2DgoR.s 			page 5


 155              		.thumb_func
 156              		.fpu softvfp
 157              		.type	vListInsertEnd, %function
 158              	vListInsertEnd:
 159              	.LVL2:
 160              	.LFB36:
  72:.\freertos/list.c **** /*-----------------------------------------------------------*/
  73:.\freertos/list.c **** 
  74:.\freertos/list.c **** void vListInsertEnd( List_t * const pxList, ListItem_t * const pxNewListItem )
  75:.\freertos/list.c **** {
 161              		.loc 1 75 1 is_stmt 1 view -0
 162              		.cfi_startproc
 163              		@ args = 0, pretend = 0, frame = 0
 164              		@ frame_needed = 0, uses_anonymous_args = 0
 165              		@ link register save eliminated.
  76:.\freertos/list.c **** ListItem_t * const pxIndex = pxList->pxIndex;
 166              		.loc 1 76 1 view .LVU21
 167              	@ .\freertos\list.c:76: ListItem_t * const pxIndex = pxList->pxIndex;
 168              		.loc 1 76 20 is_stmt 0 view .LVU22
 169 001c 4368     		ldr	r3, [r0, #4]	@ pxIndex, pxList_6(D)->pxIndex
 170              	.LVL3:
  77:.\freertos/list.c **** 
  78:.\freertos/list.c **** 	/* Only effective when configASSERT() is also defined, these tests may catch
  79:.\freertos/list.c **** 	the list data structures being overwritten in memory.  They will not catch
  80:.\freertos/list.c **** 	data errors caused by incorrect configuration or use of FreeRTOS. */
  81:.\freertos/list.c **** 	listTEST_LIST_INTEGRITY( pxList );
 171              		.loc 1 81 35 is_stmt 1 view .LVU23
  82:.\freertos/list.c **** 	listTEST_LIST_ITEM_INTEGRITY( pxNewListItem );
 172              		.loc 1 82 47 view .LVU24
  83:.\freertos/list.c **** 
  84:.\freertos/list.c **** 	/* Insert a new list item into pxList, but rather than sort the list,
  85:.\freertos/list.c **** 	makes the new list item the last item to be removed by a call to
  86:.\freertos/list.c **** 	listGET_OWNER_OF_NEXT_ENTRY(). */
  87:.\freertos/list.c **** 	pxNewListItem->pxNext = pxIndex;
 173              		.loc 1 87 2 view .LVU25
 174              	@ .\freertos\list.c:88: 	pxNewListItem->pxPrevious = pxIndex->pxPrevious;
  88:.\freertos/list.c **** 	pxNewListItem->pxPrevious = pxIndex->pxPrevious;
 175              		.loc 1 88 37 is_stmt 0 view .LVU26
 176 001e 9A68     		ldr	r2, [r3, #8]	@ _1, pxIndex_7->pxPrevious
 177              	@ .\freertos\list.c:87: 	pxNewListItem->pxNext = pxIndex;
  87:.\freertos/list.c **** 	pxNewListItem->pxPrevious = pxIndex->pxPrevious;
 178              		.loc 1 87 24 view .LVU27
 179 0020 4B60     		str	r3, [r1, #4]	@ pxIndex, pxNewListItem_8(D)->pxNext
 180              		.loc 1 88 2 is_stmt 1 view .LVU28
 181              	@ .\freertos\list.c:88: 	pxNewListItem->pxPrevious = pxIndex->pxPrevious;
 182              		.loc 1 88 28 is_stmt 0 view .LVU29
 183 0022 8A60     		str	r2, [r1, #8]	@ _1, pxNewListItem_8(D)->pxPrevious
  89:.\freertos/list.c **** 
  90:.\freertos/list.c **** 	/* Only used during decision coverage testing. */
  91:.\freertos/list.c **** 	mtCOVERAGE_TEST_DELAY();
 184              		.loc 1 91 25 is_stmt 1 view .LVU30
  92:.\freertos/list.c **** 
  93:.\freertos/list.c **** 	pxIndex->pxPrevious->pxNext = pxNewListItem;
 185              		.loc 1 93 2 view .LVU31
 186              	@ .\freertos\list.c:93: 	pxIndex->pxPrevious->pxNext = pxNewListItem;
 187              		.loc 1 93 30 is_stmt 0 view .LVU32
 188 0024 9A68     		ldr	r2, [r3, #8]	@ pxIndex_7->pxPrevious, pxIndex_7->pxPrevious
ARM GAS  C:\Users\skey\AppData\Local\Temp\ccx2DgoR.s 			page 6


 189 0026 5160     		str	r1, [r2, #4]	@ pxNewListItem, _2->pxNext
  94:.\freertos/list.c **** 	pxIndex->pxPrevious = pxNewListItem;
 190              		.loc 1 94 2 is_stmt 1 view .LVU33
 191              	@ .\freertos\list.c:94: 	pxIndex->pxPrevious = pxNewListItem;
 192              		.loc 1 94 22 is_stmt 0 view .LVU34
 193 0028 9960     		str	r1, [r3, #8]	@ pxNewListItem, pxIndex_7->pxPrevious
  95:.\freertos/list.c **** 
  96:.\freertos/list.c **** 	/* Remember which list the item is in. */
  97:.\freertos/list.c **** 	pxNewListItem->pxContainer = pxList;
 194              		.loc 1 97 2 is_stmt 1 view .LVU35
 195              	@ .\freertos\list.c:99: 	( pxList->uxNumberOfItems )++;
  98:.\freertos/list.c **** 
  99:.\freertos/list.c **** 	( pxList->uxNumberOfItems )++;
 196              		.loc 1 99 10 is_stmt 0 view .LVU36
 197 002a 0368     		ldr	r3, [r0]	@ _3, pxList_6(D)->uxNumberOfItems
 198              	.LVL4:
 199              	@ .\freertos\list.c:97: 	pxNewListItem->pxContainer = pxList;
  97:.\freertos/list.c **** 
 200              		.loc 1 97 29 view .LVU37
 201 002c 0861     		str	r0, [r1, #16]	@ pxList, pxNewListItem_8(D)->pvContainer
 202              		.loc 1 99 2 is_stmt 1 view .LVU38
 203              	@ .\freertos\list.c:99: 	( pxList->uxNumberOfItems )++;
 204              		.loc 1 99 29 is_stmt 0 view .LVU39
 205 002e 0133     		adds	r3, r3, #1	@ _4, _3,
 206 0030 0360     		str	r3, [r0]	@ _4, pxList_6(D)->uxNumberOfItems
 207              	@ .\freertos\list.c:100: }
 100:.\freertos/list.c **** }
 208              		.loc 1 100 1 view .LVU40
 209 0032 7047     		bx	lr	@
 210              		.cfi_endproc
 211              	.LFE36:
 212              		.size	vListInsertEnd, .-vListInsertEnd
 213              		.align	1
 214              		.global	vListInsert
 215              		.syntax unified
 216              		.thumb
 217              		.thumb_func
 218              		.fpu softvfp
 219              		.type	vListInsert, %function
 220              	vListInsert:
 221              	.LVL5:
 222              	.LFB37:
 101:.\freertos/list.c **** /*-----------------------------------------------------------*/
 102:.\freertos/list.c **** 
 103:.\freertos/list.c **** void vListInsert( List_t * const pxList, ListItem_t * const pxNewListItem )
 104:.\freertos/list.c **** {
 223              		.loc 1 104 1 is_stmt 1 view -0
 224              		.cfi_startproc
 225              		@ args = 0, pretend = 0, frame = 0
 226              		@ frame_needed = 0, uses_anonymous_args = 0
 105:.\freertos/list.c **** ListItem_t *pxIterator;
 227              		.loc 1 105 1 view .LVU42
 106:.\freertos/list.c **** const TickType_t xValueOfInsertion = pxNewListItem->xItemValue;
 228              		.loc 1 106 1 view .LVU43
 229              	@ .\freertos\list.c:104: {
 104:.\freertos/list.c **** ListItem_t *pxIterator;
 230              		.loc 1 104 1 is_stmt 0 view .LVU44
ARM GAS  C:\Users\skey\AppData\Local\Temp\ccx2DgoR.s 			page 7


 231 0034 30B5     		push	{r4, r5, lr}	@
 232              	.LCFI0:
 233              		.cfi_def_cfa_offset 12
 234              		.cfi_offset 4, -12
 235              		.cfi_offset 5, -8
 236              		.cfi_offset 14, -4
 237              	@ .\freertos\list.c:106: const TickType_t xValueOfInsertion = pxNewListItem->xItemValue;
 238              		.loc 1 106 18 view .LVU45
 239 0036 0C68     		ldr	r4, [r1]	@ xValueOfInsertion, pxNewListItem_9(D)->xItemValue
 240              	.LVL6:
 107:.\freertos/list.c **** 
 108:.\freertos/list.c **** 	/* Only effective when configASSERT() is also defined, these tests may catch
 109:.\freertos/list.c **** 	the list data structures being overwritten in memory.  They will not catch
 110:.\freertos/list.c **** 	data errors caused by incorrect configuration or use of FreeRTOS. */
 111:.\freertos/list.c **** 	listTEST_LIST_INTEGRITY( pxList );
 241              		.loc 1 111 35 is_stmt 1 view .LVU46
 112:.\freertos/list.c **** 	listTEST_LIST_ITEM_INTEGRITY( pxNewListItem );
 242              		.loc 1 112 47 view .LVU47
 113:.\freertos/list.c **** 
 114:.\freertos/list.c **** 	/* Insert the new list item into the list, sorted in xItemValue order.
 115:.\freertos/list.c **** 
 116:.\freertos/list.c **** 	If the list already contains a list item with the same item value then the
 117:.\freertos/list.c **** 	new list item should be placed after it.  This ensures that TCBs which are
 118:.\freertos/list.c **** 	stored in ready lists (all of which have the same xItemValue value) get a
 119:.\freertos/list.c **** 	share of the CPU.  However, if the xItemValue is the same as the back marker
 120:.\freertos/list.c **** 	the iteration loop below will not end.  Therefore the value is checked
 121:.\freertos/list.c **** 	first, and the algorithm slightly modified if necessary. */
 122:.\freertos/list.c **** 	if( xValueOfInsertion == portMAX_DELAY )
 243              		.loc 1 122 2 view .LVU48
 244              	@ .\freertos\list.c:122: 	if( xValueOfInsertion == portMAX_DELAY )
 245              		.loc 1 122 4 is_stmt 0 view .LVU49
 246 0038 631C     		adds	r3, r4, #1	@, xValueOfInsertion,
 247 003a 0AD1     		bne	.L5		@,
 123:.\freertos/list.c **** 	{
 124:.\freertos/list.c **** 		pxIterator = pxList->xListEnd.pxPrevious;
 248              		.loc 1 124 3 is_stmt 1 view .LVU50
 249              	@ .\freertos\list.c:124: 		pxIterator = pxList->xListEnd.pxPrevious;
 250              		.loc 1 124 14 is_stmt 0 view .LVU51
 251 003c 0369     		ldr	r3, [r0, #16]	@ pxIterator, pxList_11(D)->xListEnd.pxPrevious
 252              	.LVL7:
 253              	.L6:
 125:.\freertos/list.c **** 	}
 126:.\freertos/list.c **** 	else
 127:.\freertos/list.c **** 	{
 128:.\freertos/list.c **** 		/* *** NOTE ***********************************************************
 129:.\freertos/list.c **** 		If you find your application is crashing here then likely causes are
 130:.\freertos/list.c **** 		listed below.  In addition see https://www.freertos.org/FAQHelp.html for
 131:.\freertos/list.c **** 		more tips, and ensure configASSERT() is defined!
 132:.\freertos/list.c **** 		https://www.freertos.org/a00110.html#configASSERT
 133:.\freertos/list.c **** 
 134:.\freertos/list.c **** 			1) Stack overflow -
 135:.\freertos/list.c **** 			   see https://www.freertos.org/Stacks-and-stack-overflow-checking.html
 136:.\freertos/list.c **** 			2) Incorrect interrupt priority assignment, especially on Cortex-M
 137:.\freertos/list.c **** 			   parts where numerically high priority values denote low actual
 138:.\freertos/list.c **** 			   interrupt priorities, which can seem counter intuitive.  See
 139:.\freertos/list.c **** 			   https://www.freertos.org/RTOS-Cortex-M3-M4.html and the definition
 140:.\freertos/list.c **** 			   of configMAX_SYSCALL_INTERRUPT_PRIORITY on
ARM GAS  C:\Users\skey\AppData\Local\Temp\ccx2DgoR.s 			page 8


 141:.\freertos/list.c **** 			   https://www.freertos.org/a00110.html
 142:.\freertos/list.c **** 			3) Calling an API function from within a critical section or when
 143:.\freertos/list.c **** 			   the scheduler is suspended, or calling an API function that does
 144:.\freertos/list.c **** 			   not end in "FromISR" from an interrupt.
 145:.\freertos/list.c **** 			4) Using a queue or semaphore before it has been initialised or
 146:.\freertos/list.c **** 			   before the scheduler has been started (are interrupts firing
 147:.\freertos/list.c **** 			   before vTaskStartScheduler() has been called?).
 148:.\freertos/list.c **** 		**********************************************************************/
 149:.\freertos/list.c **** 
 150:.\freertos/list.c **** 		for( pxIterator = ( ListItem_t * ) &( pxList->xListEnd ); pxIterator->pxNext->xItemValue <= xValu
 151:.\freertos/list.c **** 		{
 152:.\freertos/list.c **** 			/* There is nothing to do here, just iterating to the wanted
 153:.\freertos/list.c **** 			insertion position. */
 154:.\freertos/list.c **** 		}
 155:.\freertos/list.c **** 	}
 156:.\freertos/list.c **** 
 157:.\freertos/list.c **** 	pxNewListItem->pxNext = pxIterator->pxNext;
 254              		.loc 1 157 2 is_stmt 1 view .LVU52
 255              	@ .\freertos\list.c:157: 	pxNewListItem->pxNext = pxIterator->pxNext;
 256              		.loc 1 157 36 is_stmt 0 view .LVU53
 257 003e 5A68     		ldr	r2, [r3, #4]	@ _3, pxIterator_7->pxNext
 258              	@ .\freertos\list.c:157: 	pxNewListItem->pxNext = pxIterator->pxNext;
 259              		.loc 1 157 24 view .LVU54
 260 0040 4A60     		str	r2, [r1, #4]	@ _3, pxNewListItem_9(D)->pxNext
 158:.\freertos/list.c **** 	pxNewListItem->pxNext->pxPrevious = pxNewListItem;
 261              		.loc 1 158 2 is_stmt 1 view .LVU55
 262              	@ .\freertos\list.c:158: 	pxNewListItem->pxNext->pxPrevious = pxNewListItem;
 263              		.loc 1 158 36 is_stmt 0 view .LVU56
 264 0042 9160     		str	r1, [r2, #8]	@ pxNewListItem, _3->pxPrevious
 159:.\freertos/list.c **** 	pxNewListItem->pxPrevious = pxIterator;
 265              		.loc 1 159 2 is_stmt 1 view .LVU57
 266              	@ .\freertos\list.c:159: 	pxNewListItem->pxPrevious = pxIterator;
 267              		.loc 1 159 28 is_stmt 0 view .LVU58
 268 0044 8B60     		str	r3, [r1, #8]	@ pxIterator, pxNewListItem_9(D)->pxPrevious
 160:.\freertos/list.c **** 	pxIterator->pxNext = pxNewListItem;
 269              		.loc 1 160 2 is_stmt 1 view .LVU59
 270              	@ .\freertos\list.c:160: 	pxIterator->pxNext = pxNewListItem;
 271              		.loc 1 160 21 is_stmt 0 view .LVU60
 272 0046 5960     		str	r1, [r3, #4]	@ pxNewListItem, pxIterator_7->pxNext
 161:.\freertos/list.c **** 
 162:.\freertos/list.c **** 	/* Remember which list the item is in.  This allows fast removal of the
 163:.\freertos/list.c **** 	item later. */
 164:.\freertos/list.c **** 	pxNewListItem->pxContainer = pxList;
 273              		.loc 1 164 2 is_stmt 1 view .LVU61
 274              	@ .\freertos\list.c:166: 	( pxList->uxNumberOfItems )++;
 165:.\freertos/list.c **** 
 166:.\freertos/list.c **** 	( pxList->uxNumberOfItems )++;
 275              		.loc 1 166 10 is_stmt 0 view .LVU62
 276 0048 0368     		ldr	r3, [r0]	@ _4, pxList_11(D)->uxNumberOfItems
 277              	.LVL8:
 278              	@ .\freertos\list.c:164: 	pxNewListItem->pxContainer = pxList;
 164:.\freertos/list.c **** 
 279              		.loc 1 164 29 view .LVU63
 280 004a 0861     		str	r0, [r1, #16]	@ pxList, pxNewListItem_9(D)->pvContainer
 281              		.loc 1 166 2 is_stmt 1 view .LVU64
 282              	@ .\freertos\list.c:166: 	( pxList->uxNumberOfItems )++;
 283              		.loc 1 166 29 is_stmt 0 view .LVU65
ARM GAS  C:\Users\skey\AppData\Local\Temp\ccx2DgoR.s 			page 9


 284 004c 0133     		adds	r3, r3, #1	@ _5, _4,
 285 004e 0360     		str	r3, [r0]	@ _5, pxList_11(D)->uxNumberOfItems
 286              	@ .\freertos\list.c:167: }
 167:.\freertos/list.c **** }
 287              		.loc 1 167 1 view .LVU66
 288 0050 30BD     		pop	{r4, r5, pc}	@
 289              	.LVL9:
 290              	.L5:
 150:.\freertos/list.c **** 		{
 291              		.loc 1 150 3 is_stmt 1 view .LVU67
 292              	@ .\freertos\list.c:150: 		for( pxIterator = ( ListItem_t * ) &( pxList->xListEnd ); pxIterator->px
 150:.\freertos/list.c **** 		{
 293              		.loc 1 150 19 is_stmt 0 view .LVU68
 294 0052 00F10802 		add	r2, r0, #8	@ _1, pxList,
 295              	.LVL10:
 296              	.L7:
 150:.\freertos/list.c **** 		{
 297              		.loc 1 150 61 is_stmt 1 discriminator 1 view .LVU69
 298 0056 1346     		mov	r3, r2	@ pxIterator, _1
 299              	@ .\freertos\list.c:150: 		for( pxIterator = ( ListItem_t * ) &( pxList->xListEnd ); pxIterator->px
 150:.\freertos/list.c **** 		{
 300              		.loc 1 150 71 is_stmt 0 discriminator 1 view .LVU70
 301 0058 5268     		ldr	r2, [r2, #4]	@ _1, pxIterator_6->pxNext
 302              	.LVL11:
 303              	@ .\freertos\list.c:150: 		for( pxIterator = ( ListItem_t * ) &( pxList->xListEnd ); pxIterator->px
 150:.\freertos/list.c **** 		{
 304              		.loc 1 150 3 discriminator 1 view .LVU71
 305 005a 1568     		ldr	r5, [r2]	@ _1->xItemValue, _1->xItemValue
 306 005c A542     		cmp	r5, r4	@ _1->xItemValue, xValueOfInsertion
 307 005e FAD9     		bls	.L7		@,
 308 0060 EDE7     		b	.L6		@
 309              		.cfi_endproc
 310              	.LFE37:
 311              		.size	vListInsert, .-vListInsert
 312              		.align	1
 313              		.global	uxListRemove
 314              		.syntax unified
 315              		.thumb
 316              		.thumb_func
 317              		.fpu softvfp
 318              		.type	uxListRemove, %function
 319              	uxListRemove:
 320              	.LVL12:
 321              	.LFB38:
 168:.\freertos/list.c **** /*-----------------------------------------------------------*/
 169:.\freertos/list.c **** 
 170:.\freertos/list.c **** UBaseType_t uxListRemove( ListItem_t * const pxItemToRemove )
 171:.\freertos/list.c **** {
 322              		.loc 1 171 1 is_stmt 1 view -0
 323              		.cfi_startproc
 324              		@ args = 0, pretend = 0, frame = 0
 325              		@ frame_needed = 0, uses_anonymous_args = 0
 326              		@ link register save eliminated.
 172:.\freertos/list.c **** /* The list item knows which list it is in.  Obtain the list from the list
 173:.\freertos/list.c **** item. */
 174:.\freertos/list.c **** List_t * const pxList = pxItemToRemove->pxContainer;
 327              		.loc 1 174 1 view .LVU73
ARM GAS  C:\Users\skey\AppData\Local\Temp\ccx2DgoR.s 			page 10


 328              	@ .\freertos\list.c:174: List_t * const pxList = pxItemToRemove->pxContainer;
 329              		.loc 1 174 16 is_stmt 0 view .LVU74
 330 0062 0369     		ldr	r3, [r0, #16]	@ pxList, pxItemToRemove_8(D)->pvContainer
 331              	.LVL13:
 175:.\freertos/list.c **** 
 176:.\freertos/list.c **** 	pxItemToRemove->pxNext->pxPrevious = pxItemToRemove->pxPrevious;
 332              		.loc 1 176 2 is_stmt 1 view .LVU75
 333              	@ .\freertos\list.c:176: 	pxItemToRemove->pxNext->pxPrevious = pxItemToRemove->pxPrevious;
 334              		.loc 1 176 53 is_stmt 0 view .LVU76
 335 0064 D0E90112 		ldrd	r1, r2, [r0, #4]	@ _1, _2, pxItemToRemove,
 336              	@ .\freertos\list.c:176: 	pxItemToRemove->pxNext->pxPrevious = pxItemToRemove->pxPrevious;
 337              		.loc 1 176 37 view .LVU77
 338 0068 8A60     		str	r2, [r1, #8]	@ _2, _1->pxPrevious
 177:.\freertos/list.c **** 	pxItemToRemove->pxPrevious->pxNext = pxItemToRemove->pxNext;
 339              		.loc 1 177 2 is_stmt 1 view .LVU78
 340              	@ .\freertos\list.c:177: 	pxItemToRemove->pxPrevious->pxNext = pxItemToRemove->pxNext;
 341              		.loc 1 177 37 is_stmt 0 view .LVU79
 342 006a 5160     		str	r1, [r2, #4]	@ _1, _2->pxNext
 178:.\freertos/list.c **** 
 179:.\freertos/list.c **** 	/* Only used during decision coverage testing. */
 180:.\freertos/list.c **** 	mtCOVERAGE_TEST_DELAY();
 343              		.loc 1 180 25 is_stmt 1 view .LVU80
 181:.\freertos/list.c **** 
 182:.\freertos/list.c **** 	/* Make sure the index is left pointing to a valid item. */
 183:.\freertos/list.c **** 	if( pxList->pxIndex == pxItemToRemove )
 344              		.loc 1 183 2 view .LVU81
 345              	@ .\freertos\list.c:183: 	if( pxList->pxIndex == pxItemToRemove )
 346              		.loc 1 183 4 is_stmt 0 view .LVU82
 347 006c 5968     		ldr	r1, [r3, #4]	@ pxList_9->pxIndex, pxList_9->pxIndex
 348 006e 8142     		cmp	r1, r0	@ pxList_9->pxIndex, pxItemToRemove
 184:.\freertos/list.c **** 	{
 185:.\freertos/list.c **** 		pxList->pxIndex = pxItemToRemove->pxPrevious;
 349              		.loc 1 185 3 is_stmt 1 view .LVU83
 350              	@ .\freertos\list.c:185: 		pxList->pxIndex = pxItemToRemove->pxPrevious;
 351              		.loc 1 185 19 is_stmt 0 view .LVU84
 352 0070 08BF     		it	eq
 353 0072 5A60     		streq	r2, [r3, #4]	@ _2, pxList_9->pxIndex
 186:.\freertos/list.c **** 	}
 187:.\freertos/list.c **** 	else
 188:.\freertos/list.c **** 	{
 189:.\freertos/list.c **** 		mtCOVERAGE_TEST_MARKER();
 354              		.loc 1 189 27 is_stmt 1 view .LVU85
 190:.\freertos/list.c **** 	}
 191:.\freertos/list.c **** 
 192:.\freertos/list.c **** 	pxItemToRemove->pxContainer = NULL;
 355              		.loc 1 192 2 view .LVU86
 356              	@ .\freertos\list.c:192: 	pxItemToRemove->pxContainer = NULL;
 357              		.loc 1 192 30 is_stmt 0 view .LVU87
 358 0074 0022     		movs	r2, #0	@ tmp119,
 359 0076 0261     		str	r2, [r0, #16]	@ tmp119, pxItemToRemove_8(D)->pvContainer
 193:.\freertos/list.c **** 	( pxList->uxNumberOfItems )--;
 360              		.loc 1 193 2 is_stmt 1 view .LVU88
 361              	@ .\freertos\list.c:193: 	( pxList->uxNumberOfItems )--;
 362              		.loc 1 193 10 is_stmt 0 view .LVU89
 363 0078 1A68     		ldr	r2, [r3]	@ _4, pxList_9->uxNumberOfItems
 364              	@ .\freertos\list.c:193: 	( pxList->uxNumberOfItems )--;
 365              		.loc 1 193 29 view .LVU90
ARM GAS  C:\Users\skey\AppData\Local\Temp\ccx2DgoR.s 			page 11


 366 007a 013A     		subs	r2, r2, #1	@ _5, _4,
 367 007c 1A60     		str	r2, [r3]	@ _5, pxList_9->uxNumberOfItems
 194:.\freertos/list.c **** 
 195:.\freertos/list.c **** 	return pxList->uxNumberOfItems;
 368              		.loc 1 195 2 is_stmt 1 view .LVU91
 369              	@ .\freertos\list.c:195: 	return pxList->uxNumberOfItems;
 370              		.loc 1 195 15 is_stmt 0 view .LVU92
 371 007e 1868     		ldr	r0, [r3]	@ <retval>, pxList_9->uxNumberOfItems
 372              	.LVL14:
 373              	@ .\freertos\list.c:196: }
 196:.\freertos/list.c **** }
 374              		.loc 1 196 1 view .LVU93
 375 0080 7047     		bx	lr	@
 376              		.cfi_endproc
 377              	.LFE38:
 378              		.size	uxListRemove, .-uxListRemove
 379              	.Letext0:
 380              		.file 2 "c:\\program files (x86)\\gnu tools arm embedded\\9 2019-q4-major\\arm-none-eabi\\include\
 381              		.file 3 "c:\\program files (x86)\\gnu tools arm embedded\\9 2019-q4-major\\arm-none-eabi\\include\
 382              		.file 4 "c:\\program files (x86)\\gnu tools arm embedded\\9 2019-q4-major\\arm-none-eabi\\include\
 383              		.file 5 "c:\\program files (x86)\\gnu tools arm embedded\\9 2019-q4-major\\lib\\gcc\\arm-none-eabi
 384              		.file 6 "c:\\program files (x86)\\gnu tools arm embedded\\9 2019-q4-major\\arm-none-eabi\\include\
 385              		.file 7 "c:\\program files (x86)\\gnu tools arm embedded\\9 2019-q4-major\\arm-none-eabi\\include\
 386              		.file 8 "c:\\program files (x86)\\gnu tools arm embedded\\9 2019-q4-major\\arm-none-eabi\\include\
 387              		.file 9 ".\\stlib\\CMSIS\\CM3\\CoreSupport/core_cm3.h"
 388              		.file 10 ".\\stlib\\CMSIS\\CM3\\DeviceSupport\\ST\\STM32F10x/system_stm32f10x.h"
 389              		.file 11 ".\\freertos\\portable\\GCC\\ARM_CM3/portmacro.h"
 390              		.file 12 ".\\freertos\\include/list.h"