ARM GAS  C:\Users\skey\AppData\Local\Temp\ccx2DgoR.s 			page 1


   1              		.cpu cortex-m3
   2              		.eabi_attribute 20, 1	@ Tag_ABI_FP_denormal
   3              		.eabi_attribute 21, 1	@ Tag_ABI_FP_exceptions
   4              		.eabi_attribute 23, 3	@ Tag_ABI_FP_number_model
   5              		.eabi_attribute 24, 1	@ Tag_ABI_align8_needed
   6              		.eabi_attribute 25, 1	@ Tag_ABI_align8_preserved
   7              		.eabi_attribute 26, 1	@ Tag_ABI_enum_size
   8              		.eabi_attribute 30, 4	@ Tag_ABI_optimization_goals
   9              		.eabi_attribute 34, 1	@ Tag_CPU_unaligned_access
  10              		.eabi_attribute 18, 4	@ Tag_ABI_PCS_wchar_t
  11              		.file	"list.c"
  12              	@ GNU C17 (GNU Tools for Arm Embedded Processors 9-2019-q4-major) version 9.2.1 20191025 (release) 
  13              	@	compiled by GNU C version 5.3.1 20160211, GMP version 6.1.0, MPFR version 3.1.4, MPC version 1.0.
  14              	
  15              	@ GGC heuristics: --param ggc-min-expand=100 --param ggc-min-heapsize=131072
  16              	@ options passed:  -I . -I .\usr_inc -I .\task_inc
  17              	@ -I .\stlib\CMSIS\CM3\CoreSupport
  18              	@ -I .\stlib\CMSIS\CM3\DeviceSupport\ST\STM32F10x
  19              	@ -I .\stlib\STM32F10x_StdPeriph_Driver\inc
  20              	@ -I .\stlib\STM32F10x_StdPeriph_Driver -I .\freertos\include
  21              	@ -I .\freertos\portable\GCC\ARM_CM3 -imultilib thumb/v7-m/nofp
  22              	@ -iprefix c:\program files (x86)\gnu tools arm embedded\9 2019-q4-major\bin\../lib/gcc/arm-none-ea
  23              	@ -isysroot c:\program files (x86)\gnu tools arm embedded\9 2019-q4-major\bin\../arm-none-eabi
  24              	@ -D__USES_INITFINI__ -D STM32F10X_HD -D USE_STDPERIPH_DRIVER
  25              	@ -D HSE_VALUE=8000000 -D RUN_FROM_FLASH=1 .\freertos\list.c
  26              	@ -mcpu=cortex-m3 -mthumb -mfloat-abi=soft -march=armv7-m
  27              	@ -auxbase-strip .\freertos\list.o -g -gdwarf-2 -Os -Wall
  28              	@ -fomit-frame-pointer -fverbose-asm
  29              	@ options enabled:  -faggressive-loop-optimizations -fassume-phsa
  30              	@ -fauto-inc-dec -fbranch-count-reg -fcaller-saves -fcode-hoisting
  31              	@ -fcombine-stack-adjustments -fcommon -fcompare-elim -fcprop-registers
  32              	@ -fcrossjumping -fcse-follow-jumps -fdefer-pop
  33              	@ -fdelete-null-pointer-checks -fdevirtualize -fdevirtualize-speculatively
  34              	@ -fdwarf2-cfi-asm -fearly-inlining -feliminate-unused-debug-types
  35              	@ -fexpensive-optimizations -fforward-propagate -ffp-int-builtin-inexact
  36              	@ -ffunction-cse -fgcse -fgcse-lm -fgnu-runtime -fgnu-unique
  37              	@ -fguess-branch-probability -fhoist-adjacent-loads -fident -fif-conversion
  38              	@ -fif-conversion2 -findirect-inlining -finline -finline-atomics
  39              	@ -finline-functions -finline-functions-called-once
  40              	@ -finline-small-functions -fipa-bit-cp -fipa-cp -fipa-icf
  41              	@ -fipa-icf-functions -fipa-icf-variables -fipa-profile -fipa-pure-const
  42              	@ -fipa-ra -fipa-reference -fipa-reference-addressable -fipa-sra
  43              	@ -fipa-stack-alignment -fipa-vrp -fira-hoist-pressure
  44              	@ -fira-share-save-slots -fira-share-spill-slots
  45              	@ -fisolate-erroneous-paths-dereference -fivopts -fkeep-static-consts
  46              	@ -fleading-underscore -flifetime-dse -flra-remat -flto-odr-type-merging
  47              	@ -fmath-errno -fmerge-constants -fmerge-debug-strings
  48              	@ -fmove-loop-invariants -fomit-frame-pointer -foptimize-sibling-calls
  49              	@ -fpartial-inlining -fpeephole -fpeephole2 -fplt -fprefetch-loop-arrays
  50              	@ -freg-struct-return -freorder-blocks -freorder-functions
  51              	@ -frerun-cse-after-loop -fsched-critical-path-heuristic
  52              	@ -fsched-dep-count-heuristic -fsched-group-heuristic -fsched-interblock
  53              	@ -fsched-last-insn-heuristic -fsched-pressure -fsched-rank-heuristic
  54              	@ -fsched-spec -fsched-spec-insn-heuristic -fsched-stalled-insns-dep
  55              	@ -fschedule-insns2 -fsection-anchors -fsemantic-interposition
  56              	@ -fshow-column -fshrink-wrap-separate -fsigned-zeros
  57              	@ -fsplit-ivs-in-unroller -fsplit-wide-types -fssa-backprop -fssa-phiopt
ARM GAS  C:\Users\skey\AppData\Local\Temp\ccx2DgoR.s 			page 2


  58              	@ -fstdarg-opt -fstore-merging -fstrict-aliasing
  59              	@ -fstrict-volatile-bitfields -fsync-libcalls -fthread-jumps
  60              	@ -ftoplevel-reorder -ftrapping-math -ftree-bit-ccp -ftree-builtin-call-dce
  61              	@ -ftree-ccp -ftree-ch -ftree-coalesce-vars -ftree-copy-prop -ftree-cselim
  62              	@ -ftree-dce -ftree-dominator-opts -ftree-dse -ftree-forwprop -ftree-fre
  63              	@ -ftree-loop-if-convert -ftree-loop-im -ftree-loop-ivcanon
  64              	@ -ftree-loop-optimize -ftree-parallelize-loops= -ftree-phiprop -ftree-pre
  65              	@ -ftree-pta -ftree-reassoc -ftree-scev-cprop -ftree-sink -ftree-slsr
  66              	@ -ftree-sra -ftree-switch-conversion -ftree-tail-merge -ftree-ter
  67              	@ -ftree-vrp -funit-at-a-time -fvar-tracking -fvar-tracking-assignments
  68              	@ -fverbose-asm -fzero-initialized-in-bss -masm-syntax-unified -mbe32
  69              	@ -mfix-cortex-m3-ldrd -mlittle-endian -mpic-data-is-text-relative
  70              	@ -msched-prolog -mthumb -munaligned-access -mvectorize-with-neon-quad
  71              	
  72              		.text
  73              	.Ltext0:
  74              		.cfi_sections	.debug_frame
  75              		.align	1
  76              		.global	vListInitialise
  77              		.arch armv7-m
  78              		.syntax unified
  79              		.thumb
  80              		.thumb_func
  81              		.fpu softvfp
  82              		.type	vListInitialise, %function
  83              	vListInitialise:
  84              	.LVL0:
  85              	.LFB34:
  86              		.file 1 ".\\freertos\\list.c"
   1:.\freertos/list.c **** /*
   2:.\freertos/list.c ****  * FreeRTOS Kernel V10.2.1
   3:.\freertos/list.c ****  * Copyright (C) 2019 Amazon.com, Inc. or its affiliates.  All Rights Reserved.
   4:.\freertos/list.c ****  *
   5:.\freertos/list.c ****  * Permission is hereby granted, free of charge, to any person obtaining a copy of
   6:.\freertos/list.c ****  * this software and associated documentation files (the "Software"), to deal in
   7:.\freertos/list.c ****  * the Software without restriction, including without limitation the rights to
   8:.\freertos/list.c ****  * use, copy, modify, merge, publish, distribute, sublicense, and/or sell copies of
   9:.\freertos/list.c ****  * the Software, and to permit persons to whom the Software is furnished to do so,
  10:.\freertos/list.c ****  * subject to the following conditions:
  11:.\freertos/list.c ****  *
  12:.\freertos/list.c ****  * The above copyright notice and this permission notice shall be included in all
  13:.\freertos/list.c ****  * copies or substantial portions of the Software.
  14:.\freertos/list.c ****  *
  15:.\freertos/list.c ****  * THE SOFTWARE IS PROVIDED "AS IS", WITHOUT WARRANTY OF ANY KIND, EXPRESS OR
  16:.\freertos/list.c ****  * IMPLIED, INCLUDING BUT NOT LIMITED TO THE WARRANTIES OF MERCHANTABILITY, FITNESS
  17:.\freertos/list.c ****  * FOR A PARTICULAR PURPOSE AND NONINFRINGEMENT. IN NO EVENT SHALL THE AUTHORS OR
  18:.\freertos/list.c ****  * COPYRIGHT HOLDERS BE LIABLE FOR ANY CLAIM, DAMAGES OR OTHER LIABILITY, WHETHER
  19:.\freertos/list.c ****  * IN AN ACTION OF CONTRACT, TORT OR OTHERWISE, ARISING FROM, OUT OF OR IN
  20:.\freertos/list.c ****  * CONNECTION WITH THE SOFTWARE OR THE USE OR OTHER DEALINGS IN THE SOFTWARE.
  21:.\freertos/list.c ****  *
  22:.\freertos/list.c ****  * http://www.FreeRTOS.org
  23:.\freertos/list.c ****  * http://aws.amazon.com/freertos
  24:.\freertos/list.c ****  *
  25:.\freertos/list.c ****  * 1 tab == 4 spaces!
  26:.\freertos/list.c ****  */
  27:.\freertos/list.c **** 
  28:.\freertos/list.c **** 
ARM GAS  C:\Users\skey\AppData\Local\Temp\ccx2DgoR.s 			page 3


  29:.\freertos/list.c **** #include <stdlib.h>
  30:.\freertos/list.c **** #include "FreeRTOS.h"
  31:.\freertos/list.c **** #include "list.h"
  32:.\freertos/list.c **** 
  33:.\freertos/list.c **** /*-----------------------------------------------------------
  34:.\freertos/list.c ****  * PUBLIC LIST API documented in list.h
  35:.\freertos/list.c ****  *----------------------------------------------------------*/
  36:.\freertos/list.c **** 
  37:.\freertos/list.c **** void vListInitialise( List_t * const pxList )
  38:.\freertos/list.c **** {
  87              		.loc 1 38 1 view -0
  88              		.cfi_startproc
  89              		@ args = 0, pretend = 0, frame = 0
  90              		@ frame_needed = 0, uses_anonymous_args = 0
  91              		@ link register save eliminated.
  39:.\freertos/list.c **** 	/* The list structure contains a list item which is used to mark the
  40:.\freertos/list.c **** 	end of the list.  To initialise the list the list end is inserted
  41:.\freertos/list.c **** 	as the only list entry. */
  42:.\freertos/list.c **** 	pxList->pxIndex = ( ListItem_t * ) &( pxList->xListEnd );			/*lint !e826 !e740 !e9087 The mini lis
  92              		.loc 1 42 2 view .LVU1
  93              	@ .\freertos\list.c:46: 	pxList->xListEnd.xItemValue = portMAX_DELAY;
  43:.\freertos/list.c **** 
  44:.\freertos/list.c **** 	/* The list end value is the highest possible value in the list to
  45:.\freertos/list.c **** 	ensure it remains at the end of the list. */
  46:.\freertos/list.c **** 	pxList->xListEnd.xItemValue = portMAX_DELAY;
  94              		.loc 1 46 30 is_stmt 0 view .LVU2
  95 0000 4FF0FF32 		mov	r2, #-1	@ tmp112,
  96              	@ .\freertos\list.c:42: 	pxList->pxIndex = ( ListItem_t * ) &( pxList->xListEnd );			/*lint !e826 !
  42:.\freertos/list.c **** 
  97              		.loc 1 42 37 view .LVU3
  98 0004 00F10803 		add	r3, r0, #8	@ _1, pxList,
  99              	@ .\freertos\list.c:50: 	pxList->xListEnd.pxNext = ( ListItem_t * ) &( pxList->xListEnd );	/*lint !
  47:.\freertos/list.c **** 
  48:.\freertos/list.c **** 	/* The list end next and previous pointers point to itself so we know
  49:.\freertos/list.c **** 	when the list is empty. */
  50:.\freertos/list.c **** 	pxList->xListEnd.pxNext = ( ListItem_t * ) &( pxList->xListEnd );	/*lint !e826 !e740 !e9087 The mi
 100              		.loc 1 50 26 view .LVU4
 101 0008 C0E90223 		strd	r2, r3, [r0, #8]	@ tmp112, _1, pxList,
 102              	@ .\freertos\list.c:42: 	pxList->pxIndex = ( ListItem_t * ) &( pxList->xListEnd );			/*lint !e826 !
  42:.\freertos/list.c **** 
 103              		.loc 1 42 18 view .LVU5
 104 000c 4360     		str	r3, [r0, #4]	@ _1, pxList_2(D)->pxIndex
  46:.\freertos/list.c **** 
 105              		.loc 1 46 2 is_stmt 1 view .LVU6
  51:.\freertos/list.c **** 	pxList->xListEnd.pxPrevious = ( ListItem_t * ) &( pxList->xListEnd );/*lint !e826 !e740 !e9087 The
 106              		.loc 1 51 2 view .LVU7
 107              	@ .\freertos\list.c:51: 	pxList->xListEnd.pxPrevious = ( ListItem_t * ) &( pxList->xListEnd );/*lin
 108              		.loc 1 51 30 is_stmt 0 view .LVU8
 109 000e 0361     		str	r3, [r0, #16]	@ _1, pxList_2(D)->xListEnd.pxPrevious
  52:.\freertos/list.c **** 
  53:.\freertos/list.c **** 	pxList->uxNumberOfItems = ( UBaseType_t ) 0U;
 110              		.loc 1 53 2 is_stmt 1 view .LVU9
 111              	@ .\freertos\list.c:53: 	pxList->uxNumberOfItems = ( UBaseType_t ) 0U;
 112              		.loc 1 53 26 is_stmt 0 view .LVU10
 113 0010 0023     		movs	r3, #0	@ tmp113,
 114 0012 0360     		str	r3, [r0]	@ tmp113, pxList_2(D)->uxNumberOfItems
  54:.\freertos/list.c **** 
ARM GAS  C:\Users\skey\AppData\Local\Temp\ccx2DgoR.s 			page 4


  55:.\freertos/list.c **** 	/* Write known values into the list if
  56:.\freertos/list.c **** 	configUSE_LIST_DATA_INTEGRITY_CHECK_BYTES is set to 1. */
  57:.\freertos/list.c **** 	listSET_LIST_INTEGRITY_CHECK_1_VALUE( pxList );
 115              		.loc 1 57 48 is_stmt 1 view .LVU11
  58:.\freertos/list.c **** 	listSET_LIST_INTEGRITY_CHECK_2_VALUE( pxList );
 116              		.loc 1 58 48 view .LVU12
 117              	@ .\freertos\list.c:59: }
  59:.\freertos/list.c **** }
 118              		.loc 1 59 1 is_stmt 0 view .LVU13
 119 0014 7047     		bx	lr	@
 120              		.cfi_endproc
 121              	.LFE34:
 122              		.size	vListInitialise, .-vListInitialise
 123              		.align	1
 124              		.global	vListInitialiseItem
 125              		.syntax unified
 126              		.thumb
 127              		.thumb_func
 128              		.fpu softvfp
 129              		.type	vListInitialiseItem, %function
 130              	vListInitialiseItem:
 131              	.LVL1:
 132              	.LFB35:
  60:.\freertos/list.c **** /*-----------------------------------------------------------*/
  61:.\freertos/list.c **** 
  62:.\freertos/list.c **** void vListInitialiseItem( ListItem_t * const pxItem )
  63:.\freertos/list.c **** {
 133              		.loc 1 63 1 is_stmt 1 view -0
 134              		.cfi_startproc
 135              		@ args = 0, pretend = 0, frame = 0
 136              		@ frame_needed = 0, uses_anonymous_args = 0
 137              		@ link register save eliminated.
  64:.\freertos/list.c **** 	/* Make sure the list item is not recorded as being on a list. */
  65:.\freertos/list.c **** 	pxItem->pxContainer = NULL;
 138              		.loc 1 65 2 view .LVU15
 139              	@ .\freertos\list.c:65: 	pxItem->pxContainer = NULL;
 140              		.loc 1 65 22 is_stmt 0 view .LVU16
 141 0016 0023     		movs	r3, #0	@ tmp111,
 142 0018 0361     		str	r3, [r0, #16]	@ tmp111, pxItem_2(D)->pvContainer
  66:.\freertos/list.c **** 
  67:.\freertos/list.c **** 	/* Write known values into the list item if
  68:.\freertos/list.c **** 	configUSE_LIST_DATA_INTEGRITY_CHECK_BYTES is set to 1. */
  69:.\freertos/list.c **** 	listSET_FIRST_LIST_ITEM_INTEGRITY_CHECK_VALUE( pxItem );
 143              		.loc 1 69 57 is_stmt 1 view .LVU17
  70:.\freertos/list.c **** 	listSET_SECOND_LIST_ITEM_INTEGRITY_CHECK_VALUE( pxItem );
 144              		.loc 1 70 58 view .LVU18
 145              	@ .\freertos\list.c:71: }
  71:.\freertos/list.c **** }
 146              		.loc 1 71 1 is_stmt 0 view .LVU19
 147 001a 7047     		bx	lr	@
 148              		.cfi_endproc
 149              	.LFE35:
 150              		.size	vListInitialiseItem, .-vListInitialiseItem
 151              		.align	1
 152              		.global	vListInsertEnd
 153              		.syntax unified
 154              		.thumb
ARM GAS  C:\Users\skey\AppData\Local\Temp\ccx2DgoR.s 			page 5


 155              		.thumb_func
 156              		.fpu softvfp
 157              		.type	vListInsertEnd, %function
 158              	vListInsertEnd:
 159              	.LVL2:
 160              	.LFB36:
  72:.\freertos/list.c **** /*-----------------------------------------------------------*/
  73:.\freertos/list.c **** 
  74:.\freertos/list.c **** void vListInsertEnd( List_t * const pxList, ListItem_t * const pxNewListItem )
  75:.\freertos/list.c **** {
 161              		.loc 1 75 1 is_stmt 1 view -0
 162              		.cfi_startproc
 163              		@ args = 0, pretend = 0, frame = 0
 164              		@ frame_needed = 0, uses_anonymous_args = 0
 165              		@ link register save eliminated.
  76:.\freertos/list.c **** ListItem_t * const pxIndex = pxList->pxIndex;
 166              		.loc 1 76 1 view .LVU21
 167              	@ .\freertos\list.c:76: ListItem_t * const pxIndex = pxList->pxIndex;
 168              		.loc 1 76 20 is_stmt 0 view .LVU22
 169 001c 4368     		ldr	r3, [r0, #4]	@ pxIndex, pxList_6(D)->pxIndex
 170              	.LVL3:
  77:.\freertos/list.c **** 
  78:.\freertos/list.c **** 	/* Only effective when configASSERT() is also defined, these tests may catch
  79:.\freertos/list.c **** 	the list data structures being overwritten in memory.  They will not catch
  80:.\freertos/list.c **** 	data errors caused by incorrect configuration or use of FreeRTOS. */
  81:.\freertos/list.c **** 	listTEST_LIST_INTEGRITY( pxList );
 171              		.loc 1 81 35 is_stmt 1 view .LVU23
  82:.\freertos/list.c **** 	listTEST_LIST_ITEM_INTEGRITY( pxNewListItem );
 172              		.loc 1 82 47 view .LVU24
  83:.\freertos/list.c **** 
  84:.\freertos/list.c **** 	/* Insert a new list item into pxList, but rather than sort the list,
  85:.\freertos/list.c **** 	makes the new list item the last item to be removed by a call to
  86:.\freertos/list.c **** 	listGET_OWNER_OF_NEXT_ENTRY(). */
  87:.\freertos/list.c **** 	pxNewListItem->pxNext = pxIndex;
 173              		.loc 1 87 2 view .LVU25
 174              	@ .\freertos\list.c:88: 	pxNewListItem->pxPrevious = pxIndex->pxPrevious;
  88:.\freertos/list.c **** 	pxNewListItem->pxPrevious = pxIndex->pxPrevious;
 175              		.loc 1 88 37 is_stmt 0 view .LVU26
 176 001e 9A68     		ldr	r2, [r3, #8]	@ _1, pxIndex_7->pxPrevious
 177              	@ .\freertos\list.c:87: 	pxNewListItem->pxNext = pxIndex;
  87:.\freertos/list.c **** 	pxNewListItem->pxPrevious = pxIndex->pxPrevious;
 178              		.loc 1 87 24 view .LVU27
 179 0020 4B60     		str	r3, [r1, #4]	@ pxIndex, pxNewListItem_8(D)->pxNext
 180              		.loc 1 88 2 is_stmt 1 view .LVU28
 181              	@ .\freertos\list.c:88: 	pxNewListItem->pxPrevious = pxIndex->pxPrevious;
 182              		.loc 1 88 28 is_stmt 0 view .LVU29
 183 0022 8A60     		str	r2, [r1, #8]	@ _1, pxNewListItem_8(D)->pxPrevious
  89:.\freertos/list.c **** 
  90:.\freertos/list.c **** 	/* Only used during decision coverage testing. */
  91:.\freertos/list.c **** 	mtCOVERAGE_TEST_DELAY();
 184              		.loc 1 91 25 is_stmt 1 view .LVU30
  92:.\freertos/list.c **** 
  93:.\freertos/list.c **** 	pxIndex->pxPrevious->pxNext = pxNewListItem;
 185              		.loc 1 93 2 view .LVU31
 186              	@ .\freertos\list.c:93: 	pxIndex->pxPrevious->pxNext = pxNewListItem;
 187              		.loc 1 93 30 is_stmt 0 view .LVU32
 188 0024 9A68     		ldr	r2, [r3, #8]	@ pxIndex_7->pxPrevious, pxIndex_7->pxPrevious
ARM GAS  C:\Users\skey\AppData\Local\Temp\ccx2DgoR.s 			page 6


 189 0026 5160     		str	r1, [r2, #4]	@ pxNewListItem, _2->pxNext
  94:.\freertos/list.c **** 	pxIndex->pxPrevious = pxNewListItem;
 190              		.loc 1 94 2 is_stmt 1 view .LVU33
 191              	@ .\freertos\list.c:94: 	pxIndex->pxPrevious = pxNewListItem;
 192              		.loc 1 94 22 is_stmt 0 view .LVU34
 193 0028 9960     		str	r1, [r3, #8]	@ pxNewListItem, pxIndex_7->pxPrevious
  95:.\freertos/list.c **** 
  96:.\freertos/list.c **** 	/* Remember which list the item is in. */
  97:.\freertos/list.c **** 	pxNewListItem->pxContainer = pxList;
 194              		.loc 1 97 2 is_stmt 1 view .LVU35
 195              	@ .\freertos\list.c:99: 	( pxList->uxNumberOfItems )++;
  98:.\freertos/list.c **** 
  99:.\freertos/list.c **** 	( pxList->uxNumberOfItems )++;
 196              		.loc 1 99 10 is_stmt 0 view .LVU36
 197 002a 0368     		ldr	r3, [r0]	@ _3, pxList_6(D)->uxNumberOfItems
 198              	.LVL4:
 199              	@ .\freertos\list.c:97: 	pxNewListItem->pxContainer = pxList;
  97:.\freertos/list.c **** 
 200              		.loc 1 97 29 view .LVU37
 201 002c 0861     		str	r0, [r1, #16]	@ pxList, pxNewListItem_8(D)->pvContainer
 202              		.loc 1 99 2 is_stmt 1 view .LVU38
 203              	@ .\freertos\list.c:99: 	( pxList->uxNumberOfItems )++;
 204              		.loc 1 99 29 is_stmt 0 view .LVU39
 205 002e 0133     		adds	r3, r3, #1	@ _4, _3,
 206 0030 0360     		str	r3, [r0]	@ _4, pxList_6(D)->uxNumberOfItems
 207              	@ .\freertos\list.c:100: }
 100:.\freertos/list.c **** }
 208              		.loc 1 100 1 view .LVU40
 209 0032 7047     		bx	lr	@
 210              		.cfi_endproc
 211              	.LFE36:
 212              		.size	vListInsertEnd, .-vListInsertEnd
 213              		.align	1
 214              		.global	vListInsert
 215              		.syntax unified
 216              		.thumb
 217              		.thumb_func
 218              		.fpu softvfp
 219              		.type	vListInsert, %function
 220              	vListInsert:
 221              	.LVL5:
 222              	.LFB37:
 101:.\freertos/list.c **** /*-----------------------------------------------------------*/
 102:.\freertos/list.c **** 
 103:.\freertos/list.c **** void vListInsert( List_t * const pxList, ListItem_t * const pxNewListItem )
 104:.\freertos/list.c **** {
 223              		.loc 1 104 1 is_stmt 1 view -0
 224              		.cfi_startproc
 225              		@ args = 0, pretend = 0, frame = 0
 226              		@ frame_needed = 0, uses_anonymous_args = 0
 105:.\freertos/list.c **** ListItem_t *pxIterator;
 227              		.loc 1 105 1 view .LVU42
 106:.\freertos/list.c **** const TickType_t xValueOfInsertion = pxNewListItem->xItemValue;
 228              		.loc 1 106 1 view .LVU43
 229              	@ .\freertos\list.c:104: {
 104:.\freertos/list.c **** ListItem_t *pxIterator;
 230              		.loc 1 104 1 is_stmt 0 view .LVU44
ARM GAS  C:\Users\skey\AppData\Local\Temp\ccx2DgoR.s 			page 7


 231 0034 30B5     		push	{r4, r5, lr}	@
 232              	.LCFI0:
 233              		.cfi_def_cfa_offset 12
 234              		.cfi_offset 4, -12
 235              		.cfi_offset 5, -8
 236              		.cfi_offset 14, -4
 237              	@ .\freertos\list.c:106: const TickType_t xValueOfInsertion = pxNewListItem->xItemValue;
 238              		.loc 1 106 18 view .LVU45
 239 0036 0C68     		ldr	r4, [r1]	@ xValueOfInsertion, pxNewListItem_9(D)->xItemValue
 240              	.LVL6:
 107:.\freertos/list.c **** 
 108:.\freertos/list.c **** 	/* Only effective when configASSERT() is also defined, these tests may catch
 109:.\freertos/list.c **** 	the list data structures being overwritten in memory.  They will not catch
 110:.\freertos/list.c **** 	data errors caused by incorrect configuration or use of FreeRTOS. */
 111:.\freertos/list.c **** 	listTEST_LIST_INTEGRITY( pxList );
 241              		.loc 1 111 35 is_stmt 1 view .LVU46
 112:.\freertos/list.c **** 	listTEST_LIST_ITEM_INTEGRITY( pxNewListItem );
 242              		.loc 1 112 47 view .LVU47
 113:.\freertos/list.c **** 
 114:.\freertos/list.c **** 	/* Insert the new list item into the list, sorted in xItemValue order.
 115:.\freertos/list.c **** 
 116:.\freertos/list.c **** 	If the list already contains a list item with the same item value then the
 117:.\freertos/list.c **** 	new list item should be placed after it.  This ensures that TCBs which are
 118:.\freertos/list.c **** 	stored in ready lists (all of which have the same xItemValue value) get a
 119:.\freertos/list.c **** 	share of the CPU.  However, if the xItemValue is the same as the back marker
 120:.\freertos/list.c **** 	the iteration loop below will not end.  Therefore the value is checked
 121:.\freertos/list.c **** 	first, and the algorithm slightly modified if necessary. */
 122:.\freertos/list.c **** 	if( xValueOfInsertion == portMAX_DELAY )
 243              		.loc 1 122 2 view .LVU48
 244              	@ .\freertos\list.c:122: 	if( xValueOfInsertion == portMAX_DELAY )
 245              		.loc 1 122 4 is_stmt 0 view .LVU49
 246 0038 631C     		adds	r3, r4, #1	@, xValueOfInsertion,
 247 003a 0AD1     		bne	.L5		@,
 123:.\freertos/list.c **** 	{
 124:.\freertos/list.c **** 		pxIterator = pxList->xListEnd.pxPrevious;
 248              		.loc 1 124 3 is_stmt 1 view .LVU50
 249              	@ .\freertos\list.c:124: 		pxIterator = pxList->xListEnd.pxPrevious;
 250              		.loc 1 124 14 is_stmt 0 view .LVU51
 251 003c 0369     		ldr	r3, [r0, #16]	@ pxIterator, pxList_11(D)->xListEnd.pxPrevious
 252              	.LVL7:
 253              	.L6:
 125:.\freertos/list.c **** 	}
 126:.\freertos/list.c **** 	else
 127:.\freertos/list.c **** 	{
 128:.\freertos/list.c **** 		/* *** NOTE ***********************************************************
 129:.\freertos/list.c **** 		If you find your application is crashing here then likely causes are
 130:.\freertos/list.c **** 		listed below.  In addition see https://www.freertos.org/FAQHelp.html for
 131:.\freertos/list.c **** 		more tips, and ensure configASSERT() is defined!
 132:.\freertos/list.c **** 		https://www.freertos.org/a00110.html#configASSERT
 133:.\freertos/list.c **** 
 134:.\freertos/list.c **** 			1) Stack overflow -
 135:.\freertos/list.c **** 			   see https://www.freertos.org/Stacks-and-stack-overflow-checking.html
 136:.\freertos/list.c **** 			2) Incorrect interrupt priority assignment, especially on Cortex-M
 137:.\freertos/list.c **** 			   parts where numerically high priority values denote low actual
 138:.\freertos/list.c **** 			   interrupt priorities, which can seem counter intuitive.  See
 139:.\freertos/list.c **** 			   https://www.freertos.org/RTOS-Cortex-M3-M4.html and the definition
 140:.\freertos/list.c **** 			   of configMAX_SYSCALL_INTERRUPT_PRIORITY on
ARM GAS  C:\Users\skey\AppData\Local\Temp\ccx2DgoR.s 			page 8


 141:.\freertos/list.c **** 			   https://www.freertos.org/a00110.html
 142:.\freertos/list.c **** 			3) Calling an API function from within a critical section or when
 143:.\freertos/list.c **** 			   the scheduler is suspended, or calling an API function that does
 144:.\freertos/list.c **** 			   not end in "FromISR" from an interrupt.
 145:.\freertos/list.c **** 			4) Using a queue or semaphore before it has been initialised or
 146:.\freertos/list.c **** 			   before the scheduler has been started (are interrupts firing
 147:.\freertos/list.c **** 			   before vTaskStartScheduler() has been called?).
 148:.\freertos/list.c **** 		**********************************************************************/
 149:.\freertos/list.c **** 
 150:.\freertos/list.c **** 		for( pxIterator = ( ListItem_t * ) &( pxList->xListEnd ); pxIterator->pxNext->xItemValue <= xValu
 151:.\freertos/list.c **** 		{
 152:.\freertos/list.c **** 			/* There is nothing to do here, just iterating to the wanted
 153:.\freertos/list.c **** 			insertion position. */
 154:.\freertos/list.c **** 		}
 155:.\freertos/list.c **** 	}
 156:.\freertos/list.c **** 
 157:.\freertos/list.c **** 	pxNewListItem->pxNext = pxIterator->pxNext;
 254              		.loc 1 157 2 is_stmt 1 view .LVU52
 255              	@ .\freertos\list.c:157: 	pxNewListItem->pxNext = pxIterator->pxNext;
 256              		.loc 1 157 36 is_stmt 0 view .LVU53
 257 003e 5A68     		ldr	r2, [r3, #4]	@ _3, pxIterator_7->pxNext
 258              	@ .\freertos\list.c:157: 	pxNewListItem->pxNext = pxIterator->pxNext;
 259              		.loc 1 157 24 view .LVU54
 260 0040 4A60     		str	r2, [r1, #4]	@ _3, pxNewListItem_9(D)->pxNext
 158:.\freertos/list.c **** 	pxNewListItem->pxNext->pxPrevious = pxNewListItem;
 261              		.loc 1 158 2 is_stmt 1 view .LVU55
 262              	@ .\freertos\list.c:158: 	pxNewListItem->pxNext->pxPrevious = pxNewListItem;
 263              		.loc 1 158 36 is_stmt 0 view .LVU56
 264 0042 9160     		str	r1, [r2, #8]	@ pxNewListItem, _3->pxPrevious
 159:.\freertos/list.c **** 	pxNewListItem->pxPrevious = pxIterator;
 265              		.loc 1 159 2 is_stmt 1 view .LVU57
 266              	@ .\freertos\list.c:159: 	pxNewListItem->pxPrevious = pxIterator;
 267              		.loc 1 159 28 is_stmt 0 view .LVU58
 268 0044 8B60     		str	r3, [r1, #8]	@ pxIterator, pxNewListItem_9(D)->pxPrevious
 160:.\freertos/list.c **** 	pxIterator->pxNext = pxNewListItem;
 269              		.loc 1 160 2 is_stmt 1 view .LVU59
 270              	@ .\freertos\list.c:160: 	pxIterator->pxNext = pxNewListItem;
 271              		.loc 1 160 21 is_stmt 0 view .LVU60
 272 0046 5960     		str	r1, [r3, #4]	@ pxNewListItem, pxIterator_7->pxNext
 161:.\freertos/list.c **** 
 162:.\freertos/list.c **** 	/* Remember which list the item is in.  This allows fast removal of the
 163:.\freertos/list.c **** 	item later. */
 164:.\freertos/list.c **** 	pxNewListItem->pxContainer = pxList;
 273              		.loc 1 164 2 is_stmt 1 view .LVU61
 274              	@ .\freertos\list.c:166: 	( pxList->uxNumberOfItems )++;
 165:.\freertos/list.c **** 
 166:.\freertos/list.c **** 	( pxList->uxNumberOfItems )++;
 275              		.loc 1 166 10 is_stmt 0 view .LVU62
 276 0048 0368     		ldr	r3, [r0]	@ _4, pxList_11(D)->uxNumberOfItems
 277              	.LVL8:
 278              	@ .\freertos\list.c:164: 	pxNewListItem->pxContainer = pxList;
 164:.\freertos/list.c **** 
 279              		.loc 1 164 29 view .LVU63
 280 004a 0861     		str	r0, [r1, #16]	@ pxList, pxNewListItem_9(D)->pvContainer
 281              		.loc 1 166 2 is_stmt 1 view .LVU64
 282              	@ .\freertos\list.c:166: 	( pxList->uxNumberOfItems )++;
 283              		.loc 1 166 29 is_stmt 0 view .LVU65
ARM GAS  C:\Users\skey\AppData\Local\Temp\ccx2DgoR.s 			page 9


 284 004c 0133     		adds	r3, r3, #1	@ _5, _4,
 285 004e 0360     		str	r3, [r0]	@ _5, pxList_11(D)->uxNumberOfItems
 286              	@ .\freertos\list.c:167: }
 167:.\freertos/list.c **** }
 287              		.loc 1 167 1 view .LVU66
 288 0050 30BD     		pop	{r4, r5, pc}	@
 289              	.LVL9:
 290              	.L5:
 150:.\freertos/list.c **** 		{
 291              		.loc 1 150 3 is_stmt 1 view .LVU67
 292              	@ .\freertos\list.c:150: 		for( pxIterator = ( ListItem_t * ) &( pxList->xListEnd ); pxIterator->px
 150:.\freertos/list.c **** 		{
 293              		.loc 1 150 19 is_stmt 0 view .LVU68
 294 0052 00F10802 		add	r2, r0, #8	@ _1, pxList,
 295              	.LVL10:
 296              	.L7:
 150:.\freertos/list.c **** 		{
 297              		.loc 1 150 61 is_stmt 1 discriminator 1 view .LVU69
 298 0056 1346     		mov	r3, r2	@ pxIterator, _1
 299              	@ .\freertos\list.c:150: 		for( pxIterator = ( ListItem_t * ) &( pxList->xListEnd ); pxIterator->px
 150:.\freertos/list.c **** 		{
 300              		.loc 1 150 71 is_stmt 0 discriminator 1 view .LVU70
 301 0058 5268     		ldr	r2, [r2, #4]	@ _1, pxIterator_6->pxNext
 302              	.LVL11:
 303              	@ .\freertos\list.c:150: 		for( pxIterator = ( ListItem_t * ) &( pxList->xListEnd ); pxIterator->px
 150:.\freertos/list.c **** 		{
 304              		.loc 1 150 3 discriminator 1 view .LVU71
 305 005a 1568     		ldr	r5, [r2]	@ _1->xItemValue, _1->xItemValue
 306 005c A542     		cmp	r5, r4	@ _1->xItemValue, xValueOfInsertion
 307 005e FAD9     		bls	.L7		@,
 308 0060 EDE7     		b	.L6		@
 309              		.cfi_endproc
 310              	.LFE37:
 311              		.size	vListInsert, .-vListInsert
 312              		.align	1
 313              		.global	uxListRemove
 314              		.syntax unified
 315              		.thumb
 316              		.thumb_func
 317              		.fpu softvfp
 318              		.type	uxListRemove, %function
 319              	uxListRemove:
 320              	.LVL12:
 321              	.LFB38:
 168:.\freertos/list.c **** /*-----------------------------------------------------------*/
 169:.\freertos/list.c **** 
 170:.\freertos/list.c **** UBaseType_t uxListRemove( ListItem_t * const pxItemToRemove )
 171:.\freertos/list.c **** {
 322              		.loc 1 171 1 is_stmt 1 view -0
 323              		.cfi_startproc
 324              		@ args = 0, pretend = 0, frame = 0
 325              		@ frame_needed = 0, uses_anonymous_args = 0
 326              		@ link register save eliminated.
 172:.\freertos/list.c **** /* The list item knows which list it is in.  Obtain the list from the list
 173:.\freertos/list.c **** item. */
 174:.\freertos/list.c **** List_t * const pxList = pxItemToRemove->pxContainer;
 327              		.loc 1 174 1 view .LVU73
ARM GAS  C:\Users\skey\AppData\Local\Temp\ccx2DgoR.s 			page 10


 328              	@ .\freertos\list.c:174: List_t * const pxList = pxItemToRemove->pxContainer;
 329              		.loc 1 174 16 is_stmt 0 view .LVU74
 330 0062 0369     		ldr	r3, [r0, #16]	@ pxList, pxItemToRemove_8(D)->pvContainer
 331              	.LVL13:
 175:.\freertos/list.c **** 
 176:.\freertos/list.c **** 	pxItemToRemove->pxNext->pxPrevious = pxItemToRemove->pxPrevious;
 332              		.loc 1 176 2 is_stmt 1 view .LVU75
 333              	@ .\freertos\list.c:176: 	pxItemToRemove->pxNext->pxPrevious = pxItemToRemove->pxPrevious;
 334              		.loc 1 176 53 is_stmt 0 view .LVU76
 335 0064 D0E90112 		ldrd	r1, r2, [r0, #4]	@ _1, _2, pxItemToRemove,
 336              	@ .\freertos\list.c:176: 	pxItemToRemove->pxNext->pxPrevious = pxItemToRemove->pxPrevious;
 337              		.loc 1 176 37 view .LVU77
 338 0068 8A60     		str	r2, [r1, #8]	@ _2, _1->pxPrevious
 177:.\freertos/list.c **** 	pxItemToRemove->pxPrevious->pxNext = pxItemToRemove->pxNext;
 339              		.loc 1 177 2 is_stmt 1 view .LVU78
 340              	@ .\freertos\list.c:177: 	pxItemToRemove->pxPrevious->pxNext = pxItemToRemove->pxNext;
 341              		.loc 1 177 37 is_stmt 0 view .LVU79
 342 006a 5160     		str	r1, [r2, #4]	@ _1, _2->pxNext
 178:.\freertos/list.c **** 
 179:.\freertos/list.c **** 	/* Only used during decision coverage testing. */
 180:.\freertos/list.c **** 	mtCOVERAGE_TEST_DELAY();
 343              		.loc 1 180 25 is_stmt 1 view .LVU80
 181:.\freertos/list.c **** 
 182:.\freertos/list.c **** 	/* Make sure the index is left pointing to a valid item. */
 183:.\freertos/list.c **** 	if( pxList->pxIndex == pxItemToRemove )
 344              		.loc 1 183 2 view .LVU81
 345              	@ .\freertos\list.c:183: 	if( pxList->pxIndex == pxItemToRemove )
 346              		.loc 1 183 4 is_stmt 0 view .LVU82
 347 006c 5968     		ldr	r1, [r3, #4]	@ pxList_9->pxIndex, pxList_9->pxIndex
 348 006e 8142     		cmp	r1, r0	@ pxList_9->pxIndex, pxItemToRemove
 184:.\freertos/list.c **** 	{
 185:.\freertos/list.c **** 		pxList->pxIndex = pxItemToRemove->pxPrevious;
 349              		.loc 1 185 3 is_stmt 1 view .LVU83
 350              	@ .\freertos\list.c:185: 		pxList->pxIndex = pxItemToRemove->pxPrevious;
 351              		.loc 1 185 19 is_stmt 0 view .LVU84
 352 0070 08BF     		it	eq
 353 0072 5A60     		streq	r2, [r3, #4]	@ _2, pxList_9->pxIndex
 186:.\freertos/list.c **** 	}
 187:.\freertos/list.c **** 	else
 188:.\freertos/list.c **** 	{
 189:.\freertos/list.c **** 		mtCOVERAGE_TEST_MARKER();
 354              		.loc 1 189 27 is_stmt 1 view .LVU85
 190:.\freertos/list.c **** 	}
 191:.\freertos/list.c **** 
 192:.\freertos/list.c **** 	pxItemToRemove->pxContainer = NULL;
 355              		.loc 1 192 2 view .LVU86
 356              	@ .\freertos\list.c:192: 	pxItemToRemove->pxContainer = NULL;
 357              		.loc 1 192 30 is_stmt 0 view .LVU87
 358 0074 0022     		movs	r2, #0	@ tmp119,
 359 0076 0261     		str	r2, [r0, #16]	@ tmp119, pxItemToRemove_8(D)->pvContainer
 193:.\freertos/list.c **** 	( pxList->uxNumberOfItems )--;
 360              		.loc 1 193 2 is_stmt 1 view .LVU88
 361              	@ .\freertos\list.c:193: 	( pxList->uxNumberOfItems )--;
 362              		.loc 1 193 10 is_stmt 0 view .LVU89
 363 0078 1A68     		ldr	r2, [r3]	@ _4, pxList_9->uxNumberOfItems
 364              	@ .\freertos\list.c:193: 	( pxList->uxNumberOfItems )--;
 365              		.loc 1 193 29 view .LVU90
ARM GAS  C:\Users\skey\AppData\Local\Temp\ccx2DgoR.s 			page 11


 366 007a 013A     		subs	r2, r2, #1	@ _5, _4,
 367 007c 1A60     		str	r2, [r3]	@ _5, pxList_9->uxNumberOfItems
 194:.\freertos/list.c **** 
 195:.\freertos/list.c **** 	return pxList->uxNumberOfItems;
 368              		.loc 1 195 2 is_stmt 1 view .LVU91
 369              	@ .\freertos\list.c:195: 	return pxList->uxNumberOfItems;
 370              		.loc 1 195 15 is_stmt 0 view .LVU92
 371 007e 1868     		ldr	r0, [r3]	@ <retval>, pxList_9->uxNumberOfItems
 372              	.LVL14:
 373              	@ .\freertos\list.c:196: }
 196:.\freertos/list.c **** }
 374              		.loc 1 196 1 view .LVU93
 375 0080 7047     		bx	lr	@
 376              		.cfi_endproc
 377              	.LFE38:
 378              		.size	uxListRemove, .-uxListRemove
 379              	.Letext0:
 380              		.file 2 "c:\\program files (x86)\\gnu tools arm embedded\\9 2019-q4-major\\arm-none-eabi\\include\
 381              		.file 3 "c:\\program files (x86)\\gnu tools arm embedded\\9 2019-q4-major\\arm-none-eabi\\include\
 382              		.file 4 "c:\\program files (x86)\\gnu tools arm embedded\\9 2019-q4-major\\arm-none-eabi\\include\
 383              		.file 5 "c:\\program files (x86)\\gnu tools arm embedded\\9 2019-q4-major\\lib\\gcc\\arm-none-eabi
 384              		.file 6 "c:\\program files (x86)\\gnu tools arm embedded\\9 2019-q4-major\\arm-none-eabi\\include\
 385              		.file 7 "c:\\program files (x86)\\gnu tools arm embedded\\9 2019-q4-major\\arm-none-eabi\\include\
 386              		.file 8 "c:\\program files (x86)\\gnu tools arm embedded\\9 2019-q4-major\\arm-none-eabi\\include\
 387              		.file 9 ".\\stlib\\CMSIS\\CM3\\CoreSupport/core_cm3.h"
 388              		.file 10 ".\\stlib\\CMSIS\\CM3\\DeviceSupport\\ST\\STM32F10x/system_stm32f10x.h"
 389              		.file 11 ".\\freertos\\portable\\GCC\\ARM_CM3/portmacro.h"
 390              		.file 12 ".\\freertos\\include/list.h"
 391              		.section	.debug_info,"",%progbits
 392              	.Ldebug_info0:
 393 0000 B00C0000 		.4byte	0xcb0
 394 0004 0200     		.2byte	0x2
 395 0006 00000000 		.4byte	.Ldebug_abbrev0
 396 000a 04       		.byte	0x4
 397 000b 01       		.uleb128 0x1
 398 000c 40000000 		.4byte	.LASF150
 399 0010 0C       		.byte	0xc
 400 0011 10030000 		.4byte	.LASF151
 401 0015 CA040000 		.4byte	.LASF152
 402 0019 00000000 		.4byte	.Ltext0
 403 001d 82000000 		.4byte	.Letext0
 404 0021 00000000 		.4byte	.Ldebug_line0
 405 0025 02       		.uleb128 0x2
 406 0026 04       		.byte	0x4
 407 0027 07       		.byte	0x7
 408 0028 55050000 		.4byte	.LASF0
 409 002c 03       		.uleb128 0x3
 410 002d 04       		.byte	0x4
 411 002e 05       		.byte	0x5
 412 002f 696E7400 		.ascii	"int\000"
 413 0033 04       		.uleb128 0x4
 414 0034 2C000000 		.4byte	0x2c
 415 0038 02       		.uleb128 0x2
 416 0039 08       		.byte	0x8
 417 003a 05       		.byte	0x5
 418 003b FA010000 		.4byte	.LASF1
 419 003f 02       		.uleb128 0x2
ARM GAS  C:\Users\skey\AppData\Local\Temp\ccx2DgoR.s 			page 12


 420 0040 08       		.byte	0x8
 421 0041 04       		.byte	0x4
 422 0042 2E050000 		.4byte	.LASF2
 423 0046 02       		.uleb128 0x2
 424 0047 01       		.byte	0x1
 425 0048 06       		.byte	0x6
 426 0049 8C010000 		.4byte	.LASF3
 427 004d 02       		.uleb128 0x2
 428 004e 01       		.byte	0x1
 429 004f 08       		.byte	0x8
 430 0050 0A040000 		.4byte	.LASF4
 431 0054 02       		.uleb128 0x2
 432 0055 02       		.byte	0x2
 433 0056 05       		.byte	0x5
 434 0057 0C000000 		.4byte	.LASF5
 435 005b 02       		.uleb128 0x2
 436 005c 02       		.byte	0x2
 437 005d 07       		.byte	0x7
 438 005e A2050000 		.4byte	.LASF6
 439 0062 02       		.uleb128 0x2
 440 0063 04       		.byte	0x4
 441 0064 05       		.byte	0x5
 442 0065 D1010000 		.4byte	.LASF7
 443 0069 05       		.uleb128 0x5
 444 006a 52020000 		.4byte	.LASF10
 445 006e 02       		.byte	0x2
 446 006f 4F       		.byte	0x4f
 447 0070 19       		.byte	0x19
 448 0071 75000000 		.4byte	0x75
 449 0075 02       		.uleb128 0x2
 450 0076 04       		.byte	0x4
 451 0077 07       		.byte	0x7
 452 0078 C7020000 		.4byte	.LASF8
 453 007c 02       		.uleb128 0x2
 454 007d 08       		.byte	0x8
 455 007e 07       		.byte	0x7
 456 007f 16010000 		.4byte	.LASF9
 457 0083 05       		.uleb128 0x5
 458 0084 30030000 		.4byte	.LASF11
 459 0088 03       		.byte	0x3
 460 0089 22       		.byte	0x22
 461 008a 19       		.byte	0x19
 462 008b 8F000000 		.4byte	0x8f
 463 008f 06       		.uleb128 0x6
 464 0090 04       		.byte	0x4
 465 0091 95000000 		.4byte	0x95
 466 0095 07       		.uleb128 0x7
 467 0096 FB040000 		.4byte	.LASF118
 468 009a 01       		.byte	0x1
 469 009b 05       		.uleb128 0x5
 470 009c 7E010000 		.4byte	.LASF12
 471 00a0 04       		.byte	0x4
 472 00a1 2C       		.byte	0x2c
 473 00a2 0E       		.byte	0xe
 474 00a3 62000000 		.4byte	0x62
 475 00a7 05       		.uleb128 0x5
 476 00a8 26050000 		.4byte	.LASF13
ARM GAS  C:\Users\skey\AppData\Local\Temp\ccx2DgoR.s 			page 13


 477 00ac 04       		.byte	0x4
 478 00ad 72       		.byte	0x72
 479 00ae 0E       		.byte	0xe
 480 00af 62000000 		.4byte	0x62
 481 00b3 08       		.uleb128 0x8
 482 00b4 CF030000 		.4byte	.LASF14
 483 00b8 05       		.byte	0x5
 484 00b9 5E01     		.2byte	0x15e
 485 00bb 17       		.byte	0x17
 486 00bc 25000000 		.4byte	0x25
 487 00c0 09       		.uleb128 0x9
 488 00c1 04       		.byte	0x4
 489 00c2 04       		.byte	0x4
 490 00c3 A6       		.byte	0xa6
 491 00c4 03       		.byte	0x3
 492 00c5 E2000000 		.4byte	0xe2
 493 00c9 0A       		.uleb128 0xa
 494 00ca 2A030000 		.4byte	.LASF15
 495 00ce 04       		.byte	0x4
 496 00cf A8       		.byte	0xa8
 497 00d0 0C       		.byte	0xc
 498 00d1 B3000000 		.4byte	0xb3
 499 00d5 0A       		.uleb128 0xa
 500 00d6 90020000 		.4byte	.LASF16
 501 00da 04       		.byte	0x4
 502 00db A9       		.byte	0xa9
 503 00dc 13       		.byte	0x13
 504 00dd E2000000 		.4byte	0xe2
 505 00e1 00       		.byte	0
 506 00e2 0B       		.uleb128 0xb
 507 00e3 4D000000 		.4byte	0x4d
 508 00e7 F2000000 		.4byte	0xf2
 509 00eb 0C       		.uleb128 0xc
 510 00ec 25000000 		.4byte	0x25
 511 00f0 03       		.byte	0x3
 512 00f1 00       		.byte	0
 513 00f2 0D       		.uleb128 0xd
 514 00f3 08       		.byte	0x8
 515 00f4 04       		.byte	0x4
 516 00f5 A3       		.byte	0xa3
 517 00f6 09       		.byte	0x9
 518 00f7 1A010000 		.4byte	0x11a
 519 00fb 0E       		.uleb128 0xe
 520 00fc F3040000 		.4byte	.LASF17
 521 0100 04       		.byte	0x4
 522 0101 A5       		.byte	0xa5
 523 0102 07       		.byte	0x7
 524 0103 2C000000 		.4byte	0x2c
 525 0107 02       		.byte	0x2
 526 0108 23       		.byte	0x23
 527 0109 00       		.uleb128 0
 528 010a 0E       		.uleb128 0xe
 529 010b 02050000 		.4byte	.LASF18
 530 010f 04       		.byte	0x4
 531 0110 AA       		.byte	0xaa
 532 0111 05       		.byte	0x5
 533 0112 C0000000 		.4byte	0xc0
ARM GAS  C:\Users\skey\AppData\Local\Temp\ccx2DgoR.s 			page 14


 534 0116 02       		.byte	0x2
 535 0117 23       		.byte	0x23
 536 0118 04       		.uleb128 0x4
 537 0119 00       		.byte	0
 538 011a 05       		.uleb128 0x5
 539 011b 50040000 		.4byte	.LASF19
 540 011f 04       		.byte	0x4
 541 0120 AB       		.byte	0xab
 542 0121 03       		.byte	0x3
 543 0122 F2000000 		.4byte	0xf2
 544 0126 05       		.uleb128 0x5
 545 0127 27040000 		.4byte	.LASF20
 546 012b 04       		.byte	0x4
 547 012c AF       		.byte	0xaf
 548 012d 1B       		.byte	0x1b
 549 012e 83000000 		.4byte	0x83
 550 0132 0F       		.uleb128 0xf
 551 0133 04       		.byte	0x4
 552 0134 06       		.uleb128 0x6
 553 0135 04       		.byte	0x4
 554 0136 3A010000 		.4byte	0x13a
 555 013a 02       		.uleb128 0x2
 556 013b 01       		.byte	0x1
 557 013c 08       		.byte	0x8
 558 013d 41050000 		.4byte	.LASF21
 559 0141 10       		.uleb128 0x10
 560 0142 3A010000 		.4byte	0x13a
 561 0146 05       		.uleb128 0x5
 562 0147 BA050000 		.4byte	.LASF22
 563 014b 06       		.byte	0x6
 564 014c 16       		.byte	0x16
 565 014d 19       		.byte	0x19
 566 014e 75000000 		.4byte	0x75
 567 0152 11       		.uleb128 0x11
 568 0153 77020000 		.4byte	.LASF27
 569 0157 18       		.byte	0x18
 570 0158 06       		.byte	0x6
 571 0159 2F       		.byte	0x2f
 572 015a 08       		.byte	0x8
 573 015b B8010000 		.4byte	0x1b8
 574 015f 0E       		.uleb128 0xe
 575 0160 7F020000 		.4byte	.LASF23
 576 0164 06       		.byte	0x6
 577 0165 31       		.byte	0x31
 578 0166 13       		.byte	0x13
 579 0167 B8010000 		.4byte	0x1b8
 580 016b 02       		.byte	0x2
 581 016c 23       		.byte	0x23
 582 016d 00       		.uleb128 0
 583 016e 12       		.uleb128 0x12
 584 016f 5F6B00   		.ascii	"_k\000"
 585 0172 06       		.byte	0x6
 586 0173 32       		.byte	0x32
 587 0174 07       		.byte	0x7
 588 0175 2C000000 		.4byte	0x2c
 589 0179 02       		.byte	0x2
 590 017a 23       		.byte	0x23
ARM GAS  C:\Users\skey\AppData\Local\Temp\ccx2DgoR.s 			page 15


 591 017b 04       		.uleb128 0x4
 592 017c 0E       		.uleb128 0xe
 593 017d BB040000 		.4byte	.LASF24
 594 0181 06       		.byte	0x6
 595 0182 32       		.byte	0x32
 596 0183 0B       		.byte	0xb
 597 0184 2C000000 		.4byte	0x2c
 598 0188 02       		.byte	0x2
 599 0189 23       		.byte	0x23
 600 018a 08       		.uleb128 0x8
 601 018b 0E       		.uleb128 0xe
 602 018c 5D020000 		.4byte	.LASF25
 603 0190 06       		.byte	0x6
 604 0191 32       		.byte	0x32
 605 0192 14       		.byte	0x14
 606 0193 2C000000 		.4byte	0x2c
 607 0197 02       		.byte	0x2
 608 0198 23       		.byte	0x23
 609 0199 0C       		.uleb128 0xc
 610 019a 0E       		.uleb128 0xe
 611 019b 22060000 		.4byte	.LASF26
 612 019f 06       		.byte	0x6
 613 01a0 32       		.byte	0x32
 614 01a1 1B       		.byte	0x1b
 615 01a2 2C000000 		.4byte	0x2c
 616 01a6 02       		.byte	0x2
 617 01a7 23       		.byte	0x23
 618 01a8 10       		.uleb128 0x10
 619 01a9 12       		.uleb128 0x12
 620 01aa 5F7800   		.ascii	"_x\000"
 621 01ad 06       		.byte	0x6
 622 01ae 33       		.byte	0x33
 623 01af 0B       		.byte	0xb
 624 01b0 BE010000 		.4byte	0x1be
 625 01b4 02       		.byte	0x2
 626 01b5 23       		.byte	0x23
 627 01b6 14       		.uleb128 0x14
 628 01b7 00       		.byte	0
 629 01b8 06       		.uleb128 0x6
 630 01b9 04       		.byte	0x4
 631 01ba 52010000 		.4byte	0x152
 632 01be 0B       		.uleb128 0xb
 633 01bf 46010000 		.4byte	0x146
 634 01c3 CE010000 		.4byte	0x1ce
 635 01c7 0C       		.uleb128 0xc
 636 01c8 25000000 		.4byte	0x25
 637 01cc 00       		.byte	0
 638 01cd 00       		.byte	0
 639 01ce 11       		.uleb128 0x11
 640 01cf 8B020000 		.4byte	.LASF28
 641 01d3 24       		.byte	0x24
 642 01d4 06       		.byte	0x6
 643 01d5 37       		.byte	0x37
 644 01d6 08       		.byte	0x8
 645 01d7 63020000 		.4byte	0x263
 646 01db 0E       		.uleb128 0xe
 647 01dc 75010000 		.4byte	.LASF29
ARM GAS  C:\Users\skey\AppData\Local\Temp\ccx2DgoR.s 			page 16


 648 01e0 06       		.byte	0x6
 649 01e1 39       		.byte	0x39
 650 01e2 09       		.byte	0x9
 651 01e3 2C000000 		.4byte	0x2c
 652 01e7 02       		.byte	0x2
 653 01e8 23       		.byte	0x23
 654 01e9 00       		.uleb128 0
 655 01ea 0E       		.uleb128 0xe
 656 01eb 79060000 		.4byte	.LASF30
 657 01ef 06       		.byte	0x6
 658 01f0 3A       		.byte	0x3a
 659 01f1 09       		.byte	0x9
 660 01f2 2C000000 		.4byte	0x2c
 661 01f6 02       		.byte	0x2
 662 01f7 23       		.byte	0x23
 663 01f8 04       		.uleb128 0x4
 664 01f9 0E       		.uleb128 0xe
 665 01fa A4010000 		.4byte	.LASF31
 666 01fe 06       		.byte	0x6
 667 01ff 3B       		.byte	0x3b
 668 0200 09       		.byte	0x9
 669 0201 2C000000 		.4byte	0x2c
 670 0205 02       		.byte	0x2
 671 0206 23       		.byte	0x23
 672 0207 08       		.uleb128 0x8
 673 0208 0E       		.uleb128 0xe
 674 0209 B8060000 		.4byte	.LASF32
 675 020d 06       		.byte	0x6
 676 020e 3C       		.byte	0x3c
 677 020f 09       		.byte	0x9
 678 0210 2C000000 		.4byte	0x2c
 679 0214 02       		.byte	0x2
 680 0215 23       		.byte	0x23
 681 0216 0C       		.uleb128 0xc
 682 0217 0E       		.uleb128 0xe
 683 0218 8F030000 		.4byte	.LASF33
 684 021c 06       		.byte	0x6
 685 021d 3D       		.byte	0x3d
 686 021e 09       		.byte	0x9
 687 021f 2C000000 		.4byte	0x2c
 688 0223 02       		.byte	0x2
 689 0224 23       		.byte	0x23
 690 0225 10       		.uleb128 0x10
 691 0226 0E       		.uleb128 0xe
 692 0227 50030000 		.4byte	.LASF34
 693 022b 06       		.byte	0x6
 694 022c 3E       		.byte	0x3e
 695 022d 09       		.byte	0x9
 696 022e 2C000000 		.4byte	0x2c
 697 0232 02       		.byte	0x2
 698 0233 23       		.byte	0x23
 699 0234 14       		.uleb128 0x14
 700 0235 0E       		.uleb128 0xe
 701 0236 10050000 		.4byte	.LASF35
 702 023a 06       		.byte	0x6
 703 023b 3F       		.byte	0x3f
 704 023c 09       		.byte	0x9
ARM GAS  C:\Users\skey\AppData\Local\Temp\ccx2DgoR.s 			page 17


 705 023d 2C000000 		.4byte	0x2c
 706 0241 02       		.byte	0x2
 707 0242 23       		.byte	0x23
 708 0243 18       		.uleb128 0x18
 709 0244 0E       		.uleb128 0xe
 710 0245 30040000 		.4byte	.LASF36
 711 0249 06       		.byte	0x6
 712 024a 40       		.byte	0x40
 713 024b 09       		.byte	0x9
 714 024c 2C000000 		.4byte	0x2c
 715 0250 02       		.byte	0x2
 716 0251 23       		.byte	0x23
 717 0252 1C       		.uleb128 0x1c
 718 0253 0E       		.uleb128 0xe
 719 0254 5F060000 		.4byte	.LASF37
 720 0258 06       		.byte	0x6
 721 0259 41       		.byte	0x41
 722 025a 09       		.byte	0x9
 723 025b 2C000000 		.4byte	0x2c
 724 025f 02       		.byte	0x2
 725 0260 23       		.byte	0x23
 726 0261 20       		.uleb128 0x20
 727 0262 00       		.byte	0
 728 0263 13       		.uleb128 0x13
 729 0264 B3010000 		.4byte	.LASF38
 730 0268 0801     		.2byte	0x108
 731 026a 06       		.byte	0x6
 732 026b 4A       		.byte	0x4a
 733 026c 08       		.byte	0x8
 734 026d B1020000 		.4byte	0x2b1
 735 0271 0E       		.uleb128 0xe
 736 0272 16000000 		.4byte	.LASF39
 737 0276 06       		.byte	0x6
 738 0277 4B       		.byte	0x4b
 739 0278 0A       		.byte	0xa
 740 0279 B1020000 		.4byte	0x2b1
 741 027d 02       		.byte	0x2
 742 027e 23       		.byte	0x23
 743 027f 00       		.uleb128 0
 744 0280 0E       		.uleb128 0xe
 745 0281 00000000 		.4byte	.LASF40
 746 0285 06       		.byte	0x6
 747 0286 4C       		.byte	0x4c
 748 0287 09       		.byte	0x9
 749 0288 B1020000 		.4byte	0x2b1
 750 028c 03       		.byte	0x3
 751 028d 23       		.byte	0x23
 752 028e 8001     		.uleb128 0x80
 753 0290 0E       		.uleb128 0xe
 754 0291 99050000 		.4byte	.LASF41
 755 0295 06       		.byte	0x6
 756 0296 4E       		.byte	0x4e
 757 0297 0A       		.byte	0xa
 758 0298 46010000 		.4byte	0x146
 759 029c 03       		.byte	0x3
 760 029d 23       		.byte	0x23
 761 029e 8002     		.uleb128 0x100
ARM GAS  C:\Users\skey\AppData\Local\Temp\ccx2DgoR.s 			page 18


 762 02a0 0E       		.uleb128 0xe
 763 02a1 E1010000 		.4byte	.LASF42
 764 02a5 06       		.byte	0x6
 765 02a6 51       		.byte	0x51
 766 02a7 0A       		.byte	0xa
 767 02a8 46010000 		.4byte	0x146
 768 02ac 03       		.byte	0x3
 769 02ad 23       		.byte	0x23
 770 02ae 8402     		.uleb128 0x104
 771 02b0 00       		.byte	0
 772 02b1 0B       		.uleb128 0xb
 773 02b2 32010000 		.4byte	0x132
 774 02b6 C1020000 		.4byte	0x2c1
 775 02ba 0C       		.uleb128 0xc
 776 02bb 25000000 		.4byte	0x25
 777 02bf 1F       		.byte	0x1f
 778 02c0 00       		.byte	0
 779 02c1 13       		.uleb128 0x13
 780 02c2 98030000 		.4byte	.LASF43
 781 02c6 9001     		.2byte	0x190
 782 02c8 06       		.byte	0x6
 783 02c9 5D       		.byte	0x5d
 784 02ca 08       		.byte	0x8
 785 02cb 0D030000 		.4byte	0x30d
 786 02cf 0E       		.uleb128 0xe
 787 02d0 7F020000 		.4byte	.LASF23
 788 02d4 06       		.byte	0x6
 789 02d5 5E       		.byte	0x5e
 790 02d6 12       		.byte	0x12
 791 02d7 0D030000 		.4byte	0x30d
 792 02db 02       		.byte	0x2
 793 02dc 23       		.byte	0x23
 794 02dd 00       		.uleb128 0
 795 02de 0E       		.uleb128 0xe
 796 02df 84040000 		.4byte	.LASF44
 797 02e3 06       		.byte	0x6
 798 02e4 5F       		.byte	0x5f
 799 02e5 06       		.byte	0x6
 800 02e6 2C000000 		.4byte	0x2c
 801 02ea 02       		.byte	0x2
 802 02eb 23       		.byte	0x23
 803 02ec 04       		.uleb128 0x4
 804 02ed 0E       		.uleb128 0xe
 805 02ee 4D020000 		.4byte	.LASF45
 806 02f2 06       		.byte	0x6
 807 02f3 61       		.byte	0x61
 808 02f4 09       		.byte	0x9
 809 02f5 13030000 		.4byte	0x313
 810 02f9 02       		.byte	0x2
 811 02fa 23       		.byte	0x23
 812 02fb 08       		.uleb128 0x8
 813 02fc 0E       		.uleb128 0xe
 814 02fd B3010000 		.4byte	.LASF38
 815 0301 06       		.byte	0x6
 816 0302 62       		.byte	0x62
 817 0303 1E       		.byte	0x1e
 818 0304 63020000 		.4byte	0x263
ARM GAS  C:\Users\skey\AppData\Local\Temp\ccx2DgoR.s 			page 19


 819 0308 03       		.byte	0x3
 820 0309 23       		.byte	0x23
 821 030a 8801     		.uleb128 0x88
 822 030c 00       		.byte	0
 823 030d 06       		.uleb128 0x6
 824 030e 04       		.byte	0x4
 825 030f C1020000 		.4byte	0x2c1
 826 0313 0B       		.uleb128 0xb
 827 0314 23030000 		.4byte	0x323
 828 0318 23030000 		.4byte	0x323
 829 031c 0C       		.uleb128 0xc
 830 031d 25000000 		.4byte	0x25
 831 0321 1F       		.byte	0x1f
 832 0322 00       		.byte	0
 833 0323 06       		.uleb128 0x6
 834 0324 04       		.byte	0x4
 835 0325 29030000 		.4byte	0x329
 836 0329 14       		.uleb128 0x14
 837 032a 01       		.byte	0x1
 838 032b 11       		.uleb128 0x11
 839 032c 3A040000 		.4byte	.LASF46
 840 0330 08       		.byte	0x8
 841 0331 06       		.byte	0x6
 842 0332 75       		.byte	0x75
 843 0333 08       		.byte	0x8
 844 0334 57030000 		.4byte	0x357
 845 0338 0E       		.uleb128 0xe
 846 0339 9E010000 		.4byte	.LASF47
 847 033d 06       		.byte	0x6
 848 033e 76       		.byte	0x76
 849 033f 11       		.byte	0x11
 850 0340 57030000 		.4byte	0x357
 851 0344 02       		.byte	0x2
 852 0345 23       		.byte	0x23
 853 0346 00       		.uleb128 0
 854 0347 0E       		.uleb128 0xe
 855 0348 4F050000 		.4byte	.LASF48
 856 034c 06       		.byte	0x6
 857 034d 77       		.byte	0x77
 858 034e 06       		.byte	0x6
 859 034f 2C000000 		.4byte	0x2c
 860 0353 02       		.byte	0x2
 861 0354 23       		.byte	0x23
 862 0355 04       		.uleb128 0x4
 863 0356 00       		.byte	0
 864 0357 06       		.uleb128 0x6
 865 0358 04       		.byte	0x4
 866 0359 4D000000 		.4byte	0x4d
 867 035d 11       		.uleb128 0x11
 868 035e 5B040000 		.4byte	.LASF49
 869 0362 68       		.byte	0x68
 870 0363 06       		.byte	0x6
 871 0364 B5       		.byte	0xb5
 872 0365 08       		.byte	0x8
 873 0366 D0040000 		.4byte	0x4d0
 874 036a 12       		.uleb128 0x12
 875 036b 5F7000   		.ascii	"_p\000"
ARM GAS  C:\Users\skey\AppData\Local\Temp\ccx2DgoR.s 			page 20


 876 036e 06       		.byte	0x6
 877 036f B6       		.byte	0xb6
 878 0370 12       		.byte	0x12
 879 0371 57030000 		.4byte	0x357
 880 0375 02       		.byte	0x2
 881 0376 23       		.byte	0x23
 882 0377 00       		.uleb128 0
 883 0378 12       		.uleb128 0x12
 884 0379 5F7200   		.ascii	"_r\000"
 885 037c 06       		.byte	0x6
 886 037d B7       		.byte	0xb7
 887 037e 07       		.byte	0x7
 888 037f 2C000000 		.4byte	0x2c
 889 0383 02       		.byte	0x2
 890 0384 23       		.byte	0x23
 891 0385 04       		.uleb128 0x4
 892 0386 12       		.uleb128 0x12
 893 0387 5F7700   		.ascii	"_w\000"
 894 038a 06       		.byte	0x6
 895 038b B8       		.byte	0xb8
 896 038c 07       		.byte	0x7
 897 038d 2C000000 		.4byte	0x2c
 898 0391 02       		.byte	0x2
 899 0392 23       		.byte	0x23
 900 0393 08       		.uleb128 0x8
 901 0394 0E       		.uleb128 0xe
 902 0395 DA010000 		.4byte	.LASF50
 903 0399 06       		.byte	0x6
 904 039a B9       		.byte	0xb9
 905 039b 09       		.byte	0x9
 906 039c 54000000 		.4byte	0x54
 907 03a0 02       		.byte	0x2
 908 03a1 23       		.byte	0x23
 909 03a2 0C       		.uleb128 0xc
 910 03a3 0E       		.uleb128 0xe
 911 03a4 D9020000 		.4byte	.LASF51
 912 03a8 06       		.byte	0x6
 913 03a9 BA       		.byte	0xba
 914 03aa 09       		.byte	0x9
 915 03ab 54000000 		.4byte	0x54
 916 03af 02       		.byte	0x2
 917 03b0 23       		.byte	0x23
 918 03b1 0E       		.uleb128 0xe
 919 03b2 12       		.uleb128 0x12
 920 03b3 5F626600 		.ascii	"_bf\000"
 921 03b7 06       		.byte	0x6
 922 03b8 BB       		.byte	0xbb
 923 03b9 11       		.byte	0x11
 924 03ba 2B030000 		.4byte	0x32b
 925 03be 02       		.byte	0x2
 926 03bf 23       		.byte	0x23
 927 03c0 10       		.uleb128 0x10
 928 03c1 0E       		.uleb128 0xe
 929 03c2 2D010000 		.4byte	.LASF52
 930 03c6 06       		.byte	0x6
 931 03c7 BC       		.byte	0xbc
 932 03c8 07       		.byte	0x7
ARM GAS  C:\Users\skey\AppData\Local\Temp\ccx2DgoR.s 			page 21


 933 03c9 2C000000 		.4byte	0x2c
 934 03cd 02       		.byte	0x2
 935 03ce 23       		.byte	0x23
 936 03cf 18       		.uleb128 0x18
 937 03d0 0E       		.uleb128 0xe
 938 03d1 C1010000 		.4byte	.LASF53
 939 03d5 06       		.byte	0x6
 940 03d6 C3       		.byte	0xc3
 941 03d7 0A       		.byte	0xa
 942 03d8 32010000 		.4byte	0x132
 943 03dc 02       		.byte	0x2
 944 03dd 23       		.byte	0x23
 945 03de 1C       		.uleb128 0x1c
 946 03df 0E       		.uleb128 0xe
 947 03e0 85020000 		.4byte	.LASF54
 948 03e4 06       		.byte	0x6
 949 03e5 C5       		.byte	0xc5
 950 03e6 1D       		.byte	0x1d
 951 03e7 6F060000 		.4byte	0x66f
 952 03eb 02       		.byte	0x2
 953 03ec 23       		.byte	0x23
 954 03ed 20       		.uleb128 0x20
 955 03ee 0E       		.uleb128 0xe
 956 03ef 49030000 		.4byte	.LASF55
 957 03f3 06       		.byte	0x6
 958 03f4 C7       		.byte	0xc7
 959 03f5 1D       		.byte	0x1d
 960 03f6 9A060000 		.4byte	0x69a
 961 03fa 02       		.byte	0x2
 962 03fb 23       		.byte	0x23
 963 03fc 24       		.uleb128 0x24
 964 03fd 0E       		.uleb128 0xe
 965 03fe 0A050000 		.4byte	.LASF56
 966 0402 06       		.byte	0x6
 967 0403 CA       		.byte	0xca
 968 0404 0D       		.byte	0xd
 969 0405 BF060000 		.4byte	0x6bf
 970 0409 02       		.byte	0x2
 971 040a 23       		.byte	0x23
 972 040b 28       		.uleb128 0x28
 973 040c 0E       		.uleb128 0xe
 974 040d 85010000 		.4byte	.LASF57
 975 0411 06       		.byte	0x6
 976 0412 CB       		.byte	0xcb
 977 0413 09       		.byte	0x9
 978 0414 DA060000 		.4byte	0x6da
 979 0418 02       		.byte	0x2
 980 0419 23       		.byte	0x23
 981 041a 2C       		.uleb128 0x2c
 982 041b 12       		.uleb128 0x12
 983 041c 5F756200 		.ascii	"_ub\000"
 984 0420 06       		.byte	0x6
 985 0421 CE       		.byte	0xce
 986 0422 11       		.byte	0x11
 987 0423 2B030000 		.4byte	0x32b
 988 0427 02       		.byte	0x2
 989 0428 23       		.byte	0x23
ARM GAS  C:\Users\skey\AppData\Local\Temp\ccx2DgoR.s 			page 22


 990 0429 30       		.uleb128 0x30
 991 042a 12       		.uleb128 0x12
 992 042b 5F757000 		.ascii	"_up\000"
 993 042f 06       		.byte	0x6
 994 0430 CF       		.byte	0xcf
 995 0431 12       		.byte	0x12
 996 0432 57030000 		.4byte	0x357
 997 0436 02       		.byte	0x2
 998 0437 23       		.byte	0x23
 999 0438 38       		.uleb128 0x38
 1000 0439 12       		.uleb128 0x12
 1001 043a 5F757200 		.ascii	"_ur\000"
 1002 043e 06       		.byte	0x6
 1003 043f D0       		.byte	0xd0
 1004 0440 07       		.byte	0x7
 1005 0441 2C000000 		.4byte	0x2c
 1006 0445 02       		.byte	0x2
 1007 0446 23       		.byte	0x23
 1008 0447 3C       		.uleb128 0x3c
 1009 0448 0E       		.uleb128 0xe
 1010 0449 98010000 		.4byte	.LASF58
 1011 044d 06       		.byte	0x6
 1012 044e D3       		.byte	0xd3
 1013 044f 11       		.byte	0x11
 1014 0450 E0060000 		.4byte	0x6e0
 1015 0454 02       		.byte	0x2
 1016 0455 23       		.byte	0x23
 1017 0456 40       		.uleb128 0x40
 1018 0457 0E       		.uleb128 0xe
 1019 0458 51060000 		.4byte	.LASF59
 1020 045c 06       		.byte	0x6
 1021 045d D4       		.byte	0xd4
 1022 045e 11       		.byte	0x11
 1023 045f F0060000 		.4byte	0x6f0
 1024 0463 02       		.byte	0x2
 1025 0464 23       		.byte	0x23
 1026 0465 43       		.uleb128 0x43
 1027 0466 12       		.uleb128 0x12
 1028 0467 5F6C6200 		.ascii	"_lb\000"
 1029 046b 06       		.byte	0x6
 1030 046c D7       		.byte	0xd7
 1031 046d 11       		.byte	0x11
 1032 046e 2B030000 		.4byte	0x32b
 1033 0472 02       		.byte	0x2
 1034 0473 23       		.byte	0x23
 1035 0474 44       		.uleb128 0x44
 1036 0475 0E       		.uleb128 0xe
 1037 0476 46050000 		.4byte	.LASF60
 1038 047a 06       		.byte	0x6
 1039 047b DA       		.byte	0xda
 1040 047c 07       		.byte	0x7
 1041 047d 2C000000 		.4byte	0x2c
 1042 0481 02       		.byte	0x2
 1043 0482 23       		.byte	0x23
 1044 0483 4C       		.uleb128 0x4c
 1045 0484 0E       		.uleb128 0xe
 1046 0485 10020000 		.4byte	.LASF61
ARM GAS  C:\Users\skey\AppData\Local\Temp\ccx2DgoR.s 			page 23


 1047 0489 06       		.byte	0x6
 1048 048a DB       		.byte	0xdb
 1049 048b 0A       		.byte	0xa
 1050 048c 9B000000 		.4byte	0x9b
 1051 0490 02       		.byte	0x2
 1052 0491 23       		.byte	0x23
 1053 0492 50       		.uleb128 0x50
 1054 0493 0E       		.uleb128 0xe
 1055 0494 DF020000 		.4byte	.LASF62
 1056 0498 06       		.byte	0x6
 1057 0499 DE       		.byte	0xde
 1058 049a 12       		.byte	0x12
 1059 049b EF040000 		.4byte	0x4ef
 1060 049f 02       		.byte	0x2
 1061 04a0 23       		.byte	0x23
 1062 04a1 54       		.uleb128 0x54
 1063 04a2 0E       		.uleb128 0xe
 1064 04a3 3D030000 		.4byte	.LASF63
 1065 04a7 06       		.byte	0x6
 1066 04a8 E2       		.byte	0xe2
 1067 04a9 0C       		.byte	0xc
 1068 04aa 26010000 		.4byte	0x126
 1069 04ae 02       		.byte	0x2
 1070 04af 23       		.byte	0x23
 1071 04b0 58       		.uleb128 0x58
 1072 04b1 0E       		.uleb128 0xe
 1073 04b2 63040000 		.4byte	.LASF64
 1074 04b6 06       		.byte	0x6
 1075 04b7 E4       		.byte	0xe4
 1076 04b8 0E       		.byte	0xe
 1077 04b9 1A010000 		.4byte	0x11a
 1078 04bd 02       		.byte	0x2
 1079 04be 23       		.byte	0x23
 1080 04bf 5C       		.uleb128 0x5c
 1081 04c0 0E       		.uleb128 0xe
 1082 04c1 41040000 		.4byte	.LASF65
 1083 04c5 06       		.byte	0x6
 1084 04c6 E5       		.byte	0xe5
 1085 04c7 09       		.byte	0x9
 1086 04c8 2C000000 		.4byte	0x2c
 1087 04cc 02       		.byte	0x2
 1088 04cd 23       		.byte	0x23
 1089 04ce 64       		.uleb128 0x64
 1090 04cf 00       		.byte	0
 1091 04d0 15       		.uleb128 0x15
 1092 04d1 01       		.byte	0x1
 1093 04d2 2C000000 		.4byte	0x2c
 1094 04d6 EF040000 		.4byte	0x4ef
 1095 04da 16       		.uleb128 0x16
 1096 04db EF040000 		.4byte	0x4ef
 1097 04df 16       		.uleb128 0x16
 1098 04e0 32010000 		.4byte	0x132
 1099 04e4 16       		.uleb128 0x16
 1100 04e5 34010000 		.4byte	0x134
 1101 04e9 16       		.uleb128 0x16
 1102 04ea 2C000000 		.4byte	0x2c
 1103 04ee 00       		.byte	0
ARM GAS  C:\Users\skey\AppData\Local\Temp\ccx2DgoR.s 			page 24


 1104 04ef 06       		.uleb128 0x6
 1105 04f0 04       		.byte	0x4
 1106 04f1 FA040000 		.4byte	0x4fa
 1107 04f5 10       		.uleb128 0x10
 1108 04f6 EF040000 		.4byte	0x4ef
 1109 04fa 17       		.uleb128 0x17
 1110 04fb C3040000 		.4byte	.LASF66
 1111 04ff 2804     		.2byte	0x428
 1112 0501 06       		.byte	0x6
 1113 0502 6002     		.2byte	0x260
 1114 0504 08       		.byte	0x8
 1115 0505 6F060000 		.4byte	0x66f
 1116 0509 18       		.uleb128 0x18
 1117 050a 3A050000 		.4byte	.LASF67
 1118 050e 06       		.byte	0x6
 1119 050f 6202     		.2byte	0x262
 1120 0511 07       		.byte	0x7
 1121 0512 2C000000 		.4byte	0x2c
 1122 0516 02       		.byte	0x2
 1123 0517 23       		.byte	0x23
 1124 0518 00       		.uleb128 0
 1125 0519 18       		.uleb128 0x18
 1126 051a E9010000 		.4byte	.LASF68
 1127 051e 06       		.byte	0x6
 1128 051f 6702     		.2byte	0x267
 1129 0521 0B       		.byte	0xb
 1130 0522 52070000 		.4byte	0x752
 1131 0526 02       		.byte	0x2
 1132 0527 23       		.byte	0x23
 1133 0528 04       		.uleb128 0x4
 1134 0529 18       		.uleb128 0x18
 1135 052a A7020000 		.4byte	.LASF69
 1136 052e 06       		.byte	0x6
 1137 052f 6702     		.2byte	0x267
 1138 0531 14       		.byte	0x14
 1139 0532 52070000 		.4byte	0x752
 1140 0536 02       		.byte	0x2
 1141 0537 23       		.byte	0x23
 1142 0538 08       		.uleb128 0x8
 1143 0539 18       		.uleb128 0x18
 1144 053a 6F020000 		.4byte	.LASF70
 1145 053e 06       		.byte	0x6
 1146 053f 6702     		.2byte	0x267
 1147 0541 1E       		.byte	0x1e
 1148 0542 52070000 		.4byte	0x752
 1149 0546 02       		.byte	0x2
 1150 0547 23       		.byte	0x23
 1151 0548 0C       		.uleb128 0xc
 1152 0549 18       		.uleb128 0x18
 1153 054a 7F040000 		.4byte	.LASF71
 1154 054e 06       		.byte	0x6
 1155 054f 6902     		.2byte	0x269
 1156 0551 08       		.byte	0x8
 1157 0552 2C000000 		.4byte	0x2c
 1158 0556 02       		.byte	0x2
 1159 0557 23       		.byte	0x23
 1160 0558 10       		.uleb128 0x10
ARM GAS  C:\Users\skey\AppData\Local\Temp\ccx2DgoR.s 			page 25


 1161 0559 18       		.uleb128 0x18
 1162 055a 35000000 		.4byte	.LASF72
 1163 055e 06       		.byte	0x6
 1164 055f 6A02     		.2byte	0x26a
 1165 0561 08       		.byte	0x8
 1166 0562 8B090000 		.4byte	0x98b
 1167 0566 02       		.byte	0x2
 1168 0567 23       		.byte	0x23
 1169 0568 14       		.uleb128 0x14
 1170 0569 18       		.uleb128 0x18
 1171 056a A2040000 		.4byte	.LASF73
 1172 056e 06       		.byte	0x6
 1173 056f 6D02     		.2byte	0x26d
 1174 0571 07       		.byte	0x7
 1175 0572 2C000000 		.4byte	0x2c
 1176 0576 02       		.byte	0x2
 1177 0577 23       		.byte	0x23
 1178 0578 30       		.uleb128 0x30
 1179 0579 18       		.uleb128 0x18
 1180 057a 90040000 		.4byte	.LASF74
 1181 057e 06       		.byte	0x6
 1182 057f 6E02     		.2byte	0x26e
 1183 0581 16       		.byte	0x16
 1184 0582 A1090000 		.4byte	0x9a1
 1185 0586 02       		.byte	0x2
 1186 0587 23       		.byte	0x23
 1187 0588 34       		.uleb128 0x34
 1188 0589 18       		.uleb128 0x18
 1189 058a AA030000 		.4byte	.LASF75
 1190 058e 06       		.byte	0x6
 1191 058f 7002     		.2byte	0x270
 1192 0591 07       		.byte	0x7
 1193 0592 2C000000 		.4byte	0x2c
 1194 0596 02       		.byte	0x2
 1195 0597 23       		.byte	0x23
 1196 0598 38       		.uleb128 0x38
 1197 0599 18       		.uleb128 0x18
 1198 059a 98040000 		.4byte	.LASF76
 1199 059e 06       		.byte	0x6
 1200 059f 7202     		.2byte	0x272
 1201 05a1 0A       		.byte	0xa
 1202 05a2 B3090000 		.4byte	0x9b3
 1203 05a6 02       		.byte	0x2
 1204 05a7 23       		.byte	0x23
 1205 05a8 3C       		.uleb128 0x3c
 1206 05a9 18       		.uleb128 0x18
 1207 05aa 22030000 		.4byte	.LASF77
 1208 05ae 06       		.byte	0x6
 1209 05af 7502     		.2byte	0x275
 1210 05b1 13       		.byte	0x13
 1211 05b2 B8010000 		.4byte	0x1b8
 1212 05b6 02       		.byte	0x2
 1213 05b7 23       		.byte	0x23
 1214 05b8 40       		.uleb128 0x40
 1215 05b9 18       		.uleb128 0x18
 1216 05ba F0010000 		.4byte	.LASF78
 1217 05be 06       		.byte	0x6
ARM GAS  C:\Users\skey\AppData\Local\Temp\ccx2DgoR.s 			page 26


 1218 05bf 7602     		.2byte	0x276
 1219 05c1 07       		.byte	0x7
 1220 05c2 2C000000 		.4byte	0x2c
 1221 05c6 02       		.byte	0x2
 1222 05c7 23       		.byte	0x23
 1223 05c8 44       		.uleb128 0x44
 1224 05c9 18       		.uleb128 0x18
 1225 05ca A0060000 		.4byte	.LASF79
 1226 05ce 06       		.byte	0x6
 1227 05cf 7702     		.2byte	0x277
 1228 05d1 13       		.byte	0x13
 1229 05d2 B8010000 		.4byte	0x1b8
 1230 05d6 02       		.byte	0x2
 1231 05d7 23       		.byte	0x23
 1232 05d8 48       		.uleb128 0x48
 1233 05d9 18       		.uleb128 0x18
 1234 05da DE030000 		.4byte	.LASF80
 1235 05de 06       		.byte	0x6
 1236 05df 7802     		.2byte	0x278
 1237 05e1 14       		.byte	0x14
 1238 05e2 B9090000 		.4byte	0x9b9
 1239 05e6 02       		.byte	0x2
 1240 05e7 23       		.byte	0x23
 1241 05e8 4C       		.uleb128 0x4c
 1242 05e9 18       		.uleb128 0x18
 1243 05ea AF020000 		.4byte	.LASF81
 1244 05ee 06       		.byte	0x6
 1245 05ef 7B02     		.2byte	0x27b
 1246 05f1 07       		.byte	0x7
 1247 05f2 2C000000 		.4byte	0x2c
 1248 05f6 02       		.byte	0x2
 1249 05f7 23       		.byte	0x23
 1250 05f8 50       		.uleb128 0x50
 1251 05f9 18       		.uleb128 0x18
 1252 05fa 08020000 		.4byte	.LASF82
 1253 05fe 06       		.byte	0x6
 1254 05ff 7C02     		.2byte	0x27c
 1255 0601 09       		.byte	0x9
 1256 0602 34010000 		.4byte	0x134
 1257 0606 02       		.byte	0x2
 1258 0607 23       		.byte	0x23
 1259 0608 54       		.uleb128 0x54
 1260 0609 18       		.uleb128 0x18
 1261 060a 38030000 		.4byte	.LASF83
 1262 060e 06       		.byte	0x6
 1263 060f 9F02     		.2byte	0x29f
 1264 0611 07       		.byte	0x7
 1265 0612 66090000 		.4byte	0x966
 1266 0616 02       		.byte	0x2
 1267 0617 23       		.byte	0x23
 1268 0618 58       		.uleb128 0x58
 1269 0619 18       		.uleb128 0x18
 1270 061a 98030000 		.4byte	.LASF43
 1271 061e 06       		.byte	0x6
 1272 061f A302     		.2byte	0x2a3
 1273 0621 13       		.byte	0x13
 1274 0622 0D030000 		.4byte	0x30d
ARM GAS  C:\Users\skey\AppData\Local\Temp\ccx2DgoR.s 			page 27


 1275 0626 03       		.byte	0x3
 1276 0627 23       		.byte	0x23
 1277 0628 C802     		.uleb128 0x148
 1278 062a 18       		.uleb128 0x18
 1279 062b E2000000 		.4byte	.LASF84
 1280 062f 06       		.byte	0x6
 1281 0630 A402     		.2byte	0x2a4
 1282 0632 12       		.byte	0x12
 1283 0633 C1020000 		.4byte	0x2c1
 1284 0637 03       		.byte	0x3
 1285 0638 23       		.byte	0x23
 1286 0639 CC02     		.uleb128 0x14c
 1287 063b 18       		.uleb128 0x18
 1288 063c 40060000 		.4byte	.LASF85
 1289 0640 06       		.byte	0x6
 1290 0641 A802     		.2byte	0x2a8
 1291 0643 0C       		.byte	0xc
 1292 0644 CB090000 		.4byte	0x9cb
 1293 0648 03       		.byte	0x3
 1294 0649 23       		.byte	0x23
 1295 064a DC05     		.uleb128 0x2dc
 1296 064c 18       		.uleb128 0x18
 1297 064d C9010000 		.4byte	.LASF86
 1298 0651 06       		.byte	0x6
 1299 0652 AD02     		.2byte	0x2ad
 1300 0654 10       		.byte	0x10
 1301 0655 0D070000 		.4byte	0x70d
 1302 0659 03       		.byte	0x3
 1303 065a 23       		.byte	0x23
 1304 065b E005     		.uleb128 0x2e0
 1305 065d 18       		.uleb128 0x18
 1306 065e AE010000 		.4byte	.LASF87
 1307 0662 06       		.byte	0x6
 1308 0663 AF02     		.2byte	0x2af
 1309 0665 0A       		.byte	0xa
 1310 0666 D7090000 		.4byte	0x9d7
 1311 066a 03       		.byte	0x3
 1312 066b 23       		.byte	0x23
 1313 066c EC05     		.uleb128 0x2ec
 1314 066e 00       		.byte	0
 1315 066f 06       		.uleb128 0x6
 1316 0670 04       		.byte	0x4
 1317 0671 D0040000 		.4byte	0x4d0
 1318 0675 15       		.uleb128 0x15
 1319 0676 01       		.byte	0x1
 1320 0677 2C000000 		.4byte	0x2c
 1321 067b 94060000 		.4byte	0x694
 1322 067f 16       		.uleb128 0x16
 1323 0680 EF040000 		.4byte	0x4ef
 1324 0684 16       		.uleb128 0x16
 1325 0685 32010000 		.4byte	0x132
 1326 0689 16       		.uleb128 0x16
 1327 068a 94060000 		.4byte	0x694
 1328 068e 16       		.uleb128 0x16
 1329 068f 2C000000 		.4byte	0x2c
 1330 0693 00       		.byte	0
 1331 0694 06       		.uleb128 0x6
ARM GAS  C:\Users\skey\AppData\Local\Temp\ccx2DgoR.s 			page 28


 1332 0695 04       		.byte	0x4
 1333 0696 41010000 		.4byte	0x141
 1334 069a 06       		.uleb128 0x6
 1335 069b 04       		.byte	0x4
 1336 069c 75060000 		.4byte	0x675
 1337 06a0 15       		.uleb128 0x15
 1338 06a1 01       		.byte	0x1
 1339 06a2 A7000000 		.4byte	0xa7
 1340 06a6 BF060000 		.4byte	0x6bf
 1341 06aa 16       		.uleb128 0x16
 1342 06ab EF040000 		.4byte	0x4ef
 1343 06af 16       		.uleb128 0x16
 1344 06b0 32010000 		.4byte	0x132
 1345 06b4 16       		.uleb128 0x16
 1346 06b5 A7000000 		.4byte	0xa7
 1347 06b9 16       		.uleb128 0x16
 1348 06ba 2C000000 		.4byte	0x2c
 1349 06be 00       		.byte	0
 1350 06bf 06       		.uleb128 0x6
 1351 06c0 04       		.byte	0x4
 1352 06c1 A0060000 		.4byte	0x6a0
 1353 06c5 15       		.uleb128 0x15
 1354 06c6 01       		.byte	0x1
 1355 06c7 2C000000 		.4byte	0x2c
 1356 06cb DA060000 		.4byte	0x6da
 1357 06cf 16       		.uleb128 0x16
 1358 06d0 EF040000 		.4byte	0x4ef
 1359 06d4 16       		.uleb128 0x16
 1360 06d5 32010000 		.4byte	0x132
 1361 06d9 00       		.byte	0
 1362 06da 06       		.uleb128 0x6
 1363 06db 04       		.byte	0x4
 1364 06dc C5060000 		.4byte	0x6c5
 1365 06e0 0B       		.uleb128 0xb
 1366 06e1 4D000000 		.4byte	0x4d
 1367 06e5 F0060000 		.4byte	0x6f0
 1368 06e9 0C       		.uleb128 0xc
 1369 06ea 25000000 		.4byte	0x25
 1370 06ee 02       		.byte	0x2
 1371 06ef 00       		.byte	0
 1372 06f0 0B       		.uleb128 0xb
 1373 06f1 4D000000 		.4byte	0x4d
 1374 06f5 00070000 		.4byte	0x700
 1375 06f9 0C       		.uleb128 0xc
 1376 06fa 25000000 		.4byte	0x25
 1377 06fe 00       		.byte	0
 1378 06ff 00       		.byte	0
 1379 0700 08       		.uleb128 0x8
 1380 0701 49040000 		.4byte	.LASF88
 1381 0705 06       		.byte	0x6
 1382 0706 1F01     		.2byte	0x11f
 1383 0708 1A       		.byte	0x1a
 1384 0709 5D030000 		.4byte	0x35d
 1385 070d 19       		.uleb128 0x19
 1386 070e 27060000 		.4byte	.LASF89
 1387 0712 0C       		.byte	0xc
 1388 0713 06       		.byte	0x6
ARM GAS  C:\Users\skey\AppData\Local\Temp\ccx2DgoR.s 			page 29


 1389 0714 2301     		.2byte	0x123
 1390 0716 08       		.byte	0x8
 1391 0717 4C070000 		.4byte	0x74c
 1392 071b 18       		.uleb128 0x18
 1393 071c 7F020000 		.4byte	.LASF23
 1394 0720 06       		.byte	0x6
 1395 0721 2501     		.2byte	0x125
 1396 0723 11       		.byte	0x11
 1397 0724 4C070000 		.4byte	0x74c
 1398 0728 02       		.byte	0x2
 1399 0729 23       		.byte	0x23
 1400 072a 00       		.uleb128 0
 1401 072b 18       		.uleb128 0x18
 1402 072c E5020000 		.4byte	.LASF90
 1403 0730 06       		.byte	0x6
 1404 0731 2601     		.2byte	0x126
 1405 0733 07       		.byte	0x7
 1406 0734 2C000000 		.4byte	0x2c
 1407 0738 02       		.byte	0x2
 1408 0739 23       		.byte	0x23
 1409 073a 04       		.uleb128 0x4
 1410 073b 18       		.uleb128 0x18
 1411 073c 18040000 		.4byte	.LASF91
 1412 0740 06       		.byte	0x6
 1413 0741 2701     		.2byte	0x127
 1414 0743 0B       		.byte	0xb
 1415 0744 52070000 		.4byte	0x752
 1416 0748 02       		.byte	0x2
 1417 0749 23       		.byte	0x23
 1418 074a 08       		.uleb128 0x8
 1419 074b 00       		.byte	0
 1420 074c 06       		.uleb128 0x6
 1421 074d 04       		.byte	0x4
 1422 074e 0D070000 		.4byte	0x70d
 1423 0752 06       		.uleb128 0x6
 1424 0753 04       		.byte	0x4
 1425 0754 00070000 		.4byte	0x700
 1426 0758 19       		.uleb128 0x19
 1427 0759 2D000000 		.4byte	.LASF92
 1428 075d 0E       		.byte	0xe
 1429 075e 06       		.byte	0x6
 1430 075f 3F01     		.2byte	0x13f
 1431 0761 08       		.byte	0x8
 1432 0762 97070000 		.4byte	0x797
 1433 0766 18       		.uleb128 0x18
 1434 0767 ED040000 		.4byte	.LASF93
 1435 076b 06       		.byte	0x6
 1436 076c 4001     		.2byte	0x140
 1437 076e 12       		.byte	0x12
 1438 076f 97070000 		.4byte	0x797
 1439 0773 02       		.byte	0x2
 1440 0774 23       		.byte	0x23
 1441 0775 00       		.uleb128 0
 1442 0776 18       		.uleb128 0x18
 1443 0777 43030000 		.4byte	.LASF94
 1444 077b 06       		.byte	0x6
 1445 077c 4101     		.2byte	0x141
ARM GAS  C:\Users\skey\AppData\Local\Temp\ccx2DgoR.s 			page 30


 1446 077e 12       		.byte	0x12
 1447 077f 97070000 		.4byte	0x797
 1448 0783 02       		.byte	0x2
 1449 0784 23       		.byte	0x23
 1450 0785 06       		.uleb128 0x6
 1451 0786 18       		.uleb128 0x18
 1452 0787 B5050000 		.4byte	.LASF95
 1453 078b 06       		.byte	0x6
 1454 078c 4201     		.2byte	0x142
 1455 078e 12       		.byte	0x12
 1456 078f 5B000000 		.4byte	0x5b
 1457 0793 02       		.byte	0x2
 1458 0794 23       		.byte	0x23
 1459 0795 0C       		.uleb128 0xc
 1460 0796 00       		.byte	0
 1461 0797 0B       		.uleb128 0xb
 1462 0798 5B000000 		.4byte	0x5b
 1463 079c A7070000 		.4byte	0x7a7
 1464 07a0 0C       		.uleb128 0xc
 1465 07a1 25000000 		.4byte	0x25
 1466 07a5 02       		.byte	0x2
 1467 07a6 00       		.byte	0
 1468 07a7 1A       		.uleb128 0x1a
 1469 07a8 D0       		.byte	0xd0
 1470 07a9 06       		.byte	0x6
 1471 07aa 8002     		.2byte	0x280
 1472 07ac 07       		.byte	0x7
 1473 07ad EB080000 		.4byte	0x8eb
 1474 07b1 18       		.uleb128 0x18
 1475 07b2 05060000 		.4byte	.LASF96
 1476 07b6 06       		.byte	0x6
 1477 07b7 8202     		.2byte	0x282
 1478 07b9 18       		.byte	0x18
 1479 07ba 25000000 		.4byte	0x25
 1480 07be 02       		.byte	0x2
 1481 07bf 23       		.byte	0x23
 1482 07c0 00       		.uleb128 0
 1483 07c1 18       		.uleb128 0x18
 1484 07c2 8C050000 		.4byte	.LASF97
 1485 07c6 06       		.byte	0x6
 1486 07c7 8302     		.2byte	0x283
 1487 07c9 12       		.byte	0x12
 1488 07ca 34010000 		.4byte	0x134
 1489 07ce 02       		.byte	0x2
 1490 07cf 23       		.byte	0x23
 1491 07d0 04       		.uleb128 0x4
 1492 07d1 18       		.uleb128 0x18
 1493 07d2 03030000 		.4byte	.LASF98
 1494 07d6 06       		.byte	0x6
 1495 07d7 8402     		.2byte	0x284
 1496 07d9 10       		.byte	0x10
 1497 07da EB080000 		.4byte	0x8eb
 1498 07de 02       		.byte	0x2
 1499 07df 23       		.byte	0x23
 1500 07e0 08       		.uleb128 0x8
 1501 07e1 18       		.uleb128 0x18
 1502 07e2 6A060000 		.4byte	.LASF99
ARM GAS  C:\Users\skey\AppData\Local\Temp\ccx2DgoR.s 			page 31


 1503 07e6 06       		.byte	0x6
 1504 07e7 8502     		.2byte	0x285
 1505 07e9 17       		.byte	0x17
 1506 07ea CE010000 		.4byte	0x1ce
 1507 07ee 02       		.byte	0x2
 1508 07ef 23       		.byte	0x23
 1509 07f0 24       		.uleb128 0x24
 1510 07f1 18       		.uleb128 0x18
 1511 07f2 B5030000 		.4byte	.LASF100
 1512 07f6 06       		.byte	0x6
 1513 07f7 8602     		.2byte	0x286
 1514 07f9 0F       		.byte	0xf
 1515 07fa 2C000000 		.4byte	0x2c
 1516 07fe 02       		.byte	0x2
 1517 07ff 23       		.byte	0x23
 1518 0800 48       		.uleb128 0x48
 1519 0801 18       		.uleb128 0x18
 1520 0802 EC020000 		.4byte	.LASF101
 1521 0806 06       		.byte	0x6
 1522 0807 8702     		.2byte	0x287
 1523 0809 2C       		.byte	0x2c
 1524 080a 7C000000 		.4byte	0x7c
 1525 080e 02       		.byte	0x2
 1526 080f 23       		.byte	0x23
 1527 0810 50       		.uleb128 0x50
 1528 0811 18       		.uleb128 0x18
 1529 0812 82060000 		.4byte	.LASF102
 1530 0816 06       		.byte	0x6
 1531 0817 8802     		.2byte	0x288
 1532 0819 1A       		.byte	0x1a
 1533 081a 58070000 		.4byte	0x758
 1534 081e 02       		.byte	0x2
 1535 081f 23       		.byte	0x23
 1536 0820 58       		.uleb128 0x58
 1537 0821 18       		.uleb128 0x18
 1538 0822 72040000 		.4byte	.LASF103
 1539 0826 06       		.byte	0x6
 1540 0827 8902     		.2byte	0x289
 1541 0829 16       		.byte	0x16
 1542 082a 1A010000 		.4byte	0x11a
 1543 082e 02       		.byte	0x2
 1544 082f 23       		.byte	0x23
 1545 0830 68       		.uleb128 0x68
 1546 0831 18       		.uleb128 0x18
 1547 0832 92060000 		.4byte	.LASF104
 1548 0836 06       		.byte	0x6
 1549 0837 8A02     		.2byte	0x28a
 1550 0839 16       		.byte	0x16
 1551 083a 1A010000 		.4byte	0x11a
 1552 083e 02       		.byte	0x2
 1553 083f 23       		.byte	0x23
 1554 0840 70       		.uleb128 0x70
 1555 0841 18       		.uleb128 0x18
 1556 0842 FC030000 		.4byte	.LASF105
 1557 0846 06       		.byte	0x6
 1558 0847 8B02     		.2byte	0x28b
 1559 0849 16       		.byte	0x16
ARM GAS  C:\Users\skey\AppData\Local\Temp\ccx2DgoR.s 			page 32


 1560 084a 1A010000 		.4byte	0x11a
 1561 084e 02       		.byte	0x2
 1562 084f 23       		.byte	0x23
 1563 0850 78       		.uleb128 0x78
 1564 0851 18       		.uleb128 0x18
 1565 0852 36060000 		.4byte	.LASF106
 1566 0856 06       		.byte	0x6
 1567 0857 8C02     		.2byte	0x28c
 1568 0859 10       		.byte	0x10
 1569 085a FB080000 		.4byte	0x8fb
 1570 085e 03       		.byte	0x3
 1571 085f 23       		.byte	0x23
 1572 0860 8001     		.uleb128 0x80
 1573 0862 18       		.uleb128 0x18
 1574 0863 F7020000 		.4byte	.LASF107
 1575 0867 06       		.byte	0x6
 1576 0868 8D02     		.2byte	0x28d
 1577 086a 10       		.byte	0x10
 1578 086b 0B090000 		.4byte	0x90b
 1579 086f 03       		.byte	0x3
 1580 0870 23       		.byte	0x23
 1581 0871 8801     		.uleb128 0x88
 1582 0873 18       		.uleb128 0x18
 1583 0874 C2050000 		.4byte	.LASF108
 1584 0878 06       		.byte	0x6
 1585 0879 8E02     		.2byte	0x28e
 1586 087b 0F       		.byte	0xf
 1587 087c 2C000000 		.4byte	0x2c
 1588 0880 03       		.byte	0x3
 1589 0881 23       		.byte	0x23
 1590 0882 A001     		.uleb128 0xa0
 1591 0884 18       		.uleb128 0x18
 1592 0885 3F020000 		.4byte	.LASF109
 1593 0889 06       		.byte	0x6
 1594 088a 8F02     		.2byte	0x28f
 1595 088c 16       		.byte	0x16
 1596 088d 1A010000 		.4byte	0x11a
 1597 0891 03       		.byte	0x3
 1598 0892 23       		.byte	0x23
 1599 0893 A401     		.uleb128 0xa4
 1600 0895 18       		.uleb128 0x18
 1601 0896 CF050000 		.4byte	.LASF110
 1602 089a 06       		.byte	0x6
 1603 089b 9002     		.2byte	0x290
 1604 089d 16       		.byte	0x16
 1605 089e 1A010000 		.4byte	0x11a
 1606 08a2 03       		.byte	0x3
 1607 08a3 23       		.byte	0x23
 1608 08a4 AC01     		.uleb128 0xac
 1609 08a6 18       		.uleb128 0x18
 1610 08a7 2E020000 		.4byte	.LASF111
 1611 08ab 06       		.byte	0x6
 1612 08ac 9102     		.2byte	0x291
 1613 08ae 16       		.byte	0x16
 1614 08af 1A010000 		.4byte	0x11a
 1615 08b3 03       		.byte	0x3
 1616 08b4 23       		.byte	0x23
ARM GAS  C:\Users\skey\AppData\Local\Temp\ccx2DgoR.s 			page 33


 1617 08b5 B401     		.uleb128 0xb4
 1618 08b7 18       		.uleb128 0x18
 1619 08b8 EB000000 		.4byte	.LASF112
 1620 08bc 06       		.byte	0x6
 1621 08bd 9202     		.2byte	0x292
 1622 08bf 16       		.byte	0x16
 1623 08c0 1A010000 		.4byte	0x11a
 1624 08c4 03       		.byte	0x3
 1625 08c5 23       		.byte	0x23
 1626 08c6 BC01     		.uleb128 0xbc
 1627 08c8 18       		.uleb128 0x18
 1628 08c9 FA000000 		.4byte	.LASF113
 1629 08cd 06       		.byte	0x6
 1630 08ce 9302     		.2byte	0x293
 1631 08d0 16       		.byte	0x16
 1632 08d1 1A010000 		.4byte	0x11a
 1633 08d5 03       		.byte	0x3
 1634 08d6 23       		.byte	0x23
 1635 08d7 C401     		.uleb128 0xc4
 1636 08d9 18       		.uleb128 0x18
 1637 08da 1E040000 		.4byte	.LASF114
 1638 08de 06       		.byte	0x6
 1639 08df 9402     		.2byte	0x294
 1640 08e1 08       		.byte	0x8
 1641 08e2 2C000000 		.4byte	0x2c
 1642 08e6 03       		.byte	0x3
 1643 08e7 23       		.byte	0x23
 1644 08e8 CC01     		.uleb128 0xcc
 1645 08ea 00       		.byte	0
 1646 08eb 0B       		.uleb128 0xb
 1647 08ec 3A010000 		.4byte	0x13a
 1648 08f0 FB080000 		.4byte	0x8fb
 1649 08f4 0C       		.uleb128 0xc
 1650 08f5 25000000 		.4byte	0x25
 1651 08f9 19       		.byte	0x19
 1652 08fa 00       		.byte	0
 1653 08fb 0B       		.uleb128 0xb
 1654 08fc 3A010000 		.4byte	0x13a
 1655 0900 0B090000 		.4byte	0x90b
 1656 0904 0C       		.uleb128 0xc
 1657 0905 25000000 		.4byte	0x25
 1658 0909 07       		.byte	0x7
 1659 090a 00       		.byte	0
 1660 090b 0B       		.uleb128 0xb
 1661 090c 3A010000 		.4byte	0x13a
 1662 0910 1B090000 		.4byte	0x91b
 1663 0914 0C       		.uleb128 0xc
 1664 0915 25000000 		.4byte	0x25
 1665 0919 17       		.byte	0x17
 1666 091a 00       		.byte	0
 1667 091b 1A       		.uleb128 0x1a
 1668 091c F0       		.byte	0xf0
 1669 091d 06       		.byte	0x6
 1670 091e 9902     		.2byte	0x299
 1671 0920 07       		.byte	0x7
 1672 0921 46090000 		.4byte	0x946
 1673 0925 18       		.uleb128 0x18
ARM GAS  C:\Users\skey\AppData\Local\Temp\ccx2DgoR.s 			page 34


 1674 0926 88030000 		.4byte	.LASF115
 1675 092a 06       		.byte	0x6
 1676 092b 9C02     		.2byte	0x29c
 1677 092d 1B       		.byte	0x1b
 1678 092e 46090000 		.4byte	0x946
 1679 0932 02       		.byte	0x2
 1680 0933 23       		.byte	0x23
 1681 0934 00       		.uleb128 0
 1682 0935 18       		.uleb128 0x18
 1683 0936 2D060000 		.4byte	.LASF116
 1684 093a 06       		.byte	0x6
 1685 093b 9D02     		.2byte	0x29d
 1686 093d 18       		.byte	0x18
 1687 093e 56090000 		.4byte	0x956
 1688 0942 02       		.byte	0x2
 1689 0943 23       		.byte	0x23
 1690 0944 78       		.uleb128 0x78
 1691 0945 00       		.byte	0
 1692 0946 0B       		.uleb128 0xb
 1693 0947 57030000 		.4byte	0x357
 1694 094b 56090000 		.4byte	0x956
 1695 094f 0C       		.uleb128 0xc
 1696 0950 25000000 		.4byte	0x25
 1697 0954 1D       		.byte	0x1d
 1698 0955 00       		.byte	0
 1699 0956 0B       		.uleb128 0xb
 1700 0957 25000000 		.4byte	0x25
 1701 095b 66090000 		.4byte	0x966
 1702 095f 0C       		.uleb128 0xc
 1703 0960 25000000 		.4byte	0x25
 1704 0964 1D       		.byte	0x1d
 1705 0965 00       		.byte	0
 1706 0966 1B       		.uleb128 0x1b
 1707 0967 F0       		.byte	0xf0
 1708 0968 06       		.byte	0x6
 1709 0969 7E02     		.2byte	0x27e
 1710 096b 03       		.byte	0x3
 1711 096c 8B090000 		.4byte	0x98b
 1712 0970 1C       		.uleb128 0x1c
 1713 0971 C3040000 		.4byte	.LASF66
 1714 0975 06       		.byte	0x6
 1715 0976 9502     		.2byte	0x295
 1716 0978 0B       		.byte	0xb
 1717 0979 A7070000 		.4byte	0x7a7
 1718 097d 1C       		.uleb128 0x1c
 1719 097e 57060000 		.4byte	.LASF117
 1720 0982 06       		.byte	0x6
 1721 0983 9E02     		.2byte	0x29e
 1722 0985 0B       		.byte	0xb
 1723 0986 1B090000 		.4byte	0x91b
 1724 098a 00       		.byte	0
 1725 098b 0B       		.uleb128 0xb
 1726 098c 3A010000 		.4byte	0x13a
 1727 0990 9B090000 		.4byte	0x99b
 1728 0994 0C       		.uleb128 0xc
 1729 0995 25000000 		.4byte	0x25
 1730 0999 18       		.byte	0x18
ARM GAS  C:\Users\skey\AppData\Local\Temp\ccx2DgoR.s 			page 35


 1731 099a 00       		.byte	0
 1732 099b 07       		.uleb128 0x7
 1733 099c 36010000 		.4byte	.LASF119
 1734 09a0 01       		.byte	0x1
 1735 09a1 06       		.uleb128 0x6
 1736 09a2 04       		.byte	0x4
 1737 09a3 9B090000 		.4byte	0x99b
 1738 09a7 1D       		.uleb128 0x1d
 1739 09a8 01       		.byte	0x1
 1740 09a9 B3090000 		.4byte	0x9b3
 1741 09ad 16       		.uleb128 0x16
 1742 09ae EF040000 		.4byte	0x4ef
 1743 09b2 00       		.byte	0
 1744 09b3 06       		.uleb128 0x6
 1745 09b4 04       		.byte	0x4
 1746 09b5 A7090000 		.4byte	0x9a7
 1747 09b9 06       		.uleb128 0x6
 1748 09ba 04       		.byte	0x4
 1749 09bb B8010000 		.4byte	0x1b8
 1750 09bf 1D       		.uleb128 0x1d
 1751 09c0 01       		.byte	0x1
 1752 09c1 CB090000 		.4byte	0x9cb
 1753 09c5 16       		.uleb128 0x16
 1754 09c6 2C000000 		.4byte	0x2c
 1755 09ca 00       		.byte	0
 1756 09cb 06       		.uleb128 0x6
 1757 09cc 04       		.byte	0x4
 1758 09cd D1090000 		.4byte	0x9d1
 1759 09d1 06       		.uleb128 0x6
 1760 09d2 04       		.byte	0x4
 1761 09d3 BF090000 		.4byte	0x9bf
 1762 09d7 0B       		.uleb128 0xb
 1763 09d8 00070000 		.4byte	0x700
 1764 09dc E7090000 		.4byte	0x9e7
 1765 09e0 0C       		.uleb128 0xc
 1766 09e1 25000000 		.4byte	0x25
 1767 09e5 02       		.byte	0x2
 1768 09e6 00       		.byte	0
 1769 09e7 1E       		.uleb128 0x1e
 1770 09e8 63020000 		.4byte	.LASF120
 1771 09ec 06       		.byte	0x6
 1772 09ed 2E03     		.2byte	0x32e
 1773 09ef 17       		.byte	0x17
 1774 09f0 EF040000 		.4byte	0x4ef
 1775 09f4 01       		.byte	0x1
 1776 09f5 01       		.byte	0x1
 1777 09f6 1E       		.uleb128 0x1e
 1778 09f7 DE050000 		.4byte	.LASF121
 1779 09fb 06       		.byte	0x6
 1780 09fc 2F03     		.2byte	0x32f
 1781 09fe 1D       		.byte	0x1d
 1782 09ff F5040000 		.4byte	0x4f5
 1783 0a03 01       		.byte	0x1
 1784 0a04 01       		.byte	0x1
 1785 0a05 1F       		.uleb128 0x1f
 1786 0a06 A0030000 		.4byte	.LASF122
 1787 0a0a 07       		.byte	0x7
ARM GAS  C:\Users\skey\AppData\Local\Temp\ccx2DgoR.s 			page 36


 1788 0a0b 64       		.byte	0x64
 1789 0a0c 0E       		.byte	0xe
 1790 0a0d 34010000 		.4byte	0x134
 1791 0a11 01       		.byte	0x1
 1792 0a12 01       		.byte	0x1
 1793 0a13 05       		.uleb128 0x5
 1794 0a14 F1050000 		.4byte	.LASF123
 1795 0a18 08       		.byte	0x8
 1796 0a19 30       		.byte	0x30
 1797 0a1a 14       		.byte	0x14
 1798 0a1b 69000000 		.4byte	0x69
 1799 0a1f 1E       		.uleb128 0x1e
 1800 0a20 4A010000 		.4byte	.LASF124
 1801 0a24 09       		.byte	0x9
 1802 0a25 CE06     		.2byte	0x6ce
 1803 0a27 15       		.byte	0x15
 1804 0a28 33000000 		.4byte	0x33
 1805 0a2c 01       		.byte	0x1
 1806 0a2d 01       		.byte	0x1
 1807 0a2e 1F       		.uleb128 0x1f
 1808 0a2f 97020000 		.4byte	.LASF125
 1809 0a33 0A       		.byte	0xa
 1810 0a34 35       		.byte	0x35
 1811 0a35 11       		.byte	0x11
 1812 0a36 130A0000 		.4byte	0xa13
 1813 0a3a 01       		.byte	0x1
 1814 0a3b 01       		.byte	0x1
 1815 0a3c 05       		.uleb128 0x5
 1816 0a3d A5060000 		.4byte	.LASF126
 1817 0a41 0B       		.byte	0xb
 1818 0a42 39       		.byte	0x39
 1819 0a43 17       		.byte	0x17
 1820 0a44 75000000 		.4byte	0x75
 1821 0a48 04       		.uleb128 0x4
 1822 0a49 3C0A0000 		.4byte	0xa3c
 1823 0a4d 05       		.uleb128 0x5
 1824 0a4e 7D030000 		.4byte	.LASF127
 1825 0a52 0B       		.byte	0xb
 1826 0a53 3F       		.byte	0x3f
 1827 0a54 13       		.byte	0x13
 1828 0a55 130A0000 		.4byte	0xa13
 1829 0a59 10       		.uleb128 0x10
 1830 0a5a 4D0A0000 		.4byte	0xa4d
 1831 0a5e 11       		.uleb128 0x11
 1832 0a5f 87060000 		.4byte	.LASF128
 1833 0a63 14       		.byte	0x14
 1834 0a64 0C       		.byte	0xc
 1835 0a65 8C       		.byte	0x8c
 1836 0a66 08       		.byte	0x8
 1837 0a67 B70A0000 		.4byte	0xab7
 1838 0a6b 0E       		.uleb128 0xe
 1839 0a6c FA050000 		.4byte	.LASF129
 1840 0a70 0C       		.byte	0xc
 1841 0a71 8F       		.byte	0x8f
 1842 0a72 21       		.byte	0x21
 1843 0a73 4D0A0000 		.4byte	0xa4d
 1844 0a77 02       		.byte	0x2
ARM GAS  C:\Users\skey\AppData\Local\Temp\ccx2DgoR.s 			page 37


 1845 0a78 23       		.byte	0x23
 1846 0a79 00       		.uleb128 0
 1847 0a7a 0E       		.uleb128 0xe
 1848 0a7b 4A060000 		.4byte	.LASF130
 1849 0a7f 0C       		.byte	0xc
 1850 0a80 90       		.byte	0x90
 1851 0a81 2A       		.byte	0x2a
 1852 0a82 B70A0000 		.4byte	0xab7
 1853 0a86 02       		.byte	0x2
 1854 0a87 23       		.byte	0x23
 1855 0a88 04       		.uleb128 0x4
 1856 0a89 0E       		.uleb128 0xe
 1857 0a8a C4030000 		.4byte	.LASF131
 1858 0a8e 0C       		.byte	0xc
 1859 0a8f 91       		.byte	0x91
 1860 0a90 2A       		.byte	0x2a
 1861 0a91 B70A0000 		.4byte	0xab7
 1862 0a95 02       		.byte	0x2
 1863 0a96 23       		.byte	0x23
 1864 0a97 08       		.uleb128 0x8
 1865 0a98 0E       		.uleb128 0xe
 1866 0a99 D6030000 		.4byte	.LASF132
 1867 0a9d 0C       		.byte	0xc
 1868 0a9e 92       		.byte	0x92
 1869 0a9f 09       		.byte	0x9
 1870 0aa0 32010000 		.4byte	0x132
 1871 0aa4 02       		.byte	0x2
 1872 0aa5 23       		.byte	0x23
 1873 0aa6 0C       		.uleb128 0xc
 1874 0aa7 0E       		.uleb128 0xe
 1875 0aa8 F0030000 		.4byte	.LASF133
 1876 0aac 0C       		.byte	0xc
 1877 0aad 93       		.byte	0x93
 1878 0aae 25       		.byte	0x25
 1879 0aaf F80A0000 		.4byte	0xaf8
 1880 0ab3 02       		.byte	0x2
 1881 0ab4 23       		.byte	0x23
 1882 0ab5 10       		.uleb128 0x10
 1883 0ab6 00       		.byte	0
 1884 0ab7 06       		.uleb128 0x6
 1885 0ab8 04       		.byte	0x4
 1886 0ab9 5E0A0000 		.4byte	0xa5e
 1887 0abd 11       		.uleb128 0x11
 1888 0abe 6C040000 		.4byte	.LASF134
 1889 0ac2 14       		.byte	0x14
 1890 0ac3 0C       		.byte	0xc
 1891 0ac4 A4       		.byte	0xa4
 1892 0ac5 10       		.byte	0x10
 1893 0ac6 F80A0000 		.4byte	0xaf8
 1894 0aca 0E       		.uleb128 0xe
 1895 0acb B7020000 		.4byte	.LASF135
 1896 0acf 0C       		.byte	0xc
 1897 0ad0 A7       		.byte	0xa7
 1898 0ad1 17       		.byte	0x17
 1899 0ad2 480A0000 		.4byte	0xa48
 1900 0ad6 02       		.byte	0x2
 1901 0ad7 23       		.byte	0x23
ARM GAS  C:\Users\skey\AppData\Local\Temp\ccx2DgoR.s 			page 38


 1902 0ad8 00       		.uleb128 0
 1903 0ad9 0E       		.uleb128 0xe
 1904 0ada E8030000 		.4byte	.LASF136
 1905 0ade 0C       		.byte	0xc
 1906 0adf A8       		.byte	0xa8
 1907 0ae0 23       		.byte	0x23
 1908 0ae1 510B0000 		.4byte	0xb51
 1909 0ae5 02       		.byte	0x2
 1910 0ae6 23       		.byte	0x23
 1911 0ae7 04       		.uleb128 0x4
 1912 0ae8 0E       		.uleb128 0xe
 1913 0ae9 41010000 		.4byte	.LASF137
 1914 0aed 0C       		.byte	0xc
 1915 0aee A9       		.byte	0xa9
 1916 0aef 11       		.byte	0x11
 1917 0af0 450B0000 		.4byte	0xb45
 1918 0af4 02       		.byte	0x2
 1919 0af5 23       		.byte	0x23
 1920 0af6 08       		.uleb128 0x8
 1921 0af7 00       		.byte	0
 1922 0af8 06       		.uleb128 0x6
 1923 0af9 04       		.byte	0x4
 1924 0afa BD0A0000 		.4byte	0xabd
 1925 0afe 05       		.uleb128 0x5
 1926 0aff 62050000 		.4byte	.LASF138
 1927 0b03 0C       		.byte	0xc
 1928 0b04 96       		.byte	0x96
 1929 0b05 1B       		.byte	0x1b
 1930 0b06 5E0A0000 		.4byte	0xa5e
 1931 0b0a 11       		.uleb128 0x11
 1932 0b0b 65010000 		.4byte	.LASF139
 1933 0b0f 0C       		.byte	0xc
 1934 0b10 0C       		.byte	0xc
 1935 0b11 98       		.byte	0x98
 1936 0b12 08       		.byte	0x8
 1937 0b13 450B0000 		.4byte	0xb45
 1938 0b17 0E       		.uleb128 0xe
 1939 0b18 FA050000 		.4byte	.LASF129
 1940 0b1c 0C       		.byte	0xc
 1941 0b1d 9B       		.byte	0x9b
 1942 0b1e 21       		.byte	0x21
 1943 0b1f 4D0A0000 		.4byte	0xa4d
 1944 0b23 02       		.byte	0x2
 1945 0b24 23       		.byte	0x23
 1946 0b25 00       		.uleb128 0
 1947 0b26 0E       		.uleb128 0xe
 1948 0b27 4A060000 		.4byte	.LASF130
 1949 0b2b 0C       		.byte	0xc
 1950 0b2c 9C       		.byte	0x9c
 1951 0b2d 2A       		.byte	0x2a
 1952 0b2e B70A0000 		.4byte	0xab7
 1953 0b32 02       		.byte	0x2
 1954 0b33 23       		.byte	0x23
 1955 0b34 04       		.uleb128 0x4
 1956 0b35 0E       		.uleb128 0xe
 1957 0b36 C4030000 		.4byte	.LASF131
 1958 0b3a 0C       		.byte	0xc
ARM GAS  C:\Users\skey\AppData\Local\Temp\ccx2DgoR.s 			page 39


 1959 0b3b 9D       		.byte	0x9d
 1960 0b3c 2A       		.byte	0x2a
 1961 0b3d B70A0000 		.4byte	0xab7
 1962 0b41 02       		.byte	0x2
 1963 0b42 23       		.byte	0x23
 1964 0b43 08       		.uleb128 0x8
 1965 0b44 00       		.byte	0
 1966 0b45 05       		.uleb128 0x5
 1967 0b46 1E000000 		.4byte	.LASF140
 1968 0b4a 0C       		.byte	0xc
 1969 0b4b 9F       		.byte	0x9f
 1970 0b4c 20       		.byte	0x20
 1971 0b4d 0A0B0000 		.4byte	0xb0a
 1972 0b51 06       		.uleb128 0x6
 1973 0b52 04       		.byte	0x4
 1974 0b53 FE0A0000 		.4byte	0xafe
 1975 0b57 10       		.uleb128 0x10
 1976 0b58 510B0000 		.4byte	0xb51
 1977 0b5c 05       		.uleb128 0x5
 1978 0b5d 89040000 		.4byte	.LASF141
 1979 0b61 0C       		.byte	0xc
 1980 0b62 AB       		.byte	0xab
 1981 0b63 03       		.byte	0x3
 1982 0b64 BD0A0000 		.4byte	0xabd
 1983 0b68 20       		.uleb128 0x20
 1984 0b69 01       		.byte	0x1
 1985 0b6a 6D050000 		.4byte	.LASF153
 1986 0b6e 01       		.byte	0x1
 1987 0b6f AA       		.byte	0xaa
 1988 0b70 0D       		.byte	0xd
 1989 0b71 01       		.byte	0x1
 1990 0b72 3C0A0000 		.4byte	0xa3c
 1991 0b76 62000000 		.4byte	.LFB38
 1992 0b7a 82000000 		.4byte	.LFE38
 1993 0b7e 02       		.byte	0x2
 1994 0b7f 7D       		.byte	0x7d
 1995 0b80 00       		.sleb128 0
 1996 0b81 01       		.byte	0x1
 1997 0b82 AF0B0000 		.4byte	0xbaf
 1998 0b86 21       		.uleb128 0x21
 1999 0b87 6E030000 		.4byte	.LASF154
 2000 0b8b 01       		.byte	0x1
 2001 0b8c AA       		.byte	0xaa
 2002 0b8d 2E       		.byte	0x2e
 2003 0b8e 570B0000 		.4byte	0xb57
 2004 0b92 04000000 		.4byte	.LLST4
 2005 0b96 00000000 		.4byte	.LVUS4
 2006 0b9a 22       		.uleb128 0x22
 2007 0b9b B1060000 		.4byte	.LASF142
 2008 0b9f 01       		.byte	0x1
 2009 0ba0 AE       		.byte	0xae
 2010 0ba1 10       		.byte	0x10
 2011 0ba2 B50B0000 		.4byte	0xbb5
 2012 0ba6 27000000 		.4byte	.LLST5
 2013 0baa 25000000 		.4byte	.LVUS5
 2014 0bae 00       		.byte	0
 2015 0baf 06       		.uleb128 0x6
ARM GAS  C:\Users\skey\AppData\Local\Temp\ccx2DgoR.s 			page 40


 2016 0bb0 04       		.byte	0x4
 2017 0bb1 5C0B0000 		.4byte	0xb5c
 2018 0bb5 10       		.uleb128 0x10
 2019 0bb6 AF0B0000 		.4byte	0xbaf
 2020 0bba 23       		.uleb128 0x23
 2021 0bbb 01       		.byte	0x1
 2022 0bbc 1A050000 		.4byte	.LASF146
 2023 0bc0 01       		.byte	0x1
 2024 0bc1 67       		.byte	0x67
 2025 0bc2 06       		.byte	0x6
 2026 0bc3 01       		.byte	0x1
 2027 0bc4 34000000 		.4byte	.LFB37
 2028 0bc8 62000000 		.4byte	.LFE37
 2029 0bcc 3A000000 		.4byte	.LLST1
 2030 0bd0 01       		.byte	0x1
 2031 0bd1 1A0C0000 		.4byte	0xc1a
 2032 0bd5 24       		.uleb128 0x24
 2033 0bd6 B1060000 		.4byte	.LASF142
 2034 0bda 01       		.byte	0x1
 2035 0bdb 67       		.byte	0x67
 2036 0bdc 22       		.byte	0x22
 2037 0bdd B50B0000 		.4byte	0xbb5
 2038 0be1 01       		.byte	0x1
 2039 0be2 50       		.byte	0x50
 2040 0be3 24       		.uleb128 0x24
 2041 0be4 57010000 		.4byte	.LASF143
 2042 0be8 01       		.byte	0x1
 2043 0be9 67       		.byte	0x67
 2044 0bea 3D       		.byte	0x3d
 2045 0beb 570B0000 		.4byte	0xb57
 2046 0bef 01       		.byte	0x1
 2047 0bf0 51       		.byte	0x51
 2048 0bf1 22       		.uleb128 0x22
 2049 0bf2 0B010000 		.4byte	.LASF144
 2050 0bf6 01       		.byte	0x1
 2051 0bf7 69       		.byte	0x69
 2052 0bf8 0D       		.byte	0xd
 2053 0bf9 510B0000 		.4byte	0xb51
 2054 0bfd 62000000 		.4byte	.LLST2
 2055 0c01 5A000000 		.4byte	.LVUS2
 2056 0c05 22       		.uleb128 0x22
 2057 0c06 7A050000 		.4byte	.LASF145
 2058 0c0a 01       		.byte	0x1
 2059 0c0b 6A       		.byte	0x6a
 2060 0c0c 12       		.byte	0x12
 2061 0c0d 590A0000 		.4byte	0xa59
 2062 0c11 99000000 		.4byte	.LLST3
 2063 0c15 97000000 		.4byte	.LVUS3
 2064 0c19 00       		.byte	0
 2065 0c1a 25       		.uleb128 0x25
 2066 0c1b 01       		.byte	0x1
 2067 0c1c 1F020000 		.4byte	.LASF147
 2068 0c20 01       		.byte	0x1
 2069 0c21 4A       		.byte	0x4a
 2070 0c22 06       		.byte	0x6
 2071 0c23 01       		.byte	0x1
 2072 0c24 1C000000 		.4byte	.LFB36
ARM GAS  C:\Users\skey\AppData\Local\Temp\ccx2DgoR.s 			page 41


 2073 0c28 34000000 		.4byte	.LFE36
 2074 0c2c 02       		.byte	0x2
 2075 0c2d 7D       		.byte	0x7d
 2076 0c2e 00       		.sleb128 0
 2077 0c2f 01       		.byte	0x1
 2078 0c30 650C0000 		.4byte	0xc65
 2079 0c34 24       		.uleb128 0x24
 2080 0c35 B1060000 		.4byte	.LASF142
 2081 0c39 01       		.byte	0x1
 2082 0c3a 4A       		.byte	0x4a
 2083 0c3b 25       		.byte	0x25
 2084 0c3c B50B0000 		.4byte	0xbb5
 2085 0c40 01       		.byte	0x1
 2086 0c41 50       		.byte	0x50
 2087 0c42 24       		.uleb128 0x24
 2088 0c43 57010000 		.4byte	.LASF143
 2089 0c47 01       		.byte	0x1
 2090 0c48 4A       		.byte	0x4a
 2091 0c49 40       		.byte	0x40
 2092 0c4a 570B0000 		.4byte	0xb57
 2093 0c4e 01       		.byte	0x1
 2094 0c4f 51       		.byte	0x51
 2095 0c50 22       		.uleb128 0x22
 2096 0c51 E8030000 		.4byte	.LASF136
 2097 0c55 01       		.byte	0x1
 2098 0c56 4C       		.byte	0x4c
 2099 0c57 14       		.byte	0x14
 2100 0c58 570B0000 		.4byte	0xb57
 2101 0c5c B0000000 		.4byte	.LLST0
 2102 0c60 AC000000 		.4byte	.LVUS0
 2103 0c64 00       		.byte	0
 2104 0c65 25       		.uleb128 0x25
 2105 0c66 01       		.byte	0x1
 2106 0c67 5A030000 		.4byte	.LASF148
 2107 0c6b 01       		.byte	0x1
 2108 0c6c 3E       		.byte	0x3e
 2109 0c6d 06       		.byte	0x6
 2110 0c6e 01       		.byte	0x1
 2111 0c6f 16000000 		.4byte	.LFB35
 2112 0c73 1C000000 		.4byte	.LFE35
 2113 0c77 02       		.byte	0x2
 2114 0c78 7D       		.byte	0x7d
 2115 0c79 00       		.sleb128 0
 2116 0c7a 01       		.byte	0x1
 2117 0c7b 8E0C0000 		.4byte	0xc8e
 2118 0c7f 24       		.uleb128 0x24
 2119 0c80 18020000 		.4byte	.LASF149
 2120 0c84 01       		.byte	0x1
 2121 0c85 3E       		.byte	0x3e
 2122 0c86 2E       		.byte	0x2e
 2123 0c87 570B0000 		.4byte	0xb57
 2124 0c8b 01       		.byte	0x1
 2125 0c8c 50       		.byte	0x50
 2126 0c8d 00       		.byte	0
 2127 0c8e 26       		.uleb128 0x26
 2128 0c8f 01       		.byte	0x1
 2129 0c90 12060000 		.4byte	.LASF155
ARM GAS  C:\Users\skey\AppData\Local\Temp\ccx2DgoR.s 			page 42


 2130 0c94 01       		.byte	0x1
 2131 0c95 25       		.byte	0x25
 2132 0c96 06       		.byte	0x6
 2133 0c97 01       		.byte	0x1
 2134 0c98 00000000 		.4byte	.LFB34
 2135 0c9c 16000000 		.4byte	.LFE34
 2136 0ca0 02       		.byte	0x2
 2137 0ca1 7D       		.byte	0x7d
 2138 0ca2 00       		.sleb128 0
 2139 0ca3 01       		.byte	0x1
 2140 0ca4 24       		.uleb128 0x24
 2141 0ca5 B1060000 		.4byte	.LASF142
 2142 0ca9 01       		.byte	0x1
 2143 0caa 25       		.byte	0x25
 2144 0cab 26       		.byte	0x26
 2145 0cac B50B0000 		.4byte	0xbb5
 2146 0cb0 01       		.byte	0x1
 2147 0cb1 50       		.byte	0x50
 2148 0cb2 00       		.byte	0
 2149 0cb3 00       		.byte	0
 2150              		.section	.debug_abbrev,"",%progbits
 2151              	.Ldebug_abbrev0:
 2152 0000 01       		.uleb128 0x1
 2153 0001 11       		.uleb128 0x11
 2154 0002 01       		.byte	0x1
 2155 0003 25       		.uleb128 0x25
 2156 0004 0E       		.uleb128 0xe
 2157 0005 13       		.uleb128 0x13
 2158 0006 0B       		.uleb128 0xb
 2159 0007 03       		.uleb128 0x3
 2160 0008 0E       		.uleb128 0xe
 2161 0009 1B       		.uleb128 0x1b
 2162 000a 0E       		.uleb128 0xe
 2163 000b 11       		.uleb128 0x11
 2164 000c 01       		.uleb128 0x1
 2165 000d 12       		.uleb128 0x12
 2166 000e 01       		.uleb128 0x1
 2167 000f 10       		.uleb128 0x10
 2168 0010 06       		.uleb128 0x6
 2169 0011 00       		.byte	0
 2170 0012 00       		.byte	0
 2171 0013 02       		.uleb128 0x2
 2172 0014 24       		.uleb128 0x24
 2173 0015 00       		.byte	0
 2174 0016 0B       		.uleb128 0xb
 2175 0017 0B       		.uleb128 0xb
 2176 0018 3E       		.uleb128 0x3e
 2177 0019 0B       		.uleb128 0xb
 2178 001a 03       		.uleb128 0x3
 2179 001b 0E       		.uleb128 0xe
 2180 001c 00       		.byte	0
 2181 001d 00       		.byte	0
 2182 001e 03       		.uleb128 0x3
 2183 001f 24       		.uleb128 0x24
 2184 0020 00       		.byte	0
 2185 0021 0B       		.uleb128 0xb
 2186 0022 0B       		.uleb128 0xb
ARM GAS  C:\Users\skey\AppData\Local\Temp\ccx2DgoR.s 			page 43


 2187 0023 3E       		.uleb128 0x3e
 2188 0024 0B       		.uleb128 0xb
 2189 0025 03       		.uleb128 0x3
 2190 0026 08       		.uleb128 0x8
 2191 0027 00       		.byte	0
 2192 0028 00       		.byte	0
 2193 0029 04       		.uleb128 0x4
 2194 002a 35       		.uleb128 0x35
 2195 002b 00       		.byte	0
 2196 002c 49       		.uleb128 0x49
 2197 002d 13       		.uleb128 0x13
 2198 002e 00       		.byte	0
 2199 002f 00       		.byte	0
 2200 0030 05       		.uleb128 0x5
 2201 0031 16       		.uleb128 0x16
 2202 0032 00       		.byte	0
 2203 0033 03       		.uleb128 0x3
 2204 0034 0E       		.uleb128 0xe
 2205 0035 3A       		.uleb128 0x3a
 2206 0036 0B       		.uleb128 0xb
 2207 0037 3B       		.uleb128 0x3b
 2208 0038 0B       		.uleb128 0xb
 2209 0039 39       		.uleb128 0x39
 2210 003a 0B       		.uleb128 0xb
 2211 003b 49       		.uleb128 0x49
 2212 003c 13       		.uleb128 0x13
 2213 003d 00       		.byte	0
 2214 003e 00       		.byte	0
 2215 003f 06       		.uleb128 0x6
 2216 0040 0F       		.uleb128 0xf
 2217 0041 00       		.byte	0
 2218 0042 0B       		.uleb128 0xb
 2219 0043 0B       		.uleb128 0xb
 2220 0044 49       		.uleb128 0x49
 2221 0045 13       		.uleb128 0x13
 2222 0046 00       		.byte	0
 2223 0047 00       		.byte	0
 2224 0048 07       		.uleb128 0x7
 2225 0049 13       		.uleb128 0x13
 2226 004a 00       		.byte	0
 2227 004b 03       		.uleb128 0x3
 2228 004c 0E       		.uleb128 0xe
 2229 004d 3C       		.uleb128 0x3c
 2230 004e 0C       		.uleb128 0xc
 2231 004f 00       		.byte	0
 2232 0050 00       		.byte	0
 2233 0051 08       		.uleb128 0x8
 2234 0052 16       		.uleb128 0x16
 2235 0053 00       		.byte	0
 2236 0054 03       		.uleb128 0x3
 2237 0055 0E       		.uleb128 0xe
 2238 0056 3A       		.uleb128 0x3a
 2239 0057 0B       		.uleb128 0xb
 2240 0058 3B       		.uleb128 0x3b
 2241 0059 05       		.uleb128 0x5
 2242 005a 39       		.uleb128 0x39
 2243 005b 0B       		.uleb128 0xb
ARM GAS  C:\Users\skey\AppData\Local\Temp\ccx2DgoR.s 			page 44


 2244 005c 49       		.uleb128 0x49
 2245 005d 13       		.uleb128 0x13
 2246 005e 00       		.byte	0
 2247 005f 00       		.byte	0
 2248 0060 09       		.uleb128 0x9
 2249 0061 17       		.uleb128 0x17
 2250 0062 01       		.byte	0x1
 2251 0063 0B       		.uleb128 0xb
 2252 0064 0B       		.uleb128 0xb
 2253 0065 3A       		.uleb128 0x3a
 2254 0066 0B       		.uleb128 0xb
 2255 0067 3B       		.uleb128 0x3b
 2256 0068 0B       		.uleb128 0xb
 2257 0069 39       		.uleb128 0x39
 2258 006a 0B       		.uleb128 0xb
 2259 006b 01       		.uleb128 0x1
 2260 006c 13       		.uleb128 0x13
 2261 006d 00       		.byte	0
 2262 006e 00       		.byte	0
 2263 006f 0A       		.uleb128 0xa
 2264 0070 0D       		.uleb128 0xd
 2265 0071 00       		.byte	0
 2266 0072 03       		.uleb128 0x3
 2267 0073 0E       		.uleb128 0xe
 2268 0074 3A       		.uleb128 0x3a
 2269 0075 0B       		.uleb128 0xb
 2270 0076 3B       		.uleb128 0x3b
 2271 0077 0B       		.uleb128 0xb
 2272 0078 39       		.uleb128 0x39
 2273 0079 0B       		.uleb128 0xb
 2274 007a 49       		.uleb128 0x49
 2275 007b 13       		.uleb128 0x13
 2276 007c 00       		.byte	0
 2277 007d 00       		.byte	0
 2278 007e 0B       		.uleb128 0xb
 2279 007f 01       		.uleb128 0x1
 2280 0080 01       		.byte	0x1
 2281 0081 49       		.uleb128 0x49
 2282 0082 13       		.uleb128 0x13
 2283 0083 01       		.uleb128 0x1
 2284 0084 13       		.uleb128 0x13
 2285 0085 00       		.byte	0
 2286 0086 00       		.byte	0
 2287 0087 0C       		.uleb128 0xc
 2288 0088 21       		.uleb128 0x21
 2289 0089 00       		.byte	0
 2290 008a 49       		.uleb128 0x49
 2291 008b 13       		.uleb128 0x13
 2292 008c 2F       		.uleb128 0x2f
 2293 008d 0B       		.uleb128 0xb
 2294 008e 00       		.byte	0
 2295 008f 00       		.byte	0
 2296 0090 0D       		.uleb128 0xd
 2297 0091 13       		.uleb128 0x13
 2298 0092 01       		.byte	0x1
 2299 0093 0B       		.uleb128 0xb
 2300 0094 0B       		.uleb128 0xb
ARM GAS  C:\Users\skey\AppData\Local\Temp\ccx2DgoR.s 			page 45


 2301 0095 3A       		.uleb128 0x3a
 2302 0096 0B       		.uleb128 0xb
 2303 0097 3B       		.uleb128 0x3b
 2304 0098 0B       		.uleb128 0xb
 2305 0099 39       		.uleb128 0x39
 2306 009a 0B       		.uleb128 0xb
 2307 009b 01       		.uleb128 0x1
 2308 009c 13       		.uleb128 0x13
 2309 009d 00       		.byte	0
 2310 009e 00       		.byte	0
 2311 009f 0E       		.uleb128 0xe
 2312 00a0 0D       		.uleb128 0xd
 2313 00a1 00       		.byte	0
 2314 00a2 03       		.uleb128 0x3
 2315 00a3 0E       		.uleb128 0xe
 2316 00a4 3A       		.uleb128 0x3a
 2317 00a5 0B       		.uleb128 0xb
 2318 00a6 3B       		.uleb128 0x3b
 2319 00a7 0B       		.uleb128 0xb
 2320 00a8 39       		.uleb128 0x39
 2321 00a9 0B       		.uleb128 0xb
 2322 00aa 49       		.uleb128 0x49
 2323 00ab 13       		.uleb128 0x13
 2324 00ac 38       		.uleb128 0x38
 2325 00ad 0A       		.uleb128 0xa
 2326 00ae 00       		.byte	0
 2327 00af 00       		.byte	0
 2328 00b0 0F       		.uleb128 0xf
 2329 00b1 0F       		.uleb128 0xf
 2330 00b2 00       		.byte	0
 2331 00b3 0B       		.uleb128 0xb
 2332 00b4 0B       		.uleb128 0xb
 2333 00b5 00       		.byte	0
 2334 00b6 00       		.byte	0
 2335 00b7 10       		.uleb128 0x10
 2336 00b8 26       		.uleb128 0x26
 2337 00b9 00       		.byte	0
 2338 00ba 49       		.uleb128 0x49
 2339 00bb 13       		.uleb128 0x13
 2340 00bc 00       		.byte	0
 2341 00bd 00       		.byte	0
 2342 00be 11       		.uleb128 0x11
 2343 00bf 13       		.uleb128 0x13
 2344 00c0 01       		.byte	0x1
 2345 00c1 03       		.uleb128 0x3
 2346 00c2 0E       		.uleb128 0xe
 2347 00c3 0B       		.uleb128 0xb
 2348 00c4 0B       		.uleb128 0xb
 2349 00c5 3A       		.uleb128 0x3a
 2350 00c6 0B       		.uleb128 0xb
 2351 00c7 3B       		.uleb128 0x3b
 2352 00c8 0B       		.uleb128 0xb
 2353 00c9 39       		.uleb128 0x39
 2354 00ca 0B       		.uleb128 0xb
 2355 00cb 01       		.uleb128 0x1
 2356 00cc 13       		.uleb128 0x13
 2357 00cd 00       		.byte	0
ARM GAS  C:\Users\skey\AppData\Local\Temp\ccx2DgoR.s 			page 46


 2358 00ce 00       		.byte	0
 2359 00cf 12       		.uleb128 0x12
 2360 00d0 0D       		.uleb128 0xd
 2361 00d1 00       		.byte	0
 2362 00d2 03       		.uleb128 0x3
 2363 00d3 08       		.uleb128 0x8
 2364 00d4 3A       		.uleb128 0x3a
 2365 00d5 0B       		.uleb128 0xb
 2366 00d6 3B       		.uleb128 0x3b
 2367 00d7 0B       		.uleb128 0xb
 2368 00d8 39       		.uleb128 0x39
 2369 00d9 0B       		.uleb128 0xb
 2370 00da 49       		.uleb128 0x49
 2371 00db 13       		.uleb128 0x13
 2372 00dc 38       		.uleb128 0x38
 2373 00dd 0A       		.uleb128 0xa
 2374 00de 00       		.byte	0
 2375 00df 00       		.byte	0
 2376 00e0 13       		.uleb128 0x13
 2377 00e1 13       		.uleb128 0x13
 2378 00e2 01       		.byte	0x1
 2379 00e3 03       		.uleb128 0x3
 2380 00e4 0E       		.uleb128 0xe
 2381 00e5 0B       		.uleb128 0xb
 2382 00e6 05       		.uleb128 0x5
 2383 00e7 3A       		.uleb128 0x3a
 2384 00e8 0B       		.uleb128 0xb
 2385 00e9 3B       		.uleb128 0x3b
 2386 00ea 0B       		.uleb128 0xb
 2387 00eb 39       		.uleb128 0x39
 2388 00ec 0B       		.uleb128 0xb
 2389 00ed 01       		.uleb128 0x1
 2390 00ee 13       		.uleb128 0x13
 2391 00ef 00       		.byte	0
 2392 00f0 00       		.byte	0
 2393 00f1 14       		.uleb128 0x14
 2394 00f2 15       		.uleb128 0x15
 2395 00f3 00       		.byte	0
 2396 00f4 27       		.uleb128 0x27
 2397 00f5 0C       		.uleb128 0xc
 2398 00f6 00       		.byte	0
 2399 00f7 00       		.byte	0
 2400 00f8 15       		.uleb128 0x15
 2401 00f9 15       		.uleb128 0x15
 2402 00fa 01       		.byte	0x1
 2403 00fb 27       		.uleb128 0x27
 2404 00fc 0C       		.uleb128 0xc
 2405 00fd 49       		.uleb128 0x49
 2406 00fe 13       		.uleb128 0x13
 2407 00ff 01       		.uleb128 0x1
 2408 0100 13       		.uleb128 0x13
 2409 0101 00       		.byte	0
 2410 0102 00       		.byte	0
 2411 0103 16       		.uleb128 0x16
 2412 0104 05       		.uleb128 0x5
 2413 0105 00       		.byte	0
 2414 0106 49       		.uleb128 0x49
ARM GAS  C:\Users\skey\AppData\Local\Temp\ccx2DgoR.s 			page 47


 2415 0107 13       		.uleb128 0x13
 2416 0108 00       		.byte	0
 2417 0109 00       		.byte	0
 2418 010a 17       		.uleb128 0x17
 2419 010b 13       		.uleb128 0x13
 2420 010c 01       		.byte	0x1
 2421 010d 03       		.uleb128 0x3
 2422 010e 0E       		.uleb128 0xe
 2423 010f 0B       		.uleb128 0xb
 2424 0110 05       		.uleb128 0x5
 2425 0111 3A       		.uleb128 0x3a
 2426 0112 0B       		.uleb128 0xb
 2427 0113 3B       		.uleb128 0x3b
 2428 0114 05       		.uleb128 0x5
 2429 0115 39       		.uleb128 0x39
 2430 0116 0B       		.uleb128 0xb
 2431 0117 01       		.uleb128 0x1
 2432 0118 13       		.uleb128 0x13
 2433 0119 00       		.byte	0
 2434 011a 00       		.byte	0
 2435 011b 18       		.uleb128 0x18
 2436 011c 0D       		.uleb128 0xd
 2437 011d 00       		.byte	0
 2438 011e 03       		.uleb128 0x3
 2439 011f 0E       		.uleb128 0xe
 2440 0120 3A       		.uleb128 0x3a
 2441 0121 0B       		.uleb128 0xb
 2442 0122 3B       		.uleb128 0x3b
 2443 0123 05       		.uleb128 0x5
 2444 0124 39       		.uleb128 0x39
 2445 0125 0B       		.uleb128 0xb
 2446 0126 49       		.uleb128 0x49
 2447 0127 13       		.uleb128 0x13
 2448 0128 38       		.uleb128 0x38
 2449 0129 0A       		.uleb128 0xa
 2450 012a 00       		.byte	0
 2451 012b 00       		.byte	0
 2452 012c 19       		.uleb128 0x19
 2453 012d 13       		.uleb128 0x13
 2454 012e 01       		.byte	0x1
 2455 012f 03       		.uleb128 0x3
 2456 0130 0E       		.uleb128 0xe
 2457 0131 0B       		.uleb128 0xb
 2458 0132 0B       		.uleb128 0xb
 2459 0133 3A       		.uleb128 0x3a
 2460 0134 0B       		.uleb128 0xb
 2461 0135 3B       		.uleb128 0x3b
 2462 0136 05       		.uleb128 0x5
 2463 0137 39       		.uleb128 0x39
 2464 0138 0B       		.uleb128 0xb
 2465 0139 01       		.uleb128 0x1
 2466 013a 13       		.uleb128 0x13
 2467 013b 00       		.byte	0
 2468 013c 00       		.byte	0
 2469 013d 1A       		.uleb128 0x1a
 2470 013e 13       		.uleb128 0x13
 2471 013f 01       		.byte	0x1
ARM GAS  C:\Users\skey\AppData\Local\Temp\ccx2DgoR.s 			page 48


 2472 0140 0B       		.uleb128 0xb
 2473 0141 0B       		.uleb128 0xb
 2474 0142 3A       		.uleb128 0x3a
 2475 0143 0B       		.uleb128 0xb
 2476 0144 3B       		.uleb128 0x3b
 2477 0145 05       		.uleb128 0x5
 2478 0146 39       		.uleb128 0x39
 2479 0147 0B       		.uleb128 0xb
 2480 0148 01       		.uleb128 0x1
 2481 0149 13       		.uleb128 0x13
 2482 014a 00       		.byte	0
 2483 014b 00       		.byte	0
 2484 014c 1B       		.uleb128 0x1b
 2485 014d 17       		.uleb128 0x17
 2486 014e 01       		.byte	0x1
 2487 014f 0B       		.uleb128 0xb
 2488 0150 0B       		.uleb128 0xb
 2489 0151 3A       		.uleb128 0x3a
 2490 0152 0B       		.uleb128 0xb
 2491 0153 3B       		.uleb128 0x3b
 2492 0154 05       		.uleb128 0x5
 2493 0155 39       		.uleb128 0x39
 2494 0156 0B       		.uleb128 0xb
 2495 0157 01       		.uleb128 0x1
 2496 0158 13       		.uleb128 0x13
 2497 0159 00       		.byte	0
 2498 015a 00       		.byte	0
 2499 015b 1C       		.uleb128 0x1c
 2500 015c 0D       		.uleb128 0xd
 2501 015d 00       		.byte	0
 2502 015e 03       		.uleb128 0x3
 2503 015f 0E       		.uleb128 0xe
 2504 0160 3A       		.uleb128 0x3a
 2505 0161 0B       		.uleb128 0xb
 2506 0162 3B       		.uleb128 0x3b
 2507 0163 05       		.uleb128 0x5
 2508 0164 39       		.uleb128 0x39
 2509 0165 0B       		.uleb128 0xb
 2510 0166 49       		.uleb128 0x49
 2511 0167 13       		.uleb128 0x13
 2512 0168 00       		.byte	0
 2513 0169 00       		.byte	0
 2514 016a 1D       		.uleb128 0x1d
 2515 016b 15       		.uleb128 0x15
 2516 016c 01       		.byte	0x1
 2517 016d 27       		.uleb128 0x27
 2518 016e 0C       		.uleb128 0xc
 2519 016f 01       		.uleb128 0x1
 2520 0170 13       		.uleb128 0x13
 2521 0171 00       		.byte	0
 2522 0172 00       		.byte	0
 2523 0173 1E       		.uleb128 0x1e
 2524 0174 34       		.uleb128 0x34
 2525 0175 00       		.byte	0
 2526 0176 03       		.uleb128 0x3
 2527 0177 0E       		.uleb128 0xe
 2528 0178 3A       		.uleb128 0x3a
ARM GAS  C:\Users\skey\AppData\Local\Temp\ccx2DgoR.s 			page 49


 2529 0179 0B       		.uleb128 0xb
 2530 017a 3B       		.uleb128 0x3b
 2531 017b 05       		.uleb128 0x5
 2532 017c 39       		.uleb128 0x39
 2533 017d 0B       		.uleb128 0xb
 2534 017e 49       		.uleb128 0x49
 2535 017f 13       		.uleb128 0x13
 2536 0180 3F       		.uleb128 0x3f
 2537 0181 0C       		.uleb128 0xc
 2538 0182 3C       		.uleb128 0x3c
 2539 0183 0C       		.uleb128 0xc
 2540 0184 00       		.byte	0
 2541 0185 00       		.byte	0
 2542 0186 1F       		.uleb128 0x1f
 2543 0187 34       		.uleb128 0x34
 2544 0188 00       		.byte	0
 2545 0189 03       		.uleb128 0x3
 2546 018a 0E       		.uleb128 0xe
 2547 018b 3A       		.uleb128 0x3a
 2548 018c 0B       		.uleb128 0xb
 2549 018d 3B       		.uleb128 0x3b
 2550 018e 0B       		.uleb128 0xb
 2551 018f 39       		.uleb128 0x39
 2552 0190 0B       		.uleb128 0xb
 2553 0191 49       		.uleb128 0x49
 2554 0192 13       		.uleb128 0x13
 2555 0193 3F       		.uleb128 0x3f
 2556 0194 0C       		.uleb128 0xc
 2557 0195 3C       		.uleb128 0x3c
 2558 0196 0C       		.uleb128 0xc
 2559 0197 00       		.byte	0
 2560 0198 00       		.byte	0
 2561 0199 20       		.uleb128 0x20
 2562 019a 2E       		.uleb128 0x2e
 2563 019b 01       		.byte	0x1
 2564 019c 3F       		.uleb128 0x3f
 2565 019d 0C       		.uleb128 0xc
 2566 019e 03       		.uleb128 0x3
 2567 019f 0E       		.uleb128 0xe
 2568 01a0 3A       		.uleb128 0x3a
 2569 01a1 0B       		.uleb128 0xb
 2570 01a2 3B       		.uleb128 0x3b
 2571 01a3 0B       		.uleb128 0xb
 2572 01a4 39       		.uleb128 0x39
 2573 01a5 0B       		.uleb128 0xb
 2574 01a6 27       		.uleb128 0x27
 2575 01a7 0C       		.uleb128 0xc
 2576 01a8 49       		.uleb128 0x49
 2577 01a9 13       		.uleb128 0x13
 2578 01aa 11       		.uleb128 0x11
 2579 01ab 01       		.uleb128 0x1
 2580 01ac 12       		.uleb128 0x12
 2581 01ad 01       		.uleb128 0x1
 2582 01ae 40       		.uleb128 0x40
 2583 01af 0A       		.uleb128 0xa
 2584 01b0 9742     		.uleb128 0x2117
 2585 01b2 0C       		.uleb128 0xc
ARM GAS  C:\Users\skey\AppData\Local\Temp\ccx2DgoR.s 			page 50


 2586 01b3 01       		.uleb128 0x1
 2587 01b4 13       		.uleb128 0x13
 2588 01b5 00       		.byte	0
 2589 01b6 00       		.byte	0
 2590 01b7 21       		.uleb128 0x21
 2591 01b8 05       		.uleb128 0x5
 2592 01b9 00       		.byte	0
 2593 01ba 03       		.uleb128 0x3
 2594 01bb 0E       		.uleb128 0xe
 2595 01bc 3A       		.uleb128 0x3a
 2596 01bd 0B       		.uleb128 0xb
 2597 01be 3B       		.uleb128 0x3b
 2598 01bf 0B       		.uleb128 0xb
 2599 01c0 39       		.uleb128 0x39
 2600 01c1 0B       		.uleb128 0xb
 2601 01c2 49       		.uleb128 0x49
 2602 01c3 13       		.uleb128 0x13
 2603 01c4 02       		.uleb128 0x2
 2604 01c5 06       		.uleb128 0x6
 2605 01c6 B742     		.uleb128 0x2137
 2606 01c8 06       		.uleb128 0x6
 2607 01c9 00       		.byte	0
 2608 01ca 00       		.byte	0
 2609 01cb 22       		.uleb128 0x22
 2610 01cc 34       		.uleb128 0x34
 2611 01cd 00       		.byte	0
 2612 01ce 03       		.uleb128 0x3
 2613 01cf 0E       		.uleb128 0xe
 2614 01d0 3A       		.uleb128 0x3a
 2615 01d1 0B       		.uleb128 0xb
 2616 01d2 3B       		.uleb128 0x3b
 2617 01d3 0B       		.uleb128 0xb
 2618 01d4 39       		.uleb128 0x39
 2619 01d5 0B       		.uleb128 0xb
 2620 01d6 49       		.uleb128 0x49
 2621 01d7 13       		.uleb128 0x13
 2622 01d8 02       		.uleb128 0x2
 2623 01d9 06       		.uleb128 0x6
 2624 01da B742     		.uleb128 0x2137
 2625 01dc 06       		.uleb128 0x6
 2626 01dd 00       		.byte	0
 2627 01de 00       		.byte	0
 2628 01df 23       		.uleb128 0x23
 2629 01e0 2E       		.uleb128 0x2e
 2630 01e1 01       		.byte	0x1
 2631 01e2 3F       		.uleb128 0x3f
 2632 01e3 0C       		.uleb128 0xc
 2633 01e4 03       		.uleb128 0x3
 2634 01e5 0E       		.uleb128 0xe
 2635 01e6 3A       		.uleb128 0x3a
 2636 01e7 0B       		.uleb128 0xb
 2637 01e8 3B       		.uleb128 0x3b
 2638 01e9 0B       		.uleb128 0xb
 2639 01ea 39       		.uleb128 0x39
 2640 01eb 0B       		.uleb128 0xb
 2641 01ec 27       		.uleb128 0x27
 2642 01ed 0C       		.uleb128 0xc
ARM GAS  C:\Users\skey\AppData\Local\Temp\ccx2DgoR.s 			page 51


 2643 01ee 11       		.uleb128 0x11
 2644 01ef 01       		.uleb128 0x1
 2645 01f0 12       		.uleb128 0x12
 2646 01f1 01       		.uleb128 0x1
 2647 01f2 40       		.uleb128 0x40
 2648 01f3 06       		.uleb128 0x6
 2649 01f4 9742     		.uleb128 0x2117
 2650 01f6 0C       		.uleb128 0xc
 2651 01f7 01       		.uleb128 0x1
 2652 01f8 13       		.uleb128 0x13
 2653 01f9 00       		.byte	0
 2654 01fa 00       		.byte	0
 2655 01fb 24       		.uleb128 0x24
 2656 01fc 05       		.uleb128 0x5
 2657 01fd 00       		.byte	0
 2658 01fe 03       		.uleb128 0x3
 2659 01ff 0E       		.uleb128 0xe
 2660 0200 3A       		.uleb128 0x3a
 2661 0201 0B       		.uleb128 0xb
 2662 0202 3B       		.uleb128 0x3b
 2663 0203 0B       		.uleb128 0xb
 2664 0204 39       		.uleb128 0x39
 2665 0205 0B       		.uleb128 0xb
 2666 0206 49       		.uleb128 0x49
 2667 0207 13       		.uleb128 0x13
 2668 0208 02       		.uleb128 0x2
 2669 0209 0A       		.uleb128 0xa
 2670 020a 00       		.byte	0
 2671 020b 00       		.byte	0
 2672 020c 25       		.uleb128 0x25
 2673 020d 2E       		.uleb128 0x2e
 2674 020e 01       		.byte	0x1
 2675 020f 3F       		.uleb128 0x3f
 2676 0210 0C       		.uleb128 0xc
 2677 0211 03       		.uleb128 0x3
 2678 0212 0E       		.uleb128 0xe
 2679 0213 3A       		.uleb128 0x3a
 2680 0214 0B       		.uleb128 0xb
 2681 0215 3B       		.uleb128 0x3b
 2682 0216 0B       		.uleb128 0xb
 2683 0217 39       		.uleb128 0x39
 2684 0218 0B       		.uleb128 0xb
 2685 0219 27       		.uleb128 0x27
 2686 021a 0C       		.uleb128 0xc
 2687 021b 11       		.uleb128 0x11
 2688 021c 01       		.uleb128 0x1
 2689 021d 12       		.uleb128 0x12
 2690 021e 01       		.uleb128 0x1
 2691 021f 40       		.uleb128 0x40
 2692 0220 0A       		.uleb128 0xa
 2693 0221 9742     		.uleb128 0x2117
 2694 0223 0C       		.uleb128 0xc
 2695 0224 01       		.uleb128 0x1
 2696 0225 13       		.uleb128 0x13
 2697 0226 00       		.byte	0
 2698 0227 00       		.byte	0
 2699 0228 26       		.uleb128 0x26
ARM GAS  C:\Users\skey\AppData\Local\Temp\ccx2DgoR.s 			page 52


 2700 0229 2E       		.uleb128 0x2e
 2701 022a 01       		.byte	0x1
 2702 022b 3F       		.uleb128 0x3f
 2703 022c 0C       		.uleb128 0xc
 2704 022d 03       		.uleb128 0x3
 2705 022e 0E       		.uleb128 0xe
 2706 022f 3A       		.uleb128 0x3a
 2707 0230 0B       		.uleb128 0xb
 2708 0231 3B       		.uleb128 0x3b
 2709 0232 0B       		.uleb128 0xb
 2710 0233 39       		.uleb128 0x39
 2711 0234 0B       		.uleb128 0xb
 2712 0235 27       		.uleb128 0x27
 2713 0236 0C       		.uleb128 0xc
 2714 0237 11       		.uleb128 0x11
 2715 0238 01       		.uleb128 0x1
 2716 0239 12       		.uleb128 0x12
 2717 023a 01       		.uleb128 0x1
 2718 023b 40       		.uleb128 0x40
 2719 023c 0A       		.uleb128 0xa
 2720 023d 9742     		.uleb128 0x2117
 2721 023f 0C       		.uleb128 0xc
 2722 0240 00       		.byte	0
 2723 0241 00       		.byte	0
 2724 0242 00       		.byte	0
 2725              		.section	.debug_loc,"",%progbits
 2726              	.Ldebug_loc0:
 2727              	.LVUS4:
 2728 0000 00       		.uleb128 0
 2729 0001 00       		.uleb128 .LVU93
 2730 0002 00       		.uleb128 .LVU93
 2731 0003 00       		.uleb128 0
 2732              	.LLST4:
 2733 0004 62000000 		.4byte	.LVL12-.Ltext0
 2734 0008 80000000 		.4byte	.LVL14-.Ltext0
 2735 000c 0100     		.2byte	0x1
 2736 000e 50       		.byte	0x50
 2737 000f 80000000 		.4byte	.LVL14-.Ltext0
 2738 0013 82000000 		.4byte	.LFE38-.Ltext0
 2739 0017 0400     		.2byte	0x4
 2740 0019 F3       		.byte	0xf3
 2741 001a 01       		.uleb128 0x1
 2742 001b 50       		.byte	0x50
 2743 001c 9F       		.byte	0x9f
 2744 001d 00000000 		.4byte	0
 2745 0021 00000000 		.4byte	0
 2746              	.LVUS5:
 2747 0025 00       		.uleb128 .LVU75
 2748 0026 00       		.uleb128 0
 2749              	.LLST5:
 2750 0027 64000000 		.4byte	.LVL13-.Ltext0
 2751 002b 82000000 		.4byte	.LFE38-.Ltext0
 2752 002f 0100     		.2byte	0x1
 2753 0031 53       		.byte	0x53
 2754 0032 00000000 		.4byte	0
 2755 0036 00000000 		.4byte	0
 2756              	.LLST1:
ARM GAS  C:\Users\skey\AppData\Local\Temp\ccx2DgoR.s 			page 53


 2757 003a 34000000 		.4byte	.LFB37-.Ltext0
 2758 003e 36000000 		.4byte	.LCFI0-.Ltext0
 2759 0042 0200     		.2byte	0x2
 2760 0044 7D       		.byte	0x7d
 2761 0045 00       		.sleb128 0
 2762 0046 36000000 		.4byte	.LCFI0-.Ltext0
 2763 004a 62000000 		.4byte	.LFE37-.Ltext0
 2764 004e 0200     		.2byte	0x2
 2765 0050 7D       		.byte	0x7d
 2766 0051 0C       		.sleb128 12
 2767 0052 00000000 		.4byte	0
 2768 0056 00000000 		.4byte	0
 2769              	.LVUS2:
 2770 005a 00       		.uleb128 .LVU52
 2771 005b 00       		.uleb128 .LVU63
 2772 005c 00       		.uleb128 .LVU63
 2773 005d 00       		.uleb128 .LVU67
 2774 005e 00       		.uleb128 .LVU69
 2775 005f 00       		.uleb128 .LVU71
 2776 0060 00       		.uleb128 .LVU71
 2777 0061 00       		.uleb128 0
 2778              	.LLST2:
 2779 0062 3E000000 		.4byte	.LVL7-.Ltext0
 2780 0066 4A000000 		.4byte	.LVL8-.Ltext0
 2781 006a 0100     		.2byte	0x1
 2782 006c 53       		.byte	0x53
 2783 006d 4A000000 		.4byte	.LVL8-.Ltext0
 2784 0071 52000000 		.4byte	.LVL9-.Ltext0
 2785 0075 0200     		.2byte	0x2
 2786 0077 71       		.byte	0x71
 2787 0078 08       		.sleb128 8
 2788 0079 56000000 		.4byte	.LVL10-.Ltext0
 2789 007d 5A000000 		.4byte	.LVL11-.Ltext0
 2790 0081 0100     		.2byte	0x1
 2791 0083 52       		.byte	0x52
 2792 0084 5A000000 		.4byte	.LVL11-.Ltext0
 2793 0088 62000000 		.4byte	.LFE37-.Ltext0
 2794 008c 0100     		.2byte	0x1
 2795 008e 53       		.byte	0x53
 2796 008f 00000000 		.4byte	0
 2797 0093 00000000 		.4byte	0
 2798              	.LVUS3:
 2799 0097 00       		.uleb128 .LVU46
 2800 0098 00       		.uleb128 0
 2801              	.LLST3:
 2802 0099 38000000 		.4byte	.LVL6-.Ltext0
 2803 009d 62000000 		.4byte	.LFE37-.Ltext0
 2804 00a1 0100     		.2byte	0x1
 2805 00a3 54       		.byte	0x54
 2806 00a4 00000000 		.4byte	0
 2807 00a8 00000000 		.4byte	0
 2808              	.LVUS0:
 2809 00ac 00       		.uleb128 .LVU23
 2810 00ad 00       		.uleb128 .LVU37
 2811 00ae 00       		.uleb128 .LVU37
 2812 00af 00       		.uleb128 0
 2813              	.LLST0:
ARM GAS  C:\Users\skey\AppData\Local\Temp\ccx2DgoR.s 			page 54


 2814 00b0 1E000000 		.4byte	.LVL3-.Ltext0
 2815 00b4 2C000000 		.4byte	.LVL4-.Ltext0
 2816 00b8 0100     		.2byte	0x1
 2817 00ba 53       		.byte	0x53
 2818 00bb 2C000000 		.4byte	.LVL4-.Ltext0
 2819 00bf 34000000 		.4byte	.LFE36-.Ltext0
 2820 00c3 0200     		.2byte	0x2
 2821 00c5 70       		.byte	0x70
 2822 00c6 04       		.sleb128 4
 2823 00c7 00000000 		.4byte	0
 2824 00cb 00000000 		.4byte	0
 2825              		.section	.debug_aranges,"",%progbits
 2826 0000 1C000000 		.4byte	0x1c
 2827 0004 0200     		.2byte	0x2
 2828 0006 00000000 		.4byte	.Ldebug_info0
 2829 000a 04       		.byte	0x4
 2830 000b 00       		.byte	0
 2831 000c 0000     		.2byte	0
 2832 000e 0000     		.2byte	0
 2833 0010 00000000 		.4byte	.Ltext0
 2834 0014 82000000 		.4byte	.Letext0-.Ltext0
 2835 0018 00000000 		.4byte	0
 2836 001c 00000000 		.4byte	0
 2837              		.section	.debug_line,"",%progbits
 2838              	.Ldebug_line0:
 2839 0000 32040000 		.section	.debug_str,"MS",%progbits,1
 2839      0300A702 
 2839      00000201 
 2839      FB0E0D00 
 2839      01010101 
 2840              	.LASF40:
 2841 0000 5F64736F 		.ascii	"_dso_handle\000"
 2841      5F68616E 
 2841      646C6500 
 2842              	.LASF5:
 2843 000c 73686F72 		.ascii	"short int\000"
 2843      7420696E 
 2843      7400
 2844              	.LASF39:
 2845 0016 5F666E61 		.ascii	"_fnargs\000"
 2845      72677300 
 2846              	.LASF140:
 2847 001e 4D696E69 		.ascii	"MiniListItem_t\000"
 2847      4C697374 
 2847      4974656D 
 2847      5F7400
 2848              	.LASF92:
 2849 002d 5F72616E 		.ascii	"_rand48\000"
 2849      64343800 
 2850              	.LASF72:
 2851 0035 5F656D65 		.ascii	"_emergency\000"
 2851      7267656E 
 2851      637900
 2852              	.LASF150:
 2853 0040 474E5520 		.ascii	"GNU C17 9.2.1 20191025 (release) [ARM/arm-9-branch "
 2853      43313720 
 2853      392E322E 
ARM GAS  C:\Users\skey\AppData\Local\Temp\ccx2DgoR.s 			page 55


 2853      31203230 
 2853      31393130 
 2854 0073 72657669 		.ascii	"revision 277599] -mcpu=cortex-m3 -mthumb -mfloat-ab"
 2854      73696F6E 
 2854      20323737 
 2854      3539395D 
 2854      202D6D63 
 2855 00a6 693D736F 		.ascii	"i=soft -march=armv7-m -g -gdwarf-2 -Os -fomit-frame"
 2855      6674202D 
 2855      6D617263 
 2855      683D6172 
 2855      6D76372D 
 2856 00d9 2D706F69 		.ascii	"-pointer\000"
 2856      6E746572 
 2856      00
 2857              	.LASF84:
 2858 00e2 5F617465 		.ascii	"_atexit0\000"
 2858      78697430 
 2858      00
 2859              	.LASF112:
 2860 00eb 5F776372 		.ascii	"_wcrtomb_state\000"
 2860      746F6D62 
 2860      5F737461 
 2860      746500
 2861              	.LASF113:
 2862 00fa 5F776373 		.ascii	"_wcsrtombs_state\000"
 2862      72746F6D 
 2862      62735F73 
 2862      74617465 
 2862      00
 2863              	.LASF144:
 2864 010b 70784974 		.ascii	"pxIterator\000"
 2864      65726174 
 2864      6F7200
 2865              	.LASF9:
 2866 0116 6C6F6E67 		.ascii	"long long unsigned int\000"
 2866      206C6F6E 
 2866      6720756E 
 2866      7369676E 
 2866      65642069 
 2867              	.LASF52:
 2868 012d 5F6C6266 		.ascii	"_lbfsize\000"
 2868      73697A65 
 2868      00
 2869              	.LASF119:
 2870 0136 5F5F6C6F 		.ascii	"__locale_t\000"
 2870      63616C65 
 2870      5F7400
 2871              	.LASF137:
 2872 0141 784C6973 		.ascii	"xListEnd\000"
 2872      74456E64 
 2872      00
 2873              	.LASF124:
 2874 014a 49544D5F 		.ascii	"ITM_RxBuffer\000"
 2874      52784275 
 2874      66666572 
 2874      00
ARM GAS  C:\Users\skey\AppData\Local\Temp\ccx2DgoR.s 			page 56


 2875              	.LASF143:
 2876 0157 70784E65 		.ascii	"pxNewListItem\000"
 2876      774C6973 
 2876      74497465 
 2876      6D00
 2877              	.LASF139:
 2878 0165 784D494E 		.ascii	"xMINI_LIST_ITEM\000"
 2878      495F4C49 
 2878      53545F49 
 2878      54454D00 
 2879              	.LASF29:
 2880 0175 5F5F746D 		.ascii	"__tm_sec\000"
 2880      5F736563 
 2880      00
 2881              	.LASF12:
 2882 017e 5F6F6666 		.ascii	"_off_t\000"
 2882      5F7400
 2883              	.LASF57:
 2884 0185 5F636C6F 		.ascii	"_close\000"
 2884      736500
 2885              	.LASF3:
 2886 018c 7369676E 		.ascii	"signed char\000"
 2886      65642063 
 2886      68617200 
 2887              	.LASF58:
 2888 0198 5F756275 		.ascii	"_ubuf\000"
 2888      6600
 2889              	.LASF47:
 2890 019e 5F626173 		.ascii	"_base\000"
 2890      6500
 2891              	.LASF31:
 2892 01a4 5F5F746D 		.ascii	"__tm_hour\000"
 2892      5F686F75 
 2892      7200
 2893              	.LASF87:
 2894 01ae 5F5F7366 		.ascii	"__sf\000"
 2894      00
 2895              	.LASF38:
 2896 01b3 5F6F6E5F 		.ascii	"_on_exit_args\000"
 2896      65786974 
 2896      5F617267 
 2896      7300
 2897              	.LASF53:
 2898 01c1 5F636F6F 		.ascii	"_cookie\000"
 2898      6B696500 
 2899              	.LASF86:
 2900 01c9 5F5F7367 		.ascii	"__sglue\000"
 2900      6C756500 
 2901              	.LASF7:
 2902 01d1 6C6F6E67 		.ascii	"long int\000"
 2902      20696E74 
 2902      00
 2903              	.LASF50:
 2904 01da 5F666C61 		.ascii	"_flags\000"
 2904      677300
 2905              	.LASF42:
 2906 01e1 5F69735F 		.ascii	"_is_cxa\000"
ARM GAS  C:\Users\skey\AppData\Local\Temp\ccx2DgoR.s 			page 57


 2906      63786100 
 2907              	.LASF68:
 2908 01e9 5F737464 		.ascii	"_stdin\000"
 2908      696E00
 2909              	.LASF78:
 2910 01f0 5F726573 		.ascii	"_result_k\000"
 2910      756C745F 
 2910      6B00
 2911              	.LASF1:
 2912 01fa 6C6F6E67 		.ascii	"long long int\000"
 2912      206C6F6E 
 2912      6720696E 
 2912      7400
 2913              	.LASF82:
 2914 0208 5F637674 		.ascii	"_cvtbuf\000"
 2914      62756600 
 2915              	.LASF61:
 2916 0210 5F6F6666 		.ascii	"_offset\000"
 2916      73657400 
 2917              	.LASF149:
 2918 0218 70784974 		.ascii	"pxItem\000"
 2918      656D00
 2919              	.LASF147:
 2920 021f 764C6973 		.ascii	"vListInsertEnd\000"
 2920      74496E73 
 2920      65727445 
 2920      6E6400
 2921              	.LASF111:
 2922 022e 5F6D6273 		.ascii	"_mbsrtowcs_state\000"
 2922      72746F77 
 2922      63735F73 
 2922      74617465 
 2922      00
 2923              	.LASF109:
 2924 023f 5F6D6272 		.ascii	"_mbrlen_state\000"
 2924      6C656E5F 
 2924      73746174 
 2924      6500
 2925              	.LASF45:
 2926 024d 5F666E73 		.ascii	"_fns\000"
 2926      00
 2927              	.LASF10:
 2928 0252 5F5F7569 		.ascii	"__uint32_t\000"
 2928      6E743332 
 2928      5F7400
 2929              	.LASF25:
 2930 025d 5F736967 		.ascii	"_sign\000"
 2930      6E00
 2931              	.LASF120:
 2932 0263 5F696D70 		.ascii	"_impure_ptr\000"
 2932      7572655F 
 2932      70747200 
 2933              	.LASF70:
 2934 026f 5F737464 		.ascii	"_stderr\000"
 2934      65727200 
 2935              	.LASF27:
 2936 0277 5F426967 		.ascii	"_Bigint\000"
ARM GAS  C:\Users\skey\AppData\Local\Temp\ccx2DgoR.s 			page 58


 2936      696E7400 
 2937              	.LASF23:
 2938 027f 5F6E6578 		.ascii	"_next\000"
 2938      7400
 2939              	.LASF54:
 2940 0285 5F726561 		.ascii	"_read\000"
 2940      6400
 2941              	.LASF28:
 2942 028b 5F5F746D 		.ascii	"__tm\000"
 2942      00
 2943              	.LASF16:
 2944 0290 5F5F7763 		.ascii	"__wchb\000"
 2944      686200
 2945              	.LASF125:
 2946 0297 53797374 		.ascii	"SystemCoreClock\000"
 2946      656D436F 
 2946      7265436C 
 2946      6F636B00 
 2947              	.LASF69:
 2948 02a7 5F737464 		.ascii	"_stdout\000"
 2948      6F757400 
 2949              	.LASF81:
 2950 02af 5F637674 		.ascii	"_cvtlen\000"
 2950      6C656E00 
 2951              	.LASF135:
 2952 02b7 75784E75 		.ascii	"uxNumberOfItems\000"
 2952      6D626572 
 2952      4F664974 
 2952      656D7300 
 2953              	.LASF8:
 2954 02c7 6C6F6E67 		.ascii	"long unsigned int\000"
 2954      20756E73 
 2954      69676E65 
 2954      6420696E 
 2954      7400
 2955              	.LASF51:
 2956 02d9 5F66696C 		.ascii	"_file\000"
 2956      6500
 2957              	.LASF62:
 2958 02df 5F646174 		.ascii	"_data\000"
 2958      6100
 2959              	.LASF90:
 2960 02e5 5F6E696F 		.ascii	"_niobs\000"
 2960      627300
 2961              	.LASF101:
 2962 02ec 5F72616E 		.ascii	"_rand_next\000"
 2962      645F6E65 
 2962      787400
 2963              	.LASF107:
 2964 02f7 5F736967 		.ascii	"_signal_buf\000"
 2964      6E616C5F 
 2964      62756600 
 2965              	.LASF98:
 2966 0303 5F617363 		.ascii	"_asctime_buf\000"
 2966      74696D65 
 2966      5F627566 
 2966      00
ARM GAS  C:\Users\skey\AppData\Local\Temp\ccx2DgoR.s 			page 59


 2967              	.LASF151:
 2968 0310 2E5C6672 		.ascii	".\\freertos\\list.c\000"
 2968      65657274 
 2968      6F735C6C 
 2968      6973742E 
 2968      6300
 2969              	.LASF77:
 2970 0322 5F726573 		.ascii	"_result\000"
 2970      756C7400 
 2971              	.LASF15:
 2972 032a 5F5F7763 		.ascii	"__wch\000"
 2972      6800
 2973              	.LASF11:
 2974 0330 5F4C4F43 		.ascii	"_LOCK_T\000"
 2974      4B5F5400 
 2975              	.LASF83:
 2976 0338 5F6E6577 		.ascii	"_new\000"
 2976      00
 2977              	.LASF63:
 2978 033d 5F6C6F63 		.ascii	"_lock\000"
 2978      6B00
 2979              	.LASF94:
 2980 0343 5F6D756C 		.ascii	"_mult\000"
 2980      7400
 2981              	.LASF55:
 2982 0349 5F777269 		.ascii	"_write\000"
 2982      746500
 2983              	.LASF34:
 2984 0350 5F5F746D 		.ascii	"__tm_year\000"
 2984      5F796561 
 2984      7200
 2985              	.LASF148:
 2986 035a 764C6973 		.ascii	"vListInitialiseItem\000"
 2986      74496E69 
 2986      7469616C 
 2986      69736549 
 2986      74656D00 
 2987              	.LASF154:
 2988 036e 70784974 		.ascii	"pxItemToRemove\000"
 2988      656D546F 
 2988      52656D6F 
 2988      766500
 2989              	.LASF127:
 2990 037d 5469636B 		.ascii	"TickType_t\000"
 2990      54797065 
 2990      5F7400
 2991              	.LASF115:
 2992 0388 5F6E6578 		.ascii	"_nextf\000"
 2992      746600
 2993              	.LASF33:
 2994 038f 5F5F746D 		.ascii	"__tm_mon\000"
 2994      5F6D6F6E 
 2994      00
 2995              	.LASF43:
 2996 0398 5F617465 		.ascii	"_atexit\000"
 2996      78697400 
 2997              	.LASF122:
ARM GAS  C:\Users\skey\AppData\Local\Temp\ccx2DgoR.s 			page 60


 2998 03a0 7375626F 		.ascii	"suboptarg\000"
 2998      70746172 
 2998      6700
 2999              	.LASF75:
 3000 03aa 5F5F7364 		.ascii	"__sdidinit\000"
 3000      6964696E 
 3000      697400
 3001              	.LASF100:
 3002 03b5 5F67616D 		.ascii	"_gamma_signgam\000"
 3002      6D615F73 
 3002      69676E67 
 3002      616D00
 3003              	.LASF131:
 3004 03c4 70785072 		.ascii	"pxPrevious\000"
 3004      6576696F 
 3004      757300
 3005              	.LASF14:
 3006 03cf 77696E74 		.ascii	"wint_t\000"
 3006      5F7400
 3007              	.LASF132:
 3008 03d6 70764F77 		.ascii	"pvOwner\000"
 3008      6E657200 
 3009              	.LASF80:
 3010 03de 5F667265 		.ascii	"_freelist\000"
 3010      656C6973 
 3010      7400
 3011              	.LASF136:
 3012 03e8 7078496E 		.ascii	"pxIndex\000"
 3012      64657800 
 3013              	.LASF133:
 3014 03f0 7076436F 		.ascii	"pvContainer\000"
 3014      6E746169 
 3014      6E657200 
 3015              	.LASF105:
 3016 03fc 5F776374 		.ascii	"_wctomb_state\000"
 3016      6F6D625F 
 3016      73746174 
 3016      6500
 3017              	.LASF4:
 3018 040a 756E7369 		.ascii	"unsigned char\000"
 3018      676E6564 
 3018      20636861 
 3018      7200
 3019              	.LASF91:
 3020 0418 5F696F62 		.ascii	"_iobs\000"
 3020      7300
 3021              	.LASF114:
 3022 041e 5F685F65 		.ascii	"_h_errno\000"
 3022      72726E6F 
 3022      00
 3023              	.LASF20:
 3024 0427 5F666C6F 		.ascii	"_flock_t\000"
 3024      636B5F74 
 3024      00
 3025              	.LASF36:
 3026 0430 5F5F746D 		.ascii	"__tm_yday\000"
 3026      5F796461 
ARM GAS  C:\Users\skey\AppData\Local\Temp\ccx2DgoR.s 			page 61


 3026      7900
 3027              	.LASF46:
 3028 043a 5F5F7362 		.ascii	"__sbuf\000"
 3028      756600
 3029              	.LASF65:
 3030 0441 5F666C61 		.ascii	"_flags2\000"
 3030      67733200 
 3031              	.LASF88:
 3032 0449 5F5F4649 		.ascii	"__FILE\000"
 3032      4C4500
 3033              	.LASF19:
 3034 0450 5F6D6273 		.ascii	"_mbstate_t\000"
 3034      74617465 
 3034      5F7400
 3035              	.LASF49:
 3036 045b 5F5F7346 		.ascii	"__sFILE\000"
 3036      494C4500 
 3037              	.LASF64:
 3038 0463 5F6D6273 		.ascii	"_mbstate\000"
 3038      74617465 
 3038      00
 3039              	.LASF134:
 3040 046c 784C4953 		.ascii	"xLIST\000"
 3040      5400
 3041              	.LASF103:
 3042 0472 5F6D626C 		.ascii	"_mblen_state\000"
 3042      656E5F73 
 3042      74617465 
 3042      00
 3043              	.LASF71:
 3044 047f 5F696E63 		.ascii	"_inc\000"
 3044      00
 3045              	.LASF44:
 3046 0484 5F696E64 		.ascii	"_ind\000"
 3046      00
 3047              	.LASF141:
 3048 0489 4C697374 		.ascii	"List_t\000"
 3048      5F7400
 3049              	.LASF74:
 3050 0490 5F6C6F63 		.ascii	"_locale\000"
 3050      616C6500 
 3051              	.LASF76:
 3052 0498 5F5F636C 		.ascii	"__cleanup\000"
 3052      65616E75 
 3052      7000
 3053              	.LASF73:
 3054 04a2 5F756E73 		.ascii	"_unspecified_locale_info\000"
 3054      70656369 
 3054      66696564 
 3054      5F6C6F63 
 3054      616C655F 
 3055              	.LASF24:
 3056 04bb 5F6D6178 		.ascii	"_maxwds\000"
 3056      77647300 
 3057              	.LASF66:
 3058 04c3 5F726565 		.ascii	"_reent\000"
 3058      6E7400
ARM GAS  C:\Users\skey\AppData\Local\Temp\ccx2DgoR.s 			page 62


 3059              	.LASF152:
 3060 04ca 443A5C53 		.ascii	"D:\\STM32_Freertos_GCC_Makefile_Win\000"
 3060      544D3332 
 3060      5F467265 
 3060      6572746F 
 3060      735F4743 
 3061              	.LASF93:
 3062 04ed 5F736565 		.ascii	"_seed\000"
 3062      6400
 3063              	.LASF17:
 3064 04f3 5F5F636F 		.ascii	"__count\000"
 3064      756E7400 
 3065              	.LASF118:
 3066 04fb 5F5F6C6F 		.ascii	"__lock\000"
 3066      636B00
 3067              	.LASF18:
 3068 0502 5F5F7661 		.ascii	"__value\000"
 3068      6C756500 
 3069              	.LASF56:
 3070 050a 5F736565 		.ascii	"_seek\000"
 3070      6B00
 3071              	.LASF35:
 3072 0510 5F5F746D 		.ascii	"__tm_wday\000"
 3072      5F776461 
 3072      7900
 3073              	.LASF146:
 3074 051a 764C6973 		.ascii	"vListInsert\000"
 3074      74496E73 
 3074      65727400 
 3075              	.LASF13:
 3076 0526 5F66706F 		.ascii	"_fpos_t\000"
 3076      735F7400 
 3077              	.LASF2:
 3078 052e 6C6F6E67 		.ascii	"long double\000"
 3078      20646F75 
 3078      626C6500 
 3079              	.LASF67:
 3080 053a 5F657272 		.ascii	"_errno\000"
 3080      6E6F00
 3081              	.LASF21:
 3082 0541 63686172 		.ascii	"char\000"
 3082      00
 3083              	.LASF60:
 3084 0546 5F626C6B 		.ascii	"_blksize\000"
 3084      73697A65 
 3084      00
 3085              	.LASF48:
 3086 054f 5F73697A 		.ascii	"_size\000"
 3086      6500
 3087              	.LASF0:
 3088 0555 756E7369 		.ascii	"unsigned int\000"
 3088      676E6564 
 3088      20696E74 
 3088      00
 3089              	.LASF138:
 3090 0562 4C697374 		.ascii	"ListItem_t\000"
 3090      4974656D 
ARM GAS  C:\Users\skey\AppData\Local\Temp\ccx2DgoR.s 			page 63


 3090      5F7400
 3091              	.LASF153:
 3092 056d 75784C69 		.ascii	"uxListRemove\000"
 3092      73745265 
 3092      6D6F7665 
 3092      00
 3093              	.LASF145:
 3094 057a 7856616C 		.ascii	"xValueOfInsertion\000"
 3094      75654F66 
 3094      496E7365 
 3094      7274696F 
 3094      6E00
 3095              	.LASF97:
 3096 058c 5F737472 		.ascii	"_strtok_last\000"
 3096      746F6B5F 
 3096      6C617374 
 3096      00
 3097              	.LASF41:
 3098 0599 5F666E74 		.ascii	"_fntypes\000"
 3098      79706573 
 3098      00
 3099              	.LASF6:
 3100 05a2 73686F72 		.ascii	"short unsigned int\000"
 3100      7420756E 
 3100      7369676E 
 3100      65642069 
 3100      6E7400
 3101              	.LASF95:
 3102 05b5 5F616464 		.ascii	"_add\000"
 3102      00
 3103              	.LASF22:
 3104 05ba 5F5F554C 		.ascii	"__ULong\000"
 3104      6F6E6700 
 3105              	.LASF108:
 3106 05c2 5F676574 		.ascii	"_getdate_err\000"
 3106      64617465 
 3106      5F657272 
 3106      00
 3107              	.LASF110:
 3108 05cf 5F6D6272 		.ascii	"_mbrtowc_state\000"
 3108      746F7763 
 3108      5F737461 
 3108      746500
 3109              	.LASF121:
 3110 05de 5F676C6F 		.ascii	"_global_impure_ptr\000"
 3110      62616C5F 
 3110      696D7075 
 3110      72655F70 
 3110      747200
 3111              	.LASF123:
 3112 05f1 75696E74 		.ascii	"uint32_t\000"
 3112      33325F74 
 3112      00
 3113              	.LASF129:
 3114 05fa 78497465 		.ascii	"xItemValue\000"
 3114      6D56616C 
 3114      756500
ARM GAS  C:\Users\skey\AppData\Local\Temp\ccx2DgoR.s 			page 64


 3115              	.LASF96:
 3116 0605 5F756E75 		.ascii	"_unused_rand\000"
 3116      7365645F 
 3116      72616E64 
 3116      00
 3117              	.LASF155:
 3118 0612 764C6973 		.ascii	"vListInitialise\000"
 3118      74496E69 
 3118      7469616C 
 3118      69736500 
 3119              	.LASF26:
 3120 0622 5F776473 		.ascii	"_wds\000"
 3120      00
 3121              	.LASF89:
 3122 0627 5F676C75 		.ascii	"_glue\000"
 3122      6500
 3123              	.LASF116:
 3124 062d 5F6E6D61 		.ascii	"_nmalloc\000"
 3124      6C6C6F63 
 3124      00
 3125              	.LASF106:
 3126 0636 5F6C3634 		.ascii	"_l64a_buf\000"
 3126      615F6275 
 3126      6600
 3127              	.LASF85:
 3128 0640 5F736967 		.ascii	"_sig_func\000"
 3128      5F66756E 
 3128      6300
 3129              	.LASF130:
 3130 064a 70784E65 		.ascii	"pxNext\000"
 3130      787400
 3131              	.LASF59:
 3132 0651 5F6E6275 		.ascii	"_nbuf\000"
 3132      6600
 3133              	.LASF117:
 3134 0657 5F756E75 		.ascii	"_unused\000"
 3134      73656400 
 3135              	.LASF37:
 3136 065f 5F5F746D 		.ascii	"__tm_isdst\000"
 3136      5F697364 
 3136      737400
 3137              	.LASF99:
 3138 066a 5F6C6F63 		.ascii	"_localtime_buf\000"
 3138      616C7469 
 3138      6D655F62 
 3138      756600
 3139              	.LASF30:
 3140 0679 5F5F746D 		.ascii	"__tm_min\000"
 3140      5F6D696E 
 3140      00
 3141              	.LASF102:
 3142 0682 5F723438 		.ascii	"_r48\000"
 3142      00
 3143              	.LASF128:
 3144 0687 784C4953 		.ascii	"xLIST_ITEM\000"
 3144      545F4954 
 3144      454D00
ARM GAS  C:\Users\skey\AppData\Local\Temp\ccx2DgoR.s 			page 65


 3145              	.LASF104:
 3146 0692 5F6D6274 		.ascii	"_mbtowc_state\000"
 3146      6F77635F 
 3146      73746174 
 3146      6500
 3147              	.LASF79:
 3148 06a0 5F703573 		.ascii	"_p5s\000"
 3148      00
 3149              	.LASF126:
 3150 06a5 55426173 		.ascii	"UBaseType_t\000"
 3150      65547970 
 3150      655F7400 
 3151              	.LASF142:
 3152 06b1 70784C69 		.ascii	"pxList\000"
 3152      737400
 3153              	.LASF32:
 3154 06b8 5F5F746D 		.ascii	"__tm_mday\000"
 3154      5F6D6461 
 3154      7900
 3155              		.ident	"GCC: (GNU Tools for Arm Embedded Processors 9-2019-q4-major) 9.2.1 20191025 (release) [ARM
ARM GAS  C:\Users\skey\AppData\Local\Temp\ccx2DgoR.s 			page 66


DEFINED SYMBOLS
                            *ABS*:00000000 list.c
C:\Users\skey\AppData\Local\Temp\ccx2DgoR.s:75     .text:00000000 $t
C:\Users\skey\AppData\Local\Temp\ccx2DgoR.s:83     .text:00000000 vListInitialise
C:\Users\skey\AppData\Local\Temp\ccx2DgoR.s:130    .text:00000016 vListInitialiseItem
C:\Users\skey\AppData\Local\Temp\ccx2DgoR.s:158    .text:0000001c vListInsertEnd
C:\Users\skey\AppData\Local\Temp\ccx2DgoR.s:220    .text:00000034 vListInsert
C:\Users\skey\AppData\Local\Temp\ccx2DgoR.s:319    .text:00000062 uxListRemove

NO UNDEFINED SYMBOLS
