ARM GAS  C:\Users\skey\AppData\Local\Temp\cceKeKCB.s 			page 1


   1              		.cpu cortex-m3
   2              		.eabi_attribute 20, 1	@ Tag_ABI_FP_denormal
   3              		.eabi_attribute 21, 1	@ Tag_ABI_FP_exceptions
   4              		.eabi_attribute 23, 3	@ Tag_ABI_FP_number_model
   5              		.eabi_attribute 24, 1	@ Tag_ABI_align8_needed
   6              		.eabi_attribute 25, 1	@ Tag_ABI_align8_preserved
   7              		.eabi_attribute 26, 1	@ Tag_ABI_enum_size
   8              		.eabi_attribute 30, 4	@ Tag_ABI_optimization_goals
   9              		.eabi_attribute 34, 1	@ Tag_CPU_unaligned_access
  10              		.eabi_attribute 18, 4	@ Tag_ABI_PCS_wchar_t
  11              		.file	"timers.c"
  12              	@ GNU C17 (GNU Tools for Arm Embedded Processors 9-2019-q4-major) version 9.2.1 20191025 (release) 
  13              	@	compiled by GNU C version 5.3.1 20160211, GMP version 6.1.0, MPFR version 3.1.4, MPC version 1.0.
  14              	
  15              	@ GGC heuristics: --param ggc-min-expand=100 --param ggc-min-heapsize=131072
  16              	@ options passed:  -I . -I .\usr_inc -I .\task_inc
  17              	@ -I .\stlib\CMSIS\CM3\CoreSupport
  18              	@ -I .\stlib\CMSIS\CM3\DeviceSupport\ST\STM32F10x
  19              	@ -I .\stlib\STM32F10x_StdPeriph_Driver\inc
  20              	@ -I .\stlib\STM32F10x_StdPeriph_Driver -I .\freertos\include
  21              	@ -I .\freertos\portable\GCC\ARM_CM3 -imultilib thumb/v7-m/nofp
  22              	@ -iprefix c:\program files (x86)\gnu tools arm embedded\9 2019-q4-major\bin\../lib/gcc/arm-none-ea
  23              	@ -isysroot c:\program files (x86)\gnu tools arm embedded\9 2019-q4-major\bin\../arm-none-eabi
  24              	@ -D__USES_INITFINI__ -D STM32F10X_HD -D USE_STDPERIPH_DRIVER
  25              	@ -D HSE_VALUE=8000000 -D RUN_FROM_FLASH=1 .\freertos\timers.c
  26              	@ -mcpu=cortex-m3 -mthumb -mfloat-abi=soft -march=armv7-m
  27              	@ -auxbase-strip .\freertos\timers.o -g -gdwarf-2 -Os -Wall
  28              	@ -fomit-frame-pointer -fverbose-asm
  29              	@ options enabled:  -faggressive-loop-optimizations -fassume-phsa
  30              	@ -fauto-inc-dec -fbranch-count-reg -fcaller-saves -fcode-hoisting
  31              	@ -fcombine-stack-adjustments -fcommon -fcompare-elim -fcprop-registers
  32              	@ -fcrossjumping -fcse-follow-jumps -fdefer-pop
  33              	@ -fdelete-null-pointer-checks -fdevirtualize -fdevirtualize-speculatively
  34              	@ -fdwarf2-cfi-asm -fearly-inlining -feliminate-unused-debug-types
  35              	@ -fexpensive-optimizations -fforward-propagate -ffp-int-builtin-inexact
  36              	@ -ffunction-cse -fgcse -fgcse-lm -fgnu-runtime -fgnu-unique
  37              	@ -fguess-branch-probability -fhoist-adjacent-loads -fident -fif-conversion
  38              	@ -fif-conversion2 -findirect-inlining -finline -finline-atomics
  39              	@ -finline-functions -finline-functions-called-once
  40              	@ -finline-small-functions -fipa-bit-cp -fipa-cp -fipa-icf
  41              	@ -fipa-icf-functions -fipa-icf-variables -fipa-profile -fipa-pure-const
  42              	@ -fipa-ra -fipa-reference -fipa-reference-addressable -fipa-sra
  43              	@ -fipa-stack-alignment -fipa-vrp -fira-hoist-pressure
  44              	@ -fira-share-save-slots -fira-share-spill-slots
  45              	@ -fisolate-erroneous-paths-dereference -fivopts -fkeep-static-consts
  46              	@ -fleading-underscore -flifetime-dse -flra-remat -flto-odr-type-merging
  47              	@ -fmath-errno -fmerge-constants -fmerge-debug-strings
  48              	@ -fmove-loop-invariants -fomit-frame-pointer -foptimize-sibling-calls
  49              	@ -fpartial-inlining -fpeephole -fpeephole2 -fplt -fprefetch-loop-arrays
  50              	@ -freg-struct-return -freorder-blocks -freorder-functions
  51              	@ -frerun-cse-after-loop -fsched-critical-path-heuristic
  52              	@ -fsched-dep-count-heuristic -fsched-group-heuristic -fsched-interblock
  53              	@ -fsched-last-insn-heuristic -fsched-pressure -fsched-rank-heuristic
  54              	@ -fsched-spec -fsched-spec-insn-heuristic -fsched-stalled-insns-dep
  55              	@ -fschedule-insns2 -fsection-anchors -fsemantic-interposition
  56              	@ -fshow-column -fshrink-wrap-separate -fsigned-zeros
  57              	@ -fsplit-ivs-in-unroller -fsplit-wide-types -fssa-backprop -fssa-phiopt
ARM GAS  C:\Users\skey\AppData\Local\Temp\cceKeKCB.s 			page 2


  58              	@ -fstdarg-opt -fstore-merging -fstrict-aliasing
  59              	@ -fstrict-volatile-bitfields -fsync-libcalls -fthread-jumps
  60              	@ -ftoplevel-reorder -ftrapping-math -ftree-bit-ccp -ftree-builtin-call-dce
  61              	@ -ftree-ccp -ftree-ch -ftree-coalesce-vars -ftree-copy-prop -ftree-cselim
  62              	@ -ftree-dce -ftree-dominator-opts -ftree-dse -ftree-forwprop -ftree-fre
  63              	@ -ftree-loop-if-convert -ftree-loop-im -ftree-loop-ivcanon
  64              	@ -ftree-loop-optimize -ftree-parallelize-loops= -ftree-phiprop -ftree-pre
  65              	@ -ftree-pta -ftree-reassoc -ftree-scev-cprop -ftree-sink -ftree-slsr
  66              	@ -ftree-sra -ftree-switch-conversion -ftree-tail-merge -ftree-ter
  67              	@ -ftree-vrp -funit-at-a-time -fvar-tracking -fvar-tracking-assignments
  68              	@ -fverbose-asm -fzero-initialized-in-bss -masm-syntax-unified -mbe32
  69              	@ -mfix-cortex-m3-ldrd -mlittle-endian -mpic-data-is-text-relative
  70              	@ -msched-prolog -mthumb -munaligned-access -mvectorize-with-neon-quad
  71              	
  72              		.text
  73              	.Ltext0:
  74              		.cfi_sections	.debug_frame
  75              		.align	1
  76              		.arch armv7-m
  77              		.syntax unified
  78              		.thumb
  79              		.thumb_func
  80              		.fpu softvfp
  81              		.type	prvCheckForValidListAndQueue, %function
  82              	prvCheckForValidListAndQueue:
  83              	.LFB51:
  84              		.file 1 ".\\freertos\\timers.c"
   1:.\freertos/timers.c **** /*
   2:.\freertos/timers.c ****  * FreeRTOS Kernel V10.2.1
   3:.\freertos/timers.c ****  * Copyright (C) 2019 Amazon.com, Inc. or its affiliates.  All Rights Reserved.
   4:.\freertos/timers.c ****  *
   5:.\freertos/timers.c ****  * Permission is hereby granted, free of charge, to any person obtaining a copy of
   6:.\freertos/timers.c ****  * this software and associated documentation files (the "Software"), to deal in
   7:.\freertos/timers.c ****  * the Software without restriction, including without limitation the rights to
   8:.\freertos/timers.c ****  * use, copy, modify, merge, publish, distribute, sublicense, and/or sell copies of
   9:.\freertos/timers.c ****  * the Software, and to permit persons to whom the Software is furnished to do so,
  10:.\freertos/timers.c ****  * subject to the following conditions:
  11:.\freertos/timers.c ****  *
  12:.\freertos/timers.c ****  * The above copyright notice and this permission notice shall be included in all
  13:.\freertos/timers.c ****  * copies or substantial portions of the Software.
  14:.\freertos/timers.c ****  *
  15:.\freertos/timers.c ****  * THE SOFTWARE IS PROVIDED "AS IS", WITHOUT WARRANTY OF ANY KIND, EXPRESS OR
  16:.\freertos/timers.c ****  * IMPLIED, INCLUDING BUT NOT LIMITED TO THE WARRANTIES OF MERCHANTABILITY, FITNESS
  17:.\freertos/timers.c ****  * FOR A PARTICULAR PURPOSE AND NONINFRINGEMENT. IN NO EVENT SHALL THE AUTHORS OR
  18:.\freertos/timers.c ****  * COPYRIGHT HOLDERS BE LIABLE FOR ANY CLAIM, DAMAGES OR OTHER LIABILITY, WHETHER
  19:.\freertos/timers.c ****  * IN AN ACTION OF CONTRACT, TORT OR OTHERWISE, ARISING FROM, OUT OF OR IN
  20:.\freertos/timers.c ****  * CONNECTION WITH THE SOFTWARE OR THE USE OR OTHER DEALINGS IN THE SOFTWARE.
  21:.\freertos/timers.c ****  *
  22:.\freertos/timers.c ****  * http://www.FreeRTOS.org
  23:.\freertos/timers.c ****  * http://aws.amazon.com/freertos
  24:.\freertos/timers.c ****  *
  25:.\freertos/timers.c ****  * 1 tab == 4 spaces!
  26:.\freertos/timers.c ****  */
  27:.\freertos/timers.c **** 
  28:.\freertos/timers.c **** /* Standard includes. */
  29:.\freertos/timers.c **** #include <stdlib.h>
  30:.\freertos/timers.c **** 
ARM GAS  C:\Users\skey\AppData\Local\Temp\cceKeKCB.s 			page 3


  31:.\freertos/timers.c **** /* Defining MPU_WRAPPERS_INCLUDED_FROM_API_FILE prevents task.h from redefining
  32:.\freertos/timers.c **** all the API functions to use the MPU wrappers.  That should only be done when
  33:.\freertos/timers.c **** task.h is included from an application file. */
  34:.\freertos/timers.c **** #define MPU_WRAPPERS_INCLUDED_FROM_API_FILE
  35:.\freertos/timers.c **** 
  36:.\freertos/timers.c **** #include "FreeRTOS.h"
  37:.\freertos/timers.c **** #include "task.h"
  38:.\freertos/timers.c **** #include "queue.h"
  39:.\freertos/timers.c **** #include "timers.h"
  40:.\freertos/timers.c **** 
  41:.\freertos/timers.c **** #if ( INCLUDE_xTimerPendFunctionCall == 1 ) && ( configUSE_TIMERS == 0 )
  42:.\freertos/timers.c **** 	#error configUSE_TIMERS must be set to 1 to make the xTimerPendFunctionCall() function available.
  43:.\freertos/timers.c **** #endif
  44:.\freertos/timers.c **** 
  45:.\freertos/timers.c **** /* Lint e9021, e961 and e750 are suppressed as a MISRA exception justified
  46:.\freertos/timers.c **** because the MPU ports require MPU_WRAPPERS_INCLUDED_FROM_API_FILE to be defined
  47:.\freertos/timers.c **** for the header files above, but not in this file, in order to generate the
  48:.\freertos/timers.c **** correct privileged Vs unprivileged linkage and placement. */
  49:.\freertos/timers.c **** #undef MPU_WRAPPERS_INCLUDED_FROM_API_FILE /*lint !e9021 !e961 !e750. */
  50:.\freertos/timers.c **** 
  51:.\freertos/timers.c **** 
  52:.\freertos/timers.c **** /* This entire source file will be skipped if the application is not configured
  53:.\freertos/timers.c **** to include software timer functionality.  This #if is closed at the very bottom
  54:.\freertos/timers.c **** of this file.  If you want to include software timer functionality then ensure
  55:.\freertos/timers.c **** configUSE_TIMERS is set to 1 in FreeRTOSConfig.h. */
  56:.\freertos/timers.c **** #if ( configUSE_TIMERS == 1 )
  57:.\freertos/timers.c **** 
  58:.\freertos/timers.c **** /* Misc definitions. */
  59:.\freertos/timers.c **** #define tmrNO_DELAY		( TickType_t ) 0U
  60:.\freertos/timers.c **** 
  61:.\freertos/timers.c **** /* The name assigned to the timer service task.  This can be overridden by
  62:.\freertos/timers.c **** defining trmTIMER_SERVICE_TASK_NAME in FreeRTOSConfig.h. */
  63:.\freertos/timers.c **** #ifndef configTIMER_SERVICE_TASK_NAME
  64:.\freertos/timers.c **** 	#define configTIMER_SERVICE_TASK_NAME "Tmr Svc"
  65:.\freertos/timers.c **** #endif
  66:.\freertos/timers.c **** 
  67:.\freertos/timers.c **** /* Bit definitions used in the ucStatus member of a timer structure. */
  68:.\freertos/timers.c **** #define tmrSTATUS_IS_ACTIVE					( ( uint8_t ) 0x01 )
  69:.\freertos/timers.c **** #define tmrSTATUS_IS_STATICALLY_ALLOCATED	( ( uint8_t ) 0x02 )
  70:.\freertos/timers.c **** #define tmrSTATUS_IS_AUTORELOAD				( ( uint8_t ) 0x04 )
  71:.\freertos/timers.c **** 
  72:.\freertos/timers.c **** /* The definition of the timers themselves. */
  73:.\freertos/timers.c **** typedef struct tmrTimerControl /* The old naming convention is used to prevent breaking kernel awar
  74:.\freertos/timers.c **** {
  75:.\freertos/timers.c **** 	const char				*pcTimerName;		/*<< Text name.  This is not used by the kernel, it is included simpl
  76:.\freertos/timers.c **** 	ListItem_t				xTimerListItem;		/*<< Standard linked list item as used by all kernel features for e
  77:.\freertos/timers.c **** 	TickType_t				xTimerPeriodInTicks;/*<< How quickly and often the timer expires. */
  78:.\freertos/timers.c **** 	void 					*pvTimerID;			/*<< An ID to identify the timer.  This allows the timer to be identified 
  79:.\freertos/timers.c **** 	TimerCallbackFunction_t	pxCallbackFunction;	/*<< The function that will be called when the timer e
  80:.\freertos/timers.c **** 	#if( configUSE_TRACE_FACILITY == 1 )
  81:.\freertos/timers.c **** 		UBaseType_t			uxTimerNumber;		/*<< An ID assigned by trace tools such as FreeRTOS+Trace */
  82:.\freertos/timers.c **** 	#endif
  83:.\freertos/timers.c **** 	uint8_t 				ucStatus;			/*<< Holds bits to say if the timer was statically allocated or not, and i
  84:.\freertos/timers.c **** } xTIMER;
  85:.\freertos/timers.c **** 
  86:.\freertos/timers.c **** /* The old xTIMER name is maintained above then typedefed to the new Timer_t
  87:.\freertos/timers.c **** name below to enable the use of older kernel aware debuggers. */
ARM GAS  C:\Users\skey\AppData\Local\Temp\cceKeKCB.s 			page 4


  88:.\freertos/timers.c **** typedef xTIMER Timer_t;
  89:.\freertos/timers.c **** 
  90:.\freertos/timers.c **** /* The definition of messages that can be sent and received on the timer queue.
  91:.\freertos/timers.c **** Two types of message can be queued - messages that manipulate a software timer,
  92:.\freertos/timers.c **** and messages that request the execution of a non-timer related callback.  The
  93:.\freertos/timers.c **** two message types are defined in two separate structures, xTimerParametersType
  94:.\freertos/timers.c **** and xCallbackParametersType respectively. */
  95:.\freertos/timers.c **** typedef struct tmrTimerParameters
  96:.\freertos/timers.c **** {
  97:.\freertos/timers.c **** 	TickType_t			xMessageValue;		/*<< An optional value used by a subset of commands, for example, whe
  98:.\freertos/timers.c **** 	Timer_t *			pxTimer;			/*<< The timer to which the command will be applied. */
  99:.\freertos/timers.c **** } TimerParameter_t;
 100:.\freertos/timers.c **** 
 101:.\freertos/timers.c **** 
 102:.\freertos/timers.c **** typedef struct tmrCallbackParameters
 103:.\freertos/timers.c **** {
 104:.\freertos/timers.c **** 	PendedFunction_t	pxCallbackFunction;	/* << The callback function to execute. */
 105:.\freertos/timers.c **** 	void *pvParameter1;						/* << The value that will be used as the callback functions first paramet
 106:.\freertos/timers.c **** 	uint32_t ulParameter2;					/* << The value that will be used as the callback functions second para
 107:.\freertos/timers.c **** } CallbackParameters_t;
 108:.\freertos/timers.c **** 
 109:.\freertos/timers.c **** /* The structure that contains the two message types, along with an identifier
 110:.\freertos/timers.c **** that is used to determine which message type is valid. */
 111:.\freertos/timers.c **** typedef struct tmrTimerQueueMessage
 112:.\freertos/timers.c **** {
 113:.\freertos/timers.c **** 	BaseType_t			xMessageID;			/*<< The command being sent to the timer service task. */
 114:.\freertos/timers.c **** 	union
 115:.\freertos/timers.c **** 	{
 116:.\freertos/timers.c **** 		TimerParameter_t xTimerParameters;
 117:.\freertos/timers.c **** 
 118:.\freertos/timers.c **** 		/* Don't include xCallbackParameters if it is not going to be used as
 119:.\freertos/timers.c **** 		it makes the structure (and therefore the timer queue) larger. */
 120:.\freertos/timers.c **** 		#if ( INCLUDE_xTimerPendFunctionCall == 1 )
 121:.\freertos/timers.c **** 			CallbackParameters_t xCallbackParameters;
 122:.\freertos/timers.c **** 		#endif /* INCLUDE_xTimerPendFunctionCall */
 123:.\freertos/timers.c **** 	} u;
 124:.\freertos/timers.c **** } DaemonTaskMessage_t;
 125:.\freertos/timers.c **** 
 126:.\freertos/timers.c **** /*lint -save -e956 A manual analysis and inspection has been used to determine
 127:.\freertos/timers.c **** which static variables must be declared volatile. */
 128:.\freertos/timers.c **** 
 129:.\freertos/timers.c **** /* The list in which active timers are stored.  Timers are referenced in expire
 130:.\freertos/timers.c **** time order, with the nearest expiry time at the front of the list.  Only the
 131:.\freertos/timers.c **** timer service task is allowed to access these lists.
 132:.\freertos/timers.c **** xActiveTimerList1 and xActiveTimerList2 could be at function scope but that
 133:.\freertos/timers.c **** breaks some kernel aware debuggers, and debuggers that reply on removing the
 134:.\freertos/timers.c **** static qualifier. */
 135:.\freertos/timers.c **** PRIVILEGED_DATA static List_t xActiveTimerList1;
 136:.\freertos/timers.c **** PRIVILEGED_DATA static List_t xActiveTimerList2;
 137:.\freertos/timers.c **** PRIVILEGED_DATA static List_t *pxCurrentTimerList;
 138:.\freertos/timers.c **** PRIVILEGED_DATA static List_t *pxOverflowTimerList;
 139:.\freertos/timers.c **** 
 140:.\freertos/timers.c **** /* A queue that is used to send commands to the timer service task. */
 141:.\freertos/timers.c **** PRIVILEGED_DATA static QueueHandle_t xTimerQueue = NULL;
 142:.\freertos/timers.c **** PRIVILEGED_DATA static TaskHandle_t xTimerTaskHandle = NULL;
 143:.\freertos/timers.c **** 
 144:.\freertos/timers.c **** /*lint -restore */
ARM GAS  C:\Users\skey\AppData\Local\Temp\cceKeKCB.s 			page 5


 145:.\freertos/timers.c **** 
 146:.\freertos/timers.c **** /*-----------------------------------------------------------*/
 147:.\freertos/timers.c **** 
 148:.\freertos/timers.c **** #if( configSUPPORT_STATIC_ALLOCATION == 1 )
 149:.\freertos/timers.c **** 
 150:.\freertos/timers.c **** 	/* If static allocation is supported then the application must provide the
 151:.\freertos/timers.c **** 	following callback function - which enables the application to optionally
 152:.\freertos/timers.c **** 	provide the memory that will be used by the timer task as the task's stack
 153:.\freertos/timers.c **** 	and TCB. */
 154:.\freertos/timers.c **** 	extern void vApplicationGetTimerTaskMemory( StaticTask_t **ppxTimerTaskTCBBuffer, StackType_t **pp
 155:.\freertos/timers.c **** 
 156:.\freertos/timers.c **** #endif
 157:.\freertos/timers.c **** 
 158:.\freertos/timers.c **** /*
 159:.\freertos/timers.c ****  * Initialise the infrastructure used by the timer service task if it has not
 160:.\freertos/timers.c ****  * been initialised already.
 161:.\freertos/timers.c ****  */
 162:.\freertos/timers.c **** static void prvCheckForValidListAndQueue( void ) PRIVILEGED_FUNCTION;
 163:.\freertos/timers.c **** 
 164:.\freertos/timers.c **** /*
 165:.\freertos/timers.c ****  * The timer service task (daemon).  Timer functionality is controlled by this
 166:.\freertos/timers.c ****  * task.  Other tasks communicate with the timer service task using the
 167:.\freertos/timers.c ****  * xTimerQueue queue.
 168:.\freertos/timers.c ****  */
 169:.\freertos/timers.c **** static portTASK_FUNCTION_PROTO( prvTimerTask, pvParameters ) PRIVILEGED_FUNCTION;
 170:.\freertos/timers.c **** 
 171:.\freertos/timers.c **** /*
 172:.\freertos/timers.c ****  * Called by the timer service task to interpret and process a command it
 173:.\freertos/timers.c ****  * received on the timer queue.
 174:.\freertos/timers.c ****  */
 175:.\freertos/timers.c **** static void prvProcessReceivedCommands( void ) PRIVILEGED_FUNCTION;
 176:.\freertos/timers.c **** 
 177:.\freertos/timers.c **** /*
 178:.\freertos/timers.c ****  * Insert the timer into either xActiveTimerList1, or xActiveTimerList2,
 179:.\freertos/timers.c ****  * depending on if the expire time causes a timer counter overflow.
 180:.\freertos/timers.c ****  */
 181:.\freertos/timers.c **** static BaseType_t prvInsertTimerInActiveList( Timer_t * const pxTimer, const TickType_t xNextExpiry
 182:.\freertos/timers.c **** 
 183:.\freertos/timers.c **** /*
 184:.\freertos/timers.c ****  * An active timer has reached its expire time.  Reload the timer if it is an
 185:.\freertos/timers.c ****  * auto reload timer, then call its callback.
 186:.\freertos/timers.c ****  */
 187:.\freertos/timers.c **** static void prvProcessExpiredTimer( const TickType_t xNextExpireTime, const TickType_t xTimeNow ) P
 188:.\freertos/timers.c **** 
 189:.\freertos/timers.c **** /*
 190:.\freertos/timers.c ****  * The tick count has overflowed.  Switch the timer lists after ensuring the
 191:.\freertos/timers.c ****  * current timer list does not still reference some timers.
 192:.\freertos/timers.c ****  */
 193:.\freertos/timers.c **** static void prvSwitchTimerLists( void ) PRIVILEGED_FUNCTION;
 194:.\freertos/timers.c **** 
 195:.\freertos/timers.c **** /*
 196:.\freertos/timers.c ****  * Obtain the current tick count, setting *pxTimerListsWereSwitched to pdTRUE
 197:.\freertos/timers.c ****  * if a tick count overflow occurred since prvSampleTimeNow() was last called.
 198:.\freertos/timers.c ****  */
 199:.\freertos/timers.c **** static TickType_t prvSampleTimeNow( BaseType_t * const pxTimerListsWereSwitched ) PRIVILEGED_FUNCTI
 200:.\freertos/timers.c **** 
 201:.\freertos/timers.c **** /*
ARM GAS  C:\Users\skey\AppData\Local\Temp\cceKeKCB.s 			page 6


 202:.\freertos/timers.c ****  * If the timer list contains any active timers then return the expire time of
 203:.\freertos/timers.c ****  * the timer that will expire first and set *pxListWasEmpty to false.  If the
 204:.\freertos/timers.c ****  * timer list does not contain any timers then return 0 and set *pxListWasEmpty
 205:.\freertos/timers.c ****  * to pdTRUE.
 206:.\freertos/timers.c ****  */
 207:.\freertos/timers.c **** static TickType_t prvGetNextExpireTime( BaseType_t * const pxListWasEmpty ) PRIVILEGED_FUNCTION;
 208:.\freertos/timers.c **** 
 209:.\freertos/timers.c **** /*
 210:.\freertos/timers.c ****  * If a timer has expired, process it.  Otherwise, block the timer service task
 211:.\freertos/timers.c ****  * until either a timer does expire or a command is received.
 212:.\freertos/timers.c ****  */
 213:.\freertos/timers.c **** static void prvProcessTimerOrBlockTask( const TickType_t xNextExpireTime, BaseType_t xListWasEmpty 
 214:.\freertos/timers.c **** 
 215:.\freertos/timers.c **** /*
 216:.\freertos/timers.c ****  * Called after a Timer_t structure has been allocated either statically or
 217:.\freertos/timers.c ****  * dynamically to fill in the structure's members.
 218:.\freertos/timers.c ****  */
 219:.\freertos/timers.c **** static void prvInitialiseNewTimer(	const char * const pcTimerName,			/*lint !e971 Unqualified char 
 220:.\freertos/timers.c **** 									const TickType_t xTimerPeriodInTicks,
 221:.\freertos/timers.c **** 									const UBaseType_t uxAutoReload,
 222:.\freertos/timers.c **** 									void * const pvTimerID,
 223:.\freertos/timers.c **** 									TimerCallbackFunction_t pxCallbackFunction,
 224:.\freertos/timers.c **** 									Timer_t *pxNewTimer ) PRIVILEGED_FUNCTION;
 225:.\freertos/timers.c **** /*-----------------------------------------------------------*/
 226:.\freertos/timers.c **** 
 227:.\freertos/timers.c **** BaseType_t xTimerCreateTimerTask( void )
 228:.\freertos/timers.c **** {
 229:.\freertos/timers.c **** BaseType_t xReturn = pdFAIL;
 230:.\freertos/timers.c **** 
 231:.\freertos/timers.c **** 	/* This function is called when the scheduler is started if
 232:.\freertos/timers.c **** 	configUSE_TIMERS is set to 1.  Check that the infrastructure used by the
 233:.\freertos/timers.c **** 	timer service task has been created/initialised.  If timers have already
 234:.\freertos/timers.c **** 	been created then the initialisation will already have been performed. */
 235:.\freertos/timers.c **** 	prvCheckForValidListAndQueue();
 236:.\freertos/timers.c **** 
 237:.\freertos/timers.c **** 	if( xTimerQueue != NULL )
 238:.\freertos/timers.c **** 	{
 239:.\freertos/timers.c **** 		#if( configSUPPORT_STATIC_ALLOCATION == 1 )
 240:.\freertos/timers.c **** 		{
 241:.\freertos/timers.c **** 			StaticTask_t *pxTimerTaskTCBBuffer = NULL;
 242:.\freertos/timers.c **** 			StackType_t *pxTimerTaskStackBuffer = NULL;
 243:.\freertos/timers.c **** 			uint32_t ulTimerTaskStackSize;
 244:.\freertos/timers.c **** 
 245:.\freertos/timers.c **** 			vApplicationGetTimerTaskMemory( &pxTimerTaskTCBBuffer, &pxTimerTaskStackBuffer, &ulTimerTaskStac
 246:.\freertos/timers.c **** 			xTimerTaskHandle = xTaskCreateStatic(	prvTimerTask,
 247:.\freertos/timers.c **** 													configTIMER_SERVICE_TASK_NAME,
 248:.\freertos/timers.c **** 													ulTimerTaskStackSize,
 249:.\freertos/timers.c **** 													NULL,
 250:.\freertos/timers.c **** 													( ( UBaseType_t ) configTIMER_TASK_PRIORITY ) | portPRIVILEGE_BIT,
 251:.\freertos/timers.c **** 													pxTimerTaskStackBuffer,
 252:.\freertos/timers.c **** 													pxTimerTaskTCBBuffer );
 253:.\freertos/timers.c **** 
 254:.\freertos/timers.c **** 			if( xTimerTaskHandle != NULL )
 255:.\freertos/timers.c **** 			{
 256:.\freertos/timers.c **** 				xReturn = pdPASS;
 257:.\freertos/timers.c **** 			}
 258:.\freertos/timers.c **** 		}
ARM GAS  C:\Users\skey\AppData\Local\Temp\cceKeKCB.s 			page 7


 259:.\freertos/timers.c **** 		#else
 260:.\freertos/timers.c **** 		{
 261:.\freertos/timers.c **** 			xReturn = xTaskCreate(	prvTimerTask,
 262:.\freertos/timers.c **** 									configTIMER_SERVICE_TASK_NAME,
 263:.\freertos/timers.c **** 									configTIMER_TASK_STACK_DEPTH,
 264:.\freertos/timers.c **** 									NULL,
 265:.\freertos/timers.c **** 									( ( UBaseType_t ) configTIMER_TASK_PRIORITY ) | portPRIVILEGE_BIT,
 266:.\freertos/timers.c **** 									&xTimerTaskHandle );
 267:.\freertos/timers.c **** 		}
 268:.\freertos/timers.c **** 		#endif /* configSUPPORT_STATIC_ALLOCATION */
 269:.\freertos/timers.c **** 	}
 270:.\freertos/timers.c **** 	else
 271:.\freertos/timers.c **** 	{
 272:.\freertos/timers.c **** 		mtCOVERAGE_TEST_MARKER();
 273:.\freertos/timers.c **** 	}
 274:.\freertos/timers.c **** 
 275:.\freertos/timers.c **** 	configASSERT( xReturn );
 276:.\freertos/timers.c **** 	return xReturn;
 277:.\freertos/timers.c **** }
 278:.\freertos/timers.c **** /*-----------------------------------------------------------*/
 279:.\freertos/timers.c **** 
 280:.\freertos/timers.c **** #if( configSUPPORT_DYNAMIC_ALLOCATION == 1 )
 281:.\freertos/timers.c **** 
 282:.\freertos/timers.c **** 	TimerHandle_t xTimerCreate(	const char * const pcTimerName,			/*lint !e971 Unqualified char types 
 283:.\freertos/timers.c **** 								const TickType_t xTimerPeriodInTicks,
 284:.\freertos/timers.c **** 								const UBaseType_t uxAutoReload,
 285:.\freertos/timers.c **** 								void * const pvTimerID,
 286:.\freertos/timers.c **** 								TimerCallbackFunction_t pxCallbackFunction )
 287:.\freertos/timers.c **** 	{
 288:.\freertos/timers.c **** 	Timer_t *pxNewTimer;
 289:.\freertos/timers.c **** 
 290:.\freertos/timers.c **** 		pxNewTimer = ( Timer_t * ) pvPortMalloc( sizeof( Timer_t ) ); /*lint !e9087 !e9079 All values ret
 291:.\freertos/timers.c **** 
 292:.\freertos/timers.c **** 		if( pxNewTimer != NULL )
 293:.\freertos/timers.c **** 		{
 294:.\freertos/timers.c **** 			/* Status is thus far zero as the timer is not created statically
 295:.\freertos/timers.c **** 			and has not been started.  The autoreload bit may get set in
 296:.\freertos/timers.c **** 			prvInitialiseNewTimer. */
 297:.\freertos/timers.c **** 			pxNewTimer->ucStatus = 0x00;
 298:.\freertos/timers.c **** 			prvInitialiseNewTimer( pcTimerName, xTimerPeriodInTicks, uxAutoReload, pvTimerID, pxCallbackFunc
 299:.\freertos/timers.c **** 		}
 300:.\freertos/timers.c **** 
 301:.\freertos/timers.c **** 		return pxNewTimer;
 302:.\freertos/timers.c **** 	}
 303:.\freertos/timers.c **** 
 304:.\freertos/timers.c **** #endif /* configSUPPORT_DYNAMIC_ALLOCATION */
 305:.\freertos/timers.c **** /*-----------------------------------------------------------*/
 306:.\freertos/timers.c **** 
 307:.\freertos/timers.c **** #if( configSUPPORT_STATIC_ALLOCATION == 1 )
 308:.\freertos/timers.c **** 
 309:.\freertos/timers.c **** 	TimerHandle_t xTimerCreateStatic(	const char * const pcTimerName,		/*lint !e971 Unqualified char t
 310:.\freertos/timers.c **** 										const TickType_t xTimerPeriodInTicks,
 311:.\freertos/timers.c **** 										const UBaseType_t uxAutoReload,
 312:.\freertos/timers.c **** 										void * const pvTimerID,
 313:.\freertos/timers.c **** 										TimerCallbackFunction_t pxCallbackFunction,
 314:.\freertos/timers.c **** 										StaticTimer_t *pxTimerBuffer )
 315:.\freertos/timers.c **** 	{
ARM GAS  C:\Users\skey\AppData\Local\Temp\cceKeKCB.s 			page 8


 316:.\freertos/timers.c **** 	Timer_t *pxNewTimer;
 317:.\freertos/timers.c **** 
 318:.\freertos/timers.c **** 		#if( configASSERT_DEFINED == 1 )
 319:.\freertos/timers.c **** 		{
 320:.\freertos/timers.c **** 			/* Sanity check that the size of the structure used to declare a
 321:.\freertos/timers.c **** 			variable of type StaticTimer_t equals the size of the real timer
 322:.\freertos/timers.c **** 			structure. */
 323:.\freertos/timers.c **** 			volatile size_t xSize = sizeof( StaticTimer_t );
 324:.\freertos/timers.c **** 			configASSERT( xSize == sizeof( Timer_t ) );
 325:.\freertos/timers.c **** 			( void ) xSize; /* Keeps lint quiet when configASSERT() is not defined. */
 326:.\freertos/timers.c **** 		}
 327:.\freertos/timers.c **** 		#endif /* configASSERT_DEFINED */
 328:.\freertos/timers.c **** 
 329:.\freertos/timers.c **** 		/* A pointer to a StaticTimer_t structure MUST be provided, use it. */
 330:.\freertos/timers.c **** 		configASSERT( pxTimerBuffer );
 331:.\freertos/timers.c **** 		pxNewTimer = ( Timer_t * ) pxTimerBuffer; /*lint !e740 !e9087 StaticTimer_t is a pointer to a Tim
 332:.\freertos/timers.c **** 
 333:.\freertos/timers.c **** 		if( pxNewTimer != NULL )
 334:.\freertos/timers.c **** 		{
 335:.\freertos/timers.c **** 			/* Timers can be created statically or dynamically so note this
 336:.\freertos/timers.c **** 			timer was created statically in case it is later deleted.  The
 337:.\freertos/timers.c **** 			autoreload bit may get set in prvInitialiseNewTimer(). */
 338:.\freertos/timers.c **** 			pxNewTimer->ucStatus = tmrSTATUS_IS_STATICALLY_ALLOCATED;
 339:.\freertos/timers.c **** 
 340:.\freertos/timers.c **** 			prvInitialiseNewTimer( pcTimerName, xTimerPeriodInTicks, uxAutoReload, pvTimerID, pxCallbackFunc
 341:.\freertos/timers.c **** 		}
 342:.\freertos/timers.c **** 
 343:.\freertos/timers.c **** 		return pxNewTimer;
 344:.\freertos/timers.c **** 	}
 345:.\freertos/timers.c **** 
 346:.\freertos/timers.c **** #endif /* configSUPPORT_STATIC_ALLOCATION */
 347:.\freertos/timers.c **** /*-----------------------------------------------------------*/
 348:.\freertos/timers.c **** 
 349:.\freertos/timers.c **** static void prvInitialiseNewTimer(	const char * const pcTimerName,			/*lint !e971 Unqualified char 
 350:.\freertos/timers.c **** 									const TickType_t xTimerPeriodInTicks,
 351:.\freertos/timers.c **** 									const UBaseType_t uxAutoReload,
 352:.\freertos/timers.c **** 									void * const pvTimerID,
 353:.\freertos/timers.c **** 									TimerCallbackFunction_t pxCallbackFunction,
 354:.\freertos/timers.c **** 									Timer_t *pxNewTimer )
 355:.\freertos/timers.c **** {
 356:.\freertos/timers.c **** 	/* 0 is not a valid value for xTimerPeriodInTicks. */
 357:.\freertos/timers.c **** 	configASSERT( ( xTimerPeriodInTicks > 0 ) );
 358:.\freertos/timers.c **** 
 359:.\freertos/timers.c **** 	if( pxNewTimer != NULL )
 360:.\freertos/timers.c **** 	{
 361:.\freertos/timers.c **** 		/* Ensure the infrastructure used by the timer service task has been
 362:.\freertos/timers.c **** 		created/initialised. */
 363:.\freertos/timers.c **** 		prvCheckForValidListAndQueue();
 364:.\freertos/timers.c **** 
 365:.\freertos/timers.c **** 		/* Initialise the timer structure members using the function
 366:.\freertos/timers.c **** 		parameters. */
 367:.\freertos/timers.c **** 		pxNewTimer->pcTimerName = pcTimerName;
 368:.\freertos/timers.c **** 		pxNewTimer->xTimerPeriodInTicks = xTimerPeriodInTicks;
 369:.\freertos/timers.c **** 		pxNewTimer->pvTimerID = pvTimerID;
 370:.\freertos/timers.c **** 		pxNewTimer->pxCallbackFunction = pxCallbackFunction;
 371:.\freertos/timers.c **** 		vListInitialiseItem( &( pxNewTimer->xTimerListItem ) );
 372:.\freertos/timers.c **** 		if( uxAutoReload != pdFALSE )
ARM GAS  C:\Users\skey\AppData\Local\Temp\cceKeKCB.s 			page 9


 373:.\freertos/timers.c **** 		{
 374:.\freertos/timers.c **** 			pxNewTimer->ucStatus |= tmrSTATUS_IS_AUTORELOAD;
 375:.\freertos/timers.c **** 		}
 376:.\freertos/timers.c **** 		traceTIMER_CREATE( pxNewTimer );
 377:.\freertos/timers.c **** 	}
 378:.\freertos/timers.c **** }
 379:.\freertos/timers.c **** /*-----------------------------------------------------------*/
 380:.\freertos/timers.c **** 
 381:.\freertos/timers.c **** BaseType_t xTimerGenericCommand( TimerHandle_t xTimer, const BaseType_t xCommandID, const TickType_
 382:.\freertos/timers.c **** {
 383:.\freertos/timers.c **** BaseType_t xReturn = pdFAIL;
 384:.\freertos/timers.c **** DaemonTaskMessage_t xMessage;
 385:.\freertos/timers.c **** 
 386:.\freertos/timers.c **** 	configASSERT( xTimer );
 387:.\freertos/timers.c **** 
 388:.\freertos/timers.c **** 	/* Send a message to the timer service task to perform a particular action
 389:.\freertos/timers.c **** 	on a particular timer definition. */
 390:.\freertos/timers.c **** 	if( xTimerQueue != NULL )
 391:.\freertos/timers.c **** 	{
 392:.\freertos/timers.c **** 		/* Send a command to the timer service task to start the xTimer timer. */
 393:.\freertos/timers.c **** 		xMessage.xMessageID = xCommandID;
 394:.\freertos/timers.c **** 		xMessage.u.xTimerParameters.xMessageValue = xOptionalValue;
 395:.\freertos/timers.c **** 		xMessage.u.xTimerParameters.pxTimer = xTimer;
 396:.\freertos/timers.c **** 
 397:.\freertos/timers.c **** 		if( xCommandID < tmrFIRST_FROM_ISR_COMMAND )
 398:.\freertos/timers.c **** 		{
 399:.\freertos/timers.c **** 			if( xTaskGetSchedulerState() == taskSCHEDULER_RUNNING )
 400:.\freertos/timers.c **** 			{
 401:.\freertos/timers.c **** 				xReturn = xQueueSendToBack( xTimerQueue, &xMessage, xTicksToWait );
 402:.\freertos/timers.c **** 			}
 403:.\freertos/timers.c **** 			else
 404:.\freertos/timers.c **** 			{
 405:.\freertos/timers.c **** 				xReturn = xQueueSendToBack( xTimerQueue, &xMessage, tmrNO_DELAY );
 406:.\freertos/timers.c **** 			}
 407:.\freertos/timers.c **** 		}
 408:.\freertos/timers.c **** 		else
 409:.\freertos/timers.c **** 		{
 410:.\freertos/timers.c **** 			xReturn = xQueueSendToBackFromISR( xTimerQueue, &xMessage, pxHigherPriorityTaskWoken );
 411:.\freertos/timers.c **** 		}
 412:.\freertos/timers.c **** 
 413:.\freertos/timers.c **** 		traceTIMER_COMMAND_SEND( xTimer, xCommandID, xOptionalValue, xReturn );
 414:.\freertos/timers.c **** 	}
 415:.\freertos/timers.c **** 	else
 416:.\freertos/timers.c **** 	{
 417:.\freertos/timers.c **** 		mtCOVERAGE_TEST_MARKER();
 418:.\freertos/timers.c **** 	}
 419:.\freertos/timers.c **** 
 420:.\freertos/timers.c **** 	return xReturn;
 421:.\freertos/timers.c **** }
 422:.\freertos/timers.c **** /*-----------------------------------------------------------*/
 423:.\freertos/timers.c **** 
 424:.\freertos/timers.c **** TaskHandle_t xTimerGetTimerDaemonTaskHandle( void )
 425:.\freertos/timers.c **** {
 426:.\freertos/timers.c **** 	/* If xTimerGetTimerDaemonTaskHandle() is called before the scheduler has been
 427:.\freertos/timers.c **** 	started, then xTimerTaskHandle will be NULL. */
 428:.\freertos/timers.c **** 	configASSERT( ( xTimerTaskHandle != NULL ) );
 429:.\freertos/timers.c **** 	return xTimerTaskHandle;
ARM GAS  C:\Users\skey\AppData\Local\Temp\cceKeKCB.s 			page 10


 430:.\freertos/timers.c **** }
 431:.\freertos/timers.c **** /*-----------------------------------------------------------*/
 432:.\freertos/timers.c **** 
 433:.\freertos/timers.c **** TickType_t xTimerGetPeriod( TimerHandle_t xTimer )
 434:.\freertos/timers.c **** {
 435:.\freertos/timers.c **** Timer_t *pxTimer = xTimer;
 436:.\freertos/timers.c **** 
 437:.\freertos/timers.c **** 	configASSERT( xTimer );
 438:.\freertos/timers.c **** 	return pxTimer->xTimerPeriodInTicks;
 439:.\freertos/timers.c **** }
 440:.\freertos/timers.c **** /*-----------------------------------------------------------*/
 441:.\freertos/timers.c **** 
 442:.\freertos/timers.c **** void vTimerSetReloadMode( TimerHandle_t xTimer, const UBaseType_t uxAutoReload )
 443:.\freertos/timers.c **** {
 444:.\freertos/timers.c **** Timer_t * pxTimer =  xTimer;
 445:.\freertos/timers.c **** 
 446:.\freertos/timers.c **** 	configASSERT( xTimer );
 447:.\freertos/timers.c **** 	taskENTER_CRITICAL();
 448:.\freertos/timers.c **** 	{
 449:.\freertos/timers.c **** 		if( uxAutoReload != pdFALSE )
 450:.\freertos/timers.c **** 		{
 451:.\freertos/timers.c **** 			pxTimer->ucStatus |= tmrSTATUS_IS_AUTORELOAD;
 452:.\freertos/timers.c **** 		}
 453:.\freertos/timers.c **** 		else
 454:.\freertos/timers.c **** 		{
 455:.\freertos/timers.c **** 			pxTimer->ucStatus &= ~tmrSTATUS_IS_AUTORELOAD;
 456:.\freertos/timers.c **** 		}
 457:.\freertos/timers.c **** 	}
 458:.\freertos/timers.c **** 	taskEXIT_CRITICAL();
 459:.\freertos/timers.c **** }
 460:.\freertos/timers.c **** /*-----------------------------------------------------------*/
 461:.\freertos/timers.c **** 
 462:.\freertos/timers.c **** TickType_t xTimerGetExpiryTime( TimerHandle_t xTimer )
 463:.\freertos/timers.c **** {
 464:.\freertos/timers.c **** Timer_t * pxTimer =  xTimer;
 465:.\freertos/timers.c **** TickType_t xReturn;
 466:.\freertos/timers.c **** 
 467:.\freertos/timers.c **** 	configASSERT( xTimer );
 468:.\freertos/timers.c **** 	xReturn = listGET_LIST_ITEM_VALUE( &( pxTimer->xTimerListItem ) );
 469:.\freertos/timers.c **** 	return xReturn;
 470:.\freertos/timers.c **** }
 471:.\freertos/timers.c **** /*-----------------------------------------------------------*/
 472:.\freertos/timers.c **** 
 473:.\freertos/timers.c **** const char * pcTimerGetName( TimerHandle_t xTimer ) /*lint !e971 Unqualified char types are allowed
 474:.\freertos/timers.c **** {
 475:.\freertos/timers.c **** Timer_t *pxTimer = xTimer;
 476:.\freertos/timers.c **** 
 477:.\freertos/timers.c **** 	configASSERT( xTimer );
 478:.\freertos/timers.c **** 	return pxTimer->pcTimerName;
 479:.\freertos/timers.c **** }
 480:.\freertos/timers.c **** /*-----------------------------------------------------------*/
 481:.\freertos/timers.c **** 
 482:.\freertos/timers.c **** static void prvProcessExpiredTimer( const TickType_t xNextExpireTime, const TickType_t xTimeNow )
 483:.\freertos/timers.c **** {
 484:.\freertos/timers.c **** BaseType_t xResult;
 485:.\freertos/timers.c **** Timer_t * const pxTimer = ( Timer_t * ) listGET_OWNER_OF_HEAD_ENTRY( pxCurrentTimerList ); /*lint !
 486:.\freertos/timers.c **** 
ARM GAS  C:\Users\skey\AppData\Local\Temp\cceKeKCB.s 			page 11


 487:.\freertos/timers.c **** 	/* Remove the timer from the list of active timers.  A check has already
 488:.\freertos/timers.c **** 	been performed to ensure the list is not empty. */
 489:.\freertos/timers.c **** 	( void ) uxListRemove( &( pxTimer->xTimerListItem ) );
 490:.\freertos/timers.c **** 	traceTIMER_EXPIRED( pxTimer );
 491:.\freertos/timers.c **** 
 492:.\freertos/timers.c **** 	/* If the timer is an auto reload timer then calculate the next
 493:.\freertos/timers.c **** 	expiry time and re-insert the timer in the list of active timers. */
 494:.\freertos/timers.c **** 	if( ( pxTimer->ucStatus & tmrSTATUS_IS_AUTORELOAD ) != 0 )
 495:.\freertos/timers.c **** 	{
 496:.\freertos/timers.c **** 		/* The timer is inserted into a list using a time relative to anything
 497:.\freertos/timers.c **** 		other than the current time.  It will therefore be inserted into the
 498:.\freertos/timers.c **** 		correct list relative to the time this task thinks it is now. */
 499:.\freertos/timers.c **** 		if( prvInsertTimerInActiveList( pxTimer, ( xNextExpireTime + pxTimer->xTimerPeriodInTicks ), xTim
 500:.\freertos/timers.c **** 		{
 501:.\freertos/timers.c **** 			/* The timer expired before it was added to the active timer
 502:.\freertos/timers.c **** 			list.  Reload it now.  */
 503:.\freertos/timers.c **** 			xResult = xTimerGenericCommand( pxTimer, tmrCOMMAND_START_DONT_TRACE, xNextExpireTime, NULL, tmr
 504:.\freertos/timers.c **** 			configASSERT( xResult );
 505:.\freertos/timers.c **** 			( void ) xResult;
 506:.\freertos/timers.c **** 		}
 507:.\freertos/timers.c **** 		else
 508:.\freertos/timers.c **** 		{
 509:.\freertos/timers.c **** 			mtCOVERAGE_TEST_MARKER();
 510:.\freertos/timers.c **** 		}
 511:.\freertos/timers.c **** 	}
 512:.\freertos/timers.c **** 	else
 513:.\freertos/timers.c **** 	{
 514:.\freertos/timers.c **** 		pxTimer->ucStatus &= ~tmrSTATUS_IS_ACTIVE;
 515:.\freertos/timers.c **** 		mtCOVERAGE_TEST_MARKER();
 516:.\freertos/timers.c **** 	}
 517:.\freertos/timers.c **** 
 518:.\freertos/timers.c **** 	/* Call the timer callback. */
 519:.\freertos/timers.c **** 	pxTimer->pxCallbackFunction( ( TimerHandle_t ) pxTimer );
 520:.\freertos/timers.c **** }
 521:.\freertos/timers.c **** /*-----------------------------------------------------------*/
 522:.\freertos/timers.c **** 
 523:.\freertos/timers.c **** static portTASK_FUNCTION( prvTimerTask, pvParameters )
 524:.\freertos/timers.c **** {
 525:.\freertos/timers.c **** TickType_t xNextExpireTime;
 526:.\freertos/timers.c **** BaseType_t xListWasEmpty;
 527:.\freertos/timers.c **** 
 528:.\freertos/timers.c **** 	/* Just to avoid compiler warnings. */
 529:.\freertos/timers.c **** 	( void ) pvParameters;
 530:.\freertos/timers.c **** 
 531:.\freertos/timers.c **** 	#if( configUSE_DAEMON_TASK_STARTUP_HOOK == 1 )
 532:.\freertos/timers.c **** 	{
 533:.\freertos/timers.c **** 		extern void vApplicationDaemonTaskStartupHook( void );
 534:.\freertos/timers.c **** 
 535:.\freertos/timers.c **** 		/* Allow the application writer to execute some code in the context of
 536:.\freertos/timers.c **** 		this task at the point the task starts executing.  This is useful if the
 537:.\freertos/timers.c **** 		application includes initialisation code that would benefit from
 538:.\freertos/timers.c **** 		executing after the scheduler has been started. */
 539:.\freertos/timers.c **** 		vApplicationDaemonTaskStartupHook();
 540:.\freertos/timers.c **** 	}
 541:.\freertos/timers.c **** 	#endif /* configUSE_DAEMON_TASK_STARTUP_HOOK */
 542:.\freertos/timers.c **** 
 543:.\freertos/timers.c **** 	for( ;; )
ARM GAS  C:\Users\skey\AppData\Local\Temp\cceKeKCB.s 			page 12


 544:.\freertos/timers.c **** 	{
 545:.\freertos/timers.c **** 		/* Query the timers list to see if it contains any timers, and if so,
 546:.\freertos/timers.c **** 		obtain the time at which the next timer will expire. */
 547:.\freertos/timers.c **** 		xNextExpireTime = prvGetNextExpireTime( &xListWasEmpty );
 548:.\freertos/timers.c **** 
 549:.\freertos/timers.c **** 		/* If a timer has expired, process it.  Otherwise, block this task
 550:.\freertos/timers.c **** 		until either a timer does expire, or a command is received. */
 551:.\freertos/timers.c **** 		prvProcessTimerOrBlockTask( xNextExpireTime, xListWasEmpty );
 552:.\freertos/timers.c **** 
 553:.\freertos/timers.c **** 		/* Empty the command queue. */
 554:.\freertos/timers.c **** 		prvProcessReceivedCommands();
 555:.\freertos/timers.c **** 	}
 556:.\freertos/timers.c **** }
 557:.\freertos/timers.c **** /*-----------------------------------------------------------*/
 558:.\freertos/timers.c **** 
 559:.\freertos/timers.c **** static void prvProcessTimerOrBlockTask( const TickType_t xNextExpireTime, BaseType_t xListWasEmpty 
 560:.\freertos/timers.c **** {
 561:.\freertos/timers.c **** TickType_t xTimeNow;
 562:.\freertos/timers.c **** BaseType_t xTimerListsWereSwitched;
 563:.\freertos/timers.c **** 
 564:.\freertos/timers.c **** 	vTaskSuspendAll();
 565:.\freertos/timers.c **** 	{
 566:.\freertos/timers.c **** 		/* Obtain the time now to make an assessment as to whether the timer
 567:.\freertos/timers.c **** 		has expired or not.  If obtaining the time causes the lists to switch
 568:.\freertos/timers.c **** 		then don't process this timer as any timers that remained in the list
 569:.\freertos/timers.c **** 		when the lists were switched will have been processed within the
 570:.\freertos/timers.c **** 		prvSampleTimeNow() function. */
 571:.\freertos/timers.c **** 		xTimeNow = prvSampleTimeNow( &xTimerListsWereSwitched );
 572:.\freertos/timers.c **** 		if( xTimerListsWereSwitched == pdFALSE )
 573:.\freertos/timers.c **** 		{
 574:.\freertos/timers.c **** 			/* The tick count has not overflowed, has the timer expired? */
 575:.\freertos/timers.c **** 			if( ( xListWasEmpty == pdFALSE ) && ( xNextExpireTime <= xTimeNow ) )
 576:.\freertos/timers.c **** 			{
 577:.\freertos/timers.c **** 				( void ) xTaskResumeAll();
 578:.\freertos/timers.c **** 				prvProcessExpiredTimer( xNextExpireTime, xTimeNow );
 579:.\freertos/timers.c **** 			}
 580:.\freertos/timers.c **** 			else
 581:.\freertos/timers.c **** 			{
 582:.\freertos/timers.c **** 				/* The tick count has not overflowed, and the next expire
 583:.\freertos/timers.c **** 				time has not been reached yet.  This task should therefore
 584:.\freertos/timers.c **** 				block to wait for the next expire time or a command to be
 585:.\freertos/timers.c **** 				received - whichever comes first.  The following line cannot
 586:.\freertos/timers.c **** 				be reached unless xNextExpireTime > xTimeNow, except in the
 587:.\freertos/timers.c **** 				case when the current timer list is empty. */
 588:.\freertos/timers.c **** 				if( xListWasEmpty != pdFALSE )
 589:.\freertos/timers.c **** 				{
 590:.\freertos/timers.c **** 					/* The current timer list is empty - is the overflow list
 591:.\freertos/timers.c **** 					also empty? */
 592:.\freertos/timers.c **** 					xListWasEmpty = listLIST_IS_EMPTY( pxOverflowTimerList );
 593:.\freertos/timers.c **** 				}
 594:.\freertos/timers.c **** 
 595:.\freertos/timers.c **** 				vQueueWaitForMessageRestricted( xTimerQueue, ( xNextExpireTime - xTimeNow ), xListWasEmpty );
 596:.\freertos/timers.c **** 
 597:.\freertos/timers.c **** 				if( xTaskResumeAll() == pdFALSE )
 598:.\freertos/timers.c **** 				{
 599:.\freertos/timers.c **** 					/* Yield to wait for either a command to arrive, or the
 600:.\freertos/timers.c **** 					block time to expire.  If a command arrived between the
ARM GAS  C:\Users\skey\AppData\Local\Temp\cceKeKCB.s 			page 13


 601:.\freertos/timers.c **** 					critical section being exited and this yield then the yield
 602:.\freertos/timers.c **** 					will not cause the task to block. */
 603:.\freertos/timers.c **** 					portYIELD_WITHIN_API();
 604:.\freertos/timers.c **** 				}
 605:.\freertos/timers.c **** 				else
 606:.\freertos/timers.c **** 				{
 607:.\freertos/timers.c **** 					mtCOVERAGE_TEST_MARKER();
 608:.\freertos/timers.c **** 				}
 609:.\freertos/timers.c **** 			}
 610:.\freertos/timers.c **** 		}
 611:.\freertos/timers.c **** 		else
 612:.\freertos/timers.c **** 		{
 613:.\freertos/timers.c **** 			( void ) xTaskResumeAll();
 614:.\freertos/timers.c **** 		}
 615:.\freertos/timers.c **** 	}
 616:.\freertos/timers.c **** }
 617:.\freertos/timers.c **** /*-----------------------------------------------------------*/
 618:.\freertos/timers.c **** 
 619:.\freertos/timers.c **** static TickType_t prvGetNextExpireTime( BaseType_t * const pxListWasEmpty )
 620:.\freertos/timers.c **** {
 621:.\freertos/timers.c **** TickType_t xNextExpireTime;
 622:.\freertos/timers.c **** 
 623:.\freertos/timers.c **** 	/* Timers are listed in expiry time order, with the head of the list
 624:.\freertos/timers.c **** 	referencing the task that will expire first.  Obtain the time at which
 625:.\freertos/timers.c **** 	the timer with the nearest expiry time will expire.  If there are no
 626:.\freertos/timers.c **** 	active timers then just set the next expire time to 0.  That will cause
 627:.\freertos/timers.c **** 	this task to unblock when the tick count overflows, at which point the
 628:.\freertos/timers.c **** 	timer lists will be switched and the next expiry time can be
 629:.\freertos/timers.c **** 	re-assessed.  */
 630:.\freertos/timers.c **** 	*pxListWasEmpty = listLIST_IS_EMPTY( pxCurrentTimerList );
 631:.\freertos/timers.c **** 	if( *pxListWasEmpty == pdFALSE )
 632:.\freertos/timers.c **** 	{
 633:.\freertos/timers.c **** 		xNextExpireTime = listGET_ITEM_VALUE_OF_HEAD_ENTRY( pxCurrentTimerList );
 634:.\freertos/timers.c **** 	}
 635:.\freertos/timers.c **** 	else
 636:.\freertos/timers.c **** 	{
 637:.\freertos/timers.c **** 		/* Ensure the task unblocks when the tick count rolls over. */
 638:.\freertos/timers.c **** 		xNextExpireTime = ( TickType_t ) 0U;
 639:.\freertos/timers.c **** 	}
 640:.\freertos/timers.c **** 
 641:.\freertos/timers.c **** 	return xNextExpireTime;
 642:.\freertos/timers.c **** }
 643:.\freertos/timers.c **** /*-----------------------------------------------------------*/
 644:.\freertos/timers.c **** 
 645:.\freertos/timers.c **** static TickType_t prvSampleTimeNow( BaseType_t * const pxTimerListsWereSwitched )
 646:.\freertos/timers.c **** {
 647:.\freertos/timers.c **** TickType_t xTimeNow;
 648:.\freertos/timers.c **** PRIVILEGED_DATA static TickType_t xLastTime = ( TickType_t ) 0U; /*lint !e956 Variable is only acce
 649:.\freertos/timers.c **** 
 650:.\freertos/timers.c **** 	xTimeNow = xTaskGetTickCount();
 651:.\freertos/timers.c **** 
 652:.\freertos/timers.c **** 	if( xTimeNow < xLastTime )
 653:.\freertos/timers.c **** 	{
 654:.\freertos/timers.c **** 		prvSwitchTimerLists();
 655:.\freertos/timers.c **** 		*pxTimerListsWereSwitched = pdTRUE;
 656:.\freertos/timers.c **** 	}
 657:.\freertos/timers.c **** 	else
ARM GAS  C:\Users\skey\AppData\Local\Temp\cceKeKCB.s 			page 14


 658:.\freertos/timers.c **** 	{
 659:.\freertos/timers.c **** 		*pxTimerListsWereSwitched = pdFALSE;
 660:.\freertos/timers.c **** 	}
 661:.\freertos/timers.c **** 
 662:.\freertos/timers.c **** 	xLastTime = xTimeNow;
 663:.\freertos/timers.c **** 
 664:.\freertos/timers.c **** 	return xTimeNow;
 665:.\freertos/timers.c **** }
 666:.\freertos/timers.c **** /*-----------------------------------------------------------*/
 667:.\freertos/timers.c **** 
 668:.\freertos/timers.c **** static BaseType_t prvInsertTimerInActiveList( Timer_t * const pxTimer, const TickType_t xNextExpiry
 669:.\freertos/timers.c **** {
 670:.\freertos/timers.c **** BaseType_t xProcessTimerNow = pdFALSE;
 671:.\freertos/timers.c **** 
 672:.\freertos/timers.c **** 	listSET_LIST_ITEM_VALUE( &( pxTimer->xTimerListItem ), xNextExpiryTime );
 673:.\freertos/timers.c **** 	listSET_LIST_ITEM_OWNER( &( pxTimer->xTimerListItem ), pxTimer );
 674:.\freertos/timers.c **** 
 675:.\freertos/timers.c **** 	if( xNextExpiryTime <= xTimeNow )
 676:.\freertos/timers.c **** 	{
 677:.\freertos/timers.c **** 		/* Has the expiry time elapsed between the command to start/reset a
 678:.\freertos/timers.c **** 		timer was issued, and the time the command was processed? */
 679:.\freertos/timers.c **** 		if( ( ( TickType_t ) ( xTimeNow - xCommandTime ) ) >= pxTimer->xTimerPeriodInTicks ) /*lint !e961
 680:.\freertos/timers.c **** 		{
 681:.\freertos/timers.c **** 			/* The time between a command being issued and the command being
 682:.\freertos/timers.c **** 			processed actually exceeds the timers period.  */
 683:.\freertos/timers.c **** 			xProcessTimerNow = pdTRUE;
 684:.\freertos/timers.c **** 		}
 685:.\freertos/timers.c **** 		else
 686:.\freertos/timers.c **** 		{
 687:.\freertos/timers.c **** 			vListInsert( pxOverflowTimerList, &( pxTimer->xTimerListItem ) );
 688:.\freertos/timers.c **** 		}
 689:.\freertos/timers.c **** 	}
 690:.\freertos/timers.c **** 	else
 691:.\freertos/timers.c **** 	{
 692:.\freertos/timers.c **** 		if( ( xTimeNow < xCommandTime ) && ( xNextExpiryTime >= xCommandTime ) )
 693:.\freertos/timers.c **** 		{
 694:.\freertos/timers.c **** 			/* If, since the command was issued, the tick count has overflowed
 695:.\freertos/timers.c **** 			but the expiry time has not, then the timer must have already passed
 696:.\freertos/timers.c **** 			its expiry time and should be processed immediately. */
 697:.\freertos/timers.c **** 			xProcessTimerNow = pdTRUE;
 698:.\freertos/timers.c **** 		}
 699:.\freertos/timers.c **** 		else
 700:.\freertos/timers.c **** 		{
 701:.\freertos/timers.c **** 			vListInsert( pxCurrentTimerList, &( pxTimer->xTimerListItem ) );
 702:.\freertos/timers.c **** 		}
 703:.\freertos/timers.c **** 	}
 704:.\freertos/timers.c **** 
 705:.\freertos/timers.c **** 	return xProcessTimerNow;
 706:.\freertos/timers.c **** }
 707:.\freertos/timers.c **** /*-----------------------------------------------------------*/
 708:.\freertos/timers.c **** 
 709:.\freertos/timers.c **** static void	prvProcessReceivedCommands( void )
 710:.\freertos/timers.c **** {
 711:.\freertos/timers.c **** DaemonTaskMessage_t xMessage;
 712:.\freertos/timers.c **** Timer_t *pxTimer;
 713:.\freertos/timers.c **** BaseType_t xTimerListsWereSwitched, xResult;
 714:.\freertos/timers.c **** TickType_t xTimeNow;
ARM GAS  C:\Users\skey\AppData\Local\Temp\cceKeKCB.s 			page 15


 715:.\freertos/timers.c **** 
 716:.\freertos/timers.c **** 	while( xQueueReceive( xTimerQueue, &xMessage, tmrNO_DELAY ) != pdFAIL ) /*lint !e603 xMessage does
 717:.\freertos/timers.c **** 	{
 718:.\freertos/timers.c **** 		#if ( INCLUDE_xTimerPendFunctionCall == 1 )
 719:.\freertos/timers.c **** 		{
 720:.\freertos/timers.c **** 			/* Negative commands are pended function calls rather than timer
 721:.\freertos/timers.c **** 			commands. */
 722:.\freertos/timers.c **** 			if( xMessage.xMessageID < ( BaseType_t ) 0 )
 723:.\freertos/timers.c **** 			{
 724:.\freertos/timers.c **** 				const CallbackParameters_t * const pxCallback = &( xMessage.u.xCallbackParameters );
 725:.\freertos/timers.c **** 
 726:.\freertos/timers.c **** 				/* The timer uses the xCallbackParameters member to request a
 727:.\freertos/timers.c **** 				callback be executed.  Check the callback is not NULL. */
 728:.\freertos/timers.c **** 				configASSERT( pxCallback );
 729:.\freertos/timers.c **** 
 730:.\freertos/timers.c **** 				/* Call the function. */
 731:.\freertos/timers.c **** 				pxCallback->pxCallbackFunction( pxCallback->pvParameter1, pxCallback->ulParameter2 );
 732:.\freertos/timers.c **** 			}
 733:.\freertos/timers.c **** 			else
 734:.\freertos/timers.c **** 			{
 735:.\freertos/timers.c **** 				mtCOVERAGE_TEST_MARKER();
 736:.\freertos/timers.c **** 			}
 737:.\freertos/timers.c **** 		}
 738:.\freertos/timers.c **** 		#endif /* INCLUDE_xTimerPendFunctionCall */
 739:.\freertos/timers.c **** 
 740:.\freertos/timers.c **** 		/* Commands that are positive are timer commands rather than pended
 741:.\freertos/timers.c **** 		function calls. */
 742:.\freertos/timers.c **** 		if( xMessage.xMessageID >= ( BaseType_t ) 0 )
 743:.\freertos/timers.c **** 		{
 744:.\freertos/timers.c **** 			/* The messages uses the xTimerParameters member to work on a
 745:.\freertos/timers.c **** 			software timer. */
 746:.\freertos/timers.c **** 			pxTimer = xMessage.u.xTimerParameters.pxTimer;
 747:.\freertos/timers.c **** 
 748:.\freertos/timers.c **** 			if( listIS_CONTAINED_WITHIN( NULL, &( pxTimer->xTimerListItem ) ) == pdFALSE ) /*lint !e961. The
 749:.\freertos/timers.c **** 			{
 750:.\freertos/timers.c **** 				/* The timer is in a list, remove it. */
 751:.\freertos/timers.c **** 				( void ) uxListRemove( &( pxTimer->xTimerListItem ) );
 752:.\freertos/timers.c **** 			}
 753:.\freertos/timers.c **** 			else
 754:.\freertos/timers.c **** 			{
 755:.\freertos/timers.c **** 				mtCOVERAGE_TEST_MARKER();
 756:.\freertos/timers.c **** 			}
 757:.\freertos/timers.c **** 
 758:.\freertos/timers.c **** 			traceTIMER_COMMAND_RECEIVED( pxTimer, xMessage.xMessageID, xMessage.u.xTimerParameters.xMessageV
 759:.\freertos/timers.c **** 
 760:.\freertos/timers.c **** 			/* In this case the xTimerListsWereSwitched parameter is not used, but
 761:.\freertos/timers.c **** 			it must be present in the function call.  prvSampleTimeNow() must be
 762:.\freertos/timers.c **** 			called after the message is received from xTimerQueue so there is no
 763:.\freertos/timers.c **** 			possibility of a higher priority task adding a message to the message
 764:.\freertos/timers.c **** 			queue with a time that is ahead of the timer daemon task (because it
 765:.\freertos/timers.c **** 			pre-empted the timer daemon task after the xTimeNow value was set). */
 766:.\freertos/timers.c **** 			xTimeNow = prvSampleTimeNow( &xTimerListsWereSwitched );
 767:.\freertos/timers.c **** 
 768:.\freertos/timers.c **** 			switch( xMessage.xMessageID )
 769:.\freertos/timers.c **** 			{
 770:.\freertos/timers.c **** 				case tmrCOMMAND_START :
 771:.\freertos/timers.c **** 				case tmrCOMMAND_START_FROM_ISR :
ARM GAS  C:\Users\skey\AppData\Local\Temp\cceKeKCB.s 			page 16


 772:.\freertos/timers.c **** 				case tmrCOMMAND_RESET :
 773:.\freertos/timers.c **** 				case tmrCOMMAND_RESET_FROM_ISR :
 774:.\freertos/timers.c **** 				case tmrCOMMAND_START_DONT_TRACE :
 775:.\freertos/timers.c **** 					/* Start or restart a timer. */
 776:.\freertos/timers.c **** 					pxTimer->ucStatus |= tmrSTATUS_IS_ACTIVE;
 777:.\freertos/timers.c **** 					if( prvInsertTimerInActiveList( pxTimer,  xMessage.u.xTimerParameters.xMessageValue + pxTimer-
 778:.\freertos/timers.c **** 					{
 779:.\freertos/timers.c **** 						/* The timer expired before it was added to the active
 780:.\freertos/timers.c **** 						timer list.  Process it now. */
 781:.\freertos/timers.c **** 						pxTimer->pxCallbackFunction( ( TimerHandle_t ) pxTimer );
 782:.\freertos/timers.c **** 						traceTIMER_EXPIRED( pxTimer );
 783:.\freertos/timers.c **** 
 784:.\freertos/timers.c **** 						if( ( pxTimer->ucStatus & tmrSTATUS_IS_AUTORELOAD ) != 0 )
 785:.\freertos/timers.c **** 						{
 786:.\freertos/timers.c **** 							xResult = xTimerGenericCommand( pxTimer, tmrCOMMAND_START_DONT_TRACE, xMessage.u.xTimerParam
 787:.\freertos/timers.c **** 							configASSERT( xResult );
 788:.\freertos/timers.c **** 							( void ) xResult;
 789:.\freertos/timers.c **** 						}
 790:.\freertos/timers.c **** 						else
 791:.\freertos/timers.c **** 						{
 792:.\freertos/timers.c **** 							mtCOVERAGE_TEST_MARKER();
 793:.\freertos/timers.c **** 						}
 794:.\freertos/timers.c **** 					}
 795:.\freertos/timers.c **** 					else
 796:.\freertos/timers.c **** 					{
 797:.\freertos/timers.c **** 						mtCOVERAGE_TEST_MARKER();
 798:.\freertos/timers.c **** 					}
 799:.\freertos/timers.c **** 					break;
 800:.\freertos/timers.c **** 
 801:.\freertos/timers.c **** 				case tmrCOMMAND_STOP :
 802:.\freertos/timers.c **** 				case tmrCOMMAND_STOP_FROM_ISR :
 803:.\freertos/timers.c **** 					/* The timer has already been removed from the active list. */
 804:.\freertos/timers.c **** 					pxTimer->ucStatus &= ~tmrSTATUS_IS_ACTIVE;
 805:.\freertos/timers.c **** 					break;
 806:.\freertos/timers.c **** 
 807:.\freertos/timers.c **** 				case tmrCOMMAND_CHANGE_PERIOD :
 808:.\freertos/timers.c **** 				case tmrCOMMAND_CHANGE_PERIOD_FROM_ISR :
 809:.\freertos/timers.c **** 					pxTimer->ucStatus |= tmrSTATUS_IS_ACTIVE;
 810:.\freertos/timers.c **** 					pxTimer->xTimerPeriodInTicks = xMessage.u.xTimerParameters.xMessageValue;
 811:.\freertos/timers.c **** 					configASSERT( ( pxTimer->xTimerPeriodInTicks > 0 ) );
 812:.\freertos/timers.c **** 
 813:.\freertos/timers.c **** 					/* The new period does not really have a reference, and can
 814:.\freertos/timers.c **** 					be longer or shorter than the old one.  The command time is
 815:.\freertos/timers.c **** 					therefore set to the current time, and as the period cannot
 816:.\freertos/timers.c **** 					be zero the next expiry time can only be in the future,
 817:.\freertos/timers.c **** 					meaning (unlike for the xTimerStart() case above) there is
 818:.\freertos/timers.c **** 					no fail case that needs to be handled here. */
 819:.\freertos/timers.c **** 					( void ) prvInsertTimerInActiveList( pxTimer, ( xTimeNow + pxTimer->xTimerPeriodInTicks ), xTi
 820:.\freertos/timers.c **** 					break;
 821:.\freertos/timers.c **** 
 822:.\freertos/timers.c **** 				case tmrCOMMAND_DELETE :
 823:.\freertos/timers.c **** 					#if ( configSUPPORT_DYNAMIC_ALLOCATION == 1 )
 824:.\freertos/timers.c **** 					{
 825:.\freertos/timers.c **** 						/* The timer has already been removed from the active list,
 826:.\freertos/timers.c **** 						just free up the memory if the memory was dynamically
 827:.\freertos/timers.c **** 						allocated. */
 828:.\freertos/timers.c **** 						if( ( pxTimer->ucStatus & tmrSTATUS_IS_STATICALLY_ALLOCATED ) == ( uint8_t ) 0 )
ARM GAS  C:\Users\skey\AppData\Local\Temp\cceKeKCB.s 			page 17


 829:.\freertos/timers.c **** 						{
 830:.\freertos/timers.c **** 							vPortFree( pxTimer );
 831:.\freertos/timers.c **** 						}
 832:.\freertos/timers.c **** 						else
 833:.\freertos/timers.c **** 						{
 834:.\freertos/timers.c **** 							pxTimer->ucStatus &= ~tmrSTATUS_IS_ACTIVE;
 835:.\freertos/timers.c **** 						}
 836:.\freertos/timers.c **** 					}
 837:.\freertos/timers.c **** 					#else
 838:.\freertos/timers.c **** 					{
 839:.\freertos/timers.c **** 						/* If dynamic allocation is not enabled, the memory
 840:.\freertos/timers.c **** 						could not have been dynamically allocated. So there is
 841:.\freertos/timers.c **** 						no need to free the memory - just mark the timer as
 842:.\freertos/timers.c **** 						"not active". */
 843:.\freertos/timers.c **** 						pxTimer->ucStatus &= ~tmrSTATUS_IS_ACTIVE;
 844:.\freertos/timers.c **** 					}
 845:.\freertos/timers.c **** 					#endif /* configSUPPORT_DYNAMIC_ALLOCATION */
 846:.\freertos/timers.c **** 					break;
 847:.\freertos/timers.c **** 
 848:.\freertos/timers.c **** 				default	:
 849:.\freertos/timers.c **** 					/* Don't expect to get here. */
 850:.\freertos/timers.c **** 					break;
 851:.\freertos/timers.c **** 			}
 852:.\freertos/timers.c **** 		}
 853:.\freertos/timers.c **** 	}
 854:.\freertos/timers.c **** }
 855:.\freertos/timers.c **** /*-----------------------------------------------------------*/
 856:.\freertos/timers.c **** 
 857:.\freertos/timers.c **** static void prvSwitchTimerLists( void )
 858:.\freertos/timers.c **** {
 859:.\freertos/timers.c **** TickType_t xNextExpireTime, xReloadTime;
 860:.\freertos/timers.c **** List_t *pxTemp;
 861:.\freertos/timers.c **** Timer_t *pxTimer;
 862:.\freertos/timers.c **** BaseType_t xResult;
 863:.\freertos/timers.c **** 
 864:.\freertos/timers.c **** 	/* The tick count has overflowed.  The timer lists must be switched.
 865:.\freertos/timers.c **** 	If there are any timers still referenced from the current timer list
 866:.\freertos/timers.c **** 	then they must have expired and should be processed before the lists
 867:.\freertos/timers.c **** 	are switched. */
 868:.\freertos/timers.c **** 	while( listLIST_IS_EMPTY( pxCurrentTimerList ) == pdFALSE )
 869:.\freertos/timers.c **** 	{
 870:.\freertos/timers.c **** 		xNextExpireTime = listGET_ITEM_VALUE_OF_HEAD_ENTRY( pxCurrentTimerList );
 871:.\freertos/timers.c **** 
 872:.\freertos/timers.c **** 		/* Remove the timer from the list. */
 873:.\freertos/timers.c **** 		pxTimer = ( Timer_t * ) listGET_OWNER_OF_HEAD_ENTRY( pxCurrentTimerList ); /*lint !e9087 !e9079 v
 874:.\freertos/timers.c **** 		( void ) uxListRemove( &( pxTimer->xTimerListItem ) );
 875:.\freertos/timers.c **** 		traceTIMER_EXPIRED( pxTimer );
 876:.\freertos/timers.c **** 
 877:.\freertos/timers.c **** 		/* Execute its callback, then send a command to restart the timer if
 878:.\freertos/timers.c **** 		it is an auto-reload timer.  It cannot be restarted here as the lists
 879:.\freertos/timers.c **** 		have not yet been switched. */
 880:.\freertos/timers.c **** 		pxTimer->pxCallbackFunction( ( TimerHandle_t ) pxTimer );
 881:.\freertos/timers.c **** 
 882:.\freertos/timers.c **** 		if( ( pxTimer->ucStatus & tmrSTATUS_IS_AUTORELOAD ) != 0 )
 883:.\freertos/timers.c **** 		{
 884:.\freertos/timers.c **** 			/* Calculate the reload value, and if the reload value results in
 885:.\freertos/timers.c **** 			the timer going into the same timer list then it has already expired
ARM GAS  C:\Users\skey\AppData\Local\Temp\cceKeKCB.s 			page 18


 886:.\freertos/timers.c **** 			and the timer should be re-inserted into the current list so it is
 887:.\freertos/timers.c **** 			processed again within this loop.  Otherwise a command should be sent
 888:.\freertos/timers.c **** 			to restart the timer to ensure it is only inserted into a list after
 889:.\freertos/timers.c **** 			the lists have been swapped. */
 890:.\freertos/timers.c **** 			xReloadTime = ( xNextExpireTime + pxTimer->xTimerPeriodInTicks );
 891:.\freertos/timers.c **** 			if( xReloadTime > xNextExpireTime )
 892:.\freertos/timers.c **** 			{
 893:.\freertos/timers.c **** 				listSET_LIST_ITEM_VALUE( &( pxTimer->xTimerListItem ), xReloadTime );
 894:.\freertos/timers.c **** 				listSET_LIST_ITEM_OWNER( &( pxTimer->xTimerListItem ), pxTimer );
 895:.\freertos/timers.c **** 				vListInsert( pxCurrentTimerList, &( pxTimer->xTimerListItem ) );
 896:.\freertos/timers.c **** 			}
 897:.\freertos/timers.c **** 			else
 898:.\freertos/timers.c **** 			{
 899:.\freertos/timers.c **** 				xResult = xTimerGenericCommand( pxTimer, tmrCOMMAND_START_DONT_TRACE, xNextExpireTime, NULL, tm
 900:.\freertos/timers.c **** 				configASSERT( xResult );
 901:.\freertos/timers.c **** 				( void ) xResult;
 902:.\freertos/timers.c **** 			}
 903:.\freertos/timers.c **** 		}
 904:.\freertos/timers.c **** 		else
 905:.\freertos/timers.c **** 		{
 906:.\freertos/timers.c **** 			mtCOVERAGE_TEST_MARKER();
 907:.\freertos/timers.c **** 		}
 908:.\freertos/timers.c **** 	}
 909:.\freertos/timers.c **** 
 910:.\freertos/timers.c **** 	pxTemp = pxCurrentTimerList;
 911:.\freertos/timers.c **** 	pxCurrentTimerList = pxOverflowTimerList;
 912:.\freertos/timers.c **** 	pxOverflowTimerList = pxTemp;
 913:.\freertos/timers.c **** }
 914:.\freertos/timers.c **** /*-----------------------------------------------------------*/
 915:.\freertos/timers.c **** 
 916:.\freertos/timers.c **** static void prvCheckForValidListAndQueue( void )
 917:.\freertos/timers.c **** {
  85              		.loc 1 917 1 view -0
  86              		.cfi_startproc
  87              		@ args = 0, pretend = 0, frame = 0
  88              		@ frame_needed = 0, uses_anonymous_args = 0
 918:.\freertos/timers.c **** 	/* Check that the list from which active timers are referenced, and the
 919:.\freertos/timers.c **** 	queue used to communicate with the timer service, have been
 920:.\freertos/timers.c **** 	initialised. */
 921:.\freertos/timers.c **** 	taskENTER_CRITICAL();
  89              		.loc 1 921 2 view .LVU1
  90              	@ .\freertos\timers.c:917: {
 917:.\freertos/timers.c **** 	/* Check that the list from which active timers are referenced, and the
  91              		.loc 1 917 1 is_stmt 0 view .LVU2
  92 0000 F8B5     		push	{r3, r4, r5, r6, r7, lr}	@
  93              	.LCFI0:
  94              		.cfi_def_cfa_offset 24
  95              		.cfi_offset 3, -24
  96              		.cfi_offset 4, -20
  97              		.cfi_offset 5, -16
  98              		.cfi_offset 6, -12
  99              		.cfi_offset 7, -8
 100              		.cfi_offset 14, -4
 101              	@ .\freertos\timers.c:923: 		if( xTimerQueue == NULL )
 922:.\freertos/timers.c **** 	{
 923:.\freertos/timers.c **** 		if( xTimerQueue == NULL )
 102              		.loc 1 923 19 view .LVU3
ARM GAS  C:\Users\skey\AppData\Local\Temp\cceKeKCB.s 			page 19


 103 0002 0D4C     		ldr	r4, .L3	@ tmp112,
 104              	@ .\freertos\timers.c:921: 	taskENTER_CRITICAL();
 921:.\freertos/timers.c **** 	{
 105              		.loc 1 921 2 view .LVU4
 106 0004 FFF7FEFF 		bl	vPortEnterCritical		@
 107              	.LVL0:
 108              		.loc 1 923 3 is_stmt 1 view .LVU5
 109              	@ .\freertos\timers.c:923: 		if( xTimerQueue == NULL )
 110              		.loc 1 923 5 is_stmt 0 view .LVU6
 111 0008 2568     		ldr	r5, [r4]	@ xTimerQueue, xTimerQueue
 112 000a 85B9     		cbnz	r5, .L2	@ xTimerQueue,
 924:.\freertos/timers.c **** 		{
 925:.\freertos/timers.c **** 			vListInitialise( &xActiveTimerList1 );
 113              		.loc 1 925 4 is_stmt 1 view .LVU7
 114 000c 271D     		adds	r7, r4, #4	@ tmp115, tmp112,
 115 000e 3846     		mov	r0, r7	@, tmp115
 116              	@ .\freertos\timers.c:926: 			vListInitialise( &xActiveTimerList2 );
 926:.\freertos/timers.c **** 			vListInitialise( &xActiveTimerList2 );
 117              		.loc 1 926 4 is_stmt 0 view .LVU8
 118 0010 04F11806 		add	r6, r4, #24	@ tmp117, tmp112,
 119              	@ .\freertos\timers.c:925: 			vListInitialise( &xActiveTimerList1 );
 925:.\freertos/timers.c **** 			vListInitialise( &xActiveTimerList2 );
 120              		.loc 1 925 4 view .LVU9
 121 0014 FFF7FEFF 		bl	vListInitialise		@
 122              	.LVL1:
 123              		.loc 1 926 4 is_stmt 1 view .LVU10
 124 0018 3046     		mov	r0, r6	@, tmp117
 125 001a FFF7FEFF 		bl	vListInitialise		@
 126              	.LVL2:
 927:.\freertos/timers.c **** 			pxCurrentTimerList = &xActiveTimerList1;
 127              		.loc 1 927 4 view .LVU11
 128              	@ .\freertos\timers.c:941: 				xTimerQueue = xQueueCreate( ( UBaseType_t ) configTIMER_QUEUE_LENGTH
 928:.\freertos/timers.c **** 			pxOverflowTimerList = &xActiveTimerList2;
 929:.\freertos/timers.c **** 
 930:.\freertos/timers.c **** 			#if( configSUPPORT_STATIC_ALLOCATION == 1 )
 931:.\freertos/timers.c **** 			{
 932:.\freertos/timers.c **** 				/* The timer queue is allocated statically in case
 933:.\freertos/timers.c **** 				configSUPPORT_DYNAMIC_ALLOCATION is 0. */
 934:.\freertos/timers.c **** 				static StaticQueue_t xStaticTimerQueue; /*lint !e956 Ok to declare in this manner to prevent ad
 935:.\freertos/timers.c **** 				static uint8_t ucStaticTimerQueueStorage[ ( size_t ) configTIMER_QUEUE_LENGTH * sizeof( DaemonT
 936:.\freertos/timers.c **** 
 937:.\freertos/timers.c **** 				xTimerQueue = xQueueCreateStatic( ( UBaseType_t ) configTIMER_QUEUE_LENGTH, ( UBaseType_t ) siz
 938:.\freertos/timers.c **** 			}
 939:.\freertos/timers.c **** 			#else
 940:.\freertos/timers.c **** 			{
 941:.\freertos/timers.c **** 				xTimerQueue = xQueueCreate( ( UBaseType_t ) configTIMER_QUEUE_LENGTH, sizeof( DaemonTaskMessage
 129              		.loc 1 941 19 is_stmt 0 view .LVU12
 130 001e 2A46     		mov	r2, r5	@, xTimerQueue
 131 0020 0C21     		movs	r1, #12	@,
 132 0022 0A20     		movs	r0, #10	@,
 133              	@ .\freertos\timers.c:928: 			pxOverflowTimerList = &xActiveTimerList2;
 928:.\freertos/timers.c **** 			pxOverflowTimerList = &xActiveTimerList2;
 134              		.loc 1 928 24 view .LVU13
 135 0024 C4E90B76 		strd	r7, r6, [r4, #44]	@ tmp115, tmp117, tmp112,
 136              		.loc 1 941 5 is_stmt 1 view .LVU14
 137              	@ .\freertos\timers.c:941: 				xTimerQueue = xQueueCreate( ( UBaseType_t ) configTIMER_QUEUE_LENGTH
 138              		.loc 1 941 19 is_stmt 0 view .LVU15
ARM GAS  C:\Users\skey\AppData\Local\Temp\cceKeKCB.s 			page 20


 139 0028 FFF7FEFF 		bl	xQueueGenericCreate		@
 140              	.LVL3:
 141              	@ .\freertos\timers.c:941: 				xTimerQueue = xQueueCreate( ( UBaseType_t ) configTIMER_QUEUE_LENGTH
 142              		.loc 1 941 17 view .LVU16
 143 002c 2060     		str	r0, [r4]	@ tmp125, xTimerQueue
 144              	.L2:
 942:.\freertos/timers.c **** 			}
 943:.\freertos/timers.c **** 			#endif
 944:.\freertos/timers.c **** 
 945:.\freertos/timers.c **** 			#if ( configQUEUE_REGISTRY_SIZE > 0 )
 946:.\freertos/timers.c **** 			{
 947:.\freertos/timers.c **** 				if( xTimerQueue != NULL )
 948:.\freertos/timers.c **** 				{
 949:.\freertos/timers.c **** 					vQueueAddToRegistry( xTimerQueue, "TmrQ" );
 950:.\freertos/timers.c **** 				}
 951:.\freertos/timers.c **** 				else
 952:.\freertos/timers.c **** 				{
 953:.\freertos/timers.c **** 					mtCOVERAGE_TEST_MARKER();
 954:.\freertos/timers.c **** 				}
 955:.\freertos/timers.c **** 			}
 956:.\freertos/timers.c **** 			#endif /* configQUEUE_REGISTRY_SIZE */
 957:.\freertos/timers.c **** 		}
 958:.\freertos/timers.c **** 		else
 959:.\freertos/timers.c **** 		{
 960:.\freertos/timers.c **** 			mtCOVERAGE_TEST_MARKER();
 145              		.loc 1 960 28 is_stmt 1 view .LVU17
 961:.\freertos/timers.c **** 		}
 962:.\freertos/timers.c **** 	}
 963:.\freertos/timers.c **** 	taskEXIT_CRITICAL();
 146              		.loc 1 963 2 view .LVU18
 147              	@ .\freertos\timers.c:964: }
 964:.\freertos/timers.c **** }
 148              		.loc 1 964 1 is_stmt 0 view .LVU19
 149 002e BDE8F840 		pop	{r3, r4, r5, r6, r7, lr}	@
 150              	.LCFI1:
 151              		.cfi_restore 14
 152              		.cfi_restore 7
 153              		.cfi_restore 6
 154              		.cfi_restore 5
 155              		.cfi_restore 4
 156              		.cfi_restore 3
 157              		.cfi_def_cfa_offset 0
 158              	@ .\freertos\timers.c:963: 	taskEXIT_CRITICAL();
 963:.\freertos/timers.c **** }
 159              		.loc 1 963 2 view .LVU20
 160 0032 FFF7FEBF 		b	vPortExitCritical		@
 161              	.LVL4:
 162              	.L4:
 163 0036 00BF     		.align	2
 164              	.L3:
 165 0038 00000000 		.word	.LANCHOR0
 166              		.cfi_endproc
 167              	.LFE51:
 168              		.size	prvCheckForValidListAndQueue, .-prvCheckForValidListAndQueue
 169              		.align	1
 170              		.syntax unified
 171              		.thumb
ARM GAS  C:\Users\skey\AppData\Local\Temp\cceKeKCB.s 			page 21


 172              		.thumb_func
 173              		.fpu softvfp
 174              		.type	prvInsertTimerInActiveList, %function
 175              	prvInsertTimerInActiveList:
 176              	.LVL5:
 177              	.LFB48:
 669:.\freertos/timers.c **** BaseType_t xProcessTimerNow = pdFALSE;
 178              		.loc 1 669 1 is_stmt 1 view -0
 179              		.cfi_startproc
 180              		@ args = 0, pretend = 0, frame = 0
 181              		@ frame_needed = 0, uses_anonymous_args = 0
 670:.\freertos/timers.c **** 
 182              		.loc 1 670 1 view .LVU22
 672:.\freertos/timers.c **** 	listSET_LIST_ITEM_OWNER( &( pxTimer->xTimerListItem ), pxTimer );
 183              		.loc 1 672 2 view .LVU23
 184              	@ .\freertos\timers.c:675: 	if( xNextExpiryTime <= xTimeNow )
 675:.\freertos/timers.c **** 	{
 185              		.loc 1 675 4 is_stmt 0 view .LVU24
 186 003c 9142     		cmp	r1, r2	@ xNextExpiryTime, xTimeNow
 187              	@ .\freertos\timers.c:669: {
 669:.\freertos/timers.c **** BaseType_t xProcessTimerNow = pdFALSE;
 188              		.loc 1 669 1 view .LVU25
 189 003e 08B5     		push	{r3, lr}	@
 190              	.LCFI2:
 191              		.cfi_def_cfa_offset 8
 192              		.cfi_offset 3, -8
 193              		.cfi_offset 14, -4
 194              	@ .\freertos\timers.c:672: 	listSET_LIST_ITEM_VALUE( &( pxTimer->xTimerListItem ), xNextExpiryTime 
 672:.\freertos/timers.c **** 	listSET_LIST_ITEM_OWNER( &( pxTimer->xTimerListItem ), pxTimer );
 195              		.loc 1 672 2 view .LVU26
 196 0040 4160     		str	r1, [r0, #4]	@ xNextExpiryTime, pxTimer_8(D)->xTimerListItem.xItemValue
 673:.\freertos/timers.c **** 
 197              		.loc 1 673 2 is_stmt 1 view .LVU27
 198 0042 0061     		str	r0, [r0, #16]	@ pxTimer, pxTimer_8(D)->xTimerListItem.pvOwner
 675:.\freertos/timers.c **** 	{
 199              		.loc 1 675 2 view .LVU28
 200              	@ .\freertos\timers.c:675: 	if( xNextExpiryTime <= xTimeNow )
 675:.\freertos/timers.c **** 	{
 201              		.loc 1 675 4 is_stmt 0 view .LVU29
 202 0044 0AD8     		bhi	.L6		@,
 679:.\freertos/timers.c **** 		{
 203              		.loc 1 679 3 is_stmt 1 view .LVU30
 204              	@ .\freertos\timers.c:679: 		if( ( ( TickType_t ) ( xTimeNow - xCommandTime ) ) >= pxTimer->xTimerP
 679:.\freertos/timers.c **** 		{
 205              		.loc 1 679 9 is_stmt 0 view .LVU31
 206 0046 D21A     		subs	r2, r2, r3	@ tmp121, xTimeNow, xCommandTime
 207              	.LVL6:
 208              	@ .\freertos\timers.c:679: 		if( ( ( TickType_t ) ( xTimeNow - xCommandTime ) ) >= pxTimer->xTimerP
 679:.\freertos/timers.c **** 		{
 209              		.loc 1 679 5 view .LVU32
 210 0048 8369     		ldr	r3, [r0, #24]	@ pxTimer_8(D)->xTimerPeriodInTicks, pxTimer_8(D)->xTimerPeriodInTicks
 211              	.LVL7:
 679:.\freertos/timers.c **** 		{
 212              		.loc 1 679 5 view .LVU33
 213 004a 9A42     		cmp	r2, r3	@ tmp121, pxTimer_8(D)->xTimerPeriodInTicks
 214 004c 0ED2     		bcs	.L10		@,
 215              	.LVL8:
ARM GAS  C:\Users\skey\AppData\Local\Temp\cceKeKCB.s 			page 22


 216              	.LBB4:
 217              	.LBI4:
 668:.\freertos/timers.c **** {
 218              		.loc 1 668 19 is_stmt 1 view .LVU34
 219              	.LBB5:
 687:.\freertos/timers.c **** 		}
 220              		.loc 1 687 4 view .LVU35
 221 004e 084B     		ldr	r3, .L12	@ tmp124,
 222 0050 011D     		adds	r1, r0, #4	@, pxTimer,
 223              	.LVL9:
 687:.\freertos/timers.c **** 		}
 224              		.loc 1 687 4 is_stmt 0 view .LVU36
 225 0052 186B     		ldr	r0, [r3, #48]	@, pxOverflowTimerList
 226              	.LVL10:
 227              	.L11:
 687:.\freertos/timers.c **** 		}
 228              		.loc 1 687 4 view .LVU37
 229              	.LBE5:
 230              	.LBE4:
 231              	@ .\freertos\timers.c:701: 			vListInsert( pxCurrentTimerList, &( pxTimer->xTimerListItem ) );
 701:.\freertos/timers.c **** 		}
 232              		.loc 1 701 4 view .LVU38
 233 0054 FFF7FEFF 		bl	vListInsert		@
 234              	.LVL11:
 235              	@ .\freertos\timers.c:670: BaseType_t xProcessTimerNow = pdFALSE;
 670:.\freertos/timers.c **** 
 236              		.loc 1 670 12 view .LVU39
 237 0058 0020     		movs	r0, #0	@ <retval>,
 238              	.LVL12:
 239              	.L5:
 240              	@ .\freertos\timers.c:706: }
 706:.\freertos/timers.c **** /*-----------------------------------------------------------*/
 241              		.loc 1 706 1 view .LVU40
 242 005a 08BD     		pop	{r3, pc}	@
 243              	.LVL13:
 244              	.L6:
 692:.\freertos/timers.c **** 		{
 245              		.loc 1 692 3 is_stmt 1 view .LVU41
 246              	@ .\freertos\timers.c:692: 		if( ( xTimeNow < xCommandTime ) && ( xNextExpiryTime >= xCommandTime )
 692:.\freertos/timers.c **** 		{
 247              		.loc 1 692 5 is_stmt 0 view .LVU42
 248 005c 9A42     		cmp	r2, r3	@ xTimeNow, xCommandTime
 249 005e 01D2     		bcs	.L8		@,
 250              	@ .\freertos\timers.c:692: 		if( ( xTimeNow < xCommandTime ) && ( xNextExpiryTime >= xCommandTime )
 692:.\freertos/timers.c **** 		{
 251              		.loc 1 692 35 discriminator 1 view .LVU43
 252 0060 9942     		cmp	r1, r3	@ xNextExpiryTime, xCommandTime
 253 0062 03D2     		bcs	.L10		@,
 254              	.L8:
 701:.\freertos/timers.c **** 		}
 255              		.loc 1 701 4 is_stmt 1 view .LVU44
 256 0064 024B     		ldr	r3, .L12	@ tmp126,
 257              	.LVL14:
 701:.\freertos/timers.c **** 		}
 258              		.loc 1 701 4 is_stmt 0 view .LVU45
 259 0066 011D     		adds	r1, r0, #4	@, pxTimer,
 260              	.LVL15:
ARM GAS  C:\Users\skey\AppData\Local\Temp\cceKeKCB.s 			page 23


 701:.\freertos/timers.c **** 		}
 261              		.loc 1 701 4 view .LVU46
 262 0068 D86A     		ldr	r0, [r3, #44]	@, pxCurrentTimerList
 263              	.LVL16:
 701:.\freertos/timers.c **** 		}
 264              		.loc 1 701 4 view .LVU47
 265 006a F3E7     		b	.L11		@
 266              	.LVL17:
 267              	.L10:
 268              	@ .\freertos\timers.c:683: 			xProcessTimerNow = pdTRUE;
 683:.\freertos/timers.c **** 		}
 269              		.loc 1 683 21 view .LVU48
 270 006c 0120     		movs	r0, #1	@ <retval>,
 271              	.LVL18:
 705:.\freertos/timers.c **** }
 272              		.loc 1 705 2 is_stmt 1 view .LVU49
 273              	@ .\freertos\timers.c:705: 	return xProcessTimerNow;
 705:.\freertos/timers.c **** }
 274              		.loc 1 705 9 is_stmt 0 view .LVU50
 275 006e F4E7     		b	.L5		@
 276              	.L13:
 277              		.align	2
 278              	.L12:
 279 0070 00000000 		.word	.LANCHOR0
 280              		.cfi_endproc
 281              	.LFE48:
 282              		.size	prvInsertTimerInActiveList, .-prvInsertTimerInActiveList
 283              		.section	.rodata.str1.1,"aMS",%progbits,1
 284              	.LC0:
 285 0000 546D7220 		.ascii	"Tmr Svc\000"
 285      53766300 
 286              		.text
 287              		.align	1
 288              		.global	xTimerCreateTimerTask
 289              		.syntax unified
 290              		.thumb
 291              		.thumb_func
 292              		.fpu softvfp
 293              		.type	xTimerCreateTimerTask, %function
 294              	xTimerCreateTimerTask:
 295              	.LFB34:
 228:.\freertos/timers.c **** BaseType_t xReturn = pdFAIL;
 296              		.loc 1 228 1 is_stmt 1 view -0
 297              		.cfi_startproc
 298              		@ args = 0, pretend = 0, frame = 0
 299              		@ frame_needed = 0, uses_anonymous_args = 0
 229:.\freertos/timers.c **** 
 300              		.loc 1 229 1 view .LVU52
 301              	.LVL19:
 235:.\freertos/timers.c **** 
 302              		.loc 1 235 2 view .LVU53
 303              	@ .\freertos\timers.c:228: {
 228:.\freertos/timers.c **** BaseType_t xReturn = pdFAIL;
 304              		.loc 1 228 1 is_stmt 0 view .LVU54
 305 0074 07B5     		push	{r0, r1, r2, lr}	@
 306              	.LCFI3:
 307              		.cfi_def_cfa_offset 16
ARM GAS  C:\Users\skey\AppData\Local\Temp\cceKeKCB.s 			page 24


 308              		.cfi_offset 14, -4
 309              	@ .\freertos\timers.c:235: 	prvCheckForValidListAndQueue();
 235:.\freertos/timers.c **** 
 310              		.loc 1 235 2 view .LVU55
 311 0076 FFF7C3FF 		bl	prvCheckForValidListAndQueue		@
 312              	.LVL20:
 237:.\freertos/timers.c **** 	{
 313              		.loc 1 237 2 is_stmt 1 view .LVU56
 314              	@ .\freertos\timers.c:237: 	if( xTimerQueue != NULL )
 237:.\freertos/timers.c **** 	{
 315              		.loc 1 237 18 is_stmt 0 view .LVU57
 316 007a 084B     		ldr	r3, .L17	@ tmp112,
 317              	@ .\freertos\timers.c:237: 	if( xTimerQueue != NULL )
 237:.\freertos/timers.c **** 	{
 318              		.loc 1 237 4 view .LVU58
 319 007c 1868     		ldr	r0, [r3]	@ xTimerQueue, xTimerQueue
 320 007e 48B1     		cbz	r0, .L14	@ xTimerQueue,
 261:.\freertos/timers.c **** 									configTIMER_SERVICE_TASK_NAME,
 321              		.loc 1 261 4 is_stmt 1 view .LVU59
 322              	@ .\freertos\timers.c:261: 			xReturn = xTaskCreate(	prvTimerTask,
 261:.\freertos/timers.c **** 									configTIMER_SERVICE_TASK_NAME,
 323              		.loc 1 261 14 is_stmt 0 view .LVU60
 324 0080 3433     		adds	r3, r3, #52	@ tmp117, tmp112,
 325 0082 0193     		str	r3, [sp, #4]	@ tmp117,
 326 0084 0123     		movs	r3, #1	@ tmp118,
 327 0086 F022     		movs	r2, #240	@,
 328 0088 0093     		str	r3, [sp]	@ tmp118,
 329 008a 0549     		ldr	r1, .L17+4	@,
 330 008c 0023     		movs	r3, #0	@,
 331 008e 0548     		ldr	r0, .L17+8	@,
 332 0090 FFF7FEFF 		bl	xTaskCreate		@
 333              	.LVL21:
 334              	.L14:
 335              	@ .\freertos\timers.c:277: }
 277:.\freertos/timers.c **** /*-----------------------------------------------------------*/
 336              		.loc 1 277 1 view .LVU61
 337 0094 03B0     		add	sp, sp, #12	@,,
 338              	.LCFI4:
 339              		.cfi_def_cfa_offset 4
 340              		@ sp needed	@
 341 0096 5DF804FB 		ldr	pc, [sp], #4	@
 342              	.L18:
 343 009a 00BF     		.align	2
 344              	.L17:
 345 009c 00000000 		.word	.LANCHOR0
 346 00a0 00000000 		.word	.LC0
 347 00a4 00000000 		.word	prvTimerTask
 348              		.cfi_endproc
 349              	.LFE34:
 350              		.size	xTimerCreateTimerTask, .-xTimerCreateTimerTask
 351              		.align	1
 352              		.global	xTimerCreate
 353              		.syntax unified
 354              		.thumb
 355              		.thumb_func
 356              		.fpu softvfp
 357              		.type	xTimerCreate, %function
ARM GAS  C:\Users\skey\AppData\Local\Temp\cceKeKCB.s 			page 25


 358              	xTimerCreate:
 359              	.LVL22:
 360              	.LFB35:
 287:.\freertos/timers.c **** 	Timer_t *pxNewTimer;
 361              		.loc 1 287 2 is_stmt 1 view -0
 362              		.cfi_startproc
 363              		@ args = 4, pretend = 0, frame = 0
 364              		@ frame_needed = 0, uses_anonymous_args = 0
 288:.\freertos/timers.c **** 
 365              		.loc 1 288 2 view .LVU63
 290:.\freertos/timers.c **** 
 366              		.loc 1 290 3 view .LVU64
 367              	@ .\freertos\timers.c:287: 	{
 287:.\freertos/timers.c **** 	Timer_t *pxNewTimer;
 368              		.loc 1 287 2 is_stmt 0 view .LVU65
 369 00a8 2DE9F041 		push	{r4, r5, r6, r7, r8, lr}	@
 370              	.LCFI5:
 371              		.cfi_def_cfa_offset 24
 372              		.cfi_offset 4, -24
 373              		.cfi_offset 5, -20
 374              		.cfi_offset 6, -16
 375              		.cfi_offset 7, -12
 376              		.cfi_offset 8, -8
 377              		.cfi_offset 14, -4
 378              	@ .\freertos\timers.c:287: 	{
 287:.\freertos/timers.c **** 	Timer_t *pxNewTimer;
 379              		.loc 1 287 2 view .LVU66
 380 00ac 8046     		mov	r8, r0	@ pcTimerName, tmp127
 381              	@ .\freertos\timers.c:290: 		pxNewTimer = ( Timer_t * ) pvPortMalloc( sizeof( Timer_t ) ); /*lint !
 290:.\freertos/timers.c **** 
 382              		.loc 1 290 30 view .LVU67
 383 00ae 2C20     		movs	r0, #44	@,
 384              	.LVL23:
 385              	@ .\freertos\timers.c:287: 	{
 287:.\freertos/timers.c **** 	Timer_t *pxNewTimer;
 386              		.loc 1 287 2 view .LVU68
 387 00b0 0F46     		mov	r7, r1	@ xTimerPeriodInTicks, tmp128
 388 00b2 1546     		mov	r5, r2	@ uxAutoReload, tmp129
 389 00b4 1E46     		mov	r6, r3	@ pvTimerID, tmp130
 390              	@ .\freertos\timers.c:290: 		pxNewTimer = ( Timer_t * ) pvPortMalloc( sizeof( Timer_t ) ); /*lint !
 290:.\freertos/timers.c **** 
 391              		.loc 1 290 30 view .LVU69
 392 00b6 FFF7FEFF 		bl	pvPortMalloc		@
 393              	.LVL24:
 292:.\freertos/timers.c **** 		{
 394              		.loc 1 292 3 is_stmt 1 view .LVU70
 395              	@ .\freertos\timers.c:292: 		if( pxNewTimer != NULL )
 292:.\freertos/timers.c **** 		{
 396              		.loc 1 292 5 is_stmt 0 view .LVU71
 397 00ba 0446     		mov	r4, r0	@ <retval>, tmp131
 398 00bc A0B1     		cbz	r0, .L19	@ <retval>,
 297:.\freertos/timers.c **** 			prvInitialiseNewTimer( pcTimerName, xTimerPeriodInTicks, uxAutoReload, pvTimerID, pxCallbackFunc
 399              		.loc 1 297 4 is_stmt 1 view .LVU72
 400              	@ .\freertos\timers.c:297: 			pxNewTimer->ucStatus = 0x00;
 297:.\freertos/timers.c **** 			prvInitialiseNewTimer( pcTimerName, xTimerPeriodInTicks, uxAutoReload, pvTimerID, pxCallbackFunc
 401              		.loc 1 297 25 is_stmt 0 view .LVU73
 402 00be 0023     		movs	r3, #0	@ tmp119,
ARM GAS  C:\Users\skey\AppData\Local\Temp\cceKeKCB.s 			page 26


 403 00c0 80F82830 		strb	r3, [r0, #40]	@ tmp119, pxNewTimer_4->ucStatus
 298:.\freertos/timers.c **** 		}
 404              		.loc 1 298 4 is_stmt 1 view .LVU74
 405              	.LVL25:
 406              	.LBB8:
 407              	.LBI8:
 349:.\freertos/timers.c **** 									const TickType_t xTimerPeriodInTicks,
 408              		.loc 1 349 13 view .LVU75
 409              	.LBB9:
 357:.\freertos/timers.c **** 
 410              		.loc 1 357 45 view .LVU76
 359:.\freertos/timers.c **** 	{
 411              		.loc 1 359 2 view .LVU77
 363:.\freertos/timers.c **** 
 412              		.loc 1 363 3 view .LVU78
 413 00c4 FFF79CFF 		bl	prvCheckForValidListAndQueue		@
 414              	.LVL26:
 367:.\freertos/timers.c **** 		pxNewTimer->xTimerPeriodInTicks = xTimerPeriodInTicks;
 415              		.loc 1 367 3 view .LVU79
 416              	@ .\freertos\timers.c:370: 		pxNewTimer->pxCallbackFunction = pxCallbackFunction;
 370:.\freertos/timers.c **** 		vListInitialiseItem( &( pxNewTimer->xTimerListItem ) );
 417              		.loc 1 370 34 is_stmt 0 view .LVU80
 418 00c8 069B     		ldr	r3, [sp, #24]	@ pxCallbackFunction, pxCallbackFunction
 419              	@ .\freertos\timers.c:369: 		pxNewTimer->pvTimerID = pvTimerID;
 369:.\freertos/timers.c **** 		pxNewTimer->pxCallbackFunction = pxCallbackFunction;
 420              		.loc 1 369 25 view .LVU81
 421 00ca C4E90676 		strd	r7, r6, [r4, #24]	@ xTimerPeriodInTicks, pvTimerID, <retval>,
 422              	@ .\freertos\timers.c:367: 		pxNewTimer->pcTimerName = pcTimerName;
 367:.\freertos/timers.c **** 		pxNewTimer->xTimerPeriodInTicks = xTimerPeriodInTicks;
 423              		.loc 1 367 27 view .LVU82
 424 00ce C4F80080 		str	r8, [r4]	@ pcTimerName, pxNewTimer_4->pcTimerName
 368:.\freertos/timers.c **** 		pxNewTimer->pvTimerID = pvTimerID;
 425              		.loc 1 368 3 is_stmt 1 view .LVU83
 370:.\freertos/timers.c **** 		vListInitialiseItem( &( pxNewTimer->xTimerListItem ) );
 426              		.loc 1 370 3 view .LVU84
 427              	@ .\freertos\timers.c:370: 		pxNewTimer->pxCallbackFunction = pxCallbackFunction;
 370:.\freertos/timers.c **** 		vListInitialiseItem( &( pxNewTimer->xTimerListItem ) );
 428              		.loc 1 370 34 is_stmt 0 view .LVU85
 429 00d2 2362     		str	r3, [r4, #32]	@ pxCallbackFunction, pxNewTimer_4->pxCallbackFunction
 371:.\freertos/timers.c **** 		if( uxAutoReload != pdFALSE )
 430              		.loc 1 371 3 is_stmt 1 view .LVU86
 431 00d4 201D     		adds	r0, r4, #4	@, <retval>,
 432 00d6 FFF7FEFF 		bl	vListInitialiseItem		@
 433              	.LVL27:
 372:.\freertos/timers.c **** 		{
 434              		.loc 1 372 3 view .LVU87
 435              	@ .\freertos\timers.c:372: 		if( uxAutoReload != pdFALSE )
 372:.\freertos/timers.c **** 		{
 436              		.loc 1 372 5 is_stmt 0 view .LVU88
 437 00da 2DB1     		cbz	r5, .L19	@ uxAutoReload,
 374:.\freertos/timers.c **** 		}
 438              		.loc 1 374 4 is_stmt 1 view .LVU89
 439              	@ .\freertos\timers.c:374: 			pxNewTimer->ucStatus |= tmrSTATUS_IS_AUTORELOAD;
 374:.\freertos/timers.c **** 		}
 440              		.loc 1 374 25 is_stmt 0 view .LVU90
 441 00dc 94F82830 		ldrb	r3, [r4, #40]	@ zero_extendqisi2	@ pxNewTimer_4->ucStatus, pxNewTimer_4->ucStatus
 442 00e0 43F00403 		orr	r3, r3, #4	@ tmp124, pxNewTimer_4->ucStatus,
ARM GAS  C:\Users\skey\AppData\Local\Temp\cceKeKCB.s 			page 27


 443 00e4 84F82830 		strb	r3, [r4, #40]	@ tmp124, pxNewTimer_4->ucStatus
 444              	.LVL28:
 374:.\freertos/timers.c **** 		}
 445              		.loc 1 374 25 view .LVU91
 446              	.LBE9:
 447              	.LBE8:
 301:.\freertos/timers.c **** 	}
 448              		.loc 1 301 3 is_stmt 1 view .LVU92
 449              	.L19:
 450              	@ .\freertos\timers.c:302: 	}
 302:.\freertos/timers.c **** 
 451              		.loc 1 302 2 is_stmt 0 view .LVU93
 452 00e8 2046     		mov	r0, r4	@, <retval>
 453 00ea BDE8F081 		pop	{r4, r5, r6, r7, r8, pc}	@
 302:.\freertos/timers.c **** 
 454              		.loc 1 302 2 view .LVU94
 455              		.cfi_endproc
 456              	.LFE35:
 457              		.size	xTimerCreate, .-xTimerCreate
 458              		.align	1
 459              		.global	xTimerGenericCommand
 460              		.syntax unified
 461              		.thumb
 462              		.thumb_func
 463              		.fpu softvfp
 464              		.type	xTimerGenericCommand, %function
 465              	xTimerGenericCommand:
 466              	.LVL29:
 467              	.LFB37:
 382:.\freertos/timers.c **** BaseType_t xReturn = pdFAIL;
 468              		.loc 1 382 1 is_stmt 1 view -0
 469              		.cfi_startproc
 470              		@ args = 4, pretend = 0, frame = 16
 471              		@ frame_needed = 0, uses_anonymous_args = 0
 383:.\freertos/timers.c **** DaemonTaskMessage_t xMessage;
 472              		.loc 1 383 1 view .LVU96
 384:.\freertos/timers.c **** 
 473              		.loc 1 384 1 view .LVU97
 386:.\freertos/timers.c **** 
 474              		.loc 1 386 24 view .LVU98
 390:.\freertos/timers.c **** 	{
 475              		.loc 1 390 2 view .LVU99
 476              	@ .\freertos\timers.c:382: {
 382:.\freertos/timers.c **** BaseType_t xReturn = pdFAIL;
 477              		.loc 1 382 1 is_stmt 0 view .LVU100
 478 00ee 7FB5     		push	{r0, r1, r2, r3, r4, r5, r6, lr}	@
 479              	.LCFI6:
 480              		.cfi_def_cfa_offset 32
 481              		.cfi_offset 4, -16
 482              		.cfi_offset 5, -12
 483              		.cfi_offset 6, -8
 484              		.cfi_offset 14, -4
 485              	@ .\freertos\timers.c:390: 	if( xTimerQueue != NULL )
 390:.\freertos/timers.c **** 	{
 486              		.loc 1 390 18 view .LVU101
 487 00f0 0E4C     		ldr	r4, .L32	@ tmp120,
 488              	@ .\freertos\timers.c:382: {
ARM GAS  C:\Users\skey\AppData\Local\Temp\cceKeKCB.s 			page 28


 382:.\freertos/timers.c **** BaseType_t xReturn = pdFAIL;
 489              		.loc 1 382 1 view .LVU102
 490 00f2 0546     		mov	r5, r0	@ xTimer, tmp128
 491              	@ .\freertos\timers.c:390: 	if( xTimerQueue != NULL )
 390:.\freertos/timers.c **** 	{
 492              		.loc 1 390 18 view .LVU103
 493 00f4 2068     		ldr	r0, [r4]	@ xTimerQueue.20_1, xTimerQueue
 494              	.LVL30:
 495              	@ .\freertos\timers.c:382: {
 382:.\freertos/timers.c **** BaseType_t xReturn = pdFAIL;
 496              		.loc 1 382 1 view .LVU104
 497 00f6 1646     		mov	r6, r2	@ xOptionalValue, tmp130
 498 00f8 1A46     		mov	r2, r3	@ pxHigherPriorityTaskWoken, tmp131
 499              	.LVL31:
 500              	@ .\freertos\timers.c:390: 	if( xTimerQueue != NULL )
 390:.\freertos/timers.c **** 	{
 501              		.loc 1 390 4 view .LVU105
 502 00fa 78B1     		cbz	r0, .L26	@ xTimerQueue.20_1,
 393:.\freertos/timers.c **** 		xMessage.u.xTimerParameters.xMessageValue = xOptionalValue;
 503              		.loc 1 393 3 is_stmt 1 view .LVU106
 504              	@ .\freertos\timers.c:397: 		if( xCommandID < tmrFIRST_FROM_ISR_COMMAND )
 397:.\freertos/timers.c **** 		{
 505              		.loc 1 397 5 is_stmt 0 view .LVU107
 506 00fc 0529     		cmp	r1, #5	@ xCommandID,
 507              	@ .\freertos\timers.c:394: 		xMessage.u.xTimerParameters.xMessageValue = xOptionalValue;
 394:.\freertos/timers.c **** 		xMessage.u.xTimerParameters.pxTimer = xTimer;
 508              		.loc 1 394 45 view .LVU108
 509 00fe CDE90116 		strd	r1, r6, [sp, #4]	@ xCommandID, xOptionalValue,,
 395:.\freertos/timers.c **** 
 510              		.loc 1 395 3 is_stmt 1 view .LVU109
 511              	@ .\freertos\timers.c:395: 		xMessage.u.xTimerParameters.pxTimer = xTimer;
 395:.\freertos/timers.c **** 
 512              		.loc 1 395 39 is_stmt 0 view .LVU110
 513 0102 0395     		str	r5, [sp, #12]	@ xTimer, xMessage.u.xTimerParameters.pxTimer
 397:.\freertos/timers.c **** 		{
 514              		.loc 1 397 3 is_stmt 1 view .LVU111
 515              	@ .\freertos\timers.c:397: 		if( xCommandID < tmrFIRST_FROM_ISR_COMMAND )
 397:.\freertos/timers.c **** 		{
 516              		.loc 1 397 5 is_stmt 0 view .LVU112
 517 0104 0CDC     		bgt	.L28		@,
 399:.\freertos/timers.c **** 			{
 518              		.loc 1 399 4 is_stmt 1 view .LVU113
 519              	@ .\freertos\timers.c:399: 			if( xTaskGetSchedulerState() == taskSCHEDULER_RUNNING )
 399:.\freertos/timers.c **** 			{
 520              		.loc 1 399 8 is_stmt 0 view .LVU114
 521 0106 FFF7FEFF 		bl	xTaskGetSchedulerState		@
 522              	.LVL32:
 523              	@ .\freertos\timers.c:401: 				xReturn = xQueueSendToBack( xTimerQueue, &xMessage, xTicksToWait );
 401:.\freertos/timers.c **** 			}
 524              		.loc 1 401 15 view .LVU115
 525 010a 0023     		movs	r3, #0	@,
 526              	@ .\freertos\timers.c:399: 			if( xTaskGetSchedulerState() == taskSCHEDULER_RUNNING )
 399:.\freertos/timers.c **** 			{
 527              		.loc 1 399 6 view .LVU116
 528 010c 0228     		cmp	r0, #2	@ tmp132,
 401:.\freertos/timers.c **** 			}
 529              		.loc 1 401 5 is_stmt 1 view .LVU117
ARM GAS  C:\Users\skey\AppData\Local\Temp\cceKeKCB.s 			page 29


 530              	@ .\freertos\timers.c:405: 				xReturn = xQueueSendToBack( xTimerQueue, &xMessage, tmrNO_DELAY );
 405:.\freertos/timers.c **** 			}
 531              		.loc 1 405 15 is_stmt 0 view .LVU118
 532 010e 14BF     		ite	ne
 533 0110 1A46     		movne	r2, r3	@,
 534              	@ .\freertos\timers.c:401: 				xReturn = xQueueSendToBack( xTimerQueue, &xMessage, xTicksToWait );
 401:.\freertos/timers.c **** 			}
 535              		.loc 1 401 15 view .LVU119
 536 0112 089A     		ldreq	r2, [sp, #32]	@, xTicksToWait
 405:.\freertos/timers.c **** 			}
 537              		.loc 1 405 5 is_stmt 1 view .LVU120
 538              	@ .\freertos\timers.c:405: 				xReturn = xQueueSendToBack( xTimerQueue, &xMessage, tmrNO_DELAY );
 405:.\freertos/timers.c **** 			}
 539              		.loc 1 405 15 is_stmt 0 view .LVU121
 540 0114 2068     		ldr	r0, [r4]	@, xTimerQueue
 541 0116 01A9     		add	r1, sp, #4	@ tmp137,,
 542 0118 FFF7FEFF 		bl	xQueueGenericSend		@
 543              	.LVL33:
 544              	.L26:
 545              	@ .\freertos\timers.c:421: }
 421:.\freertos/timers.c **** /*-----------------------------------------------------------*/
 546              		.loc 1 421 1 view .LVU122
 547 011c 04B0     		add	sp, sp, #16	@,,
 548              	.LCFI7:
 549              		.cfi_remember_state
 550              		.cfi_def_cfa_offset 16
 551              		@ sp needed	@
 552 011e 70BD     		pop	{r4, r5, r6, pc}	@
 553              	.LVL34:
 554              	.L28:
 555              	.LCFI8:
 556              		.cfi_restore_state
 410:.\freertos/timers.c **** 		}
 557              		.loc 1 410 4 is_stmt 1 view .LVU123
 558              	@ .\freertos\timers.c:410: 			xReturn = xQueueSendToBackFromISR( xTimerQueue, &xMessage, pxHigherPr
 410:.\freertos/timers.c **** 		}
 559              		.loc 1 410 14 is_stmt 0 view .LVU124
 560 0120 0023     		movs	r3, #0	@,
 561 0122 01A9     		add	r1, sp, #4	@ tmp138,,
 562              	.LVL35:
 410:.\freertos/timers.c **** 		}
 563              		.loc 1 410 14 view .LVU125
 564 0124 FFF7FEFF 		bl	xQueueGenericSendFromISR		@
 565              	.LVL36:
 410:.\freertos/timers.c **** 		}
 566              		.loc 1 410 14 view .LVU126
 567 0128 F8E7     		b	.L26		@
 568              	.L33:
 569 012a 00BF     		.align	2
 570              	.L32:
 571 012c 00000000 		.word	.LANCHOR0
 572              		.cfi_endproc
 573              	.LFE37:
 574              		.size	xTimerGenericCommand, .-xTimerGenericCommand
 575              		.align	1
 576              		.syntax unified
 577              		.thumb
ARM GAS  C:\Users\skey\AppData\Local\Temp\cceKeKCB.s 			page 30


 578              		.thumb_func
 579              		.fpu softvfp
 580              		.type	prvSwitchTimerLists, %function
 581              	prvSwitchTimerLists:
 582              	.LFB50:
 858:.\freertos/timers.c **** TickType_t xNextExpireTime, xReloadTime;
 583              		.loc 1 858 1 is_stmt 1 view -0
 584              		.cfi_startproc
 585              		@ args = 0, pretend = 0, frame = 0
 586              		@ frame_needed = 0, uses_anonymous_args = 0
 859:.\freertos/timers.c **** List_t *pxTemp;
 587              		.loc 1 859 1 view .LVU128
 860:.\freertos/timers.c **** Timer_t *pxTimer;
 588              		.loc 1 860 1 view .LVU129
 861:.\freertos/timers.c **** BaseType_t xResult;
 589              		.loc 1 861 1 view .LVU130
 862:.\freertos/timers.c **** 
 590              		.loc 1 862 1 view .LVU131
 868:.\freertos/timers.c **** 	{
 591              		.loc 1 868 2 view .LVU132
 592              	@ .\freertos\timers.c:858: {
 858:.\freertos/timers.c **** TickType_t xNextExpireTime, xReloadTime;
 593              		.loc 1 858 1 is_stmt 0 view .LVU133
 594 0130 2DE9F341 		push	{r0, r1, r4, r5, r6, r7, r8, lr}	@
 595              	.LCFI9:
 596              		.cfi_def_cfa_offset 32
 597              		.cfi_offset 4, -24
 598              		.cfi_offset 5, -20
 599              		.cfi_offset 6, -16
 600              		.cfi_offset 7, -12
 601              		.cfi_offset 8, -8
 602              		.cfi_offset 14, -4
 603              	@ .\freertos\timers.c:899: 				xResult = xTimerGenericCommand( pxTimer, tmrCOMMAND_START_DONT_TRACE
 899:.\freertos/timers.c **** 				configASSERT( xResult );
 604              		.loc 1 899 15 view .LVU134
 605 0134 4FF00008 		mov	r8, #0	@ tmp137,
 606              	@ .\freertos\timers.c:868: 	while( listLIST_IS_EMPTY( pxCurrentTimerList ) == pdFALSE )
 868:.\freertos/timers.c **** 	{
 607              		.loc 1 868 9 view .LVU135
 608 0138 154D     		ldr	r5, .L42	@ tmp132,
 609              	.L36:
 906:.\freertos/timers.c **** 		}
 610              		.loc 1 906 28 is_stmt 1 view .LVU136
 868:.\freertos/timers.c **** 	{
 611              		.loc 1 868 7 view .LVU137
 612              	@ .\freertos\timers.c:868: 	while( listLIST_IS_EMPTY( pxCurrentTimerList ) == pdFALSE )
 868:.\freertos/timers.c **** 	{
 613              		.loc 1 868 9 is_stmt 0 view .LVU138
 614 013a EB6A     		ldr	r3, [r5, #44]	@ pxCurrentTimerList.13_11, pxCurrentTimerList
 615 013c 1A68     		ldr	r2, [r3]	@ _12, pxCurrentTimerList.13_11->uxNumberOfItems
 616              	@ .\freertos\timers.c:868: 	while( listLIST_IS_EMPTY( pxCurrentTimerList ) == pdFALSE )
 868:.\freertos/timers.c **** 	{
 617              		.loc 1 868 7 view .LVU139
 618 013e 2AB9     		cbnz	r2, .L39	@ _12,
 910:.\freertos/timers.c **** 	pxCurrentTimerList = pxOverflowTimerList;
 619              		.loc 1 910 2 is_stmt 1 view .LVU140
 620              	.LVL37:
ARM GAS  C:\Users\skey\AppData\Local\Temp\cceKeKCB.s 			page 31


 911:.\freertos/timers.c **** 	pxOverflowTimerList = pxTemp;
 621              		.loc 1 911 2 view .LVU141
 622              	@ .\freertos\timers.c:911: 	pxCurrentTimerList = pxOverflowTimerList;
 911:.\freertos/timers.c **** 	pxOverflowTimerList = pxTemp;
 623              		.loc 1 911 21 is_stmt 0 view .LVU142
 624 0140 2A6B     		ldr	r2, [r5, #48]	@ pxOverflowTimerList, pxOverflowTimerList
 625              	@ .\freertos\timers.c:912: 	pxOverflowTimerList = pxTemp;
 912:.\freertos/timers.c **** }
 626              		.loc 1 912 22 view .LVU143
 627 0142 C5E90B23 		strd	r2, r3, [r5, #44]	@ pxOverflowTimerList, pxCurrentTimerList.13_11, tmp132,
 628              	@ .\freertos\timers.c:913: }
 913:.\freertos/timers.c **** /*-----------------------------------------------------------*/
 629              		.loc 1 913 1 view .LVU144
 630 0146 02B0     		add	sp, sp, #8	@,,
 631              	.LCFI10:
 632              		.cfi_remember_state
 633              		.cfi_def_cfa_offset 24
 634              		@ sp needed	@
 635 0148 BDE8F081 		pop	{r4, r5, r6, r7, r8, pc}	@
 636              	.LVL38:
 637              	.L39:
 638              	.LCFI11:
 639              		.cfi_restore_state
 870:.\freertos/timers.c **** 
 640              		.loc 1 870 3 is_stmt 1 view .LVU145
 641              	@ .\freertos\timers.c:870: 		xNextExpireTime = listGET_ITEM_VALUE_OF_HEAD_ENTRY( pxCurrentTimerList
 870:.\freertos/timers.c **** 
 642              		.loc 1 870 21 is_stmt 0 view .LVU146
 643 014c DB68     		ldr	r3, [r3, #12]	@ _2, pxCurrentTimerList.13_11->xListEnd.pxNext
 644              	@ .\freertos\timers.c:873: 		pxTimer = ( Timer_t * ) listGET_OWNER_OF_HEAD_ENTRY( pxCurrentTimerLis
 873:.\freertos/timers.c **** 		( void ) uxListRemove( &( pxTimer->xTimerListItem ) );
 645              		.loc 1 873 11 view .LVU147
 646 014e DC68     		ldr	r4, [r3, #12]	@ pxTimer, _2->pvOwner
 647              	@ .\freertos\timers.c:870: 		xNextExpireTime = listGET_ITEM_VALUE_OF_HEAD_ENTRY( pxCurrentTimerList
 870:.\freertos/timers.c **** 
 648              		.loc 1 870 19 view .LVU148
 649 0150 1E68     		ldr	r6, [r3]	@ xNextExpireTime, _2->xItemValue
 650              	.LVL39:
 873:.\freertos/timers.c **** 		( void ) uxListRemove( &( pxTimer->xTimerListItem ) );
 651              		.loc 1 873 3 is_stmt 1 view .LVU149
 874:.\freertos/timers.c **** 		traceTIMER_EXPIRED( pxTimer );
 652              		.loc 1 874 3 view .LVU150
 653              	@ .\freertos\timers.c:874: 		( void ) uxListRemove( &( pxTimer->xTimerListItem ) );
 874:.\freertos/timers.c **** 		traceTIMER_EXPIRED( pxTimer );
 654              		.loc 1 874 12 is_stmt 0 view .LVU151
 655 0152 271D     		adds	r7, r4, #4	@ _5, pxTimer,
 656 0154 3846     		mov	r0, r7	@, _5
 657 0156 FFF7FEFF 		bl	uxListRemove		@
 658              	.LVL40:
 875:.\freertos/timers.c **** 
 659              		.loc 1 875 32 is_stmt 1 view .LVU152
 880:.\freertos/timers.c **** 
 660              		.loc 1 880 3 view .LVU153
 661 015a 236A     		ldr	r3, [r4, #32]	@ pxTimer_20->pxCallbackFunction, pxTimer_20->pxCallbackFunction
 662 015c 2046     		mov	r0, r4	@, pxTimer
 663 015e 9847     		blx	r3		@ pxTimer_20->pxCallbackFunction
 664              	.LVL41:
ARM GAS  C:\Users\skey\AppData\Local\Temp\cceKeKCB.s 			page 32


 882:.\freertos/timers.c **** 		{
 665              		.loc 1 882 3 view .LVU154
 666              	@ .\freertos\timers.c:882: 		if( ( pxTimer->ucStatus & tmrSTATUS_IS_AUTORELOAD ) != 0 )
 882:.\freertos/timers.c **** 		{
 667              		.loc 1 882 5 is_stmt 0 view .LVU155
 668 0160 94F82830 		ldrb	r3, [r4, #40]	@ zero_extendqisi2	@ pxTimer_20->ucStatus, pxTimer_20->ucStatus
 669 0164 5B07     		lsls	r3, r3, #29	@, pxTimer_20->ucStatus,
 670 0166 E8D5     		bpl	.L36		@,
 890:.\freertos/timers.c **** 			if( xReloadTime > xNextExpireTime )
 671              		.loc 1 890 4 is_stmt 1 view .LVU156
 672              	@ .\freertos\timers.c:890: 			xReloadTime = ( xNextExpireTime + pxTimer->xTimerPeriodInTicks );
 890:.\freertos/timers.c **** 			if( xReloadTime > xNextExpireTime )
 673              		.loc 1 890 16 is_stmt 0 view .LVU157
 674 0168 A369     		ldr	r3, [r4, #24]	@ pxTimer_20->xTimerPeriodInTicks, pxTimer_20->xTimerPeriodInTicks
 675 016a 3344     		add	r3, r3, r6	@ xReloadTime, xNextExpireTime
 676              	.LVL42:
 891:.\freertos/timers.c **** 			{
 677              		.loc 1 891 4 is_stmt 1 view .LVU158
 678              	@ .\freertos\timers.c:891: 			if( xReloadTime > xNextExpireTime )
 891:.\freertos/timers.c **** 			{
 679              		.loc 1 891 6 is_stmt 0 view .LVU159
 680 016c 9E42     		cmp	r6, r3	@ xNextExpireTime, xReloadTime
 681 016e 06D2     		bcs	.L37		@,
 893:.\freertos/timers.c **** 				listSET_LIST_ITEM_OWNER( &( pxTimer->xTimerListItem ), pxTimer );
 682              		.loc 1 893 5 is_stmt 1 view .LVU160
 683              	@ .\freertos\timers.c:895: 				vListInsert( pxCurrentTimerList, &( pxTimer->xTimerListItem ) );
 895:.\freertos/timers.c **** 			}
 684              		.loc 1 895 5 is_stmt 0 view .LVU161
 685 0170 3946     		mov	r1, r7	@, _5
 686 0172 E86A     		ldr	r0, [r5, #44]	@, pxCurrentTimerList
 687              	@ .\freertos\timers.c:893: 				listSET_LIST_ITEM_VALUE( &( pxTimer->xTimerListItem ), xReloadTime )
 893:.\freertos/timers.c **** 				listSET_LIST_ITEM_OWNER( &( pxTimer->xTimerListItem ), pxTimer );
 688              		.loc 1 893 5 view .LVU162
 689 0174 6360     		str	r3, [r4, #4]	@ xReloadTime, pxTimer_20->xTimerListItem.xItemValue
 894:.\freertos/timers.c **** 				vListInsert( pxCurrentTimerList, &( pxTimer->xTimerListItem ) );
 690              		.loc 1 894 5 is_stmt 1 view .LVU163
 691 0176 2461     		str	r4, [r4, #16]	@ pxTimer, pxTimer_20->xTimerListItem.pvOwner
 895:.\freertos/timers.c **** 			}
 692              		.loc 1 895 5 view .LVU164
 693 0178 FFF7FEFF 		bl	vListInsert		@
 694              	.LVL43:
 895:.\freertos/timers.c **** 			}
 695              		.loc 1 895 5 is_stmt 0 view .LVU165
 696 017c DDE7     		b	.L36		@
 697              	.LVL44:
 698              	.L37:
 899:.\freertos/timers.c **** 				configASSERT( xResult );
 699              		.loc 1 899 5 is_stmt 1 view .LVU166
 700              	@ .\freertos\timers.c:899: 				xResult = xTimerGenericCommand( pxTimer, tmrCOMMAND_START_DONT_TRACE
 899:.\freertos/timers.c **** 				configASSERT( xResult );
 701              		.loc 1 899 15 is_stmt 0 view .LVU167
 702 017e 0023     		movs	r3, #0	@,
 703              	.LVL45:
 899:.\freertos/timers.c **** 				configASSERT( xResult );
 704              		.loc 1 899 15 view .LVU168
 705 0180 3246     		mov	r2, r6	@, xNextExpireTime
 706 0182 1946     		mov	r1, r3	@,
ARM GAS  C:\Users\skey\AppData\Local\Temp\cceKeKCB.s 			page 33


 707 0184 2046     		mov	r0, r4	@, pxTimer
 708 0186 CDF80080 		str	r8, [sp]	@ tmp137,
 709              	.LVL46:
 899:.\freertos/timers.c **** 				configASSERT( xResult );
 710              		.loc 1 899 15 view .LVU169
 711 018a FFF7FEFF 		bl	xTimerGenericCommand		@
 712              	.LVL47:
 713 018e D4E7     		b	.L36		@
 714              	.L43:
 715              		.align	2
 716              	.L42:
 717 0190 00000000 		.word	.LANCHOR0
 718              		.cfi_endproc
 719              	.LFE50:
 720              		.size	prvSwitchTimerLists, .-prvSwitchTimerLists
 721              		.align	1
 722              		.syntax unified
 723              		.thumb
 724              		.thumb_func
 725              		.fpu softvfp
 726              		.type	prvTimerTask, %function
 727              	prvTimerTask:
 728              	.LVL48:
 729              	.LFB44:
 524:.\freertos/timers.c **** TickType_t xNextExpireTime;
 730              		.loc 1 524 1 is_stmt 1 view -0
 731              		.cfi_startproc
 732              		@ args = 0, pretend = 0, frame = 16
 733              		@ frame_needed = 0, uses_anonymous_args = 0
 524:.\freertos/timers.c **** TickType_t xNextExpireTime;
 734              		.loc 1 524 1 is_stmt 0 view .LVU171
 735 0194 2DE9F047 		push	{r4, r5, r6, r7, r8, r9, r10, lr}	@
 736              	.LCFI12:
 737              		.cfi_def_cfa_offset 32
 738              		.cfi_offset 4, -32
 739              		.cfi_offset 5, -28
 740              		.cfi_offset 6, -24
 741              		.cfi_offset 7, -20
 742              		.cfi_offset 8, -16
 743              		.cfi_offset 9, -12
 744              		.cfi_offset 10, -8
 745              		.cfi_offset 14, -4
 746              	.LBB22:
 747              	.LBB23:
 748              	@ .\freertos\timers.c:630: 	*pxListWasEmpty = listLIST_IS_EMPTY( pxCurrentTimerList );
 630:.\freertos/timers.c **** 	if( *pxListWasEmpty == pdFALSE )
 749              		.loc 1 630 20 view .LVU172
 750 0198 684F     		ldr	r7, .L84	@ tmp164,
 751              	.LBE23:
 752              	.LBE22:
 753              	.LBB26:
 754              	.LBB27:
 755              	@ .\freertos\timers.c:603: 					portYIELD_WITHIN_API();
 603:.\freertos/timers.c **** 				}
 756              		.loc 1 603 6 view .LVU173
 757 019a DFF8A481 		ldr	r8, .L84+4	@ tmp231,
 758 019e 3D46     		mov	r5, r7	@ tmp229, tmp164
ARM GAS  C:\Users\skey\AppData\Local\Temp\cceKeKCB.s 			page 34


 759              	.LBE27:
 760              	.LBE26:
 761              	@ .\freertos\timers.c:524: {
 524:.\freertos/timers.c **** TickType_t xNextExpireTime;
 762              		.loc 1 524 1 view .LVU174
 763 01a0 86B0     		sub	sp, sp, #24	@,,
 764              	.LCFI13:
 765              		.cfi_def_cfa_offset 56
 766              	.LVL49:
 767              	.L67:
 525:.\freertos/timers.c **** BaseType_t xListWasEmpty;
 768              		.loc 1 525 1 is_stmt 1 discriminator 1 view .LVU175
 526:.\freertos/timers.c **** 
 769              		.loc 1 526 1 discriminator 1 view .LVU176
 529:.\freertos/timers.c **** 
 770              		.loc 1 529 2 discriminator 1 view .LVU177
 543:.\freertos/timers.c **** 	{
 771              		.loc 1 543 2 discriminator 1 view .LVU178
 547:.\freertos/timers.c **** 
 772              		.loc 1 547 3 discriminator 1 view .LVU179
 773              	.LBB37:
 774              	.LBI22:
 619:.\freertos/timers.c **** {
 775              		.loc 1 619 19 discriminator 1 view .LVU180
 776              	.LBB24:
 621:.\freertos/timers.c **** 
 777              		.loc 1 621 1 discriminator 1 view .LVU181
 630:.\freertos/timers.c **** 	if( *pxListWasEmpty == pdFALSE )
 778              		.loc 1 630 2 discriminator 1 view .LVU182
 779              	@ .\freertos\timers.c:630: 	*pxListWasEmpty = listLIST_IS_EMPTY( pxCurrentTimerList );
 630:.\freertos/timers.c **** 	if( *pxListWasEmpty == pdFALSE )
 780              		.loc 1 630 20 is_stmt 0 discriminator 1 view .LVU183
 781 01a2 FB6A     		ldr	r3, [r7, #44]	@ pxCurrentTimerList.3_51, pxCurrentTimerList
 782 01a4 1E68     		ldr	r6, [r3]	@ xNextExpireTime, pxCurrentTimerList.3_51->uxNumberOfItems
 783 01a6 1EB3     		cbz	r6, .L68	@ xNextExpireTime,
 784              	.LVL50:
 631:.\freertos/timers.c **** 	{
 785              		.loc 1 631 2 is_stmt 1 view .LVU184
 633:.\freertos/timers.c **** 	}
 786              		.loc 1 633 3 view .LVU185
 787              	@ .\freertos\timers.c:630: 	*pxListWasEmpty = listLIST_IS_EMPTY( pxCurrentTimerList );
 630:.\freertos/timers.c **** 	if( *pxListWasEmpty == pdFALSE )
 788              		.loc 1 630 20 is_stmt 0 view .LVU186
 789 01a8 0024     		movs	r4, #0	@ xListWasEmpty,
 790              	@ .\freertos\timers.c:633: 		xNextExpireTime = listGET_ITEM_VALUE_OF_HEAD_ENTRY( pxCurrentTimerList
 633:.\freertos/timers.c **** 	}
 791              		.loc 1 633 19 view .LVU187
 792 01aa DB68     		ldr	r3, [r3, #12]	@ pxCurrentTimerList.3_51->xListEnd.pxNext, pxCurrentTimerList.3_51->xListEnd.px
 793 01ac 1E68     		ldr	r6, [r3]	@ xNextExpireTime, _54->xItemValue
 794              	.LVL51:
 795              	.L45:
 641:.\freertos/timers.c **** }
 796              		.loc 1 641 2 is_stmt 1 view .LVU188
 641:.\freertos/timers.c **** }
 797              		.loc 1 641 2 is_stmt 0 view .LVU189
 798              	.LBE24:
 799              	.LBE37:
ARM GAS  C:\Users\skey\AppData\Local\Temp\cceKeKCB.s 			page 35


 551:.\freertos/timers.c **** 
 800              		.loc 1 551 3 is_stmt 1 view .LVU190
 801              	.LBB38:
 802              	.LBI26:
 559:.\freertos/timers.c **** {
 803              		.loc 1 559 13 view .LVU191
 804              	.LBB34:
 561:.\freertos/timers.c **** BaseType_t xTimerListsWereSwitched;
 805              		.loc 1 561 1 view .LVU192
 562:.\freertos/timers.c **** 
 806              		.loc 1 562 1 view .LVU193
 564:.\freertos/timers.c **** 	{
 807              		.loc 1 564 2 view .LVU194
 808 01ae FFF7FEFF 		bl	vTaskSuspendAll		@
 809              	.LVL52:
 571:.\freertos/timers.c **** 		if( xTimerListsWereSwitched == pdFALSE )
 810              		.loc 1 571 3 view .LVU195
 811              	.LBB28:
 812              	.LBI28:
 645:.\freertos/timers.c **** {
 813              		.loc 1 645 19 view .LVU196
 814              	.LBB29:
 647:.\freertos/timers.c **** PRIVILEGED_DATA static TickType_t xLastTime = ( TickType_t ) 0U; /*lint !e956 Variable is only acce
 815              		.loc 1 647 1 view .LVU197
 648:.\freertos/timers.c **** 
 816              		.loc 1 648 17 view .LVU198
 650:.\freertos/timers.c **** 
 817              		.loc 1 650 2 view .LVU199
 818              	@ .\freertos\timers.c:650: 	xTimeNow = xTaskGetTickCount();
 650:.\freertos/timers.c **** 
 819              		.loc 1 650 13 is_stmt 0 view .LVU200
 820 01b2 FFF7FEFF 		bl	xTaskGetTickCount		@
 821              	.LVL53:
 822              	@ .\freertos\timers.c:652: 	if( xTimeNow < xLastTime )
 652:.\freertos/timers.c **** 	{
 823              		.loc 1 652 4 view .LVU201
 824 01b6 AB6B     		ldr	r3, [r5, #56]	@ xLastTime, xLastTime
 825              	@ .\freertos\timers.c:650: 	xTimeNow = xTaskGetTickCount();
 650:.\freertos/timers.c **** 
 826              		.loc 1 650 13 view .LVU202
 827 01b8 8246     		mov	r10, r0	@ xTimeNow, tmp232
 828              	.LVL54:
 652:.\freertos/timers.c **** 	{
 829              		.loc 1 652 2 is_stmt 1 view .LVU203
 830              	@ .\freertos\timers.c:652: 	if( xTimeNow < xLastTime )
 652:.\freertos/timers.c **** 	{
 831              		.loc 1 652 4 is_stmt 0 view .LVU204
 832 01ba 9842     		cmp	r0, r3	@ xTimeNow, xLastTime
 833 01bc 1AD3     		bcc	.L46		@,
 834              	.LVL55:
 662:.\freertos/timers.c **** 
 835              		.loc 1 662 2 is_stmt 1 view .LVU205
 836              	@ .\freertos\timers.c:662: 	xLastTime = xTimeNow;
 662:.\freertos/timers.c **** 
 837              		.loc 1 662 12 is_stmt 0 view .LVU206
 838 01be A863     		str	r0, [r5, #56]	@ xTimeNow, xLastTime
 664:.\freertos/timers.c **** }
ARM GAS  C:\Users\skey\AppData\Local\Temp\cceKeKCB.s 			page 36


 839              		.loc 1 664 2 is_stmt 1 view .LVU207
 840              	.LVL56:
 664:.\freertos/timers.c **** }
 841              		.loc 1 664 2 is_stmt 0 view .LVU208
 842              	.LBE29:
 843              	.LBE28:
 572:.\freertos/timers.c **** 		{
 844              		.loc 1 572 3 is_stmt 1 view .LVU209
 575:.\freertos/timers.c **** 			{
 845              		.loc 1 575 4 view .LVU210
 846              	@ .\freertos\timers.c:575: 			if( ( xListWasEmpty == pdFALSE ) && ( xNextExpireTime <= xTimeNow ) )
 575:.\freertos/timers.c **** 			{
 847              		.loc 1 575 6 is_stmt 0 view .LVU211
 848 01c0 0CB3     		cbz	r4, .L47	@ xListWasEmpty,
 588:.\freertos/timers.c **** 				{
 849              		.loc 1 588 5 is_stmt 1 view .LVU212
 592:.\freertos/timers.c **** 				}
 850              		.loc 1 592 6 view .LVU213
 851              	@ .\freertos\timers.c:592: 					xListWasEmpty = listLIST_IS_EMPTY( pxOverflowTimerList );
 592:.\freertos/timers.c **** 				}
 852              		.loc 1 592 22 is_stmt 0 view .LVU214
 853 01c2 2B6B     		ldr	r3, [r5, #48]	@ pxOverflowTimerList.7_45, pxOverflowTimerList
 854 01c4 1C68     		ldr	r4, [r3]	@ _46, pxOverflowTimerList.7_45->uxNumberOfItems
 855              	.LVL57:
 592:.\freertos/timers.c **** 				}
 856              		.loc 1 592 22 view .LVU215
 857 01c6 B4FA84F4 		clz	r4, r4	@ xListWasEmpty, _46
 858 01ca 6409     		lsrs	r4, r4, #5	@ xListWasEmpty, xListWasEmpty,
 859              	.L50:
 860              	.LVL58:
 595:.\freertos/timers.c **** 
 861              		.loc 1 595 5 is_stmt 1 view .LVU216
 862 01cc 2246     		mov	r2, r4	@, xListWasEmpty
 863 01ce 2868     		ldr	r0, [r5]	@, xTimerQueue
 864              	.LVL59:
 595:.\freertos/timers.c **** 
 865              		.loc 1 595 5 is_stmt 0 view .LVU217
 866 01d0 A6EB0A01 		sub	r1, r6, r10	@, xNextExpireTime, xTimeNow
 867 01d4 FFF7FEFF 		bl	vQueueWaitForMessageRestricted		@
 868              	.LVL60:
 597:.\freertos/timers.c **** 				{
 869              		.loc 1 597 5 is_stmt 1 view .LVU218
 870              	@ .\freertos\timers.c:597: 				if( xTaskResumeAll() == pdFALSE )
 597:.\freertos/timers.c **** 				{
 871              		.loc 1 597 9 is_stmt 0 view .LVU219
 872 01d8 FFF7FEFF 		bl	xTaskResumeAll		@
 873              	.LVL61:
 874              	@ .\freertos\timers.c:597: 				if( xTaskResumeAll() == pdFALSE )
 597:.\freertos/timers.c **** 				{
 875              		.loc 1 597 7 view .LVU220
 876 01dc 80B9     		cbnz	r0, .L49	@ tmp234,
 603:.\freertos/timers.c **** 				}
 877              		.loc 1 603 6 is_stmt 1 view .LVU221
 878 01de 4FF08053 		mov	r3, #268435456	@ tmp189,
 879 01e2 C8F80030 		str	r3, [r8]	@ tmp189, MEM[(volatile uint32_t *)3758157060B]
 603:.\freertos/timers.c **** 				}
 880              		.loc 1 603 6 view .LVU222
ARM GAS  C:\Users\skey\AppData\Local\Temp\cceKeKCB.s 			page 37


 881              		.syntax unified
 882              	@ 603 ".\freertos\timers.c" 1
 883 01e6 BFF34F8F 		dsb	
 884              	@ 0 "" 2
 603:.\freertos/timers.c **** 				}
 885              		.loc 1 603 6 view .LVU223
 886              	@ 603 ".\freertos\timers.c" 1
 887 01ea BFF36F8F 		isb
 888              	@ 0 "" 2
 603:.\freertos/timers.c **** 				}
 889              		.loc 1 603 28 view .LVU224
 890              		.thumb
 891              		.syntax unified
 892 01ee 07E0     		b	.L49		@
 893              	.LVL62:
 894              	.L68:
 603:.\freertos/timers.c **** 				}
 895              		.loc 1 603 28 is_stmt 0 view .LVU225
 896              	.LBE34:
 897              	.LBE38:
 898              	.LBB39:
 899              	.LBB25:
 900              	@ .\freertos\timers.c:630: 	*pxListWasEmpty = listLIST_IS_EMPTY( pxCurrentTimerList );
 630:.\freertos/timers.c **** 	if( *pxListWasEmpty == pdFALSE )
 901              		.loc 1 630 20 view .LVU226
 902 01f0 0124     		movs	r4, #1	@ xListWasEmpty,
 903 01f2 DCE7     		b	.L45		@
 904              	.LVL63:
 905              	.L46:
 630:.\freertos/timers.c **** 	if( *pxListWasEmpty == pdFALSE )
 906              		.loc 1 630 20 view .LVU227
 907              	.LBE25:
 908              	.LBE39:
 909              	.LBB40:
 910              	.LBB35:
 911              	.LBB31:
 912              	.LBB30:
 654:.\freertos/timers.c **** 		*pxTimerListsWereSwitched = pdTRUE;
 913              		.loc 1 654 3 is_stmt 1 view .LVU228
 914 01f4 FFF79CFF 		bl	prvSwitchTimerLists		@
 915              	.LVL64:
 655:.\freertos/timers.c **** 	}
 916              		.loc 1 655 3 view .LVU229
 662:.\freertos/timers.c **** 
 917              		.loc 1 662 2 view .LVU230
 918              	@ .\freertos\timers.c:662: 	xLastTime = xTimeNow;
 662:.\freertos/timers.c **** 
 919              		.loc 1 662 12 is_stmt 0 view .LVU231
 920 01f8 C5F838A0 		str	r10, [r5, #56]	@ xTimeNow, xLastTime
 664:.\freertos/timers.c **** }
 921              		.loc 1 664 2 is_stmt 1 view .LVU232
 922              	.LVL65:
 664:.\freertos/timers.c **** }
 923              		.loc 1 664 2 is_stmt 0 view .LVU233
 924              	.LBE30:
 925              	.LBE31:
 572:.\freertos/timers.c **** 		{
ARM GAS  C:\Users\skey\AppData\Local\Temp\cceKeKCB.s 			page 38


 926              		.loc 1 572 3 is_stmt 1 view .LVU234
 613:.\freertos/timers.c **** 		}
 927              		.loc 1 613 4 view .LVU235
 928              	@ .\freertos\timers.c:613: 			( void ) xTaskResumeAll();
 613:.\freertos/timers.c **** 		}
 929              		.loc 1 613 13 is_stmt 0 view .LVU236
 930 01fc FFF7FEFF 		bl	xTaskResumeAll		@
 931              	.LVL66:
 932              	.L49:
 613:.\freertos/timers.c **** 		}
 933              		.loc 1 613 13 view .LVU237
 934              	.LBE35:
 935              	.LBE40:
 936              	.LBB41:
 937              	.LBB42:
 938              	@ .\freertos\timers.c:716: 	while( xQueueReceive( xTimerQueue, &xMessage, tmrNO_DELAY ) != pdFAIL )
 716:.\freertos/timers.c **** 	{
 939              		.loc 1 716 9 view .LVU238
 940 0200 4FF00009 		mov	r9, #0	@ tmp230,
 941              	.LVL67:
 716:.\freertos/timers.c **** 	{
 942              		.loc 1 716 9 view .LVU239
 943 0204 48E0     		b	.L53		@
 944              	.LVL68:
 945              	.L47:
 716:.\freertos/timers.c **** 	{
 946              		.loc 1 716 9 view .LVU240
 947              	.LBE42:
 948              	.LBE41:
 949              	.LBB46:
 950              	.LBB36:
 951              	@ .\freertos\timers.c:575: 			if( ( xListWasEmpty == pdFALSE ) && ( xNextExpireTime <= xTimeNow ) )
 575:.\freertos/timers.c **** 			{
 952              		.loc 1 575 37 view .LVU241
 953 0206 8642     		cmp	r6, r0	@ xNextExpireTime, xTimeNow
 954 0208 E0D8     		bhi	.L50		@,
 577:.\freertos/timers.c **** 				prvProcessExpiredTimer( xNextExpireTime, xTimeNow );
 955              		.loc 1 577 5 is_stmt 1 view .LVU242
 956              	@ .\freertos\timers.c:577: 				( void ) xTaskResumeAll();
 577:.\freertos/timers.c **** 				prvProcessExpiredTimer( xNextExpireTime, xTimeNow );
 957              		.loc 1 577 14 is_stmt 0 view .LVU243
 958 020a FFF7FEFF 		bl	xTaskResumeAll		@
 959              	.LVL69:
 578:.\freertos/timers.c **** 			}
 960              		.loc 1 578 5 is_stmt 1 view .LVU244
 961              	.LBB32:
 962              	.LBI32:
 482:.\freertos/timers.c **** {
 963              		.loc 1 482 13 view .LVU245
 964              	.LBB33:
 484:.\freertos/timers.c **** Timer_t * const pxTimer = ( Timer_t * ) listGET_OWNER_OF_HEAD_ENTRY( pxCurrentTimerList ); /*lint !
 965              		.loc 1 484 1 view .LVU246
 485:.\freertos/timers.c **** 
 966              		.loc 1 485 1 view .LVU247
 967              	@ .\freertos\timers.c:485: Timer_t * const pxTimer = ( Timer_t * ) listGET_OWNER_OF_HEAD_ENTRY( pxC
 485:.\freertos/timers.c **** 
 968              		.loc 1 485 41 is_stmt 0 view .LVU248
ARM GAS  C:\Users\skey\AppData\Local\Temp\cceKeKCB.s 			page 39


 969 020e EB6A     		ldr	r3, [r5, #44]	@ pxCurrentTimerList, pxCurrentTimerList
 970              	@ .\freertos\timers.c:485: Timer_t * const pxTimer = ( Timer_t * ) listGET_OWNER_OF_HEAD_ENTRY( pxC
 485:.\freertos/timers.c **** 
 971              		.loc 1 485 17 view .LVU249
 972 0210 DB68     		ldr	r3, [r3, #12]	@ pxCurrentTimerList.15_59->xListEnd.pxNext, pxCurrentTimerList.15_59->xListEnd.
 973 0212 D3F80C90 		ldr	r9, [r3, #12]	@ pxTimer, _60->pvOwner
 974              	.LVL70:
 489:.\freertos/timers.c **** 	traceTIMER_EXPIRED( pxTimer );
 975              		.loc 1 489 2 is_stmt 1 view .LVU250
 976              	@ .\freertos\timers.c:489: 	( void ) uxListRemove( &( pxTimer->xTimerListItem ) );
 489:.\freertos/timers.c **** 	traceTIMER_EXPIRED( pxTimer );
 977              		.loc 1 489 11 is_stmt 0 view .LVU251
 978 0216 09F10400 		add	r0, r9, #4	@, pxTimer,
 979 021a FFF7FEFF 		bl	uxListRemove		@
 980              	.LVL71:
 490:.\freertos/timers.c **** 
 981              		.loc 1 490 31 is_stmt 1 view .LVU252
 494:.\freertos/timers.c **** 	{
 982              		.loc 1 494 2 view .LVU253
 983              	@ .\freertos\timers.c:494: 	if( ( pxTimer->ucStatus & tmrSTATUS_IS_AUTORELOAD ) != 0 )
 494:.\freertos/timers.c **** 	{
 984              		.loc 1 494 15 is_stmt 0 view .LVU254
 985 021e 99F82830 		ldrb	r3, [r9, #40]	@ zero_extendqisi2	@ _63, pxTimer_61->ucStatus
 986              	@ .\freertos\timers.c:494: 	if( ( pxTimer->ucStatus & tmrSTATUS_IS_AUTORELOAD ) != 0 )
 494:.\freertos/timers.c **** 	{
 987              		.loc 1 494 4 view .LVU255
 988 0222 5807     		lsls	r0, r3, #29	@, _63,
 989 0224 14D5     		bpl	.L51		@,
 499:.\freertos/timers.c **** 		{
 990              		.loc 1 499 3 is_stmt 1 view .LVU256
 991              	@ .\freertos\timers.c:499: 		if( prvInsertTimerInActiveList( pxTimer, ( xNextExpireTime + pxTimer->
 499:.\freertos/timers.c **** 		{
 992              		.loc 1 499 7 is_stmt 0 view .LVU257
 993 0226 D9F81810 		ldr	r1, [r9, #24]	@ pxTimer_61->xTimerPeriodInTicks, pxTimer_61->xTimerPeriodInTicks
 994 022a 3346     		mov	r3, r6	@, xNextExpireTime
 995 022c 5246     		mov	r2, r10	@, xTimeNow
 996 022e 4846     		mov	r0, r9	@, pxTimer
 997 0230 3144     		add	r1, r1, r6	@, xNextExpireTime
 998 0232 FFF703FF 		bl	prvInsertTimerInActiveList		@
 999              	.LVL72:
 1000              	@ .\freertos\timers.c:499: 		if( prvInsertTimerInActiveList( pxTimer, ( xNextExpireTime + pxTimer->
 499:.\freertos/timers.c **** 		{
 1001              		.loc 1 499 5 view .LVU258
 1002 0236 30B1     		cbz	r0, .L52	@ tmp233,
 503:.\freertos/timers.c **** 			configASSERT( xResult );
 1003              		.loc 1 503 4 is_stmt 1 view .LVU259
 1004              	@ .\freertos\timers.c:503: 			xResult = xTimerGenericCommand( pxTimer, tmrCOMMAND_START_DONT_TRACE,
 503:.\freertos/timers.c **** 			configASSERT( xResult );
 1005              		.loc 1 503 14 is_stmt 0 view .LVU260
 1006 0238 2346     		mov	r3, r4	@, xListWasEmpty
 1007 023a 3246     		mov	r2, r6	@, xNextExpireTime
 1008 023c 2146     		mov	r1, r4	@, tmp3
 1009 023e 4846     		mov	r0, r9	@, pxTimer
 1010 0240 0094     		str	r4, [sp]	@ xListWasEmpty,
 1011 0242 FFF7FEFF 		bl	xTimerGenericCommand		@
 1012              	.LVL73:
 504:.\freertos/timers.c **** 			( void ) xResult;
ARM GAS  C:\Users\skey\AppData\Local\Temp\cceKeKCB.s 			page 40


 1013              		.loc 1 504 27 is_stmt 1 view .LVU261
 505:.\freertos/timers.c **** 		}
 1014              		.loc 1 505 4 view .LVU262
 1015              	.L52:
 515:.\freertos/timers.c **** 	}
 1016              		.loc 1 515 27 view .LVU263
 519:.\freertos/timers.c **** }
 1017              		.loc 1 519 2 view .LVU264
 1018 0246 4846     		mov	r0, r9	@, pxTimer
 1019 0248 D9F82030 		ldr	r3, [r9, #32]	@ pxTimer_61->pxCallbackFunction, pxTimer_61->pxCallbackFunction
 1020 024c 9847     		blx	r3		@ pxTimer_61->pxCallbackFunction
 1021              	.LVL74:
 1022              	@ .\freertos\timers.c:520: }
 520:.\freertos/timers.c **** /*-----------------------------------------------------------*/
 1023              		.loc 1 520 1 is_stmt 0 view .LVU265
 1024 024e D7E7     		b	.L49		@
 1025              	.L51:
 514:.\freertos/timers.c **** 		mtCOVERAGE_TEST_MARKER();
 1026              		.loc 1 514 3 is_stmt 1 view .LVU266
 1027              	@ .\freertos\timers.c:514: 		pxTimer->ucStatus &= ~tmrSTATUS_IS_ACTIVE;
 514:.\freertos/timers.c **** 		mtCOVERAGE_TEST_MARKER();
 1028              		.loc 1 514 21 is_stmt 0 view .LVU267
 1029 0250 23F00103 		bic	r3, r3, #1	@ tmp180, _63,
 1030 0254 89F82830 		strb	r3, [r9, #40]	@ tmp180, pxTimer_61->ucStatus
 1031 0258 F5E7     		b	.L52		@
 1032              	.LVL75:
 1033              	.L60:
 514:.\freertos/timers.c **** 		mtCOVERAGE_TEST_MARKER();
 1034              		.loc 1 514 21 view .LVU268
 1035              	.LBE33:
 1036              	.LBE32:
 1037              	.LBE36:
 1038              	.LBE46:
 1039              	.LBB47:
 1040              	.LBB45:
 776:.\freertos/timers.c **** 					if( prvInsertTimerInActiveList( pxTimer,  xMessage.u.xTimerParameters.xMessageValue + pxTimer-
 1041              		.loc 1 776 6 is_stmt 1 view .LVU269
 1042              	@ .\freertos\timers.c:776: 					pxTimer->ucStatus |= tmrSTATUS_IS_ACTIVE;
 776:.\freertos/timers.c **** 					if( prvInsertTimerInActiveList( pxTimer,  xMessage.u.xTimerParameters.xMessageValue + pxTimer-
 1043              		.loc 1 776 24 is_stmt 0 view .LVU270
 1044 025a 94F82830 		ldrb	r3, [r4, #40]	@ zero_extendqisi2	@ pxTimer_9->ucStatus, pxTimer_9->ucStatus
 1045              	@ .\freertos\timers.c:777: 					if( prvInsertTimerInActiveList( pxTimer,  xMessage.u.xTimerParamete
 777:.\freertos/timers.c **** 					{
 1046              		.loc 1 777 10 view .LVU271
 1047 025e A169     		ldr	r1, [r4, #24]	@ pxTimer_9->xTimerPeriodInTicks, pxTimer_9->xTimerPeriodInTicks
 1048              	@ .\freertos\timers.c:776: 					pxTimer->ucStatus |= tmrSTATUS_IS_ACTIVE;
 776:.\freertos/timers.c **** 					if( prvInsertTimerInActiveList( pxTimer,  xMessage.u.xTimerParameters.xMessageValue + pxTimer-
 1049              		.loc 1 776 24 view .LVU272
 1050 0260 43F00103 		orr	r3, r3, #1	@ tmp199, pxTimer_9->ucStatus,
 1051 0264 84F82830 		strb	r3, [r4, #40]	@ tmp199, pxTimer_9->ucStatus
 777:.\freertos/timers.c **** 					{
 1052              		.loc 1 777 6 is_stmt 1 view .LVU273
 1053              	@ .\freertos\timers.c:777: 					if( prvInsertTimerInActiveList( pxTimer,  xMessage.u.xTimerParamete
 777:.\freertos/timers.c **** 					{
 1054              		.loc 1 777 10 is_stmt 0 view .LVU274
 1055 0268 049B     		ldr	r3, [sp, #16]	@, xMessage.u.xTimerParameters.xMessageValue
 1056 026a 3246     		mov	r2, r6	@, xTimeNow
ARM GAS  C:\Users\skey\AppData\Local\Temp\cceKeKCB.s 			page 41


 1057 026c 2046     		mov	r0, r4	@, pxTimer
 1058 026e 1944     		add	r1, r1, r3	@,
 1059 0270 FFF7E4FE 		bl	prvInsertTimerInActiveList		@
 1060              	.LVL76:
 1061              	@ .\freertos\timers.c:777: 					if( prvInsertTimerInActiveList( pxTimer,  xMessage.u.xTimerParamete
 777:.\freertos/timers.c **** 					{
 1062              		.loc 1 777 8 view .LVU275
 1063 0274 80B1     		cbz	r0, .L53	@ tmp236,
 781:.\freertos/timers.c **** 						traceTIMER_EXPIRED( pxTimer );
 1064              		.loc 1 781 7 is_stmt 1 view .LVU276
 1065 0276 236A     		ldr	r3, [r4, #32]	@ pxTimer_9->pxCallbackFunction, pxTimer_9->pxCallbackFunction
 1066 0278 2046     		mov	r0, r4	@, pxTimer
 1067 027a 9847     		blx	r3		@ pxTimer_9->pxCallbackFunction
 1068              	.LVL77:
 782:.\freertos/timers.c **** 
 1069              		.loc 1 782 36 view .LVU277
 784:.\freertos/timers.c **** 						{
 1070              		.loc 1 784 7 view .LVU278
 1071              	@ .\freertos\timers.c:784: 						if( ( pxTimer->ucStatus & tmrSTATUS_IS_AUTORELOAD ) != 0 )
 784:.\freertos/timers.c **** 						{
 1072              		.loc 1 784 9 is_stmt 0 view .LVU279
 1073 027c 94F82830 		ldrb	r3, [r4, #40]	@ zero_extendqisi2	@ pxTimer_9->ucStatus, pxTimer_9->ucStatus
 1074 0280 5907     		lsls	r1, r3, #29	@, pxTimer_9->ucStatus,
 1075 0282 09D5     		bpl	.L53		@,
 786:.\freertos/timers.c **** 							configASSERT( xResult );
 1076              		.loc 1 786 8 is_stmt 1 view .LVU280
 1077              	@ .\freertos\timers.c:786: 							xResult = xTimerGenericCommand( pxTimer, tmrCOMMAND_START_DONT_TR
 786:.\freertos/timers.c **** 							configASSERT( xResult );
 1078              		.loc 1 786 18 is_stmt 0 view .LVU281
 1079 0284 0023     		movs	r3, #0	@,
 1080 0286 A269     		ldr	r2, [r4, #24]	@ pxTimer_9->xTimerPeriodInTicks, pxTimer_9->xTimerPeriodInTicks
 1081 0288 0499     		ldr	r1, [sp, #16]	@ xMessage.u.xTimerParameters.xMessageValue, xMessage.u.xTimerParameters.xMessag
 1082 028a 2046     		mov	r0, r4	@, pxTimer
 1083 028c 0A44     		add	r2, r2, r1	@, xMessage.u.xTimerParameters.xMessageValue
 1084 028e CDF80090 		str	r9, [sp]	@ tmp230,
 1085 0292 1946     		mov	r1, r3	@,
 1086 0294 FFF7FEFF 		bl	xTimerGenericCommand		@
 1087              	.LVL78:
 787:.\freertos/timers.c **** 							( void ) xResult;
 1088              		.loc 1 787 31 is_stmt 1 view .LVU282
 788:.\freertos/timers.c **** 						}
 1089              		.loc 1 788 8 view .LVU283
 1090              	.L53:
 716:.\freertos/timers.c **** 	{
 1091              		.loc 1 716 7 view .LVU284
 1092              	@ .\freertos\timers.c:716: 	while( xQueueReceive( xTimerQueue, &xMessage, tmrNO_DELAY ) != pdFAIL )
 716:.\freertos/timers.c **** 	{
 1093              		.loc 1 716 9 is_stmt 0 view .LVU285
 1094 0298 0022     		movs	r2, #0	@,
 1095 029a 2868     		ldr	r0, [r5]	@, xTimerQueue
 1096 029c 03A9     		add	r1, sp, #12	@ tmp239,,
 1097 029e FFF7FEFF 		bl	xQueueReceive		@
 1098              	.LVL79:
 1099              	@ .\freertos\timers.c:716: 	while( xQueueReceive( xTimerQueue, &xMessage, tmrNO_DELAY ) != pdFAIL )
 716:.\freertos/timers.c **** 	{
 1100              		.loc 1 716 7 view .LVU286
 1101 02a2 0028     		cmp	r0, #0	@ tmp237
ARM GAS  C:\Users\skey\AppData\Local\Temp\cceKeKCB.s 			page 42


 1102 02a4 3FF47DAF 		beq	.L67	@
 742:.\freertos/timers.c **** 		{
 1103              		.loc 1 742 3 is_stmt 1 view .LVU287
 1104              	@ .\freertos\timers.c:742: 		if( xMessage.xMessageID >= ( BaseType_t ) 0 )
 742:.\freertos/timers.c **** 		{
 1105              		.loc 1 742 5 is_stmt 0 view .LVU288
 1106 02a8 039B     		ldr	r3, [sp, #12]	@ xMessage.xMessageID, xMessage.xMessageID
 1107 02aa 002B     		cmp	r3, #0	@ xMessage.xMessageID,
 1108 02ac F4DB     		blt	.L53		@,
 746:.\freertos/timers.c **** 
 1109              		.loc 1 746 4 is_stmt 1 view .LVU289
 1110              	@ .\freertos\timers.c:746: 			pxTimer = xMessage.u.xTimerParameters.pxTimer;
 746:.\freertos/timers.c **** 
 1111              		.loc 1 746 12 is_stmt 0 view .LVU290
 1112 02ae 059C     		ldr	r4, [sp, #20]	@ pxTimer, xMessage.u.xTimerParameters.pxTimer
 1113              	.LVL80:
 748:.\freertos/timers.c **** 			{
 1114              		.loc 1 748 4 is_stmt 1 view .LVU291
 1115              	@ .\freertos\timers.c:748: 			if( listIS_CONTAINED_WITHIN( NULL, &( pxTimer->xTimerListItem ) ) == 
 748:.\freertos/timers.c **** 			{
 1116              		.loc 1 748 6 is_stmt 0 view .LVU292
 1117 02b0 6369     		ldr	r3, [r4, #20]	@ pxTimer_9->xTimerListItem.pvContainer, pxTimer_9->xTimerListItem.pvContainer
 1118 02b2 13B1     		cbz	r3, .L54	@ pxTimer_9->xTimerListItem.pvContainer,
 751:.\freertos/timers.c **** 			}
 1119              		.loc 1 751 5 is_stmt 1 view .LVU293
 1120              	@ .\freertos\timers.c:751: 				( void ) uxListRemove( &( pxTimer->xTimerListItem ) );
 751:.\freertos/timers.c **** 			}
 1121              		.loc 1 751 14 is_stmt 0 view .LVU294
 1122 02b4 201D     		adds	r0, r4, #4	@, pxTimer,
 1123 02b6 FFF7FEFF 		bl	uxListRemove		@
 1124              	.LVL81:
 1125              	.L54:
 755:.\freertos/timers.c **** 			}
 1126              		.loc 1 755 29 is_stmt 1 view .LVU295
 758:.\freertos/timers.c **** 
 1127              		.loc 1 758 106 view .LVU296
 766:.\freertos/timers.c **** 
 1128              		.loc 1 766 4 view .LVU297
 1129              	.LBB43:
 1130              	.LBI43:
 645:.\freertos/timers.c **** {
 1131              		.loc 1 645 19 view .LVU298
 1132              	.LBB44:
 647:.\freertos/timers.c **** PRIVILEGED_DATA static TickType_t xLastTime = ( TickType_t ) 0U; /*lint !e956 Variable is only acce
 1133              		.loc 1 647 1 view .LVU299
 648:.\freertos/timers.c **** 
 1134              		.loc 1 648 17 view .LVU300
 650:.\freertos/timers.c **** 
 1135              		.loc 1 650 2 view .LVU301
 1136              	@ .\freertos\timers.c:650: 	xTimeNow = xTaskGetTickCount();
 650:.\freertos/timers.c **** 
 1137              		.loc 1 650 13 is_stmt 0 view .LVU302
 1138 02ba FFF7FEFF 		bl	xTaskGetTickCount		@
 1139              	.LVL82:
 1140              	@ .\freertos\timers.c:652: 	if( xTimeNow < xLastTime )
 652:.\freertos/timers.c **** 	{
 1141              		.loc 1 652 4 view .LVU303
ARM GAS  C:\Users\skey\AppData\Local\Temp\cceKeKCB.s 			page 43


 1142 02be AB6B     		ldr	r3, [r5, #56]	@ xLastTime, xLastTime
 1143              	@ .\freertos\timers.c:650: 	xTimeNow = xTaskGetTickCount();
 650:.\freertos/timers.c **** 
 1144              		.loc 1 650 13 view .LVU304
 1145 02c0 0646     		mov	r6, r0	@ xTimeNow, tmp235
 1146              	.LVL83:
 652:.\freertos/timers.c **** 	{
 1147              		.loc 1 652 2 is_stmt 1 view .LVU305
 1148              	@ .\freertos\timers.c:652: 	if( xTimeNow < xLastTime )
 652:.\freertos/timers.c **** 	{
 1149              		.loc 1 652 4 is_stmt 0 view .LVU306
 1150 02c2 9842     		cmp	r0, r3	@ xTimeNow, xLastTime
 1151 02c4 01D2     		bcs	.L55		@,
 654:.\freertos/timers.c **** 		*pxTimerListsWereSwitched = pdTRUE;
 1152              		.loc 1 654 3 is_stmt 1 view .LVU307
 1153 02c6 FFF733FF 		bl	prvSwitchTimerLists		@
 1154              	.LVL84:
 655:.\freertos/timers.c **** 	}
 1155              		.loc 1 655 3 view .LVU308
 1156              	.L55:
 662:.\freertos/timers.c **** 
 1157              		.loc 1 662 2 view .LVU309
 1158 02ca 039B     		ldr	r3, [sp, #12]	@ xMessage.xMessageID, xMessage.xMessageID
 1159              	@ .\freertos\timers.c:662: 	xLastTime = xTimeNow;
 662:.\freertos/timers.c **** 
 1160              		.loc 1 662 12 is_stmt 0 view .LVU310
 1161 02cc AE63     		str	r6, [r5, #56]	@ xTimeNow, xLastTime
 664:.\freertos/timers.c **** }
 1162              		.loc 1 664 2 is_stmt 1 view .LVU311
 1163              	.LVL85:
 664:.\freertos/timers.c **** }
 1164              		.loc 1 664 2 is_stmt 0 view .LVU312
 1165              	.LBE44:
 1166              	.LBE43:
 768:.\freertos/timers.c **** 			{
 1167              		.loc 1 768 4 is_stmt 1 view .LVU313
 1168 02ce 092B     		cmp	r3, #9	@ xMessage.xMessageID,
 1169 02d0 E2D8     		bhi	.L53		@
 1170 02d2 01A2     		adr	r2, .L58	@ tmp238,
 1171 02d4 52F823F0 		ldr	pc, [r2, r3, lsl #2]	@ tmp238, xMessage.xMessageID
 1172              		.p2align 2
 1173              	.L58:
 1174 02d8 5B020000 		.word	.L60+1
 1175 02dc 5B020000 		.word	.L60+1
 1176 02e0 5B020000 		.word	.L60+1
 1177 02e4 01030000 		.word	.L59+1
 1178 02e8 0F030000 		.word	.L57+1
 1179 02ec 2D030000 		.word	.L61+1
 1180 02f0 5B020000 		.word	.L60+1
 1181 02f4 5B020000 		.word	.L60+1
 1182 02f8 01030000 		.word	.L59+1
 1183 02fc 0F030000 		.word	.L57+1
 1184              	.LVL86:
 1185              		.p2align 1
 1186              	.L59:
 804:.\freertos/timers.c **** 					break;
 1187              		.loc 1 804 6 view .LVU314
ARM GAS  C:\Users\skey\AppData\Local\Temp\cceKeKCB.s 			page 44


 1188              	@ .\freertos\timers.c:804: 					pxTimer->ucStatus &= ~tmrSTATUS_IS_ACTIVE;
 804:.\freertos/timers.c **** 					break;
 1189              		.loc 1 804 24 is_stmt 0 view .LVU315
 1190 0300 94F82830 		ldrb	r3, [r4, #40]	@ zero_extendqisi2	@ pxTimer_9->ucStatus, pxTimer_9->ucStatus
 1191              	.L64:
 834:.\freertos/timers.c **** 						}
 1192              		.loc 1 834 8 is_stmt 1 view .LVU316
 1193              	@ .\freertos\timers.c:834: 							pxTimer->ucStatus &= ~tmrSTATUS_IS_ACTIVE;
 834:.\freertos/timers.c **** 						}
 1194              		.loc 1 834 26 is_stmt 0 view .LVU317
 1195 0304 23F00103 		bic	r3, r3, #1	@ tmp225, _38,
 1196 0308 84F82830 		strb	r3, [r4, #40]	@ tmp225, pxTimer_9->ucStatus
 1197 030c C4E7     		b	.L53		@
 1198              	.L57:
 809:.\freertos/timers.c **** 					pxTimer->xTimerPeriodInTicks = xMessage.u.xTimerParameters.xMessageValue;
 1199              		.loc 1 809 6 is_stmt 1 view .LVU318
 1200              	@ .\freertos\timers.c:809: 					pxTimer->ucStatus |= tmrSTATUS_IS_ACTIVE;
 809:.\freertos/timers.c **** 					pxTimer->xTimerPeriodInTicks = xMessage.u.xTimerParameters.xMessageValue;
 1201              		.loc 1 809 24 is_stmt 0 view .LVU319
 1202 030e 94F82830 		ldrb	r3, [r4, #40]	@ zero_extendqisi2	@ pxTimer_9->ucStatus, pxTimer_9->ucStatus
 1203              	@ .\freertos\timers.c:810: 					pxTimer->xTimerPeriodInTicks = xMessage.u.xTimerParameters.xMessage
 810:.\freertos/timers.c **** 					configASSERT( ( pxTimer->xTimerPeriodInTicks > 0 ) );
 1204              		.loc 1 810 64 view .LVU320
 1205 0312 0499     		ldr	r1, [sp, #16]	@ _34, xMessage.u.xTimerParameters.xMessageValue
 1206              	@ .\freertos\timers.c:809: 					pxTimer->ucStatus |= tmrSTATUS_IS_ACTIVE;
 809:.\freertos/timers.c **** 					pxTimer->xTimerPeriodInTicks = xMessage.u.xTimerParameters.xMessageValue;
 1207              		.loc 1 809 24 view .LVU321
 1208 0314 43F00103 		orr	r3, r3, #1	@ tmp219, pxTimer_9->ucStatus,
 1209 0318 84F82830 		strb	r3, [r4, #40]	@ tmp219, pxTimer_9->ucStatus
 810:.\freertos/timers.c **** 					configASSERT( ( pxTimer->xTimerPeriodInTicks > 0 ) );
 1210              		.loc 1 810 6 is_stmt 1 view .LVU322
 1211              	@ .\freertos\timers.c:810: 					pxTimer->xTimerPeriodInTicks = xMessage.u.xTimerParameters.xMessage
 810:.\freertos/timers.c **** 					configASSERT( ( pxTimer->xTimerPeriodInTicks > 0 ) );
 1212              		.loc 1 810 35 is_stmt 0 view .LVU323
 1213 031c A161     		str	r1, [r4, #24]	@ _34, pxTimer_9->xTimerPeriodInTicks
 811:.\freertos/timers.c **** 
 1214              		.loc 1 811 58 is_stmt 1 view .LVU324
 819:.\freertos/timers.c **** 					break;
 1215              		.loc 1 819 6 view .LVU325
 1216              	@ .\freertos\timers.c:819: 					( void ) prvInsertTimerInActiveList( pxTimer, ( xTimeNow + pxTimer-
 819:.\freertos/timers.c **** 					break;
 1217              		.loc 1 819 15 is_stmt 0 view .LVU326
 1218 031e 3346     		mov	r3, r6	@, xTimeNow
 1219 0320 3246     		mov	r2, r6	@, tmp3
 1220 0322 2046     		mov	r0, r4	@, pxTimer
 1221 0324 3144     		add	r1, r1, r6	@, tmp3
 1222 0326 FFF789FE 		bl	prvInsertTimerInActiveList		@
 1223              	.LVL87:
 820:.\freertos/timers.c **** 
 1224              		.loc 1 820 6 is_stmt 1 view .LVU327
 1225 032a B5E7     		b	.L53		@
 1226              	.L61:
 828:.\freertos/timers.c **** 						{
 1227              		.loc 1 828 7 view .LVU328
 1228              	@ .\freertos\timers.c:828: 						if( ( pxTimer->ucStatus & tmrSTATUS_IS_STATICALLY_ALLOCATED ) == (
 828:.\freertos/timers.c **** 						{
 1229              		.loc 1 828 20 is_stmt 0 view .LVU329
ARM GAS  C:\Users\skey\AppData\Local\Temp\cceKeKCB.s 			page 45


 1230 032c 94F82830 		ldrb	r3, [r4, #40]	@ zero_extendqisi2	@ _38, pxTimer_9->ucStatus
 1231              	@ .\freertos\timers.c:828: 						if( ( pxTimer->ucStatus & tmrSTATUS_IS_STATICALLY_ALLOCATED ) == (
 828:.\freertos/timers.c **** 						{
 1232              		.loc 1 828 9 view .LVU330
 1233 0330 9A07     		lsls	r2, r3, #30	@, _38,
 1234 0332 E7D4     		bmi	.L64		@,
 830:.\freertos/timers.c **** 						}
 1235              		.loc 1 830 8 is_stmt 1 view .LVU331
 1236 0334 2046     		mov	r0, r4	@, pxTimer
 1237 0336 FFF7FEFF 		bl	vPortFree		@
 1238              	.LVL88:
 1239 033a ADE7     		b	.L53		@
 1240              	.L85:
 1241              		.align	2
 1242              	.L84:
 1243 033c 00000000 		.word	.LANCHOR0
 1244 0340 04ED00E0 		.word	-536810236
 1245              	.LBE45:
 1246              	.LBE47:
 1247              		.cfi_endproc
 1248              	.LFE44:
 1249              		.size	prvTimerTask, .-prvTimerTask
 1250              		.align	1
 1251              		.global	xTimerGetTimerDaemonTaskHandle
 1252              		.syntax unified
 1253              		.thumb
 1254              		.thumb_func
 1255              		.fpu softvfp
 1256              		.type	xTimerGetTimerDaemonTaskHandle, %function
 1257              	xTimerGetTimerDaemonTaskHandle:
 1258              	.LFB38:
 425:.\freertos/timers.c **** 	/* If xTimerGetTimerDaemonTaskHandle() is called before the scheduler has been
 1259              		.loc 1 425 1 view -0
 1260              		.cfi_startproc
 1261              		@ args = 0, pretend = 0, frame = 0
 1262              		@ frame_needed = 0, uses_anonymous_args = 0
 1263              		@ link register save eliminated.
 428:.\freertos/timers.c **** 	return xTimerTaskHandle;
 1264              		.loc 1 428 46 view .LVU333
 429:.\freertos/timers.c **** }
 1265              		.loc 1 429 2 view .LVU334
 1266              	@ .\freertos\timers.c:430: }
 430:.\freertos/timers.c **** /*-----------------------------------------------------------*/
 1267              		.loc 1 430 1 is_stmt 0 view .LVU335
 1268 0344 014B     		ldr	r3, .L87	@ tmp112,
 1269 0346 586B     		ldr	r0, [r3, #52]	@, xTimerTaskHandle
 1270 0348 7047     		bx	lr	@
 1271              	.L88:
 1272 034a 00BF     		.align	2
 1273              	.L87:
 1274 034c 00000000 		.word	.LANCHOR0
 1275              		.cfi_endproc
 1276              	.LFE38:
 1277              		.size	xTimerGetTimerDaemonTaskHandle, .-xTimerGetTimerDaemonTaskHandle
 1278              		.align	1
 1279              		.global	xTimerGetPeriod
 1280              		.syntax unified
ARM GAS  C:\Users\skey\AppData\Local\Temp\cceKeKCB.s 			page 46


 1281              		.thumb
 1282              		.thumb_func
 1283              		.fpu softvfp
 1284              		.type	xTimerGetPeriod, %function
 1285              	xTimerGetPeriod:
 1286              	.LVL89:
 1287              	.LFB39:
 434:.\freertos/timers.c **** Timer_t *pxTimer = xTimer;
 1288              		.loc 1 434 1 is_stmt 1 view -0
 1289              		.cfi_startproc
 1290              		@ args = 0, pretend = 0, frame = 0
 1291              		@ frame_needed = 0, uses_anonymous_args = 0
 1292              		@ link register save eliminated.
 435:.\freertos/timers.c **** 
 1293              		.loc 1 435 1 view .LVU337
 437:.\freertos/timers.c **** 	return pxTimer->xTimerPeriodInTicks;
 1294              		.loc 1 437 24 view .LVU338
 438:.\freertos/timers.c **** }
 1295              		.loc 1 438 2 view .LVU339
 1296              	@ .\freertos\timers.c:439: }
 439:.\freertos/timers.c **** /*-----------------------------------------------------------*/
 1297              		.loc 1 439 1 is_stmt 0 view .LVU340
 1298 0350 8069     		ldr	r0, [r0, #24]	@, MEM[(struct Timer_t *)xTimer_1(D)].xTimerPeriodInTicks
 1299              	.LVL90:
 439:.\freertos/timers.c **** /*-----------------------------------------------------------*/
 1300              		.loc 1 439 1 view .LVU341
 1301 0352 7047     		bx	lr	@
 1302              		.cfi_endproc
 1303              	.LFE39:
 1304              		.size	xTimerGetPeriod, .-xTimerGetPeriod
 1305              		.align	1
 1306              		.global	vTimerSetReloadMode
 1307              		.syntax unified
 1308              		.thumb
 1309              		.thumb_func
 1310              		.fpu softvfp
 1311              		.type	vTimerSetReloadMode, %function
 1312              	vTimerSetReloadMode:
 1313              	.LVL91:
 1314              	.LFB40:
 443:.\freertos/timers.c **** Timer_t * pxTimer =  xTimer;
 1315              		.loc 1 443 1 is_stmt 1 view -0
 1316              		.cfi_startproc
 1317              		@ args = 0, pretend = 0, frame = 0
 1318              		@ frame_needed = 0, uses_anonymous_args = 0
 444:.\freertos/timers.c **** 
 1319              		.loc 1 444 1 view .LVU343
 1320              	@ .\freertos\timers.c:443: {
 443:.\freertos/timers.c **** Timer_t * pxTimer =  xTimer;
 1321              		.loc 1 443 1 is_stmt 0 view .LVU344
 1322 0354 38B5     		push	{r3, r4, r5, lr}	@
 1323              	.LCFI14:
 1324              		.cfi_def_cfa_offset 16
 1325              		.cfi_offset 3, -16
 1326              		.cfi_offset 4, -12
 1327              		.cfi_offset 5, -8
 1328              		.cfi_offset 14, -4
ARM GAS  C:\Users\skey\AppData\Local\Temp\cceKeKCB.s 			page 47


 1329              	@ .\freertos\timers.c:443: {
 443:.\freertos/timers.c **** Timer_t * pxTimer =  xTimer;
 1330              		.loc 1 443 1 view .LVU345
 1331 0356 0446     		mov	r4, r0	@ xTimer, tmp123
 1332              	.LVL92:
 446:.\freertos/timers.c **** 	taskENTER_CRITICAL();
 1333              		.loc 1 446 24 is_stmt 1 view .LVU346
 447:.\freertos/timers.c **** 	{
 1334              		.loc 1 447 2 view .LVU347
 1335              	@ .\freertos\timers.c:443: {
 443:.\freertos/timers.c **** Timer_t * pxTimer =  xTimer;
 1336              		.loc 1 443 1 is_stmt 0 view .LVU348
 1337 0358 0D46     		mov	r5, r1	@ uxAutoReload, tmp124
 1338              	@ .\freertos\timers.c:447: 	taskENTER_CRITICAL();
 447:.\freertos/timers.c **** 	{
 1339              		.loc 1 447 2 view .LVU349
 1340 035a FFF7FEFF 		bl	vPortEnterCritical		@
 1341              	.LVL93:
 449:.\freertos/timers.c **** 		{
 1342              		.loc 1 449 3 is_stmt 1 view .LVU350
 1343 035e 94F82830 		ldrb	r3, [r4, #40]	@ zero_extendqisi2	@ MEM[(struct Timer_t *)xTimer_6(D)].ucStatus, MEM[(struct T
 1344              	@ .\freertos\timers.c:449: 		if( uxAutoReload != pdFALSE )
 449:.\freertos/timers.c **** 		{
 1345              		.loc 1 449 5 is_stmt 0 view .LVU351
 1346 0362 3DB1     		cbz	r5, .L91	@ uxAutoReload,
 451:.\freertos/timers.c **** 		}
 1347              		.loc 1 451 4 is_stmt 1 view .LVU352
 1348              	@ .\freertos\timers.c:451: 			pxTimer->ucStatus |= tmrSTATUS_IS_AUTORELOAD;
 451:.\freertos/timers.c **** 		}
 1349              		.loc 1 451 22 is_stmt 0 view .LVU353
 1350 0364 43F00403 		orr	r3, r3, #4	@ cstore_14, MEM[(struct Timer_t *)xTimer_6(D)].ucStatus,
 1351              	.L92:
 1352 0368 84F82830 		strb	r3, [r4, #40]	@ cstore_14, MEM[(struct Timer_t *)xTimer_6(D)].ucStatus
 458:.\freertos/timers.c **** }
 1353              		.loc 1 458 2 is_stmt 1 view .LVU354
 1354              	@ .\freertos\timers.c:459: }
 459:.\freertos/timers.c **** /*-----------------------------------------------------------*/
 1355              		.loc 1 459 1 is_stmt 0 view .LVU355
 1356 036c BDE83840 		pop	{r3, r4, r5, lr}	@
 1357              	.LCFI15:
 1358              		.cfi_remember_state
 1359              		.cfi_restore 14
 1360              		.cfi_restore 5
 1361              		.cfi_restore 4
 1362              		.cfi_restore 3
 1363              		.cfi_def_cfa_offset 0
 1364              	.LVL94:
 1365              	@ .\freertos\timers.c:458: 	taskEXIT_CRITICAL();
 458:.\freertos/timers.c **** }
 1366              		.loc 1 458 2 view .LVU356
 1367 0370 FFF7FEBF 		b	vPortExitCritical		@
 1368              	.LVL95:
 1369              	.L91:
 1370              	.LCFI16:
 1371              		.cfi_restore_state
 455:.\freertos/timers.c **** 		}
 1372              		.loc 1 455 4 is_stmt 1 view .LVU357
ARM GAS  C:\Users\skey\AppData\Local\Temp\cceKeKCB.s 			page 48


 1373              	@ .\freertos\timers.c:455: 			pxTimer->ucStatus &= ~tmrSTATUS_IS_AUTORELOAD;
 455:.\freertos/timers.c **** 		}
 1374              		.loc 1 455 22 is_stmt 0 view .LVU358
 1375 0374 03F0FB03 		and	r3, r3, #251	@ cstore_14, MEM[(struct Timer_t *)xTimer_6(D)].ucStatus,
 1376 0378 F6E7     		b	.L92		@
 1377              		.cfi_endproc
 1378              	.LFE40:
 1379              		.size	vTimerSetReloadMode, .-vTimerSetReloadMode
 1380              		.align	1
 1381              		.global	xTimerGetExpiryTime
 1382              		.syntax unified
 1383              		.thumb
 1384              		.thumb_func
 1385              		.fpu softvfp
 1386              		.type	xTimerGetExpiryTime, %function
 1387              	xTimerGetExpiryTime:
 1388              	.LVL96:
 1389              	.LFB41:
 463:.\freertos/timers.c **** Timer_t * pxTimer =  xTimer;
 1390              		.loc 1 463 1 is_stmt 1 view -0
 1391              		.cfi_startproc
 1392              		@ args = 0, pretend = 0, frame = 0
 1393              		@ frame_needed = 0, uses_anonymous_args = 0
 1394              		@ link register save eliminated.
 464:.\freertos/timers.c **** TickType_t xReturn;
 1395              		.loc 1 464 1 view .LVU360
 465:.\freertos/timers.c **** 
 1396              		.loc 1 465 1 view .LVU361
 467:.\freertos/timers.c **** 	xReturn = listGET_LIST_ITEM_VALUE( &( pxTimer->xTimerListItem ) );
 1397              		.loc 1 467 24 view .LVU362
 468:.\freertos/timers.c **** 	return xReturn;
 1398              		.loc 1 468 2 view .LVU363
 469:.\freertos/timers.c **** }
 1399              		.loc 1 469 2 view .LVU364
 1400              	@ .\freertos\timers.c:470: }
 470:.\freertos/timers.c **** /*-----------------------------------------------------------*/
 1401              		.loc 1 470 1 is_stmt 0 view .LVU365
 1402 037a 4068     		ldr	r0, [r0, #4]	@, MEM[(struct Timer_t *)xTimer_1(D)].xTimerListItem.xItemValue
 1403              	.LVL97:
 470:.\freertos/timers.c **** /*-----------------------------------------------------------*/
 1404              		.loc 1 470 1 view .LVU366
 1405 037c 7047     		bx	lr	@
 1406              		.cfi_endproc
 1407              	.LFE41:
 1408              		.size	xTimerGetExpiryTime, .-xTimerGetExpiryTime
 1409              		.align	1
 1410              		.global	pcTimerGetName
 1411              		.syntax unified
 1412              		.thumb
 1413              		.thumb_func
 1414              		.fpu softvfp
 1415              		.type	pcTimerGetName, %function
 1416              	pcTimerGetName:
 1417              	.LVL98:
 1418              	.LFB42:
 474:.\freertos/timers.c **** Timer_t *pxTimer = xTimer;
 1419              		.loc 1 474 1 is_stmt 1 view -0
ARM GAS  C:\Users\skey\AppData\Local\Temp\cceKeKCB.s 			page 49


 1420              		.cfi_startproc
 1421              		@ args = 0, pretend = 0, frame = 0
 1422              		@ frame_needed = 0, uses_anonymous_args = 0
 1423              		@ link register save eliminated.
 475:.\freertos/timers.c **** 
 1424              		.loc 1 475 1 view .LVU368
 477:.\freertos/timers.c **** 	return pxTimer->pcTimerName;
 1425              		.loc 1 477 24 view .LVU369
 478:.\freertos/timers.c **** }
 1426              		.loc 1 478 2 view .LVU370
 1427              	@ .\freertos\timers.c:479: }
 479:.\freertos/timers.c **** /*-----------------------------------------------------------*/
 1428              		.loc 1 479 1 is_stmt 0 view .LVU371
 1429 037e 0068     		ldr	r0, [r0]	@, MEM[(struct Timer_t *)xTimer_1(D)].pcTimerName
 1430              	.LVL99:
 479:.\freertos/timers.c **** /*-----------------------------------------------------------*/
 1431              		.loc 1 479 1 view .LVU372
 1432 0380 7047     		bx	lr	@
 1433              		.cfi_endproc
 1434              	.LFE42:
 1435              		.size	pcTimerGetName, .-pcTimerGetName
 1436              		.align	1
 1437              		.global	xTimerIsTimerActive
 1438              		.syntax unified
 1439              		.thumb
 1440              		.thumb_func
 1441              		.fpu softvfp
 1442              		.type	xTimerIsTimerActive, %function
 1443              	xTimerIsTimerActive:
 1444              	.LVL100:
 1445              	.LFB52:
 965:.\freertos/timers.c **** /*-----------------------------------------------------------*/
 966:.\freertos/timers.c **** 
 967:.\freertos/timers.c **** BaseType_t xTimerIsTimerActive( TimerHandle_t xTimer )
 968:.\freertos/timers.c **** {
 1446              		.loc 1 968 1 is_stmt 1 view -0
 1447              		.cfi_startproc
 1448              		@ args = 0, pretend = 0, frame = 0
 1449              		@ frame_needed = 0, uses_anonymous_args = 0
 969:.\freertos/timers.c **** BaseType_t xReturn;
 1450              		.loc 1 969 1 view .LVU374
 970:.\freertos/timers.c **** Timer_t *pxTimer = xTimer;
 1451              		.loc 1 970 1 view .LVU375
 1452              	@ .\freertos\timers.c:968: {
 968:.\freertos/timers.c **** BaseType_t xReturn;
 1453              		.loc 1 968 1 is_stmt 0 view .LVU376
 1454 0382 10B5     		push	{r4, lr}	@
 1455              	.LCFI17:
 1456              		.cfi_def_cfa_offset 8
 1457              		.cfi_offset 4, -8
 1458              		.cfi_offset 14, -4
 1459              	@ .\freertos\timers.c:968: {
 968:.\freertos/timers.c **** BaseType_t xReturn;
 1460              		.loc 1 968 1 view .LVU377
 1461 0384 0446     		mov	r4, r0	@ xTimer, tmp118
 1462              	.LVL101:
 971:.\freertos/timers.c **** 
ARM GAS  C:\Users\skey\AppData\Local\Temp\cceKeKCB.s 			page 50


 972:.\freertos/timers.c **** 	configASSERT( xTimer );
 1463              		.loc 1 972 24 is_stmt 1 view .LVU378
 973:.\freertos/timers.c **** 
 974:.\freertos/timers.c **** 	/* Is the timer in the list of active timers? */
 975:.\freertos/timers.c **** 	taskENTER_CRITICAL();
 1464              		.loc 1 975 2 view .LVU379
 1465 0386 FFF7FEFF 		bl	vPortEnterCritical		@
 1466              	.LVL102:
 976:.\freertos/timers.c **** 	{
 977:.\freertos/timers.c **** 		if( ( pxTimer->ucStatus & tmrSTATUS_IS_ACTIVE ) == 0 )
 1467              		.loc 1 977 3 view .LVU380
 1468              	@ .\freertos\timers.c:977: 		if( ( pxTimer->ucStatus & tmrSTATUS_IS_ACTIVE ) == 0 )
 1469              		.loc 1 977 5 is_stmt 0 view .LVU381
 1470 038a 94F82840 		ldrb	r4, [r4, #40]	@ zero_extendqisi2	@ MEM[(struct Timer_t *)xTimer_3(D)].ucStatus, MEM[(struct T
 1471              	.LVL103:
 1472              	@ .\freertos\timers.c:986: 	taskEXIT_CRITICAL();
 978:.\freertos/timers.c **** 		{
 979:.\freertos/timers.c **** 			xReturn = pdFALSE;
 980:.\freertos/timers.c **** 		}
 981:.\freertos/timers.c **** 		else
 982:.\freertos/timers.c **** 		{
 983:.\freertos/timers.c **** 			xReturn = pdTRUE;
 984:.\freertos/timers.c **** 		}
 985:.\freertos/timers.c **** 	}
 986:.\freertos/timers.c **** 	taskEXIT_CRITICAL();
 1473              		.loc 1 986 2 view .LVU382
 1474 038e FFF7FEFF 		bl	vPortExitCritical		@
 1475              	.LVL104:
 1476              	@ .\freertos\timers.c:977: 		if( ( pxTimer->ucStatus & tmrSTATUS_IS_ACTIVE ) == 0 )
 977:.\freertos/timers.c **** 		{
 1477              		.loc 1 977 5 view .LVU383
 1478 0392 04F00104 		and	r4, r4, #1	@ <retval>, MEM[(struct Timer_t *)xTimer_3(D)].ucStatus,
 1479              	.LVL105:
 1480              		.loc 1 986 2 is_stmt 1 view .LVU384
 987:.\freertos/timers.c **** 
 988:.\freertos/timers.c **** 	return xReturn;
 1481              		.loc 1 988 2 view .LVU385
 1482              	@ .\freertos\timers.c:989: } /*lint !e818 Can't be pointer to const due to the typedef. */
 989:.\freertos/timers.c **** } /*lint !e818 Can't be pointer to const due to the typedef. */
 1483              		.loc 1 989 1 is_stmt 0 view .LVU386
 1484 0396 2046     		mov	r0, r4	@, <retval>
 1485 0398 10BD     		pop	{r4, pc}	@
 1486              		.loc 1 989 1 view .LVU387
 1487              		.cfi_endproc
 1488              	.LFE52:
 1489              		.size	xTimerIsTimerActive, .-xTimerIsTimerActive
 1490              		.align	1
 1491              		.global	pvTimerGetTimerID
 1492              		.syntax unified
 1493              		.thumb
 1494              		.thumb_func
 1495              		.fpu softvfp
 1496              		.type	pvTimerGetTimerID, %function
 1497              	pvTimerGetTimerID:
 1498              	.LVL106:
 1499              	.LFB53:
 990:.\freertos/timers.c **** /*-----------------------------------------------------------*/
ARM GAS  C:\Users\skey\AppData\Local\Temp\cceKeKCB.s 			page 51


 991:.\freertos/timers.c **** 
 992:.\freertos/timers.c **** void *pvTimerGetTimerID( const TimerHandle_t xTimer )
 993:.\freertos/timers.c **** {
 1500              		.loc 1 993 1 is_stmt 1 view -0
 1501              		.cfi_startproc
 1502              		@ args = 0, pretend = 0, frame = 0
 1503              		@ frame_needed = 0, uses_anonymous_args = 0
 994:.\freertos/timers.c **** Timer_t * const pxTimer = xTimer;
 1504              		.loc 1 994 1 view .LVU389
 1505              	@ .\freertos\timers.c:993: {
 993:.\freertos/timers.c **** Timer_t * const pxTimer = xTimer;
 1506              		.loc 1 993 1 is_stmt 0 view .LVU390
 1507 039a 10B5     		push	{r4, lr}	@
 1508              	.LCFI18:
 1509              		.cfi_def_cfa_offset 8
 1510              		.cfi_offset 4, -8
 1511              		.cfi_offset 14, -4
 1512              	@ .\freertos\timers.c:993: {
 993:.\freertos/timers.c **** Timer_t * const pxTimer = xTimer;
 1513              		.loc 1 993 1 view .LVU391
 1514 039c 0446     		mov	r4, r0	@ xTimer, tmp113
 1515              	.LVL107:
 995:.\freertos/timers.c **** void *pvReturn;
 1516              		.loc 1 995 1 is_stmt 1 view .LVU392
 996:.\freertos/timers.c **** 
 997:.\freertos/timers.c **** 	configASSERT( xTimer );
 1517              		.loc 1 997 24 view .LVU393
 998:.\freertos/timers.c **** 
 999:.\freertos/timers.c **** 	taskENTER_CRITICAL();
 1518              		.loc 1 999 2 view .LVU394
 1519 039e FFF7FEFF 		bl	vPortEnterCritical		@
 1520              	.LVL108:
1000:.\freertos/timers.c **** 	{
1001:.\freertos/timers.c **** 		pvReturn = pxTimer->pvTimerID;
 1521              		.loc 1 1001 3 view .LVU395
 1522              	@ .\freertos\timers.c:1001: 		pvReturn = pxTimer->pvTimerID;
 1523              		.loc 1 1001 12 is_stmt 0 view .LVU396
 1524 03a2 E469     		ldr	r4, [r4, #28]	@ <retval>, MEM[(struct Timer_t *)xTimer_1(D)].pvTimerID
 1525              	.LVL109:
1002:.\freertos/timers.c **** 	}
1003:.\freertos/timers.c **** 	taskEXIT_CRITICAL();
 1526              		.loc 1 1003 2 is_stmt 1 view .LVU397
 1527 03a4 FFF7FEFF 		bl	vPortExitCritical		@
 1528              	.LVL110:
1004:.\freertos/timers.c **** 
1005:.\freertos/timers.c **** 	return pvReturn;
 1529              		.loc 1 1005 2 view .LVU398
 1530              	@ .\freertos\timers.c:1006: }
1006:.\freertos/timers.c **** }
 1531              		.loc 1 1006 1 is_stmt 0 view .LVU399
 1532 03a8 2046     		mov	r0, r4	@, <retval>
 1533 03aa 10BD     		pop	{r4, pc}	@
 1534              		.loc 1 1006 1 view .LVU400
 1535              		.cfi_endproc
 1536              	.LFE53:
 1537              		.size	pvTimerGetTimerID, .-pvTimerGetTimerID
 1538              		.align	1
ARM GAS  C:\Users\skey\AppData\Local\Temp\cceKeKCB.s 			page 52


 1539              		.global	vTimerSetTimerID
 1540              		.syntax unified
 1541              		.thumb
 1542              		.thumb_func
 1543              		.fpu softvfp
 1544              		.type	vTimerSetTimerID, %function
 1545              	vTimerSetTimerID:
 1546              	.LVL111:
 1547              	.LFB54:
1007:.\freertos/timers.c **** /*-----------------------------------------------------------*/
1008:.\freertos/timers.c **** 
1009:.\freertos/timers.c **** void vTimerSetTimerID( TimerHandle_t xTimer, void *pvNewID )
1010:.\freertos/timers.c **** {
 1548              		.loc 1 1010 1 is_stmt 1 view -0
 1549              		.cfi_startproc
 1550              		@ args = 0, pretend = 0, frame = 0
 1551              		@ frame_needed = 0, uses_anonymous_args = 0
1011:.\freertos/timers.c **** Timer_t * const pxTimer = xTimer;
 1552              		.loc 1 1011 1 view .LVU402
 1553              	@ .\freertos\timers.c:1010: {
1010:.\freertos/timers.c **** Timer_t * const pxTimer = xTimer;
 1554              		.loc 1 1010 1 is_stmt 0 view .LVU403
 1555 03ac 38B5     		push	{r3, r4, r5, lr}	@
 1556              	.LCFI19:
 1557              		.cfi_def_cfa_offset 16
 1558              		.cfi_offset 3, -16
 1559              		.cfi_offset 4, -12
 1560              		.cfi_offset 5, -8
 1561              		.cfi_offset 14, -4
 1562              	@ .\freertos\timers.c:1010: {
1010:.\freertos/timers.c **** Timer_t * const pxTimer = xTimer;
 1563              		.loc 1 1010 1 view .LVU404
 1564 03ae 0446     		mov	r4, r0	@ xTimer, tmp112
 1565              	.LVL112:
1012:.\freertos/timers.c **** 
1013:.\freertos/timers.c **** 	configASSERT( xTimer );
 1566              		.loc 1 1013 24 is_stmt 1 view .LVU405
1014:.\freertos/timers.c **** 
1015:.\freertos/timers.c **** 	taskENTER_CRITICAL();
 1567              		.loc 1 1015 2 view .LVU406
 1568              	@ .\freertos\timers.c:1010: {
1010:.\freertos/timers.c **** Timer_t * const pxTimer = xTimer;
 1569              		.loc 1 1010 1 is_stmt 0 view .LVU407
 1570 03b0 0D46     		mov	r5, r1	@ pvNewID, tmp113
 1571              	@ .\freertos\timers.c:1015: 	taskENTER_CRITICAL();
 1572              		.loc 1 1015 2 view .LVU408
 1573 03b2 FFF7FEFF 		bl	vPortEnterCritical		@
 1574              	.LVL113:
1016:.\freertos/timers.c **** 	{
1017:.\freertos/timers.c **** 		pxTimer->pvTimerID = pvNewID;
 1575              		.loc 1 1017 3 is_stmt 1 view .LVU409
 1576              	@ .\freertos\timers.c:1017: 		pxTimer->pvTimerID = pvNewID;
 1577              		.loc 1 1017 22 is_stmt 0 view .LVU410
 1578 03b6 E561     		str	r5, [r4, #28]	@ pvNewID, MEM[(struct Timer_t *)xTimer_1(D)].pvTimerID
1018:.\freertos/timers.c **** 	}
1019:.\freertos/timers.c **** 	taskEXIT_CRITICAL();
 1579              		.loc 1 1019 2 is_stmt 1 view .LVU411
ARM GAS  C:\Users\skey\AppData\Local\Temp\cceKeKCB.s 			page 53


 1580              	@ .\freertos\timers.c:1020: }
1020:.\freertos/timers.c **** }
 1581              		.loc 1 1020 1 is_stmt 0 view .LVU412
 1582 03b8 BDE83840 		pop	{r3, r4, r5, lr}	@
 1583              	.LCFI20:
 1584              		.cfi_restore 14
 1585              		.cfi_restore 5
 1586              		.cfi_restore 4
 1587              		.cfi_restore 3
 1588              		.cfi_def_cfa_offset 0
 1589              	.LVL114:
 1590              	@ .\freertos\timers.c:1019: 	taskEXIT_CRITICAL();
1019:.\freertos/timers.c **** }
 1591              		.loc 1 1019 2 view .LVU413
 1592 03bc FFF7FEBF 		b	vPortExitCritical		@
 1593              	.LVL115:
1019:.\freertos/timers.c **** }
 1594              		.loc 1 1019 2 view .LVU414
 1595              		.cfi_endproc
 1596              	.LFE54:
 1597              		.size	vTimerSetTimerID, .-vTimerSetTimerID
 1598              		.align	1
 1599              		.global	uxTimerGetTimerNumber
 1600              		.syntax unified
 1601              		.thumb
 1602              		.thumb_func
 1603              		.fpu softvfp
 1604              		.type	uxTimerGetTimerNumber, %function
 1605              	uxTimerGetTimerNumber:
 1606              	.LVL116:
 1607              	.LFB55:
1021:.\freertos/timers.c **** /*-----------------------------------------------------------*/
1022:.\freertos/timers.c **** 
1023:.\freertos/timers.c **** #if( INCLUDE_xTimerPendFunctionCall == 1 )
1024:.\freertos/timers.c **** 
1025:.\freertos/timers.c **** 	BaseType_t xTimerPendFunctionCallFromISR( PendedFunction_t xFunctionToPend, void *pvParameter1, ui
1026:.\freertos/timers.c **** 	{
1027:.\freertos/timers.c **** 	DaemonTaskMessage_t xMessage;
1028:.\freertos/timers.c **** 	BaseType_t xReturn;
1029:.\freertos/timers.c **** 
1030:.\freertos/timers.c **** 		/* Complete the message with the function parameters and post it to the
1031:.\freertos/timers.c **** 		daemon task. */
1032:.\freertos/timers.c **** 		xMessage.xMessageID = tmrCOMMAND_EXECUTE_CALLBACK_FROM_ISR;
1033:.\freertos/timers.c **** 		xMessage.u.xCallbackParameters.pxCallbackFunction = xFunctionToPend;
1034:.\freertos/timers.c **** 		xMessage.u.xCallbackParameters.pvParameter1 = pvParameter1;
1035:.\freertos/timers.c **** 		xMessage.u.xCallbackParameters.ulParameter2 = ulParameter2;
1036:.\freertos/timers.c **** 
1037:.\freertos/timers.c **** 		xReturn = xQueueSendFromISR( xTimerQueue, &xMessage, pxHigherPriorityTaskWoken );
1038:.\freertos/timers.c **** 
1039:.\freertos/timers.c **** 		tracePEND_FUNC_CALL_FROM_ISR( xFunctionToPend, pvParameter1, ulParameter2, xReturn );
1040:.\freertos/timers.c **** 
1041:.\freertos/timers.c **** 		return xReturn;
1042:.\freertos/timers.c **** 	}
1043:.\freertos/timers.c **** 
1044:.\freertos/timers.c **** #endif /* INCLUDE_xTimerPendFunctionCall */
1045:.\freertos/timers.c **** /*-----------------------------------------------------------*/
1046:.\freertos/timers.c **** 
ARM GAS  C:\Users\skey\AppData\Local\Temp\cceKeKCB.s 			page 54


1047:.\freertos/timers.c **** #if( INCLUDE_xTimerPendFunctionCall == 1 )
1048:.\freertos/timers.c **** 
1049:.\freertos/timers.c **** 	BaseType_t xTimerPendFunctionCall( PendedFunction_t xFunctionToPend, void *pvParameter1, uint32_t 
1050:.\freertos/timers.c **** 	{
1051:.\freertos/timers.c **** 	DaemonTaskMessage_t xMessage;
1052:.\freertos/timers.c **** 	BaseType_t xReturn;
1053:.\freertos/timers.c **** 
1054:.\freertos/timers.c **** 		/* This function can only be called after a timer has been created or
1055:.\freertos/timers.c **** 		after the scheduler has been started because, until then, the timer
1056:.\freertos/timers.c **** 		queue does not exist. */
1057:.\freertos/timers.c **** 		configASSERT( xTimerQueue );
1058:.\freertos/timers.c **** 
1059:.\freertos/timers.c **** 		/* Complete the message with the function parameters and post it to the
1060:.\freertos/timers.c **** 		daemon task. */
1061:.\freertos/timers.c **** 		xMessage.xMessageID = tmrCOMMAND_EXECUTE_CALLBACK;
1062:.\freertos/timers.c **** 		xMessage.u.xCallbackParameters.pxCallbackFunction = xFunctionToPend;
1063:.\freertos/timers.c **** 		xMessage.u.xCallbackParameters.pvParameter1 = pvParameter1;
1064:.\freertos/timers.c **** 		xMessage.u.xCallbackParameters.ulParameter2 = ulParameter2;
1065:.\freertos/timers.c **** 
1066:.\freertos/timers.c **** 		xReturn = xQueueSendToBack( xTimerQueue, &xMessage, xTicksToWait );
1067:.\freertos/timers.c **** 
1068:.\freertos/timers.c **** 		tracePEND_FUNC_CALL( xFunctionToPend, pvParameter1, ulParameter2, xReturn );
1069:.\freertos/timers.c **** 
1070:.\freertos/timers.c **** 		return xReturn;
1071:.\freertos/timers.c **** 	}
1072:.\freertos/timers.c **** 
1073:.\freertos/timers.c **** #endif /* INCLUDE_xTimerPendFunctionCall */
1074:.\freertos/timers.c **** /*-----------------------------------------------------------*/
1075:.\freertos/timers.c **** 
1076:.\freertos/timers.c **** #if ( configUSE_TRACE_FACILITY == 1 )
1077:.\freertos/timers.c **** 
1078:.\freertos/timers.c **** 	UBaseType_t uxTimerGetTimerNumber( TimerHandle_t xTimer )
1079:.\freertos/timers.c **** 	{
 1608              		.loc 1 1079 2 is_stmt 1 view -0
 1609              		.cfi_startproc
 1610              		@ args = 0, pretend = 0, frame = 0
 1611              		@ frame_needed = 0, uses_anonymous_args = 0
 1612              		@ link register save eliminated.
1080:.\freertos/timers.c **** 		return ( ( Timer_t * ) xTimer )->uxTimerNumber;
 1613              		.loc 1 1080 3 view .LVU416
 1614              	@ .\freertos\timers.c:1081: 	}
1081:.\freertos/timers.c **** 	}
 1615              		.loc 1 1081 2 is_stmt 0 view .LVU417
 1616 03c0 406A     		ldr	r0, [r0, #36]	@, MEM[(struct Timer_t *)xTimer_2(D)].uxTimerNumber
 1617              	.LVL117:
 1618              		.loc 1 1081 2 view .LVU418
 1619 03c2 7047     		bx	lr	@
 1620              		.cfi_endproc
 1621              	.LFE55:
 1622              		.size	uxTimerGetTimerNumber, .-uxTimerGetTimerNumber
 1623              		.align	1
 1624              		.global	vTimerSetTimerNumber
 1625              		.syntax unified
 1626              		.thumb
 1627              		.thumb_func
 1628              		.fpu softvfp
 1629              		.type	vTimerSetTimerNumber, %function
ARM GAS  C:\Users\skey\AppData\Local\Temp\cceKeKCB.s 			page 55


 1630              	vTimerSetTimerNumber:
 1631              	.LVL118:
 1632              	.LFB56:
1082:.\freertos/timers.c **** 
1083:.\freertos/timers.c **** #endif /* configUSE_TRACE_FACILITY */
1084:.\freertos/timers.c **** /*-----------------------------------------------------------*/
1085:.\freertos/timers.c **** 
1086:.\freertos/timers.c **** #if ( configUSE_TRACE_FACILITY == 1 )
1087:.\freertos/timers.c **** 
1088:.\freertos/timers.c **** 	void vTimerSetTimerNumber( TimerHandle_t xTimer, UBaseType_t uxTimerNumber )
1089:.\freertos/timers.c **** 	{
 1633              		.loc 1 1089 2 is_stmt 1 view -0
 1634              		.cfi_startproc
 1635              		@ args = 0, pretend = 0, frame = 0
 1636              		@ frame_needed = 0, uses_anonymous_args = 0
 1637              		@ link register save eliminated.
1090:.\freertos/timers.c **** 		( ( Timer_t * ) xTimer )->uxTimerNumber = uxTimerNumber;
 1638              		.loc 1 1090 3 view .LVU420
 1639              	@ .\freertos\timers.c:1090: 		( ( Timer_t * ) xTimer )->uxTimerNumber = uxTimerNumber;
 1640              		.loc 1 1090 43 is_stmt 0 view .LVU421
 1641 03c4 4162     		str	r1, [r0, #36]	@ tmp113, MEM[(struct Timer_t *)xTimer_2(D)].uxTimerNumber
 1642              	@ .\freertos\timers.c:1091: 	}
1091:.\freertos/timers.c **** 	}
 1643              		.loc 1 1091 2 view .LVU422
 1644 03c6 7047     		bx	lr	@
 1645              		.cfi_endproc
 1646              	.LFE56:
 1647              		.size	vTimerSetTimerNumber, .-vTimerSetTimerNumber
 1648              		.bss
 1649              		.align	2
 1650              		.set	.LANCHOR0,. + 0
 1651              		.type	xTimerQueue, %object
 1652              		.size	xTimerQueue, 4
 1653              	xTimerQueue:
 1654 0000 00000000 		.space	4
 1655              		.type	xActiveTimerList1, %object
 1656              		.size	xActiveTimerList1, 20
 1657              	xActiveTimerList1:
 1658 0004 00000000 		.space	20
 1658      00000000 
 1658      00000000 
 1658      00000000 
 1658      00000000 
 1659              		.type	xActiveTimerList2, %object
 1660              		.size	xActiveTimerList2, 20
 1661              	xActiveTimerList2:
 1662 0018 00000000 		.space	20
 1662      00000000 
 1662      00000000 
 1662      00000000 
 1662      00000000 
 1663              		.type	pxCurrentTimerList, %object
 1664              		.size	pxCurrentTimerList, 4
 1665              	pxCurrentTimerList:
 1666 002c 00000000 		.space	4
 1667              		.type	pxOverflowTimerList, %object
 1668              		.size	pxOverflowTimerList, 4
ARM GAS  C:\Users\skey\AppData\Local\Temp\cceKeKCB.s 			page 56


 1669              	pxOverflowTimerList:
 1670 0030 00000000 		.space	4
 1671              		.type	xTimerTaskHandle, %object
 1672              		.size	xTimerTaskHandle, 4
 1673              	xTimerTaskHandle:
 1674 0034 00000000 		.space	4
 1675              		.type	xLastTime.7797, %object
 1676              		.size	xLastTime.7797, 4
 1677              	xLastTime.7797:
 1678 0038 00000000 		.space	4
 1679              		.text
 1680              	.Letext0:
 1681              		.file 2 "c:\\program files (x86)\\gnu tools arm embedded\\9 2019-q4-major\\arm-none-eabi\\include\
 1682              		.file 3 "c:\\program files (x86)\\gnu tools arm embedded\\9 2019-q4-major\\arm-none-eabi\\include\
 1683              		.file 4 "c:\\program files (x86)\\gnu tools arm embedded\\9 2019-q4-major\\arm-none-eabi\\include\
 1684              		.file 5 "c:\\program files (x86)\\gnu tools arm embedded\\9 2019-q4-major\\lib\\gcc\\arm-none-eabi
 1685              		.file 6 "c:\\program files (x86)\\gnu tools arm embedded\\9 2019-q4-major\\arm-none-eabi\\include\
 1686              		.file 7 "c:\\program files (x86)\\gnu tools arm embedded\\9 2019-q4-major\\arm-none-eabi\\include\
 1687              		.file 8 "c:\\program files (x86)\\gnu tools arm embedded\\9 2019-q4-major\\arm-none-eabi\\include\
 1688              		.file 9 ".\\stlib\\CMSIS\\CM3\\CoreSupport/core_cm3.h"
 1689              		.file 10 ".\\stlib\\CMSIS\\CM3\\DeviceSupport\\ST\\STM32F10x/system_stm32f10x.h"
 1690              		.file 11 ".\\freertos\\portable\\GCC\\ARM_CM3/portmacro.h"
 1691              		.file 12 ".\\freertos\\include/list.h"
 1692              		.file 13 ".\\freertos\\include/task.h"
 1693              		.file 14 ".\\freertos\\include/queue.h"
 1694              		.file 15 ".\\freertos\\include/timers.h"
 1695              		.file 16 ".\\freertos\\include/portable.h"
 1696              		.section	.debug_info,"",%progbits
 1697              	.Ldebug_info0:
 1698 0000 C11B0000 		.4byte	0x1bc1
 1699 0004 0200     		.2byte	0x2
 1700 0006 00000000 		.4byte	.Ldebug_abbrev0
 1701 000a 04       		.byte	0x4
 1702 000b 01       		.uleb128 0x1
 1703 000c 95040000 		.4byte	.LASF240
 1704 0010 0C       		.byte	0xc
 1705 0011 DA000000 		.4byte	.LASF241
 1706 0015 65030000 		.4byte	.LASF242
 1707 0019 00000000 		.4byte	.Ltext0
 1708 001d C8030000 		.4byte	.Letext0
 1709 0021 00000000 		.4byte	.Ldebug_line0
 1710 0025 02       		.uleb128 0x2
 1711 0026 04       		.byte	0x4
 1712 0027 07       		.byte	0x7
 1713 0028 39070000 		.4byte	.LASF0
 1714 002c 03       		.uleb128 0x3
 1715 002d 04       		.byte	0x4
 1716 002e 05       		.byte	0x5
 1717 002f 696E7400 		.ascii	"int\000"
 1718 0033 04       		.uleb128 0x4
 1719 0034 2C000000 		.4byte	0x2c
 1720 0038 02       		.uleb128 0x2
 1721 0039 08       		.byte	0x8
 1722 003a 05       		.byte	0x5
 1723 003b 76060000 		.4byte	.LASF1
 1724 003f 02       		.uleb128 0x2
 1725 0040 08       		.byte	0x8
ARM GAS  C:\Users\skey\AppData\Local\Temp\cceKeKCB.s 			page 57


 1726 0041 04       		.byte	0x4
 1727 0042 AF080000 		.4byte	.LASF2
 1728 0046 02       		.uleb128 0x2
 1729 0047 01       		.byte	0x1
 1730 0048 06       		.byte	0x6
 1731 0049 33020000 		.4byte	.LASF3
 1732 004d 05       		.uleb128 0x5
 1733 004e 33010000 		.4byte	.LASF8
 1734 0052 02       		.byte	0x2
 1735 0053 2B       		.byte	0x2b
 1736 0054 18       		.byte	0x18
 1737 0055 59000000 		.4byte	0x59
 1738 0059 02       		.uleb128 0x2
 1739 005a 01       		.byte	0x1
 1740 005b 08       		.byte	0x8
 1741 005c 62020000 		.4byte	.LASF4
 1742 0060 02       		.uleb128 0x2
 1743 0061 02       		.byte	0x2
 1744 0062 05       		.byte	0x5
 1745 0063 A40A0000 		.4byte	.LASF5
 1746 0067 02       		.uleb128 0x2
 1747 0068 02       		.byte	0x2
 1748 0069 07       		.byte	0x7
 1749 006a 960B0000 		.4byte	.LASF6
 1750 006e 02       		.uleb128 0x2
 1751 006f 04       		.byte	0x4
 1752 0070 05       		.byte	0x5
 1753 0071 6E010000 		.4byte	.LASF7
 1754 0075 05       		.uleb128 0x5
 1755 0076 60060000 		.4byte	.LASF9
 1756 007a 02       		.byte	0x2
 1757 007b 4F       		.byte	0x4f
 1758 007c 19       		.byte	0x19
 1759 007d 81000000 		.4byte	0x81
 1760 0081 02       		.uleb128 0x2
 1761 0082 04       		.byte	0x4
 1762 0083 07       		.byte	0x7
 1763 0084 72050000 		.4byte	.LASF10
 1764 0088 02       		.uleb128 0x2
 1765 0089 08       		.byte	0x8
 1766 008a 07       		.byte	0x7
 1767 008b 2B090000 		.4byte	.LASF11
 1768 008f 05       		.uleb128 0x5
 1769 0090 130B0000 		.4byte	.LASF12
 1770 0094 03       		.byte	0x3
 1771 0095 22       		.byte	0x22
 1772 0096 19       		.byte	0x19
 1773 0097 9B000000 		.4byte	0x9b
 1774 009b 06       		.uleb128 0x6
 1775 009c 04       		.byte	0x4
 1776 009d A1000000 		.4byte	0xa1
 1777 00a1 07       		.uleb128 0x7
 1778 00a2 5F040000 		.4byte	.LASF119
 1779 00a6 01       		.byte	0x1
 1780 00a7 05       		.uleb128 0x5
 1781 00a8 8A0B0000 		.4byte	.LASF13
 1782 00ac 04       		.byte	0x4
ARM GAS  C:\Users\skey\AppData\Local\Temp\cceKeKCB.s 			page 58


 1783 00ad 2C       		.byte	0x2c
 1784 00ae 0E       		.byte	0xe
 1785 00af 6E000000 		.4byte	0x6e
 1786 00b3 05       		.uleb128 0x5
 1787 00b4 E4080000 		.4byte	.LASF14
 1788 00b8 04       		.byte	0x4
 1789 00b9 72       		.byte	0x72
 1790 00ba 0E       		.byte	0xe
 1791 00bb 6E000000 		.4byte	0x6e
 1792 00bf 08       		.uleb128 0x8
 1793 00c0 270A0000 		.4byte	.LASF15
 1794 00c4 05       		.byte	0x5
 1795 00c5 5E01     		.2byte	0x15e
 1796 00c7 17       		.byte	0x17
 1797 00c8 25000000 		.4byte	0x25
 1798 00cc 09       		.uleb128 0x9
 1799 00cd 04       		.byte	0x4
 1800 00ce 04       		.byte	0x4
 1801 00cf A6       		.byte	0xa6
 1802 00d0 03       		.byte	0x3
 1803 00d1 EE000000 		.4byte	0xee
 1804 00d5 0A       		.uleb128 0xa
 1805 00d6 2D010000 		.4byte	.LASF16
 1806 00da 04       		.byte	0x4
 1807 00db A8       		.byte	0xa8
 1808 00dc 0C       		.byte	0xc
 1809 00dd BF000000 		.4byte	0xbf
 1810 00e1 0A       		.uleb128 0xa
 1811 00e2 EC080000 		.4byte	.LASF17
 1812 00e6 04       		.byte	0x4
 1813 00e7 A9       		.byte	0xa9
 1814 00e8 13       		.byte	0x13
 1815 00e9 EE000000 		.4byte	0xee
 1816 00ed 00       		.byte	0
 1817 00ee 0B       		.uleb128 0xb
 1818 00ef 59000000 		.4byte	0x59
 1819 00f3 FE000000 		.4byte	0xfe
 1820 00f7 0C       		.uleb128 0xc
 1821 00f8 25000000 		.4byte	0x25
 1822 00fc 03       		.byte	0x3
 1823 00fd 00       		.byte	0
 1824 00fe 0D       		.uleb128 0xd
 1825 00ff 08       		.byte	0x8
 1826 0100 04       		.byte	0x4
 1827 0101 A3       		.byte	0xa3
 1828 0102 09       		.byte	0x9
 1829 0103 26010000 		.4byte	0x126
 1830 0107 0E       		.uleb128 0xe
 1831 0108 63080000 		.4byte	.LASF18
 1832 010c 04       		.byte	0x4
 1833 010d A5       		.byte	0xa5
 1834 010e 07       		.byte	0x7
 1835 010f 2C000000 		.4byte	0x2c
 1836 0113 02       		.byte	0x2
 1837 0114 23       		.byte	0x23
 1838 0115 00       		.uleb128 0
 1839 0116 0E       		.uleb128 0xe
ARM GAS  C:\Users\skey\AppData\Local\Temp\cceKeKCB.s 			page 59


 1840 0117 0B000000 		.4byte	.LASF19
 1841 011b 04       		.byte	0x4
 1842 011c AA       		.byte	0xaa
 1843 011d 05       		.byte	0x5
 1844 011e CC000000 		.4byte	0xcc
 1845 0122 02       		.byte	0x2
 1846 0123 23       		.byte	0x23
 1847 0124 04       		.uleb128 0x4
 1848 0125 00       		.byte	0
 1849 0126 05       		.uleb128 0x5
 1850 0127 170A0000 		.4byte	.LASF20
 1851 012b 04       		.byte	0x4
 1852 012c AB       		.byte	0xab
 1853 012d 03       		.byte	0x3
 1854 012e FE000000 		.4byte	0xfe
 1855 0132 05       		.uleb128 0x5
 1856 0133 070A0000 		.4byte	.LASF21
 1857 0137 04       		.byte	0x4
 1858 0138 AF       		.byte	0xaf
 1859 0139 1B       		.byte	0x1b
 1860 013a 8F000000 		.4byte	0x8f
 1861 013e 0F       		.uleb128 0xf
 1862 013f 04       		.byte	0x4
 1863 0140 10       		.uleb128 0x10
 1864 0141 3E010000 		.4byte	0x13e
 1865 0145 06       		.uleb128 0x6
 1866 0146 04       		.byte	0x4
 1867 0147 4B010000 		.4byte	0x14b
 1868 014b 02       		.uleb128 0x2
 1869 014c 01       		.byte	0x1
 1870 014d 08       		.byte	0x8
 1871 014e 60030000 		.4byte	.LASF22
 1872 0152 10       		.uleb128 0x10
 1873 0153 4B010000 		.4byte	0x14b
 1874 0157 05       		.uleb128 0x5
 1875 0158 610B0000 		.4byte	.LASF23
 1876 015c 06       		.byte	0x6
 1877 015d 16       		.byte	0x16
 1878 015e 19       		.byte	0x19
 1879 015f 81000000 		.4byte	0x81
 1880 0163 11       		.uleb128 0x11
 1881 0164 18060000 		.4byte	.LASF28
 1882 0168 18       		.byte	0x18
 1883 0169 06       		.byte	0x6
 1884 016a 2F       		.byte	0x2f
 1885 016b 08       		.byte	0x8
 1886 016c C9010000 		.4byte	0x1c9
 1887 0170 0E       		.uleb128 0xe
 1888 0171 2E0A0000 		.4byte	.LASF24
 1889 0175 06       		.byte	0x6
 1890 0176 31       		.byte	0x31
 1891 0177 13       		.byte	0x13
 1892 0178 C9010000 		.4byte	0x1c9
 1893 017c 02       		.byte	0x2
 1894 017d 23       		.byte	0x23
 1895 017e 00       		.uleb128 0
 1896 017f 12       		.uleb128 0x12
ARM GAS  C:\Users\skey\AppData\Local\Temp\cceKeKCB.s 			page 60


 1897 0180 5F6B00   		.ascii	"_k\000"
 1898 0183 06       		.byte	0x6
 1899 0184 32       		.byte	0x32
 1900 0185 07       		.byte	0x7
 1901 0186 2C000000 		.4byte	0x2c
 1902 018a 02       		.byte	0x2
 1903 018b 23       		.byte	0x23
 1904 018c 04       		.uleb128 0x4
 1905 018d 0E       		.uleb128 0xe
 1906 018e 20060000 		.4byte	.LASF25
 1907 0192 06       		.byte	0x6
 1908 0193 32       		.byte	0x32
 1909 0194 0B       		.byte	0xb
 1910 0195 2C000000 		.4byte	0x2c
 1911 0199 02       		.byte	0x2
 1912 019a 23       		.byte	0x23
 1913 019b 08       		.uleb128 0x8
 1914 019c 0E       		.uleb128 0xe
 1915 019d 2B070000 		.4byte	.LASF26
 1916 01a1 06       		.byte	0x6
 1917 01a2 32       		.byte	0x32
 1918 01a3 14       		.byte	0x14
 1919 01a4 2C000000 		.4byte	0x2c
 1920 01a8 02       		.byte	0x2
 1921 01a9 23       		.byte	0x23
 1922 01aa 0C       		.uleb128 0xc
 1923 01ab 0E       		.uleb128 0xe
 1924 01ac 5A040000 		.4byte	.LASF27
 1925 01b0 06       		.byte	0x6
 1926 01b1 32       		.byte	0x32
 1927 01b2 1B       		.byte	0x1b
 1928 01b3 2C000000 		.4byte	0x2c
 1929 01b7 02       		.byte	0x2
 1930 01b8 23       		.byte	0x23
 1931 01b9 10       		.uleb128 0x10
 1932 01ba 12       		.uleb128 0x12
 1933 01bb 5F7800   		.ascii	"_x\000"
 1934 01be 06       		.byte	0x6
 1935 01bf 33       		.byte	0x33
 1936 01c0 0B       		.byte	0xb
 1937 01c1 CF010000 		.4byte	0x1cf
 1938 01c5 02       		.byte	0x2
 1939 01c6 23       		.byte	0x23
 1940 01c7 14       		.uleb128 0x14
 1941 01c8 00       		.byte	0
 1942 01c9 06       		.uleb128 0x6
 1943 01ca 04       		.byte	0x4
 1944 01cb 63010000 		.4byte	0x163
 1945 01cf 0B       		.uleb128 0xb
 1946 01d0 57010000 		.4byte	0x157
 1947 01d4 DF010000 		.4byte	0x1df
 1948 01d8 0C       		.uleb128 0xc
 1949 01d9 25000000 		.4byte	0x25
 1950 01dd 00       		.byte	0
 1951 01de 00       		.byte	0
 1952 01df 11       		.uleb128 0x11
 1953 01e0 A0000000 		.4byte	.LASF29
ARM GAS  C:\Users\skey\AppData\Local\Temp\cceKeKCB.s 			page 61


 1954 01e4 24       		.byte	0x24
 1955 01e5 06       		.byte	0x6
 1956 01e6 37       		.byte	0x37
 1957 01e7 08       		.byte	0x8
 1958 01e8 74020000 		.4byte	0x274
 1959 01ec 0E       		.uleb128 0xe
 1960 01ed BC000000 		.4byte	.LASF30
 1961 01f1 06       		.byte	0x6
 1962 01f2 39       		.byte	0x39
 1963 01f3 09       		.byte	0x9
 1964 01f4 2C000000 		.4byte	0x2c
 1965 01f8 02       		.byte	0x2
 1966 01f9 23       		.byte	0x23
 1967 01fa 00       		.uleb128 0
 1968 01fb 0E       		.uleb128 0xe
 1969 01fc 4A0C0000 		.4byte	.LASF31
 1970 0200 06       		.byte	0x6
 1971 0201 3A       		.byte	0x3a
 1972 0202 09       		.byte	0x9
 1973 0203 2C000000 		.4byte	0x2c
 1974 0207 02       		.byte	0x2
 1975 0208 23       		.byte	0x23
 1976 0209 04       		.uleb128 0x4
 1977 020a 0E       		.uleb128 0xe
 1978 020b A90B0000 		.4byte	.LASF32
 1979 020f 06       		.byte	0x6
 1980 0210 3B       		.byte	0x3b
 1981 0211 09       		.byte	0x9
 1982 0212 2C000000 		.4byte	0x2c
 1983 0216 02       		.byte	0x2
 1984 0217 23       		.byte	0x23
 1985 0218 08       		.uleb128 0x8
 1986 0219 0E       		.uleb128 0xe
 1987 021a 95070000 		.4byte	.LASF33
 1988 021e 06       		.byte	0x6
 1989 021f 3C       		.byte	0x3c
 1990 0220 09       		.byte	0x9
 1991 0221 2C000000 		.4byte	0x2c
 1992 0225 02       		.byte	0x2
 1993 0226 23       		.byte	0x23
 1994 0227 0C       		.uleb128 0xc
 1995 0228 0E       		.uleb128 0xe
 1996 0229 C2010000 		.4byte	.LASF34
 1997 022d 06       		.byte	0x6
 1998 022e 3D       		.byte	0x3d
 1999 022f 09       		.byte	0x9
 2000 0230 2C000000 		.4byte	0x2c
 2001 0234 02       		.byte	0x2
 2002 0235 23       		.byte	0x23
 2003 0236 10       		.uleb128 0x10
 2004 0237 0E       		.uleb128 0xe
 2005 0238 CE0A0000 		.4byte	.LASF35
 2006 023c 06       		.byte	0x6
 2007 023d 3E       		.byte	0x3e
 2008 023e 09       		.byte	0x9
 2009 023f 2C000000 		.4byte	0x2c
 2010 0243 02       		.byte	0x2
ARM GAS  C:\Users\skey\AppData\Local\Temp\cceKeKCB.s 			page 62


 2011 0244 23       		.byte	0x23
 2012 0245 14       		.uleb128 0x14
 2013 0246 0E       		.uleb128 0xe
 2014 0247 A5080000 		.4byte	.LASF36
 2015 024b 06       		.byte	0x6
 2016 024c 3F       		.byte	0x3f
 2017 024d 09       		.byte	0x9
 2018 024e 2C000000 		.4byte	0x2c
 2019 0252 02       		.byte	0x2
 2020 0253 23       		.byte	0x23
 2021 0254 18       		.uleb128 0x18
 2022 0255 0E       		.uleb128 0xe
 2023 0256 BB080000 		.4byte	.LASF37
 2024 025a 06       		.byte	0x6
 2025 025b 40       		.byte	0x40
 2026 025c 09       		.byte	0x9
 2027 025d 2C000000 		.4byte	0x2c
 2028 0261 02       		.byte	0x2
 2029 0262 23       		.byte	0x23
 2030 0263 1C       		.uleb128 0x1c
 2031 0264 0E       		.uleb128 0xe
 2032 0265 3F0C0000 		.4byte	.LASF38
 2033 0269 06       		.byte	0x6
 2034 026a 41       		.byte	0x41
 2035 026b 09       		.byte	0x9
 2036 026c 2C000000 		.4byte	0x2c
 2037 0270 02       		.byte	0x2
 2038 0271 23       		.byte	0x23
 2039 0272 20       		.uleb128 0x20
 2040 0273 00       		.byte	0
 2041 0274 13       		.uleb128 0x13
 2042 0275 43010000 		.4byte	.LASF39
 2043 0279 0801     		.2byte	0x108
 2044 027b 06       		.byte	0x6
 2045 027c 4A       		.byte	0x4a
 2046 027d 08       		.byte	0x8
 2047 027e C2020000 		.4byte	0x2c2
 2048 0282 0E       		.uleb128 0xe
 2049 0283 370C0000 		.4byte	.LASF40
 2050 0287 06       		.byte	0x6
 2051 0288 4B       		.byte	0x4b
 2052 0289 0A       		.byte	0xa
 2053 028a C2020000 		.4byte	0x2c2
 2054 028e 02       		.byte	0x2
 2055 028f 23       		.byte	0x23
 2056 0290 00       		.uleb128 0
 2057 0291 0E       		.uleb128 0xe
 2058 0292 6C090000 		.4byte	.LASF41
 2059 0296 06       		.byte	0x6
 2060 0297 4C       		.byte	0x4c
 2061 0298 09       		.byte	0x9
 2062 0299 C2020000 		.4byte	0x2c2
 2063 029d 03       		.byte	0x3
 2064 029e 23       		.byte	0x23
 2065 029f 8001     		.uleb128 0x80
 2066 02a1 0E       		.uleb128 0xe
 2067 02a2 C50A0000 		.4byte	.LASF42
ARM GAS  C:\Users\skey\AppData\Local\Temp\cceKeKCB.s 			page 63


 2068 02a6 06       		.byte	0x6
 2069 02a7 4E       		.byte	0x4e
 2070 02a8 0A       		.byte	0xa
 2071 02a9 57010000 		.4byte	0x157
 2072 02ad 03       		.byte	0x3
 2073 02ae 23       		.byte	0x23
 2074 02af 8002     		.uleb128 0x100
 2075 02b1 0E       		.uleb128 0xe
 2076 02b2 0B0B0000 		.4byte	.LASF43
 2077 02b6 06       		.byte	0x6
 2078 02b7 51       		.byte	0x51
 2079 02b8 0A       		.byte	0xa
 2080 02b9 57010000 		.4byte	0x157
 2081 02bd 03       		.byte	0x3
 2082 02be 23       		.byte	0x23
 2083 02bf 8402     		.uleb128 0x104
 2084 02c1 00       		.byte	0
 2085 02c2 0B       		.uleb128 0xb
 2086 02c3 3E010000 		.4byte	0x13e
 2087 02c7 D2020000 		.4byte	0x2d2
 2088 02cb 0C       		.uleb128 0xc
 2089 02cc 25000000 		.4byte	0x25
 2090 02d0 1F       		.byte	0x1f
 2091 02d1 00       		.byte	0
 2092 02d2 13       		.uleb128 0x13
 2093 02d3 27080000 		.4byte	.LASF44
 2094 02d7 9001     		.2byte	0x190
 2095 02d9 06       		.byte	0x6
 2096 02da 5D       		.byte	0x5d
 2097 02db 08       		.byte	0x8
 2098 02dc 1E030000 		.4byte	0x31e
 2099 02e0 0E       		.uleb128 0xe
 2100 02e1 2E0A0000 		.4byte	.LASF24
 2101 02e5 06       		.byte	0x6
 2102 02e6 5E       		.byte	0x5e
 2103 02e7 12       		.byte	0x12
 2104 02e8 1E030000 		.4byte	0x31e
 2105 02ec 02       		.byte	0x2
 2106 02ed 23       		.byte	0x23
 2107 02ee 00       		.uleb128 0
 2108 02ef 0E       		.uleb128 0xe
 2109 02f0 FF0A0000 		.4byte	.LASF45
 2110 02f4 06       		.byte	0x6
 2111 02f5 5F       		.byte	0x5f
 2112 02f6 06       		.byte	0x6
 2113 02f7 2C000000 		.4byte	0x2c
 2114 02fb 02       		.byte	0x2
 2115 02fc 23       		.byte	0x23
 2116 02fd 04       		.uleb128 0x4
 2117 02fe 0E       		.uleb128 0xe
 2118 02ff 88030000 		.4byte	.LASF46
 2119 0303 06       		.byte	0x6
 2120 0304 61       		.byte	0x61
 2121 0305 09       		.byte	0x9
 2122 0306 24030000 		.4byte	0x324
 2123 030a 02       		.byte	0x2
 2124 030b 23       		.byte	0x23
ARM GAS  C:\Users\skey\AppData\Local\Temp\cceKeKCB.s 			page 64


 2125 030c 08       		.uleb128 0x8
 2126 030d 0E       		.uleb128 0xe
 2127 030e 43010000 		.4byte	.LASF39
 2128 0312 06       		.byte	0x6
 2129 0313 62       		.byte	0x62
 2130 0314 1E       		.byte	0x1e
 2131 0315 74020000 		.4byte	0x274
 2132 0319 03       		.byte	0x3
 2133 031a 23       		.byte	0x23
 2134 031b 8801     		.uleb128 0x88
 2135 031d 00       		.byte	0
 2136 031e 06       		.uleb128 0x6
 2137 031f 04       		.byte	0x4
 2138 0320 D2020000 		.4byte	0x2d2
 2139 0324 0B       		.uleb128 0xb
 2140 0325 34030000 		.4byte	0x334
 2141 0329 34030000 		.4byte	0x334
 2142 032d 0C       		.uleb128 0xc
 2143 032e 25000000 		.4byte	0x25
 2144 0332 1F       		.byte	0x1f
 2145 0333 00       		.byte	0
 2146 0334 06       		.uleb128 0x6
 2147 0335 04       		.byte	0x4
 2148 0336 3A030000 		.4byte	0x33a
 2149 033a 14       		.uleb128 0x14
 2150 033b 01       		.byte	0x1
 2151 033c 11       		.uleb128 0x11
 2152 033d 040B0000 		.4byte	.LASF47
 2153 0341 08       		.byte	0x8
 2154 0342 06       		.byte	0x6
 2155 0343 75       		.byte	0x75
 2156 0344 08       		.byte	0x8
 2157 0345 68030000 		.4byte	0x368
 2158 0349 0E       		.uleb128 0xe
 2159 034a C5090000 		.4byte	.LASF48
 2160 034e 06       		.byte	0x6
 2161 034f 76       		.byte	0x76
 2162 0350 11       		.byte	0x11
 2163 0351 68030000 		.4byte	0x368
 2164 0355 02       		.byte	0x2
 2165 0356 23       		.byte	0x23
 2166 0357 00       		.uleb128 0
 2167 0358 0E       		.uleb128 0xe
 2168 0359 8D010000 		.4byte	.LASF49
 2169 035d 06       		.byte	0x6
 2170 035e 77       		.byte	0x77
 2171 035f 06       		.byte	0x6
 2172 0360 2C000000 		.4byte	0x2c
 2173 0364 02       		.byte	0x2
 2174 0365 23       		.byte	0x23
 2175 0366 04       		.uleb128 0x4
 2176 0367 00       		.byte	0
 2177 0368 06       		.uleb128 0x6
 2178 0369 04       		.byte	0x4
 2179 036a 59000000 		.4byte	0x59
 2180 036e 11       		.uleb128 0x11
 2181 036f 9F050000 		.4byte	.LASF50
ARM GAS  C:\Users\skey\AppData\Local\Temp\cceKeKCB.s 			page 65


 2182 0373 68       		.byte	0x68
 2183 0374 06       		.byte	0x6
 2184 0375 B5       		.byte	0xb5
 2185 0376 08       		.byte	0x8
 2186 0377 E1040000 		.4byte	0x4e1
 2187 037b 12       		.uleb128 0x12
 2188 037c 5F7000   		.ascii	"_p\000"
 2189 037f 06       		.byte	0x6
 2190 0380 B6       		.byte	0xb6
 2191 0381 12       		.byte	0x12
 2192 0382 68030000 		.4byte	0x368
 2193 0386 02       		.byte	0x2
 2194 0387 23       		.byte	0x23
 2195 0388 00       		.uleb128 0
 2196 0389 12       		.uleb128 0x12
 2197 038a 5F7200   		.ascii	"_r\000"
 2198 038d 06       		.byte	0x6
 2199 038e B7       		.byte	0xb7
 2200 038f 07       		.byte	0x7
 2201 0390 2C000000 		.4byte	0x2c
 2202 0394 02       		.byte	0x2
 2203 0395 23       		.byte	0x23
 2204 0396 04       		.uleb128 0x4
 2205 0397 12       		.uleb128 0x12
 2206 0398 5F7700   		.ascii	"_w\000"
 2207 039b 06       		.byte	0x6
 2208 039c B8       		.byte	0xb8
 2209 039d 07       		.byte	0x7
 2210 039e 2C000000 		.4byte	0x2c
 2211 03a2 02       		.byte	0x2
 2212 03a3 23       		.byte	0x23
 2213 03a4 08       		.uleb128 0x8
 2214 03a5 0E       		.uleb128 0xe
 2215 03a6 F4070000 		.4byte	.LASF51
 2216 03aa 06       		.byte	0x6
 2217 03ab B9       		.byte	0xb9
 2218 03ac 09       		.byte	0x9
 2219 03ad 60000000 		.4byte	0x60
 2220 03b1 02       		.byte	0x2
 2221 03b2 23       		.byte	0x23
 2222 03b3 0C       		.uleb128 0xc
 2223 03b4 0E       		.uleb128 0xe
 2224 03b5 3D010000 		.4byte	.LASF52
 2225 03b9 06       		.byte	0x6
 2226 03ba BA       		.byte	0xba
 2227 03bb 09       		.byte	0x9
 2228 03bc 60000000 		.4byte	0x60
 2229 03c0 02       		.byte	0x2
 2230 03c1 23       		.byte	0x23
 2231 03c2 0E       		.uleb128 0xe
 2232 03c3 12       		.uleb128 0x12
 2233 03c4 5F626600 		.ascii	"_bf\000"
 2234 03c8 06       		.byte	0x6
 2235 03c9 BB       		.byte	0xbb
 2236 03ca 11       		.byte	0x11
 2237 03cb 3C030000 		.4byte	0x33c
 2238 03cf 02       		.byte	0x2
ARM GAS  C:\Users\skey\AppData\Local\Temp\cceKeKCB.s 			page 66


 2239 03d0 23       		.byte	0x23
 2240 03d1 10       		.uleb128 0x10
 2241 03d2 0E       		.uleb128 0xe
 2242 03d3 F10A0000 		.4byte	.LASF53
 2243 03d7 06       		.byte	0x6
 2244 03d8 BC       		.byte	0xbc
 2245 03d9 07       		.byte	0x7
 2246 03da 2C000000 		.4byte	0x2c
 2247 03de 02       		.byte	0x2
 2248 03df 23       		.byte	0x23
 2249 03e0 18       		.uleb128 0x18
 2250 03e1 0E       		.uleb128 0xe
 2251 03e2 42040000 		.4byte	.LASF54
 2252 03e6 06       		.byte	0x6
 2253 03e7 C3       		.byte	0xc3
 2254 03e8 0A       		.byte	0xa
 2255 03e9 3E010000 		.4byte	0x13e
 2256 03ed 02       		.byte	0x2
 2257 03ee 23       		.byte	0x23
 2258 03ef 1C       		.uleb128 0x1c
 2259 03f0 0E       		.uleb128 0xe
 2260 03f1 18000000 		.4byte	.LASF55
 2261 03f5 06       		.byte	0x6
 2262 03f6 C5       		.byte	0xc5
 2263 03f7 1D       		.byte	0x1d
 2264 03f8 80060000 		.4byte	0x680
 2265 03fc 02       		.byte	0x2
 2266 03fd 23       		.byte	0x23
 2267 03fe 20       		.uleb128 0x20
 2268 03ff 0E       		.uleb128 0xe
 2269 0400 48000000 		.4byte	.LASF56
 2270 0404 06       		.byte	0x6
 2271 0405 C7       		.byte	0xc7
 2272 0406 1D       		.byte	0x1d
 2273 0407 B0060000 		.4byte	0x6b0
 2274 040b 02       		.byte	0x2
 2275 040c 23       		.byte	0x23
 2276 040d 24       		.uleb128 0x24
 2277 040e 0E       		.uleb128 0xe
 2278 040f D3080000 		.4byte	.LASF57
 2279 0413 06       		.byte	0x6
 2280 0414 CA       		.byte	0xca
 2281 0415 0D       		.byte	0xd
 2282 0416 D5060000 		.4byte	0x6d5
 2283 041a 02       		.byte	0x2
 2284 041b 23       		.byte	0x23
 2285 041c 28       		.uleb128 0x28
 2286 041d 0E       		.uleb128 0xe
 2287 041e C1030000 		.4byte	.LASF58
 2288 0422 06       		.byte	0x6
 2289 0423 CB       		.byte	0xcb
 2290 0424 09       		.byte	0x9
 2291 0425 F0060000 		.4byte	0x6f0
 2292 0429 02       		.byte	0x2
 2293 042a 23       		.byte	0x23
 2294 042b 2C       		.uleb128 0x2c
 2295 042c 12       		.uleb128 0x12
ARM GAS  C:\Users\skey\AppData\Local\Temp\cceKeKCB.s 			page 67


 2296 042d 5F756200 		.ascii	"_ub\000"
 2297 0431 06       		.byte	0x6
 2298 0432 CE       		.byte	0xce
 2299 0433 11       		.byte	0x11
 2300 0434 3C030000 		.4byte	0x33c
 2301 0438 02       		.byte	0x2
 2302 0439 23       		.byte	0x23
 2303 043a 30       		.uleb128 0x30
 2304 043b 12       		.uleb128 0x12
 2305 043c 5F757000 		.ascii	"_up\000"
 2306 0440 06       		.byte	0x6
 2307 0441 CF       		.byte	0xcf
 2308 0442 12       		.byte	0x12
 2309 0443 68030000 		.4byte	0x368
 2310 0447 02       		.byte	0x2
 2311 0448 23       		.byte	0x23
 2312 0449 38       		.uleb128 0x38
 2313 044a 12       		.uleb128 0x12
 2314 044b 5F757200 		.ascii	"_ur\000"
 2315 044f 06       		.byte	0x6
 2316 0450 D0       		.byte	0xd0
 2317 0451 07       		.byte	0x7
 2318 0452 2C000000 		.4byte	0x2c
 2319 0456 02       		.byte	0x2
 2320 0457 23       		.byte	0x23
 2321 0458 3C       		.uleb128 0x3c
 2322 0459 0E       		.uleb128 0xe
 2323 045a BD070000 		.4byte	.LASF59
 2324 045e 06       		.byte	0x6
 2325 045f D3       		.byte	0xd3
 2326 0460 11       		.byte	0x11
 2327 0461 F6060000 		.4byte	0x6f6
 2328 0465 02       		.byte	0x2
 2329 0466 23       		.byte	0x23
 2330 0467 40       		.uleb128 0x40
 2331 0468 0E       		.uleb128 0xe
 2332 0469 B6000000 		.4byte	.LASF60
 2333 046d 06       		.byte	0x6
 2334 046e D4       		.byte	0xd4
 2335 046f 11       		.byte	0x11
 2336 0470 06070000 		.4byte	0x706
 2337 0474 02       		.byte	0x2
 2338 0475 23       		.byte	0x23
 2339 0476 43       		.uleb128 0x43
 2340 0477 12       		.uleb128 0x12
 2341 0478 5F6C6200 		.ascii	"_lb\000"
 2342 047c 06       		.byte	0x6
 2343 047d D7       		.byte	0xd7
 2344 047e 11       		.byte	0x11
 2345 047f 3C030000 		.4byte	0x33c
 2346 0483 02       		.byte	0x2
 2347 0484 23       		.byte	0x23
 2348 0485 44       		.uleb128 0x44
 2349 0486 0E       		.uleb128 0xe
 2350 0487 A9090000 		.4byte	.LASF61
 2351 048b 06       		.byte	0x6
 2352 048c DA       		.byte	0xda
ARM GAS  C:\Users\skey\AppData\Local\Temp\cceKeKCB.s 			page 68


 2353 048d 07       		.byte	0x7
 2354 048e 2C000000 		.4byte	0x2c
 2355 0492 02       		.byte	0x2
 2356 0493 23       		.byte	0x23
 2357 0494 4C       		.uleb128 0x4c
 2358 0495 0E       		.uleb128 0xe
 2359 0496 8D040000 		.4byte	.LASF62
 2360 049a 06       		.byte	0x6
 2361 049b DB       		.byte	0xdb
 2362 049c 0A       		.byte	0xa
 2363 049d A7000000 		.4byte	0xa7
 2364 04a1 02       		.byte	0x2
 2365 04a2 23       		.byte	0x23
 2366 04a3 50       		.uleb128 0x50
 2367 04a4 0E       		.uleb128 0xe
 2368 04a5 340A0000 		.4byte	.LASF63
 2369 04a9 06       		.byte	0x6
 2370 04aa DE       		.byte	0xde
 2371 04ab 12       		.byte	0x12
 2372 04ac 00050000 		.4byte	0x500
 2373 04b0 02       		.byte	0x2
 2374 04b1 23       		.byte	0x23
 2375 04b2 54       		.uleb128 0x54
 2376 04b3 0E       		.uleb128 0xe
 2377 04b4 02010000 		.4byte	.LASF64
 2378 04b8 06       		.byte	0x6
 2379 04b9 E2       		.byte	0xe2
 2380 04ba 0C       		.byte	0xc
 2381 04bb 32010000 		.4byte	0x132
 2382 04bf 02       		.byte	0x2
 2383 04c0 23       		.byte	0x23
 2384 04c1 58       		.uleb128 0x58
 2385 04c2 0E       		.uleb128 0xe
 2386 04c3 D9070000 		.4byte	.LASF65
 2387 04c7 06       		.byte	0x6
 2388 04c8 E4       		.byte	0xe4
 2389 04c9 0E       		.byte	0xe
 2390 04ca 26010000 		.4byte	0x126
 2391 04ce 02       		.byte	0x2
 2392 04cf 23       		.byte	0x23
 2393 04d0 5C       		.uleb128 0x5c
 2394 04d1 0E       		.uleb128 0xe
 2395 04d2 B2050000 		.4byte	.LASF66
 2396 04d6 06       		.byte	0x6
 2397 04d7 E5       		.byte	0xe5
 2398 04d8 09       		.byte	0x9
 2399 04d9 2C000000 		.4byte	0x2c
 2400 04dd 02       		.byte	0x2
 2401 04de 23       		.byte	0x23
 2402 04df 64       		.uleb128 0x64
 2403 04e0 00       		.byte	0
 2404 04e1 15       		.uleb128 0x15
 2405 04e2 01       		.byte	0x1
 2406 04e3 2C000000 		.4byte	0x2c
 2407 04e7 00050000 		.4byte	0x500
 2408 04eb 16       		.uleb128 0x16
 2409 04ec 00050000 		.4byte	0x500
ARM GAS  C:\Users\skey\AppData\Local\Temp\cceKeKCB.s 			page 69


 2410 04f0 16       		.uleb128 0x16
 2411 04f1 3E010000 		.4byte	0x13e
 2412 04f5 16       		.uleb128 0x16
 2413 04f6 45010000 		.4byte	0x145
 2414 04fa 16       		.uleb128 0x16
 2415 04fb 2C000000 		.4byte	0x2c
 2416 04ff 00       		.byte	0
 2417 0500 06       		.uleb128 0x6
 2418 0501 04       		.byte	0x4
 2419 0502 0B050000 		.4byte	0x50b
 2420 0506 10       		.uleb128 0x10
 2421 0507 00050000 		.4byte	0x500
 2422 050b 17       		.uleb128 0x17
 2423 050c FA020000 		.4byte	.LASF67
 2424 0510 2804     		.2byte	0x428
 2425 0512 06       		.byte	0x6
 2426 0513 6002     		.2byte	0x260
 2427 0515 08       		.byte	0x8
 2428 0516 80060000 		.4byte	0x680
 2429 051a 18       		.uleb128 0x18
 2430 051b DD050000 		.4byte	.LASF68
 2431 051f 06       		.byte	0x6
 2432 0520 6202     		.2byte	0x262
 2433 0522 07       		.byte	0x7
 2434 0523 2C000000 		.4byte	0x2c
 2435 0527 02       		.byte	0x2
 2436 0528 23       		.byte	0x23
 2437 0529 00       		.uleb128 0
 2438 052a 18       		.uleb128 0x18
 2439 052b EB030000 		.4byte	.LASF69
 2440 052f 06       		.byte	0x6
 2441 0530 6702     		.2byte	0x267
 2442 0532 0B       		.byte	0xb
 2443 0533 68070000 		.4byte	0x768
 2444 0537 02       		.byte	0x2
 2445 0538 23       		.byte	0x23
 2446 0539 04       		.uleb128 0x4
 2447 053a 18       		.uleb128 0x18
 2448 053b 80090000 		.4byte	.LASF70
 2449 053f 06       		.byte	0x6
 2450 0540 6702     		.2byte	0x267
 2451 0542 14       		.byte	0x14
 2452 0543 68070000 		.4byte	0x768
 2453 0547 02       		.byte	0x2
 2454 0548 23       		.byte	0x23
 2455 0549 08       		.uleb128 0x8
 2456 054a 18       		.uleb128 0x18
 2457 054b C3070000 		.4byte	.LASF71
 2458 054f 06       		.byte	0x6
 2459 0550 6702     		.2byte	0x267
 2460 0552 1E       		.byte	0x1e
 2461 0553 68070000 		.4byte	0x768
 2462 0557 02       		.byte	0x2
 2463 0558 23       		.byte	0x23
 2464 0559 0C       		.uleb128 0xc
 2465 055a 18       		.uleb128 0x18
 2466 055b FA0A0000 		.4byte	.LASF72
ARM GAS  C:\Users\skey\AppData\Local\Temp\cceKeKCB.s 			page 70


 2467 055f 06       		.byte	0x6
 2468 0560 6902     		.2byte	0x269
 2469 0562 08       		.byte	0x8
 2470 0563 2C000000 		.4byte	0x2c
 2471 0567 02       		.byte	0x2
 2472 0568 23       		.byte	0x23
 2473 0569 10       		.uleb128 0x10
 2474 056a 18       		.uleb128 0x18
 2475 056b 6B060000 		.4byte	.LASF73
 2476 056f 06       		.byte	0x6
 2477 0570 6A02     		.2byte	0x26a
 2478 0572 08       		.byte	0x8
 2479 0573 A1090000 		.4byte	0x9a1
 2480 0577 02       		.byte	0x2
 2481 0578 23       		.byte	0x23
 2482 0579 14       		.uleb128 0x14
 2483 057a 18       		.uleb128 0x18
 2484 057b B7020000 		.4byte	.LASF74
 2485 057f 06       		.byte	0x6
 2486 0580 6D02     		.2byte	0x26d
 2487 0582 07       		.byte	0x7
 2488 0583 2C000000 		.4byte	0x2c
 2489 0587 02       		.byte	0x2
 2490 0588 23       		.byte	0x23
 2491 0589 30       		.uleb128 0x30
 2492 058a 18       		.uleb128 0x18
 2493 058b 590B0000 		.4byte	.LASF75
 2494 058f 06       		.byte	0x6
 2495 0590 6E02     		.2byte	0x26e
 2496 0592 16       		.byte	0x16
 2497 0593 B7090000 		.4byte	0x9b7
 2498 0597 02       		.byte	0x2
 2499 0598 23       		.byte	0x23
 2500 0599 34       		.uleb128 0x34
 2501 059a 18       		.uleb128 0x18
 2502 059b A7050000 		.4byte	.LASF76
 2503 059f 06       		.byte	0x6
 2504 05a0 7002     		.2byte	0x270
 2505 05a2 07       		.byte	0x7
 2506 05a3 2C000000 		.4byte	0x2c
 2507 05a7 02       		.byte	0x2
 2508 05a8 23       		.byte	0x23
 2509 05a9 38       		.uleb128 0x38
 2510 05aa 18       		.uleb128 0x18
 2511 05ab 41060000 		.4byte	.LASF77
 2512 05af 06       		.byte	0x6
 2513 05b0 7202     		.2byte	0x272
 2514 05b2 0A       		.byte	0xa
 2515 05b3 C9090000 		.4byte	0x9c9
 2516 05b7 02       		.byte	0x2
 2517 05b8 23       		.byte	0x23
 2518 05b9 3C       		.uleb128 0x3c
 2519 05ba 18       		.uleb128 0x18
 2520 05bb 720B0000 		.4byte	.LASF78
 2521 05bf 06       		.byte	0x6
 2522 05c0 7502     		.2byte	0x275
 2523 05c2 13       		.byte	0x13
ARM GAS  C:\Users\skey\AppData\Local\Temp\cceKeKCB.s 			page 71


 2524 05c3 C9010000 		.4byte	0x1c9
 2525 05c7 02       		.byte	0x2
 2526 05c8 23       		.byte	0x23
 2527 05c9 40       		.uleb128 0x40
 2528 05ca 18       		.uleb128 0x18
 2529 05cb 83010000 		.4byte	.LASF79
 2530 05cf 06       		.byte	0x6
 2531 05d0 7602     		.2byte	0x276
 2532 05d2 07       		.byte	0x7
 2533 05d3 2C000000 		.4byte	0x2c
 2534 05d7 02       		.byte	0x2
 2535 05d8 23       		.byte	0x23
 2536 05d9 44       		.uleb128 0x44
 2537 05da 18       		.uleb128 0x18
 2538 05db 6D050000 		.4byte	.LASF80
 2539 05df 06       		.byte	0x6
 2540 05e0 7702     		.2byte	0x277
 2541 05e2 13       		.byte	0x13
 2542 05e3 C9010000 		.4byte	0x1c9
 2543 05e7 02       		.byte	0x2
 2544 05e8 23       		.byte	0x23
 2545 05e9 48       		.uleb128 0x48
 2546 05ea 18       		.uleb128 0x18
 2547 05eb 08070000 		.4byte	.LASF81
 2548 05ef 06       		.byte	0x6
 2549 05f0 7802     		.2byte	0x278
 2550 05f2 14       		.byte	0x14
 2551 05f3 CF090000 		.4byte	0x9cf
 2552 05f7 02       		.byte	0x2
 2553 05f8 23       		.byte	0x23
 2554 05f9 4C       		.uleb128 0x4c
 2555 05fa 18       		.uleb128 0x18
 2556 05fb 7D000000 		.4byte	.LASF82
 2557 05ff 06       		.byte	0x6
 2558 0600 7B02     		.2byte	0x27b
 2559 0602 07       		.byte	0x7
 2560 0603 2C000000 		.4byte	0x2c
 2561 0607 02       		.byte	0x2
 2562 0608 23       		.byte	0x23
 2563 0609 50       		.uleb128 0x50
 2564 060a 18       		.uleb128 0x18
 2565 060b 40000000 		.4byte	.LASF83
 2566 060f 06       		.byte	0x6
 2567 0610 7C02     		.2byte	0x27c
 2568 0612 09       		.byte	0x9
 2569 0613 45010000 		.4byte	0x145
 2570 0617 02       		.byte	0x2
 2571 0618 23       		.byte	0x23
 2572 0619 54       		.uleb128 0x54
 2573 061a 18       		.uleb128 0x18
 2574 061b B8070000 		.4byte	.LASF84
 2575 061f 06       		.byte	0x6
 2576 0620 9F02     		.2byte	0x29f
 2577 0622 07       		.byte	0x7
 2578 0623 7C090000 		.4byte	0x97c
 2579 0627 02       		.byte	0x2
 2580 0628 23       		.byte	0x23
ARM GAS  C:\Users\skey\AppData\Local\Temp\cceKeKCB.s 			page 72


 2581 0629 58       		.uleb128 0x58
 2582 062a 18       		.uleb128 0x18
 2583 062b 27080000 		.4byte	.LASF44
 2584 062f 06       		.byte	0x6
 2585 0630 A302     		.2byte	0x2a3
 2586 0632 13       		.byte	0x13
 2587 0633 1E030000 		.4byte	0x31e
 2588 0637 03       		.byte	0x3
 2589 0638 23       		.byte	0x23
 2590 0639 C802     		.uleb128 0x148
 2591 063b 18       		.uleb128 0x18
 2592 063c 4B060000 		.4byte	.LASF85
 2593 0640 06       		.byte	0x6
 2594 0641 A402     		.2byte	0x2a4
 2595 0643 12       		.byte	0x12
 2596 0644 D2020000 		.4byte	0x2d2
 2597 0648 03       		.byte	0x3
 2598 0649 23       		.byte	0x23
 2599 064a CC02     		.uleb128 0x14c
 2600 064c 18       		.uleb128 0x18
 2601 064d 66040000 		.4byte	.LASF86
 2602 0651 06       		.byte	0x6
 2603 0652 A802     		.2byte	0x2a8
 2604 0654 0C       		.byte	0xc
 2605 0655 E1090000 		.4byte	0x9e1
 2606 0659 03       		.byte	0x3
 2607 065a 23       		.byte	0x23
 2608 065b DC05     		.uleb128 0x2dc
 2609 065d 18       		.uleb128 0x18
 2610 065e BD060000 		.4byte	.LASF87
 2611 0662 06       		.byte	0x6
 2612 0663 AD02     		.2byte	0x2ad
 2613 0665 10       		.byte	0x10
 2614 0666 23070000 		.4byte	0x723
 2615 066a 03       		.byte	0x3
 2616 066b 23       		.byte	0x23
 2617 066c E005     		.uleb128 0x2e0
 2618 066e 18       		.uleb128 0x18
 2619 066f 13000000 		.4byte	.LASF88
 2620 0673 06       		.byte	0x6
 2621 0674 AF02     		.2byte	0x2af
 2622 0676 0A       		.byte	0xa
 2623 0677 ED090000 		.4byte	0x9ed
 2624 067b 03       		.byte	0x3
 2625 067c 23       		.byte	0x23
 2626 067d EC05     		.uleb128 0x2ec
 2627 067f 00       		.byte	0
 2628 0680 06       		.uleb128 0x6
 2629 0681 04       		.byte	0x4
 2630 0682 E1040000 		.4byte	0x4e1
 2631 0686 15       		.uleb128 0x15
 2632 0687 01       		.byte	0x1
 2633 0688 2C000000 		.4byte	0x2c
 2634 068c A5060000 		.4byte	0x6a5
 2635 0690 16       		.uleb128 0x16
 2636 0691 00050000 		.4byte	0x500
 2637 0695 16       		.uleb128 0x16
ARM GAS  C:\Users\skey\AppData\Local\Temp\cceKeKCB.s 			page 73


 2638 0696 3E010000 		.4byte	0x13e
 2639 069a 16       		.uleb128 0x16
 2640 069b A5060000 		.4byte	0x6a5
 2641 069f 16       		.uleb128 0x16
 2642 06a0 2C000000 		.4byte	0x2c
 2643 06a4 00       		.byte	0
 2644 06a5 06       		.uleb128 0x6
 2645 06a6 04       		.byte	0x4
 2646 06a7 52010000 		.4byte	0x152
 2647 06ab 10       		.uleb128 0x10
 2648 06ac A5060000 		.4byte	0x6a5
 2649 06b0 06       		.uleb128 0x6
 2650 06b1 04       		.byte	0x4
 2651 06b2 86060000 		.4byte	0x686
 2652 06b6 15       		.uleb128 0x15
 2653 06b7 01       		.byte	0x1
 2654 06b8 B3000000 		.4byte	0xb3
 2655 06bc D5060000 		.4byte	0x6d5
 2656 06c0 16       		.uleb128 0x16
 2657 06c1 00050000 		.4byte	0x500
 2658 06c5 16       		.uleb128 0x16
 2659 06c6 3E010000 		.4byte	0x13e
 2660 06ca 16       		.uleb128 0x16
 2661 06cb B3000000 		.4byte	0xb3
 2662 06cf 16       		.uleb128 0x16
 2663 06d0 2C000000 		.4byte	0x2c
 2664 06d4 00       		.byte	0
 2665 06d5 06       		.uleb128 0x6
 2666 06d6 04       		.byte	0x4
 2667 06d7 B6060000 		.4byte	0x6b6
 2668 06db 15       		.uleb128 0x15
 2669 06dc 01       		.byte	0x1
 2670 06dd 2C000000 		.4byte	0x2c
 2671 06e1 F0060000 		.4byte	0x6f0
 2672 06e5 16       		.uleb128 0x16
 2673 06e6 00050000 		.4byte	0x500
 2674 06ea 16       		.uleb128 0x16
 2675 06eb 3E010000 		.4byte	0x13e
 2676 06ef 00       		.byte	0
 2677 06f0 06       		.uleb128 0x6
 2678 06f1 04       		.byte	0x4
 2679 06f2 DB060000 		.4byte	0x6db
 2680 06f6 0B       		.uleb128 0xb
 2681 06f7 59000000 		.4byte	0x59
 2682 06fb 06070000 		.4byte	0x706
 2683 06ff 0C       		.uleb128 0xc
 2684 0700 25000000 		.4byte	0x25
 2685 0704 02       		.byte	0x2
 2686 0705 00       		.byte	0
 2687 0706 0B       		.uleb128 0xb
 2688 0707 59000000 		.4byte	0x59
 2689 070b 16070000 		.4byte	0x716
 2690 070f 0C       		.uleb128 0xc
 2691 0710 25000000 		.4byte	0x25
 2692 0714 00       		.byte	0
 2693 0715 00       		.byte	0
 2694 0716 08       		.uleb128 0x8
ARM GAS  C:\Users\skey\AppData\Local\Temp\cceKeKCB.s 			page 74


 2695 0717 100A0000 		.4byte	.LASF89
 2696 071b 06       		.byte	0x6
 2697 071c 1F01     		.2byte	0x11f
 2698 071e 1A       		.byte	0x1a
 2699 071f 6E030000 		.4byte	0x36e
 2700 0723 19       		.uleb128 0x19
 2701 0724 18070000 		.4byte	.LASF90
 2702 0728 0C       		.byte	0xc
 2703 0729 06       		.byte	0x6
 2704 072a 2301     		.2byte	0x123
 2705 072c 08       		.byte	0x8
 2706 072d 62070000 		.4byte	0x762
 2707 0731 18       		.uleb128 0x18
 2708 0732 2E0A0000 		.4byte	.LASF24
 2709 0736 06       		.byte	0x6
 2710 0737 2501     		.2byte	0x125
 2711 0739 11       		.byte	0x11
 2712 073a 62070000 		.4byte	0x762
 2713 073e 02       		.byte	0x2
 2714 073f 23       		.byte	0x23
 2715 0740 00       		.uleb128 0
 2716 0741 18       		.uleb128 0x18
 2717 0742 B6060000 		.4byte	.LASF91
 2718 0746 06       		.byte	0x6
 2719 0747 2601     		.2byte	0x126
 2720 0749 07       		.byte	0x7
 2721 074a 2C000000 		.4byte	0x2c
 2722 074e 02       		.byte	0x2
 2723 074f 23       		.byte	0x23
 2724 0750 04       		.uleb128 0x4
 2725 0751 18       		.uleb128 0x18
 2726 0752 12070000 		.4byte	.LASF92
 2727 0756 06       		.byte	0x6
 2728 0757 2701     		.2byte	0x127
 2729 0759 0B       		.byte	0xb
 2730 075a 68070000 		.4byte	0x768
 2731 075e 02       		.byte	0x2
 2732 075f 23       		.byte	0x23
 2733 0760 08       		.uleb128 0x8
 2734 0761 00       		.byte	0
 2735 0762 06       		.uleb128 0x6
 2736 0763 04       		.byte	0x4
 2737 0764 23070000 		.4byte	0x723
 2738 0768 06       		.uleb128 0x6
 2739 0769 04       		.byte	0x4
 2740 076a 16070000 		.4byte	0x716
 2741 076e 19       		.uleb128 0x19
 2742 076f 78090000 		.4byte	.LASF93
 2743 0773 0E       		.byte	0xe
 2744 0774 06       		.byte	0x6
 2745 0775 3F01     		.2byte	0x13f
 2746 0777 08       		.byte	0x8
 2747 0778 AD070000 		.4byte	0x7ad
 2748 077c 18       		.uleb128 0x18
 2749 077d CD080000 		.4byte	.LASF94
 2750 0781 06       		.byte	0x6
 2751 0782 4001     		.2byte	0x140
ARM GAS  C:\Users\skey\AppData\Local\Temp\cceKeKCB.s 			page 75


 2752 0784 12       		.byte	0x12
 2753 0785 AD070000 		.4byte	0x7ad
 2754 0789 02       		.byte	0x2
 2755 078a 23       		.byte	0x23
 2756 078b 00       		.uleb128 0
 2757 078c 18       		.uleb128 0x18
 2758 078d 08010000 		.4byte	.LASF95
 2759 0791 06       		.byte	0x6
 2760 0792 4101     		.2byte	0x141
 2761 0794 12       		.byte	0x12
 2762 0795 AD070000 		.4byte	0x7ad
 2763 0799 02       		.byte	0x2
 2764 079a 23       		.byte	0x23
 2765 079b 06       		.uleb128 0x6
 2766 079c 18       		.uleb128 0x18
 2767 079d 910B0000 		.4byte	.LASF96
 2768 07a1 06       		.byte	0x6
 2769 07a2 4201     		.2byte	0x142
 2770 07a4 12       		.byte	0x12
 2771 07a5 67000000 		.4byte	0x67
 2772 07a9 02       		.byte	0x2
 2773 07aa 23       		.byte	0x23
 2774 07ab 0C       		.uleb128 0xc
 2775 07ac 00       		.byte	0
 2776 07ad 0B       		.uleb128 0xb
 2777 07ae 67000000 		.4byte	0x67
 2778 07b2 BD070000 		.4byte	0x7bd
 2779 07b6 0C       		.uleb128 0xc
 2780 07b7 25000000 		.4byte	0x25
 2781 07bb 02       		.byte	0x2
 2782 07bc 00       		.byte	0
 2783 07bd 1A       		.uleb128 0x1a
 2784 07be D0       		.byte	0xd0
 2785 07bf 06       		.byte	0x6
 2786 07c0 8002     		.2byte	0x280
 2787 07c2 07       		.byte	0x7
 2788 07c3 01090000 		.4byte	0x901
 2789 07c7 18       		.uleb128 0x18
 2790 07c8 18020000 		.4byte	.LASF97
 2791 07cc 06       		.byte	0x6
 2792 07cd 8202     		.2byte	0x282
 2793 07cf 18       		.byte	0x18
 2794 07d0 25000000 		.4byte	0x25
 2795 07d4 02       		.byte	0x2
 2796 07d5 23       		.byte	0x23
 2797 07d6 00       		.uleb128 0
 2798 07d7 18       		.uleb128 0x18
 2799 07d8 D6090000 		.4byte	.LASF98
 2800 07dc 06       		.byte	0x6
 2801 07dd 8302     		.2byte	0x283
 2802 07df 12       		.byte	0x12
 2803 07e0 45010000 		.4byte	0x145
 2804 07e4 02       		.byte	0x2
 2805 07e5 23       		.byte	0x23
 2806 07e6 04       		.uleb128 0x4
 2807 07e7 18       		.uleb128 0x18
 2808 07e8 5C000000 		.4byte	.LASF99
ARM GAS  C:\Users\skey\AppData\Local\Temp\cceKeKCB.s 			page 76


 2809 07ec 06       		.byte	0x6
 2810 07ed 8402     		.2byte	0x284
 2811 07ef 10       		.byte	0x10
 2812 07f0 01090000 		.4byte	0x901
 2813 07f4 02       		.byte	0x2
 2814 07f5 23       		.byte	0x23
 2815 07f6 08       		.uleb128 0x8
 2816 07f7 18       		.uleb128 0x18
 2817 07f8 A1010000 		.4byte	.LASF100
 2818 07fc 06       		.byte	0x6
 2819 07fd 8502     		.2byte	0x285
 2820 07ff 17       		.byte	0x17
 2821 0800 DF010000 		.4byte	0x1df
 2822 0804 02       		.byte	0x2
 2823 0805 23       		.byte	0x23
 2824 0806 24       		.uleb128 0x24
 2825 0807 18       		.uleb128 0x18
 2826 0808 D9060000 		.4byte	.LASF101
 2827 080c 06       		.byte	0x6
 2828 080d 8602     		.2byte	0x286
 2829 080f 0F       		.byte	0xf
 2830 0810 2C000000 		.4byte	0x2c
 2831 0814 02       		.byte	0x2
 2832 0815 23       		.byte	0x23
 2833 0816 48       		.uleb128 0x48
 2834 0817 18       		.uleb128 0x18
 2835 0818 E9070000 		.4byte	.LASF102
 2836 081c 06       		.byte	0x6
 2837 081d 8702     		.2byte	0x287
 2838 081f 2C       		.byte	0x2c
 2839 0820 88000000 		.4byte	0x88
 2840 0824 02       		.byte	0x2
 2841 0825 23       		.byte	0x23
 2842 0826 50       		.uleb128 0x50
 2843 0827 18       		.uleb128 0x18
 2844 0828 220A0000 		.4byte	.LASF103
 2845 082c 06       		.byte	0x6
 2846 082d 8802     		.2byte	0x288
 2847 082f 1A       		.byte	0x1a
 2848 0830 6E070000 		.4byte	0x76e
 2849 0834 02       		.byte	0x2
 2850 0835 23       		.byte	0x23
 2851 0836 58       		.uleb128 0x58
 2852 0837 18       		.uleb128 0x18
 2853 0838 970A0000 		.4byte	.LASF104
 2854 083c 06       		.byte	0x6
 2855 083d 8902     		.2byte	0x289
 2856 083f 16       		.byte	0x16
 2857 0840 26010000 		.4byte	0x126
 2858 0844 02       		.byte	0x2
 2859 0845 23       		.byte	0x23
 2860 0846 68       		.uleb128 0x68
 2861 0847 18       		.uleb128 0x18
 2862 0848 1D090000 		.4byte	.LASF105
 2863 084c 06       		.byte	0x6
 2864 084d 8A02     		.2byte	0x28a
 2865 084f 16       		.byte	0x16
ARM GAS  C:\Users\skey\AppData\Local\Temp\cceKeKCB.s 			page 77


 2866 0850 26010000 		.4byte	0x126
 2867 0854 02       		.byte	0x2
 2868 0855 23       		.byte	0x23
 2869 0856 70       		.uleb128 0x70
 2870 0857 18       		.uleb128 0x18
 2871 0858 CB070000 		.4byte	.LASF106
 2872 085c 06       		.byte	0x6
 2873 085d 8B02     		.2byte	0x28b
 2874 085f 16       		.byte	0x16
 2875 0860 26010000 		.4byte	0x126
 2876 0864 02       		.byte	0x2
 2877 0865 23       		.byte	0x23
 2878 0866 78       		.uleb128 0x78
 2879 0867 18       		.uleb128 0x18
 2880 0868 D0000000 		.4byte	.LASF107
 2881 086c 06       		.byte	0x6
 2882 086d 8C02     		.2byte	0x28c
 2883 086f 10       		.byte	0x10
 2884 0870 11090000 		.4byte	0x911
 2885 0874 03       		.byte	0x3
 2886 0875 23       		.byte	0x23
 2887 0876 8001     		.uleb128 0x80
 2888 0878 18       		.uleb128 0x18
 2889 0879 FE050000 		.4byte	.LASF108
 2890 087d 06       		.byte	0x6
 2891 087e 8D02     		.2byte	0x28d
 2892 0880 10       		.byte	0x10
 2893 0881 21090000 		.4byte	0x921
 2894 0885 03       		.byte	0x3
 2895 0886 23       		.byte	0x23
 2896 0887 8801     		.uleb128 0x88
 2897 0889 18       		.uleb128 0x18
 2898 088a 670C0000 		.4byte	.LASF109
 2899 088e 06       		.byte	0x6
 2900 088f 8E02     		.2byte	0x28e
 2901 0891 0F       		.byte	0xf
 2902 0892 2C000000 		.4byte	0x2c
 2903 0896 03       		.byte	0x3
 2904 0897 23       		.byte	0x23
 2905 0898 A001     		.uleb128 0xa0
 2906 089a 18       		.uleb128 0x18
 2907 089b 60010000 		.4byte	.LASF110
 2908 089f 06       		.byte	0x6
 2909 08a0 8F02     		.2byte	0x28f
 2910 08a2 16       		.byte	0x16
 2911 08a3 26010000 		.4byte	0x126
 2912 08a7 03       		.byte	0x3
 2913 08a8 23       		.byte	0x23
 2914 08a9 A401     		.uleb128 0xa4
 2915 08ab 18       		.uleb128 0x18
 2916 08ac E3090000 		.4byte	.LASF111
 2917 08b0 06       		.byte	0x6
 2918 08b1 9002     		.2byte	0x290
 2919 08b3 16       		.byte	0x16
 2920 08b4 26010000 		.4byte	0x126
 2921 08b8 03       		.byte	0x3
 2922 08b9 23       		.byte	0x23
ARM GAS  C:\Users\skey\AppData\Local\Temp\cceKeKCB.s 			page 78


 2923 08ba AC01     		.uleb128 0xac
 2924 08bc 18       		.uleb128 0x18
 2925 08bd DD0B0000 		.4byte	.LASF112
 2926 08c1 06       		.byte	0x6
 2927 08c2 9102     		.2byte	0x291
 2928 08c4 16       		.byte	0x16
 2929 08c5 26010000 		.4byte	0x126
 2930 08c9 03       		.byte	0x3
 2931 08ca 23       		.byte	0x23
 2932 08cb B401     		.uleb128 0xb4
 2933 08cd 18       		.uleb128 0x18
 2934 08ce 71070000 		.4byte	.LASF113
 2935 08d2 06       		.byte	0x6
 2936 08d3 9202     		.2byte	0x292
 2937 08d5 16       		.byte	0x16
 2938 08d6 26010000 		.4byte	0x126
 2939 08da 03       		.byte	0x3
 2940 08db 23       		.byte	0x23
 2941 08dc BC01     		.uleb128 0xbc
 2942 08de 18       		.uleb128 0x18
 2943 08df A5000000 		.4byte	.LASF114
 2944 08e3 06       		.byte	0x6
 2945 08e4 9302     		.2byte	0x293
 2946 08e6 16       		.byte	0x16
 2947 08e7 26010000 		.4byte	0x126
 2948 08eb 03       		.byte	0x3
 2949 08ec 23       		.byte	0x23
 2950 08ed C401     		.uleb128 0xc4
 2951 08ef 18       		.uleb128 0x18
 2952 08f0 46070000 		.4byte	.LASF115
 2953 08f4 06       		.byte	0x6
 2954 08f5 9402     		.2byte	0x294
 2955 08f7 08       		.byte	0x8
 2956 08f8 2C000000 		.4byte	0x2c
 2957 08fc 03       		.byte	0x3
 2958 08fd 23       		.byte	0x23
 2959 08fe CC01     		.uleb128 0xcc
 2960 0900 00       		.byte	0
 2961 0901 0B       		.uleb128 0xb
 2962 0902 4B010000 		.4byte	0x14b
 2963 0906 11090000 		.4byte	0x911
 2964 090a 0C       		.uleb128 0xc
 2965 090b 25000000 		.4byte	0x25
 2966 090f 19       		.byte	0x19
 2967 0910 00       		.byte	0
 2968 0911 0B       		.uleb128 0xb
 2969 0912 4B010000 		.4byte	0x14b
 2970 0916 21090000 		.4byte	0x921
 2971 091a 0C       		.uleb128 0xc
 2972 091b 25000000 		.4byte	0x25
 2973 091f 07       		.byte	0x7
 2974 0920 00       		.byte	0
 2975 0921 0B       		.uleb128 0xb
 2976 0922 4B010000 		.4byte	0x14b
 2977 0926 31090000 		.4byte	0x931
 2978 092a 0C       		.uleb128 0xc
 2979 092b 25000000 		.4byte	0x25
ARM GAS  C:\Users\skey\AppData\Local\Temp\cceKeKCB.s 			page 79


 2980 092f 17       		.byte	0x17
 2981 0930 00       		.byte	0
 2982 0931 1A       		.uleb128 0x1a
 2983 0932 F0       		.byte	0xf0
 2984 0933 06       		.byte	0x6
 2985 0934 9902     		.2byte	0x299
 2986 0936 07       		.byte	0x7
 2987 0937 5C090000 		.4byte	0x95c
 2988 093b 18       		.uleb128 0x18
 2989 093c 330B0000 		.4byte	.LASF116
 2990 0940 06       		.byte	0x6
 2991 0941 9C02     		.2byte	0x29c
 2992 0943 1B       		.byte	0x1b
 2993 0944 5C090000 		.4byte	0x95c
 2994 0948 02       		.byte	0x2
 2995 0949 23       		.byte	0x23
 2996 094a 00       		.uleb128 0
 2997 094b 18       		.uleb128 0x18
 2998 094c C5060000 		.4byte	.LASF117
 2999 0950 06       		.byte	0x6
 3000 0951 9D02     		.2byte	0x29d
 3001 0953 18       		.byte	0x18
 3002 0954 6C090000 		.4byte	0x96c
 3003 0958 02       		.byte	0x2
 3004 0959 23       		.byte	0x23
 3005 095a 78       		.uleb128 0x78
 3006 095b 00       		.byte	0
 3007 095c 0B       		.uleb128 0xb
 3008 095d 68030000 		.4byte	0x368
 3009 0961 6C090000 		.4byte	0x96c
 3010 0965 0C       		.uleb128 0xc
 3011 0966 25000000 		.4byte	0x25
 3012 096a 1D       		.byte	0x1d
 3013 096b 00       		.byte	0
 3014 096c 0B       		.uleb128 0xb
 3015 096d 25000000 		.4byte	0x25
 3016 0971 7C090000 		.4byte	0x97c
 3017 0975 0C       		.uleb128 0xc
 3018 0976 25000000 		.4byte	0x25
 3019 097a 1D       		.byte	0x1d
 3020 097b 00       		.byte	0
 3021 097c 1B       		.uleb128 0x1b
 3022 097d F0       		.byte	0xf0
 3023 097e 06       		.byte	0x6
 3024 097f 7E02     		.2byte	0x27e
 3025 0981 03       		.byte	0x3
 3026 0982 A1090000 		.4byte	0x9a1
 3027 0986 1C       		.uleb128 0x1c
 3028 0987 FA020000 		.4byte	.LASF67
 3029 098b 06       		.byte	0x6
 3030 098c 9502     		.2byte	0x295
 3031 098e 0B       		.byte	0xb
 3032 098f BD070000 		.4byte	0x7bd
 3033 0993 1C       		.uleb128 0x1c
 3034 0994 98000000 		.4byte	.LASF118
 3035 0998 06       		.byte	0x6
 3036 0999 9E02     		.2byte	0x29e
ARM GAS  C:\Users\skey\AppData\Local\Temp\cceKeKCB.s 			page 80


 3037 099b 0B       		.byte	0xb
 3038 099c 31090000 		.4byte	0x931
 3039 09a0 00       		.byte	0
 3040 09a1 0B       		.uleb128 0xb
 3041 09a2 4B010000 		.4byte	0x14b
 3042 09a6 B1090000 		.4byte	0x9b1
 3043 09aa 0C       		.uleb128 0xc
 3044 09ab 25000000 		.4byte	0x25
 3045 09af 18       		.byte	0x18
 3046 09b0 00       		.byte	0
 3047 09b1 07       		.uleb128 0x7
 3048 09b2 00000000 		.4byte	.LASF120
 3049 09b6 01       		.byte	0x1
 3050 09b7 06       		.uleb128 0x6
 3051 09b8 04       		.byte	0x4
 3052 09b9 B1090000 		.4byte	0x9b1
 3053 09bd 1D       		.uleb128 0x1d
 3054 09be 01       		.byte	0x1
 3055 09bf C9090000 		.4byte	0x9c9
 3056 09c3 16       		.uleb128 0x16
 3057 09c4 00050000 		.4byte	0x500
 3058 09c8 00       		.byte	0
 3059 09c9 06       		.uleb128 0x6
 3060 09ca 04       		.byte	0x4
 3061 09cb BD090000 		.4byte	0x9bd
 3062 09cf 06       		.uleb128 0x6
 3063 09d0 04       		.byte	0x4
 3064 09d1 C9010000 		.4byte	0x1c9
 3065 09d5 1D       		.uleb128 0x1d
 3066 09d6 01       		.byte	0x1
 3067 09d7 E1090000 		.4byte	0x9e1
 3068 09db 16       		.uleb128 0x16
 3069 09dc 2C000000 		.4byte	0x2c
 3070 09e0 00       		.byte	0
 3071 09e1 06       		.uleb128 0x6
 3072 09e2 04       		.byte	0x4
 3073 09e3 E7090000 		.4byte	0x9e7
 3074 09e7 06       		.uleb128 0x6
 3075 09e8 04       		.byte	0x4
 3076 09e9 D5090000 		.4byte	0x9d5
 3077 09ed 0B       		.uleb128 0xb
 3078 09ee 16070000 		.4byte	0x716
 3079 09f2 FD090000 		.4byte	0x9fd
 3080 09f6 0C       		.uleb128 0xc
 3081 09f7 25000000 		.4byte	0x25
 3082 09fb 02       		.byte	0x2
 3083 09fc 00       		.byte	0
 3084 09fd 1E       		.uleb128 0x1e
 3085 09fe 77010000 		.4byte	.LASF121
 3086 0a02 06       		.byte	0x6
 3087 0a03 2E03     		.2byte	0x32e
 3088 0a05 17       		.byte	0x17
 3089 0a06 00050000 		.4byte	0x500
 3090 0a0a 01       		.byte	0x1
 3091 0a0b 01       		.byte	0x1
 3092 0a0c 1E       		.uleb128 0x1e
 3093 0a0d 15030000 		.4byte	.LASF122
ARM GAS  C:\Users\skey\AppData\Local\Temp\cceKeKCB.s 			page 81


 3094 0a11 06       		.byte	0x6
 3095 0a12 2F03     		.2byte	0x32f
 3096 0a14 1D       		.byte	0x1d
 3097 0a15 06050000 		.4byte	0x506
 3098 0a19 01       		.byte	0x1
 3099 0a1a 01       		.byte	0x1
 3100 0a1b 1F       		.uleb128 0x1f
 3101 0a1c BB0A0000 		.4byte	.LASF123
 3102 0a20 07       		.byte	0x7
 3103 0a21 64       		.byte	0x64
 3104 0a22 0E       		.byte	0xe
 3105 0a23 45010000 		.4byte	0x145
 3106 0a27 01       		.byte	0x1
 3107 0a28 01       		.byte	0x1
 3108 0a29 05       		.uleb128 0x5
 3109 0a2a 3F020000 		.4byte	.LASF124
 3110 0a2e 08       		.byte	0x8
 3111 0a2f 18       		.byte	0x18
 3112 0a30 13       		.byte	0x13
 3113 0a31 4D000000 		.4byte	0x4d
 3114 0a35 05       		.uleb128 0x5
 3115 0a36 690B0000 		.4byte	.LASF125
 3116 0a3a 08       		.byte	0x8
 3117 0a3b 30       		.byte	0x30
 3118 0a3c 14       		.byte	0x14
 3119 0a3d 75000000 		.4byte	0x75
 3120 0a41 1E       		.uleb128 0x1e
 3121 0a42 1E070000 		.4byte	.LASF126
 3122 0a46 09       		.byte	0x9
 3123 0a47 CE06     		.2byte	0x6ce
 3124 0a49 15       		.byte	0x15
 3125 0a4a 33000000 		.4byte	0x33
 3126 0a4e 01       		.byte	0x1
 3127 0a4f 01       		.byte	0x1
 3128 0a50 1F       		.uleb128 0x1f
 3129 0a51 CD050000 		.4byte	.LASF127
 3130 0a55 0A       		.byte	0xa
 3131 0a56 35       		.byte	0x35
 3132 0a57 11       		.byte	0x11
 3133 0a58 350A0000 		.4byte	0xa35
 3134 0a5c 01       		.byte	0x1
 3135 0a5d 01       		.byte	0x1
 3136 0a5e 05       		.uleb128 0x5
 3137 0a5f C5000000 		.4byte	.LASF128
 3138 0a63 0B       		.byte	0xb
 3139 0a64 38       		.byte	0x38
 3140 0a65 0E       		.byte	0xe
 3141 0a66 6E000000 		.4byte	0x6e
 3142 0a6a 10       		.uleb128 0x10
 3143 0a6b 5E0A0000 		.4byte	0xa5e
 3144 0a6f 05       		.uleb128 0x5
 3145 0a70 88090000 		.4byte	.LASF129
 3146 0a74 0B       		.byte	0xb
 3147 0a75 39       		.byte	0x39
 3148 0a76 17       		.byte	0x17
 3149 0a77 81000000 		.4byte	0x81
 3150 0a7b 04       		.uleb128 0x4
ARM GAS  C:\Users\skey\AppData\Local\Temp\cceKeKCB.s 			page 82


 3151 0a7c 6F0A0000 		.4byte	0xa6f
 3152 0a80 10       		.uleb128 0x10
 3153 0a81 6F0A0000 		.4byte	0xa6f
 3154 0a85 05       		.uleb128 0x5
 3155 0a86 CB090000 		.4byte	.LASF130
 3156 0a8a 0B       		.byte	0xb
 3157 0a8b 3F       		.byte	0x3f
 3158 0a8c 13       		.byte	0x13
 3159 0a8d 350A0000 		.4byte	0xa35
 3160 0a91 10       		.uleb128 0x10
 3161 0a92 850A0000 		.4byte	0xa85
 3162 0a96 11       		.uleb128 0x11
 3163 0a97 E8060000 		.4byte	.LASF131
 3164 0a9b 14       		.byte	0x14
 3165 0a9c 0C       		.byte	0xc
 3166 0a9d 8C       		.byte	0x8c
 3167 0a9e 08       		.byte	0x8
 3168 0a9f EF0A0000 		.4byte	0xaef
 3169 0aa3 0E       		.uleb128 0xe
 3170 0aa4 740C0000 		.4byte	.LASF132
 3171 0aa8 0C       		.byte	0xc
 3172 0aa9 8F       		.byte	0x8f
 3173 0aaa 21       		.byte	0x21
 3174 0aab 850A0000 		.4byte	0xa85
 3175 0aaf 02       		.byte	0x2
 3176 0ab0 23       		.byte	0x23
 3177 0ab1 00       		.uleb128 0
 3178 0ab2 0E       		.uleb128 0xe
 3179 0ab3 1A010000 		.4byte	.LASF133
 3180 0ab7 0C       		.byte	0xc
 3181 0ab8 90       		.byte	0x90
 3182 0ab9 2A       		.byte	0x2a
 3183 0aba EF0A0000 		.4byte	0xaef
 3184 0abe 02       		.byte	0x2
 3185 0abf 23       		.byte	0x23
 3186 0ac0 04       		.uleb128 0x4
 3187 0ac1 0E       		.uleb128 0xe
 3188 0ac2 94090000 		.4byte	.LASF134
 3189 0ac6 0C       		.byte	0xc
 3190 0ac7 91       		.byte	0x91
 3191 0ac8 2A       		.byte	0x2a
 3192 0ac9 EF0A0000 		.4byte	0xaef
 3193 0acd 02       		.byte	0x2
 3194 0ace 23       		.byte	0x23
 3195 0acf 08       		.uleb128 0x8
 3196 0ad0 0E       		.uleb128 0xe
 3197 0ad1 C5080000 		.4byte	.LASF135
 3198 0ad5 0C       		.byte	0xc
 3199 0ad6 92       		.byte	0x92
 3200 0ad7 09       		.byte	0x9
 3201 0ad8 3E010000 		.4byte	0x13e
 3202 0adc 02       		.byte	0x2
 3203 0add 23       		.byte	0x23
 3204 0ade 0C       		.uleb128 0xc
 3205 0adf 0E       		.uleb128 0xe
 3206 0ae0 54060000 		.4byte	.LASF136
 3207 0ae4 0C       		.byte	0xc
ARM GAS  C:\Users\skey\AppData\Local\Temp\cceKeKCB.s 			page 83


 3208 0ae5 93       		.byte	0x93
 3209 0ae6 25       		.byte	0x25
 3210 0ae7 300B0000 		.4byte	0xb30
 3211 0aeb 02       		.byte	0x2
 3212 0aec 23       		.byte	0x23
 3213 0aed 10       		.uleb128 0x10
 3214 0aee 00       		.byte	0
 3215 0aef 06       		.uleb128 0x6
 3216 0af0 04       		.byte	0x4
 3217 0af1 960A0000 		.4byte	0xa96
 3218 0af5 11       		.uleb128 0x11
 3219 0af6 9B010000 		.4byte	.LASF137
 3220 0afa 14       		.byte	0x14
 3221 0afb 0C       		.byte	0xc
 3222 0afc A4       		.byte	0xa4
 3223 0afd 10       		.byte	0x10
 3224 0afe 300B0000 		.4byte	0xb30
 3225 0b02 0E       		.uleb128 0xe
 3226 0b03 61070000 		.4byte	.LASF138
 3227 0b07 0C       		.byte	0xc
 3228 0b08 A7       		.byte	0xa7
 3229 0b09 17       		.byte	0x17
 3230 0b0a 7B0A0000 		.4byte	0xa7b
 3231 0b0e 02       		.byte	0x2
 3232 0b0f 23       		.byte	0x23
 3233 0b10 00       		.uleb128 0
 3234 0b11 0E       		.uleb128 0xe
 3235 0b12 49030000 		.4byte	.LASF139
 3236 0b16 0C       		.byte	0xc
 3237 0b17 A8       		.byte	0xa8
 3238 0b18 23       		.byte	0x23
 3239 0b19 890B0000 		.4byte	0xb89
 3240 0b1d 02       		.byte	0x2
 3241 0b1e 23       		.byte	0x23
 3242 0b1f 04       		.uleb128 0x4
 3243 0b20 0E       		.uleb128 0xe
 3244 0b21 5A080000 		.4byte	.LASF140
 3245 0b25 0C       		.byte	0xc
 3246 0b26 A9       		.byte	0xa9
 3247 0b27 11       		.byte	0x11
 3248 0b28 7D0B0000 		.4byte	0xb7d
 3249 0b2c 02       		.byte	0x2
 3250 0b2d 23       		.byte	0x23
 3251 0b2e 08       		.uleb128 0x8
 3252 0b2f 00       		.byte	0
 3253 0b30 06       		.uleb128 0x6
 3254 0b31 04       		.byte	0x4
 3255 0b32 F50A0000 		.4byte	0xaf5
 3256 0b36 05       		.uleb128 0x5
 3257 0b37 E60A0000 		.4byte	.LASF141
 3258 0b3b 0C       		.byte	0xc
 3259 0b3c 96       		.byte	0x96
 3260 0b3d 1B       		.byte	0x1b
 3261 0b3e 960A0000 		.4byte	0xa96
 3262 0b42 11       		.uleb128 0x11
 3263 0b43 B1030000 		.4byte	.LASF142
 3264 0b47 0C       		.byte	0xc
ARM GAS  C:\Users\skey\AppData\Local\Temp\cceKeKCB.s 			page 84


 3265 0b48 0C       		.byte	0xc
 3266 0b49 98       		.byte	0x98
 3267 0b4a 08       		.byte	0x8
 3268 0b4b 7D0B0000 		.4byte	0xb7d
 3269 0b4f 0E       		.uleb128 0xe
 3270 0b50 740C0000 		.4byte	.LASF132
 3271 0b54 0C       		.byte	0xc
 3272 0b55 9B       		.byte	0x9b
 3273 0b56 21       		.byte	0x21
 3274 0b57 850A0000 		.4byte	0xa85
 3275 0b5b 02       		.byte	0x2
 3276 0b5c 23       		.byte	0x23
 3277 0b5d 00       		.uleb128 0
 3278 0b5e 0E       		.uleb128 0xe
 3279 0b5f 1A010000 		.4byte	.LASF133
 3280 0b63 0C       		.byte	0xc
 3281 0b64 9C       		.byte	0x9c
 3282 0b65 2A       		.byte	0x2a
 3283 0b66 EF0A0000 		.4byte	0xaef
 3284 0b6a 02       		.byte	0x2
 3285 0b6b 23       		.byte	0x23
 3286 0b6c 04       		.uleb128 0x4
 3287 0b6d 0E       		.uleb128 0xe
 3288 0b6e 94090000 		.4byte	.LASF134
 3289 0b72 0C       		.byte	0xc
 3290 0b73 9D       		.byte	0x9d
 3291 0b74 2A       		.byte	0x2a
 3292 0b75 EF0A0000 		.4byte	0xaef
 3293 0b79 02       		.byte	0x2
 3294 0b7a 23       		.byte	0x23
 3295 0b7b 08       		.uleb128 0x8
 3296 0b7c 00       		.byte	0
 3297 0b7d 05       		.uleb128 0x5
 3298 0b7e D0020000 		.4byte	.LASF143
 3299 0b82 0C       		.byte	0xc
 3300 0b83 9F       		.byte	0x9f
 3301 0b84 20       		.byte	0x20
 3302 0b85 420B0000 		.4byte	0xb42
 3303 0b89 06       		.uleb128 0x6
 3304 0b8a 04       		.byte	0x4
 3305 0b8b 360B0000 		.4byte	0xb36
 3306 0b8f 05       		.uleb128 0x5
 3307 0b90 E2070000 		.4byte	.LASF144
 3308 0b94 0C       		.byte	0xc
 3309 0b95 AB       		.byte	0xab
 3310 0b96 03       		.byte	0x3
 3311 0b97 F50A0000 		.4byte	0xaf5
 3312 0b9b 05       		.uleb128 0x5
 3313 0b9c 28030000 		.4byte	.LASF145
 3314 0ba0 0D       		.byte	0xd
 3315 0ba1 46       		.byte	0x46
 3316 0ba2 25       		.byte	0x25
 3317 0ba3 A70B0000 		.4byte	0xba7
 3318 0ba7 06       		.uleb128 0x6
 3319 0ba8 04       		.byte	0x4
 3320 0ba9 AD0B0000 		.4byte	0xbad
 3321 0bad 07       		.uleb128 0x7
ARM GAS  C:\Users\skey\AppData\Local\Temp\cceKeKCB.s 			page 85


 3322 0bae F3080000 		.4byte	.LASF146
 3323 0bb2 01       		.byte	0x1
 3324 0bb3 05       		.uleb128 0x5
 3325 0bb4 25020000 		.4byte	.LASF147
 3326 0bb8 0E       		.byte	0xe
 3327 0bb9 30       		.byte	0x30
 3328 0bba 22       		.byte	0x22
 3329 0bbb BF0B0000 		.4byte	0xbbf
 3330 0bbf 06       		.uleb128 0x6
 3331 0bc0 04       		.byte	0x4
 3332 0bc1 C50B0000 		.4byte	0xbc5
 3333 0bc5 07       		.uleb128 0x7
 3334 0bc6 18040000 		.4byte	.LASF148
 3335 0bca 01       		.byte	0x1
 3336 0bcb 05       		.uleb128 0x5
 3337 0bcc 0A060000 		.4byte	.LASF149
 3338 0bd0 0F       		.byte	0xf
 3339 0bd1 4D       		.byte	0x4d
 3340 0bd2 22       		.byte	0x22
 3341 0bd3 DC0B0000 		.4byte	0xbdc
 3342 0bd7 10       		.uleb128 0x10
 3343 0bd8 CB0B0000 		.4byte	0xbcb
 3344 0bdc 06       		.uleb128 0x6
 3345 0bdd 04       		.byte	0x4
 3346 0bde E20B0000 		.4byte	0xbe2
 3347 0be2 11       		.uleb128 0x11
 3348 0be3 31060000 		.4byte	.LASF150
 3349 0be7 2C       		.byte	0x2c
 3350 0be8 01       		.byte	0x1
 3351 0be9 49       		.byte	0x49
 3352 0bea 10       		.byte	0x10
 3353 0beb 590C0000 		.4byte	0xc59
 3354 0bef 0E       		.uleb128 0xe
 3355 0bf0 21010000 		.4byte	.LASF151
 3356 0bf4 01       		.byte	0x1
 3357 0bf5 4B       		.byte	0x4b
 3358 0bf6 11       		.byte	0x11
 3359 0bf7 A5060000 		.4byte	0x6a5
 3360 0bfb 02       		.byte	0x2
 3361 0bfc 23       		.byte	0x23
 3362 0bfd 00       		.uleb128 0
 3363 0bfe 0E       		.uleb128 0xe
 3364 0bff 51030000 		.4byte	.LASF152
 3365 0c03 01       		.byte	0x1
 3366 0c04 4C       		.byte	0x4c
 3367 0c05 10       		.byte	0x10
 3368 0c06 360B0000 		.4byte	0xb36
 3369 0c0a 02       		.byte	0x2
 3370 0c0b 23       		.byte	0x23
 3371 0c0c 04       		.uleb128 0x4
 3372 0c0d 0E       		.uleb128 0xe
 3373 0c0e D7030000 		.4byte	.LASF153
 3374 0c12 01       		.byte	0x1
 3375 0c13 4D       		.byte	0x4d
 3376 0c14 10       		.byte	0x10
 3377 0c15 850A0000 		.4byte	0xa85
 3378 0c19 02       		.byte	0x2
ARM GAS  C:\Users\skey\AppData\Local\Temp\cceKeKCB.s 			page 86


 3379 0c1a 23       		.byte	0x23
 3380 0c1b 18       		.uleb128 0x18
 3381 0c1c 0E       		.uleb128 0xe
 3382 0c1d 9F090000 		.4byte	.LASF154
 3383 0c21 01       		.byte	0x1
 3384 0c22 4E       		.byte	0x4e
 3385 0c23 0D       		.byte	0xd
 3386 0c24 3E010000 		.4byte	0x13e
 3387 0c28 02       		.byte	0x2
 3388 0c29 23       		.byte	0x23
 3389 0c2a 1C       		.uleb128 0x1c
 3390 0c2b 0E       		.uleb128 0xe
 3391 0c2c BA050000 		.4byte	.LASF155
 3392 0c30 01       		.byte	0x1
 3393 0c31 4F       		.byte	0x4f
 3394 0c32 1A       		.byte	0x1a
 3395 0c33 590C0000 		.4byte	0xc59
 3396 0c37 02       		.byte	0x2
 3397 0c38 23       		.byte	0x23
 3398 0c39 20       		.uleb128 0x20
 3399 0c3a 0E       		.uleb128 0xe
 3400 0c3b D80A0000 		.4byte	.LASF156
 3401 0c3f 01       		.byte	0x1
 3402 0c40 51       		.byte	0x51
 3403 0c41 11       		.byte	0x11
 3404 0c42 6F0A0000 		.4byte	0xa6f
 3405 0c46 02       		.byte	0x2
 3406 0c47 23       		.byte	0x23
 3407 0c48 24       		.uleb128 0x24
 3408 0c49 0E       		.uleb128 0xe
 3409 0c4a 28040000 		.4byte	.LASF157
 3410 0c4e 01       		.byte	0x1
 3411 0c4f 53       		.byte	0x53
 3412 0c50 0E       		.byte	0xe
 3413 0c51 290A0000 		.4byte	0xa29
 3414 0c55 02       		.byte	0x2
 3415 0c56 23       		.byte	0x23
 3416 0c57 28       		.uleb128 0x28
 3417 0c58 00       		.byte	0
 3418 0c59 05       		.uleb128 0x5
 3419 0c5a 78080000 		.4byte	.LASF158
 3420 0c5e 0F       		.byte	0xf
 3421 0c5f 52       		.byte	0x52
 3422 0c60 10       		.byte	0x10
 3423 0c61 650C0000 		.4byte	0xc65
 3424 0c65 06       		.uleb128 0x6
 3425 0c66 04       		.byte	0x4
 3426 0c67 6B0C0000 		.4byte	0xc6b
 3427 0c6b 1D       		.uleb128 0x1d
 3428 0c6c 01       		.byte	0x1
 3429 0c6d 770C0000 		.4byte	0xc77
 3430 0c71 16       		.uleb128 0x16
 3431 0c72 CB0B0000 		.4byte	0xbcb
 3432 0c76 00       		.byte	0
 3433 0c77 05       		.uleb128 0x5
 3434 0c78 01070000 		.4byte	.LASF159
 3435 0c7c 01       		.byte	0x1
ARM GAS  C:\Users\skey\AppData\Local\Temp\cceKeKCB.s 			page 87


 3436 0c7d 54       		.byte	0x54
 3437 0c7e 03       		.byte	0x3
 3438 0c7f E20B0000 		.4byte	0xbe2
 3439 0c83 05       		.uleb128 0x5
 3440 0c84 CB010000 		.4byte	.LASF160
 3441 0c88 01       		.byte	0x1
 3442 0c89 58       		.byte	0x58
 3443 0c8a 10       		.byte	0x10
 3444 0c8b 770C0000 		.4byte	0xc77
 3445 0c8f 11       		.uleb128 0x11
 3446 0c90 B2090000 		.4byte	.LASF161
 3447 0c94 08       		.byte	0x8
 3448 0c95 01       		.byte	0x1
 3449 0c96 5F       		.byte	0x5f
 3450 0c97 10       		.byte	0x10
 3451 0c98 BB0C0000 		.4byte	0xcbb
 3452 0c9c 0E       		.uleb128 0xe
 3453 0c9d F3060000 		.4byte	.LASF162
 3454 0ca1 01       		.byte	0x1
 3455 0ca2 61       		.byte	0x61
 3456 0ca3 0F       		.byte	0xf
 3457 0ca4 850A0000 		.4byte	0xa85
 3458 0ca8 02       		.byte	0x2
 3459 0ca9 23       		.byte	0x23
 3460 0caa 00       		.uleb128 0
 3461 0cab 0E       		.uleb128 0xe
 3462 0cac 93010000 		.4byte	.LASF163
 3463 0cb0 01       		.byte	0x1
 3464 0cb1 62       		.byte	0x62
 3465 0cb2 0E       		.byte	0xe
 3466 0cb3 BB0C0000 		.4byte	0xcbb
 3467 0cb7 02       		.byte	0x2
 3468 0cb8 23       		.byte	0x23
 3469 0cb9 04       		.uleb128 0x4
 3470 0cba 00       		.byte	0
 3471 0cbb 06       		.uleb128 0x6
 3472 0cbc 04       		.byte	0x4
 3473 0cbd 830C0000 		.4byte	0xc83
 3474 0cc1 10       		.uleb128 0x10
 3475 0cc2 BB0C0000 		.4byte	0xcbb
 3476 0cc6 05       		.uleb128 0x5
 3477 0cc7 31040000 		.4byte	.LASF164
 3478 0ccb 01       		.byte	0x1
 3479 0ccc 63       		.byte	0x63
 3480 0ccd 03       		.byte	0x3
 3481 0cce 8F0C0000 		.4byte	0xc8f
 3482 0cd2 09       		.uleb128 0x9
 3483 0cd3 08       		.byte	0x8
 3484 0cd4 01       		.byte	0x1
 3485 0cd5 72       		.byte	0x72
 3486 0cd6 02       		.byte	0x2
 3487 0cd7 E80C0000 		.4byte	0xce8
 3488 0cdb 0A       		.uleb128 0xa
 3489 0cdc F2030000 		.4byte	.LASF165
 3490 0ce0 01       		.byte	0x1
 3491 0ce1 74       		.byte	0x74
 3492 0ce2 14       		.byte	0x14
ARM GAS  C:\Users\skey\AppData\Local\Temp\cceKeKCB.s 			page 88


 3493 0ce3 C60C0000 		.4byte	0xcc6
 3494 0ce7 00       		.byte	0
 3495 0ce8 11       		.uleb128 0x11
 3496 0ce9 03040000 		.4byte	.LASF166
 3497 0ced 0C       		.byte	0xc
 3498 0cee 01       		.byte	0x1
 3499 0cef 6F       		.byte	0x6f
 3500 0cf0 10       		.byte	0x10
 3501 0cf1 120D0000 		.4byte	0xd12
 3502 0cf5 0E       		.uleb128 0xe
 3503 0cf6 84060000 		.4byte	.LASF167
 3504 0cfa 01       		.byte	0x1
 3505 0cfb 71       		.byte	0x71
 3506 0cfc 0F       		.byte	0xf
 3507 0cfd 5E0A0000 		.4byte	0xa5e
 3508 0d01 02       		.byte	0x2
 3509 0d02 23       		.byte	0x23
 3510 0d03 00       		.uleb128 0
 3511 0d04 12       		.uleb128 0x12
 3512 0d05 7500     		.ascii	"u\000"
 3513 0d07 01       		.byte	0x1
 3514 0d08 7B       		.byte	0x7b
 3515 0d09 04       		.byte	0x4
 3516 0d0a D20C0000 		.4byte	0xcd2
 3517 0d0e 02       		.byte	0x2
 3518 0d0f 23       		.byte	0x23
 3519 0d10 04       		.uleb128 0x4
 3520 0d11 00       		.byte	0
 3521 0d12 05       		.uleb128 0x5
 3522 0d13 59050000 		.4byte	.LASF168
 3523 0d17 01       		.byte	0x1
 3524 0d18 7C       		.byte	0x7c
 3525 0d19 03       		.byte	0x3
 3526 0d1a E80C0000 		.4byte	0xce8
 3527 0d1e 20       		.uleb128 0x20
 3528 0d1f 8D030000 		.4byte	.LASF169
 3529 0d23 01       		.byte	0x1
 3530 0d24 87       		.byte	0x87
 3531 0d25 1F       		.byte	0x1f
 3532 0d26 8F0B0000 		.4byte	0xb8f
 3533 0d2a 05       		.byte	0x5
 3534 0d2b 03       		.byte	0x3
 3535 0d2c 04000000 		.4byte	xActiveTimerList1
 3536 0d30 20       		.uleb128 0x20
 3537 0d31 9F030000 		.4byte	.LASF170
 3538 0d35 01       		.byte	0x1
 3539 0d36 88       		.byte	0x88
 3540 0d37 1F       		.byte	0x1f
 3541 0d38 8F0B0000 		.4byte	0xb8f
 3542 0d3c 05       		.byte	0x5
 3543 0d3d 03       		.byte	0x3
 3544 0d3e 18000000 		.4byte	xActiveTimerList2
 3545 0d42 20       		.uleb128 0x20
 3546 0d43 85000000 		.4byte	.LASF171
 3547 0d47 01       		.byte	0x1
 3548 0d48 89       		.byte	0x89
 3549 0d49 20       		.byte	0x20
ARM GAS  C:\Users\skey\AppData\Local\Temp\cceKeKCB.s 			page 89


 3550 0d4a 540D0000 		.4byte	0xd54
 3551 0d4e 05       		.byte	0x5
 3552 0d4f 03       		.byte	0x3
 3553 0d50 2C000000 		.4byte	pxCurrentTimerList
 3554 0d54 06       		.uleb128 0x6
 3555 0d55 04       		.byte	0x4
 3556 0d56 8F0B0000 		.4byte	0xb8f
 3557 0d5a 20       		.uleb128 0x20
 3558 0d5b 35030000 		.4byte	.LASF172
 3559 0d5f 01       		.byte	0x1
 3560 0d60 8A       		.byte	0x8a
 3561 0d61 20       		.byte	0x20
 3562 0d62 540D0000 		.4byte	0xd54
 3563 0d66 05       		.byte	0x5
 3564 0d67 03       		.byte	0x3
 3565 0d68 30000000 		.4byte	pxOverflowTimerList
 3566 0d6c 20       		.uleb128 0x20
 3567 0d6d F2050000 		.4byte	.LASF173
 3568 0d71 01       		.byte	0x1
 3569 0d72 8D       		.byte	0x8d
 3570 0d73 26       		.byte	0x26
 3571 0d74 B30B0000 		.4byte	0xbb3
 3572 0d78 05       		.byte	0x5
 3573 0d79 03       		.byte	0x3
 3574 0d7a 00000000 		.4byte	xTimerQueue
 3575 0d7e 20       		.uleb128 0x20
 3576 0d7f 8F060000 		.4byte	.LASF174
 3577 0d83 01       		.byte	0x1
 3578 0d84 8E       		.byte	0x8e
 3579 0d85 25       		.byte	0x25
 3580 0d86 9B0B0000 		.4byte	0xb9b
 3581 0d8a 05       		.byte	0x5
 3582 0d8b 03       		.byte	0x3
 3583 0d8c 34000000 		.4byte	xTimerTaskHandle
 3584 0d90 21       		.uleb128 0x21
 3585 0d91 01       		.byte	0x1
 3586 0d92 80070000 		.4byte	.LASF176
 3587 0d96 01       		.byte	0x1
 3588 0d97 4004     		.2byte	0x440
 3589 0d99 07       		.byte	0x7
 3590 0d9a 01       		.byte	0x1
 3591 0d9b C4030000 		.4byte	.LFB56
 3592 0d9f C8030000 		.4byte	.LFE56
 3593 0da3 02       		.byte	0x2
 3594 0da4 7D       		.byte	0x7d
 3595 0da5 00       		.sleb128 0
 3596 0da6 01       		.byte	0x1
 3597 0da7 CA0D0000 		.4byte	0xdca
 3598 0dab 22       		.uleb128 0x22
 3599 0dac 5B020000 		.4byte	.LASF175
 3600 0db0 01       		.byte	0x1
 3601 0db1 4004     		.2byte	0x440
 3602 0db3 2B       		.byte	0x2b
 3603 0db4 CB0B0000 		.4byte	0xbcb
 3604 0db8 01       		.byte	0x1
 3605 0db9 50       		.byte	0x50
 3606 0dba 22       		.uleb128 0x22
ARM GAS  C:\Users\skey\AppData\Local\Temp\cceKeKCB.s 			page 90


 3607 0dbb D80A0000 		.4byte	.LASF156
 3608 0dbf 01       		.byte	0x1
 3609 0dc0 4004     		.2byte	0x440
 3610 0dc2 3F       		.byte	0x3f
 3611 0dc3 6F0A0000 		.4byte	0xa6f
 3612 0dc7 01       		.byte	0x1
 3613 0dc8 51       		.byte	0x51
 3614 0dc9 00       		.byte	0
 3615 0dca 23       		.uleb128 0x23
 3616 0dcb 01       		.byte	0x1
 3617 0dcc 07090000 		.4byte	.LASF179
 3618 0dd0 01       		.byte	0x1
 3619 0dd1 3604     		.2byte	0x436
 3620 0dd3 0E       		.byte	0xe
 3621 0dd4 01       		.byte	0x1
 3622 0dd5 6F0A0000 		.4byte	0xa6f
 3623 0dd9 C0030000 		.4byte	.LFB55
 3624 0ddd C4030000 		.4byte	.LFE55
 3625 0de1 02       		.byte	0x2
 3626 0de2 7D       		.byte	0x7d
 3627 0de3 00       		.sleb128 0
 3628 0de4 01       		.byte	0x1
 3629 0de5 FF0D0000 		.4byte	0xdff
 3630 0de9 24       		.uleb128 0x24
 3631 0dea 5B020000 		.4byte	.LASF175
 3632 0dee 01       		.byte	0x1
 3633 0def 3604     		.2byte	0x436
 3634 0df1 33       		.byte	0x33
 3635 0df2 CB0B0000 		.4byte	0xbcb
 3636 0df6 04000000 		.4byte	.LLST79
 3637 0dfa 00000000 		.4byte	.LVUS79
 3638 0dfe 00       		.byte	0
 3639 0dff 25       		.uleb128 0x25
 3640 0e00 01       		.byte	0x1
 3641 0e01 2F000000 		.4byte	.LASF177
 3642 0e05 01       		.byte	0x1
 3643 0e06 F103     		.2byte	0x3f1
 3644 0e08 06       		.byte	0x6
 3645 0e09 01       		.byte	0x1
 3646 0e0a AC030000 		.4byte	.LFB54
 3647 0e0e C0030000 		.4byte	.LFE54
 3648 0e12 25000000 		.4byte	.LLST75
 3649 0e16 01       		.byte	0x1
 3650 0e17 6E0E0000 		.4byte	0xe6e
 3651 0e1b 24       		.uleb128 0x24
 3652 0e1c 5B020000 		.4byte	.LASF175
 3653 0e20 01       		.byte	0x1
 3654 0e21 F103     		.2byte	0x3f1
 3655 0e23 26       		.byte	0x26
 3656 0e24 CB0B0000 		.4byte	0xbcb
 3657 0e28 57000000 		.4byte	.LLST76
 3658 0e2c 51000000 		.4byte	.LVUS76
 3659 0e30 24       		.uleb128 0x24
 3660 0e31 B0070000 		.4byte	.LASF178
 3661 0e35 01       		.byte	0x1
 3662 0e36 F103     		.2byte	0x3f1
 3663 0e38 34       		.byte	0x34
ARM GAS  C:\Users\skey\AppData\Local\Temp\cceKeKCB.s 			page 91


 3664 0e39 3E010000 		.4byte	0x13e
 3665 0e3d 8B000000 		.4byte	.LLST77
 3666 0e41 83000000 		.4byte	.LVUS77
 3667 0e45 26       		.uleb128 0x26
 3668 0e46 93010000 		.4byte	.LASF163
 3669 0e4a 01       		.byte	0x1
 3670 0e4b F303     		.2byte	0x3f3
 3671 0e4d 11       		.byte	0x11
 3672 0e4e C10C0000 		.4byte	0xcc1
 3673 0e52 CC000000 		.4byte	.LLST78
 3674 0e56 C6000000 		.4byte	.LVUS78
 3675 0e5a 27       		.uleb128 0x27
 3676 0e5b B6030000 		.4byte	.LVL113
 3677 0e5f BA1A0000 		.4byte	0x1aba
 3678 0e63 28       		.uleb128 0x28
 3679 0e64 C0030000 		.4byte	.LVL115
 3680 0e68 01       		.byte	0x1
 3681 0e69 C81A0000 		.4byte	0x1ac8
 3682 0e6d 00       		.byte	0
 3683 0e6e 29       		.uleb128 0x29
 3684 0e6f 01       		.byte	0x1
 3685 0e70 470B0000 		.4byte	.LASF180
 3686 0e74 01       		.byte	0x1
 3687 0e75 E003     		.2byte	0x3e0
 3688 0e77 07       		.byte	0x7
 3689 0e78 01       		.byte	0x1
 3690 0e79 3E010000 		.4byte	0x13e
 3691 0e7d 9A030000 		.4byte	.LFB53
 3692 0e81 AC030000 		.4byte	.LFE53
 3693 0e85 F8000000 		.4byte	.LLST71
 3694 0e89 01       		.byte	0x1
 3695 0e8a E00E0000 		.4byte	0xee0
 3696 0e8e 24       		.uleb128 0x24
 3697 0e8f 5B020000 		.4byte	.LASF175
 3698 0e93 01       		.byte	0x1
 3699 0e94 E003     		.2byte	0x3e0
 3700 0e96 2E       		.byte	0x2e
 3701 0e97 D70B0000 		.4byte	0xbd7
 3702 0e9b 1E010000 		.4byte	.LLST72
 3703 0e9f 18010000 		.4byte	.LVUS72
 3704 0ea3 26       		.uleb128 0x26
 3705 0ea4 93010000 		.4byte	.LASF163
 3706 0ea8 01       		.byte	0x1
 3707 0ea9 E203     		.2byte	0x3e2
 3708 0eab 11       		.byte	0x11
 3709 0eac C10C0000 		.4byte	0xcc1
 3710 0eb0 50010000 		.4byte	.LLST73
 3711 0eb4 4A010000 		.4byte	.LVUS73
 3712 0eb8 26       		.uleb128 0x26
 3713 0eb9 AD060000 		.4byte	.LASF181
 3714 0ebd 01       		.byte	0x1
 3715 0ebe E303     		.2byte	0x3e3
 3716 0ec0 07       		.byte	0x7
 3717 0ec1 3E010000 		.4byte	0x13e
 3718 0ec5 7E010000 		.4byte	.LLST74
 3719 0ec9 7C010000 		.4byte	.LVUS74
 3720 0ecd 27       		.uleb128 0x27
ARM GAS  C:\Users\skey\AppData\Local\Temp\cceKeKCB.s 			page 92


 3721 0ece A2030000 		.4byte	.LVL108
 3722 0ed2 BA1A0000 		.4byte	0x1aba
 3723 0ed6 27       		.uleb128 0x27
 3724 0ed7 A8030000 		.4byte	.LVL110
 3725 0edb C81A0000 		.4byte	0x1ac8
 3726 0edf 00       		.byte	0
 3727 0ee0 29       		.uleb128 0x29
 3728 0ee1 01       		.byte	0x1
 3729 0ee2 B30B0000 		.4byte	.LASF182
 3730 0ee6 01       		.byte	0x1
 3731 0ee7 C703     		.2byte	0x3c7
 3732 0ee9 0C       		.byte	0xc
 3733 0eea 01       		.byte	0x1
 3734 0eeb 5E0A0000 		.4byte	0xa5e
 3735 0eef 82030000 		.4byte	.LFB52
 3736 0ef3 9A030000 		.4byte	.LFE52
 3737 0ef7 91010000 		.4byte	.LLST67
 3738 0efb 01       		.byte	0x1
 3739 0efc 520F0000 		.4byte	0xf52
 3740 0f00 24       		.uleb128 0x24
 3741 0f01 5B020000 		.4byte	.LASF175
 3742 0f05 01       		.byte	0x1
 3743 0f06 C703     		.2byte	0x3c7
 3744 0f08 2F       		.byte	0x2f
 3745 0f09 CB0B0000 		.4byte	0xbcb
 3746 0f0d B7010000 		.4byte	.LLST68
 3747 0f11 B1010000 		.4byte	.LVUS68
 3748 0f15 26       		.uleb128 0x26
 3749 0f16 90020000 		.4byte	.LASF183
 3750 0f1a 01       		.byte	0x1
 3751 0f1b C903     		.2byte	0x3c9
 3752 0f1d 0C       		.byte	0xc
 3753 0f1e 5E0A0000 		.4byte	0xa5e
 3754 0f22 E5010000 		.4byte	.LLST69
 3755 0f26 E3010000 		.4byte	.LVUS69
 3756 0f2a 26       		.uleb128 0x26
 3757 0f2b 93010000 		.4byte	.LASF163
 3758 0f2f 01       		.byte	0x1
 3759 0f30 CA03     		.2byte	0x3ca
 3760 0f32 0A       		.byte	0xa
 3761 0f33 BB0C0000 		.4byte	0xcbb
 3762 0f37 FE010000 		.4byte	.LLST70
 3763 0f3b F8010000 		.4byte	.LVUS70
 3764 0f3f 27       		.uleb128 0x27
 3765 0f40 8A030000 		.4byte	.LVL102
 3766 0f44 BA1A0000 		.4byte	0x1aba
 3767 0f48 27       		.uleb128 0x27
 3768 0f49 92030000 		.4byte	.LVL104
 3769 0f4d C81A0000 		.4byte	0x1ac8
 3770 0f51 00       		.byte	0
 3771 0f52 2A       		.uleb128 0x2a
 3772 0f53 70040000 		.4byte	.LASF184
 3773 0f57 01       		.byte	0x1
 3774 0f58 9403     		.2byte	0x394
 3775 0f5a 0D       		.byte	0xd
 3776 0f5b 01       		.byte	0x1
 3777 0f5c 00000000 		.4byte	.LFB51
ARM GAS  C:\Users\skey\AppData\Local\Temp\cceKeKCB.s 			page 93


 3778 0f60 3C000000 		.4byte	.LFE51
 3779 0f64 2A020000 		.4byte	.LLST0
 3780 0f68 01       		.byte	0x1
 3781 0f69 C70F0000 		.4byte	0xfc7
 3782 0f6d 27       		.uleb128 0x27
 3783 0f6e 08000000 		.4byte	.LVL0
 3784 0f72 BA1A0000 		.4byte	0x1aba
 3785 0f76 2B       		.uleb128 0x2b
 3786 0f77 18000000 		.4byte	.LVL1
 3787 0f7b D61A0000 		.4byte	0x1ad6
 3788 0f7f 8A0F0000 		.4byte	0xf8a
 3789 0f83 2C       		.uleb128 0x2c
 3790 0f84 01       		.byte	0x1
 3791 0f85 50       		.byte	0x50
 3792 0f86 02       		.byte	0x2
 3793 0f87 77       		.byte	0x77
 3794 0f88 00       		.sleb128 0
 3795 0f89 00       		.byte	0
 3796 0f8a 2B       		.uleb128 0x2b
 3797 0f8b 1E000000 		.4byte	.LVL2
 3798 0f8f D61A0000 		.4byte	0x1ad6
 3799 0f93 9E0F0000 		.4byte	0xf9e
 3800 0f97 2C       		.uleb128 0x2c
 3801 0f98 01       		.byte	0x1
 3802 0f99 50       		.byte	0x50
 3803 0f9a 02       		.byte	0x2
 3804 0f9b 76       		.byte	0x76
 3805 0f9c 00       		.sleb128 0
 3806 0f9d 00       		.byte	0
 3807 0f9e 2B       		.uleb128 0x2b
 3808 0f9f 2C000000 		.4byte	.LVL3
 3809 0fa3 E51A0000 		.4byte	0x1ae5
 3810 0fa7 BC0F0000 		.4byte	0xfbc
 3811 0fab 2C       		.uleb128 0x2c
 3812 0fac 01       		.byte	0x1
 3813 0fad 50       		.byte	0x50
 3814 0fae 01       		.byte	0x1
 3815 0faf 3A       		.byte	0x3a
 3816 0fb0 2C       		.uleb128 0x2c
 3817 0fb1 01       		.byte	0x1
 3818 0fb2 51       		.byte	0x51
 3819 0fb3 01       		.byte	0x1
 3820 0fb4 3C       		.byte	0x3c
 3821 0fb5 2C       		.uleb128 0x2c
 3822 0fb6 01       		.byte	0x1
 3823 0fb7 52       		.byte	0x52
 3824 0fb8 02       		.byte	0x2
 3825 0fb9 75       		.byte	0x75
 3826 0fba 00       		.sleb128 0
 3827 0fbb 00       		.byte	0
 3828 0fbc 28       		.uleb128 0x28
 3829 0fbd 36000000 		.4byte	.LVL4
 3830 0fc1 01       		.byte	0x1
 3831 0fc2 C81A0000 		.4byte	0x1ac8
 3832 0fc6 00       		.byte	0
 3833 0fc7 2A       		.uleb128 0x2a
 3834 0fc8 530C0000 		.4byte	.LASF185
ARM GAS  C:\Users\skey\AppData\Local\Temp\cceKeKCB.s 			page 94


 3835 0fcc 01       		.byte	0x1
 3836 0fcd 5903     		.2byte	0x359
 3837 0fcf 0D       		.byte	0xd
 3838 0fd0 01       		.byte	0x1
 3839 0fd1 30010000 		.4byte	.LFB50
 3840 0fd5 94010000 		.4byte	.LFE50
 3841 0fd9 56020000 		.4byte	.LLST32
 3842 0fdd 01       		.byte	0x1
 3843 0fde A5100000 		.4byte	0x10a5
 3844 0fe2 26       		.uleb128 0x26
 3845 0fe3 4A040000 		.4byte	.LASF186
 3846 0fe7 01       		.byte	0x1
 3847 0fe8 5B03     		.2byte	0x35b
 3848 0fea 0C       		.byte	0xc
 3849 0feb 850A0000 		.4byte	0xa85
 3850 0fef 90020000 		.4byte	.LLST33
 3851 0ff3 8E020000 		.4byte	.LVUS33
 3852 0ff7 26       		.uleb128 0x26
 3853 0ff8 130C0000 		.4byte	.LASF187
 3854 0ffc 01       		.byte	0x1
 3855 0ffd 5B03     		.2byte	0x35b
 3856 0fff 1D       		.byte	0x1d
 3857 1000 850A0000 		.4byte	0xa85
 3858 1004 A9020000 		.4byte	.LLST34
 3859 1008 A3020000 		.4byte	.LVUS34
 3860 100c 26       		.uleb128 0x26
 3861 100d 3A0A0000 		.4byte	.LASF188
 3862 1011 01       		.byte	0x1
 3863 1012 5C03     		.2byte	0x35c
 3864 1014 09       		.byte	0x9
 3865 1015 540D0000 		.4byte	0xd54
 3866 1019 DA020000 		.4byte	.LLST35
 3867 101d D8020000 		.4byte	.LVUS35
 3868 1021 26       		.uleb128 0x26
 3869 1022 93010000 		.4byte	.LASF163
 3870 1026 01       		.byte	0x1
 3871 1027 5D03     		.2byte	0x35d
 3872 1029 0A       		.byte	0xa
 3873 102a BB0C0000 		.4byte	0xcbb
 3874 102e EF020000 		.4byte	.LLST36
 3875 1032 ED020000 		.4byte	.LVUS36
 3876 1036 2D       		.uleb128 0x2d
 3877 1037 31070000 		.4byte	.LASF189
 3878 103b 01       		.byte	0x1
 3879 103c 5E03     		.2byte	0x35e
 3880 103e 0C       		.byte	0xc
 3881 103f 5E0A0000 		.4byte	0xa5e
 3882 1043 2B       		.uleb128 0x2b
 3883 1044 5A010000 		.4byte	.LVL40
 3884 1048 F41A0000 		.4byte	0x1af4
 3885 104c 57100000 		.4byte	0x1057
 3886 1050 2C       		.uleb128 0x2c
 3887 1051 01       		.byte	0x1
 3888 1052 50       		.byte	0x50
 3889 1053 02       		.byte	0x2
 3890 1054 77       		.byte	0x77
 3891 1055 00       		.sleb128 0
ARM GAS  C:\Users\skey\AppData\Local\Temp\cceKeKCB.s 			page 95


 3892 1056 00       		.byte	0
 3893 1057 2E       		.uleb128 0x2e
 3894 1058 60010000 		.4byte	.LVL41
 3895 105c 67100000 		.4byte	0x1067
 3896 1060 2C       		.uleb128 0x2c
 3897 1061 01       		.byte	0x1
 3898 1062 50       		.byte	0x50
 3899 1063 02       		.byte	0x2
 3900 1064 74       		.byte	0x74
 3901 1065 00       		.sleb128 0
 3902 1066 00       		.byte	0
 3903 1067 2B       		.uleb128 0x2b
 3904 1068 7C010000 		.4byte	.LVL43
 3905 106c 031B0000 		.4byte	0x1b03
 3906 1070 7B100000 		.4byte	0x107b
 3907 1074 2C       		.uleb128 0x2c
 3908 1075 01       		.byte	0x1
 3909 1076 51       		.byte	0x51
 3910 1077 02       		.byte	0x2
 3911 1078 77       		.byte	0x77
 3912 1079 00       		.sleb128 0
 3913 107a 00       		.byte	0
 3914 107b 2F       		.uleb128 0x2f
 3915 107c 8E010000 		.4byte	.LVL47
 3916 1080 21170000 		.4byte	0x1721
 3917 1084 2C       		.uleb128 0x2c
 3918 1085 01       		.byte	0x1
 3919 1086 50       		.byte	0x50
 3920 1087 02       		.byte	0x2
 3921 1088 74       		.byte	0x74
 3922 1089 00       		.sleb128 0
 3923 108a 2C       		.uleb128 0x2c
 3924 108b 01       		.byte	0x1
 3925 108c 51       		.byte	0x51
 3926 108d 02       		.byte	0x2
 3927 108e 78       		.byte	0x78
 3928 108f 00       		.sleb128 0
 3929 1090 2C       		.uleb128 0x2c
 3930 1091 01       		.byte	0x1
 3931 1092 52       		.byte	0x52
 3932 1093 02       		.byte	0x2
 3933 1094 76       		.byte	0x76
 3934 1095 00       		.sleb128 0
 3935 1096 2C       		.uleb128 0x2c
 3936 1097 01       		.byte	0x1
 3937 1098 53       		.byte	0x53
 3938 1099 02       		.byte	0x2
 3939 109a 78       		.byte	0x78
 3940 109b 00       		.sleb128 0
 3941 109c 2C       		.uleb128 0x2c
 3942 109d 02       		.byte	0x2
 3943 109e 7D       		.byte	0x7d
 3944 109f 00       		.sleb128 0
 3945 10a0 02       		.byte	0x2
 3946 10a1 78       		.byte	0x78
 3947 10a2 00       		.sleb128 0
 3948 10a3 00       		.byte	0
ARM GAS  C:\Users\skey\AppData\Local\Temp\cceKeKCB.s 			page 96


 3949 10a4 00       		.byte	0
 3950 10a5 30       		.uleb128 0x30
 3951 10a6 EE0B0000 		.4byte	.LASF202
 3952 10aa 01       		.byte	0x1
 3953 10ab C502     		.2byte	0x2c5
 3954 10ad 0D       		.byte	0xd
 3955 10ae 01       		.byte	0x1
 3956 10af 01       		.byte	0x1
 3957 10b0 F6100000 		.4byte	0x10f6
 3958 10b4 2D       		.uleb128 0x2d
 3959 10b5 28060000 		.4byte	.LASF190
 3960 10b9 01       		.byte	0x1
 3961 10ba C702     		.2byte	0x2c7
 3962 10bc 15       		.byte	0x15
 3963 10bd 120D0000 		.4byte	0xd12
 3964 10c1 2D       		.uleb128 0x2d
 3965 10c2 93010000 		.4byte	.LASF163
 3966 10c6 01       		.byte	0x1
 3967 10c7 C802     		.2byte	0x2c8
 3968 10c9 0A       		.byte	0xa
 3969 10ca BB0C0000 		.4byte	0xcbb
 3970 10ce 2D       		.uleb128 0x2d
 3971 10cf 1B0B0000 		.4byte	.LASF191
 3972 10d3 01       		.byte	0x1
 3973 10d4 C902     		.2byte	0x2c9
 3974 10d6 0C       		.byte	0xc
 3975 10d7 5E0A0000 		.4byte	0xa5e
 3976 10db 2D       		.uleb128 0x2d
 3977 10dc 31070000 		.4byte	.LASF189
 3978 10e0 01       		.byte	0x1
 3979 10e1 C902     		.2byte	0x2c9
 3980 10e3 25       		.byte	0x25
 3981 10e4 5E0A0000 		.4byte	0xa5e
 3982 10e8 2D       		.uleb128 0x2d
 3983 10e9 70020000 		.4byte	.LASF192
 3984 10ed 01       		.byte	0x1
 3985 10ee CA02     		.2byte	0x2ca
 3986 10f0 0C       		.byte	0xc
 3987 10f1 850A0000 		.4byte	0xa85
 3988 10f5 00       		.byte	0
 3989 10f6 31       		.uleb128 0x31
 3990 10f7 DF020000 		.4byte	.LASF196
 3991 10fb 01       		.byte	0x1
 3992 10fc 9C02     		.2byte	0x29c
 3993 10fe 13       		.byte	0x13
 3994 10ff 01       		.byte	0x1
 3995 1100 5E0A0000 		.4byte	0xa5e
 3996 1104 01       		.byte	0x1
 3997 1105 4B110000 		.4byte	0x114b
 3998 1109 32       		.uleb128 0x32
 3999 110a 93010000 		.4byte	.LASF163
 4000 110e 01       		.byte	0x1
 4001 110f 9C02     		.2byte	0x29c
 4002 1111 3F       		.byte	0x3f
 4003 1112 C10C0000 		.4byte	0xcc1
 4004 1116 32       		.uleb128 0x32
 4005 1117 7A0B0000 		.4byte	.LASF193
ARM GAS  C:\Users\skey\AppData\Local\Temp\cceKeKCB.s 			page 97


 4006 111b 01       		.byte	0x1
 4007 111c 9C02     		.2byte	0x29c
 4008 111e 59       		.byte	0x59
 4009 111f 910A0000 		.4byte	0xa91
 4010 1123 32       		.uleb128 0x32
 4011 1124 70020000 		.4byte	.LASF192
 4012 1128 01       		.byte	0x1
 4013 1129 9C02     		.2byte	0x29c
 4014 112b 7B       		.byte	0x7b
 4015 112c 910A0000 		.4byte	0xa91
 4016 1130 32       		.uleb128 0x32
 4017 1131 4F000000 		.4byte	.LASF194
 4018 1135 01       		.byte	0x1
 4019 1136 9C02     		.2byte	0x29c
 4020 1138 96       		.byte	0x96
 4021 1139 910A0000 		.4byte	0xa91
 4022 113d 2D       		.uleb128 0x2d
 4023 113e 1E000000 		.4byte	.LASF195
 4024 1142 01       		.byte	0x1
 4025 1143 9E02     		.2byte	0x29e
 4026 1145 0C       		.byte	0xc
 4027 1146 5E0A0000 		.4byte	0xa5e
 4028 114a 00       		.byte	0
 4029 114b 31       		.uleb128 0x31
 4030 114c 9F070000 		.4byte	.LASF197
 4031 1150 01       		.byte	0x1
 4032 1151 8502     		.2byte	0x285
 4033 1153 13       		.byte	0x13
 4034 1154 01       		.byte	0x1
 4035 1155 850A0000 		.4byte	0xa85
 4036 1159 01       		.byte	0x1
 4037 115a 8C110000 		.4byte	0x118c
 4038 115e 32       		.uleb128 0x32
 4039 115f 7E0A0000 		.4byte	.LASF198
 4040 1163 01       		.byte	0x1
 4041 1164 8502     		.2byte	0x285
 4042 1166 38       		.byte	0x38
 4043 1167 92110000 		.4byte	0x1192
 4044 116b 2D       		.uleb128 0x2d
 4045 116c 70020000 		.4byte	.LASF192
 4046 1170 01       		.byte	0x1
 4047 1171 8702     		.2byte	0x287
 4048 1173 0C       		.byte	0xc
 4049 1174 850A0000 		.4byte	0xa85
 4050 1178 33       		.uleb128 0x33
 4051 1179 1F0C0000 		.4byte	.LASF199
 4052 117d 01       		.byte	0x1
 4053 117e 8802     		.2byte	0x288
 4054 1180 23       		.byte	0x23
 4055 1181 850A0000 		.4byte	0xa85
 4056 1185 05       		.byte	0x5
 4057 1186 03       		.byte	0x3
 4058 1187 38000000 		.4byte	xLastTime.7797
 4059 118b 00       		.byte	0
 4060 118c 06       		.uleb128 0x6
 4061 118d 04       		.byte	0x4
 4062 118e 5E0A0000 		.4byte	0xa5e
ARM GAS  C:\Users\skey\AppData\Local\Temp\cceKeKCB.s 			page 98


 4063 1192 10       		.uleb128 0x10
 4064 1193 8C110000 		.4byte	0x118c
 4065 1197 31       		.uleb128 0x31
 4066 1198 F2090000 		.4byte	.LASF200
 4067 119c 01       		.byte	0x1
 4068 119d 6B02     		.2byte	0x26b
 4069 119f 13       		.byte	0x13
 4070 11a0 01       		.byte	0x1
 4071 11a1 850A0000 		.4byte	0xa85
 4072 11a5 01       		.byte	0x1
 4073 11a6 C5110000 		.4byte	0x11c5
 4074 11aa 32       		.uleb128 0x32
 4075 11ab FC010000 		.4byte	.LASF201
 4076 11af 01       		.byte	0x1
 4077 11b0 6B02     		.2byte	0x26b
 4078 11b2 3C       		.byte	0x3c
 4079 11b3 92110000 		.4byte	0x1192
 4080 11b7 2D       		.uleb128 0x2d
 4081 11b8 4A040000 		.4byte	.LASF186
 4082 11bc 01       		.byte	0x1
 4083 11bd 6D02     		.2byte	0x26d
 4084 11bf 0C       		.byte	0xc
 4085 11c0 850A0000 		.4byte	0xa85
 4086 11c4 00       		.byte	0
 4087 11c5 30       		.uleb128 0x30
 4088 11c6 84050000 		.4byte	.LASF203
 4089 11ca 01       		.byte	0x1
 4090 11cb 2F02     		.2byte	0x22f
 4091 11cd 0D       		.byte	0xd
 4092 11ce 01       		.byte	0x1
 4093 11cf 01       		.byte	0x1
 4094 11d0 09120000 		.4byte	0x1209
 4095 11d4 32       		.uleb128 0x32
 4096 11d5 4A040000 		.4byte	.LASF186
 4097 11d9 01       		.byte	0x1
 4098 11da 2F02     		.2byte	0x22f
 4099 11dc 3A       		.byte	0x3a
 4100 11dd 910A0000 		.4byte	0xa91
 4101 11e1 32       		.uleb128 0x32
 4102 11e2 290C0000 		.4byte	.LASF204
 4103 11e6 01       		.byte	0x1
 4104 11e7 2F02     		.2byte	0x22f
 4105 11e9 56       		.byte	0x56
 4106 11ea 5E0A0000 		.4byte	0xa5e
 4107 11ee 2D       		.uleb128 0x2d
 4108 11ef 70020000 		.4byte	.LASF192
 4109 11f3 01       		.byte	0x1
 4110 11f4 3102     		.2byte	0x231
 4111 11f6 0C       		.byte	0xc
 4112 11f7 850A0000 		.4byte	0xa85
 4113 11fb 2D       		.uleb128 0x2d
 4114 11fc 1B0B0000 		.4byte	.LASF191
 4115 1200 01       		.byte	0x1
 4116 1201 3202     		.2byte	0x232
 4117 1203 0C       		.byte	0xc
 4118 1204 5E0A0000 		.4byte	0xa5e
 4119 1208 00       		.byte	0
ARM GAS  C:\Users\skey\AppData\Local\Temp\cceKeKCB.s 			page 99


 4120 1209 2A       		.uleb128 0x2a
 4121 120a AE0A0000 		.4byte	.LASF205
 4122 120e 01       		.byte	0x1
 4123 120f 0B02     		.2byte	0x20b
 4124 1211 08       		.byte	0x8
 4125 1212 01       		.byte	0x1
 4126 1213 94010000 		.4byte	.LFB44
 4127 1217 44030000 		.4byte	.LFE44
 4128 121b 02030000 		.4byte	.LLST37
 4129 121f 01       		.byte	0x1
 4130 1220 60150000 		.4byte	0x1560
 4131 1224 24       		.uleb128 0x24
 4132 1225 3A0B0000 		.4byte	.LASF206
 4133 1229 01       		.byte	0x1
 4134 122a 0B02     		.2byte	0x20b
 4135 122c 08       		.byte	0x8
 4136 122d 3E010000 		.4byte	0x13e
 4137 1231 32030000 		.4byte	.LLST38
 4138 1235 2E030000 		.4byte	.LVUS38
 4139 1239 26       		.uleb128 0x26
 4140 123a 4A040000 		.4byte	.LASF186
 4141 123e 01       		.byte	0x1
 4142 123f 0D02     		.2byte	0x20d
 4143 1241 0C       		.byte	0xc
 4144 1242 850A0000 		.4byte	0xa85
 4145 1246 57030000 		.4byte	.LLST39
 4146 124a 53030000 		.4byte	.LVUS39
 4147 124e 26       		.uleb128 0x26
 4148 124f 290C0000 		.4byte	.LASF204
 4149 1253 01       		.byte	0x1
 4150 1254 0E02     		.2byte	0x20e
 4151 1256 0C       		.byte	0xc
 4152 1257 5E0A0000 		.4byte	0xa5e
 4153 125b 77030000 		.4byte	.LLST40
 4154 125f 75030000 		.4byte	.LVUS40
 4155 1263 34       		.uleb128 0x34
 4156 1264 97110000 		.4byte	0x1197
 4157 1268 A2010000 		.4byte	.LBI22
 4158 126c 05       		.byte	.LVU180
 4159 126d 00000000 		.4byte	.Ldebug_ranges0+0
 4160 1271 01       		.byte	0x1
 4161 1272 2302     		.2byte	0x223
 4162 1274 15       		.byte	0x15
 4163 1275 9A120000 		.4byte	0x129a
 4164 1279 35       		.uleb128 0x35
 4165 127a AA110000 		.4byte	0x11aa
 4166 127e 8F030000 		.4byte	.LLST41
 4167 1282 8B030000 		.4byte	.LVUS41
 4168 1286 36       		.uleb128 0x36
 4169 1287 00000000 		.4byte	.Ldebug_ranges0+0
 4170 128b 37       		.uleb128 0x37
 4171 128c B7110000 		.4byte	0x11b7
 4172 1290 B9030000 		.4byte	.LLST42
 4173 1294 B7030000 		.4byte	.LVUS42
 4174 1298 00       		.byte	0
 4175 1299 00       		.byte	0
 4176 129a 34       		.uleb128 0x34
ARM GAS  C:\Users\skey\AppData\Local\Temp\cceKeKCB.s 			page 100


 4177 129b C5110000 		.4byte	0x11c5
 4178 129f AE010000 		.4byte	.LBI26
 4179 12a3 03       		.byte	.LVU191
 4180 12a4 20000000 		.4byte	.Ldebug_ranges0+0x20
 4181 12a8 01       		.byte	0x1
 4182 12a9 2702     		.2byte	0x227
 4183 12ab 03       		.byte	0x3
 4184 12ac 29140000 		.4byte	0x1429
 4185 12b0 35       		.uleb128 0x35
 4186 12b1 E1110000 		.4byte	0x11e1
 4187 12b5 D4030000 		.4byte	.LLST43
 4188 12b9 CC030000 		.4byte	.LVUS43
 4189 12bd 35       		.uleb128 0x35
 4190 12be D4110000 		.4byte	0x11d4
 4191 12c2 0E040000 		.4byte	.LLST44
 4192 12c6 08040000 		.4byte	.LVUS44
 4193 12ca 36       		.uleb128 0x36
 4194 12cb 20000000 		.4byte	.Ldebug_ranges0+0x20
 4195 12cf 37       		.uleb128 0x37
 4196 12d0 EE110000 		.4byte	0x11ee
 4197 12d4 41040000 		.4byte	.LLST45
 4198 12d8 37040000 		.4byte	.LVUS45
 4199 12dc 37       		.uleb128 0x37
 4200 12dd FB110000 		.4byte	0x11fb
 4201 12e1 86040000 		.4byte	.LLST46
 4202 12e5 80040000 		.4byte	.LVUS46
 4203 12e9 34       		.uleb128 0x34
 4204 12ea 4B110000 		.4byte	0x114b
 4205 12ee B2010000 		.4byte	.LBI28
 4206 12f2 01       		.byte	.LVU196
 4207 12f3 48000000 		.4byte	.Ldebug_ranges0+0x48
 4208 12f7 01       		.byte	0x1
 4209 12f8 3B02     		.2byte	0x23b
 4210 12fa 0E       		.byte	0xe
 4211 12fb 32130000 		.4byte	0x1332
 4212 12ff 35       		.uleb128 0x35
 4213 1300 5E110000 		.4byte	0x115e
 4214 1304 B6040000 		.4byte	.LLST47
 4215 1308 B2040000 		.4byte	.LVUS47
 4216 130c 36       		.uleb128 0x36
 4217 130d 48000000 		.4byte	.Ldebug_ranges0+0x48
 4218 1311 37       		.uleb128 0x37
 4219 1312 6B110000 		.4byte	0x116b
 4220 1316 E4040000 		.4byte	.LLST48
 4221 131a DE040000 		.4byte	.LVUS48
 4222 131e 27       		.uleb128 0x27
 4223 131f B6010000 		.4byte	.LVL53
 4224 1323 121B0000 		.4byte	0x1b12
 4225 1327 27       		.uleb128 0x27
 4226 1328 F8010000 		.4byte	.LVL64
 4227 132c C70F0000 		.4byte	0xfc7
 4228 1330 00       		.byte	0
 4229 1331 00       		.byte	0
 4230 1332 38       		.uleb128 0x38
 4231 1333 60150000 		.4byte	0x1560
 4232 1337 0E020000 		.4byte	.LBI32
 4233 133b 01       		.byte	.LVU245
ARM GAS  C:\Users\skey\AppData\Local\Temp\cceKeKCB.s 			page 101


 4234 133c 0E020000 		.4byte	.LBB32
 4235 1340 5A020000 		.4byte	.LBE32
 4236 1344 01       		.byte	0x1
 4237 1345 4202     		.2byte	0x242
 4238 1347 05       		.byte	0x5
 4239 1348 E6130000 		.4byte	0x13e6
 4240 134c 35       		.uleb128 0x35
 4241 134d 7C150000 		.4byte	0x157c
 4242 1351 0F050000 		.4byte	.LLST49
 4243 1355 0D050000 		.4byte	.LVUS49
 4244 1359 35       		.uleb128 0x35
 4245 135a 6F150000 		.4byte	0x156f
 4246 135e 24050000 		.4byte	.LLST50
 4247 1362 22050000 		.4byte	.LVUS50
 4248 1366 39       		.uleb128 0x39
 4249 1367 89150000 		.4byte	0x1589
 4250 136b 37       		.uleb128 0x37
 4251 136c 96150000 		.4byte	0x1596
 4252 1370 39050000 		.4byte	.LLST51
 4253 1374 37050000 		.4byte	.LVUS51
 4254 1378 2B       		.uleb128 0x2b
 4255 1379 1E020000 		.4byte	.LVL71
 4256 137d F41A0000 		.4byte	0x1af4
 4257 1381 8C130000 		.4byte	0x138c
 4258 1385 2C       		.uleb128 0x2c
 4259 1386 01       		.byte	0x1
 4260 1387 50       		.byte	0x50
 4261 1388 02       		.byte	0x2
 4262 1389 79       		.byte	0x79
 4263 138a 04       		.sleb128 4
 4264 138b 00       		.byte	0
 4265 138c 2B       		.uleb128 0x2b
 4266 138d 36020000 		.4byte	.LVL72
 4267 1391 F6100000 		.4byte	0x10f6
 4268 1395 AC130000 		.4byte	0x13ac
 4269 1399 2C       		.uleb128 0x2c
 4270 139a 01       		.byte	0x1
 4271 139b 50       		.byte	0x50
 4272 139c 02       		.byte	0x2
 4273 139d 79       		.byte	0x79
 4274 139e 00       		.sleb128 0
 4275 139f 2C       		.uleb128 0x2c
 4276 13a0 01       		.byte	0x1
 4277 13a1 52       		.byte	0x52
 4278 13a2 02       		.byte	0x2
 4279 13a3 7A       		.byte	0x7a
 4280 13a4 00       		.sleb128 0
 4281 13a5 2C       		.uleb128 0x2c
 4282 13a6 01       		.byte	0x1
 4283 13a7 53       		.byte	0x53
 4284 13a8 02       		.byte	0x2
 4285 13a9 76       		.byte	0x76
 4286 13aa 00       		.sleb128 0
 4287 13ab 00       		.byte	0
 4288 13ac 2B       		.uleb128 0x2b
 4289 13ad 46020000 		.4byte	.LVL73
 4290 13b1 21170000 		.4byte	0x1721
ARM GAS  C:\Users\skey\AppData\Local\Temp\cceKeKCB.s 			page 102


 4291 13b5 D9130000 		.4byte	0x13d9
 4292 13b9 2C       		.uleb128 0x2c
 4293 13ba 01       		.byte	0x1
 4294 13bb 50       		.byte	0x50
 4295 13bc 02       		.byte	0x2
 4296 13bd 79       		.byte	0x79
 4297 13be 00       		.sleb128 0
 4298 13bf 2C       		.uleb128 0x2c
 4299 13c0 01       		.byte	0x1
 4300 13c1 51       		.byte	0x51
 4301 13c2 02       		.byte	0x2
 4302 13c3 74       		.byte	0x74
 4303 13c4 00       		.sleb128 0
 4304 13c5 2C       		.uleb128 0x2c
 4305 13c6 01       		.byte	0x1
 4306 13c7 52       		.byte	0x52
 4307 13c8 02       		.byte	0x2
 4308 13c9 76       		.byte	0x76
 4309 13ca 00       		.sleb128 0
 4310 13cb 2C       		.uleb128 0x2c
 4311 13cc 01       		.byte	0x1
 4312 13cd 53       		.byte	0x53
 4313 13ce 02       		.byte	0x2
 4314 13cf 74       		.byte	0x74
 4315 13d0 00       		.sleb128 0
 4316 13d1 2C       		.uleb128 0x2c
 4317 13d2 02       		.byte	0x2
 4318 13d3 7D       		.byte	0x7d
 4319 13d4 00       		.sleb128 0
 4320 13d5 02       		.byte	0x2
 4321 13d6 74       		.byte	0x74
 4322 13d7 00       		.sleb128 0
 4323 13d8 00       		.byte	0
 4324 13d9 3A       		.uleb128 0x3a
 4325 13da 4E020000 		.4byte	.LVL74
 4326 13de 2C       		.uleb128 0x2c
 4327 13df 01       		.byte	0x1
 4328 13e0 50       		.byte	0x50
 4329 13e1 02       		.byte	0x2
 4330 13e2 79       		.byte	0x79
 4331 13e3 00       		.sleb128 0
 4332 13e4 00       		.byte	0
 4333 13e5 00       		.byte	0
 4334 13e6 27       		.uleb128 0x27
 4335 13e7 B2010000 		.4byte	.LVL52
 4336 13eb 211B0000 		.4byte	0x1b21
 4337 13ef 2B       		.uleb128 0x2b
 4338 13f0 D8010000 		.4byte	.LVL60
 4339 13f4 301B0000 		.4byte	0x1b30
 4340 13f8 0C140000 		.4byte	0x140c
 4341 13fc 2C       		.uleb128 0x2c
 4342 13fd 01       		.byte	0x1
 4343 13fe 51       		.byte	0x51
 4344 13ff 05       		.byte	0x5
 4345 1400 76       		.byte	0x76
 4346 1401 00       		.sleb128 0
 4347 1402 7A       		.byte	0x7a
ARM GAS  C:\Users\skey\AppData\Local\Temp\cceKeKCB.s 			page 103


 4348 1403 00       		.sleb128 0
 4349 1404 1C       		.byte	0x1c
 4350 1405 2C       		.uleb128 0x2c
 4351 1406 01       		.byte	0x1
 4352 1407 52       		.byte	0x52
 4353 1408 02       		.byte	0x2
 4354 1409 74       		.byte	0x74
 4355 140a 00       		.sleb128 0
 4356 140b 00       		.byte	0
 4357 140c 27       		.uleb128 0x27
 4358 140d DC010000 		.4byte	.LVL61
 4359 1411 3F1B0000 		.4byte	0x1b3f
 4360 1415 27       		.uleb128 0x27
 4361 1416 00020000 		.4byte	.LVL66
 4362 141a 3F1B0000 		.4byte	0x1b3f
 4363 141e 27       		.uleb128 0x27
 4364 141f 0E020000 		.4byte	.LVL69
 4365 1423 3F1B0000 		.4byte	0x1b3f
 4366 1427 00       		.byte	0
 4367 1428 00       		.byte	0
 4368 1429 3B       		.uleb128 0x3b
 4369 142a A5100000 		.4byte	0x10a5
 4370 142e 60000000 		.4byte	.Ldebug_ranges0+0x60
 4371 1432 01       		.byte	0x1
 4372 1433 2A02     		.2byte	0x22a
 4373 1435 03       		.byte	0x3
 4374 1436 36       		.uleb128 0x36
 4375 1437 60000000 		.4byte	.Ldebug_ranges0+0x60
 4376 143b 3C       		.uleb128 0x3c
 4377 143c B4100000 		.4byte	0x10b4
 4378 1440 02       		.byte	0x2
 4379 1441 91       		.byte	0x91
 4380 1442 54       		.sleb128 -44
 4381 1443 37       		.uleb128 0x37
 4382 1444 C1100000 		.4byte	0x10c1
 4383 1448 50050000 		.4byte	.LLST52
 4384 144c 4C050000 		.4byte	.LVUS52
 4385 1450 39       		.uleb128 0x39
 4386 1451 CE100000 		.4byte	0x10ce
 4387 1455 39       		.uleb128 0x39
 4388 1456 DB100000 		.4byte	0x10db
 4389 145a 37       		.uleb128 0x37
 4390 145b E8100000 		.4byte	0x10e8
 4391 145f 74050000 		.4byte	.LLST53
 4392 1463 6E050000 		.4byte	.LVUS53
 4393 1467 38       		.uleb128 0x38
 4394 1468 4B110000 		.4byte	0x114b
 4395 146c BA020000 		.4byte	.LBI43
 4396 1470 03       		.byte	.LVU298
 4397 1471 BA020000 		.4byte	.LBB43
 4398 1475 CE020000 		.4byte	.LBE43
 4399 1479 01       		.byte	0x1
 4400 147a FE02     		.2byte	0x2fe
 4401 147c 0F       		.byte	0xf
 4402 147d AE140000 		.4byte	0x14ae
 4403 1481 35       		.uleb128 0x35
 4404 1482 5E110000 		.4byte	0x115e
ARM GAS  C:\Users\skey\AppData\Local\Temp\cceKeKCB.s 			page 104


 4405 1486 A3050000 		.4byte	.LLST54
 4406 148a A1050000 		.4byte	.LVUS54
 4407 148e 37       		.uleb128 0x37
 4408 148f 6B110000 		.4byte	0x116b
 4409 1493 BF050000 		.4byte	.LLST55
 4410 1497 BB050000 		.4byte	.LVUS55
 4411 149b 27       		.uleb128 0x27
 4412 149c BE020000 		.4byte	.LVL82
 4413 14a0 121B0000 		.4byte	0x1b12
 4414 14a4 27       		.uleb128 0x27
 4415 14a5 CA020000 		.4byte	.LVL84
 4416 14a9 C70F0000 		.4byte	0xfc7
 4417 14ad 00       		.byte	0
 4418 14ae 2B       		.uleb128 0x2b
 4419 14af 74020000 		.4byte	.LVL76
 4420 14b3 F6100000 		.4byte	0x10f6
 4421 14b7 C8140000 		.4byte	0x14c8
 4422 14bb 2C       		.uleb128 0x2c
 4423 14bc 01       		.byte	0x1
 4424 14bd 50       		.byte	0x50
 4425 14be 02       		.byte	0x2
 4426 14bf 74       		.byte	0x74
 4427 14c0 00       		.sleb128 0
 4428 14c1 2C       		.uleb128 0x2c
 4429 14c2 01       		.byte	0x1
 4430 14c3 52       		.byte	0x52
 4431 14c4 02       		.byte	0x2
 4432 14c5 76       		.byte	0x76
 4433 14c6 00       		.sleb128 0
 4434 14c7 00       		.byte	0
 4435 14c8 2E       		.uleb128 0x2e
 4436 14c9 7C020000 		.4byte	.LVL77
 4437 14cd D8140000 		.4byte	0x14d8
 4438 14d1 2C       		.uleb128 0x2c
 4439 14d2 01       		.byte	0x1
 4440 14d3 50       		.byte	0x50
 4441 14d4 02       		.byte	0x2
 4442 14d5 74       		.byte	0x74
 4443 14d6 00       		.sleb128 0
 4444 14d7 00       		.byte	0
 4445 14d8 2B       		.uleb128 0x2b
 4446 14d9 98020000 		.4byte	.LVL78
 4447 14dd 21170000 		.4byte	0x1721
 4448 14e1 FF140000 		.4byte	0x14ff
 4449 14e5 2C       		.uleb128 0x2c
 4450 14e6 01       		.byte	0x1
 4451 14e7 50       		.byte	0x50
 4452 14e8 02       		.byte	0x2
 4453 14e9 74       		.byte	0x74
 4454 14ea 00       		.sleb128 0
 4455 14eb 2C       		.uleb128 0x2c
 4456 14ec 01       		.byte	0x1
 4457 14ed 51       		.byte	0x51
 4458 14ee 02       		.byte	0x2
 4459 14ef 79       		.byte	0x79
 4460 14f0 00       		.sleb128 0
 4461 14f1 2C       		.uleb128 0x2c
ARM GAS  C:\Users\skey\AppData\Local\Temp\cceKeKCB.s 			page 105


 4462 14f2 01       		.byte	0x1
 4463 14f3 53       		.byte	0x53
 4464 14f4 02       		.byte	0x2
 4465 14f5 79       		.byte	0x79
 4466 14f6 00       		.sleb128 0
 4467 14f7 2C       		.uleb128 0x2c
 4468 14f8 02       		.byte	0x2
 4469 14f9 7D       		.byte	0x7d
 4470 14fa 00       		.sleb128 0
 4471 14fb 02       		.byte	0x2
 4472 14fc 79       		.byte	0x79
 4473 14fd 00       		.sleb128 0
 4474 14fe 00       		.byte	0
 4475 14ff 2B       		.uleb128 0x2b
 4476 1500 A2020000 		.4byte	.LVL79
 4477 1504 4E1B0000 		.4byte	0x1b4e
 4478 1508 19150000 		.4byte	0x1519
 4479 150c 2C       		.uleb128 0x2c
 4480 150d 01       		.byte	0x1
 4481 150e 51       		.byte	0x51
 4482 150f 02       		.byte	0x2
 4483 1510 91       		.byte	0x91
 4484 1511 54       		.sleb128 -44
 4485 1512 2C       		.uleb128 0x2c
 4486 1513 01       		.byte	0x1
 4487 1514 52       		.byte	0x52
 4488 1515 02       		.byte	0x2
 4489 1516 79       		.byte	0x79
 4490 1517 00       		.sleb128 0
 4491 1518 00       		.byte	0
 4492 1519 2B       		.uleb128 0x2b
 4493 151a BA020000 		.4byte	.LVL81
 4494 151e F41A0000 		.4byte	0x1af4
 4495 1522 2D150000 		.4byte	0x152d
 4496 1526 2C       		.uleb128 0x2c
 4497 1527 01       		.byte	0x1
 4498 1528 50       		.byte	0x50
 4499 1529 02       		.byte	0x2
 4500 152a 74       		.byte	0x74
 4501 152b 04       		.sleb128 4
 4502 152c 00       		.byte	0
 4503 152d 2B       		.uleb128 0x2b
 4504 152e 2A030000 		.4byte	.LVL87
 4505 1532 F6100000 		.4byte	0x10f6
 4506 1536 4D150000 		.4byte	0x154d
 4507 153a 2C       		.uleb128 0x2c
 4508 153b 01       		.byte	0x1
 4509 153c 50       		.byte	0x50
 4510 153d 02       		.byte	0x2
 4511 153e 74       		.byte	0x74
 4512 153f 00       		.sleb128 0
 4513 1540 2C       		.uleb128 0x2c
 4514 1541 01       		.byte	0x1
 4515 1542 52       		.byte	0x52
 4516 1543 02       		.byte	0x2
 4517 1544 76       		.byte	0x76
 4518 1545 00       		.sleb128 0
ARM GAS  C:\Users\skey\AppData\Local\Temp\cceKeKCB.s 			page 106


 4519 1546 2C       		.uleb128 0x2c
 4520 1547 01       		.byte	0x1
 4521 1548 53       		.byte	0x53
 4522 1549 02       		.byte	0x2
 4523 154a 76       		.byte	0x76
 4524 154b 00       		.sleb128 0
 4525 154c 00       		.byte	0
 4526 154d 2F       		.uleb128 0x2f
 4527 154e 3A030000 		.4byte	.LVL88
 4528 1552 5D1B0000 		.4byte	0x1b5d
 4529 1556 2C       		.uleb128 0x2c
 4530 1557 01       		.byte	0x1
 4531 1558 50       		.byte	0x50
 4532 1559 02       		.byte	0x2
 4533 155a 74       		.byte	0x74
 4534 155b 00       		.sleb128 0
 4535 155c 00       		.byte	0
 4536 155d 00       		.byte	0
 4537 155e 00       		.byte	0
 4538 155f 00       		.byte	0
 4539 1560 30       		.uleb128 0x30
 4540 1561 79020000 		.4byte	.LASF207
 4541 1565 01       		.byte	0x1
 4542 1566 E201     		.2byte	0x1e2
 4543 1568 0D       		.byte	0xd
 4544 1569 01       		.byte	0x1
 4545 156a 01       		.byte	0x1
 4546 156b A4150000 		.4byte	0x15a4
 4547 156f 32       		.uleb128 0x32
 4548 1570 4A040000 		.4byte	.LASF186
 4549 1574 01       		.byte	0x1
 4550 1575 E201     		.2byte	0x1e2
 4551 1577 36       		.byte	0x36
 4552 1578 910A0000 		.4byte	0xa91
 4553 157c 32       		.uleb128 0x32
 4554 157d 70020000 		.4byte	.LASF192
 4555 1581 01       		.byte	0x1
 4556 1582 E201     		.2byte	0x1e2
 4557 1584 58       		.byte	0x58
 4558 1585 910A0000 		.4byte	0xa91
 4559 1589 2D       		.uleb128 0x2d
 4560 158a 31070000 		.4byte	.LASF189
 4561 158e 01       		.byte	0x1
 4562 158f E401     		.2byte	0x1e4
 4563 1591 0C       		.byte	0xc
 4564 1592 5E0A0000 		.4byte	0xa5e
 4565 1596 2D       		.uleb128 0x2d
 4566 1597 93010000 		.4byte	.LASF163
 4567 159b 01       		.byte	0x1
 4568 159c E501     		.2byte	0x1e5
 4569 159e 11       		.byte	0x11
 4570 159f C10C0000 		.4byte	0xcc1
 4571 15a3 00       		.byte	0
 4572 15a4 23       		.uleb128 0x23
 4573 15a5 01       		.byte	0x1
 4574 15a6 51010000 		.4byte	.LASF208
 4575 15aa 01       		.byte	0x1
ARM GAS  C:\Users\skey\AppData\Local\Temp\cceKeKCB.s 			page 107


 4576 15ab D901     		.2byte	0x1d9
 4577 15ad 0E       		.byte	0xe
 4578 15ae 01       		.byte	0x1
 4579 15af A5060000 		.4byte	0x6a5
 4580 15b3 7E030000 		.4byte	.LFB42
 4581 15b7 82030000 		.4byte	.LFE42
 4582 15bb 02       		.byte	0x2
 4583 15bc 7D       		.byte	0x7d
 4584 15bd 00       		.sleb128 0
 4585 15be 01       		.byte	0x1
 4586 15bf EE150000 		.4byte	0x15ee
 4587 15c3 24       		.uleb128 0x24
 4588 15c4 5B020000 		.4byte	.LASF175
 4589 15c8 01       		.byte	0x1
 4590 15c9 D901     		.2byte	0x1d9
 4591 15cb 2C       		.byte	0x2c
 4592 15cc CB0B0000 		.4byte	0xbcb
 4593 15d0 E1050000 		.4byte	.LLST65
 4594 15d4 DD050000 		.4byte	.LVUS65
 4595 15d8 26       		.uleb128 0x26
 4596 15d9 93010000 		.4byte	.LASF163
 4597 15dd 01       		.byte	0x1
 4598 15de DB01     		.2byte	0x1db
 4599 15e0 0A       		.byte	0xa
 4600 15e1 BB0C0000 		.4byte	0xcbb
 4601 15e5 06060000 		.4byte	.LLST66
 4602 15e9 02060000 		.4byte	.LVUS66
 4603 15ed 00       		.byte	0
 4604 15ee 23       		.uleb128 0x23
 4605 15ef 01       		.byte	0x1
 4606 15f0 47020000 		.4byte	.LASF209
 4607 15f4 01       		.byte	0x1
 4608 15f5 CE01     		.2byte	0x1ce
 4609 15f7 0C       		.byte	0xc
 4610 15f8 01       		.byte	0x1
 4611 15f9 850A0000 		.4byte	0xa85
 4612 15fd 7A030000 		.4byte	.LFB41
 4613 1601 7E030000 		.4byte	.LFE41
 4614 1605 02       		.byte	0x2
 4615 1606 7D       		.byte	0x7d
 4616 1607 00       		.sleb128 0
 4617 1608 01       		.byte	0x1
 4618 1609 4D160000 		.4byte	0x164d
 4619 160d 24       		.uleb128 0x24
 4620 160e 5B020000 		.4byte	.LASF175
 4621 1612 01       		.byte	0x1
 4622 1613 CE01     		.2byte	0x1ce
 4623 1615 2F       		.byte	0x2f
 4624 1616 CB0B0000 		.4byte	0xbcb
 4625 161a 2B060000 		.4byte	.LLST62
 4626 161e 27060000 		.4byte	.LVUS62
 4627 1622 26       		.uleb128 0x26
 4628 1623 93010000 		.4byte	.LASF163
 4629 1627 01       		.byte	0x1
 4630 1628 D001     		.2byte	0x1d0
 4631 162a 0B       		.byte	0xb
 4632 162b BB0C0000 		.4byte	0xcbb
ARM GAS  C:\Users\skey\AppData\Local\Temp\cceKeKCB.s 			page 108


 4633 162f 50060000 		.4byte	.LLST63
 4634 1633 4C060000 		.4byte	.LVUS63
 4635 1637 26       		.uleb128 0x26
 4636 1638 90020000 		.4byte	.LASF183
 4637 163c 01       		.byte	0x1
 4638 163d D101     		.2byte	0x1d1
 4639 163f 0C       		.byte	0xc
 4640 1640 850A0000 		.4byte	0xa85
 4641 1644 75060000 		.4byte	.LLST64
 4642 1648 71060000 		.4byte	.LVUS64
 4643 164c 00       		.byte	0
 4644 164d 25       		.uleb128 0x25
 4645 164e 01       		.byte	0x1
 4646 164f 69000000 		.4byte	.LASF210
 4647 1653 01       		.byte	0x1
 4648 1654 BA01     		.2byte	0x1ba
 4649 1656 06       		.byte	0x6
 4650 1657 01       		.byte	0x1
 4651 1658 54030000 		.4byte	.LFB40
 4652 165c 7A030000 		.4byte	.LFE40
 4653 1660 94060000 		.4byte	.LLST58
 4654 1664 01       		.byte	0x1
 4655 1665 BC160000 		.4byte	0x16bc
 4656 1669 24       		.uleb128 0x24
 4657 166a 5B020000 		.4byte	.LASF175
 4658 166e 01       		.byte	0x1
 4659 166f BA01     		.2byte	0x1ba
 4660 1671 29       		.byte	0x29
 4661 1672 CB0B0000 		.4byte	0xbcb
 4662 1676 D4060000 		.4byte	.LLST59
 4663 167a CC060000 		.4byte	.LVUS59
 4664 167e 24       		.uleb128 0x24
 4665 167f 6B080000 		.4byte	.LASF211
 4666 1683 01       		.byte	0x1
 4667 1684 BA01     		.2byte	0x1ba
 4668 1686 43       		.byte	0x43
 4669 1687 800A0000 		.4byte	0xa80
 4670 168b 13070000 		.4byte	.LLST60
 4671 168f 0B070000 		.4byte	.LVUS60
 4672 1693 26       		.uleb128 0x26
 4673 1694 93010000 		.4byte	.LASF163
 4674 1698 01       		.byte	0x1
 4675 1699 BC01     		.2byte	0x1bc
 4676 169b 0B       		.byte	0xb
 4677 169c BB0C0000 		.4byte	0xcbb
 4678 16a0 52070000 		.4byte	.LLST61
 4679 16a4 4A070000 		.4byte	.LVUS61
 4680 16a8 27       		.uleb128 0x27
 4681 16a9 5E030000 		.4byte	.LVL93
 4682 16ad BA1A0000 		.4byte	0x1aba
 4683 16b1 28       		.uleb128 0x28
 4684 16b2 74030000 		.4byte	.LVL95
 4685 16b6 01       		.byte	0x1
 4686 16b7 C81A0000 		.4byte	0x1ac8
 4687 16bb 00       		.byte	0
 4688 16bc 23       		.uleb128 0x23
 4689 16bd 01       		.byte	0x1
ARM GAS  C:\Users\skey\AppData\Local\Temp\cceKeKCB.s 			page 109


 4690 16be FB070000 		.4byte	.LASF212
 4691 16c2 01       		.byte	0x1
 4692 16c3 B101     		.2byte	0x1b1
 4693 16c5 0C       		.byte	0xc
 4694 16c6 01       		.byte	0x1
 4695 16c7 850A0000 		.4byte	0xa85
 4696 16cb 50030000 		.4byte	.LFB39
 4697 16cf 54030000 		.4byte	.LFE39
 4698 16d3 02       		.byte	0x2
 4699 16d4 7D       		.byte	0x7d
 4700 16d5 00       		.sleb128 0
 4701 16d6 01       		.byte	0x1
 4702 16d7 06170000 		.4byte	0x1706
 4703 16db 24       		.uleb128 0x24
 4704 16dc 5B020000 		.4byte	.LASF175
 4705 16e0 01       		.byte	0x1
 4706 16e1 B101     		.2byte	0x1b1
 4707 16e3 2B       		.byte	0x2b
 4708 16e4 CB0B0000 		.4byte	0xbcb
 4709 16e8 8D070000 		.4byte	.LLST56
 4710 16ec 89070000 		.4byte	.LVUS56
 4711 16f0 26       		.uleb128 0x26
 4712 16f1 93010000 		.4byte	.LASF163
 4713 16f5 01       		.byte	0x1
 4714 16f6 B301     		.2byte	0x1b3
 4715 16f8 0A       		.byte	0xa
 4716 16f9 BB0C0000 		.4byte	0xcbb
 4717 16fd B2070000 		.4byte	.LLST57
 4718 1701 AE070000 		.4byte	.LVUS57
 4719 1705 00       		.byte	0
 4720 1706 3D       		.uleb128 0x3d
 4721 1707 01       		.byte	0x1
 4722 1708 3B080000 		.4byte	.LASF243
 4723 170c 01       		.byte	0x1
 4724 170d A801     		.2byte	0x1a8
 4725 170f 0E       		.byte	0xe
 4726 1710 01       		.byte	0x1
 4727 1711 9B0B0000 		.4byte	0xb9b
 4728 1715 44030000 		.4byte	.LFB38
 4729 1719 50030000 		.4byte	.LFE38
 4730 171d 02       		.byte	0x2
 4731 171e 7D       		.byte	0x7d
 4732 171f 00       		.sleb128 0
 4733 1720 01       		.byte	0x1
 4734 1721 29       		.uleb128 0x29
 4735 1722 01       		.byte	0x1
 4736 1723 90080000 		.4byte	.LASF213
 4737 1727 01       		.byte	0x1
 4738 1728 7D01     		.2byte	0x17d
 4739 172a 0C       		.byte	0xc
 4740 172b 01       		.byte	0x1
 4741 172c 5E0A0000 		.4byte	0xa5e
 4742 1730 EE000000 		.4byte	.LFB37
 4743 1734 30010000 		.4byte	.LFE37
 4744 1738 D3070000 		.4byte	.LLST25
 4745 173c 01       		.byte	0x1
 4746 173d 07180000 		.4byte	0x1807
ARM GAS  C:\Users\skey\AppData\Local\Temp\cceKeKCB.s 			page 110


 4747 1741 24       		.uleb128 0x24
 4748 1742 5B020000 		.4byte	.LASF175
 4749 1746 01       		.byte	0x1
 4750 1747 7D01     		.2byte	0x17d
 4751 1749 30       		.byte	0x30
 4752 174a CB0B0000 		.4byte	0xbcb
 4753 174e 0F080000 		.4byte	.LLST26
 4754 1752 0B080000 		.4byte	.LVUS26
 4755 1756 24       		.uleb128 0x24
 4756 1757 D9080000 		.4byte	.LASF214
 4757 175b 01       		.byte	0x1
 4758 175c 7D01     		.2byte	0x17d
 4759 175e 49       		.byte	0x49
 4760 175f 6A0A0000 		.4byte	0xa6a
 4761 1763 37080000 		.4byte	.LLST27
 4762 1767 2D080000 		.4byte	.LVUS27
 4763 176b 24       		.uleb128 0x24
 4764 176c C8030000 		.4byte	.LASF215
 4765 1770 01       		.byte	0x1
 4766 1771 7D01     		.2byte	0x17d
 4767 1773 66       		.byte	0x66
 4768 1774 910A0000 		.4byte	0xa91
 4769 1778 81080000 		.4byte	.LLST28
 4770 177c 7D080000 		.4byte	.LVUS28
 4771 1780 24       		.uleb128 0x24
 4772 1781 4E0A0000 		.4byte	.LASF216
 4773 1785 01       		.byte	0x1
 4774 1786 7D01     		.2byte	0x17d
 4775 1788 89       		.byte	0x89
 4776 1789 92110000 		.4byte	0x1192
 4777 178d A7080000 		.4byte	.LLST29
 4778 1791 9F080000 		.4byte	.LVUS29
 4779 1795 24       		.uleb128 0x24
 4780 1796 0B080000 		.4byte	.LASF217
 4781 179a 01       		.byte	0x1
 4782 179b 7D01     		.2byte	0x17d
 4783 179d B5       		.byte	0xb5
 4784 179e 910A0000 		.4byte	0xa91
 4785 17a2 E5080000 		.4byte	.LLST30
 4786 17a6 E1080000 		.4byte	.LVUS30
 4787 17aa 26       		.uleb128 0x26
 4788 17ab 90020000 		.4byte	.LASF183
 4789 17af 01       		.byte	0x1
 4790 17b0 7F01     		.2byte	0x17f
 4791 17b2 0C       		.byte	0xc
 4792 17b3 5E0A0000 		.4byte	0xa5e
 4793 17b7 0B090000 		.4byte	.LLST31
 4794 17bb 05090000 		.4byte	.LVUS31
 4795 17bf 33       		.uleb128 0x33
 4796 17c0 28060000 		.4byte	.LASF190
 4797 17c4 01       		.byte	0x1
 4798 17c5 8001     		.2byte	0x180
 4799 17c7 15       		.byte	0x15
 4800 17c8 120D0000 		.4byte	0xd12
 4801 17cc 02       		.byte	0x2
 4802 17cd 91       		.byte	0x91
 4803 17ce 64       		.sleb128 -28
ARM GAS  C:\Users\skey\AppData\Local\Temp\cceKeKCB.s 			page 111


 4804 17cf 27       		.uleb128 0x27
 4805 17d0 0A010000 		.4byte	.LVL32
 4806 17d4 6B1B0000 		.4byte	0x1b6b
 4807 17d8 2B       		.uleb128 0x2b
 4808 17d9 1C010000 		.4byte	.LVL33
 4809 17dd 7A1B0000 		.4byte	0x1b7a
 4810 17e1 F1170000 		.4byte	0x17f1
 4811 17e5 2C       		.uleb128 0x2c
 4812 17e6 01       		.byte	0x1
 4813 17e7 51       		.byte	0x51
 4814 17e8 02       		.byte	0x2
 4815 17e9 91       		.byte	0x91
 4816 17ea 64       		.sleb128 -28
 4817 17eb 2C       		.uleb128 0x2c
 4818 17ec 01       		.byte	0x1
 4819 17ed 53       		.byte	0x53
 4820 17ee 01       		.byte	0x1
 4821 17ef 30       		.byte	0x30
 4822 17f0 00       		.byte	0
 4823 17f1 2F       		.uleb128 0x2f
 4824 17f2 28010000 		.4byte	.LVL36
 4825 17f6 891B0000 		.4byte	0x1b89
 4826 17fa 2C       		.uleb128 0x2c
 4827 17fb 01       		.byte	0x1
 4828 17fc 51       		.byte	0x51
 4829 17fd 02       		.byte	0x2
 4830 17fe 91       		.byte	0x91
 4831 17ff 64       		.sleb128 -28
 4832 1800 2C       		.uleb128 0x2c
 4833 1801 01       		.byte	0x1
 4834 1802 53       		.byte	0x53
 4835 1803 01       		.byte	0x1
 4836 1804 30       		.byte	0x30
 4837 1805 00       		.byte	0
 4838 1806 00       		.byte	0
 4839 1807 30       		.uleb128 0x30
 4840 1808 C70B0000 		.4byte	.LASF218
 4841 180c 01       		.byte	0x1
 4842 180d 5D01     		.2byte	0x15d
 4843 180f 0D       		.byte	0xd
 4844 1810 01       		.byte	0x1
 4845 1811 01       		.byte	0x1
 4846 1812 65180000 		.4byte	0x1865
 4847 1816 32       		.uleb128 0x32
 4848 1817 21010000 		.4byte	.LASF151
 4849 181b 01       		.byte	0x1
 4850 181c 5D01     		.2byte	0x15d
 4851 181e 37       		.byte	0x37
 4852 181f AB060000 		.4byte	0x6ab
 4853 1823 32       		.uleb128 0x32
 4854 1824 D7030000 		.4byte	.LASF153
 4855 1828 01       		.byte	0x1
 4856 1829 5E01     		.2byte	0x15e
 4857 182b 1B       		.byte	0x1b
 4858 182c 910A0000 		.4byte	0xa91
 4859 1830 32       		.uleb128 0x32
 4860 1831 6B080000 		.4byte	.LASF211
ARM GAS  C:\Users\skey\AppData\Local\Temp\cceKeKCB.s 			page 112


 4861 1835 01       		.byte	0x1
 4862 1836 5F01     		.2byte	0x15f
 4863 1838 1C       		.byte	0x1c
 4864 1839 800A0000 		.4byte	0xa80
 4865 183d 32       		.uleb128 0x32
 4866 183e 9F090000 		.4byte	.LASF154
 4867 1842 01       		.byte	0x1
 4868 1843 6001     		.2byte	0x160
 4869 1845 17       		.byte	0x17
 4870 1846 40010000 		.4byte	0x140
 4871 184a 32       		.uleb128 0x32
 4872 184b BA050000 		.4byte	.LASF155
 4873 184f 01       		.byte	0x1
 4874 1850 6101     		.2byte	0x161
 4875 1852 22       		.byte	0x22
 4876 1853 590C0000 		.4byte	0xc59
 4877 1857 32       		.uleb128 0x32
 4878 1858 CE060000 		.4byte	.LASF219
 4879 185c 01       		.byte	0x1
 4880 185d 6201     		.2byte	0x162
 4881 185f 13       		.byte	0x13
 4882 1860 BB0C0000 		.4byte	0xcbb
 4883 1864 00       		.byte	0
 4884 1865 29       		.uleb128 0x29
 4885 1866 01       		.byte	0x1
 4886 1867 A0060000 		.4byte	.LASF220
 4887 186b 01       		.byte	0x1
 4888 186c 1A01     		.2byte	0x11a
 4889 186e 10       		.byte	0x10
 4890 186f 01       		.byte	0x1
 4891 1870 CB0B0000 		.4byte	0xbcb
 4892 1874 A8000000 		.4byte	.LFB35
 4893 1878 EE000000 		.4byte	.LFE35
 4894 187c 36090000 		.4byte	.LLST13
 4895 1880 01       		.byte	0x1
 4896 1881 91190000 		.4byte	0x1991
 4897 1885 24       		.uleb128 0x24
 4898 1886 21010000 		.4byte	.LASF151
 4899 188a 01       		.byte	0x1
 4900 188b 1A01     		.2byte	0x11a
 4901 188d 31       		.byte	0x31
 4902 188e AB060000 		.4byte	0x6ab
 4903 1892 5A090000 		.4byte	.LLST14
 4904 1896 56090000 		.4byte	.LVUS14
 4905 189a 24       		.uleb128 0x24
 4906 189b D7030000 		.4byte	.LASF153
 4907 189f 01       		.byte	0x1
 4908 18a0 1B01     		.2byte	0x11b
 4909 18a2 1A       		.byte	0x1a
 4910 18a3 910A0000 		.4byte	0xa91
 4911 18a7 7C090000 		.4byte	.LLST15
 4912 18ab 78090000 		.4byte	.LVUS15
 4913 18af 24       		.uleb128 0x24
 4914 18b0 6B080000 		.4byte	.LASF211
 4915 18b4 01       		.byte	0x1
 4916 18b5 1C01     		.2byte	0x11c
 4917 18b7 1B       		.byte	0x1b
ARM GAS  C:\Users\skey\AppData\Local\Temp\cceKeKCB.s 			page 113


 4918 18b8 800A0000 		.4byte	0xa80
 4919 18bc 9E090000 		.4byte	.LLST16
 4920 18c0 9A090000 		.4byte	.LVUS16
 4921 18c4 24       		.uleb128 0x24
 4922 18c5 9F090000 		.4byte	.LASF154
 4923 18c9 01       		.byte	0x1
 4924 18ca 1D01     		.2byte	0x11d
 4925 18cc 16       		.byte	0x16
 4926 18cd 40010000 		.4byte	0x140
 4927 18d1 C0090000 		.4byte	.LLST17
 4928 18d5 BC090000 		.4byte	.LVUS17
 4929 18d9 22       		.uleb128 0x22
 4930 18da BA050000 		.4byte	.LASF155
 4931 18de 01       		.byte	0x1
 4932 18df 1E01     		.2byte	0x11e
 4933 18e1 21       		.byte	0x21
 4934 18e2 590C0000 		.4byte	0xc59
 4935 18e6 02       		.byte	0x2
 4936 18e7 91       		.byte	0x91
 4937 18e8 00       		.sleb128 0
 4938 18e9 26       		.uleb128 0x26
 4939 18ea CE060000 		.4byte	.LASF219
 4940 18ee 01       		.byte	0x1
 4941 18ef 2001     		.2byte	0x120
 4942 18f1 0B       		.byte	0xb
 4943 18f2 BB0C0000 		.4byte	0xcbb
 4944 18f6 E2090000 		.4byte	.LLST18
 4945 18fa DE090000 		.4byte	.LVUS18
 4946 18fe 38       		.uleb128 0x38
 4947 18ff 07180000 		.4byte	0x1807
 4948 1903 C4000000 		.4byte	.LBI8
 4949 1907 01       		.byte	.LVU75
 4950 1908 C4000000 		.4byte	.LBB8
 4951 190c E8000000 		.4byte	.LBE8
 4952 1910 01       		.byte	0x1
 4953 1911 2A01     		.2byte	0x12a
 4954 1913 04       		.byte	0x4
 4955 1914 80190000 		.4byte	0x1980
 4956 1918 35       		.uleb128 0x35
 4957 1919 57180000 		.4byte	0x1857
 4958 191d 040A0000 		.4byte	.LLST19
 4959 1921 000A0000 		.4byte	.LVUS19
 4960 1925 35       		.uleb128 0x35
 4961 1926 4A180000 		.4byte	0x184a
 4962 192a 240A0000 		.4byte	.LLST20
 4963 192e 220A0000 		.4byte	.LVUS20
 4964 1932 35       		.uleb128 0x35
 4965 1933 3D180000 		.4byte	0x183d
 4966 1937 3A0A0000 		.4byte	.LLST21
 4967 193b 380A0000 		.4byte	.LVUS21
 4968 193f 35       		.uleb128 0x35
 4969 1940 30180000 		.4byte	0x1830
 4970 1944 4F0A0000 		.4byte	.LLST22
 4971 1948 4D0A0000 		.4byte	.LVUS22
 4972 194c 35       		.uleb128 0x35
 4973 194d 23180000 		.4byte	0x1823
 4974 1951 640A0000 		.4byte	.LLST23
ARM GAS  C:\Users\skey\AppData\Local\Temp\cceKeKCB.s 			page 114


 4975 1955 620A0000 		.4byte	.LVUS23
 4976 1959 35       		.uleb128 0x35
 4977 195a 16180000 		.4byte	0x1816
 4978 195e 790A0000 		.4byte	.LLST24
 4979 1962 770A0000 		.4byte	.LVUS24
 4980 1966 27       		.uleb128 0x27
 4981 1967 C8000000 		.4byte	.LVL26
 4982 196b 520F0000 		.4byte	0xf52
 4983 196f 2F       		.uleb128 0x2f
 4984 1970 DA000000 		.4byte	.LVL27
 4985 1974 981B0000 		.4byte	0x1b98
 4986 1978 2C       		.uleb128 0x2c
 4987 1979 01       		.byte	0x1
 4988 197a 50       		.byte	0x50
 4989 197b 02       		.byte	0x2
 4990 197c 74       		.byte	0x74
 4991 197d 04       		.sleb128 4
 4992 197e 00       		.byte	0
 4993 197f 00       		.byte	0
 4994 1980 2F       		.uleb128 0x2f
 4995 1981 BA000000 		.4byte	.LVL24
 4996 1985 A71B0000 		.4byte	0x1ba7
 4997 1989 2C       		.uleb128 0x2c
 4998 198a 01       		.byte	0x1
 4999 198b 50       		.byte	0x50
 5000 198c 02       		.byte	0x2
 5001 198d 08       		.byte	0x8
 5002 198e 2C       		.byte	0x2c
 5003 198f 00       		.byte	0
 5004 1990 00       		.byte	0
 5005 1991 3E       		.uleb128 0x3e
 5006 1992 01       		.byte	0x1
 5007 1993 680A0000 		.4byte	.LASF221
 5008 1997 01       		.byte	0x1
 5009 1998 E3       		.byte	0xe3
 5010 1999 0C       		.byte	0xc
 5011 199a 01       		.byte	0x1
 5012 199b 5E0A0000 		.4byte	0xa5e
 5013 199f 74000000 		.4byte	.LFB34
 5014 19a3 A8000000 		.4byte	.LFE34
 5015 19a7 8C0A0000 		.4byte	.LLST11
 5016 19ab 01       		.byte	0x1
 5017 19ac 051A0000 		.4byte	0x1a05
 5018 19b0 3F       		.uleb128 0x3f
 5019 19b1 90020000 		.4byte	.LASF183
 5020 19b5 01       		.byte	0x1
 5021 19b6 E5       		.byte	0xe5
 5022 19b7 0C       		.byte	0xc
 5023 19b8 5E0A0000 		.4byte	0xa5e
 5024 19bc BA0A0000 		.4byte	.LLST12
 5025 19c0 B80A0000 		.4byte	.LVUS12
 5026 19c4 27       		.uleb128 0x27
 5027 19c5 7A000000 		.4byte	.LVL20
 5028 19c9 520F0000 		.4byte	0xf52
 5029 19cd 2F       		.uleb128 0x2f
 5030 19ce 94000000 		.4byte	.LVL21
 5031 19d2 B51B0000 		.4byte	0x1bb5
ARM GAS  C:\Users\skey\AppData\Local\Temp\cceKeKCB.s 			page 115


 5032 19d6 2C       		.uleb128 0x2c
 5033 19d7 01       		.byte	0x1
 5034 19d8 50       		.byte	0x50
 5035 19d9 05       		.byte	0x5
 5036 19da 03       		.byte	0x3
 5037 19db 00000000 		.4byte	prvTimerTask
 5038 19df 2C       		.uleb128 0x2c
 5039 19e0 01       		.byte	0x1
 5040 19e1 51       		.byte	0x51
 5041 19e2 05       		.byte	0x5
 5042 19e3 03       		.byte	0x3
 5043 19e4 00000000 		.4byte	.LC0
 5044 19e8 2C       		.uleb128 0x2c
 5045 19e9 01       		.byte	0x1
 5046 19ea 52       		.byte	0x52
 5047 19eb 02       		.byte	0x2
 5048 19ec 08       		.byte	0x8
 5049 19ed F0       		.byte	0xf0
 5050 19ee 2C       		.uleb128 0x2c
 5051 19ef 01       		.byte	0x1
 5052 19f0 53       		.byte	0x53
 5053 19f1 01       		.byte	0x1
 5054 19f2 30       		.byte	0x30
 5055 19f3 2C       		.uleb128 0x2c
 5056 19f4 02       		.byte	0x2
 5057 19f5 7D       		.byte	0x7d
 5058 19f6 00       		.sleb128 0
 5059 19f7 01       		.byte	0x1
 5060 19f8 31       		.byte	0x31
 5061 19f9 2C       		.uleb128 0x2c
 5062 19fa 02       		.byte	0x2
 5063 19fb 7D       		.byte	0x7d
 5064 19fc 04       		.sleb128 4
 5065 19fd 05       		.byte	0x5
 5066 19fe 03       		.byte	0x3
 5067 19ff 34000000 		.4byte	.LANCHOR0+52
 5068 1a03 00       		.byte	0
 5069 1a04 00       		.byte	0
 5070 1a05 40       		.uleb128 0x40
 5071 1a06 F6100000 		.4byte	0x10f6
 5072 1a0a 3C000000 		.4byte	.LFB48
 5073 1a0e 74000000 		.4byte	.LFE48
 5074 1a12 CE0A0000 		.4byte	.LLST1
 5075 1a16 01       		.byte	0x1
 5076 1a17 BA1A0000 		.4byte	0x1aba
 5077 1a1b 35       		.uleb128 0x35
 5078 1a1c 09110000 		.4byte	0x1109
 5079 1a20 FA0A0000 		.4byte	.LLST2
 5080 1a24 EE0A0000 		.4byte	.LVUS2
 5081 1a28 35       		.uleb128 0x35
 5082 1a29 16110000 		.4byte	0x1116
 5083 1a2d 5C0B0000 		.4byte	.LLST3
 5084 1a31 4C0B0000 		.4byte	.LVUS3
 5085 1a35 35       		.uleb128 0x35
 5086 1a36 23110000 		.4byte	0x1123
 5087 1a3a CE0B0000 		.4byte	.LLST4
 5088 1a3e C60B0000 		.4byte	.LVUS4
ARM GAS  C:\Users\skey\AppData\Local\Temp\cceKeKCB.s 			page 116


 5089 1a42 35       		.uleb128 0x35
 5090 1a43 30110000 		.4byte	0x1130
 5091 1a47 100C0000 		.4byte	.LLST5
 5092 1a4b 080C0000 		.4byte	.LVUS5
 5093 1a4f 37       		.uleb128 0x37
 5094 1a50 3D110000 		.4byte	0x113d
 5095 1a54 500C0000 		.4byte	.LLST6
 5096 1a58 4A0C0000 		.4byte	.LVUS6
 5097 1a5c 38       		.uleb128 0x38
 5098 1a5d F6100000 		.4byte	0x10f6
 5099 1a61 4E000000 		.4byte	.LBI4
 5100 1a65 00       		.byte	.LVU34
 5101 1a66 4E000000 		.4byte	.LBB4
 5102 1a6a 54000000 		.4byte	.LBE4
 5103 1a6e 01       		.byte	0x1
 5104 1a6f 9C02     		.2byte	0x29c
 5105 1a71 13       		.byte	0x13
 5106 1a72 B01A0000 		.4byte	0x1ab0
 5107 1a76 35       		.uleb128 0x35
 5108 1a77 16110000 		.4byte	0x1116
 5109 1a7b 800C0000 		.4byte	.LLST7
 5110 1a7f 7C0C0000 		.4byte	.LVUS7
 5111 1a83 35       		.uleb128 0x35
 5112 1a84 23110000 		.4byte	0x1123
 5113 1a88 A10C0000 		.4byte	.LLST8
 5114 1a8c 9F0C0000 		.4byte	.LVUS8
 5115 1a90 35       		.uleb128 0x35
 5116 1a91 30110000 		.4byte	0x1130
 5117 1a95 B90C0000 		.4byte	.LLST9
 5118 1a99 B70C0000 		.4byte	.LVUS9
 5119 1a9d 35       		.uleb128 0x35
 5120 1a9e 09110000 		.4byte	0x1109
 5121 1aa2 D10C0000 		.4byte	.LLST10
 5122 1aa6 CF0C0000 		.4byte	.LVUS10
 5123 1aaa 39       		.uleb128 0x39
 5124 1aab 3D110000 		.4byte	0x113d
 5125 1aaf 00       		.byte	0
 5126 1ab0 27       		.uleb128 0x27
 5127 1ab1 58000000 		.4byte	.LVL11
 5128 1ab5 031B0000 		.4byte	0x1b03
 5129 1ab9 00       		.byte	0
 5130 1aba 41       		.uleb128 0x41
 5131 1abb 01       		.byte	0x1
 5132 1abc 01       		.byte	0x1
 5133 1abd 42090000 		.4byte	.LASF222
 5134 1ac1 42090000 		.4byte	.LASF222
 5135 1ac5 0B       		.byte	0xb
 5136 1ac6 61       		.byte	0x61
 5137 1ac7 0D       		.byte	0xd
 5138 1ac8 41       		.uleb128 0x41
 5139 1ac9 01       		.byte	0x1
 5140 1aca 01       		.byte	0x1
 5141 1acb 4F070000 		.4byte	.LASF223
 5142 1acf 4F070000 		.4byte	.LASF223
 5143 1ad3 0B       		.byte	0xb
 5144 1ad4 62       		.byte	0x62
 5145 1ad5 0D       		.byte	0xd
ARM GAS  C:\Users\skey\AppData\Local\Temp\cceKeKCB.s 			page 117


 5146 1ad6 42       		.uleb128 0x42
 5147 1ad7 01       		.byte	0x1
 5148 1ad8 01       		.byte	0x1
 5149 1ad9 EC010000 		.4byte	.LASF224
 5150 1add EC010000 		.4byte	.LASF224
 5151 1ae1 0C       		.byte	0xc
 5152 1ae2 5901     		.2byte	0x159
 5153 1ae4 06       		.byte	0x6
 5154 1ae5 42       		.uleb128 0x42
 5155 1ae6 01       		.byte	0x1
 5156 1ae7 01       		.byte	0x1
 5157 1ae8 01030000 		.4byte	.LASF225
 5158 1aec 01030000 		.4byte	.LASF225
 5159 1af0 0E       		.byte	0xe
 5160 1af1 D805     		.2byte	0x5d8
 5161 1af3 10       		.byte	0x10
 5162 1af4 42       		.uleb128 0x42
 5163 1af5 01       		.byte	0x1
 5164 1af6 01       		.byte	0x1
 5165 1af7 410A0000 		.4byte	.LASF226
 5166 1afb 410A0000 		.4byte	.LASF226
 5167 1aff 0C       		.byte	0xc
 5168 1b00 9501     		.2byte	0x195
 5169 1b02 0D       		.byte	0xd
 5170 1b03 42       		.uleb128 0x42
 5171 1b04 01       		.byte	0x1
 5172 1b05 01       		.byte	0x1
 5173 1b06 0E010000 		.4byte	.LASF227
 5174 1b0a 0E010000 		.4byte	.LASF227
 5175 1b0e 0C       		.byte	0xc
 5176 1b0f 7101     		.2byte	0x171
 5177 1b11 06       		.byte	0x6
 5178 1b12 42       		.uleb128 0x42
 5179 1b13 01       		.byte	0x1
 5180 1b14 01       		.byte	0x1
 5181 1b15 B0010000 		.4byte	.LASF228
 5182 1b19 B0010000 		.4byte	.LASF228
 5183 1b1d 0D       		.byte	0xd
 5184 1b1e 4705     		.2byte	0x547
 5185 1b20 0C       		.byte	0xc
 5186 1b21 42       		.uleb128 0x42
 5187 1b22 01       		.byte	0x1
 5188 1b23 01       		.byte	0x1
 5189 1b24 37050000 		.4byte	.LASF229
 5190 1b28 37050000 		.4byte	.LASF229
 5191 1b2c 0D       		.byte	0xd
 5192 1b2d 0205     		.2byte	0x502
 5193 1b2f 06       		.byte	0x6
 5194 1b30 42       		.uleb128 0x42
 5195 1b31 01       		.byte	0x1
 5196 1b32 01       		.byte	0x1
 5197 1b33 98020000 		.4byte	.LASF230
 5198 1b37 98020000 		.4byte	.LASF230
 5199 1b3b 0E       		.byte	0xe
 5200 1b3c 6B06     		.2byte	0x66b
 5201 1b3e 06       		.byte	0x6
 5202 1b3f 42       		.uleb128 0x42
ARM GAS  C:\Users\skey\AppData\Local\Temp\cceKeKCB.s 			page 118


 5203 1b40 01       		.byte	0x1
 5204 1b41 01       		.byte	0x1
 5205 1b42 18080000 		.4byte	.LASF231
 5206 1b46 18080000 		.4byte	.LASF231
 5207 1b4a 0D       		.byte	0xd
 5208 1b4b 3805     		.2byte	0x538
 5209 1b4d 0C       		.byte	0xc
 5210 1b4e 42       		.uleb128 0x42
 5211 1b4f 01       		.byte	0x1
 5212 1b50 01       		.byte	0x1
 5213 1b51 E4050000 		.4byte	.LASF232
 5214 1b55 E4050000 		.4byte	.LASF232
 5215 1b59 0E       		.byte	0xe
 5216 1b5a 6403     		.2byte	0x364
 5217 1b5c 0C       		.byte	0xc
 5218 1b5d 41       		.uleb128 0x41
 5219 1b5e 01       		.byte	0x1
 5220 1b5f 01       		.byte	0x1
 5221 1b60 090C0000 		.4byte	.LASF233
 5222 1b64 090C0000 		.4byte	.LASF233
 5223 1b68 10       		.byte	0x10
 5224 1b69 92       		.byte	0x92
 5225 1b6a 06       		.byte	0x6
 5226 1b6b 42       		.uleb128 0x42
 5227 1b6c 01       		.byte	0x1
 5228 1b6d 01       		.byte	0x1
 5229 1b6e 55090000 		.4byte	.LASF234
 5230 1b72 55090000 		.4byte	.LASF234
 5231 1b76 0D       		.byte	0xd
 5232 1b77 2509     		.2byte	0x925
 5233 1b79 0C       		.byte	0xc
 5234 1b7a 42       		.uleb128 0x42
 5235 1b7b 01       		.byte	0x1
 5236 1b7c 01       		.byte	0x1
 5237 1b7d 47050000 		.4byte	.LASF235
 5238 1b81 47050000 		.4byte	.LASF235
 5239 1b85 0E       		.byte	0xe
 5240 1b86 8A02     		.2byte	0x28a
 5241 1b88 0C       		.byte	0xc
 5242 1b89 42       		.uleb128 0x42
 5243 1b8a 01       		.byte	0x1
 5244 1b8b 01       		.byte	0x1
 5245 1b8c D3010000 		.4byte	.LASF236
 5246 1b90 D3010000 		.4byte	.LASF236
 5247 1b94 0E       		.byte	0xe
 5248 1b95 0F05     		.2byte	0x50f
 5249 1b97 0C       		.byte	0xc
 5250 1b98 42       		.uleb128 0x42
 5251 1b99 01       		.byte	0x1
 5252 1b9a 01       		.byte	0x1
 5253 1b9b EE000000 		.4byte	.LASF237
 5254 1b9f EE000000 		.4byte	.LASF237
 5255 1ba3 0C       		.byte	0xc
 5256 1ba4 6401     		.2byte	0x164
 5257 1ba6 06       		.byte	0x6
 5258 1ba7 41       		.uleb128 0x41
 5259 1ba8 01       		.byte	0x1
ARM GAS  C:\Users\skey\AppData\Local\Temp\cceKeKCB.s 			page 119


 5260 1ba9 01       		.byte	0x1
 5261 1baa 0B020000 		.4byte	.LASF238
 5262 1bae 0B020000 		.4byte	.LASF238
 5263 1bb2 10       		.byte	0x10
 5264 1bb3 91       		.byte	0x91
 5265 1bb4 07       		.byte	0x7
 5266 1bb5 42       		.uleb128 0x42
 5267 1bb6 01       		.byte	0x1
 5268 1bb7 01       		.byte	0x1
 5269 1bb8 2F080000 		.4byte	.LASF239
 5270 1bbc 2F080000 		.4byte	.LASF239
 5271 1bc0 0D       		.byte	0xd
 5272 1bc1 4A01     		.2byte	0x14a
 5273 1bc3 0D       		.byte	0xd
 5274 1bc4 00       		.byte	0
 5275              		.section	.debug_abbrev,"",%progbits
 5276              	.Ldebug_abbrev0:
 5277 0000 01       		.uleb128 0x1
 5278 0001 11       		.uleb128 0x11
 5279 0002 01       		.byte	0x1
 5280 0003 25       		.uleb128 0x25
 5281 0004 0E       		.uleb128 0xe
 5282 0005 13       		.uleb128 0x13
 5283 0006 0B       		.uleb128 0xb
 5284 0007 03       		.uleb128 0x3
 5285 0008 0E       		.uleb128 0xe
 5286 0009 1B       		.uleb128 0x1b
 5287 000a 0E       		.uleb128 0xe
 5288 000b 11       		.uleb128 0x11
 5289 000c 01       		.uleb128 0x1
 5290 000d 12       		.uleb128 0x12
 5291 000e 01       		.uleb128 0x1
 5292 000f 10       		.uleb128 0x10
 5293 0010 06       		.uleb128 0x6
 5294 0011 00       		.byte	0
 5295 0012 00       		.byte	0
 5296 0013 02       		.uleb128 0x2
 5297 0014 24       		.uleb128 0x24
 5298 0015 00       		.byte	0
 5299 0016 0B       		.uleb128 0xb
 5300 0017 0B       		.uleb128 0xb
 5301 0018 3E       		.uleb128 0x3e
 5302 0019 0B       		.uleb128 0xb
 5303 001a 03       		.uleb128 0x3
 5304 001b 0E       		.uleb128 0xe
 5305 001c 00       		.byte	0
 5306 001d 00       		.byte	0
 5307 001e 03       		.uleb128 0x3
 5308 001f 24       		.uleb128 0x24
 5309 0020 00       		.byte	0
 5310 0021 0B       		.uleb128 0xb
 5311 0022 0B       		.uleb128 0xb
 5312 0023 3E       		.uleb128 0x3e
 5313 0024 0B       		.uleb128 0xb
 5314 0025 03       		.uleb128 0x3
 5315 0026 08       		.uleb128 0x8
 5316 0027 00       		.byte	0
ARM GAS  C:\Users\skey\AppData\Local\Temp\cceKeKCB.s 			page 120


 5317 0028 00       		.byte	0
 5318 0029 04       		.uleb128 0x4
 5319 002a 35       		.uleb128 0x35
 5320 002b 00       		.byte	0
 5321 002c 49       		.uleb128 0x49
 5322 002d 13       		.uleb128 0x13
 5323 002e 00       		.byte	0
 5324 002f 00       		.byte	0
 5325 0030 05       		.uleb128 0x5
 5326 0031 16       		.uleb128 0x16
 5327 0032 00       		.byte	0
 5328 0033 03       		.uleb128 0x3
 5329 0034 0E       		.uleb128 0xe
 5330 0035 3A       		.uleb128 0x3a
 5331 0036 0B       		.uleb128 0xb
 5332 0037 3B       		.uleb128 0x3b
 5333 0038 0B       		.uleb128 0xb
 5334 0039 39       		.uleb128 0x39
 5335 003a 0B       		.uleb128 0xb
 5336 003b 49       		.uleb128 0x49
 5337 003c 13       		.uleb128 0x13
 5338 003d 00       		.byte	0
 5339 003e 00       		.byte	0
 5340 003f 06       		.uleb128 0x6
 5341 0040 0F       		.uleb128 0xf
 5342 0041 00       		.byte	0
 5343 0042 0B       		.uleb128 0xb
 5344 0043 0B       		.uleb128 0xb
 5345 0044 49       		.uleb128 0x49
 5346 0045 13       		.uleb128 0x13
 5347 0046 00       		.byte	0
 5348 0047 00       		.byte	0
 5349 0048 07       		.uleb128 0x7
 5350 0049 13       		.uleb128 0x13
 5351 004a 00       		.byte	0
 5352 004b 03       		.uleb128 0x3
 5353 004c 0E       		.uleb128 0xe
 5354 004d 3C       		.uleb128 0x3c
 5355 004e 0C       		.uleb128 0xc
 5356 004f 00       		.byte	0
 5357 0050 00       		.byte	0
 5358 0051 08       		.uleb128 0x8
 5359 0052 16       		.uleb128 0x16
 5360 0053 00       		.byte	0
 5361 0054 03       		.uleb128 0x3
 5362 0055 0E       		.uleb128 0xe
 5363 0056 3A       		.uleb128 0x3a
 5364 0057 0B       		.uleb128 0xb
 5365 0058 3B       		.uleb128 0x3b
 5366 0059 05       		.uleb128 0x5
 5367 005a 39       		.uleb128 0x39
 5368 005b 0B       		.uleb128 0xb
 5369 005c 49       		.uleb128 0x49
 5370 005d 13       		.uleb128 0x13
 5371 005e 00       		.byte	0
 5372 005f 00       		.byte	0
 5373 0060 09       		.uleb128 0x9
ARM GAS  C:\Users\skey\AppData\Local\Temp\cceKeKCB.s 			page 121


 5374 0061 17       		.uleb128 0x17
 5375 0062 01       		.byte	0x1
 5376 0063 0B       		.uleb128 0xb
 5377 0064 0B       		.uleb128 0xb
 5378 0065 3A       		.uleb128 0x3a
 5379 0066 0B       		.uleb128 0xb
 5380 0067 3B       		.uleb128 0x3b
 5381 0068 0B       		.uleb128 0xb
 5382 0069 39       		.uleb128 0x39
 5383 006a 0B       		.uleb128 0xb
 5384 006b 01       		.uleb128 0x1
 5385 006c 13       		.uleb128 0x13
 5386 006d 00       		.byte	0
 5387 006e 00       		.byte	0
 5388 006f 0A       		.uleb128 0xa
 5389 0070 0D       		.uleb128 0xd
 5390 0071 00       		.byte	0
 5391 0072 03       		.uleb128 0x3
 5392 0073 0E       		.uleb128 0xe
 5393 0074 3A       		.uleb128 0x3a
 5394 0075 0B       		.uleb128 0xb
 5395 0076 3B       		.uleb128 0x3b
 5396 0077 0B       		.uleb128 0xb
 5397 0078 39       		.uleb128 0x39
 5398 0079 0B       		.uleb128 0xb
 5399 007a 49       		.uleb128 0x49
 5400 007b 13       		.uleb128 0x13
 5401 007c 00       		.byte	0
 5402 007d 00       		.byte	0
 5403 007e 0B       		.uleb128 0xb
 5404 007f 01       		.uleb128 0x1
 5405 0080 01       		.byte	0x1
 5406 0081 49       		.uleb128 0x49
 5407 0082 13       		.uleb128 0x13
 5408 0083 01       		.uleb128 0x1
 5409 0084 13       		.uleb128 0x13
 5410 0085 00       		.byte	0
 5411 0086 00       		.byte	0
 5412 0087 0C       		.uleb128 0xc
 5413 0088 21       		.uleb128 0x21
 5414 0089 00       		.byte	0
 5415 008a 49       		.uleb128 0x49
 5416 008b 13       		.uleb128 0x13
 5417 008c 2F       		.uleb128 0x2f
 5418 008d 0B       		.uleb128 0xb
 5419 008e 00       		.byte	0
 5420 008f 00       		.byte	0
 5421 0090 0D       		.uleb128 0xd
 5422 0091 13       		.uleb128 0x13
 5423 0092 01       		.byte	0x1
 5424 0093 0B       		.uleb128 0xb
 5425 0094 0B       		.uleb128 0xb
 5426 0095 3A       		.uleb128 0x3a
 5427 0096 0B       		.uleb128 0xb
 5428 0097 3B       		.uleb128 0x3b
 5429 0098 0B       		.uleb128 0xb
 5430 0099 39       		.uleb128 0x39
ARM GAS  C:\Users\skey\AppData\Local\Temp\cceKeKCB.s 			page 122


 5431 009a 0B       		.uleb128 0xb
 5432 009b 01       		.uleb128 0x1
 5433 009c 13       		.uleb128 0x13
 5434 009d 00       		.byte	0
 5435 009e 00       		.byte	0
 5436 009f 0E       		.uleb128 0xe
 5437 00a0 0D       		.uleb128 0xd
 5438 00a1 00       		.byte	0
 5439 00a2 03       		.uleb128 0x3
 5440 00a3 0E       		.uleb128 0xe
 5441 00a4 3A       		.uleb128 0x3a
 5442 00a5 0B       		.uleb128 0xb
 5443 00a6 3B       		.uleb128 0x3b
 5444 00a7 0B       		.uleb128 0xb
 5445 00a8 39       		.uleb128 0x39
 5446 00a9 0B       		.uleb128 0xb
 5447 00aa 49       		.uleb128 0x49
 5448 00ab 13       		.uleb128 0x13
 5449 00ac 38       		.uleb128 0x38
 5450 00ad 0A       		.uleb128 0xa
 5451 00ae 00       		.byte	0
 5452 00af 00       		.byte	0
 5453 00b0 0F       		.uleb128 0xf
 5454 00b1 0F       		.uleb128 0xf
 5455 00b2 00       		.byte	0
 5456 00b3 0B       		.uleb128 0xb
 5457 00b4 0B       		.uleb128 0xb
 5458 00b5 00       		.byte	0
 5459 00b6 00       		.byte	0
 5460 00b7 10       		.uleb128 0x10
 5461 00b8 26       		.uleb128 0x26
 5462 00b9 00       		.byte	0
 5463 00ba 49       		.uleb128 0x49
 5464 00bb 13       		.uleb128 0x13
 5465 00bc 00       		.byte	0
 5466 00bd 00       		.byte	0
 5467 00be 11       		.uleb128 0x11
 5468 00bf 13       		.uleb128 0x13
 5469 00c0 01       		.byte	0x1
 5470 00c1 03       		.uleb128 0x3
 5471 00c2 0E       		.uleb128 0xe
 5472 00c3 0B       		.uleb128 0xb
 5473 00c4 0B       		.uleb128 0xb
 5474 00c5 3A       		.uleb128 0x3a
 5475 00c6 0B       		.uleb128 0xb
 5476 00c7 3B       		.uleb128 0x3b
 5477 00c8 0B       		.uleb128 0xb
 5478 00c9 39       		.uleb128 0x39
 5479 00ca 0B       		.uleb128 0xb
 5480 00cb 01       		.uleb128 0x1
 5481 00cc 13       		.uleb128 0x13
 5482 00cd 00       		.byte	0
 5483 00ce 00       		.byte	0
 5484 00cf 12       		.uleb128 0x12
 5485 00d0 0D       		.uleb128 0xd
 5486 00d1 00       		.byte	0
 5487 00d2 03       		.uleb128 0x3
ARM GAS  C:\Users\skey\AppData\Local\Temp\cceKeKCB.s 			page 123


 5488 00d3 08       		.uleb128 0x8
 5489 00d4 3A       		.uleb128 0x3a
 5490 00d5 0B       		.uleb128 0xb
 5491 00d6 3B       		.uleb128 0x3b
 5492 00d7 0B       		.uleb128 0xb
 5493 00d8 39       		.uleb128 0x39
 5494 00d9 0B       		.uleb128 0xb
 5495 00da 49       		.uleb128 0x49
 5496 00db 13       		.uleb128 0x13
 5497 00dc 38       		.uleb128 0x38
 5498 00dd 0A       		.uleb128 0xa
 5499 00de 00       		.byte	0
 5500 00df 00       		.byte	0
 5501 00e0 13       		.uleb128 0x13
 5502 00e1 13       		.uleb128 0x13
 5503 00e2 01       		.byte	0x1
 5504 00e3 03       		.uleb128 0x3
 5505 00e4 0E       		.uleb128 0xe
 5506 00e5 0B       		.uleb128 0xb
 5507 00e6 05       		.uleb128 0x5
 5508 00e7 3A       		.uleb128 0x3a
 5509 00e8 0B       		.uleb128 0xb
 5510 00e9 3B       		.uleb128 0x3b
 5511 00ea 0B       		.uleb128 0xb
 5512 00eb 39       		.uleb128 0x39
 5513 00ec 0B       		.uleb128 0xb
 5514 00ed 01       		.uleb128 0x1
 5515 00ee 13       		.uleb128 0x13
 5516 00ef 00       		.byte	0
 5517 00f0 00       		.byte	0
 5518 00f1 14       		.uleb128 0x14
 5519 00f2 15       		.uleb128 0x15
 5520 00f3 00       		.byte	0
 5521 00f4 27       		.uleb128 0x27
 5522 00f5 0C       		.uleb128 0xc
 5523 00f6 00       		.byte	0
 5524 00f7 00       		.byte	0
 5525 00f8 15       		.uleb128 0x15
 5526 00f9 15       		.uleb128 0x15
 5527 00fa 01       		.byte	0x1
 5528 00fb 27       		.uleb128 0x27
 5529 00fc 0C       		.uleb128 0xc
 5530 00fd 49       		.uleb128 0x49
 5531 00fe 13       		.uleb128 0x13
 5532 00ff 01       		.uleb128 0x1
 5533 0100 13       		.uleb128 0x13
 5534 0101 00       		.byte	0
 5535 0102 00       		.byte	0
 5536 0103 16       		.uleb128 0x16
 5537 0104 05       		.uleb128 0x5
 5538 0105 00       		.byte	0
 5539 0106 49       		.uleb128 0x49
 5540 0107 13       		.uleb128 0x13
 5541 0108 00       		.byte	0
 5542 0109 00       		.byte	0
 5543 010a 17       		.uleb128 0x17
 5544 010b 13       		.uleb128 0x13
ARM GAS  C:\Users\skey\AppData\Local\Temp\cceKeKCB.s 			page 124


 5545 010c 01       		.byte	0x1
 5546 010d 03       		.uleb128 0x3
 5547 010e 0E       		.uleb128 0xe
 5548 010f 0B       		.uleb128 0xb
 5549 0110 05       		.uleb128 0x5
 5550 0111 3A       		.uleb128 0x3a
 5551 0112 0B       		.uleb128 0xb
 5552 0113 3B       		.uleb128 0x3b
 5553 0114 05       		.uleb128 0x5
 5554 0115 39       		.uleb128 0x39
 5555 0116 0B       		.uleb128 0xb
 5556 0117 01       		.uleb128 0x1
 5557 0118 13       		.uleb128 0x13
 5558 0119 00       		.byte	0
 5559 011a 00       		.byte	0
 5560 011b 18       		.uleb128 0x18
 5561 011c 0D       		.uleb128 0xd
 5562 011d 00       		.byte	0
 5563 011e 03       		.uleb128 0x3
 5564 011f 0E       		.uleb128 0xe
 5565 0120 3A       		.uleb128 0x3a
 5566 0121 0B       		.uleb128 0xb
 5567 0122 3B       		.uleb128 0x3b
 5568 0123 05       		.uleb128 0x5
 5569 0124 39       		.uleb128 0x39
 5570 0125 0B       		.uleb128 0xb
 5571 0126 49       		.uleb128 0x49
 5572 0127 13       		.uleb128 0x13
 5573 0128 38       		.uleb128 0x38
 5574 0129 0A       		.uleb128 0xa
 5575 012a 00       		.byte	0
 5576 012b 00       		.byte	0
 5577 012c 19       		.uleb128 0x19
 5578 012d 13       		.uleb128 0x13
 5579 012e 01       		.byte	0x1
 5580 012f 03       		.uleb128 0x3
 5581 0130 0E       		.uleb128 0xe
 5582 0131 0B       		.uleb128 0xb
 5583 0132 0B       		.uleb128 0xb
 5584 0133 3A       		.uleb128 0x3a
 5585 0134 0B       		.uleb128 0xb
 5586 0135 3B       		.uleb128 0x3b
 5587 0136 05       		.uleb128 0x5
 5588 0137 39       		.uleb128 0x39
 5589 0138 0B       		.uleb128 0xb
 5590 0139 01       		.uleb128 0x1
 5591 013a 13       		.uleb128 0x13
 5592 013b 00       		.byte	0
 5593 013c 00       		.byte	0
 5594 013d 1A       		.uleb128 0x1a
 5595 013e 13       		.uleb128 0x13
 5596 013f 01       		.byte	0x1
 5597 0140 0B       		.uleb128 0xb
 5598 0141 0B       		.uleb128 0xb
 5599 0142 3A       		.uleb128 0x3a
 5600 0143 0B       		.uleb128 0xb
 5601 0144 3B       		.uleb128 0x3b
ARM GAS  C:\Users\skey\AppData\Local\Temp\cceKeKCB.s 			page 125


 5602 0145 05       		.uleb128 0x5
 5603 0146 39       		.uleb128 0x39
 5604 0147 0B       		.uleb128 0xb
 5605 0148 01       		.uleb128 0x1
 5606 0149 13       		.uleb128 0x13
 5607 014a 00       		.byte	0
 5608 014b 00       		.byte	0
 5609 014c 1B       		.uleb128 0x1b
 5610 014d 17       		.uleb128 0x17
 5611 014e 01       		.byte	0x1
 5612 014f 0B       		.uleb128 0xb
 5613 0150 0B       		.uleb128 0xb
 5614 0151 3A       		.uleb128 0x3a
 5615 0152 0B       		.uleb128 0xb
 5616 0153 3B       		.uleb128 0x3b
 5617 0154 05       		.uleb128 0x5
 5618 0155 39       		.uleb128 0x39
 5619 0156 0B       		.uleb128 0xb
 5620 0157 01       		.uleb128 0x1
 5621 0158 13       		.uleb128 0x13
 5622 0159 00       		.byte	0
 5623 015a 00       		.byte	0
 5624 015b 1C       		.uleb128 0x1c
 5625 015c 0D       		.uleb128 0xd
 5626 015d 00       		.byte	0
 5627 015e 03       		.uleb128 0x3
 5628 015f 0E       		.uleb128 0xe
 5629 0160 3A       		.uleb128 0x3a
 5630 0161 0B       		.uleb128 0xb
 5631 0162 3B       		.uleb128 0x3b
 5632 0163 05       		.uleb128 0x5
 5633 0164 39       		.uleb128 0x39
 5634 0165 0B       		.uleb128 0xb
 5635 0166 49       		.uleb128 0x49
 5636 0167 13       		.uleb128 0x13
 5637 0168 00       		.byte	0
 5638 0169 00       		.byte	0
 5639 016a 1D       		.uleb128 0x1d
 5640 016b 15       		.uleb128 0x15
 5641 016c 01       		.byte	0x1
 5642 016d 27       		.uleb128 0x27
 5643 016e 0C       		.uleb128 0xc
 5644 016f 01       		.uleb128 0x1
 5645 0170 13       		.uleb128 0x13
 5646 0171 00       		.byte	0
 5647 0172 00       		.byte	0
 5648 0173 1E       		.uleb128 0x1e
 5649 0174 34       		.uleb128 0x34
 5650 0175 00       		.byte	0
 5651 0176 03       		.uleb128 0x3
 5652 0177 0E       		.uleb128 0xe
 5653 0178 3A       		.uleb128 0x3a
 5654 0179 0B       		.uleb128 0xb
 5655 017a 3B       		.uleb128 0x3b
 5656 017b 05       		.uleb128 0x5
 5657 017c 39       		.uleb128 0x39
 5658 017d 0B       		.uleb128 0xb
ARM GAS  C:\Users\skey\AppData\Local\Temp\cceKeKCB.s 			page 126


 5659 017e 49       		.uleb128 0x49
 5660 017f 13       		.uleb128 0x13
 5661 0180 3F       		.uleb128 0x3f
 5662 0181 0C       		.uleb128 0xc
 5663 0182 3C       		.uleb128 0x3c
 5664 0183 0C       		.uleb128 0xc
 5665 0184 00       		.byte	0
 5666 0185 00       		.byte	0
 5667 0186 1F       		.uleb128 0x1f
 5668 0187 34       		.uleb128 0x34
 5669 0188 00       		.byte	0
 5670 0189 03       		.uleb128 0x3
 5671 018a 0E       		.uleb128 0xe
 5672 018b 3A       		.uleb128 0x3a
 5673 018c 0B       		.uleb128 0xb
 5674 018d 3B       		.uleb128 0x3b
 5675 018e 0B       		.uleb128 0xb
 5676 018f 39       		.uleb128 0x39
 5677 0190 0B       		.uleb128 0xb
 5678 0191 49       		.uleb128 0x49
 5679 0192 13       		.uleb128 0x13
 5680 0193 3F       		.uleb128 0x3f
 5681 0194 0C       		.uleb128 0xc
 5682 0195 3C       		.uleb128 0x3c
 5683 0196 0C       		.uleb128 0xc
 5684 0197 00       		.byte	0
 5685 0198 00       		.byte	0
 5686 0199 20       		.uleb128 0x20
 5687 019a 34       		.uleb128 0x34
 5688 019b 00       		.byte	0
 5689 019c 03       		.uleb128 0x3
 5690 019d 0E       		.uleb128 0xe
 5691 019e 3A       		.uleb128 0x3a
 5692 019f 0B       		.uleb128 0xb
 5693 01a0 3B       		.uleb128 0x3b
 5694 01a1 0B       		.uleb128 0xb
 5695 01a2 39       		.uleb128 0x39
 5696 01a3 0B       		.uleb128 0xb
 5697 01a4 49       		.uleb128 0x49
 5698 01a5 13       		.uleb128 0x13
 5699 01a6 02       		.uleb128 0x2
 5700 01a7 0A       		.uleb128 0xa
 5701 01a8 00       		.byte	0
 5702 01a9 00       		.byte	0
 5703 01aa 21       		.uleb128 0x21
 5704 01ab 2E       		.uleb128 0x2e
 5705 01ac 01       		.byte	0x1
 5706 01ad 3F       		.uleb128 0x3f
 5707 01ae 0C       		.uleb128 0xc
 5708 01af 03       		.uleb128 0x3
 5709 01b0 0E       		.uleb128 0xe
 5710 01b1 3A       		.uleb128 0x3a
 5711 01b2 0B       		.uleb128 0xb
 5712 01b3 3B       		.uleb128 0x3b
 5713 01b4 05       		.uleb128 0x5
 5714 01b5 39       		.uleb128 0x39
 5715 01b6 0B       		.uleb128 0xb
ARM GAS  C:\Users\skey\AppData\Local\Temp\cceKeKCB.s 			page 127


 5716 01b7 27       		.uleb128 0x27
 5717 01b8 0C       		.uleb128 0xc
 5718 01b9 11       		.uleb128 0x11
 5719 01ba 01       		.uleb128 0x1
 5720 01bb 12       		.uleb128 0x12
 5721 01bc 01       		.uleb128 0x1
 5722 01bd 40       		.uleb128 0x40
 5723 01be 0A       		.uleb128 0xa
 5724 01bf 9742     		.uleb128 0x2117
 5725 01c1 0C       		.uleb128 0xc
 5726 01c2 01       		.uleb128 0x1
 5727 01c3 13       		.uleb128 0x13
 5728 01c4 00       		.byte	0
 5729 01c5 00       		.byte	0
 5730 01c6 22       		.uleb128 0x22
 5731 01c7 05       		.uleb128 0x5
 5732 01c8 00       		.byte	0
 5733 01c9 03       		.uleb128 0x3
 5734 01ca 0E       		.uleb128 0xe
 5735 01cb 3A       		.uleb128 0x3a
 5736 01cc 0B       		.uleb128 0xb
 5737 01cd 3B       		.uleb128 0x3b
 5738 01ce 05       		.uleb128 0x5
 5739 01cf 39       		.uleb128 0x39
 5740 01d0 0B       		.uleb128 0xb
 5741 01d1 49       		.uleb128 0x49
 5742 01d2 13       		.uleb128 0x13
 5743 01d3 02       		.uleb128 0x2
 5744 01d4 0A       		.uleb128 0xa
 5745 01d5 00       		.byte	0
 5746 01d6 00       		.byte	0
 5747 01d7 23       		.uleb128 0x23
 5748 01d8 2E       		.uleb128 0x2e
 5749 01d9 01       		.byte	0x1
 5750 01da 3F       		.uleb128 0x3f
 5751 01db 0C       		.uleb128 0xc
 5752 01dc 03       		.uleb128 0x3
 5753 01dd 0E       		.uleb128 0xe
 5754 01de 3A       		.uleb128 0x3a
 5755 01df 0B       		.uleb128 0xb
 5756 01e0 3B       		.uleb128 0x3b
 5757 01e1 05       		.uleb128 0x5
 5758 01e2 39       		.uleb128 0x39
 5759 01e3 0B       		.uleb128 0xb
 5760 01e4 27       		.uleb128 0x27
 5761 01e5 0C       		.uleb128 0xc
 5762 01e6 49       		.uleb128 0x49
 5763 01e7 13       		.uleb128 0x13
 5764 01e8 11       		.uleb128 0x11
 5765 01e9 01       		.uleb128 0x1
 5766 01ea 12       		.uleb128 0x12
 5767 01eb 01       		.uleb128 0x1
 5768 01ec 40       		.uleb128 0x40
 5769 01ed 0A       		.uleb128 0xa
 5770 01ee 9742     		.uleb128 0x2117
 5771 01f0 0C       		.uleb128 0xc
 5772 01f1 01       		.uleb128 0x1
ARM GAS  C:\Users\skey\AppData\Local\Temp\cceKeKCB.s 			page 128


 5773 01f2 13       		.uleb128 0x13
 5774 01f3 00       		.byte	0
 5775 01f4 00       		.byte	0
 5776 01f5 24       		.uleb128 0x24
 5777 01f6 05       		.uleb128 0x5
 5778 01f7 00       		.byte	0
 5779 01f8 03       		.uleb128 0x3
 5780 01f9 0E       		.uleb128 0xe
 5781 01fa 3A       		.uleb128 0x3a
 5782 01fb 0B       		.uleb128 0xb
 5783 01fc 3B       		.uleb128 0x3b
 5784 01fd 05       		.uleb128 0x5
 5785 01fe 39       		.uleb128 0x39
 5786 01ff 0B       		.uleb128 0xb
 5787 0200 49       		.uleb128 0x49
 5788 0201 13       		.uleb128 0x13
 5789 0202 02       		.uleb128 0x2
 5790 0203 06       		.uleb128 0x6
 5791 0204 B742     		.uleb128 0x2137
 5792 0206 06       		.uleb128 0x6
 5793 0207 00       		.byte	0
 5794 0208 00       		.byte	0
 5795 0209 25       		.uleb128 0x25
 5796 020a 2E       		.uleb128 0x2e
 5797 020b 01       		.byte	0x1
 5798 020c 3F       		.uleb128 0x3f
 5799 020d 0C       		.uleb128 0xc
 5800 020e 03       		.uleb128 0x3
 5801 020f 0E       		.uleb128 0xe
 5802 0210 3A       		.uleb128 0x3a
 5803 0211 0B       		.uleb128 0xb
 5804 0212 3B       		.uleb128 0x3b
 5805 0213 05       		.uleb128 0x5
 5806 0214 39       		.uleb128 0x39
 5807 0215 0B       		.uleb128 0xb
 5808 0216 27       		.uleb128 0x27
 5809 0217 0C       		.uleb128 0xc
 5810 0218 11       		.uleb128 0x11
 5811 0219 01       		.uleb128 0x1
 5812 021a 12       		.uleb128 0x12
 5813 021b 01       		.uleb128 0x1
 5814 021c 40       		.uleb128 0x40
 5815 021d 06       		.uleb128 0x6
 5816 021e 9742     		.uleb128 0x2117
 5817 0220 0C       		.uleb128 0xc
 5818 0221 01       		.uleb128 0x1
 5819 0222 13       		.uleb128 0x13
 5820 0223 00       		.byte	0
 5821 0224 00       		.byte	0
 5822 0225 26       		.uleb128 0x26
 5823 0226 34       		.uleb128 0x34
 5824 0227 00       		.byte	0
 5825 0228 03       		.uleb128 0x3
 5826 0229 0E       		.uleb128 0xe
 5827 022a 3A       		.uleb128 0x3a
 5828 022b 0B       		.uleb128 0xb
 5829 022c 3B       		.uleb128 0x3b
ARM GAS  C:\Users\skey\AppData\Local\Temp\cceKeKCB.s 			page 129


 5830 022d 05       		.uleb128 0x5
 5831 022e 39       		.uleb128 0x39
 5832 022f 0B       		.uleb128 0xb
 5833 0230 49       		.uleb128 0x49
 5834 0231 13       		.uleb128 0x13
 5835 0232 02       		.uleb128 0x2
 5836 0233 06       		.uleb128 0x6
 5837 0234 B742     		.uleb128 0x2137
 5838 0236 06       		.uleb128 0x6
 5839 0237 00       		.byte	0
 5840 0238 00       		.byte	0
 5841 0239 27       		.uleb128 0x27
 5842 023a 898201   		.uleb128 0x4109
 5843 023d 00       		.byte	0
 5844 023e 11       		.uleb128 0x11
 5845 023f 01       		.uleb128 0x1
 5846 0240 31       		.uleb128 0x31
 5847 0241 13       		.uleb128 0x13
 5848 0242 00       		.byte	0
 5849 0243 00       		.byte	0
 5850 0244 28       		.uleb128 0x28
 5851 0245 898201   		.uleb128 0x4109
 5852 0248 00       		.byte	0
 5853 0249 11       		.uleb128 0x11
 5854 024a 01       		.uleb128 0x1
 5855 024b 9542     		.uleb128 0x2115
 5856 024d 0C       		.uleb128 0xc
 5857 024e 31       		.uleb128 0x31
 5858 024f 13       		.uleb128 0x13
 5859 0250 00       		.byte	0
 5860 0251 00       		.byte	0
 5861 0252 29       		.uleb128 0x29
 5862 0253 2E       		.uleb128 0x2e
 5863 0254 01       		.byte	0x1
 5864 0255 3F       		.uleb128 0x3f
 5865 0256 0C       		.uleb128 0xc
 5866 0257 03       		.uleb128 0x3
 5867 0258 0E       		.uleb128 0xe
 5868 0259 3A       		.uleb128 0x3a
 5869 025a 0B       		.uleb128 0xb
 5870 025b 3B       		.uleb128 0x3b
 5871 025c 05       		.uleb128 0x5
 5872 025d 39       		.uleb128 0x39
 5873 025e 0B       		.uleb128 0xb
 5874 025f 27       		.uleb128 0x27
 5875 0260 0C       		.uleb128 0xc
 5876 0261 49       		.uleb128 0x49
 5877 0262 13       		.uleb128 0x13
 5878 0263 11       		.uleb128 0x11
 5879 0264 01       		.uleb128 0x1
 5880 0265 12       		.uleb128 0x12
 5881 0266 01       		.uleb128 0x1
 5882 0267 40       		.uleb128 0x40
 5883 0268 06       		.uleb128 0x6
 5884 0269 9742     		.uleb128 0x2117
 5885 026b 0C       		.uleb128 0xc
 5886 026c 01       		.uleb128 0x1
ARM GAS  C:\Users\skey\AppData\Local\Temp\cceKeKCB.s 			page 130


 5887 026d 13       		.uleb128 0x13
 5888 026e 00       		.byte	0
 5889 026f 00       		.byte	0
 5890 0270 2A       		.uleb128 0x2a
 5891 0271 2E       		.uleb128 0x2e
 5892 0272 01       		.byte	0x1
 5893 0273 03       		.uleb128 0x3
 5894 0274 0E       		.uleb128 0xe
 5895 0275 3A       		.uleb128 0x3a
 5896 0276 0B       		.uleb128 0xb
 5897 0277 3B       		.uleb128 0x3b
 5898 0278 05       		.uleb128 0x5
 5899 0279 39       		.uleb128 0x39
 5900 027a 0B       		.uleb128 0xb
 5901 027b 27       		.uleb128 0x27
 5902 027c 0C       		.uleb128 0xc
 5903 027d 11       		.uleb128 0x11
 5904 027e 01       		.uleb128 0x1
 5905 027f 12       		.uleb128 0x12
 5906 0280 01       		.uleb128 0x1
 5907 0281 40       		.uleb128 0x40
 5908 0282 06       		.uleb128 0x6
 5909 0283 9742     		.uleb128 0x2117
 5910 0285 0C       		.uleb128 0xc
 5911 0286 01       		.uleb128 0x1
 5912 0287 13       		.uleb128 0x13
 5913 0288 00       		.byte	0
 5914 0289 00       		.byte	0
 5915 028a 2B       		.uleb128 0x2b
 5916 028b 898201   		.uleb128 0x4109
 5917 028e 01       		.byte	0x1
 5918 028f 11       		.uleb128 0x11
 5919 0290 01       		.uleb128 0x1
 5920 0291 31       		.uleb128 0x31
 5921 0292 13       		.uleb128 0x13
 5922 0293 01       		.uleb128 0x1
 5923 0294 13       		.uleb128 0x13
 5924 0295 00       		.byte	0
 5925 0296 00       		.byte	0
 5926 0297 2C       		.uleb128 0x2c
 5927 0298 8A8201   		.uleb128 0x410a
 5928 029b 00       		.byte	0
 5929 029c 02       		.uleb128 0x2
 5930 029d 0A       		.uleb128 0xa
 5931 029e 9142     		.uleb128 0x2111
 5932 02a0 0A       		.uleb128 0xa
 5933 02a1 00       		.byte	0
 5934 02a2 00       		.byte	0
 5935 02a3 2D       		.uleb128 0x2d
 5936 02a4 34       		.uleb128 0x34
 5937 02a5 00       		.byte	0
 5938 02a6 03       		.uleb128 0x3
 5939 02a7 0E       		.uleb128 0xe
 5940 02a8 3A       		.uleb128 0x3a
 5941 02a9 0B       		.uleb128 0xb
 5942 02aa 3B       		.uleb128 0x3b
 5943 02ab 05       		.uleb128 0x5
ARM GAS  C:\Users\skey\AppData\Local\Temp\cceKeKCB.s 			page 131


 5944 02ac 39       		.uleb128 0x39
 5945 02ad 0B       		.uleb128 0xb
 5946 02ae 49       		.uleb128 0x49
 5947 02af 13       		.uleb128 0x13
 5948 02b0 00       		.byte	0
 5949 02b1 00       		.byte	0
 5950 02b2 2E       		.uleb128 0x2e
 5951 02b3 898201   		.uleb128 0x4109
 5952 02b6 01       		.byte	0x1
 5953 02b7 11       		.uleb128 0x11
 5954 02b8 01       		.uleb128 0x1
 5955 02b9 01       		.uleb128 0x1
 5956 02ba 13       		.uleb128 0x13
 5957 02bb 00       		.byte	0
 5958 02bc 00       		.byte	0
 5959 02bd 2F       		.uleb128 0x2f
 5960 02be 898201   		.uleb128 0x4109
 5961 02c1 01       		.byte	0x1
 5962 02c2 11       		.uleb128 0x11
 5963 02c3 01       		.uleb128 0x1
 5964 02c4 31       		.uleb128 0x31
 5965 02c5 13       		.uleb128 0x13
 5966 02c6 00       		.byte	0
 5967 02c7 00       		.byte	0
 5968 02c8 30       		.uleb128 0x30
 5969 02c9 2E       		.uleb128 0x2e
 5970 02ca 01       		.byte	0x1
 5971 02cb 03       		.uleb128 0x3
 5972 02cc 0E       		.uleb128 0xe
 5973 02cd 3A       		.uleb128 0x3a
 5974 02ce 0B       		.uleb128 0xb
 5975 02cf 3B       		.uleb128 0x3b
 5976 02d0 05       		.uleb128 0x5
 5977 02d1 39       		.uleb128 0x39
 5978 02d2 0B       		.uleb128 0xb
 5979 02d3 27       		.uleb128 0x27
 5980 02d4 0C       		.uleb128 0xc
 5981 02d5 20       		.uleb128 0x20
 5982 02d6 0B       		.uleb128 0xb
 5983 02d7 01       		.uleb128 0x1
 5984 02d8 13       		.uleb128 0x13
 5985 02d9 00       		.byte	0
 5986 02da 00       		.byte	0
 5987 02db 31       		.uleb128 0x31
 5988 02dc 2E       		.uleb128 0x2e
 5989 02dd 01       		.byte	0x1
 5990 02de 03       		.uleb128 0x3
 5991 02df 0E       		.uleb128 0xe
 5992 02e0 3A       		.uleb128 0x3a
 5993 02e1 0B       		.uleb128 0xb
 5994 02e2 3B       		.uleb128 0x3b
 5995 02e3 05       		.uleb128 0x5
 5996 02e4 39       		.uleb128 0x39
 5997 02e5 0B       		.uleb128 0xb
 5998 02e6 27       		.uleb128 0x27
 5999 02e7 0C       		.uleb128 0xc
 6000 02e8 49       		.uleb128 0x49
ARM GAS  C:\Users\skey\AppData\Local\Temp\cceKeKCB.s 			page 132


 6001 02e9 13       		.uleb128 0x13
 6002 02ea 20       		.uleb128 0x20
 6003 02eb 0B       		.uleb128 0xb
 6004 02ec 01       		.uleb128 0x1
 6005 02ed 13       		.uleb128 0x13
 6006 02ee 00       		.byte	0
 6007 02ef 00       		.byte	0
 6008 02f0 32       		.uleb128 0x32
 6009 02f1 05       		.uleb128 0x5
 6010 02f2 00       		.byte	0
 6011 02f3 03       		.uleb128 0x3
 6012 02f4 0E       		.uleb128 0xe
 6013 02f5 3A       		.uleb128 0x3a
 6014 02f6 0B       		.uleb128 0xb
 6015 02f7 3B       		.uleb128 0x3b
 6016 02f8 05       		.uleb128 0x5
 6017 02f9 39       		.uleb128 0x39
 6018 02fa 0B       		.uleb128 0xb
 6019 02fb 49       		.uleb128 0x49
 6020 02fc 13       		.uleb128 0x13
 6021 02fd 00       		.byte	0
 6022 02fe 00       		.byte	0
 6023 02ff 33       		.uleb128 0x33
 6024 0300 34       		.uleb128 0x34
 6025 0301 00       		.byte	0
 6026 0302 03       		.uleb128 0x3
 6027 0303 0E       		.uleb128 0xe
 6028 0304 3A       		.uleb128 0x3a
 6029 0305 0B       		.uleb128 0xb
 6030 0306 3B       		.uleb128 0x3b
 6031 0307 05       		.uleb128 0x5
 6032 0308 39       		.uleb128 0x39
 6033 0309 0B       		.uleb128 0xb
 6034 030a 49       		.uleb128 0x49
 6035 030b 13       		.uleb128 0x13
 6036 030c 02       		.uleb128 0x2
 6037 030d 0A       		.uleb128 0xa
 6038 030e 00       		.byte	0
 6039 030f 00       		.byte	0
 6040 0310 34       		.uleb128 0x34
 6041 0311 1D       		.uleb128 0x1d
 6042 0312 01       		.byte	0x1
 6043 0313 31       		.uleb128 0x31
 6044 0314 13       		.uleb128 0x13
 6045 0315 52       		.uleb128 0x52
 6046 0316 01       		.uleb128 0x1
 6047 0317 B842     		.uleb128 0x2138
 6048 0319 0B       		.uleb128 0xb
 6049 031a 55       		.uleb128 0x55
 6050 031b 06       		.uleb128 0x6
 6051 031c 58       		.uleb128 0x58
 6052 031d 0B       		.uleb128 0xb
 6053 031e 59       		.uleb128 0x59
 6054 031f 05       		.uleb128 0x5
 6055 0320 57       		.uleb128 0x57
 6056 0321 0B       		.uleb128 0xb
 6057 0322 01       		.uleb128 0x1
ARM GAS  C:\Users\skey\AppData\Local\Temp\cceKeKCB.s 			page 133


 6058 0323 13       		.uleb128 0x13
 6059 0324 00       		.byte	0
 6060 0325 00       		.byte	0
 6061 0326 35       		.uleb128 0x35
 6062 0327 05       		.uleb128 0x5
 6063 0328 00       		.byte	0
 6064 0329 31       		.uleb128 0x31
 6065 032a 13       		.uleb128 0x13
 6066 032b 02       		.uleb128 0x2
 6067 032c 06       		.uleb128 0x6
 6068 032d B742     		.uleb128 0x2137
 6069 032f 06       		.uleb128 0x6
 6070 0330 00       		.byte	0
 6071 0331 00       		.byte	0
 6072 0332 36       		.uleb128 0x36
 6073 0333 0B       		.uleb128 0xb
 6074 0334 01       		.byte	0x1
 6075 0335 55       		.uleb128 0x55
 6076 0336 06       		.uleb128 0x6
 6077 0337 00       		.byte	0
 6078 0338 00       		.byte	0
 6079 0339 37       		.uleb128 0x37
 6080 033a 34       		.uleb128 0x34
 6081 033b 00       		.byte	0
 6082 033c 31       		.uleb128 0x31
 6083 033d 13       		.uleb128 0x13
 6084 033e 02       		.uleb128 0x2
 6085 033f 06       		.uleb128 0x6
 6086 0340 B742     		.uleb128 0x2137
 6087 0342 06       		.uleb128 0x6
 6088 0343 00       		.byte	0
 6089 0344 00       		.byte	0
 6090 0345 38       		.uleb128 0x38
 6091 0346 1D       		.uleb128 0x1d
 6092 0347 01       		.byte	0x1
 6093 0348 31       		.uleb128 0x31
 6094 0349 13       		.uleb128 0x13
 6095 034a 52       		.uleb128 0x52
 6096 034b 01       		.uleb128 0x1
 6097 034c B842     		.uleb128 0x2138
 6098 034e 0B       		.uleb128 0xb
 6099 034f 11       		.uleb128 0x11
 6100 0350 01       		.uleb128 0x1
 6101 0351 12       		.uleb128 0x12
 6102 0352 01       		.uleb128 0x1
 6103 0353 58       		.uleb128 0x58
 6104 0354 0B       		.uleb128 0xb
 6105 0355 59       		.uleb128 0x59
 6106 0356 05       		.uleb128 0x5
 6107 0357 57       		.uleb128 0x57
 6108 0358 0B       		.uleb128 0xb
 6109 0359 01       		.uleb128 0x1
 6110 035a 13       		.uleb128 0x13
 6111 035b 00       		.byte	0
 6112 035c 00       		.byte	0
 6113 035d 39       		.uleb128 0x39
 6114 035e 34       		.uleb128 0x34
ARM GAS  C:\Users\skey\AppData\Local\Temp\cceKeKCB.s 			page 134


 6115 035f 00       		.byte	0
 6116 0360 31       		.uleb128 0x31
 6117 0361 13       		.uleb128 0x13
 6118 0362 00       		.byte	0
 6119 0363 00       		.byte	0
 6120 0364 3A       		.uleb128 0x3a
 6121 0365 898201   		.uleb128 0x4109
 6122 0368 01       		.byte	0x1
 6123 0369 11       		.uleb128 0x11
 6124 036a 01       		.uleb128 0x1
 6125 036b 00       		.byte	0
 6126 036c 00       		.byte	0
 6127 036d 3B       		.uleb128 0x3b
 6128 036e 1D       		.uleb128 0x1d
 6129 036f 01       		.byte	0x1
 6130 0370 31       		.uleb128 0x31
 6131 0371 13       		.uleb128 0x13
 6132 0372 55       		.uleb128 0x55
 6133 0373 06       		.uleb128 0x6
 6134 0374 58       		.uleb128 0x58
 6135 0375 0B       		.uleb128 0xb
 6136 0376 59       		.uleb128 0x59
 6137 0377 05       		.uleb128 0x5
 6138 0378 57       		.uleb128 0x57
 6139 0379 0B       		.uleb128 0xb
 6140 037a 00       		.byte	0
 6141 037b 00       		.byte	0
 6142 037c 3C       		.uleb128 0x3c
 6143 037d 34       		.uleb128 0x34
 6144 037e 00       		.byte	0
 6145 037f 31       		.uleb128 0x31
 6146 0380 13       		.uleb128 0x13
 6147 0381 02       		.uleb128 0x2
 6148 0382 0A       		.uleb128 0xa
 6149 0383 00       		.byte	0
 6150 0384 00       		.byte	0
 6151 0385 3D       		.uleb128 0x3d
 6152 0386 2E       		.uleb128 0x2e
 6153 0387 00       		.byte	0
 6154 0388 3F       		.uleb128 0x3f
 6155 0389 0C       		.uleb128 0xc
 6156 038a 03       		.uleb128 0x3
 6157 038b 0E       		.uleb128 0xe
 6158 038c 3A       		.uleb128 0x3a
 6159 038d 0B       		.uleb128 0xb
 6160 038e 3B       		.uleb128 0x3b
 6161 038f 05       		.uleb128 0x5
 6162 0390 39       		.uleb128 0x39
 6163 0391 0B       		.uleb128 0xb
 6164 0392 27       		.uleb128 0x27
 6165 0393 0C       		.uleb128 0xc
 6166 0394 49       		.uleb128 0x49
 6167 0395 13       		.uleb128 0x13
 6168 0396 11       		.uleb128 0x11
 6169 0397 01       		.uleb128 0x1
 6170 0398 12       		.uleb128 0x12
 6171 0399 01       		.uleb128 0x1
ARM GAS  C:\Users\skey\AppData\Local\Temp\cceKeKCB.s 			page 135


 6172 039a 40       		.uleb128 0x40
 6173 039b 0A       		.uleb128 0xa
 6174 039c 9742     		.uleb128 0x2117
 6175 039e 0C       		.uleb128 0xc
 6176 039f 00       		.byte	0
 6177 03a0 00       		.byte	0
 6178 03a1 3E       		.uleb128 0x3e
 6179 03a2 2E       		.uleb128 0x2e
 6180 03a3 01       		.byte	0x1
 6181 03a4 3F       		.uleb128 0x3f
 6182 03a5 0C       		.uleb128 0xc
 6183 03a6 03       		.uleb128 0x3
 6184 03a7 0E       		.uleb128 0xe
 6185 03a8 3A       		.uleb128 0x3a
 6186 03a9 0B       		.uleb128 0xb
 6187 03aa 3B       		.uleb128 0x3b
 6188 03ab 0B       		.uleb128 0xb
 6189 03ac 39       		.uleb128 0x39
 6190 03ad 0B       		.uleb128 0xb
 6191 03ae 27       		.uleb128 0x27
 6192 03af 0C       		.uleb128 0xc
 6193 03b0 49       		.uleb128 0x49
 6194 03b1 13       		.uleb128 0x13
 6195 03b2 11       		.uleb128 0x11
 6196 03b3 01       		.uleb128 0x1
 6197 03b4 12       		.uleb128 0x12
 6198 03b5 01       		.uleb128 0x1
 6199 03b6 40       		.uleb128 0x40
 6200 03b7 06       		.uleb128 0x6
 6201 03b8 9742     		.uleb128 0x2117
 6202 03ba 0C       		.uleb128 0xc
 6203 03bb 01       		.uleb128 0x1
 6204 03bc 13       		.uleb128 0x13
 6205 03bd 00       		.byte	0
 6206 03be 00       		.byte	0
 6207 03bf 3F       		.uleb128 0x3f
 6208 03c0 34       		.uleb128 0x34
 6209 03c1 00       		.byte	0
 6210 03c2 03       		.uleb128 0x3
 6211 03c3 0E       		.uleb128 0xe
 6212 03c4 3A       		.uleb128 0x3a
 6213 03c5 0B       		.uleb128 0xb
 6214 03c6 3B       		.uleb128 0x3b
 6215 03c7 0B       		.uleb128 0xb
 6216 03c8 39       		.uleb128 0x39
 6217 03c9 0B       		.uleb128 0xb
 6218 03ca 49       		.uleb128 0x49
 6219 03cb 13       		.uleb128 0x13
 6220 03cc 02       		.uleb128 0x2
 6221 03cd 06       		.uleb128 0x6
 6222 03ce B742     		.uleb128 0x2137
 6223 03d0 06       		.uleb128 0x6
 6224 03d1 00       		.byte	0
 6225 03d2 00       		.byte	0
 6226 03d3 40       		.uleb128 0x40
 6227 03d4 2E       		.uleb128 0x2e
 6228 03d5 01       		.byte	0x1
ARM GAS  C:\Users\skey\AppData\Local\Temp\cceKeKCB.s 			page 136


 6229 03d6 31       		.uleb128 0x31
 6230 03d7 13       		.uleb128 0x13
 6231 03d8 11       		.uleb128 0x11
 6232 03d9 01       		.uleb128 0x1
 6233 03da 12       		.uleb128 0x12
 6234 03db 01       		.uleb128 0x1
 6235 03dc 40       		.uleb128 0x40
 6236 03dd 06       		.uleb128 0x6
 6237 03de 9742     		.uleb128 0x2117
 6238 03e0 0C       		.uleb128 0xc
 6239 03e1 01       		.uleb128 0x1
 6240 03e2 13       		.uleb128 0x13
 6241 03e3 00       		.byte	0
 6242 03e4 00       		.byte	0
 6243 03e5 41       		.uleb128 0x41
 6244 03e6 2E       		.uleb128 0x2e
 6245 03e7 00       		.byte	0
 6246 03e8 3F       		.uleb128 0x3f
 6247 03e9 0C       		.uleb128 0xc
 6248 03ea 3C       		.uleb128 0x3c
 6249 03eb 0C       		.uleb128 0xc
 6250 03ec 8740     		.uleb128 0x2007
 6251 03ee 0E       		.uleb128 0xe
 6252 03ef 03       		.uleb128 0x3
 6253 03f0 0E       		.uleb128 0xe
 6254 03f1 3A       		.uleb128 0x3a
 6255 03f2 0B       		.uleb128 0xb
 6256 03f3 3B       		.uleb128 0x3b
 6257 03f4 0B       		.uleb128 0xb
 6258 03f5 39       		.uleb128 0x39
 6259 03f6 0B       		.uleb128 0xb
 6260 03f7 00       		.byte	0
 6261 03f8 00       		.byte	0
 6262 03f9 42       		.uleb128 0x42
 6263 03fa 2E       		.uleb128 0x2e
 6264 03fb 00       		.byte	0
 6265 03fc 3F       		.uleb128 0x3f
 6266 03fd 0C       		.uleb128 0xc
 6267 03fe 3C       		.uleb128 0x3c
 6268 03ff 0C       		.uleb128 0xc
 6269 0400 8740     		.uleb128 0x2007
 6270 0402 0E       		.uleb128 0xe
 6271 0403 03       		.uleb128 0x3
 6272 0404 0E       		.uleb128 0xe
 6273 0405 3A       		.uleb128 0x3a
 6274 0406 0B       		.uleb128 0xb
 6275 0407 3B       		.uleb128 0x3b
 6276 0408 05       		.uleb128 0x5
 6277 0409 39       		.uleb128 0x39
 6278 040a 0B       		.uleb128 0xb
 6279 040b 00       		.byte	0
 6280 040c 00       		.byte	0
 6281 040d 00       		.byte	0
 6282              		.section	.debug_loc,"",%progbits
 6283              	.Ldebug_loc0:
 6284              	.LVUS79:
 6285 0000 00       		.uleb128 0
ARM GAS  C:\Users\skey\AppData\Local\Temp\cceKeKCB.s 			page 137


 6286 0001 00       		.uleb128 .LVU418
 6287 0002 00       		.uleb128 .LVU418
 6288 0003 00       		.uleb128 0
 6289              	.LLST79:
 6290 0004 C0030000 		.4byte	.LVL116-.Ltext0
 6291 0008 C2030000 		.4byte	.LVL117-.Ltext0
 6292 000c 0100     		.2byte	0x1
 6293 000e 50       		.byte	0x50
 6294 000f C2030000 		.4byte	.LVL117-.Ltext0
 6295 0013 C4030000 		.4byte	.LFE55-.Ltext0
 6296 0017 0400     		.2byte	0x4
 6297 0019 F3       		.byte	0xf3
 6298 001a 01       		.uleb128 0x1
 6299 001b 50       		.byte	0x50
 6300 001c 9F       		.byte	0x9f
 6301 001d 00000000 		.4byte	0
 6302 0021 00000000 		.4byte	0
 6303              	.LLST75:
 6304 0025 AC030000 		.4byte	.LFB54-.Ltext0
 6305 0029 AE030000 		.4byte	.LCFI19-.Ltext0
 6306 002d 0200     		.2byte	0x2
 6307 002f 7D       		.byte	0x7d
 6308 0030 00       		.sleb128 0
 6309 0031 AE030000 		.4byte	.LCFI19-.Ltext0
 6310 0035 BC030000 		.4byte	.LCFI20-.Ltext0
 6311 0039 0200     		.2byte	0x2
 6312 003b 7D       		.byte	0x7d
 6313 003c 10       		.sleb128 16
 6314 003d BC030000 		.4byte	.LCFI20-.Ltext0
 6315 0041 C0030000 		.4byte	.LFE54-.Ltext0
 6316 0045 0200     		.2byte	0x2
 6317 0047 7D       		.byte	0x7d
 6318 0048 00       		.sleb128 0
 6319 0049 00000000 		.4byte	0
 6320 004d 00000000 		.4byte	0
 6321              	.LVUS76:
 6322 0051 00       		.uleb128 0
 6323 0052 00       		.uleb128 .LVU409
 6324 0053 00       		.uleb128 .LVU409
 6325 0054 00       		.uleb128 .LVU413
 6326 0055 00       		.uleb128 .LVU413
 6327 0056 00       		.uleb128 0
 6328              	.LLST76:
 6329 0057 AC030000 		.4byte	.LVL111-.Ltext0
 6330 005b B5030000 		.4byte	.LVL113-1-.Ltext0
 6331 005f 0100     		.2byte	0x1
 6332 0061 50       		.byte	0x50
 6333 0062 B5030000 		.4byte	.LVL113-1-.Ltext0
 6334 0066 BC030000 		.4byte	.LVL114-.Ltext0
 6335 006a 0100     		.2byte	0x1
 6336 006c 54       		.byte	0x54
 6337 006d BC030000 		.4byte	.LVL114-.Ltext0
 6338 0071 C0030000 		.4byte	.LFE54-.Ltext0
 6339 0075 0400     		.2byte	0x4
 6340 0077 F3       		.byte	0xf3
 6341 0078 01       		.uleb128 0x1
 6342 0079 50       		.byte	0x50
ARM GAS  C:\Users\skey\AppData\Local\Temp\cceKeKCB.s 			page 138


 6343 007a 9F       		.byte	0x9f
 6344 007b 00000000 		.4byte	0
 6345 007f 00000000 		.4byte	0
 6346              	.LVUS77:
 6347 0083 00       		.uleb128 0
 6348 0084 00       		.uleb128 .LVU409
 6349 0085 00       		.uleb128 .LVU409
 6350 0086 00       		.uleb128 .LVU413
 6351 0087 00       		.uleb128 .LVU413
 6352 0088 00       		.uleb128 .LVU414
 6353 0089 00       		.uleb128 .LVU414
 6354 008a 00       		.uleb128 0
 6355              	.LLST77:
 6356 008b AC030000 		.4byte	.LVL111-.Ltext0
 6357 008f B5030000 		.4byte	.LVL113-1-.Ltext0
 6358 0093 0100     		.2byte	0x1
 6359 0095 51       		.byte	0x51
 6360 0096 B5030000 		.4byte	.LVL113-1-.Ltext0
 6361 009a BC030000 		.4byte	.LVL114-.Ltext0
 6362 009e 0100     		.2byte	0x1
 6363 00a0 55       		.byte	0x55
 6364 00a1 BC030000 		.4byte	.LVL114-.Ltext0
 6365 00a5 BF030000 		.4byte	.LVL115-1-.Ltext0
 6366 00a9 0500     		.2byte	0x5
 6367 00ab F3       		.byte	0xf3
 6368 00ac 01       		.uleb128 0x1
 6369 00ad 50       		.byte	0x50
 6370 00ae 23       		.byte	0x23
 6371 00af 1C       		.uleb128 0x1c
 6372 00b0 BF030000 		.4byte	.LVL115-1-.Ltext0
 6373 00b4 C0030000 		.4byte	.LFE54-.Ltext0
 6374 00b8 0400     		.2byte	0x4
 6375 00ba F3       		.byte	0xf3
 6376 00bb 01       		.uleb128 0x1
 6377 00bc 51       		.byte	0x51
 6378 00bd 9F       		.byte	0x9f
 6379 00be 00000000 		.4byte	0
 6380 00c2 00000000 		.4byte	0
 6381              	.LVUS78:
 6382 00c6 00       		.uleb128 .LVU405
 6383 00c7 00       		.uleb128 .LVU409
 6384 00c8 00       		.uleb128 .LVU409
 6385 00c9 00       		.uleb128 .LVU413
 6386 00ca 00       		.uleb128 .LVU413
 6387 00cb 00       		.uleb128 0
 6388              	.LLST78:
 6389 00cc B0030000 		.4byte	.LVL112-.Ltext0
 6390 00d0 B5030000 		.4byte	.LVL113-1-.Ltext0
 6391 00d4 0100     		.2byte	0x1
 6392 00d6 50       		.byte	0x50
 6393 00d7 B5030000 		.4byte	.LVL113-1-.Ltext0
 6394 00db BC030000 		.4byte	.LVL114-.Ltext0
 6395 00df 0100     		.2byte	0x1
 6396 00e1 54       		.byte	0x54
 6397 00e2 BC030000 		.4byte	.LVL114-.Ltext0
 6398 00e6 C0030000 		.4byte	.LFE54-.Ltext0
 6399 00ea 0400     		.2byte	0x4
ARM GAS  C:\Users\skey\AppData\Local\Temp\cceKeKCB.s 			page 139


 6400 00ec F3       		.byte	0xf3
 6401 00ed 01       		.uleb128 0x1
 6402 00ee 50       		.byte	0x50
 6403 00ef 9F       		.byte	0x9f
 6404 00f0 00000000 		.4byte	0
 6405 00f4 00000000 		.4byte	0
 6406              	.LLST71:
 6407 00f8 9A030000 		.4byte	.LFB53-.Ltext0
 6408 00fc 9C030000 		.4byte	.LCFI18-.Ltext0
 6409 0100 0200     		.2byte	0x2
 6410 0102 7D       		.byte	0x7d
 6411 0103 00       		.sleb128 0
 6412 0104 9C030000 		.4byte	.LCFI18-.Ltext0
 6413 0108 AC030000 		.4byte	.LFE53-.Ltext0
 6414 010c 0200     		.2byte	0x2
 6415 010e 7D       		.byte	0x7d
 6416 010f 08       		.sleb128 8
 6417 0110 00000000 		.4byte	0
 6418 0114 00000000 		.4byte	0
 6419              	.LVUS72:
 6420 0118 00       		.uleb128 0
 6421 0119 00       		.uleb128 .LVU395
 6422 011a 00       		.uleb128 .LVU395
 6423 011b 00       		.uleb128 .LVU397
 6424 011c 00       		.uleb128 .LVU397
 6425 011d 00       		.uleb128 0
 6426              	.LLST72:
 6427 011e 9A030000 		.4byte	.LVL106-.Ltext0
 6428 0122 A1030000 		.4byte	.LVL108-1-.Ltext0
 6429 0126 0100     		.2byte	0x1
 6430 0128 50       		.byte	0x50
 6431 0129 A1030000 		.4byte	.LVL108-1-.Ltext0
 6432 012d A4030000 		.4byte	.LVL109-.Ltext0
 6433 0131 0100     		.2byte	0x1
 6434 0133 54       		.byte	0x54
 6435 0134 A4030000 		.4byte	.LVL109-.Ltext0
 6436 0138 AC030000 		.4byte	.LFE53-.Ltext0
 6437 013c 0400     		.2byte	0x4
 6438 013e F3       		.byte	0xf3
 6439 013f 01       		.uleb128 0x1
 6440 0140 50       		.byte	0x50
 6441 0141 9F       		.byte	0x9f
 6442 0142 00000000 		.4byte	0
 6443 0146 00000000 		.4byte	0
 6444              	.LVUS73:
 6445 014a 00       		.uleb128 .LVU392
 6446 014b 00       		.uleb128 .LVU395
 6447 014c 00       		.uleb128 .LVU395
 6448 014d 00       		.uleb128 .LVU397
 6449 014e 00       		.uleb128 .LVU397
 6450 014f 00       		.uleb128 0
 6451              	.LLST73:
 6452 0150 9E030000 		.4byte	.LVL107-.Ltext0
 6453 0154 A1030000 		.4byte	.LVL108-1-.Ltext0
 6454 0158 0100     		.2byte	0x1
 6455 015a 50       		.byte	0x50
 6456 015b A1030000 		.4byte	.LVL108-1-.Ltext0
ARM GAS  C:\Users\skey\AppData\Local\Temp\cceKeKCB.s 			page 140


 6457 015f A4030000 		.4byte	.LVL109-.Ltext0
 6458 0163 0100     		.2byte	0x1
 6459 0165 54       		.byte	0x54
 6460 0166 A4030000 		.4byte	.LVL109-.Ltext0
 6461 016a AC030000 		.4byte	.LFE53-.Ltext0
 6462 016e 0400     		.2byte	0x4
 6463 0170 F3       		.byte	0xf3
 6464 0171 01       		.uleb128 0x1
 6465 0172 50       		.byte	0x50
 6466 0173 9F       		.byte	0x9f
 6467 0174 00000000 		.4byte	0
 6468 0178 00000000 		.4byte	0
 6469              	.LVUS74:
 6470 017c 00       		.uleb128 .LVU397
 6471 017d 00       		.uleb128 0
 6472              	.LLST74:
 6473 017e A4030000 		.4byte	.LVL109-.Ltext0
 6474 0182 AC030000 		.4byte	.LFE53-.Ltext0
 6475 0186 0100     		.2byte	0x1
 6476 0188 54       		.byte	0x54
 6477 0189 00000000 		.4byte	0
 6478 018d 00000000 		.4byte	0
 6479              	.LLST67:
 6480 0191 82030000 		.4byte	.LFB52-.Ltext0
 6481 0195 84030000 		.4byte	.LCFI17-.Ltext0
 6482 0199 0200     		.2byte	0x2
 6483 019b 7D       		.byte	0x7d
 6484 019c 00       		.sleb128 0
 6485 019d 84030000 		.4byte	.LCFI17-.Ltext0
 6486 01a1 9A030000 		.4byte	.LFE52-.Ltext0
 6487 01a5 0200     		.2byte	0x2
 6488 01a7 7D       		.byte	0x7d
 6489 01a8 08       		.sleb128 8
 6490 01a9 00000000 		.4byte	0
 6491 01ad 00000000 		.4byte	0
 6492              	.LVUS68:
 6493 01b1 00       		.uleb128 0
 6494 01b2 00       		.uleb128 .LVU380
 6495 01b3 00       		.uleb128 .LVU380
 6496 01b4 00       		.uleb128 .LVU382
 6497 01b5 00       		.uleb128 .LVU382
 6498 01b6 00       		.uleb128 0
 6499              	.LLST68:
 6500 01b7 82030000 		.4byte	.LVL100-.Ltext0
 6501 01bb 89030000 		.4byte	.LVL102-1-.Ltext0
 6502 01bf 0100     		.2byte	0x1
 6503 01c1 50       		.byte	0x50
 6504 01c2 89030000 		.4byte	.LVL102-1-.Ltext0
 6505 01c6 8E030000 		.4byte	.LVL103-.Ltext0
 6506 01ca 0100     		.2byte	0x1
 6507 01cc 54       		.byte	0x54
 6508 01cd 8E030000 		.4byte	.LVL103-.Ltext0
 6509 01d1 9A030000 		.4byte	.LFE52-.Ltext0
 6510 01d5 0400     		.2byte	0x4
 6511 01d7 F3       		.byte	0xf3
 6512 01d8 01       		.uleb128 0x1
 6513 01d9 50       		.byte	0x50
ARM GAS  C:\Users\skey\AppData\Local\Temp\cceKeKCB.s 			page 141


 6514 01da 9F       		.byte	0x9f
 6515 01db 00000000 		.4byte	0
 6516 01df 00000000 		.4byte	0
 6517              	.LVUS69:
 6518 01e3 00       		.uleb128 .LVU384
 6519 01e4 00       		.uleb128 0
 6520              	.LLST69:
 6521 01e5 96030000 		.4byte	.LVL105-.Ltext0
 6522 01e9 9A030000 		.4byte	.LFE52-.Ltext0
 6523 01ed 0100     		.2byte	0x1
 6524 01ef 54       		.byte	0x54
 6525 01f0 00000000 		.4byte	0
 6526 01f4 00000000 		.4byte	0
 6527              	.LVUS70:
 6528 01f8 00       		.uleb128 .LVU378
 6529 01f9 00       		.uleb128 .LVU380
 6530 01fa 00       		.uleb128 .LVU380
 6531 01fb 00       		.uleb128 .LVU382
 6532 01fc 00       		.uleb128 .LVU382
 6533 01fd 00       		.uleb128 0
 6534              	.LLST70:
 6535 01fe 86030000 		.4byte	.LVL101-.Ltext0
 6536 0202 89030000 		.4byte	.LVL102-1-.Ltext0
 6537 0206 0100     		.2byte	0x1
 6538 0208 50       		.byte	0x50
 6539 0209 89030000 		.4byte	.LVL102-1-.Ltext0
 6540 020d 8E030000 		.4byte	.LVL103-.Ltext0
 6541 0211 0100     		.2byte	0x1
 6542 0213 54       		.byte	0x54
 6543 0214 8E030000 		.4byte	.LVL103-.Ltext0
 6544 0218 9A030000 		.4byte	.LFE52-.Ltext0
 6545 021c 0400     		.2byte	0x4
 6546 021e F3       		.byte	0xf3
 6547 021f 01       		.uleb128 0x1
 6548 0220 50       		.byte	0x50
 6549 0221 9F       		.byte	0x9f
 6550 0222 00000000 		.4byte	0
 6551 0226 00000000 		.4byte	0
 6552              	.LLST0:
 6553 022a 00000000 		.4byte	.LFB51-.Ltext0
 6554 022e 02000000 		.4byte	.LCFI0-.Ltext0
 6555 0232 0200     		.2byte	0x2
 6556 0234 7D       		.byte	0x7d
 6557 0235 00       		.sleb128 0
 6558 0236 02000000 		.4byte	.LCFI0-.Ltext0
 6559 023a 32000000 		.4byte	.LCFI1-.Ltext0
 6560 023e 0200     		.2byte	0x2
 6561 0240 7D       		.byte	0x7d
 6562 0241 18       		.sleb128 24
 6563 0242 32000000 		.4byte	.LCFI1-.Ltext0
 6564 0246 3C000000 		.4byte	.LFE51-.Ltext0
 6565 024a 0200     		.2byte	0x2
 6566 024c 7D       		.byte	0x7d
 6567 024d 00       		.sleb128 0
 6568 024e 00000000 		.4byte	0
 6569 0252 00000000 		.4byte	0
 6570              	.LLST32:
ARM GAS  C:\Users\skey\AppData\Local\Temp\cceKeKCB.s 			page 142


 6571 0256 30010000 		.4byte	.LFB50-.Ltext0
 6572 025a 34010000 		.4byte	.LCFI9-.Ltext0
 6573 025e 0200     		.2byte	0x2
 6574 0260 7D       		.byte	0x7d
 6575 0261 00       		.sleb128 0
 6576 0262 34010000 		.4byte	.LCFI9-.Ltext0
 6577 0266 48010000 		.4byte	.LCFI10-.Ltext0
 6578 026a 0200     		.2byte	0x2
 6579 026c 7D       		.byte	0x7d
 6580 026d 20       		.sleb128 32
 6581 026e 48010000 		.4byte	.LCFI10-.Ltext0
 6582 0272 4C010000 		.4byte	.LCFI11-.Ltext0
 6583 0276 0200     		.2byte	0x2
 6584 0278 7D       		.byte	0x7d
 6585 0279 18       		.sleb128 24
 6586 027a 4C010000 		.4byte	.LCFI11-.Ltext0
 6587 027e 94010000 		.4byte	.LFE50-.Ltext0
 6588 0282 0200     		.2byte	0x2
 6589 0284 7D       		.byte	0x7d
 6590 0285 20       		.sleb128 32
 6591 0286 00000000 		.4byte	0
 6592 028a 00000000 		.4byte	0
 6593              	.LVUS33:
 6594 028e 00       		.uleb128 .LVU149
 6595 028f 00       		.uleb128 0
 6596              	.LLST33:
 6597 0290 52010000 		.4byte	.LVL39-.Ltext0
 6598 0294 94010000 		.4byte	.LFE50-.Ltext0
 6599 0298 0100     		.2byte	0x1
 6600 029a 56       		.byte	0x56
 6601 029b 00000000 		.4byte	0
 6602 029f 00000000 		.4byte	0
 6603              	.LVUS34:
 6604 02a3 00       		.uleb128 .LVU158
 6605 02a4 00       		.uleb128 .LVU165
 6606 02a5 00       		.uleb128 .LVU166
 6607 02a6 00       		.uleb128 .LVU168
 6608 02a7 00       		.uleb128 .LVU168
 6609 02a8 00       		.uleb128 .LVU169
 6610              	.LLST34:
 6611 02a9 6C010000 		.4byte	.LVL42-.Ltext0
 6612 02ad 7B010000 		.4byte	.LVL43-1-.Ltext0
 6613 02b1 0100     		.2byte	0x1
 6614 02b3 53       		.byte	0x53
 6615 02b4 7E010000 		.4byte	.LVL44-.Ltext0
 6616 02b8 80010000 		.4byte	.LVL45-.Ltext0
 6617 02bc 0100     		.2byte	0x1
 6618 02be 53       		.byte	0x53
 6619 02bf 80010000 		.4byte	.LVL45-.Ltext0
 6620 02c3 8A010000 		.4byte	.LVL46-.Ltext0
 6621 02c7 0700     		.2byte	0x7
 6622 02c9 74       		.byte	0x74
 6623 02ca 18       		.sleb128 24
 6624 02cb 06       		.byte	0x6
 6625 02cc 76       		.byte	0x76
 6626 02cd 00       		.sleb128 0
 6627 02ce 22       		.byte	0x22
ARM GAS  C:\Users\skey\AppData\Local\Temp\cceKeKCB.s 			page 143


 6628 02cf 9F       		.byte	0x9f
 6629 02d0 00000000 		.4byte	0
 6630 02d4 00000000 		.4byte	0
 6631              	.LVUS35:
 6632 02d8 01       		.uleb128 .LVU141
 6633 02d9 00       		.uleb128 .LVU145
 6634              	.LLST35:
 6635 02da 40010000 		.4byte	.LVL37-.Ltext0
 6636 02de 4C010000 		.4byte	.LVL38-.Ltext0
 6637 02e2 0100     		.2byte	0x1
 6638 02e4 53       		.byte	0x53
 6639 02e5 00000000 		.4byte	0
 6640 02e9 00000000 		.4byte	0
 6641              	.LVUS36:
 6642 02ed 01       		.uleb128 .LVU150
 6643 02ee 00       		.uleb128 0
 6644              	.LLST36:
 6645 02ef 52010000 		.4byte	.LVL39-.Ltext0
 6646 02f3 94010000 		.4byte	.LFE50-.Ltext0
 6647 02f7 0100     		.2byte	0x1
 6648 02f9 54       		.byte	0x54
 6649 02fa 00000000 		.4byte	0
 6650 02fe 00000000 		.4byte	0
 6651              	.LLST37:
 6652 0302 94010000 		.4byte	.LFB44-.Ltext0
 6653 0306 98010000 		.4byte	.LCFI12-.Ltext0
 6654 030a 0200     		.2byte	0x2
 6655 030c 7D       		.byte	0x7d
 6656 030d 00       		.sleb128 0
 6657 030e 98010000 		.4byte	.LCFI12-.Ltext0
 6658 0312 A2010000 		.4byte	.LCFI13-.Ltext0
 6659 0316 0200     		.2byte	0x2
 6660 0318 7D       		.byte	0x7d
 6661 0319 20       		.sleb128 32
 6662 031a A2010000 		.4byte	.LCFI13-.Ltext0
 6663 031e 44030000 		.4byte	.LFE44-.Ltext0
 6664 0322 0200     		.2byte	0x2
 6665 0324 7D       		.byte	0x7d
 6666 0325 38       		.sleb128 56
 6667 0326 00000000 		.4byte	0
 6668 032a 00000000 		.4byte	0
 6669              	.LVUS38:
 6670 032e 00       		.uleb128 0
 6671 032f 00       		.uleb128 .LVU175
 6672 0330 00       		.uleb128 .LVU175
 6673 0331 00       		.uleb128 0
 6674              	.LLST38:
 6675 0332 94010000 		.4byte	.LVL48-.Ltext0
 6676 0336 A2010000 		.4byte	.LVL49-.Ltext0
 6677 033a 0100     		.2byte	0x1
 6678 033c 50       		.byte	0x50
 6679 033d A2010000 		.4byte	.LVL49-.Ltext0
 6680 0341 44030000 		.4byte	.LFE44-.Ltext0
 6681 0345 0400     		.2byte	0x4
 6682 0347 F3       		.byte	0xf3
 6683 0348 01       		.uleb128 0x1
 6684 0349 50       		.byte	0x50
ARM GAS  C:\Users\skey\AppData\Local\Temp\cceKeKCB.s 			page 144


 6685 034a 9F       		.byte	0x9f
 6686 034b 00000000 		.4byte	0
 6687 034f 00000000 		.4byte	0
 6688              	.LVUS39:
 6689 0353 01       		.uleb128 .LVU189
 6690 0354 00       		.uleb128 .LVU225
 6691 0355 00       		.uleb128 .LVU227
 6692 0356 00       		.uleb128 .LVU268
 6693              	.LLST39:
 6694 0357 AE010000 		.4byte	.LVL51-.Ltext0
 6695 035b F0010000 		.4byte	.LVL62-.Ltext0
 6696 035f 0100     		.2byte	0x1
 6697 0361 56       		.byte	0x56
 6698 0362 F4010000 		.4byte	.LVL63-.Ltext0
 6699 0366 5A020000 		.4byte	.LVL75-.Ltext0
 6700 036a 0100     		.2byte	0x1
 6701 036c 56       		.byte	0x56
 6702 036d 00000000 		.4byte	0
 6703 0371 00000000 		.4byte	0
 6704              	.LVUS40:
 6705 0375 00       		.uleb128 .LVU184
 6706 0376 00       		.uleb128 .LVU188
 6707              	.LLST40:
 6708 0377 A8010000 		.4byte	.LVL50-.Ltext0
 6709 037b AE010000 		.4byte	.LVL51-.Ltext0
 6710 037f 0200     		.2byte	0x2
 6711 0381 30       		.byte	0x30
 6712 0382 9F       		.byte	0x9f
 6713 0383 00000000 		.4byte	0
 6714 0387 00000000 		.4byte	0
 6715              	.LVUS41:
 6716 038b 05       		.uleb128 .LVU180
 6717 038c 01       		.uleb128 .LVU189
 6718 038d 00       		.uleb128 .LVU225
 6719 038e 00       		.uleb128 .LVU227
 6720              	.LLST41:
 6721 038f A2010000 		.4byte	.LVL49-.Ltext0
 6722 0393 AE010000 		.4byte	.LVL51-.Ltext0
 6723 0397 0600     		.2byte	0x6
 6724 0399 F2       		.byte	0xf2
 6725 039a 4E120000 		.4byte	.Ldebug_info0+4686
 6726 039e 00       		.sleb128 0
 6727 039f F0010000 		.4byte	.LVL62-.Ltext0
 6728 03a3 F4010000 		.4byte	.LVL63-.Ltext0
 6729 03a7 0600     		.2byte	0x6
 6730 03a9 F2       		.byte	0xf2
 6731 03aa 4E120000 		.4byte	.Ldebug_info0+4686
 6732 03ae 00       		.sleb128 0
 6733 03af 00000000 		.4byte	0
 6734 03b3 00000000 		.4byte	0
 6735              	.LVUS42:
 6736 03b7 00       		.uleb128 .LVU188
 6737 03b8 01       		.uleb128 .LVU189
 6738              	.LLST42:
 6739 03b9 AE010000 		.4byte	.LVL51-.Ltext0
 6740 03bd AE010000 		.4byte	.LVL51-.Ltext0
 6741 03c1 0100     		.2byte	0x1
ARM GAS  C:\Users\skey\AppData\Local\Temp\cceKeKCB.s 			page 145


 6742 03c3 56       		.byte	0x56
 6743 03c4 00000000 		.4byte	0
 6744 03c8 00000000 		.4byte	0
 6745              	.LVUS43:
 6746 03cc 03       		.uleb128 .LVU191
 6747 03cd 00       		.uleb128 .LVU215
 6748 03ce 00       		.uleb128 .LVU216
 6749 03cf 00       		.uleb128 .LVU225
 6750 03d0 00       		.uleb128 .LVU227
 6751 03d1 00       		.uleb128 .LVU239
 6752 03d2 00       		.uleb128 .LVU240
 6753 03d3 00       		.uleb128 .LVU268
 6754              	.LLST43:
 6755 03d4 AE010000 		.4byte	.LVL51-.Ltext0
 6756 03d8 C6010000 		.4byte	.LVL57-.Ltext0
 6757 03dc 0100     		.2byte	0x1
 6758 03de 54       		.byte	0x54
 6759 03df CC010000 		.4byte	.LVL58-.Ltext0
 6760 03e3 F0010000 		.4byte	.LVL62-.Ltext0
 6761 03e7 0100     		.2byte	0x1
 6762 03e9 54       		.byte	0x54
 6763 03ea F4010000 		.4byte	.LVL63-.Ltext0
 6764 03ee 04020000 		.4byte	.LVL67-.Ltext0
 6765 03f2 0100     		.2byte	0x1
 6766 03f4 54       		.byte	0x54
 6767 03f5 06020000 		.4byte	.LVL68-.Ltext0
 6768 03f9 5A020000 		.4byte	.LVL75-.Ltext0
 6769 03fd 0100     		.2byte	0x1
 6770 03ff 54       		.byte	0x54
 6771 0400 00000000 		.4byte	0
 6772 0404 00000000 		.4byte	0
 6773              	.LVUS44:
 6774 0408 03       		.uleb128 .LVU191
 6775 0409 00       		.uleb128 .LVU225
 6776 040a 00       		.uleb128 .LVU227
 6777 040b 00       		.uleb128 .LVU239
 6778 040c 00       		.uleb128 .LVU240
 6779 040d 00       		.uleb128 .LVU268
 6780              	.LLST44:
 6781 040e AE010000 		.4byte	.LVL51-.Ltext0
 6782 0412 F0010000 		.4byte	.LVL62-.Ltext0
 6783 0416 0100     		.2byte	0x1
 6784 0418 56       		.byte	0x56
 6785 0419 F4010000 		.4byte	.LVL63-.Ltext0
 6786 041d 04020000 		.4byte	.LVL67-.Ltext0
 6787 0421 0100     		.2byte	0x1
 6788 0423 56       		.byte	0x56
 6789 0424 06020000 		.4byte	.LVL68-.Ltext0
 6790 0428 5A020000 		.4byte	.LVL75-.Ltext0
 6791 042c 0100     		.2byte	0x1
 6792 042e 56       		.byte	0x56
 6793 042f 00000000 		.4byte	0
 6794 0433 00000000 		.4byte	0
 6795              	.LVUS45:
 6796 0437 01       		.uleb128 .LVU208
 6797 0438 00       		.uleb128 .LVU217
 6798 0439 00       		.uleb128 .LVU217
ARM GAS  C:\Users\skey\AppData\Local\Temp\cceKeKCB.s 			page 146


 6799 043a 00       		.uleb128 .LVU225
 6800 043b 01       		.uleb128 .LVU233
 6801 043c 00       		.uleb128 .LVU239
 6802 043d 00       		.uleb128 .LVU240
 6803 043e 00       		.uleb128 .LVU244
 6804 043f 00       		.uleb128 .LVU244
 6805 0440 00       		.uleb128 .LVU268
 6806              	.LLST45:
 6807 0441 C0010000 		.4byte	.LVL56-.Ltext0
 6808 0445 D0010000 		.4byte	.LVL59-.Ltext0
 6809 0449 0100     		.2byte	0x1
 6810 044b 50       		.byte	0x50
 6811 044c D0010000 		.4byte	.LVL59-.Ltext0
 6812 0450 F0010000 		.4byte	.LVL62-.Ltext0
 6813 0454 0100     		.2byte	0x1
 6814 0456 5A       		.byte	0x5a
 6815 0457 FC010000 		.4byte	.LVL65-.Ltext0
 6816 045b 04020000 		.4byte	.LVL67-.Ltext0
 6817 045f 0100     		.2byte	0x1
 6818 0461 5A       		.byte	0x5a
 6819 0462 06020000 		.4byte	.LVL68-.Ltext0
 6820 0466 0D020000 		.4byte	.LVL69-1-.Ltext0
 6821 046a 0100     		.2byte	0x1
 6822 046c 50       		.byte	0x50
 6823 046d 0D020000 		.4byte	.LVL69-1-.Ltext0
 6824 0471 5A020000 		.4byte	.LVL75-.Ltext0
 6825 0475 0100     		.2byte	0x1
 6826 0477 5A       		.byte	0x5a
 6827 0478 00000000 		.4byte	0
 6828 047c 00000000 		.4byte	0
 6829              	.LVUS46:
 6830 0480 00       		.uleb128 .LVU205
 6831 0481 00       		.uleb128 .LVU225
 6832 0482 01       		.uleb128 .LVU230
 6833 0483 00       		.uleb128 .LVU237
 6834 0484 00       		.uleb128 .LVU240
 6835 0485 00       		.uleb128 .LVU268
 6836              	.LLST46:
 6837 0486 BE010000 		.4byte	.LVL55-.Ltext0
 6838 048a F0010000 		.4byte	.LVL62-.Ltext0
 6839 048e 0200     		.2byte	0x2
 6840 0490 30       		.byte	0x30
 6841 0491 9F       		.byte	0x9f
 6842 0492 F8010000 		.4byte	.LVL64-.Ltext0
 6843 0496 00020000 		.4byte	.LVL66-.Ltext0
 6844 049a 0200     		.2byte	0x2
 6845 049c 31       		.byte	0x31
 6846 049d 9F       		.byte	0x9f
 6847 049e 06020000 		.4byte	.LVL68-.Ltext0
 6848 04a2 5A020000 		.4byte	.LVL75-.Ltext0
 6849 04a6 0200     		.2byte	0x2
 6850 04a8 30       		.byte	0x30
 6851 04a9 9F       		.byte	0x9f
 6852 04aa 00000000 		.4byte	0
 6853 04ae 00000000 		.4byte	0
 6854              	.LVUS47:
 6855 04b2 01       		.uleb128 .LVU196
ARM GAS  C:\Users\skey\AppData\Local\Temp\cceKeKCB.s 			page 147


 6856 04b3 01       		.uleb128 .LVU208
 6857 04b4 00       		.uleb128 .LVU227
 6858 04b5 01       		.uleb128 .LVU233
 6859              	.LLST47:
 6860 04b6 B2010000 		.4byte	.LVL52-.Ltext0
 6861 04ba C0010000 		.4byte	.LVL56-.Ltext0
 6862 04be 0600     		.2byte	0x6
 6863 04c0 F2       		.byte	0xf2
 6864 04c1 DC120000 		.4byte	.Ldebug_info0+4828
 6865 04c5 00       		.sleb128 0
 6866 04c6 F4010000 		.4byte	.LVL63-.Ltext0
 6867 04ca FC010000 		.4byte	.LVL65-.Ltext0
 6868 04ce 0600     		.2byte	0x6
 6869 04d0 F2       		.byte	0xf2
 6870 04d1 DC120000 		.4byte	.Ldebug_info0+4828
 6871 04d5 00       		.sleb128 0
 6872 04d6 00000000 		.4byte	0
 6873 04da 00000000 		.4byte	0
 6874              	.LVUS48:
 6875 04de 00       		.uleb128 .LVU203
 6876 04df 01       		.uleb128 .LVU208
 6877 04e0 00       		.uleb128 .LVU227
 6878 04e1 00       		.uleb128 .LVU229
 6879 04e2 00       		.uleb128 .LVU229
 6880 04e3 01       		.uleb128 .LVU233
 6881              	.LLST48:
 6882 04e4 BA010000 		.4byte	.LVL54-.Ltext0
 6883 04e8 C0010000 		.4byte	.LVL56-.Ltext0
 6884 04ec 0100     		.2byte	0x1
 6885 04ee 50       		.byte	0x50
 6886 04ef F4010000 		.4byte	.LVL63-.Ltext0
 6887 04f3 F7010000 		.4byte	.LVL64-1-.Ltext0
 6888 04f7 0100     		.2byte	0x1
 6889 04f9 50       		.byte	0x50
 6890 04fa F7010000 		.4byte	.LVL64-1-.Ltext0
 6891 04fe FC010000 		.4byte	.LVL65-.Ltext0
 6892 0502 0100     		.2byte	0x1
 6893 0504 5A       		.byte	0x5a
 6894 0505 00000000 		.4byte	0
 6895 0509 00000000 		.4byte	0
 6896              	.LVUS49:
 6897 050d 01       		.uleb128 .LVU245
 6898 050e 00       		.uleb128 .LVU268
 6899              	.LLST49:
 6900 050f 0E020000 		.4byte	.LVL69-.Ltext0
 6901 0513 5A020000 		.4byte	.LVL75-.Ltext0
 6902 0517 0100     		.2byte	0x1
 6903 0519 5A       		.byte	0x5a
 6904 051a 00000000 		.4byte	0
 6905 051e 00000000 		.4byte	0
 6906              	.LVUS50:
 6907 0522 01       		.uleb128 .LVU245
 6908 0523 00       		.uleb128 .LVU268
 6909              	.LLST50:
 6910 0524 0E020000 		.4byte	.LVL69-.Ltext0
 6911 0528 5A020000 		.4byte	.LVL75-.Ltext0
 6912 052c 0100     		.2byte	0x1
ARM GAS  C:\Users\skey\AppData\Local\Temp\cceKeKCB.s 			page 148


 6913 052e 56       		.byte	0x56
 6914 052f 00000000 		.4byte	0
 6915 0533 00000000 		.4byte	0
 6916              	.LVUS51:
 6917 0537 00       		.uleb128 .LVU250
 6918 0538 00       		.uleb128 .LVU268
 6919              	.LLST51:
 6920 0539 16020000 		.4byte	.LVL70-.Ltext0
 6921 053d 5A020000 		.4byte	.LVL75-.Ltext0
 6922 0541 0100     		.2byte	0x1
 6923 0543 59       		.byte	0x59
 6924 0544 00000000 		.4byte	0
 6925 0548 00000000 		.4byte	0
 6926              	.LVUS52:
 6927 054c 00       		.uleb128 .LVU268
 6928 054d 02       		.uleb128 .LVU284
 6929 054e 00       		.uleb128 .LVU291
 6930 054f 00       		.uleb128 0
 6931              	.LLST52:
 6932 0550 5A020000 		.4byte	.LVL75-.Ltext0
 6933 0554 98020000 		.4byte	.LVL78-.Ltext0
 6934 0558 0100     		.2byte	0x1
 6935 055a 54       		.byte	0x54
 6936 055b B0020000 		.4byte	.LVL80-.Ltext0
 6937 055f 44030000 		.4byte	.LFE44-.Ltext0
 6938 0563 0100     		.2byte	0x1
 6939 0565 54       		.byte	0x54
 6940 0566 00000000 		.4byte	0
 6941 056a 00000000 		.4byte	0
 6942              	.LVUS53:
 6943 056e 00       		.uleb128 .LVU268
 6944 056f 02       		.uleb128 .LVU284
 6945 0570 01       		.uleb128 .LVU312
 6946 0571 00       		.uleb128 .LVU314
 6947 0572 00       		.uleb128 .LVU314
 6948 0573 00       		.uleb128 0
 6949              	.LLST53:
 6950 0574 5A020000 		.4byte	.LVL75-.Ltext0
 6951 0578 98020000 		.4byte	.LVL78-.Ltext0
 6952 057c 0100     		.2byte	0x1
 6953 057e 56       		.byte	0x56
 6954 057f CE020000 		.4byte	.LVL85-.Ltext0
 6955 0583 00030000 		.4byte	.LVL86-.Ltext0
 6956 0587 0500     		.2byte	0x5
 6957 0589 03       		.byte	0x3
 6958 058a 38000000 		.4byte	xLastTime.7797
 6959 058e 00030000 		.4byte	.LVL86-.Ltext0
 6960 0592 44030000 		.4byte	.LFE44-.Ltext0
 6961 0596 0100     		.2byte	0x1
 6962 0598 56       		.byte	0x56
 6963 0599 00000000 		.4byte	0
 6964 059d 00000000 		.4byte	0
 6965              	.LVUS54:
 6966 05a1 03       		.uleb128 .LVU298
 6967 05a2 01       		.uleb128 .LVU312
 6968              	.LLST54:
 6969 05a3 BA020000 		.4byte	.LVL81-.Ltext0
ARM GAS  C:\Users\skey\AppData\Local\Temp\cceKeKCB.s 			page 149


 6970 05a7 CE020000 		.4byte	.LVL85-.Ltext0
 6971 05ab 0600     		.2byte	0x6
 6972 05ad F2       		.byte	0xf2
 6973 05ae 50140000 		.4byte	.Ldebug_info0+5200
 6974 05b2 00       		.sleb128 0
 6975 05b3 00000000 		.4byte	0
 6976 05b7 00000000 		.4byte	0
 6977              	.LVUS55:
 6978 05bb 00       		.uleb128 .LVU305
 6979 05bc 00       		.uleb128 .LVU308
 6980 05bd 00       		.uleb128 .LVU308
 6981 05be 01       		.uleb128 .LVU312
 6982              	.LLST55:
 6983 05bf C2020000 		.4byte	.LVL83-.Ltext0
 6984 05c3 C9020000 		.4byte	.LVL84-1-.Ltext0
 6985 05c7 0100     		.2byte	0x1
 6986 05c9 50       		.byte	0x50
 6987 05ca C9020000 		.4byte	.LVL84-1-.Ltext0
 6988 05ce CE020000 		.4byte	.LVL85-.Ltext0
 6989 05d2 0100     		.2byte	0x1
 6990 05d4 56       		.byte	0x56
 6991 05d5 00000000 		.4byte	0
 6992 05d9 00000000 		.4byte	0
 6993              	.LVUS65:
 6994 05dd 00       		.uleb128 0
 6995 05de 00       		.uleb128 .LVU372
 6996 05df 00       		.uleb128 .LVU372
 6997 05e0 00       		.uleb128 0
 6998              	.LLST65:
 6999 05e1 7E030000 		.4byte	.LVL98-.Ltext0
 7000 05e5 80030000 		.4byte	.LVL99-.Ltext0
 7001 05e9 0100     		.2byte	0x1
 7002 05eb 50       		.byte	0x50
 7003 05ec 80030000 		.4byte	.LVL99-.Ltext0
 7004 05f0 82030000 		.4byte	.LFE42-.Ltext0
 7005 05f4 0400     		.2byte	0x4
 7006 05f6 F3       		.byte	0xf3
 7007 05f7 01       		.uleb128 0x1
 7008 05f8 50       		.byte	0x50
 7009 05f9 9F       		.byte	0x9f
 7010 05fa 00000000 		.4byte	0
 7011 05fe 00000000 		.4byte	0
 7012              	.LVUS66:
 7013 0602 02       		.uleb128 .LVU369
 7014 0603 00       		.uleb128 .LVU372
 7015 0604 00       		.uleb128 .LVU372
 7016 0605 00       		.uleb128 0
 7017              	.LLST66:
 7018 0606 7E030000 		.4byte	.LVL98-.Ltext0
 7019 060a 80030000 		.4byte	.LVL99-.Ltext0
 7020 060e 0100     		.2byte	0x1
 7021 0610 50       		.byte	0x50
 7022 0611 80030000 		.4byte	.LVL99-.Ltext0
 7023 0615 82030000 		.4byte	.LFE42-.Ltext0
 7024 0619 0400     		.2byte	0x4
 7025 061b F3       		.byte	0xf3
 7026 061c 01       		.uleb128 0x1
ARM GAS  C:\Users\skey\AppData\Local\Temp\cceKeKCB.s 			page 150


 7027 061d 50       		.byte	0x50
 7028 061e 9F       		.byte	0x9f
 7029 061f 00000000 		.4byte	0
 7030 0623 00000000 		.4byte	0
 7031              	.LVUS62:
 7032 0627 00       		.uleb128 0
 7033 0628 00       		.uleb128 .LVU366
 7034 0629 00       		.uleb128 .LVU366
 7035 062a 00       		.uleb128 0
 7036              	.LLST62:
 7037 062b 7A030000 		.4byte	.LVL96-.Ltext0
 7038 062f 7C030000 		.4byte	.LVL97-.Ltext0
 7039 0633 0100     		.2byte	0x1
 7040 0635 50       		.byte	0x50
 7041 0636 7C030000 		.4byte	.LVL97-.Ltext0
 7042 063a 7E030000 		.4byte	.LFE41-.Ltext0
 7043 063e 0400     		.2byte	0x4
 7044 0640 F3       		.byte	0xf3
 7045 0641 01       		.uleb128 0x1
 7046 0642 50       		.byte	0x50
 7047 0643 9F       		.byte	0x9f
 7048 0644 00000000 		.4byte	0
 7049 0648 00000000 		.4byte	0
 7050              	.LVUS63:
 7051 064c 02       		.uleb128 .LVU361
 7052 064d 00       		.uleb128 .LVU366
 7053 064e 00       		.uleb128 .LVU366
 7054 064f 00       		.uleb128 0
 7055              	.LLST63:
 7056 0650 7A030000 		.4byte	.LVL96-.Ltext0
 7057 0654 7C030000 		.4byte	.LVL97-.Ltext0
 7058 0658 0100     		.2byte	0x1
 7059 065a 50       		.byte	0x50
 7060 065b 7C030000 		.4byte	.LVL97-.Ltext0
 7061 065f 7E030000 		.4byte	.LFE41-.Ltext0
 7062 0663 0400     		.2byte	0x4
 7063 0665 F3       		.byte	0xf3
 7064 0666 01       		.uleb128 0x1
 7065 0667 50       		.byte	0x50
 7066 0668 9F       		.byte	0x9f
 7067 0669 00000000 		.4byte	0
 7068 066d 00000000 		.4byte	0
 7069              	.LVUS64:
 7070 0671 05       		.uleb128 .LVU364
 7071 0672 00       		.uleb128 .LVU366
 7072 0673 00       		.uleb128 .LVU366
 7073 0674 00       		.uleb128 0
 7074              	.LLST64:
 7075 0675 7A030000 		.4byte	.LVL96-.Ltext0
 7076 0679 7C030000 		.4byte	.LVL97-.Ltext0
 7077 067d 0200     		.2byte	0x2
 7078 067f 70       		.byte	0x70
 7079 0680 04       		.sleb128 4
 7080 0681 7C030000 		.4byte	.LVL97-.Ltext0
 7081 0685 7E030000 		.4byte	.LFE41-.Ltext0
 7082 0689 0100     		.2byte	0x1
 7083 068b 50       		.byte	0x50
ARM GAS  C:\Users\skey\AppData\Local\Temp\cceKeKCB.s 			page 151


 7084 068c 00000000 		.4byte	0
 7085 0690 00000000 		.4byte	0
 7086              	.LLST58:
 7087 0694 54030000 		.4byte	.LFB40-.Ltext0
 7088 0698 56030000 		.4byte	.LCFI14-.Ltext0
 7089 069c 0200     		.2byte	0x2
 7090 069e 7D       		.byte	0x7d
 7091 069f 00       		.sleb128 0
 7092 06a0 56030000 		.4byte	.LCFI14-.Ltext0
 7093 06a4 70030000 		.4byte	.LCFI15-.Ltext0
 7094 06a8 0200     		.2byte	0x2
 7095 06aa 7D       		.byte	0x7d
 7096 06ab 10       		.sleb128 16
 7097 06ac 70030000 		.4byte	.LCFI15-.Ltext0
 7098 06b0 74030000 		.4byte	.LCFI16-.Ltext0
 7099 06b4 0200     		.2byte	0x2
 7100 06b6 7D       		.byte	0x7d
 7101 06b7 00       		.sleb128 0
 7102 06b8 74030000 		.4byte	.LCFI16-.Ltext0
 7103 06bc 7A030000 		.4byte	.LFE40-.Ltext0
 7104 06c0 0200     		.2byte	0x2
 7105 06c2 7D       		.byte	0x7d
 7106 06c3 10       		.sleb128 16
 7107 06c4 00000000 		.4byte	0
 7108 06c8 00000000 		.4byte	0
 7109              	.LVUS59:
 7110 06cc 00       		.uleb128 0
 7111 06cd 00       		.uleb128 .LVU350
 7112 06ce 00       		.uleb128 .LVU350
 7113 06cf 00       		.uleb128 .LVU356
 7114 06d0 00       		.uleb128 .LVU356
 7115 06d1 00       		.uleb128 .LVU357
 7116 06d2 00       		.uleb128 .LVU357
 7117 06d3 00       		.uleb128 0
 7118              	.LLST59:
 7119 06d4 54030000 		.4byte	.LVL91-.Ltext0
 7120 06d8 5D030000 		.4byte	.LVL93-1-.Ltext0
 7121 06dc 0100     		.2byte	0x1
 7122 06de 50       		.byte	0x50
 7123 06df 5D030000 		.4byte	.LVL93-1-.Ltext0
 7124 06e3 70030000 		.4byte	.LVL94-.Ltext0
 7125 06e7 0100     		.2byte	0x1
 7126 06e9 54       		.byte	0x54
 7127 06ea 70030000 		.4byte	.LVL94-.Ltext0
 7128 06ee 74030000 		.4byte	.LVL95-.Ltext0
 7129 06f2 0400     		.2byte	0x4
 7130 06f4 F3       		.byte	0xf3
 7131 06f5 01       		.uleb128 0x1
 7132 06f6 50       		.byte	0x50
 7133 06f7 9F       		.byte	0x9f
 7134 06f8 74030000 		.4byte	.LVL95-.Ltext0
 7135 06fc 7A030000 		.4byte	.LFE40-.Ltext0
 7136 0700 0100     		.2byte	0x1
 7137 0702 54       		.byte	0x54
 7138 0703 00000000 		.4byte	0
 7139 0707 00000000 		.4byte	0
 7140              	.LVUS60:
ARM GAS  C:\Users\skey\AppData\Local\Temp\cceKeKCB.s 			page 152


 7141 070b 00       		.uleb128 0
 7142 070c 00       		.uleb128 .LVU350
 7143 070d 00       		.uleb128 .LVU350
 7144 070e 00       		.uleb128 .LVU356
 7145 070f 00       		.uleb128 .LVU356
 7146 0710 00       		.uleb128 .LVU357
 7147 0711 00       		.uleb128 .LVU357
 7148 0712 00       		.uleb128 0
 7149              	.LLST60:
 7150 0713 54030000 		.4byte	.LVL91-.Ltext0
 7151 0717 5D030000 		.4byte	.LVL93-1-.Ltext0
 7152 071b 0100     		.2byte	0x1
 7153 071d 51       		.byte	0x51
 7154 071e 5D030000 		.4byte	.LVL93-1-.Ltext0
 7155 0722 70030000 		.4byte	.LVL94-.Ltext0
 7156 0726 0100     		.2byte	0x1
 7157 0728 55       		.byte	0x55
 7158 0729 70030000 		.4byte	.LVL94-.Ltext0
 7159 072d 74030000 		.4byte	.LVL95-.Ltext0
 7160 0731 0400     		.2byte	0x4
 7161 0733 F3       		.byte	0xf3
 7162 0734 01       		.uleb128 0x1
 7163 0735 51       		.byte	0x51
 7164 0736 9F       		.byte	0x9f
 7165 0737 74030000 		.4byte	.LVL95-.Ltext0
 7166 073b 7A030000 		.4byte	.LFE40-.Ltext0
 7167 073f 0100     		.2byte	0x1
 7168 0741 55       		.byte	0x55
 7169 0742 00000000 		.4byte	0
 7170 0746 00000000 		.4byte	0
 7171              	.LVUS61:
 7172 074a 00       		.uleb128 .LVU346
 7173 074b 00       		.uleb128 .LVU350
 7174 074c 00       		.uleb128 .LVU350
 7175 074d 00       		.uleb128 .LVU356
 7176 074e 00       		.uleb128 .LVU356
 7177 074f 00       		.uleb128 .LVU357
 7178 0750 00       		.uleb128 .LVU357
 7179 0751 00       		.uleb128 0
 7180              	.LLST61:
 7181 0752 58030000 		.4byte	.LVL92-.Ltext0
 7182 0756 5D030000 		.4byte	.LVL93-1-.Ltext0
 7183 075a 0100     		.2byte	0x1
 7184 075c 50       		.byte	0x50
 7185 075d 5D030000 		.4byte	.LVL93-1-.Ltext0
 7186 0761 70030000 		.4byte	.LVL94-.Ltext0
 7187 0765 0100     		.2byte	0x1
 7188 0767 54       		.byte	0x54
 7189 0768 70030000 		.4byte	.LVL94-.Ltext0
 7190 076c 74030000 		.4byte	.LVL95-.Ltext0
 7191 0770 0400     		.2byte	0x4
 7192 0772 F3       		.byte	0xf3
 7193 0773 01       		.uleb128 0x1
 7194 0774 50       		.byte	0x50
 7195 0775 9F       		.byte	0x9f
 7196 0776 74030000 		.4byte	.LVL95-.Ltext0
 7197 077a 7A030000 		.4byte	.LFE40-.Ltext0
ARM GAS  C:\Users\skey\AppData\Local\Temp\cceKeKCB.s 			page 153


 7198 077e 0100     		.2byte	0x1
 7199 0780 54       		.byte	0x54
 7200 0781 00000000 		.4byte	0
 7201 0785 00000000 		.4byte	0
 7202              	.LVUS56:
 7203 0789 00       		.uleb128 0
 7204 078a 00       		.uleb128 .LVU341
 7205 078b 00       		.uleb128 .LVU341
 7206 078c 00       		.uleb128 0
 7207              	.LLST56:
 7208 078d 50030000 		.4byte	.LVL89-.Ltext0
 7209 0791 52030000 		.4byte	.LVL90-.Ltext0
 7210 0795 0100     		.2byte	0x1
 7211 0797 50       		.byte	0x50
 7212 0798 52030000 		.4byte	.LVL90-.Ltext0
 7213 079c 54030000 		.4byte	.LFE39-.Ltext0
 7214 07a0 0400     		.2byte	0x4
 7215 07a2 F3       		.byte	0xf3
 7216 07a3 01       		.uleb128 0x1
 7217 07a4 50       		.byte	0x50
 7218 07a5 9F       		.byte	0x9f
 7219 07a6 00000000 		.4byte	0
 7220 07aa 00000000 		.4byte	0
 7221              	.LVUS57:
 7222 07ae 02       		.uleb128 .LVU338
 7223 07af 00       		.uleb128 .LVU341
 7224 07b0 00       		.uleb128 .LVU341
 7225 07b1 00       		.uleb128 0
 7226              	.LLST57:
 7227 07b2 50030000 		.4byte	.LVL89-.Ltext0
 7228 07b6 52030000 		.4byte	.LVL90-.Ltext0
 7229 07ba 0100     		.2byte	0x1
 7230 07bc 50       		.byte	0x50
 7231 07bd 52030000 		.4byte	.LVL90-.Ltext0
 7232 07c1 54030000 		.4byte	.LFE39-.Ltext0
 7233 07c5 0400     		.2byte	0x4
 7234 07c7 F3       		.byte	0xf3
 7235 07c8 01       		.uleb128 0x1
 7236 07c9 50       		.byte	0x50
 7237 07ca 9F       		.byte	0x9f
 7238 07cb 00000000 		.4byte	0
 7239 07cf 00000000 		.4byte	0
 7240              	.LLST25:
 7241 07d3 EE000000 		.4byte	.LFB37-.Ltext0
 7242 07d7 F0000000 		.4byte	.LCFI6-.Ltext0
 7243 07db 0200     		.2byte	0x2
 7244 07dd 7D       		.byte	0x7d
 7245 07de 00       		.sleb128 0
 7246 07df F0000000 		.4byte	.LCFI6-.Ltext0
 7247 07e3 1E010000 		.4byte	.LCFI7-.Ltext0
 7248 07e7 0200     		.2byte	0x2
 7249 07e9 7D       		.byte	0x7d
 7250 07ea 20       		.sleb128 32
 7251 07eb 1E010000 		.4byte	.LCFI7-.Ltext0
 7252 07ef 20010000 		.4byte	.LCFI8-.Ltext0
 7253 07f3 0200     		.2byte	0x2
 7254 07f5 7D       		.byte	0x7d
ARM GAS  C:\Users\skey\AppData\Local\Temp\cceKeKCB.s 			page 154


 7255 07f6 10       		.sleb128 16
 7256 07f7 20010000 		.4byte	.LCFI8-.Ltext0
 7257 07fb 30010000 		.4byte	.LFE37-.Ltext0
 7258 07ff 0200     		.2byte	0x2
 7259 0801 7D       		.byte	0x7d
 7260 0802 20       		.sleb128 32
 7261 0803 00000000 		.4byte	0
 7262 0807 00000000 		.4byte	0
 7263              	.LVUS26:
 7264 080b 00       		.uleb128 0
 7265 080c 00       		.uleb128 .LVU104
 7266 080d 00       		.uleb128 .LVU104
 7267 080e 00       		.uleb128 0
 7268              	.LLST26:
 7269 080f EE000000 		.4byte	.LVL29-.Ltext0
 7270 0813 F6000000 		.4byte	.LVL30-.Ltext0
 7271 0817 0100     		.2byte	0x1
 7272 0819 50       		.byte	0x50
 7273 081a F6000000 		.4byte	.LVL30-.Ltext0
 7274 081e 30010000 		.4byte	.LFE37-.Ltext0
 7275 0822 0100     		.2byte	0x1
 7276 0824 55       		.byte	0x55
 7277 0825 00000000 		.4byte	0
 7278 0829 00000000 		.4byte	0
 7279              	.LVUS27:
 7280 082d 00       		.uleb128 0
 7281 082e 00       		.uleb128 .LVU115
 7282 082f 00       		.uleb128 .LVU115
 7283 0830 00       		.uleb128 .LVU123
 7284 0831 00       		.uleb128 .LVU123
 7285 0832 00       		.uleb128 .LVU125
 7286 0833 00       		.uleb128 .LVU125
 7287 0834 00       		.uleb128 .LVU126
 7288 0835 00       		.uleb128 .LVU126
 7289 0836 00       		.uleb128 0
 7290              	.LLST27:
 7291 0837 EE000000 		.4byte	.LVL29-.Ltext0
 7292 083b 09010000 		.4byte	.LVL32-1-.Ltext0
 7293 083f 0100     		.2byte	0x1
 7294 0841 51       		.byte	0x51
 7295 0842 09010000 		.4byte	.LVL32-1-.Ltext0
 7296 0846 20010000 		.4byte	.LVL34-.Ltext0
 7297 084a 0400     		.2byte	0x4
 7298 084c F3       		.byte	0xf3
 7299 084d 01       		.uleb128 0x1
 7300 084e 51       		.byte	0x51
 7301 084f 9F       		.byte	0x9f
 7302 0850 20010000 		.4byte	.LVL34-.Ltext0
 7303 0854 24010000 		.4byte	.LVL35-.Ltext0
 7304 0858 0100     		.2byte	0x1
 7305 085a 51       		.byte	0x51
 7306 085b 24010000 		.4byte	.LVL35-.Ltext0
 7307 085f 27010000 		.4byte	.LVL36-1-.Ltext0
 7308 0863 0200     		.2byte	0x2
 7309 0865 71       		.byte	0x71
 7310 0866 00       		.sleb128 0
 7311 0867 27010000 		.4byte	.LVL36-1-.Ltext0
ARM GAS  C:\Users\skey\AppData\Local\Temp\cceKeKCB.s 			page 155


 7312 086b 30010000 		.4byte	.LFE37-.Ltext0
 7313 086f 0400     		.2byte	0x4
 7314 0871 F3       		.byte	0xf3
 7315 0872 01       		.uleb128 0x1
 7316 0873 51       		.byte	0x51
 7317 0874 9F       		.byte	0x9f
 7318 0875 00000000 		.4byte	0
 7319 0879 00000000 		.4byte	0
 7320              	.LVUS28:
 7321 087d 00       		.uleb128 0
 7322 087e 00       		.uleb128 .LVU105
 7323 087f 00       		.uleb128 .LVU105
 7324 0880 00       		.uleb128 0
 7325              	.LLST28:
 7326 0881 EE000000 		.4byte	.LVL29-.Ltext0
 7327 0885 FA000000 		.4byte	.LVL31-.Ltext0
 7328 0889 0100     		.2byte	0x1
 7329 088b 52       		.byte	0x52
 7330 088c FA000000 		.4byte	.LVL31-.Ltext0
 7331 0890 30010000 		.4byte	.LFE37-.Ltext0
 7332 0894 0100     		.2byte	0x1
 7333 0896 56       		.byte	0x56
 7334 0897 00000000 		.4byte	0
 7335 089b 00000000 		.4byte	0
 7336              	.LVUS29:
 7337 089f 00       		.uleb128 0
 7338 08a0 00       		.uleb128 .LVU115
 7339 08a1 00       		.uleb128 .LVU115
 7340 08a2 00       		.uleb128 .LVU123
 7341 08a3 00       		.uleb128 .LVU123
 7342 08a4 00       		.uleb128 .LVU126
 7343 08a5 00       		.uleb128 .LVU126
 7344 08a6 00       		.uleb128 0
 7345              	.LLST29:
 7346 08a7 EE000000 		.4byte	.LVL29-.Ltext0
 7347 08ab 09010000 		.4byte	.LVL32-1-.Ltext0
 7348 08af 0100     		.2byte	0x1
 7349 08b1 53       		.byte	0x53
 7350 08b2 09010000 		.4byte	.LVL32-1-.Ltext0
 7351 08b6 20010000 		.4byte	.LVL34-.Ltext0
 7352 08ba 0400     		.2byte	0x4
 7353 08bc F3       		.byte	0xf3
 7354 08bd 01       		.uleb128 0x1
 7355 08be 53       		.byte	0x53
 7356 08bf 9F       		.byte	0x9f
 7357 08c0 20010000 		.4byte	.LVL34-.Ltext0
 7358 08c4 27010000 		.4byte	.LVL36-1-.Ltext0
 7359 08c8 0100     		.2byte	0x1
 7360 08ca 52       		.byte	0x52
 7361 08cb 27010000 		.4byte	.LVL36-1-.Ltext0
 7362 08cf 30010000 		.4byte	.LFE37-.Ltext0
 7363 08d3 0400     		.2byte	0x4
 7364 08d5 F3       		.byte	0xf3
 7365 08d6 01       		.uleb128 0x1
 7366 08d7 53       		.byte	0x53
 7367 08d8 9F       		.byte	0x9f
 7368 08d9 00000000 		.4byte	0
ARM GAS  C:\Users\skey\AppData\Local\Temp\cceKeKCB.s 			page 156


 7369 08dd 00000000 		.4byte	0
 7370              	.LVUS30:
 7371 08e1 00       		.uleb128 0
 7372 08e2 00       		.uleb128 .LVU123
 7373 08e3 00       		.uleb128 .LVU123
 7374 08e4 00       		.uleb128 0
 7375              	.LLST30:
 7376 08e5 EE000000 		.4byte	.LVL29-.Ltext0
 7377 08e9 20010000 		.4byte	.LVL34-.Ltext0
 7378 08ed 0200     		.2byte	0x2
 7379 08ef 91       		.byte	0x91
 7380 08f0 00       		.sleb128 0
 7381 08f1 20010000 		.4byte	.LVL34-.Ltext0
 7382 08f5 30010000 		.4byte	.LFE37-.Ltext0
 7383 08f9 0200     		.2byte	0x2
 7384 08fb 91       		.byte	0x91
 7385 08fc 00       		.sleb128 0
 7386 08fd 00000000 		.4byte	0
 7387 0901 00000000 		.4byte	0
 7388              	.LVUS31:
 7389 0905 02       		.uleb128 .LVU97
 7390 0906 00       		.uleb128 .LVU122
 7391 0907 00       		.uleb128 .LVU123
 7392 0908 00       		.uleb128 .LVU126
 7393 0909 00       		.uleb128 .LVU126
 7394 090a 00       		.uleb128 0
 7395              	.LLST31:
 7396 090b EE000000 		.4byte	.LVL29-.Ltext0
 7397 090f 1C010000 		.4byte	.LVL33-.Ltext0
 7398 0913 0200     		.2byte	0x2
 7399 0915 30       		.byte	0x30
 7400 0916 9F       		.byte	0x9f
 7401 0917 20010000 		.4byte	.LVL34-.Ltext0
 7402 091b 28010000 		.4byte	.LVL36-.Ltext0
 7403 091f 0200     		.2byte	0x2
 7404 0921 30       		.byte	0x30
 7405 0922 9F       		.byte	0x9f
 7406 0923 28010000 		.4byte	.LVL36-.Ltext0
 7407 0927 30010000 		.4byte	.LFE37-.Ltext0
 7408 092b 0100     		.2byte	0x1
 7409 092d 50       		.byte	0x50
 7410 092e 00000000 		.4byte	0
 7411 0932 00000000 		.4byte	0
 7412              	.LLST13:
 7413 0936 A8000000 		.4byte	.LFB35-.Ltext0
 7414 093a AC000000 		.4byte	.LCFI5-.Ltext0
 7415 093e 0200     		.2byte	0x2
 7416 0940 7D       		.byte	0x7d
 7417 0941 00       		.sleb128 0
 7418 0942 AC000000 		.4byte	.LCFI5-.Ltext0
 7419 0946 EE000000 		.4byte	.LFE35-.Ltext0
 7420 094a 0200     		.2byte	0x2
 7421 094c 7D       		.byte	0x7d
 7422 094d 18       		.sleb128 24
 7423 094e 00000000 		.4byte	0
 7424 0952 00000000 		.4byte	0
 7425              	.LVUS14:
ARM GAS  C:\Users\skey\AppData\Local\Temp\cceKeKCB.s 			page 157


 7426 0956 00       		.uleb128 0
 7427 0957 00       		.uleb128 .LVU68
 7428 0958 00       		.uleb128 .LVU68
 7429 0959 00       		.uleb128 0
 7430              	.LLST14:
 7431 095a A8000000 		.4byte	.LVL22-.Ltext0
 7432 095e B0000000 		.4byte	.LVL23-.Ltext0
 7433 0962 0100     		.2byte	0x1
 7434 0964 50       		.byte	0x50
 7435 0965 B0000000 		.4byte	.LVL23-.Ltext0
 7436 0969 EE000000 		.4byte	.LFE35-.Ltext0
 7437 096d 0100     		.2byte	0x1
 7438 096f 58       		.byte	0x58
 7439 0970 00000000 		.4byte	0
 7440 0974 00000000 		.4byte	0
 7441              	.LVUS15:
 7442 0978 00       		.uleb128 0
 7443 0979 00       		.uleb128 .LVU70
 7444 097a 00       		.uleb128 .LVU70
 7445 097b 00       		.uleb128 0
 7446              	.LLST15:
 7447 097c A8000000 		.4byte	.LVL22-.Ltext0
 7448 0980 B9000000 		.4byte	.LVL24-1-.Ltext0
 7449 0984 0100     		.2byte	0x1
 7450 0986 51       		.byte	0x51
 7451 0987 B9000000 		.4byte	.LVL24-1-.Ltext0
 7452 098b EE000000 		.4byte	.LFE35-.Ltext0
 7453 098f 0100     		.2byte	0x1
 7454 0991 57       		.byte	0x57
 7455 0992 00000000 		.4byte	0
 7456 0996 00000000 		.4byte	0
 7457              	.LVUS16:
 7458 099a 00       		.uleb128 0
 7459 099b 00       		.uleb128 .LVU70
 7460 099c 00       		.uleb128 .LVU70
 7461 099d 00       		.uleb128 0
 7462              	.LLST16:
 7463 099e A8000000 		.4byte	.LVL22-.Ltext0
 7464 09a2 B9000000 		.4byte	.LVL24-1-.Ltext0
 7465 09a6 0100     		.2byte	0x1
 7466 09a8 52       		.byte	0x52
 7467 09a9 B9000000 		.4byte	.LVL24-1-.Ltext0
 7468 09ad EE000000 		.4byte	.LFE35-.Ltext0
 7469 09b1 0100     		.2byte	0x1
 7470 09b3 55       		.byte	0x55
 7471 09b4 00000000 		.4byte	0
 7472 09b8 00000000 		.4byte	0
 7473              	.LVUS17:
 7474 09bc 00       		.uleb128 0
 7475 09bd 00       		.uleb128 .LVU70
 7476 09be 00       		.uleb128 .LVU70
 7477 09bf 00       		.uleb128 0
 7478              	.LLST17:
 7479 09c0 A8000000 		.4byte	.LVL22-.Ltext0
 7480 09c4 B9000000 		.4byte	.LVL24-1-.Ltext0
 7481 09c8 0100     		.2byte	0x1
 7482 09ca 53       		.byte	0x53
ARM GAS  C:\Users\skey\AppData\Local\Temp\cceKeKCB.s 			page 158


 7483 09cb B9000000 		.4byte	.LVL24-1-.Ltext0
 7484 09cf EE000000 		.4byte	.LFE35-.Ltext0
 7485 09d3 0100     		.2byte	0x1
 7486 09d5 56       		.byte	0x56
 7487 09d6 00000000 		.4byte	0
 7488 09da 00000000 		.4byte	0
 7489              	.LVUS18:
 7490 09de 00       		.uleb128 .LVU70
 7491 09df 00       		.uleb128 .LVU79
 7492 09e0 00       		.uleb128 .LVU79
 7493 09e1 00       		.uleb128 0
 7494              	.LLST18:
 7495 09e2 BA000000 		.4byte	.LVL24-.Ltext0
 7496 09e6 C7000000 		.4byte	.LVL26-1-.Ltext0
 7497 09ea 0100     		.2byte	0x1
 7498 09ec 50       		.byte	0x50
 7499 09ed C7000000 		.4byte	.LVL26-1-.Ltext0
 7500 09f1 EE000000 		.4byte	.LFE35-.Ltext0
 7501 09f5 0100     		.2byte	0x1
 7502 09f7 54       		.byte	0x54
 7503 09f8 00000000 		.4byte	0
 7504 09fc 00000000 		.4byte	0
 7505              	.LVUS19:
 7506 0a00 01       		.uleb128 .LVU75
 7507 0a01 00       		.uleb128 .LVU79
 7508 0a02 00       		.uleb128 .LVU79
 7509 0a03 00       		.uleb128 .LVU91
 7510              	.LLST19:
 7511 0a04 C4000000 		.4byte	.LVL25-.Ltext0
 7512 0a08 C7000000 		.4byte	.LVL26-1-.Ltext0
 7513 0a0c 0100     		.2byte	0x1
 7514 0a0e 50       		.byte	0x50
 7515 0a0f C7000000 		.4byte	.LVL26-1-.Ltext0
 7516 0a13 E8000000 		.4byte	.LVL28-.Ltext0
 7517 0a17 0100     		.2byte	0x1
 7518 0a19 54       		.byte	0x54
 7519 0a1a 00000000 		.4byte	0
 7520 0a1e 00000000 		.4byte	0
 7521              	.LVUS20:
 7522 0a22 01       		.uleb128 .LVU75
 7523 0a23 00       		.uleb128 .LVU91
 7524              	.LLST20:
 7525 0a24 C4000000 		.4byte	.LVL25-.Ltext0
 7526 0a28 E8000000 		.4byte	.LVL28-.Ltext0
 7527 0a2c 0200     		.2byte	0x2
 7528 0a2e 91       		.byte	0x91
 7529 0a2f 00       		.sleb128 0
 7530 0a30 00000000 		.4byte	0
 7531 0a34 00000000 		.4byte	0
 7532              	.LVUS21:
 7533 0a38 01       		.uleb128 .LVU75
 7534 0a39 00       		.uleb128 .LVU91
 7535              	.LLST21:
 7536 0a3a C4000000 		.4byte	.LVL25-.Ltext0
 7537 0a3e E8000000 		.4byte	.LVL28-.Ltext0
 7538 0a42 0100     		.2byte	0x1
 7539 0a44 56       		.byte	0x56
ARM GAS  C:\Users\skey\AppData\Local\Temp\cceKeKCB.s 			page 159


 7540 0a45 00000000 		.4byte	0
 7541 0a49 00000000 		.4byte	0
 7542              	.LVUS22:
 7543 0a4d 01       		.uleb128 .LVU75
 7544 0a4e 00       		.uleb128 .LVU91
 7545              	.LLST22:
 7546 0a4f C4000000 		.4byte	.LVL25-.Ltext0
 7547 0a53 E8000000 		.4byte	.LVL28-.Ltext0
 7548 0a57 0100     		.2byte	0x1
 7549 0a59 55       		.byte	0x55
 7550 0a5a 00000000 		.4byte	0
 7551 0a5e 00000000 		.4byte	0
 7552              	.LVUS23:
 7553 0a62 01       		.uleb128 .LVU75
 7554 0a63 00       		.uleb128 .LVU91
 7555              	.LLST23:
 7556 0a64 C4000000 		.4byte	.LVL25-.Ltext0
 7557 0a68 E8000000 		.4byte	.LVL28-.Ltext0
 7558 0a6c 0100     		.2byte	0x1
 7559 0a6e 57       		.byte	0x57
 7560 0a6f 00000000 		.4byte	0
 7561 0a73 00000000 		.4byte	0
 7562              	.LVUS24:
 7563 0a77 01       		.uleb128 .LVU75
 7564 0a78 00       		.uleb128 .LVU91
 7565              	.LLST24:
 7566 0a79 C4000000 		.4byte	.LVL25-.Ltext0
 7567 0a7d E8000000 		.4byte	.LVL28-.Ltext0
 7568 0a81 0100     		.2byte	0x1
 7569 0a83 58       		.byte	0x58
 7570 0a84 00000000 		.4byte	0
 7571 0a88 00000000 		.4byte	0
 7572              	.LLST11:
 7573 0a8c 74000000 		.4byte	.LFB34-.Ltext0
 7574 0a90 76000000 		.4byte	.LCFI3-.Ltext0
 7575 0a94 0200     		.2byte	0x2
 7576 0a96 7D       		.byte	0x7d
 7577 0a97 00       		.sleb128 0
 7578 0a98 76000000 		.4byte	.LCFI3-.Ltext0
 7579 0a9c 96000000 		.4byte	.LCFI4-.Ltext0
 7580 0aa0 0200     		.2byte	0x2
 7581 0aa2 7D       		.byte	0x7d
 7582 0aa3 10       		.sleb128 16
 7583 0aa4 96000000 		.4byte	.LCFI4-.Ltext0
 7584 0aa8 A8000000 		.4byte	.LFE34-.Ltext0
 7585 0aac 0200     		.2byte	0x2
 7586 0aae 7D       		.byte	0x7d
 7587 0aaf 04       		.sleb128 4
 7588 0ab0 00000000 		.4byte	0
 7589 0ab4 00000000 		.4byte	0
 7590              	.LVUS12:
 7591 0ab8 02       		.uleb128 .LVU53
 7592 0ab9 00       		.uleb128 .LVU61
 7593              	.LLST12:
 7594 0aba 74000000 		.4byte	.LVL19-.Ltext0
 7595 0abe 94000000 		.4byte	.LVL21-.Ltext0
 7596 0ac2 0200     		.2byte	0x2
ARM GAS  C:\Users\skey\AppData\Local\Temp\cceKeKCB.s 			page 160


 7597 0ac4 30       		.byte	0x30
 7598 0ac5 9F       		.byte	0x9f
 7599 0ac6 00000000 		.4byte	0
 7600 0aca 00000000 		.4byte	0
 7601              	.LLST1:
 7602 0ace 3C000000 		.4byte	.LFB48-.Ltext0
 7603 0ad2 40000000 		.4byte	.LCFI2-.Ltext0
 7604 0ad6 0200     		.2byte	0x2
 7605 0ad8 7D       		.byte	0x7d
 7606 0ad9 00       		.sleb128 0
 7607 0ada 40000000 		.4byte	.LCFI2-.Ltext0
 7608 0ade 74000000 		.4byte	.LFE48-.Ltext0
 7609 0ae2 0200     		.2byte	0x2
 7610 0ae4 7D       		.byte	0x7d
 7611 0ae5 08       		.sleb128 8
 7612 0ae6 00000000 		.4byte	0
 7613 0aea 00000000 		.4byte	0
 7614              	.LVUS2:
 7615 0aee 00       		.uleb128 0
 7616 0aef 00       		.uleb128 .LVU37
 7617 0af0 00       		.uleb128 .LVU37
 7618 0af1 00       		.uleb128 .LVU41
 7619 0af2 00       		.uleb128 .LVU41
 7620 0af3 00       		.uleb128 .LVU47
 7621 0af4 00       		.uleb128 .LVU47
 7622 0af5 00       		.uleb128 .LVU48
 7623 0af6 00       		.uleb128 .LVU48
 7624 0af7 00       		.uleb128 .LVU49
 7625 0af8 00       		.uleb128 .LVU49
 7626 0af9 00       		.uleb128 0
 7627              	.LLST2:
 7628 0afa 3C000000 		.4byte	.LVL5-.Ltext0
 7629 0afe 54000000 		.4byte	.LVL10-.Ltext0
 7630 0b02 0100     		.2byte	0x1
 7631 0b04 50       		.byte	0x50
 7632 0b05 54000000 		.4byte	.LVL10-.Ltext0
 7633 0b09 5C000000 		.4byte	.LVL13-.Ltext0
 7634 0b0d 0400     		.2byte	0x4
 7635 0b0f F3       		.byte	0xf3
 7636 0b10 01       		.uleb128 0x1
 7637 0b11 50       		.byte	0x50
 7638 0b12 9F       		.byte	0x9f
 7639 0b13 5C000000 		.4byte	.LVL13-.Ltext0
 7640 0b17 6A000000 		.4byte	.LVL16-.Ltext0
 7641 0b1b 0100     		.2byte	0x1
 7642 0b1d 50       		.byte	0x50
 7643 0b1e 6A000000 		.4byte	.LVL16-.Ltext0
 7644 0b22 6C000000 		.4byte	.LVL17-.Ltext0
 7645 0b26 0300     		.2byte	0x3
 7646 0b28 71       		.byte	0x71
 7647 0b29 7C       		.sleb128 -4
 7648 0b2a 9F       		.byte	0x9f
 7649 0b2b 6C000000 		.4byte	.LVL17-.Ltext0
 7650 0b2f 6E000000 		.4byte	.LVL18-.Ltext0
 7651 0b33 0100     		.2byte	0x1
 7652 0b35 50       		.byte	0x50
 7653 0b36 6E000000 		.4byte	.LVL18-.Ltext0
ARM GAS  C:\Users\skey\AppData\Local\Temp\cceKeKCB.s 			page 161


 7654 0b3a 74000000 		.4byte	.LFE48-.Ltext0
 7655 0b3e 0400     		.2byte	0x4
 7656 0b40 F3       		.byte	0xf3
 7657 0b41 01       		.uleb128 0x1
 7658 0b42 50       		.byte	0x50
 7659 0b43 9F       		.byte	0x9f
 7660 0b44 00000000 		.4byte	0
 7661 0b48 00000000 		.4byte	0
 7662              	.LVUS3:
 7663 0b4c 00       		.uleb128 0
 7664 0b4d 00       		.uleb128 .LVU36
 7665 0b4e 00       		.uleb128 .LVU36
 7666 0b4f 00       		.uleb128 .LVU37
 7667 0b50 00       		.uleb128 .LVU37
 7668 0b51 00       		.uleb128 .LVU39
 7669 0b52 00       		.uleb128 .LVU39
 7670 0b53 00       		.uleb128 .LVU41
 7671 0b54 00       		.uleb128 .LVU41
 7672 0b55 00       		.uleb128 .LVU46
 7673 0b56 00       		.uleb128 .LVU46
 7674 0b57 00       		.uleb128 .LVU47
 7675 0b58 00       		.uleb128 .LVU47
 7676 0b59 00       		.uleb128 .LVU48
 7677 0b5a 00       		.uleb128 .LVU48
 7678 0b5b 00       		.uleb128 0
 7679              	.LLST3:
 7680 0b5c 3C000000 		.4byte	.LVL5-.Ltext0
 7681 0b60 52000000 		.4byte	.LVL9-.Ltext0
 7682 0b64 0100     		.2byte	0x1
 7683 0b66 51       		.byte	0x51
 7684 0b67 52000000 		.4byte	.LVL9-.Ltext0
 7685 0b6b 54000000 		.4byte	.LVL10-.Ltext0
 7686 0b6f 0200     		.2byte	0x2
 7687 0b71 71       		.byte	0x71
 7688 0b72 00       		.sleb128 0
 7689 0b73 54000000 		.4byte	.LVL10-.Ltext0
 7690 0b77 57000000 		.4byte	.LVL11-1-.Ltext0
 7691 0b7b 0500     		.2byte	0x5
 7692 0b7d F3       		.byte	0xf3
 7693 0b7e 01       		.uleb128 0x1
 7694 0b7f 50       		.byte	0x50
 7695 0b80 23       		.byte	0x23
 7696 0b81 04       		.uleb128 0x4
 7697 0b82 57000000 		.4byte	.LVL11-1-.Ltext0
 7698 0b86 5C000000 		.4byte	.LVL13-.Ltext0
 7699 0b8a 0400     		.2byte	0x4
 7700 0b8c F3       		.byte	0xf3
 7701 0b8d 01       		.uleb128 0x1
 7702 0b8e 51       		.byte	0x51
 7703 0b8f 9F       		.byte	0x9f
 7704 0b90 5C000000 		.4byte	.LVL13-.Ltext0
 7705 0b94 68000000 		.4byte	.LVL15-.Ltext0
 7706 0b98 0100     		.2byte	0x1
 7707 0b9a 51       		.byte	0x51
 7708 0b9b 68000000 		.4byte	.LVL15-.Ltext0
 7709 0b9f 6A000000 		.4byte	.LVL16-.Ltext0
 7710 0ba3 0200     		.2byte	0x2
ARM GAS  C:\Users\skey\AppData\Local\Temp\cceKeKCB.s 			page 162


 7711 0ba5 70       		.byte	0x70
 7712 0ba6 04       		.sleb128 4
 7713 0ba7 6A000000 		.4byte	.LVL16-.Ltext0
 7714 0bab 6C000000 		.4byte	.LVL17-.Ltext0
 7715 0baf 0200     		.2byte	0x2
 7716 0bb1 71       		.byte	0x71
 7717 0bb2 00       		.sleb128 0
 7718 0bb3 6C000000 		.4byte	.LVL17-.Ltext0
 7719 0bb7 74000000 		.4byte	.LFE48-.Ltext0
 7720 0bbb 0100     		.2byte	0x1
 7721 0bbd 51       		.byte	0x51
 7722 0bbe 00000000 		.4byte	0
 7723 0bc2 00000000 		.4byte	0
 7724              	.LVUS4:
 7725 0bc6 00       		.uleb128 0
 7726 0bc7 00       		.uleb128 .LVU32
 7727 0bc8 00       		.uleb128 .LVU32
 7728 0bc9 00       		.uleb128 .LVU41
 7729 0bca 00       		.uleb128 .LVU41
 7730 0bcb 00       		.uleb128 .LVU48
 7731 0bcc 00       		.uleb128 .LVU48
 7732 0bcd 00       		.uleb128 0
 7733              	.LLST4:
 7734 0bce 3C000000 		.4byte	.LVL5-.Ltext0
 7735 0bd2 48000000 		.4byte	.LVL6-.Ltext0
 7736 0bd6 0100     		.2byte	0x1
 7737 0bd8 52       		.byte	0x52
 7738 0bd9 48000000 		.4byte	.LVL6-.Ltext0
 7739 0bdd 5C000000 		.4byte	.LVL13-.Ltext0
 7740 0be1 0400     		.2byte	0x4
 7741 0be3 F3       		.byte	0xf3
 7742 0be4 01       		.uleb128 0x1
 7743 0be5 52       		.byte	0x52
 7744 0be6 9F       		.byte	0x9f
 7745 0be7 5C000000 		.4byte	.LVL13-.Ltext0
 7746 0beb 6C000000 		.4byte	.LVL17-.Ltext0
 7747 0bef 0100     		.2byte	0x1
 7748 0bf1 52       		.byte	0x52
 7749 0bf2 6C000000 		.4byte	.LVL17-.Ltext0
 7750 0bf6 74000000 		.4byte	.LFE48-.Ltext0
 7751 0bfa 0400     		.2byte	0x4
 7752 0bfc F3       		.byte	0xf3
 7753 0bfd 01       		.uleb128 0x1
 7754 0bfe 52       		.byte	0x52
 7755 0bff 9F       		.byte	0x9f
 7756 0c00 00000000 		.4byte	0
 7757 0c04 00000000 		.4byte	0
 7758              	.LVUS5:
 7759 0c08 00       		.uleb128 0
 7760 0c09 00       		.uleb128 .LVU33
 7761 0c0a 00       		.uleb128 .LVU33
 7762 0c0b 00       		.uleb128 .LVU41
 7763 0c0c 00       		.uleb128 .LVU41
 7764 0c0d 00       		.uleb128 .LVU45
 7765 0c0e 00       		.uleb128 .LVU45
 7766 0c0f 00       		.uleb128 0
 7767              	.LLST5:
ARM GAS  C:\Users\skey\AppData\Local\Temp\cceKeKCB.s 			page 163


 7768 0c10 3C000000 		.4byte	.LVL5-.Ltext0
 7769 0c14 4A000000 		.4byte	.LVL7-.Ltext0
 7770 0c18 0100     		.2byte	0x1
 7771 0c1a 53       		.byte	0x53
 7772 0c1b 4A000000 		.4byte	.LVL7-.Ltext0
 7773 0c1f 5C000000 		.4byte	.LVL13-.Ltext0
 7774 0c23 0400     		.2byte	0x4
 7775 0c25 F3       		.byte	0xf3
 7776 0c26 01       		.uleb128 0x1
 7777 0c27 53       		.byte	0x53
 7778 0c28 9F       		.byte	0x9f
 7779 0c29 5C000000 		.4byte	.LVL13-.Ltext0
 7780 0c2d 66000000 		.4byte	.LVL14-.Ltext0
 7781 0c31 0100     		.2byte	0x1
 7782 0c33 53       		.byte	0x53
 7783 0c34 66000000 		.4byte	.LVL14-.Ltext0
 7784 0c38 74000000 		.4byte	.LFE48-.Ltext0
 7785 0c3c 0400     		.2byte	0x4
 7786 0c3e F3       		.byte	0xf3
 7787 0c3f 01       		.uleb128 0x1
 7788 0c40 53       		.byte	0x53
 7789 0c41 9F       		.byte	0x9f
 7790 0c42 00000000 		.4byte	0
 7791 0c46 00000000 		.4byte	0
 7792              	.LVUS6:
 7793 0c4a 02       		.uleb128 .LVU23
 7794 0c4b 00       		.uleb128 .LVU40
 7795 0c4c 00       		.uleb128 .LVU41
 7796 0c4d 00       		.uleb128 .LVU49
 7797 0c4e 00       		.uleb128 .LVU49
 7798 0c4f 00       		.uleb128 0
 7799              	.LLST6:
 7800 0c50 3C000000 		.4byte	.LVL5-.Ltext0
 7801 0c54 5A000000 		.4byte	.LVL12-.Ltext0
 7802 0c58 0200     		.2byte	0x2
 7803 0c5a 30       		.byte	0x30
 7804 0c5b 9F       		.byte	0x9f
 7805 0c5c 5C000000 		.4byte	.LVL13-.Ltext0
 7806 0c60 6E000000 		.4byte	.LVL18-.Ltext0
 7807 0c64 0200     		.2byte	0x2
 7808 0c66 30       		.byte	0x30
 7809 0c67 9F       		.byte	0x9f
 7810 0c68 6E000000 		.4byte	.LVL18-.Ltext0
 7811 0c6c 74000000 		.4byte	.LFE48-.Ltext0
 7812 0c70 0200     		.2byte	0x2
 7813 0c72 31       		.byte	0x31
 7814 0c73 9F       		.byte	0x9f
 7815 0c74 00000000 		.4byte	0
 7816 0c78 00000000 		.4byte	0
 7817              	.LVUS7:
 7818 0c7c 01       		.uleb128 .LVU35
 7819 0c7d 00       		.uleb128 .LVU36
 7820 0c7e 00       		.uleb128 .LVU36
 7821 0c7f 00       		.uleb128 .LVU37
 7822              	.LLST7:
 7823 0c80 4E000000 		.4byte	.LVL8-.Ltext0
 7824 0c84 52000000 		.4byte	.LVL9-.Ltext0
ARM GAS  C:\Users\skey\AppData\Local\Temp\cceKeKCB.s 			page 164


 7825 0c88 0100     		.2byte	0x1
 7826 0c8a 51       		.byte	0x51
 7827 0c8b 52000000 		.4byte	.LVL9-.Ltext0
 7828 0c8f 54000000 		.4byte	.LVL10-.Ltext0
 7829 0c93 0200     		.2byte	0x2
 7830 0c95 71       		.byte	0x71
 7831 0c96 00       		.sleb128 0
 7832 0c97 00000000 		.4byte	0
 7833 0c9b 00000000 		.4byte	0
 7834              	.LVUS8:
 7835 0c9f 01       		.uleb128 .LVU35
 7836 0ca0 00       		.uleb128 .LVU37
 7837              	.LLST8:
 7838 0ca1 4E000000 		.4byte	.LVL8-.Ltext0
 7839 0ca5 54000000 		.4byte	.LVL10-.Ltext0
 7840 0ca9 0400     		.2byte	0x4
 7841 0cab F3       		.byte	0xf3
 7842 0cac 01       		.uleb128 0x1
 7843 0cad 52       		.byte	0x52
 7844 0cae 9F       		.byte	0x9f
 7845 0caf 00000000 		.4byte	0
 7846 0cb3 00000000 		.4byte	0
 7847              	.LVUS9:
 7848 0cb7 01       		.uleb128 .LVU35
 7849 0cb8 00       		.uleb128 .LVU37
 7850              	.LLST9:
 7851 0cb9 4E000000 		.4byte	.LVL8-.Ltext0
 7852 0cbd 54000000 		.4byte	.LVL10-.Ltext0
 7853 0cc1 0400     		.2byte	0x4
 7854 0cc3 F3       		.byte	0xf3
 7855 0cc4 01       		.uleb128 0x1
 7856 0cc5 53       		.byte	0x53
 7857 0cc6 9F       		.byte	0x9f
 7858 0cc7 00000000 		.4byte	0
 7859 0ccb 00000000 		.4byte	0
 7860              	.LVUS10:
 7861 0ccf 00       		.uleb128 .LVU34
 7862 0cd0 00       		.uleb128 .LVU37
 7863              	.LLST10:
 7864 0cd1 4E000000 		.4byte	.LVL8-.Ltext0
 7865 0cd5 54000000 		.4byte	.LVL10-.Ltext0
 7866 0cd9 0100     		.2byte	0x1
 7867 0cdb 50       		.byte	0x50
 7868 0cdc 00000000 		.4byte	0
 7869 0ce0 00000000 		.4byte	0
 7870              		.section	.debug_aranges,"",%progbits
 7871 0000 1C000000 		.4byte	0x1c
 7872 0004 0200     		.2byte	0x2
 7873 0006 00000000 		.4byte	.Ldebug_info0
 7874 000a 04       		.byte	0x4
 7875 000b 00       		.byte	0
 7876 000c 0000     		.2byte	0
 7877 000e 0000     		.2byte	0
 7878 0010 00000000 		.4byte	.Ltext0
 7879 0014 C8030000 		.4byte	.Letext0-.Ltext0
 7880 0018 00000000 		.4byte	0
 7881 001c 00000000 		.4byte	0
ARM GAS  C:\Users\skey\AppData\Local\Temp\cceKeKCB.s 			page 165


 7882              		.section	.debug_ranges,"",%progbits
 7883              	.Ldebug_ranges0:
 7884 0000 98010000 		.4byte	.LBB22-.Ltext0
 7885 0004 9A010000 		.4byte	.LBE22-.Ltext0
 7886 0008 A2010000 		.4byte	.LBB37-.Ltext0
 7887 000c AE010000 		.4byte	.LBE37-.Ltext0
 7888 0010 F0010000 		.4byte	.LBB39-.Ltext0
 7889 0014 F4010000 		.4byte	.LBE39-.Ltext0
 7890 0018 00000000 		.4byte	0
 7891 001c 00000000 		.4byte	0
 7892 0020 9A010000 		.4byte	.LBB26-.Ltext0
 7893 0024 A0010000 		.4byte	.LBE26-.Ltext0
 7894 0028 AE010000 		.4byte	.LBB38-.Ltext0
 7895 002c F0010000 		.4byte	.LBE38-.Ltext0
 7896 0030 F4010000 		.4byte	.LBB40-.Ltext0
 7897 0034 00020000 		.4byte	.LBE40-.Ltext0
 7898 0038 06020000 		.4byte	.LBB46-.Ltext0
 7899 003c 5A020000 		.4byte	.LBE46-.Ltext0
 7900 0040 00000000 		.4byte	0
 7901 0044 00000000 		.4byte	0
 7902 0048 B2010000 		.4byte	.LBB28-.Ltext0
 7903 004c C0010000 		.4byte	.LBE28-.Ltext0
 7904 0050 F4010000 		.4byte	.LBB31-.Ltext0
 7905 0054 FC010000 		.4byte	.LBE31-.Ltext0
 7906 0058 00000000 		.4byte	0
 7907 005c 00000000 		.4byte	0
 7908 0060 00020000 		.4byte	.LBB41-.Ltext0
 7909 0064 06020000 		.4byte	.LBE41-.Ltext0
 7910 0068 5A020000 		.4byte	.LBB47-.Ltext0
 7911 006c 44030000 		.4byte	.LBE47-.Ltext0
 7912 0070 00000000 		.4byte	0
 7913 0074 00000000 		.4byte	0
 7914              		.section	.debug_line,"",%progbits
 7915              	.Ldebug_line0:
 7916 0000 28090000 		.section	.debug_str,"MS",%progbits,1
 7916      0300D802 
 7916      00000201 
 7916      FB0E0D00 
 7916      01010101 
 7917              	.LASF120:
 7918 0000 5F5F6C6F 		.ascii	"__locale_t\000"
 7918      63616C65 
 7918      5F7400
 7919              	.LASF19:
 7920 000b 5F5F7661 		.ascii	"__value\000"
 7920      6C756500 
 7921              	.LASF88:
 7922 0013 5F5F7366 		.ascii	"__sf\000"
 7922      00
 7923              	.LASF55:
 7924 0018 5F726561 		.ascii	"_read\000"
 7924      6400
 7925              	.LASF195:
 7926 001e 7850726F 		.ascii	"xProcessTimerNow\000"
 7926      63657373 
 7926      54696D65 
 7926      724E6F77 
ARM GAS  C:\Users\skey\AppData\Local\Temp\cceKeKCB.s 			page 166


 7926      00
 7927              	.LASF177:
 7928 002f 7654696D 		.ascii	"vTimerSetTimerID\000"
 7928      65725365 
 7928      7454696D 
 7928      65724944 
 7928      00
 7929              	.LASF83:
 7930 0040 5F637674 		.ascii	"_cvtbuf\000"
 7930      62756600 
 7931              	.LASF56:
 7932 0048 5F777269 		.ascii	"_write\000"
 7932      746500
 7933              	.LASF194:
 7934 004f 78436F6D 		.ascii	"xCommandTime\000"
 7934      6D616E64 
 7934      54696D65 
 7934      00
 7935              	.LASF99:
 7936 005c 5F617363 		.ascii	"_asctime_buf\000"
 7936      74696D65 
 7936      5F627566 
 7936      00
 7937              	.LASF210:
 7938 0069 7654696D 		.ascii	"vTimerSetReloadMode\000"
 7938      65725365 
 7938      7452656C 
 7938      6F61644D 
 7938      6F646500 
 7939              	.LASF82:
 7940 007d 5F637674 		.ascii	"_cvtlen\000"
 7940      6C656E00 
 7941              	.LASF171:
 7942 0085 70784375 		.ascii	"pxCurrentTimerList\000"
 7942      7272656E 
 7942      7454696D 
 7942      65724C69 
 7942      737400
 7943              	.LASF118:
 7944 0098 5F756E75 		.ascii	"_unused\000"
 7944      73656400 
 7945              	.LASF29:
 7946 00a0 5F5F746D 		.ascii	"__tm\000"
 7946      00
 7947              	.LASF114:
 7948 00a5 5F776373 		.ascii	"_wcsrtombs_state\000"
 7948      72746F6D 
 7948      62735F73 
 7948      74617465 
 7948      00
 7949              	.LASF60:
 7950 00b6 5F6E6275 		.ascii	"_nbuf\000"
 7950      6600
 7951              	.LASF30:
 7952 00bc 5F5F746D 		.ascii	"__tm_sec\000"
 7952      5F736563 
 7952      00
ARM GAS  C:\Users\skey\AppData\Local\Temp\cceKeKCB.s 			page 167


 7953              	.LASF128:
 7954 00c5 42617365 		.ascii	"BaseType_t\000"
 7954      54797065 
 7954      5F7400
 7955              	.LASF107:
 7956 00d0 5F6C3634 		.ascii	"_l64a_buf\000"
 7956      615F6275 
 7956      6600
 7957              	.LASF241:
 7958 00da 2E5C6672 		.ascii	".\\freertos\\timers.c\000"
 7958      65657274 
 7958      6F735C74 
 7958      696D6572 
 7958      732E6300 
 7959              	.LASF237:
 7960 00ee 764C6973 		.ascii	"vListInitialiseItem\000"
 7960      74496E69 
 7960      7469616C 
 7960      69736549 
 7960      74656D00 
 7961              	.LASF64:
 7962 0102 5F6C6F63 		.ascii	"_lock\000"
 7962      6B00
 7963              	.LASF95:
 7964 0108 5F6D756C 		.ascii	"_mult\000"
 7964      7400
 7965              	.LASF227:
 7966 010e 764C6973 		.ascii	"vListInsert\000"
 7966      74496E73 
 7966      65727400 
 7967              	.LASF133:
 7968 011a 70784E65 		.ascii	"pxNext\000"
 7968      787400
 7969              	.LASF151:
 7970 0121 70635469 		.ascii	"pcTimerName\000"
 7970      6D65724E 
 7970      616D6500 
 7971              	.LASF16:
 7972 012d 5F5F7763 		.ascii	"__wch\000"
 7972      6800
 7973              	.LASF8:
 7974 0133 5F5F7569 		.ascii	"__uint8_t\000"
 7974      6E74385F 
 7974      7400
 7975              	.LASF52:
 7976 013d 5F66696C 		.ascii	"_file\000"
 7976      6500
 7977              	.LASF39:
 7978 0143 5F6F6E5F 		.ascii	"_on_exit_args\000"
 7978      65786974 
 7978      5F617267 
 7978      7300
 7979              	.LASF208:
 7980 0151 70635469 		.ascii	"pcTimerGetName\000"
 7980      6D657247 
 7980      65744E61 
 7980      6D6500
ARM GAS  C:\Users\skey\AppData\Local\Temp\cceKeKCB.s 			page 168


 7981              	.LASF110:
 7982 0160 5F6D6272 		.ascii	"_mbrlen_state\000"
 7982      6C656E5F 
 7982      73746174 
 7982      6500
 7983              	.LASF7:
 7984 016e 6C6F6E67 		.ascii	"long int\000"
 7984      20696E74 
 7984      00
 7985              	.LASF121:
 7986 0177 5F696D70 		.ascii	"_impure_ptr\000"
 7986      7572655F 
 7986      70747200 
 7987              	.LASF79:
 7988 0183 5F726573 		.ascii	"_result_k\000"
 7988      756C745F 
 7988      6B00
 7989              	.LASF49:
 7990 018d 5F73697A 		.ascii	"_size\000"
 7990      6500
 7991              	.LASF163:
 7992 0193 70785469 		.ascii	"pxTimer\000"
 7992      6D657200 
 7993              	.LASF137:
 7994 019b 784C4953 		.ascii	"xLIST\000"
 7994      5400
 7995              	.LASF100:
 7996 01a1 5F6C6F63 		.ascii	"_localtime_buf\000"
 7996      616C7469 
 7996      6D655F62 
 7996      756600
 7997              	.LASF228:
 7998 01b0 78546173 		.ascii	"xTaskGetTickCount\000"
 7998      6B476574 
 7998      5469636B 
 7998      436F756E 
 7998      7400
 7999              	.LASF34:
 8000 01c2 5F5F746D 		.ascii	"__tm_mon\000"
 8000      5F6D6F6E 
 8000      00
 8001              	.LASF160:
 8002 01cb 54696D65 		.ascii	"Timer_t\000"
 8002      725F7400 
 8003              	.LASF236:
 8004 01d3 78517565 		.ascii	"xQueueGenericSendFromISR\000"
 8004      75654765 
 8004      6E657269 
 8004      6353656E 
 8004      6446726F 
 8005              	.LASF224:
 8006 01ec 764C6973 		.ascii	"vListInitialise\000"
 8006      74496E69 
 8006      7469616C 
 8006      69736500 
 8007              	.LASF201:
 8008 01fc 70784C69 		.ascii	"pxListWasEmpty\000"
ARM GAS  C:\Users\skey\AppData\Local\Temp\cceKeKCB.s 			page 169


 8008      73745761 
 8008      73456D70 
 8008      747900
 8009              	.LASF238:
 8010 020b 7076506F 		.ascii	"pvPortMalloc\000"
 8010      72744D61 
 8010      6C6C6F63 
 8010      00
 8011              	.LASF97:
 8012 0218 5F756E75 		.ascii	"_unused_rand\000"
 8012      7365645F 
 8012      72616E64 
 8012      00
 8013              	.LASF147:
 8014 0225 51756575 		.ascii	"QueueHandle_t\000"
 8014      6548616E 
 8014      646C655F 
 8014      7400
 8015              	.LASF3:
 8016 0233 7369676E 		.ascii	"signed char\000"
 8016      65642063 
 8016      68617200 
 8017              	.LASF124:
 8018 023f 75696E74 		.ascii	"uint8_t\000"
 8018      385F7400 
 8019              	.LASF209:
 8020 0247 7854696D 		.ascii	"xTimerGetExpiryTime\000"
 8020      65724765 
 8020      74457870 
 8020      69727954 
 8020      696D6500 
 8021              	.LASF175:
 8022 025b 7854696D 		.ascii	"xTimer\000"
 8022      657200
 8023              	.LASF4:
 8024 0262 756E7369 		.ascii	"unsigned char\000"
 8024      676E6564 
 8024      20636861 
 8024      7200
 8025              	.LASF192:
 8026 0270 7854696D 		.ascii	"xTimeNow\000"
 8026      654E6F77 
 8026      00
 8027              	.LASF207:
 8028 0279 70727650 		.ascii	"prvProcessExpiredTimer\000"
 8028      726F6365 
 8028      73734578 
 8028      70697265 
 8028      6454696D 
 8029              	.LASF183:
 8030 0290 78526574 		.ascii	"xReturn\000"
 8030      75726E00 
 8031              	.LASF230:
 8032 0298 76517565 		.ascii	"vQueueWaitForMessageRestricted\000"
 8032      75655761 
 8032      6974466F 
 8032      724D6573 
ARM GAS  C:\Users\skey\AppData\Local\Temp\cceKeKCB.s 			page 170


 8032      73616765 
 8033              	.LASF74:
 8034 02b7 5F756E73 		.ascii	"_unspecified_locale_info\000"
 8034      70656369 
 8034      66696564 
 8034      5F6C6F63 
 8034      616C655F 
 8035              	.LASF143:
 8036 02d0 4D696E69 		.ascii	"MiniListItem_t\000"
 8036      4C697374 
 8036      4974656D 
 8036      5F7400
 8037              	.LASF196:
 8038 02df 70727649 		.ascii	"prvInsertTimerInActiveList\000"
 8038      6E736572 
 8038      7454696D 
 8038      6572496E 
 8038      41637469 
 8039              	.LASF67:
 8040 02fa 5F726565 		.ascii	"_reent\000"
 8040      6E7400
 8041              	.LASF225:
 8042 0301 78517565 		.ascii	"xQueueGenericCreate\000"
 8042      75654765 
 8042      6E657269 
 8042      63437265 
 8042      61746500 
 8043              	.LASF122:
 8044 0315 5F676C6F 		.ascii	"_global_impure_ptr\000"
 8044      62616C5F 
 8044      696D7075 
 8044      72655F70 
 8044      747200
 8045              	.LASF145:
 8046 0328 5461736B 		.ascii	"TaskHandle_t\000"
 8046      48616E64 
 8046      6C655F74 
 8046      00
 8047              	.LASF172:
 8048 0335 70784F76 		.ascii	"pxOverflowTimerList\000"
 8048      6572666C 
 8048      6F775469 
 8048      6D65724C 
 8048      69737400 
 8049              	.LASF139:
 8050 0349 7078496E 		.ascii	"pxIndex\000"
 8050      64657800 
 8051              	.LASF152:
 8052 0351 7854696D 		.ascii	"xTimerListItem\000"
 8052      65724C69 
 8052      73744974 
 8052      656D00
 8053              	.LASF22:
 8054 0360 63686172 		.ascii	"char\000"
 8054      00
 8055              	.LASF242:
 8056 0365 443A5C53 		.ascii	"D:\\STM32_Freertos_GCC_Makefile_Win\000"
ARM GAS  C:\Users\skey\AppData\Local\Temp\cceKeKCB.s 			page 171


 8056      544D3332 
 8056      5F467265 
 8056      6572746F 
 8056      735F4743 
 8057              	.LASF46:
 8058 0388 5F666E73 		.ascii	"_fns\000"
 8058      00
 8059              	.LASF169:
 8060 038d 78416374 		.ascii	"xActiveTimerList1\000"
 8060      69766554 
 8060      696D6572 
 8060      4C697374 
 8060      3100
 8061              	.LASF170:
 8062 039f 78416374 		.ascii	"xActiveTimerList2\000"
 8062      69766554 
 8062      696D6572 
 8062      4C697374 
 8062      3200
 8063              	.LASF142:
 8064 03b1 784D494E 		.ascii	"xMINI_LIST_ITEM\000"
 8064      495F4C49 
 8064      53545F49 
 8064      54454D00 
 8065              	.LASF58:
 8066 03c1 5F636C6F 		.ascii	"_close\000"
 8066      736500
 8067              	.LASF215:
 8068 03c8 784F7074 		.ascii	"xOptionalValue\000"
 8068      696F6E61 
 8068      6C56616C 
 8068      756500
 8069              	.LASF153:
 8070 03d7 7854696D 		.ascii	"xTimerPeriodInTicks\000"
 8070      65725065 
 8070      72696F64 
 8070      496E5469 
 8070      636B7300 
 8071              	.LASF69:
 8072 03eb 5F737464 		.ascii	"_stdin\000"
 8072      696E00
 8073              	.LASF165:
 8074 03f2 7854696D 		.ascii	"xTimerParameters\000"
 8074      65725061 
 8074      72616D65 
 8074      74657273 
 8074      00
 8075              	.LASF166:
 8076 0403 746D7254 		.ascii	"tmrTimerQueueMessage\000"
 8076      696D6572 
 8076      51756575 
 8076      654D6573 
 8076      73616765 
 8077              	.LASF148:
 8078 0418 51756575 		.ascii	"QueueDefinition\000"
 8078      65446566 
 8078      696E6974 
ARM GAS  C:\Users\skey\AppData\Local\Temp\cceKeKCB.s 			page 172


 8078      696F6E00 
 8079              	.LASF157:
 8080 0428 75635374 		.ascii	"ucStatus\000"
 8080      61747573 
 8080      00
 8081              	.LASF164:
 8082 0431 54696D65 		.ascii	"TimerParameter_t\000"
 8082      72506172 
 8082      616D6574 
 8082      65725F74 
 8082      00
 8083              	.LASF54:
 8084 0442 5F636F6F 		.ascii	"_cookie\000"
 8084      6B696500 
 8085              	.LASF186:
 8086 044a 784E6578 		.ascii	"xNextExpireTime\000"
 8086      74457870 
 8086      69726554 
 8086      696D6500 
 8087              	.LASF27:
 8088 045a 5F776473 		.ascii	"_wds\000"
 8088      00
 8089              	.LASF119:
 8090 045f 5F5F6C6F 		.ascii	"__lock\000"
 8090      636B00
 8091              	.LASF86:
 8092 0466 5F736967 		.ascii	"_sig_func\000"
 8092      5F66756E 
 8092      6300
 8093              	.LASF184:
 8094 0470 70727643 		.ascii	"prvCheckForValidListAndQueue\000"
 8094      6865636B 
 8094      466F7256 
 8094      616C6964 
 8094      4C697374 
 8095              	.LASF62:
 8096 048d 5F6F6666 		.ascii	"_offset\000"
 8096      73657400 
 8097              	.LASF240:
 8098 0495 474E5520 		.ascii	"GNU C17 9.2.1 20191025 (release) [ARM/arm-9-branch "
 8098      43313720 
 8098      392E322E 
 8098      31203230 
 8098      31393130 
 8099 04c8 72657669 		.ascii	"revision 277599] -mcpu=cortex-m3 -mthumb -mfloat-ab"
 8099      73696F6E 
 8099      20323737 
 8099      3539395D 
 8099      202D6D63 
 8100 04fb 693D736F 		.ascii	"i=soft -march=armv7-m -g -gdwarf-2 -Os -fomit-frame"
 8100      6674202D 
 8100      6D617263 
 8100      683D6172 
 8100      6D76372D 
 8101 052e 2D706F69 		.ascii	"-pointer\000"
 8101      6E746572 
 8101      00
ARM GAS  C:\Users\skey\AppData\Local\Temp\cceKeKCB.s 			page 173


 8102              	.LASF229:
 8103 0537 76546173 		.ascii	"vTaskSuspendAll\000"
 8103      6B537573 
 8103      70656E64 
 8103      416C6C00 
 8104              	.LASF235:
 8105 0547 78517565 		.ascii	"xQueueGenericSend\000"
 8105      75654765 
 8105      6E657269 
 8105      6353656E 
 8105      6400
 8106              	.LASF168:
 8107 0559 4461656D 		.ascii	"DaemonTaskMessage_t\000"
 8107      6F6E5461 
 8107      736B4D65 
 8107      73736167 
 8107      655F7400 
 8108              	.LASF80:
 8109 056d 5F703573 		.ascii	"_p5s\000"
 8109      00
 8110              	.LASF10:
 8111 0572 6C6F6E67 		.ascii	"long unsigned int\000"
 8111      20756E73 
 8111      69676E65 
 8111      6420696E 
 8111      7400
 8112              	.LASF203:
 8113 0584 70727650 		.ascii	"prvProcessTimerOrBlockTask\000"
 8113      726F6365 
 8113      73735469 
 8113      6D65724F 
 8113      72426C6F 
 8114              	.LASF50:
 8115 059f 5F5F7346 		.ascii	"__sFILE\000"
 8115      494C4500 
 8116              	.LASF76:
 8117 05a7 5F5F7364 		.ascii	"__sdidinit\000"
 8117      6964696E 
 8117      697400
 8118              	.LASF66:
 8119 05b2 5F666C61 		.ascii	"_flags2\000"
 8119      67733200 
 8120              	.LASF155:
 8121 05ba 70784361 		.ascii	"pxCallbackFunction\000"
 8121      6C6C6261 
 8121      636B4675 
 8121      6E637469 
 8121      6F6E00
 8122              	.LASF127:
 8123 05cd 53797374 		.ascii	"SystemCoreClock\000"
 8123      656D436F 
 8123      7265436C 
 8123      6F636B00 
 8124              	.LASF68:
 8125 05dd 5F657272 		.ascii	"_errno\000"
 8125      6E6F00
 8126              	.LASF232:
ARM GAS  C:\Users\skey\AppData\Local\Temp\cceKeKCB.s 			page 174


 8127 05e4 78517565 		.ascii	"xQueueReceive\000"
 8127      75655265 
 8127      63656976 
 8127      6500
 8128              	.LASF173:
 8129 05f2 7854696D 		.ascii	"xTimerQueue\000"
 8129      65725175 
 8129      65756500 
 8130              	.LASF108:
 8131 05fe 5F736967 		.ascii	"_signal_buf\000"
 8131      6E616C5F 
 8131      62756600 
 8132              	.LASF149:
 8133 060a 54696D65 		.ascii	"TimerHandle_t\000"
 8133      7248616E 
 8133      646C655F 
 8133      7400
 8134              	.LASF28:
 8135 0618 5F426967 		.ascii	"_Bigint\000"
 8135      696E7400 
 8136              	.LASF25:
 8137 0620 5F6D6178 		.ascii	"_maxwds\000"
 8137      77647300 
 8138              	.LASF190:
 8139 0628 784D6573 		.ascii	"xMessage\000"
 8139      73616765 
 8139      00
 8140              	.LASF150:
 8141 0631 746D7254 		.ascii	"tmrTimerControl\000"
 8141      696D6572 
 8141      436F6E74 
 8141      726F6C00 
 8142              	.LASF77:
 8143 0641 5F5F636C 		.ascii	"__cleanup\000"
 8143      65616E75 
 8143      7000
 8144              	.LASF85:
 8145 064b 5F617465 		.ascii	"_atexit0\000"
 8145      78697430 
 8145      00
 8146              	.LASF136:
 8147 0654 7076436F 		.ascii	"pvContainer\000"
 8147      6E746169 
 8147      6E657200 
 8148              	.LASF9:
 8149 0660 5F5F7569 		.ascii	"__uint32_t\000"
 8149      6E743332 
 8149      5F7400
 8150              	.LASF73:
 8151 066b 5F656D65 		.ascii	"_emergency\000"
 8151      7267656E 
 8151      637900
 8152              	.LASF1:
 8153 0676 6C6F6E67 		.ascii	"long long int\000"
 8153      206C6F6E 
 8153      6720696E 
 8153      7400
ARM GAS  C:\Users\skey\AppData\Local\Temp\cceKeKCB.s 			page 175


 8154              	.LASF167:
 8155 0684 784D6573 		.ascii	"xMessageID\000"
 8155      73616765 
 8155      494400
 8156              	.LASF174:
 8157 068f 7854696D 		.ascii	"xTimerTaskHandle\000"
 8157      65725461 
 8157      736B4861 
 8157      6E646C65 
 8157      00
 8158              	.LASF220:
 8159 06a0 7854696D 		.ascii	"xTimerCreate\000"
 8159      65724372 
 8159      65617465 
 8159      00
 8160              	.LASF181:
 8161 06ad 70765265 		.ascii	"pvReturn\000"
 8161      7475726E 
 8161      00
 8162              	.LASF91:
 8163 06b6 5F6E696F 		.ascii	"_niobs\000"
 8163      627300
 8164              	.LASF87:
 8165 06bd 5F5F7367 		.ascii	"__sglue\000"
 8165      6C756500 
 8166              	.LASF117:
 8167 06c5 5F6E6D61 		.ascii	"_nmalloc\000"
 8167      6C6C6F63 
 8167      00
 8168              	.LASF219:
 8169 06ce 70784E65 		.ascii	"pxNewTimer\000"
 8169      7754696D 
 8169      657200
 8170              	.LASF101:
 8171 06d9 5F67616D 		.ascii	"_gamma_signgam\000"
 8171      6D615F73 
 8171      69676E67 
 8171      616D00
 8172              	.LASF131:
 8173 06e8 784C4953 		.ascii	"xLIST_ITEM\000"
 8173      545F4954 
 8173      454D00
 8174              	.LASF162:
 8175 06f3 784D6573 		.ascii	"xMessageValue\000"
 8175      73616765 
 8175      56616C75 
 8175      6500
 8176              	.LASF159:
 8177 0701 7854494D 		.ascii	"xTIMER\000"
 8177      455200
 8178              	.LASF81:
 8179 0708 5F667265 		.ascii	"_freelist\000"
 8179      656C6973 
 8179      7400
 8180              	.LASF92:
 8181 0712 5F696F62 		.ascii	"_iobs\000"
 8181      7300
ARM GAS  C:\Users\skey\AppData\Local\Temp\cceKeKCB.s 			page 176


 8182              	.LASF90:
 8183 0718 5F676C75 		.ascii	"_glue\000"
 8183      6500
 8184              	.LASF126:
 8185 071e 49544D5F 		.ascii	"ITM_RxBuffer\000"
 8185      52784275 
 8185      66666572 
 8185      00
 8186              	.LASF26:
 8187 072b 5F736967 		.ascii	"_sign\000"
 8187      6E00
 8188              	.LASF189:
 8189 0731 78526573 		.ascii	"xResult\000"
 8189      756C7400 
 8190              	.LASF0:
 8191 0739 756E7369 		.ascii	"unsigned int\000"
 8191      676E6564 
 8191      20696E74 
 8191      00
 8192              	.LASF115:
 8193 0746 5F685F65 		.ascii	"_h_errno\000"
 8193      72726E6F 
 8193      00
 8194              	.LASF223:
 8195 074f 76506F72 		.ascii	"vPortExitCritical\000"
 8195      74457869 
 8195      74437269 
 8195      74696361 
 8195      6C00
 8196              	.LASF138:
 8197 0761 75784E75 		.ascii	"uxNumberOfItems\000"
 8197      6D626572 
 8197      4F664974 
 8197      656D7300 
 8198              	.LASF113:
 8199 0771 5F776372 		.ascii	"_wcrtomb_state\000"
 8199      746F6D62 
 8199      5F737461 
 8199      746500
 8200              	.LASF176:
 8201 0780 7654696D 		.ascii	"vTimerSetTimerNumber\000"
 8201      65725365 
 8201      7454696D 
 8201      65724E75 
 8201      6D626572 
 8202              	.LASF33:
 8203 0795 5F5F746D 		.ascii	"__tm_mday\000"
 8203      5F6D6461 
 8203      7900
 8204              	.LASF197:
 8205 079f 70727653 		.ascii	"prvSampleTimeNow\000"
 8205      616D706C 
 8205      6554696D 
 8205      654E6F77 
 8205      00
 8206              	.LASF178:
 8207 07b0 70764E65 		.ascii	"pvNewID\000"
ARM GAS  C:\Users\skey\AppData\Local\Temp\cceKeKCB.s 			page 177


 8207      77494400 
 8208              	.LASF84:
 8209 07b8 5F6E6577 		.ascii	"_new\000"
 8209      00
 8210              	.LASF59:
 8211 07bd 5F756275 		.ascii	"_ubuf\000"
 8211      6600
 8212              	.LASF71:
 8213 07c3 5F737464 		.ascii	"_stderr\000"
 8213      65727200 
 8214              	.LASF106:
 8215 07cb 5F776374 		.ascii	"_wctomb_state\000"
 8215      6F6D625F 
 8215      73746174 
 8215      6500
 8216              	.LASF65:
 8217 07d9 5F6D6273 		.ascii	"_mbstate\000"
 8217      74617465 
 8217      00
 8218              	.LASF144:
 8219 07e2 4C697374 		.ascii	"List_t\000"
 8219      5F7400
 8220              	.LASF102:
 8221 07e9 5F72616E 		.ascii	"_rand_next\000"
 8221      645F6E65 
 8221      787400
 8222              	.LASF51:
 8223 07f4 5F666C61 		.ascii	"_flags\000"
 8223      677300
 8224              	.LASF212:
 8225 07fb 7854696D 		.ascii	"xTimerGetPeriod\000"
 8225      65724765 
 8225      74506572 
 8225      696F6400 
 8226              	.LASF217:
 8227 080b 78546963 		.ascii	"xTicksToWait\000"
 8227      6B73546F 
 8227      57616974 
 8227      00
 8228              	.LASF231:
 8229 0818 78546173 		.ascii	"xTaskResumeAll\000"
 8229      6B526573 
 8229      756D6541 
 8229      6C6C00
 8230              	.LASF44:
 8231 0827 5F617465 		.ascii	"_atexit\000"
 8231      78697400 
 8232              	.LASF239:
 8233 082f 78546173 		.ascii	"xTaskCreate\000"
 8233      6B437265 
 8233      61746500 
 8234              	.LASF243:
 8235 083b 7854696D 		.ascii	"xTimerGetTimerDaemonTaskHandle\000"
 8235      65724765 
 8235      7454696D 
 8235      65724461 
 8235      656D6F6E 
ARM GAS  C:\Users\skey\AppData\Local\Temp\cceKeKCB.s 			page 178


 8236              	.LASF140:
 8237 085a 784C6973 		.ascii	"xListEnd\000"
 8237      74456E64 
 8237      00
 8238              	.LASF18:
 8239 0863 5F5F636F 		.ascii	"__count\000"
 8239      756E7400 
 8240              	.LASF211:
 8241 086b 75784175 		.ascii	"uxAutoReload\000"
 8241      746F5265 
 8241      6C6F6164 
 8241      00
 8242              	.LASF158:
 8243 0878 54696D65 		.ascii	"TimerCallbackFunction_t\000"
 8243      7243616C 
 8243      6C626163 
 8243      6B46756E 
 8243      6374696F 
 8244              	.LASF213:
 8245 0890 7854696D 		.ascii	"xTimerGenericCommand\000"
 8245      65724765 
 8245      6E657269 
 8245      63436F6D 
 8245      6D616E64 
 8246              	.LASF36:
 8247 08a5 5F5F746D 		.ascii	"__tm_wday\000"
 8247      5F776461 
 8247      7900
 8248              	.LASF2:
 8249 08af 6C6F6E67 		.ascii	"long double\000"
 8249      20646F75 
 8249      626C6500 
 8250              	.LASF37:
 8251 08bb 5F5F746D 		.ascii	"__tm_yday\000"
 8251      5F796461 
 8251      7900
 8252              	.LASF135:
 8253 08c5 70764F77 		.ascii	"pvOwner\000"
 8253      6E657200 
 8254              	.LASF94:
 8255 08cd 5F736565 		.ascii	"_seed\000"
 8255      6400
 8256              	.LASF57:
 8257 08d3 5F736565 		.ascii	"_seek\000"
 8257      6B00
 8258              	.LASF214:
 8259 08d9 78436F6D 		.ascii	"xCommandID\000"
 8259      6D616E64 
 8259      494400
 8260              	.LASF14:
 8261 08e4 5F66706F 		.ascii	"_fpos_t\000"
 8261      735F7400 
 8262              	.LASF17:
 8263 08ec 5F5F7763 		.ascii	"__wchb\000"
 8263      686200
 8264              	.LASF146:
 8265 08f3 74736B54 		.ascii	"tskTaskControlBlock\000"
ARM GAS  C:\Users\skey\AppData\Local\Temp\cceKeKCB.s 			page 179


 8265      61736B43 
 8265      6F6E7472 
 8265      6F6C426C 
 8265      6F636B00 
 8266              	.LASF179:
 8267 0907 75785469 		.ascii	"uxTimerGetTimerNumber\000"
 8267      6D657247 
 8267      65745469 
 8267      6D65724E 
 8267      756D6265 
 8268              	.LASF105:
 8269 091d 5F6D6274 		.ascii	"_mbtowc_state\000"
 8269      6F77635F 
 8269      73746174 
 8269      6500
 8270              	.LASF11:
 8271 092b 6C6F6E67 		.ascii	"long long unsigned int\000"
 8271      206C6F6E 
 8271      6720756E 
 8271      7369676E 
 8271      65642069 
 8272              	.LASF222:
 8273 0942 76506F72 		.ascii	"vPortEnterCritical\000"
 8273      74456E74 
 8273      65724372 
 8273      69746963 
 8273      616C00
 8274              	.LASF234:
 8275 0955 78546173 		.ascii	"xTaskGetSchedulerState\000"
 8275      6B476574 
 8275      53636865 
 8275      64756C65 
 8275      72537461 
 8276              	.LASF41:
 8277 096c 5F64736F 		.ascii	"_dso_handle\000"
 8277      5F68616E 
 8277      646C6500 
 8278              	.LASF93:
 8279 0978 5F72616E 		.ascii	"_rand48\000"
 8279      64343800 
 8280              	.LASF70:
 8281 0980 5F737464 		.ascii	"_stdout\000"
 8281      6F757400 
 8282              	.LASF129:
 8283 0988 55426173 		.ascii	"UBaseType_t\000"
 8283      65547970 
 8283      655F7400 
 8284              	.LASF134:
 8285 0994 70785072 		.ascii	"pxPrevious\000"
 8285      6576696F 
 8285      757300
 8286              	.LASF154:
 8287 099f 70765469 		.ascii	"pvTimerID\000"
 8287      6D657249 
 8287      4400
 8288              	.LASF61:
 8289 09a9 5F626C6B 		.ascii	"_blksize\000"
ARM GAS  C:\Users\skey\AppData\Local\Temp\cceKeKCB.s 			page 180


 8289      73697A65 
 8289      00
 8290              	.LASF161:
 8291 09b2 746D7254 		.ascii	"tmrTimerParameters\000"
 8291      696D6572 
 8291      50617261 
 8291      6D657465 
 8291      727300
 8292              	.LASF48:
 8293 09c5 5F626173 		.ascii	"_base\000"
 8293      6500
 8294              	.LASF130:
 8295 09cb 5469636B 		.ascii	"TickType_t\000"
 8295      54797065 
 8295      5F7400
 8296              	.LASF98:
 8297 09d6 5F737472 		.ascii	"_strtok_last\000"
 8297      746F6B5F 
 8297      6C617374 
 8297      00
 8298              	.LASF111:
 8299 09e3 5F6D6272 		.ascii	"_mbrtowc_state\000"
 8299      746F7763 
 8299      5F737461 
 8299      746500
 8300              	.LASF200:
 8301 09f2 70727647 		.ascii	"prvGetNextExpireTime\000"
 8301      65744E65 
 8301      78744578 
 8301      70697265 
 8301      54696D65 
 8302              	.LASF21:
 8303 0a07 5F666C6F 		.ascii	"_flock_t\000"
 8303      636B5F74 
 8303      00
 8304              	.LASF89:
 8305 0a10 5F5F4649 		.ascii	"__FILE\000"
 8305      4C4500
 8306              	.LASF20:
 8307 0a17 5F6D6273 		.ascii	"_mbstate_t\000"
 8307      74617465 
 8307      5F7400
 8308              	.LASF103:
 8309 0a22 5F723438 		.ascii	"_r48\000"
 8309      00
 8310              	.LASF15:
 8311 0a27 77696E74 		.ascii	"wint_t\000"
 8311      5F7400
 8312              	.LASF24:
 8313 0a2e 5F6E6578 		.ascii	"_next\000"
 8313      7400
 8314              	.LASF63:
 8315 0a34 5F646174 		.ascii	"_data\000"
 8315      6100
 8316              	.LASF188:
 8317 0a3a 70785465 		.ascii	"pxTemp\000"
 8317      6D7000
ARM GAS  C:\Users\skey\AppData\Local\Temp\cceKeKCB.s 			page 181


 8318              	.LASF226:
 8319 0a41 75784C69 		.ascii	"uxListRemove\000"
 8319      73745265 
 8319      6D6F7665 
 8319      00
 8320              	.LASF216:
 8321 0a4e 70784869 		.ascii	"pxHigherPriorityTaskWoken\000"
 8321      67686572 
 8321      5072696F 
 8321      72697479 
 8321      5461736B 
 8322              	.LASF221:
 8323 0a68 7854696D 		.ascii	"xTimerCreateTimerTask\000"
 8323      65724372 
 8323      65617465 
 8323      54696D65 
 8323      72546173 
 8324              	.LASF198:
 8325 0a7e 70785469 		.ascii	"pxTimerListsWereSwitched\000"
 8325      6D65724C 
 8325      69737473 
 8325      57657265 
 8325      53776974 
 8326              	.LASF104:
 8327 0a97 5F6D626C 		.ascii	"_mblen_state\000"
 8327      656E5F73 
 8327      74617465 
 8327      00
 8328              	.LASF5:
 8329 0aa4 73686F72 		.ascii	"short int\000"
 8329      7420696E 
 8329      7400
 8330              	.LASF205:
 8331 0aae 70727654 		.ascii	"prvTimerTask\000"
 8331      696D6572 
 8331      5461736B 
 8331      00
 8332              	.LASF123:
 8333 0abb 7375626F 		.ascii	"suboptarg\000"
 8333      70746172 
 8333      6700
 8334              	.LASF42:
 8335 0ac5 5F666E74 		.ascii	"_fntypes\000"
 8335      79706573 
 8335      00
 8336              	.LASF35:
 8337 0ace 5F5F746D 		.ascii	"__tm_year\000"
 8337      5F796561 
 8337      7200
 8338              	.LASF156:
 8339 0ad8 75785469 		.ascii	"uxTimerNumber\000"
 8339      6D65724E 
 8339      756D6265 
 8339      7200
 8340              	.LASF141:
 8341 0ae6 4C697374 		.ascii	"ListItem_t\000"
 8341      4974656D 
ARM GAS  C:\Users\skey\AppData\Local\Temp\cceKeKCB.s 			page 182


 8341      5F7400
 8342              	.LASF53:
 8343 0af1 5F6C6266 		.ascii	"_lbfsize\000"
 8343      73697A65 
 8343      00
 8344              	.LASF72:
 8345 0afa 5F696E63 		.ascii	"_inc\000"
 8345      00
 8346              	.LASF45:
 8347 0aff 5F696E64 		.ascii	"_ind\000"
 8347      00
 8348              	.LASF47:
 8349 0b04 5F5F7362 		.ascii	"__sbuf\000"
 8349      756600
 8350              	.LASF43:
 8351 0b0b 5F69735F 		.ascii	"_is_cxa\000"
 8351      63786100 
 8352              	.LASF12:
 8353 0b13 5F4C4F43 		.ascii	"_LOCK_T\000"
 8353      4B5F5400 
 8354              	.LASF191:
 8355 0b1b 7854696D 		.ascii	"xTimerListsWereSwitched\000"
 8355      65724C69 
 8355      73747357 
 8355      65726553 
 8355      77697463 
 8356              	.LASF116:
 8357 0b33 5F6E6578 		.ascii	"_nextf\000"
 8357      746600
 8358              	.LASF206:
 8359 0b3a 70765061 		.ascii	"pvParameters\000"
 8359      72616D65 
 8359      74657273 
 8359      00
 8360              	.LASF180:
 8361 0b47 70765469 		.ascii	"pvTimerGetTimerID\000"
 8361      6D657247 
 8361      65745469 
 8361      6D657249 
 8361      4400
 8362              	.LASF75:
 8363 0b59 5F6C6F63 		.ascii	"_locale\000"
 8363      616C6500 
 8364              	.LASF23:
 8365 0b61 5F5F554C 		.ascii	"__ULong\000"
 8365      6F6E6700 
 8366              	.LASF125:
 8367 0b69 75696E74 		.ascii	"uint32_t\000"
 8367      33325F74 
 8367      00
 8368              	.LASF78:
 8369 0b72 5F726573 		.ascii	"_result\000"
 8369      756C7400 
 8370              	.LASF193:
 8371 0b7a 784E6578 		.ascii	"xNextExpiryTime\000"
 8371      74457870 
 8371      69727954 
ARM GAS  C:\Users\skey\AppData\Local\Temp\cceKeKCB.s 			page 183


 8371      696D6500 
 8372              	.LASF13:
 8373 0b8a 5F6F6666 		.ascii	"_off_t\000"
 8373      5F7400
 8374              	.LASF96:
 8375 0b91 5F616464 		.ascii	"_add\000"
 8375      00
 8376              	.LASF6:
 8377 0b96 73686F72 		.ascii	"short unsigned int\000"
 8377      7420756E 
 8377      7369676E 
 8377      65642069 
 8377      6E7400
 8378              	.LASF32:
 8379 0ba9 5F5F746D 		.ascii	"__tm_hour\000"
 8379      5F686F75 
 8379      7200
 8380              	.LASF182:
 8381 0bb3 7854696D 		.ascii	"xTimerIsTimerActive\000"
 8381      65724973 
 8381      54696D65 
 8381      72416374 
 8381      69766500 
 8382              	.LASF218:
 8383 0bc7 70727649 		.ascii	"prvInitialiseNewTimer\000"
 8383      6E697469 
 8383      616C6973 
 8383      654E6577 
 8383      54696D65 
 8384              	.LASF112:
 8385 0bdd 5F6D6273 		.ascii	"_mbsrtowcs_state\000"
 8385      72746F77 
 8385      63735F73 
 8385      74617465 
 8385      00
 8386              	.LASF202:
 8387 0bee 70727650 		.ascii	"prvProcessReceivedCommands\000"
 8387      726F6365 
 8387      73735265 
 8387      63656976 
 8387      6564436F 
 8388              	.LASF233:
 8389 0c09 76506F72 		.ascii	"vPortFree\000"
 8389      74467265 
 8389      6500
 8390              	.LASF187:
 8391 0c13 7852656C 		.ascii	"xReloadTime\000"
 8391      6F616454 
 8391      696D6500 
 8392              	.LASF199:
 8393 0c1f 784C6173 		.ascii	"xLastTime\000"
 8393      7454696D 
 8393      6500
 8394              	.LASF204:
 8395 0c29 784C6973 		.ascii	"xListWasEmpty\000"
 8395      74576173 
 8395      456D7074 
ARM GAS  C:\Users\skey\AppData\Local\Temp\cceKeKCB.s 			page 184


 8395      7900
 8396              	.LASF40:
 8397 0c37 5F666E61 		.ascii	"_fnargs\000"
 8397      72677300 
 8398              	.LASF38:
 8399 0c3f 5F5F746D 		.ascii	"__tm_isdst\000"
 8399      5F697364 
 8399      737400
 8400              	.LASF31:
 8401 0c4a 5F5F746D 		.ascii	"__tm_min\000"
 8401      5F6D696E 
 8401      00
 8402              	.LASF185:
 8403 0c53 70727653 		.ascii	"prvSwitchTimerLists\000"
 8403      77697463 
 8403      6854696D 
 8403      65724C69 
 8403      73747300 
 8404              	.LASF109:
 8405 0c67 5F676574 		.ascii	"_getdate_err\000"
 8405      64617465 
 8405      5F657272 
 8405      00
 8406              	.LASF132:
 8407 0c74 78497465 		.ascii	"xItemValue\000"
 8407      6D56616C 
 8407      756500
 8408              		.ident	"GCC: (GNU Tools for Arm Embedded Processors 9-2019-q4-major) 9.2.1 20191025 (release) [ARM
ARM GAS  C:\Users\skey\AppData\Local\Temp\cceKeKCB.s 			page 185


DEFINED SYMBOLS
                            *ABS*:00000000 timers.c
C:\Users\skey\AppData\Local\Temp\cceKeKCB.s:75     .text:00000000 $t
C:\Users\skey\AppData\Local\Temp\cceKeKCB.s:82     .text:00000000 prvCheckForValidListAndQueue
C:\Users\skey\AppData\Local\Temp\cceKeKCB.s:165    .text:00000038 $d
C:\Users\skey\AppData\Local\Temp\cceKeKCB.s:169    .text:0000003c $t
C:\Users\skey\AppData\Local\Temp\cceKeKCB.s:175    .text:0000003c prvInsertTimerInActiveList
C:\Users\skey\AppData\Local\Temp\cceKeKCB.s:279    .text:00000070 $d
C:\Users\skey\AppData\Local\Temp\cceKeKCB.s:287    .text:00000074 $t
C:\Users\skey\AppData\Local\Temp\cceKeKCB.s:294    .text:00000074 xTimerCreateTimerTask
C:\Users\skey\AppData\Local\Temp\cceKeKCB.s:345    .text:0000009c $d
C:\Users\skey\AppData\Local\Temp\cceKeKCB.s:727    .text:00000194 prvTimerTask
C:\Users\skey\AppData\Local\Temp\cceKeKCB.s:351    .text:000000a8 $t
C:\Users\skey\AppData\Local\Temp\cceKeKCB.s:358    .text:000000a8 xTimerCreate
C:\Users\skey\AppData\Local\Temp\cceKeKCB.s:465    .text:000000ee xTimerGenericCommand
C:\Users\skey\AppData\Local\Temp\cceKeKCB.s:571    .text:0000012c $d
C:\Users\skey\AppData\Local\Temp\cceKeKCB.s:575    .text:00000130 $t
C:\Users\skey\AppData\Local\Temp\cceKeKCB.s:581    .text:00000130 prvSwitchTimerLists
C:\Users\skey\AppData\Local\Temp\cceKeKCB.s:717    .text:00000190 $d
C:\Users\skey\AppData\Local\Temp\cceKeKCB.s:721    .text:00000194 $t
C:\Users\skey\AppData\Local\Temp\cceKeKCB.s:1174   .text:000002d8 $d
C:\Users\skey\AppData\Local\Temp\cceKeKCB.s:1185   .text:00000300 $t
C:\Users\skey\AppData\Local\Temp\cceKeKCB.s:1243   .text:0000033c $d
C:\Users\skey\AppData\Local\Temp\cceKeKCB.s:1250   .text:00000344 $t
C:\Users\skey\AppData\Local\Temp\cceKeKCB.s:1257   .text:00000344 xTimerGetTimerDaemonTaskHandle
C:\Users\skey\AppData\Local\Temp\cceKeKCB.s:1274   .text:0000034c $d
C:\Users\skey\AppData\Local\Temp\cceKeKCB.s:1278   .text:00000350 $t
C:\Users\skey\AppData\Local\Temp\cceKeKCB.s:1285   .text:00000350 xTimerGetPeriod
C:\Users\skey\AppData\Local\Temp\cceKeKCB.s:1312   .text:00000354 vTimerSetReloadMode
C:\Users\skey\AppData\Local\Temp\cceKeKCB.s:1387   .text:0000037a xTimerGetExpiryTime
C:\Users\skey\AppData\Local\Temp\cceKeKCB.s:1416   .text:0000037e pcTimerGetName
C:\Users\skey\AppData\Local\Temp\cceKeKCB.s:1443   .text:00000382 xTimerIsTimerActive
C:\Users\skey\AppData\Local\Temp\cceKeKCB.s:1497   .text:0000039a pvTimerGetTimerID
C:\Users\skey\AppData\Local\Temp\cceKeKCB.s:1545   .text:000003ac vTimerSetTimerID
C:\Users\skey\AppData\Local\Temp\cceKeKCB.s:1605   .text:000003c0 uxTimerGetTimerNumber
C:\Users\skey\AppData\Local\Temp\cceKeKCB.s:1630   .text:000003c4 vTimerSetTimerNumber
C:\Users\skey\AppData\Local\Temp\cceKeKCB.s:1649   .bss:00000000 $d
C:\Users\skey\AppData\Local\Temp\cceKeKCB.s:1653   .bss:00000000 xTimerQueue
C:\Users\skey\AppData\Local\Temp\cceKeKCB.s:1657   .bss:00000004 xActiveTimerList1
C:\Users\skey\AppData\Local\Temp\cceKeKCB.s:1661   .bss:00000018 xActiveTimerList2
C:\Users\skey\AppData\Local\Temp\cceKeKCB.s:1665   .bss:0000002c pxCurrentTimerList
C:\Users\skey\AppData\Local\Temp\cceKeKCB.s:1669   .bss:00000030 pxOverflowTimerList
C:\Users\skey\AppData\Local\Temp\cceKeKCB.s:1673   .bss:00000034 xTimerTaskHandle
C:\Users\skey\AppData\Local\Temp\cceKeKCB.s:1677   .bss:00000038 xLastTime.7797

UNDEFINED SYMBOLS
vPortEnterCritical
vListInitialise
xQueueGenericCreate
vPortExitCritical
vListInsert
xTaskCreate
pvPortMalloc
vListInitialiseItem
xTaskGetSchedulerState
xQueueGenericSend
xQueueGenericSendFromISR
ARM GAS  C:\Users\skey\AppData\Local\Temp\cceKeKCB.s 			page 186


uxListRemove
vTaskSuspendAll
xTaskGetTickCount
vQueueWaitForMessageRestricted
xTaskResumeAll
xQueueReceive
vPortFree
