ARM GAS  C:\Users\skey\AppData\Local\Temp\cceKeKCB.s 			page 1


   1              		.cpu cortex-m3
   2              		.eabi_attribute 20, 1	@ Tag_ABI_FP_denormal
   3              		.eabi_attribute 21, 1	@ Tag_ABI_FP_exceptions
   4              		.eabi_attribute 23, 3	@ Tag_ABI_FP_number_model
   5              		.eabi_attribute 24, 1	@ Tag_ABI_align8_needed
   6              		.eabi_attribute 25, 1	@ Tag_ABI_align8_preserved
   7              		.eabi_attribute 26, 1	@ Tag_ABI_enum_size
   8              		.eabi_attribute 30, 4	@ Tag_ABI_optimization_goals
   9              		.eabi_attribute 34, 1	@ Tag_CPU_unaligned_access
  10              		.eabi_attribute 18, 4	@ Tag_ABI_PCS_wchar_t
  11              		.file	"timers.c"
  12              	@ GNU C17 (GNU Tools for Arm Embedded Processors 9-2019-q4-major) version 9.2.1 20191025 (release) 
  13              	@	compiled by GNU C version 5.3.1 20160211, GMP version 6.1.0, MPFR version 3.1.4, MPC version 1.0.
  14              	
  15              	@ GGC heuristics: --param ggc-min-expand=100 --param ggc-min-heapsize=131072
  16              	@ options passed:  -I . -I .\usr_inc -I .\task_inc
  17              	@ -I .\stlib\CMSIS\CM3\CoreSupport
  18              	@ -I .\stlib\CMSIS\CM3\DeviceSupport\ST\STM32F10x
  19              	@ -I .\stlib\STM32F10x_StdPeriph_Driver\inc
  20              	@ -I .\stlib\STM32F10x_StdPeriph_Driver -I .\freertos\include
  21              	@ -I .\freertos\portable\GCC\ARM_CM3 -imultilib thumb/v7-m/nofp
  22              	@ -iprefix c:\program files (x86)\gnu tools arm embedded\9 2019-q4-major\bin\../lib/gcc/arm-none-ea
  23              	@ -isysroot c:\program files (x86)\gnu tools arm embedded\9 2019-q4-major\bin\../arm-none-eabi
  24              	@ -D__USES_INITFINI__ -D STM32F10X_HD -D USE_STDPERIPH_DRIVER
  25              	@ -D HSE_VALUE=8000000 -D RUN_FROM_FLASH=1 .\freertos\timers.c
  26              	@ -mcpu=cortex-m3 -mthumb -mfloat-abi=soft -march=armv7-m
  27              	@ -auxbase-strip .\freertos\timers.o -g -gdwarf-2 -Os -Wall
  28              	@ -fomit-frame-pointer -fverbose-asm
  29              	@ options enabled:  -faggressive-loop-optimizations -fassume-phsa
  30              	@ -fauto-inc-dec -fbranch-count-reg -fcaller-saves -fcode-hoisting
  31              	@ -fcombine-stack-adjustments -fcommon -fcompare-elim -fcprop-registers
  32              	@ -fcrossjumping -fcse-follow-jumps -fdefer-pop
  33              	@ -fdelete-null-pointer-checks -fdevirtualize -fdevirtualize-speculatively
  34              	@ -fdwarf2-cfi-asm -fearly-inlining -feliminate-unused-debug-types
  35              	@ -fexpensive-optimizations -fforward-propagate -ffp-int-builtin-inexact
  36              	@ -ffunction-cse -fgcse -fgcse-lm -fgnu-runtime -fgnu-unique
  37              	@ -fguess-branch-probability -fhoist-adjacent-loads -fident -fif-conversion
  38              	@ -fif-conversion2 -findirect-inlining -finline -finline-atomics
  39              	@ -finline-functions -finline-functions-called-once
  40              	@ -finline-small-functions -fipa-bit-cp -fipa-cp -fipa-icf
  41              	@ -fipa-icf-functions -fipa-icf-variables -fipa-profile -fipa-pure-const
  42              	@ -fipa-ra -fipa-reference -fipa-reference-addressable -fipa-sra
  43              	@ -fipa-stack-alignment -fipa-vrp -fira-hoist-pressure
  44              	@ -fira-share-save-slots -fira-share-spill-slots
  45              	@ -fisolate-erroneous-paths-dereference -fivopts -fkeep-static-consts
  46              	@ -fleading-underscore -flifetime-dse -flra-remat -flto-odr-type-merging
  47              	@ -fmath-errno -fmerge-constants -fmerge-debug-strings
  48              	@ -fmove-loop-invariants -fomit-frame-pointer -foptimize-sibling-calls
  49              	@ -fpartial-inlining -fpeephole -fpeephole2 -fplt -fprefetch-loop-arrays
  50              	@ -freg-struct-return -freorder-blocks -freorder-functions
  51              	@ -frerun-cse-after-loop -fsched-critical-path-heuristic
  52              	@ -fsched-dep-count-heuristic -fsched-group-heuristic -fsched-interblock
  53              	@ -fsched-last-insn-heuristic -fsched-pressure -fsched-rank-heuristic
  54              	@ -fsched-spec -fsched-spec-insn-heuristic -fsched-stalled-insns-dep
  55              	@ -fschedule-insns2 -fsection-anchors -fsemantic-interposition
  56              	@ -fshow-column -fshrink-wrap-separate -fsigned-zeros
  57              	@ -fsplit-ivs-in-unroller -fsplit-wide-types -fssa-backprop -fssa-phiopt
ARM GAS  C:\Users\skey\AppData\Local\Temp\cceKeKCB.s 			page 2


  58              	@ -fstdarg-opt -fstore-merging -fstrict-aliasing
  59              	@ -fstrict-volatile-bitfields -fsync-libcalls -fthread-jumps
  60              	@ -ftoplevel-reorder -ftrapping-math -ftree-bit-ccp -ftree-builtin-call-dce
  61              	@ -ftree-ccp -ftree-ch -ftree-coalesce-vars -ftree-copy-prop -ftree-cselim
  62              	@ -ftree-dce -ftree-dominator-opts -ftree-dse -ftree-forwprop -ftree-fre
  63              	@ -ftree-loop-if-convert -ftree-loop-im -ftree-loop-ivcanon
  64              	@ -ftree-loop-optimize -ftree-parallelize-loops= -ftree-phiprop -ftree-pre
  65              	@ -ftree-pta -ftree-reassoc -ftree-scev-cprop -ftree-sink -ftree-slsr
  66              	@ -ftree-sra -ftree-switch-conversion -ftree-tail-merge -ftree-ter
  67              	@ -ftree-vrp -funit-at-a-time -fvar-tracking -fvar-tracking-assignments
  68              	@ -fverbose-asm -fzero-initialized-in-bss -masm-syntax-unified -mbe32
  69              	@ -mfix-cortex-m3-ldrd -mlittle-endian -mpic-data-is-text-relative
  70              	@ -msched-prolog -mthumb -munaligned-access -mvectorize-with-neon-quad
  71              	
  72              		.text
  73              	.Ltext0:
  74              		.cfi_sections	.debug_frame
  75              		.align	1
  76              		.arch armv7-m
  77              		.syntax unified
  78              		.thumb
  79              		.thumb_func
  80              		.fpu softvfp
  81              		.type	prvCheckForValidListAndQueue, %function
  82              	prvCheckForValidListAndQueue:
  83              	.LFB51:
  84              		.file 1 ".\\freertos\\timers.c"
   1:.\freertos/timers.c **** /*
   2:.\freertos/timers.c ****  * FreeRTOS Kernel V10.2.1
   3:.\freertos/timers.c ****  * Copyright (C) 2019 Amazon.com, Inc. or its affiliates.  All Rights Reserved.
   4:.\freertos/timers.c ****  *
   5:.\freertos/timers.c ****  * Permission is hereby granted, free of charge, to any person obtaining a copy of
   6:.\freertos/timers.c ****  * this software and associated documentation files (the "Software"), to deal in
   7:.\freertos/timers.c ****  * the Software without restriction, including without limitation the rights to
   8:.\freertos/timers.c ****  * use, copy, modify, merge, publish, distribute, sublicense, and/or sell copies of
   9:.\freertos/timers.c ****  * the Software, and to permit persons to whom the Software is furnished to do so,
  10:.\freertos/timers.c ****  * subject to the following conditions:
  11:.\freertos/timers.c ****  *
  12:.\freertos/timers.c ****  * The above copyright notice and this permission notice shall be included in all
  13:.\freertos/timers.c ****  * copies or substantial portions of the Software.
  14:.\freertos/timers.c ****  *
  15:.\freertos/timers.c ****  * THE SOFTWARE IS PROVIDED "AS IS", WITHOUT WARRANTY OF ANY KIND, EXPRESS OR
  16:.\freertos/timers.c ****  * IMPLIED, INCLUDING BUT NOT LIMITED TO THE WARRANTIES OF MERCHANTABILITY, FITNESS
  17:.\freertos/timers.c ****  * FOR A PARTICULAR PURPOSE AND NONINFRINGEMENT. IN NO EVENT SHALL THE AUTHORS OR
  18:.\freertos/timers.c ****  * COPYRIGHT HOLDERS BE LIABLE FOR ANY CLAIM, DAMAGES OR OTHER LIABILITY, WHETHER
  19:.\freertos/timers.c ****  * IN AN ACTION OF CONTRACT, TORT OR OTHERWISE, ARISING FROM, OUT OF OR IN
  20:.\freertos/timers.c ****  * CONNECTION WITH THE SOFTWARE OR THE USE OR OTHER DEALINGS IN THE SOFTWARE.
  21:.\freertos/timers.c ****  *
  22:.\freertos/timers.c ****  * http://www.FreeRTOS.org
  23:.\freertos/timers.c ****  * http://aws.amazon.com/freertos
  24:.\freertos/timers.c ****  *
  25:.\freertos/timers.c ****  * 1 tab == 4 spaces!
  26:.\freertos/timers.c ****  */
  27:.\freertos/timers.c **** 
  28:.\freertos/timers.c **** /* Standard includes. */
  29:.\freertos/timers.c **** #include <stdlib.h>
  30:.\freertos/timers.c **** 
ARM GAS  C:\Users\skey\AppData\Local\Temp\cceKeKCB.s 			page 3


  31:.\freertos/timers.c **** /* Defining MPU_WRAPPERS_INCLUDED_FROM_API_FILE prevents task.h from redefining
  32:.\freertos/timers.c **** all the API functions to use the MPU wrappers.  That should only be done when
  33:.\freertos/timers.c **** task.h is included from an application file. */
  34:.\freertos/timers.c **** #define MPU_WRAPPERS_INCLUDED_FROM_API_FILE
  35:.\freertos/timers.c **** 
  36:.\freertos/timers.c **** #include "FreeRTOS.h"
  37:.\freertos/timers.c **** #include "task.h"
  38:.\freertos/timers.c **** #include "queue.h"
  39:.\freertos/timers.c **** #include "timers.h"
  40:.\freertos/timers.c **** 
  41:.\freertos/timers.c **** #if ( INCLUDE_xTimerPendFunctionCall == 1 ) && ( configUSE_TIMERS == 0 )
  42:.\freertos/timers.c **** 	#error configUSE_TIMERS must be set to 1 to make the xTimerPendFunctionCall() function available.
  43:.\freertos/timers.c **** #endif
  44:.\freertos/timers.c **** 
  45:.\freertos/timers.c **** /* Lint e9021, e961 and e750 are suppressed as a MISRA exception justified
  46:.\freertos/timers.c **** because the MPU ports require MPU_WRAPPERS_INCLUDED_FROM_API_FILE to be defined
  47:.\freertos/timers.c **** for the header files above, but not in this file, in order to generate the
  48:.\freertos/timers.c **** correct privileged Vs unprivileged linkage and placement. */
  49:.\freertos/timers.c **** #undef MPU_WRAPPERS_INCLUDED_FROM_API_FILE /*lint !e9021 !e961 !e750. */
  50:.\freertos/timers.c **** 
  51:.\freertos/timers.c **** 
  52:.\freertos/timers.c **** /* This entire source file will be skipped if the application is not configured
  53:.\freertos/timers.c **** to include software timer functionality.  This #if is closed at the very bottom
  54:.\freertos/timers.c **** of this file.  If you want to include software timer functionality then ensure
  55:.\freertos/timers.c **** configUSE_TIMERS is set to 1 in FreeRTOSConfig.h. */
  56:.\freertos/timers.c **** #if ( configUSE_TIMERS == 1 )
  57:.\freertos/timers.c **** 
  58:.\freertos/timers.c **** /* Misc definitions. */
  59:.\freertos/timers.c **** #define tmrNO_DELAY		( TickType_t ) 0U
  60:.\freertos/timers.c **** 
  61:.\freertos/timers.c **** /* The name assigned to the timer service task.  This can be overridden by
  62:.\freertos/timers.c **** defining trmTIMER_SERVICE_TASK_NAME in FreeRTOSConfig.h. */
  63:.\freertos/timers.c **** #ifndef configTIMER_SERVICE_TASK_NAME
  64:.\freertos/timers.c **** 	#define configTIMER_SERVICE_TASK_NAME "Tmr Svc"
  65:.\freertos/timers.c **** #endif
  66:.\freertos/timers.c **** 
  67:.\freertos/timers.c **** /* Bit definitions used in the ucStatus member of a timer structure. */
  68:.\freertos/timers.c **** #define tmrSTATUS_IS_ACTIVE					( ( uint8_t ) 0x01 )
  69:.\freertos/timers.c **** #define tmrSTATUS_IS_STATICALLY_ALLOCATED	( ( uint8_t ) 0x02 )
  70:.\freertos/timers.c **** #define tmrSTATUS_IS_AUTORELOAD				( ( uint8_t ) 0x04 )
  71:.\freertos/timers.c **** 
  72:.\freertos/timers.c **** /* The definition of the timers themselves. */
  73:.\freertos/timers.c **** typedef struct tmrTimerControl /* The old naming convention is used to prevent breaking kernel awar
  74:.\freertos/timers.c **** {
  75:.\freertos/timers.c **** 	const char				*pcTimerName;		/*<< Text name.  This is not used by the kernel, it is included simpl
  76:.\freertos/timers.c **** 	ListItem_t				xTimerListItem;		/*<< Standard linked list item as used by all kernel features for e
  77:.\freertos/timers.c **** 	TickType_t				xTimerPeriodInTicks;/*<< How quickly and often the timer expires. */
  78:.\freertos/timers.c **** 	void 					*pvTimerID;			/*<< An ID to identify the timer.  This allows the timer to be identified 
  79:.\freertos/timers.c **** 	TimerCallbackFunction_t	pxCallbackFunction;	/*<< The function that will be called when the timer e
  80:.\freertos/timers.c **** 	#if( configUSE_TRACE_FACILITY == 1 )
  81:.\freertos/timers.c **** 		UBaseType_t			uxTimerNumber;		/*<< An ID assigned by trace tools such as FreeRTOS+Trace */
  82:.\freertos/timers.c **** 	#endif
  83:.\freertos/timers.c **** 	uint8_t 				ucStatus;			/*<< Holds bits to say if the timer was statically allocated or not, and i
  84:.\freertos/timers.c **** } xTIMER;
  85:.\freertos/timers.c **** 
  86:.\freertos/timers.c **** /* The old xTIMER name is maintained above then typedefed to the new Timer_t
  87:.\freertos/timers.c **** name below to enable the use of older kernel aware debuggers. */
ARM GAS  C:\Users\skey\AppData\Local\Temp\cceKeKCB.s 			page 4


  88:.\freertos/timers.c **** typedef xTIMER Timer_t;
  89:.\freertos/timers.c **** 
  90:.\freertos/timers.c **** /* The definition of messages that can be sent and received on the timer queue.
  91:.\freertos/timers.c **** Two types of message can be queued - messages that manipulate a software timer,
  92:.\freertos/timers.c **** and messages that request the execution of a non-timer related callback.  The
  93:.\freertos/timers.c **** two message types are defined in two separate structures, xTimerParametersType
  94:.\freertos/timers.c **** and xCallbackParametersType respectively. */
  95:.\freertos/timers.c **** typedef struct tmrTimerParameters
  96:.\freertos/timers.c **** {
  97:.\freertos/timers.c **** 	TickType_t			xMessageValue;		/*<< An optional value used by a subset of commands, for example, whe
  98:.\freertos/timers.c **** 	Timer_t *			pxTimer;			/*<< The timer to which the command will be applied. */
  99:.\freertos/timers.c **** } TimerParameter_t;
 100:.\freertos/timers.c **** 
 101:.\freertos/timers.c **** 
 102:.\freertos/timers.c **** typedef struct tmrCallbackParameters
 103:.\freertos/timers.c **** {
 104:.\freertos/timers.c **** 	PendedFunction_t	pxCallbackFunction;	/* << The callback function to execute. */
 105:.\freertos/timers.c **** 	void *pvParameter1;						/* << The value that will be used as the callback functions first paramet
 106:.\freertos/timers.c **** 	uint32_t ulParameter2;					/* << The value that will be used as the callback functions second para
 107:.\freertos/timers.c **** } CallbackParameters_t;
 108:.\freertos/timers.c **** 
 109:.\freertos/timers.c **** /* The structure that contains the two message types, along with an identifier
 110:.\freertos/timers.c **** that is used to determine which message type is valid. */
 111:.\freertos/timers.c **** typedef struct tmrTimerQueueMessage
 112:.\freertos/timers.c **** {
 113:.\freertos/timers.c **** 	BaseType_t			xMessageID;			/*<< The command being sent to the timer service task. */
 114:.\freertos/timers.c **** 	union
 115:.\freertos/timers.c **** 	{
 116:.\freertos/timers.c **** 		TimerParameter_t xTimerParameters;
 117:.\freertos/timers.c **** 
 118:.\freertos/timers.c **** 		/* Don't include xCallbackParameters if it is not going to be used as
 119:.\freertos/timers.c **** 		it makes the structure (and therefore the timer queue) larger. */
 120:.\freertos/timers.c **** 		#if ( INCLUDE_xTimerPendFunctionCall == 1 )
 121:.\freertos/timers.c **** 			CallbackParameters_t xCallbackParameters;
 122:.\freertos/timers.c **** 		#endif /* INCLUDE_xTimerPendFunctionCall */
 123:.\freertos/timers.c **** 	} u;
 124:.\freertos/timers.c **** } DaemonTaskMessage_t;
 125:.\freertos/timers.c **** 
 126:.\freertos/timers.c **** /*lint -save -e956 A manual analysis and inspection has been used to determine
 127:.\freertos/timers.c **** which static variables must be declared volatile. */
 128:.\freertos/timers.c **** 
 129:.\freertos/timers.c **** /* The list in which active timers are stored.  Timers are referenced in expire
 130:.\freertos/timers.c **** time order, with the nearest expiry time at the front of the list.  Only the
 131:.\freertos/timers.c **** timer service task is allowed to access these lists.
 132:.\freertos/timers.c **** xActiveTimerList1 and xActiveTimerList2 could be at function scope but that
 133:.\freertos/timers.c **** breaks some kernel aware debuggers, and debuggers that reply on removing the
 134:.\freertos/timers.c **** static qualifier. */
 135:.\freertos/timers.c **** PRIVILEGED_DATA static List_t xActiveTimerList1;
 136:.\freertos/timers.c **** PRIVILEGED_DATA static List_t xActiveTimerList2;
 137:.\freertos/timers.c **** PRIVILEGED_DATA static List_t *pxCurrentTimerList;
 138:.\freertos/timers.c **** PRIVILEGED_DATA static List_t *pxOverflowTimerList;
 139:.\freertos/timers.c **** 
 140:.\freertos/timers.c **** /* A queue that is used to send commands to the timer service task. */
 141:.\freertos/timers.c **** PRIVILEGED_DATA static QueueHandle_t xTimerQueue = NULL;
 142:.\freertos/timers.c **** PRIVILEGED_DATA static TaskHandle_t xTimerTaskHandle = NULL;
 143:.\freertos/timers.c **** 
 144:.\freertos/timers.c **** /*lint -restore */
ARM GAS  C:\Users\skey\AppData\Local\Temp\cceKeKCB.s 			page 5


 145:.\freertos/timers.c **** 
 146:.\freertos/timers.c **** /*-----------------------------------------------------------*/
 147:.\freertos/timers.c **** 
 148:.\freertos/timers.c **** #if( configSUPPORT_STATIC_ALLOCATION == 1 )
 149:.\freertos/timers.c **** 
 150:.\freertos/timers.c **** 	/* If static allocation is supported then the application must provide the
 151:.\freertos/timers.c **** 	following callback function - which enables the application to optionally
 152:.\freertos/timers.c **** 	provide the memory that will be used by the timer task as the task's stack
 153:.\freertos/timers.c **** 	and TCB. */
 154:.\freertos/timers.c **** 	extern void vApplicationGetTimerTaskMemory( StaticTask_t **ppxTimerTaskTCBBuffer, StackType_t **pp
 155:.\freertos/timers.c **** 
 156:.\freertos/timers.c **** #endif
 157:.\freertos/timers.c **** 
 158:.\freertos/timers.c **** /*
 159:.\freertos/timers.c ****  * Initialise the infrastructure used by the timer service task if it has not
 160:.\freertos/timers.c ****  * been initialised already.
 161:.\freertos/timers.c ****  */
 162:.\freertos/timers.c **** static void prvCheckForValidListAndQueue( void ) PRIVILEGED_FUNCTION;
 163:.\freertos/timers.c **** 
 164:.\freertos/timers.c **** /*
 165:.\freertos/timers.c ****  * The timer service task (daemon).  Timer functionality is controlled by this
 166:.\freertos/timers.c ****  * task.  Other tasks communicate with the timer service task using the
 167:.\freertos/timers.c ****  * xTimerQueue queue.
 168:.\freertos/timers.c ****  */
 169:.\freertos/timers.c **** static portTASK_FUNCTION_PROTO( prvTimerTask, pvParameters ) PRIVILEGED_FUNCTION;
 170:.\freertos/timers.c **** 
 171:.\freertos/timers.c **** /*
 172:.\freertos/timers.c ****  * Called by the timer service task to interpret and process a command it
 173:.\freertos/timers.c ****  * received on the timer queue.
 174:.\freertos/timers.c ****  */
 175:.\freertos/timers.c **** static void prvProcessReceivedCommands( void ) PRIVILEGED_FUNCTION;
 176:.\freertos/timers.c **** 
 177:.\freertos/timers.c **** /*
 178:.\freertos/timers.c ****  * Insert the timer into either xActiveTimerList1, or xActiveTimerList2,
 179:.\freertos/timers.c ****  * depending on if the expire time causes a timer counter overflow.
 180:.\freertos/timers.c ****  */
 181:.\freertos/timers.c **** static BaseType_t prvInsertTimerInActiveList( Timer_t * const pxTimer, const TickType_t xNextExpiry
 182:.\freertos/timers.c **** 
 183:.\freertos/timers.c **** /*
 184:.\freertos/timers.c ****  * An active timer has reached its expire time.  Reload the timer if it is an
 185:.\freertos/timers.c ****  * auto reload timer, then call its callback.
 186:.\freertos/timers.c ****  */
 187:.\freertos/timers.c **** static void prvProcessExpiredTimer( const TickType_t xNextExpireTime, const TickType_t xTimeNow ) P
 188:.\freertos/timers.c **** 
 189:.\freertos/timers.c **** /*
 190:.\freertos/timers.c ****  * The tick count has overflowed.  Switch the timer lists after ensuring the
 191:.\freertos/timers.c ****  * current timer list does not still reference some timers.
 192:.\freertos/timers.c ****  */
 193:.\freertos/timers.c **** static void prvSwitchTimerLists( void ) PRIVILEGED_FUNCTION;
 194:.\freertos/timers.c **** 
 195:.\freertos/timers.c **** /*
 196:.\freertos/timers.c ****  * Obtain the current tick count, setting *pxTimerListsWereSwitched to pdTRUE
 197:.\freertos/timers.c ****  * if a tick count overflow occurred since prvSampleTimeNow() was last called.
 198:.\freertos/timers.c ****  */
 199:.\freertos/timers.c **** static TickType_t prvSampleTimeNow( BaseType_t * const pxTimerListsWereSwitched ) PRIVILEGED_FUNCTI
 200:.\freertos/timers.c **** 
 201:.\freertos/timers.c **** /*
ARM GAS  C:\Users\skey\AppData\Local\Temp\cceKeKCB.s 			page 6


 202:.\freertos/timers.c ****  * If the timer list contains any active timers then return the expire time of
 203:.\freertos/timers.c ****  * the timer that will expire first and set *pxListWasEmpty to false.  If the
 204:.\freertos/timers.c ****  * timer list does not contain any timers then return 0 and set *pxListWasEmpty
 205:.\freertos/timers.c ****  * to pdTRUE.
 206:.\freertos/timers.c ****  */
 207:.\freertos/timers.c **** static TickType_t prvGetNextExpireTime( BaseType_t * const pxListWasEmpty ) PRIVILEGED_FUNCTION;
 208:.\freertos/timers.c **** 
 209:.\freertos/timers.c **** /*
 210:.\freertos/timers.c ****  * If a timer has expired, process it.  Otherwise, block the timer service task
 211:.\freertos/timers.c ****  * until either a timer does expire or a command is received.
 212:.\freertos/timers.c ****  */
 213:.\freertos/timers.c **** static void prvProcessTimerOrBlockTask( const TickType_t xNextExpireTime, BaseType_t xListWasEmpty 
 214:.\freertos/timers.c **** 
 215:.\freertos/timers.c **** /*
 216:.\freertos/timers.c ****  * Called after a Timer_t structure has been allocated either statically or
 217:.\freertos/timers.c ****  * dynamically to fill in the structure's members.
 218:.\freertos/timers.c ****  */
 219:.\freertos/timers.c **** static void prvInitialiseNewTimer(	const char * const pcTimerName,			/*lint !e971 Unqualified char 
 220:.\freertos/timers.c **** 									const TickType_t xTimerPeriodInTicks,
 221:.\freertos/timers.c **** 									const UBaseType_t uxAutoReload,
 222:.\freertos/timers.c **** 									void * const pvTimerID,
 223:.\freertos/timers.c **** 									TimerCallbackFunction_t pxCallbackFunction,
 224:.\freertos/timers.c **** 									Timer_t *pxNewTimer ) PRIVILEGED_FUNCTION;
 225:.\freertos/timers.c **** /*-----------------------------------------------------------*/
 226:.\freertos/timers.c **** 
 227:.\freertos/timers.c **** BaseType_t xTimerCreateTimerTask( void )
 228:.\freertos/timers.c **** {
 229:.\freertos/timers.c **** BaseType_t xReturn = pdFAIL;
 230:.\freertos/timers.c **** 
 231:.\freertos/timers.c **** 	/* This function is called when the scheduler is started if
 232:.\freertos/timers.c **** 	configUSE_TIMERS is set to 1.  Check that the infrastructure used by the
 233:.\freertos/timers.c **** 	timer service task has been created/initialised.  If timers have already
 234:.\freertos/timers.c **** 	been created then the initialisation will already have been performed. */
 235:.\freertos/timers.c **** 	prvCheckForValidListAndQueue();
 236:.\freertos/timers.c **** 
 237:.\freertos/timers.c **** 	if( xTimerQueue != NULL )
 238:.\freertos/timers.c **** 	{
 239:.\freertos/timers.c **** 		#if( configSUPPORT_STATIC_ALLOCATION == 1 )
 240:.\freertos/timers.c **** 		{
 241:.\freertos/timers.c **** 			StaticTask_t *pxTimerTaskTCBBuffer = NULL;
 242:.\freertos/timers.c **** 			StackType_t *pxTimerTaskStackBuffer = NULL;
 243:.\freertos/timers.c **** 			uint32_t ulTimerTaskStackSize;
 244:.\freertos/timers.c **** 
 245:.\freertos/timers.c **** 			vApplicationGetTimerTaskMemory( &pxTimerTaskTCBBuffer, &pxTimerTaskStackBuffer, &ulTimerTaskStac
 246:.\freertos/timers.c **** 			xTimerTaskHandle = xTaskCreateStatic(	prvTimerTask,
 247:.\freertos/timers.c **** 													configTIMER_SERVICE_TASK_NAME,
 248:.\freertos/timers.c **** 													ulTimerTaskStackSize,
 249:.\freertos/timers.c **** 													NULL,
 250:.\freertos/timers.c **** 													( ( UBaseType_t ) configTIMER_TASK_PRIORITY ) | portPRIVILEGE_BIT,
 251:.\freertos/timers.c **** 													pxTimerTaskStackBuffer,
 252:.\freertos/timers.c **** 													pxTimerTaskTCBBuffer );
 253:.\freertos/timers.c **** 
 254:.\freertos/timers.c **** 			if( xTimerTaskHandle != NULL )
 255:.\freertos/timers.c **** 			{
 256:.\freertos/timers.c **** 				xReturn = pdPASS;
 257:.\freertos/timers.c **** 			}
 258:.\freertos/timers.c **** 		}
ARM GAS  C:\Users\skey\AppData\Local\Temp\cceKeKCB.s 			page 7


 259:.\freertos/timers.c **** 		#else
 260:.\freertos/timers.c **** 		{
 261:.\freertos/timers.c **** 			xReturn = xTaskCreate(	prvTimerTask,
 262:.\freertos/timers.c **** 									configTIMER_SERVICE_TASK_NAME,
 263:.\freertos/timers.c **** 									configTIMER_TASK_STACK_DEPTH,
 264:.\freertos/timers.c **** 									NULL,
 265:.\freertos/timers.c **** 									( ( UBaseType_t ) configTIMER_TASK_PRIORITY ) | portPRIVILEGE_BIT,
 266:.\freertos/timers.c **** 									&xTimerTaskHandle );
 267:.\freertos/timers.c **** 		}
 268:.\freertos/timers.c **** 		#endif /* configSUPPORT_STATIC_ALLOCATION */
 269:.\freertos/timers.c **** 	}
 270:.\freertos/timers.c **** 	else
 271:.\freertos/timers.c **** 	{
 272:.\freertos/timers.c **** 		mtCOVERAGE_TEST_MARKER();
 273:.\freertos/timers.c **** 	}
 274:.\freertos/timers.c **** 
 275:.\freertos/timers.c **** 	configASSERT( xReturn );
 276:.\freertos/timers.c **** 	return xReturn;
 277:.\freertos/timers.c **** }
 278:.\freertos/timers.c **** /*-----------------------------------------------------------*/
 279:.\freertos/timers.c **** 
 280:.\freertos/timers.c **** #if( configSUPPORT_DYNAMIC_ALLOCATION == 1 )
 281:.\freertos/timers.c **** 
 282:.\freertos/timers.c **** 	TimerHandle_t xTimerCreate(	const char * const pcTimerName,			/*lint !e971 Unqualified char types 
 283:.\freertos/timers.c **** 								const TickType_t xTimerPeriodInTicks,
 284:.\freertos/timers.c **** 								const UBaseType_t uxAutoReload,
 285:.\freertos/timers.c **** 								void * const pvTimerID,
 286:.\freertos/timers.c **** 								TimerCallbackFunction_t pxCallbackFunction )
 287:.\freertos/timers.c **** 	{
 288:.\freertos/timers.c **** 	Timer_t *pxNewTimer;
 289:.\freertos/timers.c **** 
 290:.\freertos/timers.c **** 		pxNewTimer = ( Timer_t * ) pvPortMalloc( sizeof( Timer_t ) ); /*lint !e9087 !e9079 All values ret
 291:.\freertos/timers.c **** 
 292:.\freertos/timers.c **** 		if( pxNewTimer != NULL )
 293:.\freertos/timers.c **** 		{
 294:.\freertos/timers.c **** 			/* Status is thus far zero as the timer is not created statically
 295:.\freertos/timers.c **** 			and has not been started.  The autoreload bit may get set in
 296:.\freertos/timers.c **** 			prvInitialiseNewTimer. */
 297:.\freertos/timers.c **** 			pxNewTimer->ucStatus = 0x00;
 298:.\freertos/timers.c **** 			prvInitialiseNewTimer( pcTimerName, xTimerPeriodInTicks, uxAutoReload, pvTimerID, pxCallbackFunc
 299:.\freertos/timers.c **** 		}
 300:.\freertos/timers.c **** 
 301:.\freertos/timers.c **** 		return pxNewTimer;
 302:.\freertos/timers.c **** 	}
 303:.\freertos/timers.c **** 
 304:.\freertos/timers.c **** #endif /* configSUPPORT_DYNAMIC_ALLOCATION */
 305:.\freertos/timers.c **** /*-----------------------------------------------------------*/
 306:.\freertos/timers.c **** 
 307:.\freertos/timers.c **** #if( configSUPPORT_STATIC_ALLOCATION == 1 )
 308:.\freertos/timers.c **** 
 309:.\freertos/timers.c **** 	TimerHandle_t xTimerCreateStatic(	const char * const pcTimerName,		/*lint !e971 Unqualified char t
 310:.\freertos/timers.c **** 										const TickType_t xTimerPeriodInTicks,
 311:.\freertos/timers.c **** 										const UBaseType_t uxAutoReload,
 312:.\freertos/timers.c **** 										void * const pvTimerID,
 313:.\freertos/timers.c **** 										TimerCallbackFunction_t pxCallbackFunction,
 314:.\freertos/timers.c **** 										StaticTimer_t *pxTimerBuffer )
 315:.\freertos/timers.c **** 	{
ARM GAS  C:\Users\skey\AppData\Local\Temp\cceKeKCB.s 			page 8


 316:.\freertos/timers.c **** 	Timer_t *pxNewTimer;
 317:.\freertos/timers.c **** 
 318:.\freertos/timers.c **** 		#if( configASSERT_DEFINED == 1 )
 319:.\freertos/timers.c **** 		{
 320:.\freertos/timers.c **** 			/* Sanity check that the size of the structure used to declare a
 321:.\freertos/timers.c **** 			variable of type StaticTimer_t equals the size of the real timer
 322:.\freertos/timers.c **** 			structure. */
 323:.\freertos/timers.c **** 			volatile size_t xSize = sizeof( StaticTimer_t );
 324:.\freertos/timers.c **** 			configASSERT( xSize == sizeof( Timer_t ) );
 325:.\freertos/timers.c **** 			( void ) xSize; /* Keeps lint quiet when configASSERT() is not defined. */
 326:.\freertos/timers.c **** 		}
 327:.\freertos/timers.c **** 		#endif /* configASSERT_DEFINED */
 328:.\freertos/timers.c **** 
 329:.\freertos/timers.c **** 		/* A pointer to a StaticTimer_t structure MUST be provided, use it. */
 330:.\freertos/timers.c **** 		configASSERT( pxTimerBuffer );
 331:.\freertos/timers.c **** 		pxNewTimer = ( Timer_t * ) pxTimerBuffer; /*lint !e740 !e9087 StaticTimer_t is a pointer to a Tim
 332:.\freertos/timers.c **** 
 333:.\freertos/timers.c **** 		if( pxNewTimer != NULL )
 334:.\freertos/timers.c **** 		{
 335:.\freertos/timers.c **** 			/* Timers can be created statically or dynamically so note this
 336:.\freertos/timers.c **** 			timer was created statically in case it is later deleted.  The
 337:.\freertos/timers.c **** 			autoreload bit may get set in prvInitialiseNewTimer(). */
 338:.\freertos/timers.c **** 			pxNewTimer->ucStatus = tmrSTATUS_IS_STATICALLY_ALLOCATED;
 339:.\freertos/timers.c **** 
 340:.\freertos/timers.c **** 			prvInitialiseNewTimer( pcTimerName, xTimerPeriodInTicks, uxAutoReload, pvTimerID, pxCallbackFunc
 341:.\freertos/timers.c **** 		}
 342:.\freertos/timers.c **** 
 343:.\freertos/timers.c **** 		return pxNewTimer;
 344:.\freertos/timers.c **** 	}
 345:.\freertos/timers.c **** 
 346:.\freertos/timers.c **** #endif /* configSUPPORT_STATIC_ALLOCATION */
 347:.\freertos/timers.c **** /*-----------------------------------------------------------*/
 348:.\freertos/timers.c **** 
 349:.\freertos/timers.c **** static void prvInitialiseNewTimer(	const char * const pcTimerName,			/*lint !e971 Unqualified char 
 350:.\freertos/timers.c **** 									const TickType_t xTimerPeriodInTicks,
 351:.\freertos/timers.c **** 									const UBaseType_t uxAutoReload,
 352:.\freertos/timers.c **** 									void * const pvTimerID,
 353:.\freertos/timers.c **** 									TimerCallbackFunction_t pxCallbackFunction,
 354:.\freertos/timers.c **** 									Timer_t *pxNewTimer )
 355:.\freertos/timers.c **** {
 356:.\freertos/timers.c **** 	/* 0 is not a valid value for xTimerPeriodInTicks. */
 357:.\freertos/timers.c **** 	configASSERT( ( xTimerPeriodInTicks > 0 ) );
 358:.\freertos/timers.c **** 
 359:.\freertos/timers.c **** 	if( pxNewTimer != NULL )
 360:.\freertos/timers.c **** 	{
 361:.\freertos/timers.c **** 		/* Ensure the infrastructure used by the timer service task has been
 362:.\freertos/timers.c **** 		created/initialised. */
 363:.\freertos/timers.c **** 		prvCheckForValidListAndQueue();
 364:.\freertos/timers.c **** 
 365:.\freertos/timers.c **** 		/* Initialise the timer structure members using the function
 366:.\freertos/timers.c **** 		parameters. */
 367:.\freertos/timers.c **** 		pxNewTimer->pcTimerName = pcTimerName;
 368:.\freertos/timers.c **** 		pxNewTimer->xTimerPeriodInTicks = xTimerPeriodInTicks;
 369:.\freertos/timers.c **** 		pxNewTimer->pvTimerID = pvTimerID;
 370:.\freertos/timers.c **** 		pxNewTimer->pxCallbackFunction = pxCallbackFunction;
 371:.\freertos/timers.c **** 		vListInitialiseItem( &( pxNewTimer->xTimerListItem ) );
 372:.\freertos/timers.c **** 		if( uxAutoReload != pdFALSE )
ARM GAS  C:\Users\skey\AppData\Local\Temp\cceKeKCB.s 			page 9


 373:.\freertos/timers.c **** 		{
 374:.\freertos/timers.c **** 			pxNewTimer->ucStatus |= tmrSTATUS_IS_AUTORELOAD;
 375:.\freertos/timers.c **** 		}
 376:.\freertos/timers.c **** 		traceTIMER_CREATE( pxNewTimer );
 377:.\freertos/timers.c **** 	}
 378:.\freertos/timers.c **** }
 379:.\freertos/timers.c **** /*-----------------------------------------------------------*/
 380:.\freertos/timers.c **** 
 381:.\freertos/timers.c **** BaseType_t xTimerGenericCommand( TimerHandle_t xTimer, const BaseType_t xCommandID, const TickType_
 382:.\freertos/timers.c **** {
 383:.\freertos/timers.c **** BaseType_t xReturn = pdFAIL;
 384:.\freertos/timers.c **** DaemonTaskMessage_t xMessage;
 385:.\freertos/timers.c **** 
 386:.\freertos/timers.c **** 	configASSERT( xTimer );
 387:.\freertos/timers.c **** 
 388:.\freertos/timers.c **** 	/* Send a message to the timer service task to perform a particular action
 389:.\freertos/timers.c **** 	on a particular timer definition. */
 390:.\freertos/timers.c **** 	if( xTimerQueue != NULL )
 391:.\freertos/timers.c **** 	{
 392:.\freertos/timers.c **** 		/* Send a command to the timer service task to start the xTimer timer. */
 393:.\freertos/timers.c **** 		xMessage.xMessageID = xCommandID;
 394:.\freertos/timers.c **** 		xMessage.u.xTimerParameters.xMessageValue = xOptionalValue;
 395:.\freertos/timers.c **** 		xMessage.u.xTimerParameters.pxTimer = xTimer;
 396:.\freertos/timers.c **** 
 397:.\freertos/timers.c **** 		if( xCommandID < tmrFIRST_FROM_ISR_COMMAND )
 398:.\freertos/timers.c **** 		{
 399:.\freertos/timers.c **** 			if( xTaskGetSchedulerState() == taskSCHEDULER_RUNNING )
 400:.\freertos/timers.c **** 			{
 401:.\freertos/timers.c **** 				xReturn = xQueueSendToBack( xTimerQueue, &xMessage, xTicksToWait );
 402:.\freertos/timers.c **** 			}
 403:.\freertos/timers.c **** 			else
 404:.\freertos/timers.c **** 			{
 405:.\freertos/timers.c **** 				xReturn = xQueueSendToBack( xTimerQueue, &xMessage, tmrNO_DELAY );
 406:.\freertos/timers.c **** 			}
 407:.\freertos/timers.c **** 		}
 408:.\freertos/timers.c **** 		else
 409:.\freertos/timers.c **** 		{
 410:.\freertos/timers.c **** 			xReturn = xQueueSendToBackFromISR( xTimerQueue, &xMessage, pxHigherPriorityTaskWoken );
 411:.\freertos/timers.c **** 		}
 412:.\freertos/timers.c **** 
 413:.\freertos/timers.c **** 		traceTIMER_COMMAND_SEND( xTimer, xCommandID, xOptionalValue, xReturn );
 414:.\freertos/timers.c **** 	}
 415:.\freertos/timers.c **** 	else
 416:.\freertos/timers.c **** 	{
 417:.\freertos/timers.c **** 		mtCOVERAGE_TEST_MARKER();
 418:.\freertos/timers.c **** 	}
 419:.\freertos/timers.c **** 
 420:.\freertos/timers.c **** 	return xReturn;
 421:.\freertos/timers.c **** }
 422:.\freertos/timers.c **** /*-----------------------------------------------------------*/
 423:.\freertos/timers.c **** 
 424:.\freertos/timers.c **** TaskHandle_t xTimerGetTimerDaemonTaskHandle( void )
 425:.\freertos/timers.c **** {
 426:.\freertos/timers.c **** 	/* If xTimerGetTimerDaemonTaskHandle() is called before the scheduler has been
 427:.\freertos/timers.c **** 	started, then xTimerTaskHandle will be NULL. */
 428:.\freertos/timers.c **** 	configASSERT( ( xTimerTaskHandle != NULL ) );
 429:.\freertos/timers.c **** 	return xTimerTaskHandle;
ARM GAS  C:\Users\skey\AppData\Local\Temp\cceKeKCB.s 			page 10


 430:.\freertos/timers.c **** }
 431:.\freertos/timers.c **** /*-----------------------------------------------------------*/
 432:.\freertos/timers.c **** 
 433:.\freertos/timers.c **** TickType_t xTimerGetPeriod( TimerHandle_t xTimer )
 434:.\freertos/timers.c **** {
 435:.\freertos/timers.c **** Timer_t *pxTimer = xTimer;
 436:.\freertos/timers.c **** 
 437:.\freertos/timers.c **** 	configASSERT( xTimer );
 438:.\freertos/timers.c **** 	return pxTimer->xTimerPeriodInTicks;
 439:.\freertos/timers.c **** }
 440:.\freertos/timers.c **** /*-----------------------------------------------------------*/
 441:.\freertos/timers.c **** 
 442:.\freertos/timers.c **** void vTimerSetReloadMode( TimerHandle_t xTimer, const UBaseType_t uxAutoReload )
 443:.\freertos/timers.c **** {
 444:.\freertos/timers.c **** Timer_t * pxTimer =  xTimer;
 445:.\freertos/timers.c **** 
 446:.\freertos/timers.c **** 	configASSERT( xTimer );
 447:.\freertos/timers.c **** 	taskENTER_CRITICAL();
 448:.\freertos/timers.c **** 	{
 449:.\freertos/timers.c **** 		if( uxAutoReload != pdFALSE )
 450:.\freertos/timers.c **** 		{
 451:.\freertos/timers.c **** 			pxTimer->ucStatus |= tmrSTATUS_IS_AUTORELOAD;
 452:.\freertos/timers.c **** 		}
 453:.\freertos/timers.c **** 		else
 454:.\freertos/timers.c **** 		{
 455:.\freertos/timers.c **** 			pxTimer->ucStatus &= ~tmrSTATUS_IS_AUTORELOAD;
 456:.\freertos/timers.c **** 		}
 457:.\freertos/timers.c **** 	}
 458:.\freertos/timers.c **** 	taskEXIT_CRITICAL();
 459:.\freertos/timers.c **** }
 460:.\freertos/timers.c **** /*-----------------------------------------------------------*/
 461:.\freertos/timers.c **** 
 462:.\freertos/timers.c **** TickType_t xTimerGetExpiryTime( TimerHandle_t xTimer )
 463:.\freertos/timers.c **** {
 464:.\freertos/timers.c **** Timer_t * pxTimer =  xTimer;
 465:.\freertos/timers.c **** TickType_t xReturn;
 466:.\freertos/timers.c **** 
 467:.\freertos/timers.c **** 	configASSERT( xTimer );
 468:.\freertos/timers.c **** 	xReturn = listGET_LIST_ITEM_VALUE( &( pxTimer->xTimerListItem ) );
 469:.\freertos/timers.c **** 	return xReturn;
 470:.\freertos/timers.c **** }
 471:.\freertos/timers.c **** /*-----------------------------------------------------------*/
 472:.\freertos/timers.c **** 
 473:.\freertos/timers.c **** const char * pcTimerGetName( TimerHandle_t xTimer ) /*lint !e971 Unqualified char types are allowed
 474:.\freertos/timers.c **** {
 475:.\freertos/timers.c **** Timer_t *pxTimer = xTimer;
 476:.\freertos/timers.c **** 
 477:.\freertos/timers.c **** 	configASSERT( xTimer );
 478:.\freertos/timers.c **** 	return pxTimer->pcTimerName;
 479:.\freertos/timers.c **** }
 480:.\freertos/timers.c **** /*-----------------------------------------------------------*/
 481:.\freertos/timers.c **** 
 482:.\freertos/timers.c **** static void prvProcessExpiredTimer( const TickType_t xNextExpireTime, const TickType_t xTimeNow )
 483:.\freertos/timers.c **** {
 484:.\freertos/timers.c **** BaseType_t xResult;
 485:.\freertos/timers.c **** Timer_t * const pxTimer = ( Timer_t * ) listGET_OWNER_OF_HEAD_ENTRY( pxCurrentTimerList ); /*lint !
 486:.\freertos/timers.c **** 
ARM GAS  C:\Users\skey\AppData\Local\Temp\cceKeKCB.s 			page 11


 487:.\freertos/timers.c **** 	/* Remove the timer from the list of active timers.  A check has already
 488:.\freertos/timers.c **** 	been performed to ensure the list is not empty. */
 489:.\freertos/timers.c **** 	( void ) uxListRemove( &( pxTimer->xTimerListItem ) );
 490:.\freertos/timers.c **** 	traceTIMER_EXPIRED( pxTimer );
 491:.\freertos/timers.c **** 
 492:.\freertos/timers.c **** 	/* If the timer is an auto reload timer then calculate the next
 493:.\freertos/timers.c **** 	expiry time and re-insert the timer in the list of active timers. */
 494:.\freertos/timers.c **** 	if( ( pxTimer->ucStatus & tmrSTATUS_IS_AUTORELOAD ) != 0 )
 495:.\freertos/timers.c **** 	{
 496:.\freertos/timers.c **** 		/* The timer is inserted into a list using a time relative to anything
 497:.\freertos/timers.c **** 		other than the current time.  It will therefore be inserted into the
 498:.\freertos/timers.c **** 		correct list relative to the time this task thinks it is now. */
 499:.\freertos/timers.c **** 		if( prvInsertTimerInActiveList( pxTimer, ( xNextExpireTime + pxTimer->xTimerPeriodInTicks ), xTim
 500:.\freertos/timers.c **** 		{
 501:.\freertos/timers.c **** 			/* The timer expired before it was added to the active timer
 502:.\freertos/timers.c **** 			list.  Reload it now.  */
 503:.\freertos/timers.c **** 			xResult = xTimerGenericCommand( pxTimer, tmrCOMMAND_START_DONT_TRACE, xNextExpireTime, NULL, tmr
 504:.\freertos/timers.c **** 			configASSERT( xResult );
 505:.\freertos/timers.c **** 			( void ) xResult;
 506:.\freertos/timers.c **** 		}
 507:.\freertos/timers.c **** 		else
 508:.\freertos/timers.c **** 		{
 509:.\freertos/timers.c **** 			mtCOVERAGE_TEST_MARKER();
 510:.\freertos/timers.c **** 		}
 511:.\freertos/timers.c **** 	}
 512:.\freertos/timers.c **** 	else
 513:.\freertos/timers.c **** 	{
 514:.\freertos/timers.c **** 		pxTimer->ucStatus &= ~tmrSTATUS_IS_ACTIVE;
 515:.\freertos/timers.c **** 		mtCOVERAGE_TEST_MARKER();
 516:.\freertos/timers.c **** 	}
 517:.\freertos/timers.c **** 
 518:.\freertos/timers.c **** 	/* Call the timer callback. */
 519:.\freertos/timers.c **** 	pxTimer->pxCallbackFunction( ( TimerHandle_t ) pxTimer );
 520:.\freertos/timers.c **** }
 521:.\freertos/timers.c **** /*-----------------------------------------------------------*/
 522:.\freertos/timers.c **** 
 523:.\freertos/timers.c **** static portTASK_FUNCTION( prvTimerTask, pvParameters )
 524:.\freertos/timers.c **** {
 525:.\freertos/timers.c **** TickType_t xNextExpireTime;
 526:.\freertos/timers.c **** BaseType_t xListWasEmpty;
 527:.\freertos/timers.c **** 
 528:.\freertos/timers.c **** 	/* Just to avoid compiler warnings. */
 529:.\freertos/timers.c **** 	( void ) pvParameters;
 530:.\freertos/timers.c **** 
 531:.\freertos/timers.c **** 	#if( configUSE_DAEMON_TASK_STARTUP_HOOK == 1 )
 532:.\freertos/timers.c **** 	{
 533:.\freertos/timers.c **** 		extern void vApplicationDaemonTaskStartupHook( void );
 534:.\freertos/timers.c **** 
 535:.\freertos/timers.c **** 		/* Allow the application writer to execute some code in the context of
 536:.\freertos/timers.c **** 		this task at the point the task starts executing.  This is useful if the
 537:.\freertos/timers.c **** 		application includes initialisation code that would benefit from
 538:.\freertos/timers.c **** 		executing after the scheduler has been started. */
 539:.\freertos/timers.c **** 		vApplicationDaemonTaskStartupHook();
 540:.\freertos/timers.c **** 	}
 541:.\freertos/timers.c **** 	#endif /* configUSE_DAEMON_TASK_STARTUP_HOOK */
 542:.\freertos/timers.c **** 
 543:.\freertos/timers.c **** 	for( ;; )
ARM GAS  C:\Users\skey\AppData\Local\Temp\cceKeKCB.s 			page 12


 544:.\freertos/timers.c **** 	{
 545:.\freertos/timers.c **** 		/* Query the timers list to see if it contains any timers, and if so,
 546:.\freertos/timers.c **** 		obtain the time at which the next timer will expire. */
 547:.\freertos/timers.c **** 		xNextExpireTime = prvGetNextExpireTime( &xListWasEmpty );
 548:.\freertos/timers.c **** 
 549:.\freertos/timers.c **** 		/* If a timer has expired, process it.  Otherwise, block this task
 550:.\freertos/timers.c **** 		until either a timer does expire, or a command is received. */
 551:.\freertos/timers.c **** 		prvProcessTimerOrBlockTask( xNextExpireTime, xListWasEmpty );
 552:.\freertos/timers.c **** 
 553:.\freertos/timers.c **** 		/* Empty the command queue. */
 554:.\freertos/timers.c **** 		prvProcessReceivedCommands();
 555:.\freertos/timers.c **** 	}
 556:.\freertos/timers.c **** }
 557:.\freertos/timers.c **** /*-----------------------------------------------------------*/
 558:.\freertos/timers.c **** 
 559:.\freertos/timers.c **** static void prvProcessTimerOrBlockTask( const TickType_t xNextExpireTime, BaseType_t xListWasEmpty 
 560:.\freertos/timers.c **** {
 561:.\freertos/timers.c **** TickType_t xTimeNow;
 562:.\freertos/timers.c **** BaseType_t xTimerListsWereSwitched;
 563:.\freertos/timers.c **** 
 564:.\freertos/timers.c **** 	vTaskSuspendAll();
 565:.\freertos/timers.c **** 	{
 566:.\freertos/timers.c **** 		/* Obtain the time now to make an assessment as to whether the timer
 567:.\freertos/timers.c **** 		has expired or not.  If obtaining the time causes the lists to switch
 568:.\freertos/timers.c **** 		then don't process this timer as any timers that remained in the list
 569:.\freertos/timers.c **** 		when the lists were switched will have been processed within the
 570:.\freertos/timers.c **** 		prvSampleTimeNow() function. */
 571:.\freertos/timers.c **** 		xTimeNow = prvSampleTimeNow( &xTimerListsWereSwitched );
 572:.\freertos/timers.c **** 		if( xTimerListsWereSwitched == pdFALSE )
 573:.\freertos/timers.c **** 		{
 574:.\freertos/timers.c **** 			/* The tick count has not overflowed, has the timer expired? */
 575:.\freertos/timers.c **** 			if( ( xListWasEmpty == pdFALSE ) && ( xNextExpireTime <= xTimeNow ) )
 576:.\freertos/timers.c **** 			{
 577:.\freertos/timers.c **** 				( void ) xTaskResumeAll();
 578:.\freertos/timers.c **** 				prvProcessExpiredTimer( xNextExpireTime, xTimeNow );
 579:.\freertos/timers.c **** 			}
 580:.\freertos/timers.c **** 			else
 581:.\freertos/timers.c **** 			{
 582:.\freertos/timers.c **** 				/* The tick count has not overflowed, and the next expire
 583:.\freertos/timers.c **** 				time has not been reached yet.  This task should therefore
 584:.\freertos/timers.c **** 				block to wait for the next expire time or a command to be
 585:.\freertos/timers.c **** 				received - whichever comes first.  The following line cannot
 586:.\freertos/timers.c **** 				be reached unless xNextExpireTime > xTimeNow, except in the
 587:.\freertos/timers.c **** 				case when the current timer list is empty. */
 588:.\freertos/timers.c **** 				if( xListWasEmpty != pdFALSE )
 589:.\freertos/timers.c **** 				{
 590:.\freertos/timers.c **** 					/* The current timer list is empty - is the overflow list
 591:.\freertos/timers.c **** 					also empty? */
 592:.\freertos/timers.c **** 					xListWasEmpty = listLIST_IS_EMPTY( pxOverflowTimerList );
 593:.\freertos/timers.c **** 				}
 594:.\freertos/timers.c **** 
 595:.\freertos/timers.c **** 				vQueueWaitForMessageRestricted( xTimerQueue, ( xNextExpireTime - xTimeNow ), xListWasEmpty );
 596:.\freertos/timers.c **** 
 597:.\freertos/timers.c **** 				if( xTaskResumeAll() == pdFALSE )
 598:.\freertos/timers.c **** 				{
 599:.\freertos/timers.c **** 					/* Yield to wait for either a command to arrive, or the
 600:.\freertos/timers.c **** 					block time to expire.  If a command arrived between the
ARM GAS  C:\Users\skey\AppData\Local\Temp\cceKeKCB.s 			page 13


 601:.\freertos/timers.c **** 					critical section being exited and this yield then the yield
 602:.\freertos/timers.c **** 					will not cause the task to block. */
 603:.\freertos/timers.c **** 					portYIELD_WITHIN_API();
 604:.\freertos/timers.c **** 				}
 605:.\freertos/timers.c **** 				else
 606:.\freertos/timers.c **** 				{
 607:.\freertos/timers.c **** 					mtCOVERAGE_TEST_MARKER();
 608:.\freertos/timers.c **** 				}
 609:.\freertos/timers.c **** 			}
 610:.\freertos/timers.c **** 		}
 611:.\freertos/timers.c **** 		else
 612:.\freertos/timers.c **** 		{
 613:.\freertos/timers.c **** 			( void ) xTaskResumeAll();
 614:.\freertos/timers.c **** 		}
 615:.\freertos/timers.c **** 	}
 616:.\freertos/timers.c **** }
 617:.\freertos/timers.c **** /*-----------------------------------------------------------*/
 618:.\freertos/timers.c **** 
 619:.\freertos/timers.c **** static TickType_t prvGetNextExpireTime( BaseType_t * const pxListWasEmpty )
 620:.\freertos/timers.c **** {
 621:.\freertos/timers.c **** TickType_t xNextExpireTime;
 622:.\freertos/timers.c **** 
 623:.\freertos/timers.c **** 	/* Timers are listed in expiry time order, with the head of the list
 624:.\freertos/timers.c **** 	referencing the task that will expire first.  Obtain the time at which
 625:.\freertos/timers.c **** 	the timer with the nearest expiry time will expire.  If there are no
 626:.\freertos/timers.c **** 	active timers then just set the next expire time to 0.  That will cause
 627:.\freertos/timers.c **** 	this task to unblock when the tick count overflows, at which point the
 628:.\freertos/timers.c **** 	timer lists will be switched and the next expiry time can be
 629:.\freertos/timers.c **** 	re-assessed.  */
 630:.\freertos/timers.c **** 	*pxListWasEmpty = listLIST_IS_EMPTY( pxCurrentTimerList );
 631:.\freertos/timers.c **** 	if( *pxListWasEmpty == pdFALSE )
 632:.\freertos/timers.c **** 	{
 633:.\freertos/timers.c **** 		xNextExpireTime = listGET_ITEM_VALUE_OF_HEAD_ENTRY( pxCurrentTimerList );
 634:.\freertos/timers.c **** 	}
 635:.\freertos/timers.c **** 	else
 636:.\freertos/timers.c **** 	{
 637:.\freertos/timers.c **** 		/* Ensure the task unblocks when the tick count rolls over. */
 638:.\freertos/timers.c **** 		xNextExpireTime = ( TickType_t ) 0U;
 639:.\freertos/timers.c **** 	}
 640:.\freertos/timers.c **** 
 641:.\freertos/timers.c **** 	return xNextExpireTime;
 642:.\freertos/timers.c **** }
 643:.\freertos/timers.c **** /*-----------------------------------------------------------*/
 644:.\freertos/timers.c **** 
 645:.\freertos/timers.c **** static TickType_t prvSampleTimeNow( BaseType_t * const pxTimerListsWereSwitched )
 646:.\freertos/timers.c **** {
 647:.\freertos/timers.c **** TickType_t xTimeNow;
 648:.\freertos/timers.c **** PRIVILEGED_DATA static TickType_t xLastTime = ( TickType_t ) 0U; /*lint !e956 Variable is only acce
 649:.\freertos/timers.c **** 
 650:.\freertos/timers.c **** 	xTimeNow = xTaskGetTickCount();
 651:.\freertos/timers.c **** 
 652:.\freertos/timers.c **** 	if( xTimeNow < xLastTime )
 653:.\freertos/timers.c **** 	{
 654:.\freertos/timers.c **** 		prvSwitchTimerLists();
 655:.\freertos/timers.c **** 		*pxTimerListsWereSwitched = pdTRUE;
 656:.\freertos/timers.c **** 	}
 657:.\freertos/timers.c **** 	else
ARM GAS  C:\Users\skey\AppData\Local\Temp\cceKeKCB.s 			page 14


 658:.\freertos/timers.c **** 	{
 659:.\freertos/timers.c **** 		*pxTimerListsWereSwitched = pdFALSE;
 660:.\freertos/timers.c **** 	}
 661:.\freertos/timers.c **** 
 662:.\freertos/timers.c **** 	xLastTime = xTimeNow;
 663:.\freertos/timers.c **** 
 664:.\freertos/timers.c **** 	return xTimeNow;
 665:.\freertos/timers.c **** }
 666:.\freertos/timers.c **** /*-----------------------------------------------------------*/
 667:.\freertos/timers.c **** 
 668:.\freertos/timers.c **** static BaseType_t prvInsertTimerInActiveList( Timer_t * const pxTimer, const TickType_t xNextExpiry
 669:.\freertos/timers.c **** {
 670:.\freertos/timers.c **** BaseType_t xProcessTimerNow = pdFALSE;
 671:.\freertos/timers.c **** 
 672:.\freertos/timers.c **** 	listSET_LIST_ITEM_VALUE( &( pxTimer->xTimerListItem ), xNextExpiryTime );
 673:.\freertos/timers.c **** 	listSET_LIST_ITEM_OWNER( &( pxTimer->xTimerListItem ), pxTimer );
 674:.\freertos/timers.c **** 
 675:.\freertos/timers.c **** 	if( xNextExpiryTime <= xTimeNow )
 676:.\freertos/timers.c **** 	{
 677:.\freertos/timers.c **** 		/* Has the expiry time elapsed between the command to start/reset a
 678:.\freertos/timers.c **** 		timer was issued, and the time the command was processed? */
 679:.\freertos/timers.c **** 		if( ( ( TickType_t ) ( xTimeNow - xCommandTime ) ) >= pxTimer->xTimerPeriodInTicks ) /*lint !e961
 680:.\freertos/timers.c **** 		{
 681:.\freertos/timers.c **** 			/* The time between a command being issued and the command being
 682:.\freertos/timers.c **** 			processed actually exceeds the timers period.  */
 683:.\freertos/timers.c **** 			xProcessTimerNow = pdTRUE;
 684:.\freertos/timers.c **** 		}
 685:.\freertos/timers.c **** 		else
 686:.\freertos/timers.c **** 		{
 687:.\freertos/timers.c **** 			vListInsert( pxOverflowTimerList, &( pxTimer->xTimerListItem ) );
 688:.\freertos/timers.c **** 		}
 689:.\freertos/timers.c **** 	}
 690:.\freertos/timers.c **** 	else
 691:.\freertos/timers.c **** 	{
 692:.\freertos/timers.c **** 		if( ( xTimeNow < xCommandTime ) && ( xNextExpiryTime >= xCommandTime ) )
 693:.\freertos/timers.c **** 		{
 694:.\freertos/timers.c **** 			/* If, since the command was issued, the tick count has overflowed
 695:.\freertos/timers.c **** 			but the expiry time has not, then the timer must have already passed
 696:.\freertos/timers.c **** 			its expiry time and should be processed immediately. */
 697:.\freertos/timers.c **** 			xProcessTimerNow = pdTRUE;
 698:.\freertos/timers.c **** 		}
 699:.\freertos/timers.c **** 		else
 700:.\freertos/timers.c **** 		{
 701:.\freertos/timers.c **** 			vListInsert( pxCurrentTimerList, &( pxTimer->xTimerListItem ) );
 702:.\freertos/timers.c **** 		}
 703:.\freertos/timers.c **** 	}
 704:.\freertos/timers.c **** 
 705:.\freertos/timers.c **** 	return xProcessTimerNow;
 706:.\freertos/timers.c **** }
 707:.\freertos/timers.c **** /*-----------------------------------------------------------*/
 708:.\freertos/timers.c **** 
 709:.\freertos/timers.c **** static void	prvProcessReceivedCommands( void )
 710:.\freertos/timers.c **** {
 711:.\freertos/timers.c **** DaemonTaskMessage_t xMessage;
 712:.\freertos/timers.c **** Timer_t *pxTimer;
 713:.\freertos/timers.c **** BaseType_t xTimerListsWereSwitched, xResult;
 714:.\freertos/timers.c **** TickType_t xTimeNow;
ARM GAS  C:\Users\skey\AppData\Local\Temp\cceKeKCB.s 			page 15


 715:.\freertos/timers.c **** 
 716:.\freertos/timers.c **** 	while( xQueueReceive( xTimerQueue, &xMessage, tmrNO_DELAY ) != pdFAIL ) /*lint !e603 xMessage does
 717:.\freertos/timers.c **** 	{
 718:.\freertos/timers.c **** 		#if ( INCLUDE_xTimerPendFunctionCall == 1 )
 719:.\freertos/timers.c **** 		{
 720:.\freertos/timers.c **** 			/* Negative commands are pended function calls rather than timer
 721:.\freertos/timers.c **** 			commands. */
 722:.\freertos/timers.c **** 			if( xMessage.xMessageID < ( BaseType_t ) 0 )
 723:.\freertos/timers.c **** 			{
 724:.\freertos/timers.c **** 				const CallbackParameters_t * const pxCallback = &( xMessage.u.xCallbackParameters );
 725:.\freertos/timers.c **** 
 726:.\freertos/timers.c **** 				/* The timer uses the xCallbackParameters member to request a
 727:.\freertos/timers.c **** 				callback be executed.  Check the callback is not NULL. */
 728:.\freertos/timers.c **** 				configASSERT( pxCallback );
 729:.\freertos/timers.c **** 
 730:.\freertos/timers.c **** 				/* Call the function. */
 731:.\freertos/timers.c **** 				pxCallback->pxCallbackFunction( pxCallback->pvParameter1, pxCallback->ulParameter2 );
 732:.\freertos/timers.c **** 			}
 733:.\freertos/timers.c **** 			else
 734:.\freertos/timers.c **** 			{
 735:.\freertos/timers.c **** 				mtCOVERAGE_TEST_MARKER();
 736:.\freertos/timers.c **** 			}
 737:.\freertos/timers.c **** 		}
 738:.\freertos/timers.c **** 		#endif /* INCLUDE_xTimerPendFunctionCall */
 739:.\freertos/timers.c **** 
 740:.\freertos/timers.c **** 		/* Commands that are positive are timer commands rather than pended
 741:.\freertos/timers.c **** 		function calls. */
 742:.\freertos/timers.c **** 		if( xMessage.xMessageID >= ( BaseType_t ) 0 )
 743:.\freertos/timers.c **** 		{
 744:.\freertos/timers.c **** 			/* The messages uses the xTimerParameters member to work on a
 745:.\freertos/timers.c **** 			software timer. */
 746:.\freertos/timers.c **** 			pxTimer = xMessage.u.xTimerParameters.pxTimer;
 747:.\freertos/timers.c **** 
 748:.\freertos/timers.c **** 			if( listIS_CONTAINED_WITHIN( NULL, &( pxTimer->xTimerListItem ) ) == pdFALSE ) /*lint !e961. The
 749:.\freertos/timers.c **** 			{
 750:.\freertos/timers.c **** 				/* The timer is in a list, remove it. */
 751:.\freertos/timers.c **** 				( void ) uxListRemove( &( pxTimer->xTimerListItem ) );
 752:.\freertos/timers.c **** 			}
 753:.\freertos/timers.c **** 			else
 754:.\freertos/timers.c **** 			{
 755:.\freertos/timers.c **** 				mtCOVERAGE_TEST_MARKER();
 756:.\freertos/timers.c **** 			}
 757:.\freertos/timers.c **** 
 758:.\freertos/timers.c **** 			traceTIMER_COMMAND_RECEIVED( pxTimer, xMessage.xMessageID, xMessage.u.xTimerParameters.xMessageV
 759:.\freertos/timers.c **** 
 760:.\freertos/timers.c **** 			/* In this case the xTimerListsWereSwitched parameter is not used, but
 761:.\freertos/timers.c **** 			it must be present in the function call.  prvSampleTimeNow() must be
 762:.\freertos/timers.c **** 			called after the message is received from xTimerQueue so there is no
 763:.\freertos/timers.c **** 			possibility of a higher priority task adding a message to the message
 764:.\freertos/timers.c **** 			queue with a time that is ahead of the timer daemon task (because it
 765:.\freertos/timers.c **** 			pre-empted the timer daemon task after the xTimeNow value was set). */
 766:.\freertos/timers.c **** 			xTimeNow = prvSampleTimeNow( &xTimerListsWereSwitched );
 767:.\freertos/timers.c **** 
 768:.\freertos/timers.c **** 			switch( xMessage.xMessageID )
 769:.\freertos/timers.c **** 			{
 770:.\freertos/timers.c **** 				case tmrCOMMAND_START :
 771:.\freertos/timers.c **** 				case tmrCOMMAND_START_FROM_ISR :
ARM GAS  C:\Users\skey\AppData\Local\Temp\cceKeKCB.s 			page 16


 772:.\freertos/timers.c **** 				case tmrCOMMAND_RESET :
 773:.\freertos/timers.c **** 				case tmrCOMMAND_RESET_FROM_ISR :
 774:.\freertos/timers.c **** 				case tmrCOMMAND_START_DONT_TRACE :
 775:.\freertos/timers.c **** 					/* Start or restart a timer. */
 776:.\freertos/timers.c **** 					pxTimer->ucStatus |= tmrSTATUS_IS_ACTIVE;
 777:.\freertos/timers.c **** 					if( prvInsertTimerInActiveList( pxTimer,  xMessage.u.xTimerParameters.xMessageValue + pxTimer-
 778:.\freertos/timers.c **** 					{
 779:.\freertos/timers.c **** 						/* The timer expired before it was added to the active
 780:.\freertos/timers.c **** 						timer list.  Process it now. */
 781:.\freertos/timers.c **** 						pxTimer->pxCallbackFunction( ( TimerHandle_t ) pxTimer );
 782:.\freertos/timers.c **** 						traceTIMER_EXPIRED( pxTimer );
 783:.\freertos/timers.c **** 
 784:.\freertos/timers.c **** 						if( ( pxTimer->ucStatus & tmrSTATUS_IS_AUTORELOAD ) != 0 )
 785:.\freertos/timers.c **** 						{
 786:.\freertos/timers.c **** 							xResult = xTimerGenericCommand( pxTimer, tmrCOMMAND_START_DONT_TRACE, xMessage.u.xTimerParam
 787:.\freertos/timers.c **** 							configASSERT( xResult );
 788:.\freertos/timers.c **** 							( void ) xResult;
 789:.\freertos/timers.c **** 						}
 790:.\freertos/timers.c **** 						else
 791:.\freertos/timers.c **** 						{
 792:.\freertos/timers.c **** 							mtCOVERAGE_TEST_MARKER();
 793:.\freertos/timers.c **** 						}
 794:.\freertos/timers.c **** 					}
 795:.\freertos/timers.c **** 					else
 796:.\freertos/timers.c **** 					{
 797:.\freertos/timers.c **** 						mtCOVERAGE_TEST_MARKER();
 798:.\freertos/timers.c **** 					}
 799:.\freertos/timers.c **** 					break;
 800:.\freertos/timers.c **** 
 801:.\freertos/timers.c **** 				case tmrCOMMAND_STOP :
 802:.\freertos/timers.c **** 				case tmrCOMMAND_STOP_FROM_ISR :
 803:.\freertos/timers.c **** 					/* The timer has already been removed from the active list. */
 804:.\freertos/timers.c **** 					pxTimer->ucStatus &= ~tmrSTATUS_IS_ACTIVE;
 805:.\freertos/timers.c **** 					break;
 806:.\freertos/timers.c **** 
 807:.\freertos/timers.c **** 				case tmrCOMMAND_CHANGE_PERIOD :
 808:.\freertos/timers.c **** 				case tmrCOMMAND_CHANGE_PERIOD_FROM_ISR :
 809:.\freertos/timers.c **** 					pxTimer->ucStatus |= tmrSTATUS_IS_ACTIVE;
 810:.\freertos/timers.c **** 					pxTimer->xTimerPeriodInTicks = xMessage.u.xTimerParameters.xMessageValue;
 811:.\freertos/timers.c **** 					configASSERT( ( pxTimer->xTimerPeriodInTicks > 0 ) );
 812:.\freertos/timers.c **** 
 813:.\freertos/timers.c **** 					/* The new period does not really have a reference, and can
 814:.\freertos/timers.c **** 					be longer or shorter than the old one.  The command time is
 815:.\freertos/timers.c **** 					therefore set to the current time, and as the period cannot
 816:.\freertos/timers.c **** 					be zero the next expiry time can only be in the future,
 817:.\freertos/timers.c **** 					meaning (unlike for the xTimerStart() case above) there is
 818:.\freertos/timers.c **** 					no fail case that needs to be handled here. */
 819:.\freertos/timers.c **** 					( void ) prvInsertTimerInActiveList( pxTimer, ( xTimeNow + pxTimer->xTimerPeriodInTicks ), xTi
 820:.\freertos/timers.c **** 					break;
 821:.\freertos/timers.c **** 
 822:.\freertos/timers.c **** 				case tmrCOMMAND_DELETE :
 823:.\freertos/timers.c **** 					#if ( configSUPPORT_DYNAMIC_ALLOCATION == 1 )
 824:.\freertos/timers.c **** 					{
 825:.\freertos/timers.c **** 						/* The timer has already been removed from the active list,
 826:.\freertos/timers.c **** 						just free up the memory if the memory was dynamically
 827:.\freertos/timers.c **** 						allocated. */
 828:.\freertos/timers.c **** 						if( ( pxTimer->ucStatus & tmrSTATUS_IS_STATICALLY_ALLOCATED ) == ( uint8_t ) 0 )
ARM GAS  C:\Users\skey\AppData\Local\Temp\cceKeKCB.s 			page 17


 829:.\freertos/timers.c **** 						{
 830:.\freertos/timers.c **** 							vPortFree( pxTimer );
 831:.\freertos/timers.c **** 						}
 832:.\freertos/timers.c **** 						else
 833:.\freertos/timers.c **** 						{
 834:.\freertos/timers.c **** 							pxTimer->ucStatus &= ~tmrSTATUS_IS_ACTIVE;
 835:.\freertos/timers.c **** 						}
 836:.\freertos/timers.c **** 					}
 837:.\freertos/timers.c **** 					#else
 838:.\freertos/timers.c **** 					{
 839:.\freertos/timers.c **** 						/* If dynamic allocation is not enabled, the memory
 840:.\freertos/timers.c **** 						could not have been dynamically allocated. So there is
 841:.\freertos/timers.c **** 						no need to free the memory - just mark the timer as
 842:.\freertos/timers.c **** 						"not active". */
 843:.\freertos/timers.c **** 						pxTimer->ucStatus &= ~tmrSTATUS_IS_ACTIVE;
 844:.\freertos/timers.c **** 					}
 845:.\freertos/timers.c **** 					#endif /* configSUPPORT_DYNAMIC_ALLOCATION */
 846:.\freertos/timers.c **** 					break;
 847:.\freertos/timers.c **** 
 848:.\freertos/timers.c **** 				default	:
 849:.\freertos/timers.c **** 					/* Don't expect to get here. */
 850:.\freertos/timers.c **** 					break;
 851:.\freertos/timers.c **** 			}
 852:.\freertos/timers.c **** 		}
 853:.\freertos/timers.c **** 	}
 854:.\freertos/timers.c **** }
 855:.\freertos/timers.c **** /*-----------------------------------------------------------*/
 856:.\freertos/timers.c **** 
 857:.\freertos/timers.c **** static void prvSwitchTimerLists( void )
 858:.\freertos/timers.c **** {
 859:.\freertos/timers.c **** TickType_t xNextExpireTime, xReloadTime;
 860:.\freertos/timers.c **** List_t *pxTemp;
 861:.\freertos/timers.c **** Timer_t *pxTimer;
 862:.\freertos/timers.c **** BaseType_t xResult;
 863:.\freertos/timers.c **** 
 864:.\freertos/timers.c **** 	/* The tick count has overflowed.  The timer lists must be switched.
 865:.\freertos/timers.c **** 	If there are any timers still referenced from the current timer list
 866:.\freertos/timers.c **** 	then they must have expired and should be processed before the lists
 867:.\freertos/timers.c **** 	are switched. */
 868:.\freertos/timers.c **** 	while( listLIST_IS_EMPTY( pxCurrentTimerList ) == pdFALSE )
 869:.\freertos/timers.c **** 	{
 870:.\freertos/timers.c **** 		xNextExpireTime = listGET_ITEM_VALUE_OF_HEAD_ENTRY( pxCurrentTimerList );
 871:.\freertos/timers.c **** 
 872:.\freertos/timers.c **** 		/* Remove the timer from the list. */
 873:.\freertos/timers.c **** 		pxTimer = ( Timer_t * ) listGET_OWNER_OF_HEAD_ENTRY( pxCurrentTimerList ); /*lint !e9087 !e9079 v
 874:.\freertos/timers.c **** 		( void ) uxListRemove( &( pxTimer->xTimerListItem ) );
 875:.\freertos/timers.c **** 		traceTIMER_EXPIRED( pxTimer );
 876:.\freertos/timers.c **** 
 877:.\freertos/timers.c **** 		/* Execute its callback, then send a command to restart the timer if
 878:.\freertos/timers.c **** 		it is an auto-reload timer.  It cannot be restarted here as the lists
 879:.\freertos/timers.c **** 		have not yet been switched. */
 880:.\freertos/timers.c **** 		pxTimer->pxCallbackFunction( ( TimerHandle_t ) pxTimer );
 881:.\freertos/timers.c **** 
 882:.\freertos/timers.c **** 		if( ( pxTimer->ucStatus & tmrSTATUS_IS_AUTORELOAD ) != 0 )
 883:.\freertos/timers.c **** 		{
 884:.\freertos/timers.c **** 			/* Calculate the reload value, and if the reload value results in
 885:.\freertos/timers.c **** 			the timer going into the same timer list then it has already expired
ARM GAS  C:\Users\skey\AppData\Local\Temp\cceKeKCB.s 			page 18


 886:.\freertos/timers.c **** 			and the timer should be re-inserted into the current list so it is
 887:.\freertos/timers.c **** 			processed again within this loop.  Otherwise a command should be sent
 888:.\freertos/timers.c **** 			to restart the timer to ensure it is only inserted into a list after
 889:.\freertos/timers.c **** 			the lists have been swapped. */
 890:.\freertos/timers.c **** 			xReloadTime = ( xNextExpireTime + pxTimer->xTimerPeriodInTicks );
 891:.\freertos/timers.c **** 			if( xReloadTime > xNextExpireTime )
 892:.\freertos/timers.c **** 			{
 893:.\freertos/timers.c **** 				listSET_LIST_ITEM_VALUE( &( pxTimer->xTimerListItem ), xReloadTime );
 894:.\freertos/timers.c **** 				listSET_LIST_ITEM_OWNER( &( pxTimer->xTimerListItem ), pxTimer );
 895:.\freertos/timers.c **** 				vListInsert( pxCurrentTimerList, &( pxTimer->xTimerListItem ) );
 896:.\freertos/timers.c **** 			}
 897:.\freertos/timers.c **** 			else
 898:.\freertos/timers.c **** 			{
 899:.\freertos/timers.c **** 				xResult = xTimerGenericCommand( pxTimer, tmrCOMMAND_START_DONT_TRACE, xNextExpireTime, NULL, tm
 900:.\freertos/timers.c **** 				configASSERT( xResult );
 901:.\freertos/timers.c **** 				( void ) xResult;
 902:.\freertos/timers.c **** 			}
 903:.\freertos/timers.c **** 		}
 904:.\freertos/timers.c **** 		else
 905:.\freertos/timers.c **** 		{
 906:.\freertos/timers.c **** 			mtCOVERAGE_TEST_MARKER();
 907:.\freertos/timers.c **** 		}
 908:.\freertos/timers.c **** 	}
 909:.\freertos/timers.c **** 
 910:.\freertos/timers.c **** 	pxTemp = pxCurrentTimerList;
 911:.\freertos/timers.c **** 	pxCurrentTimerList = pxOverflowTimerList;
 912:.\freertos/timers.c **** 	pxOverflowTimerList = pxTemp;
 913:.\freertos/timers.c **** }
 914:.\freertos/timers.c **** /*-----------------------------------------------------------*/
 915:.\freertos/timers.c **** 
 916:.\freertos/timers.c **** static void prvCheckForValidListAndQueue( void )
 917:.\freertos/timers.c **** {
  85              		.loc 1 917 1 view -0
  86              		.cfi_startproc
  87              		@ args = 0, pretend = 0, frame = 0
  88              		@ frame_needed = 0, uses_anonymous_args = 0
 918:.\freertos/timers.c **** 	/* Check that the list from which active timers are referenced, and the
 919:.\freertos/timers.c **** 	queue used to communicate with the timer service, have been
 920:.\freertos/timers.c **** 	initialised. */
 921:.\freertos/timers.c **** 	taskENTER_CRITICAL();
  89              		.loc 1 921 2 view .LVU1
  90              	@ .\freertos\timers.c:917: {
 917:.\freertos/timers.c **** 	/* Check that the list from which active timers are referenced, and the
  91              		.loc 1 917 1 is_stmt 0 view .LVU2
  92 0000 F8B5     		push	{r3, r4, r5, r6, r7, lr}	@
  93              	.LCFI0:
  94              		.cfi_def_cfa_offset 24
  95              		.cfi_offset 3, -24
  96              		.cfi_offset 4, -20
  97              		.cfi_offset 5, -16
  98              		.cfi_offset 6, -12
  99              		.cfi_offset 7, -8
 100              		.cfi_offset 14, -4
 101              	@ .\freertos\timers.c:923: 		if( xTimerQueue == NULL )
 922:.\freertos/timers.c **** 	{
 923:.\freertos/timers.c **** 		if( xTimerQueue == NULL )
 102              		.loc 1 923 19 view .LVU3
ARM GAS  C:\Users\skey\AppData\Local\Temp\cceKeKCB.s 			page 19


 103 0002 0D4C     		ldr	r4, .L3	@ tmp112,
 104              	@ .\freertos\timers.c:921: 	taskENTER_CRITICAL();
 921:.\freertos/timers.c **** 	{
 105              		.loc 1 921 2 view .LVU4
 106 0004 FFF7FEFF 		bl	vPortEnterCritical		@
 107              	.LVL0:
 108              		.loc 1 923 3 is_stmt 1 view .LVU5
 109              	@ .\freertos\timers.c:923: 		if( xTimerQueue == NULL )
 110              		.loc 1 923 5 is_stmt 0 view .LVU6
 111 0008 2568     		ldr	r5, [r4]	@ xTimerQueue, xTimerQueue
 112 000a 85B9     		cbnz	r5, .L2	@ xTimerQueue,
 924:.\freertos/timers.c **** 		{
 925:.\freertos/timers.c **** 			vListInitialise( &xActiveTimerList1 );
 113              		.loc 1 925 4 is_stmt 1 view .LVU7
 114 000c 271D     		adds	r7, r4, #4	@ tmp115, tmp112,
 115 000e 3846     		mov	r0, r7	@, tmp115
 116              	@ .\freertos\timers.c:926: 			vListInitialise( &xActiveTimerList2 );
 926:.\freertos/timers.c **** 			vListInitialise( &xActiveTimerList2 );
 117              		.loc 1 926 4 is_stmt 0 view .LVU8
 118 0010 04F11806 		add	r6, r4, #24	@ tmp117, tmp112,
 119              	@ .\freertos\timers.c:925: 			vListInitialise( &xActiveTimerList1 );
 925:.\freertos/timers.c **** 			vListInitialise( &xActiveTimerList2 );
 120              		.loc 1 925 4 view .LVU9
 121 0014 FFF7FEFF 		bl	vListInitialise		@
 122              	.LVL1:
 123              		.loc 1 926 4 is_stmt 1 view .LVU10
 124 0018 3046     		mov	r0, r6	@, tmp117
 125 001a FFF7FEFF 		bl	vListInitialise		@
 126              	.LVL2:
 927:.\freertos/timers.c **** 			pxCurrentTimerList = &xActiveTimerList1;
 127              		.loc 1 927 4 view .LVU11
 128              	@ .\freertos\timers.c:941: 				xTimerQueue = xQueueCreate( ( UBaseType_t ) configTIMER_QUEUE_LENGTH
 928:.\freertos/timers.c **** 			pxOverflowTimerList = &xActiveTimerList2;
 929:.\freertos/timers.c **** 
 930:.\freertos/timers.c **** 			#if( configSUPPORT_STATIC_ALLOCATION == 1 )
 931:.\freertos/timers.c **** 			{
 932:.\freertos/timers.c **** 				/* The timer queue is allocated statically in case
 933:.\freertos/timers.c **** 				configSUPPORT_DYNAMIC_ALLOCATION is 0. */
 934:.\freertos/timers.c **** 				static StaticQueue_t xStaticTimerQueue; /*lint !e956 Ok to declare in this manner to prevent ad
 935:.\freertos/timers.c **** 				static uint8_t ucStaticTimerQueueStorage[ ( size_t ) configTIMER_QUEUE_LENGTH * sizeof( DaemonT
 936:.\freertos/timers.c **** 
 937:.\freertos/timers.c **** 				xTimerQueue = xQueueCreateStatic( ( UBaseType_t ) configTIMER_QUEUE_LENGTH, ( UBaseType_t ) siz
 938:.\freertos/timers.c **** 			}
 939:.\freertos/timers.c **** 			#else
 940:.\freertos/timers.c **** 			{
 941:.\freertos/timers.c **** 				xTimerQueue = xQueueCreate( ( UBaseType_t ) configTIMER_QUEUE_LENGTH, sizeof( DaemonTaskMessage
 129              		.loc 1 941 19 is_stmt 0 view .LVU12
 130 001e 2A46     		mov	r2, r5	@, xTimerQueue
 131 0020 0C21     		movs	r1, #12	@,
 132 0022 0A20     		movs	r0, #10	@,
 133              	@ .\freertos\timers.c:928: 			pxOverflowTimerList = &xActiveTimerList2;
 928:.\freertos/timers.c **** 			pxOverflowTimerList = &xActiveTimerList2;
 134              		.loc 1 928 24 view .LVU13
 135 0024 C4E90B76 		strd	r7, r6, [r4, #44]	@ tmp115, tmp117, tmp112,
 136              		.loc 1 941 5 is_stmt 1 view .LVU14
 137              	@ .\freertos\timers.c:941: 				xTimerQueue = xQueueCreate( ( UBaseType_t ) configTIMER_QUEUE_LENGTH
 138              		.loc 1 941 19 is_stmt 0 view .LVU15
ARM GAS  C:\Users\skey\AppData\Local\Temp\cceKeKCB.s 			page 20


 139 0028 FFF7FEFF 		bl	xQueueGenericCreate		@
 140              	.LVL3:
 141              	@ .\freertos\timers.c:941: 				xTimerQueue = xQueueCreate( ( UBaseType_t ) configTIMER_QUEUE_LENGTH
 142              		.loc 1 941 17 view .LVU16
 143 002c 2060     		str	r0, [r4]	@ tmp125, xTimerQueue
 144              	.L2:
 942:.\freertos/timers.c **** 			}
 943:.\freertos/timers.c **** 			#endif
 944:.\freertos/timers.c **** 
 945:.\freertos/timers.c **** 			#if ( configQUEUE_REGISTRY_SIZE > 0 )
 946:.\freertos/timers.c **** 			{
 947:.\freertos/timers.c **** 				if( xTimerQueue != NULL )
 948:.\freertos/timers.c **** 				{
 949:.\freertos/timers.c **** 					vQueueAddToRegistry( xTimerQueue, "TmrQ" );
 950:.\freertos/timers.c **** 				}
 951:.\freertos/timers.c **** 				else
 952:.\freertos/timers.c **** 				{
 953:.\freertos/timers.c **** 					mtCOVERAGE_TEST_MARKER();
 954:.\freertos/timers.c **** 				}
 955:.\freertos/timers.c **** 			}
 956:.\freertos/timers.c **** 			#endif /* configQUEUE_REGISTRY_SIZE */
 957:.\freertos/timers.c **** 		}
 958:.\freertos/timers.c **** 		else
 959:.\freertos/timers.c **** 		{
 960:.\freertos/timers.c **** 			mtCOVERAGE_TEST_MARKER();
 145              		.loc 1 960 28 is_stmt 1 view .LVU17
 961:.\freertos/timers.c **** 		}
 962:.\freertos/timers.c **** 	}
 963:.\freertos/timers.c **** 	taskEXIT_CRITICAL();
 146              		.loc 1 963 2 view .LVU18
 147              	@ .\freertos\timers.c:964: }
 964:.\freertos/timers.c **** }
 148              		.loc 1 964 1 is_stmt 0 view .LVU19
 149 002e BDE8F840 		pop	{r3, r4, r5, r6, r7, lr}	@
 150              	.LCFI1:
 151              		.cfi_restore 14
 152              		.cfi_restore 7
 153              		.cfi_restore 6
 154              		.cfi_restore 5
 155              		.cfi_restore 4
 156              		.cfi_restore 3
 157              		.cfi_def_cfa_offset 0
 158              	@ .\freertos\timers.c:963: 	taskEXIT_CRITICAL();
 963:.\freertos/timers.c **** }
 159              		.loc 1 963 2 view .LVU20
 160 0032 FFF7FEBF 		b	vPortExitCritical		@
 161              	.LVL4:
 162              	.L4:
 163 0036 00BF     		.align	2
 164              	.L3:
 165 0038 00000000 		.word	.LANCHOR0
 166              		.cfi_endproc
 167              	.LFE51:
 168              		.size	prvCheckForValidListAndQueue, .-prvCheckForValidListAndQueue
 169              		.align	1
 170              		.syntax unified
 171              		.thumb
ARM GAS  C:\Users\skey\AppData\Local\Temp\cceKeKCB.s 			page 21


 172              		.thumb_func
 173              		.fpu softvfp
 174              		.type	prvInsertTimerInActiveList, %function
 175              	prvInsertTimerInActiveList:
 176              	.LVL5:
 177              	.LFB48:
 669:.\freertos/timers.c **** BaseType_t xProcessTimerNow = pdFALSE;
 178              		.loc 1 669 1 is_stmt 1 view -0
 179              		.cfi_startproc
 180              		@ args = 0, pretend = 0, frame = 0
 181              		@ frame_needed = 0, uses_anonymous_args = 0
 670:.\freertos/timers.c **** 
 182              		.loc 1 670 1 view .LVU22
 672:.\freertos/timers.c **** 	listSET_LIST_ITEM_OWNER( &( pxTimer->xTimerListItem ), pxTimer );
 183              		.loc 1 672 2 view .LVU23
 184              	@ .\freertos\timers.c:675: 	if( xNextExpiryTime <= xTimeNow )
 675:.\freertos/timers.c **** 	{
 185              		.loc 1 675 4 is_stmt 0 view .LVU24
 186 003c 9142     		cmp	r1, r2	@ xNextExpiryTime, xTimeNow
 187              	@ .\freertos\timers.c:669: {
 669:.\freertos/timers.c **** BaseType_t xProcessTimerNow = pdFALSE;
 188              		.loc 1 669 1 view .LVU25
 189 003e 08B5     		push	{r3, lr}	@
 190              	.LCFI2:
 191              		.cfi_def_cfa_offset 8
 192              		.cfi_offset 3, -8
 193              		.cfi_offset 14, -4
 194              	@ .\freertos\timers.c:672: 	listSET_LIST_ITEM_VALUE( &( pxTimer->xTimerListItem ), xNextExpiryTime 
 672:.\freertos/timers.c **** 	listSET_LIST_ITEM_OWNER( &( pxTimer->xTimerListItem ), pxTimer );
 195              		.loc 1 672 2 view .LVU26
 196 0040 4160     		str	r1, [r0, #4]	@ xNextExpiryTime, pxTimer_8(D)->xTimerListItem.xItemValue
 673:.\freertos/timers.c **** 
 197              		.loc 1 673 2 is_stmt 1 view .LVU27
 198 0042 0061     		str	r0, [r0, #16]	@ pxTimer, pxTimer_8(D)->xTimerListItem.pvOwner
 675:.\freertos/timers.c **** 	{
 199              		.loc 1 675 2 view .LVU28
 200              	@ .\freertos\timers.c:675: 	if( xNextExpiryTime <= xTimeNow )
 675:.\freertos/timers.c **** 	{
 201              		.loc 1 675 4 is_stmt 0 view .LVU29
 202 0044 0AD8     		bhi	.L6		@,
 679:.\freertos/timers.c **** 		{
 203              		.loc 1 679 3 is_stmt 1 view .LVU30
 204              	@ .\freertos\timers.c:679: 		if( ( ( TickType_t ) ( xTimeNow - xCommandTime ) ) >= pxTimer->xTimerP
 679:.\freertos/timers.c **** 		{
 205              		.loc 1 679 9 is_stmt 0 view .LVU31
 206 0046 D21A     		subs	r2, r2, r3	@ tmp121, xTimeNow, xCommandTime
 207              	.LVL6:
 208              	@ .\freertos\timers.c:679: 		if( ( ( TickType_t ) ( xTimeNow - xCommandTime ) ) >= pxTimer->xTimerP
 679:.\freertos/timers.c **** 		{
 209              		.loc 1 679 5 view .LVU32
 210 0048 8369     		ldr	r3, [r0, #24]	@ pxTimer_8(D)->xTimerPeriodInTicks, pxTimer_8(D)->xTimerPeriodInTicks
 211              	.LVL7:
 679:.\freertos/timers.c **** 		{
 212              		.loc 1 679 5 view .LVU33
 213 004a 9A42     		cmp	r2, r3	@ tmp121, pxTimer_8(D)->xTimerPeriodInTicks
 214 004c 0ED2     		bcs	.L10		@,
 215              	.LVL8:
ARM GAS  C:\Users\skey\AppData\Local\Temp\cceKeKCB.s 			page 22


 216              	.LBB4:
 217              	.LBI4:
 668:.\freertos/timers.c **** {
 218              		.loc 1 668 19 is_stmt 1 view .LVU34
 219              	.LBB5:
 687:.\freertos/timers.c **** 		}
 220              		.loc 1 687 4 view .LVU35
 221 004e 084B     		ldr	r3, .L12	@ tmp124,
 222 0050 011D     		adds	r1, r0, #4	@, pxTimer,
 223              	.LVL9:
 687:.\freertos/timers.c **** 		}
 224              		.loc 1 687 4 is_stmt 0 view .LVU36
 225 0052 186B     		ldr	r0, [r3, #48]	@, pxOverflowTimerList
 226              	.LVL10:
 227              	.L11:
 687:.\freertos/timers.c **** 		}
 228              		.loc 1 687 4 view .LVU37
 229              	.LBE5:
 230              	.LBE4:
 231              	@ .\freertos\timers.c:701: 			vListInsert( pxCurrentTimerList, &( pxTimer->xTimerListItem ) );
 701:.\freertos/timers.c **** 		}
 232              		.loc 1 701 4 view .LVU38
 233 0054 FFF7FEFF 		bl	vListInsert		@
 234              	.LVL11:
 235              	@ .\freertos\timers.c:670: BaseType_t xProcessTimerNow = pdFALSE;
 670:.\freertos/timers.c **** 
 236              		.loc 1 670 12 view .LVU39
 237 0058 0020     		movs	r0, #0	@ <retval>,
 238              	.LVL12:
 239              	.L5:
 240              	@ .\freertos\timers.c:706: }
 706:.\freertos/timers.c **** /*-----------------------------------------------------------*/
 241              		.loc 1 706 1 view .LVU40
 242 005a 08BD     		pop	{r3, pc}	@
 243              	.LVL13:
 244              	.L6:
 692:.\freertos/timers.c **** 		{
 245              		.loc 1 692 3 is_stmt 1 view .LVU41
 246              	@ .\freertos\timers.c:692: 		if( ( xTimeNow < xCommandTime ) && ( xNextExpiryTime >= xCommandTime )
 692:.\freertos/timers.c **** 		{
 247              		.loc 1 692 5 is_stmt 0 view .LVU42
 248 005c 9A42     		cmp	r2, r3	@ xTimeNow, xCommandTime
 249 005e 01D2     		bcs	.L8		@,
 250              	@ .\freertos\timers.c:692: 		if( ( xTimeNow < xCommandTime ) && ( xNextExpiryTime >= xCommandTime )
 692:.\freertos/timers.c **** 		{
 251              		.loc 1 692 35 discriminator 1 view .LVU43
 252 0060 9942     		cmp	r1, r3	@ xNextExpiryTime, xCommandTime
 253 0062 03D2     		bcs	.L10		@,
 254              	.L8:
 701:.\freertos/timers.c **** 		}
 255              		.loc 1 701 4 is_stmt 1 view .LVU44
 256 0064 024B     		ldr	r3, .L12	@ tmp126,
 257              	.LVL14:
 701:.\freertos/timers.c **** 		}
 258              		.loc 1 701 4 is_stmt 0 view .LVU45
 259 0066 011D     		adds	r1, r0, #4	@, pxTimer,
 260              	.LVL15:
ARM GAS  C:\Users\skey\AppData\Local\Temp\cceKeKCB.s 			page 23


 701:.\freertos/timers.c **** 		}
 261              		.loc 1 701 4 view .LVU46
 262 0068 D86A     		ldr	r0, [r3, #44]	@, pxCurrentTimerList
 263              	.LVL16:
 701:.\freertos/timers.c **** 		}
 264              		.loc 1 701 4 view .LVU47
 265 006a F3E7     		b	.L11		@
 266              	.LVL17:
 267              	.L10:
 268              	@ .\freertos\timers.c:683: 			xProcessTimerNow = pdTRUE;
 683:.\freertos/timers.c **** 		}
 269              		.loc 1 683 21 view .LVU48
 270 006c 0120     		movs	r0, #1	@ <retval>,
 271              	.LVL18:
 705:.\freertos/timers.c **** }
 272              		.loc 1 705 2 is_stmt 1 view .LVU49
 273              	@ .\freertos\timers.c:705: 	return xProcessTimerNow;
 705:.\freertos/timers.c **** }
 274              		.loc 1 705 9 is_stmt 0 view .LVU50
 275 006e F4E7     		b	.L5		@
 276              	.L13:
 277              		.align	2
 278              	.L12:
 279 0070 00000000 		.word	.LANCHOR0
 280              		.cfi_endproc
 281              	.LFE48:
 282              		.size	prvInsertTimerInActiveList, .-prvInsertTimerInActiveList
 283              		.section	.rodata.str1.1,"aMS",%progbits,1
 284              	.LC0:
 285 0000 546D7220 		.ascii	"Tmr Svc\000"
 285      53766300 
 286              		.text
 287              		.align	1
 288              		.global	xTimerCreateTimerTask
 289              		.syntax unified
 290              		.thumb
 291              		.thumb_func
 292              		.fpu softvfp
 293              		.type	xTimerCreateTimerTask, %function
 294              	xTimerCreateTimerTask:
 295              	.LFB34:
 228:.\freertos/timers.c **** BaseType_t xReturn = pdFAIL;
 296              		.loc 1 228 1 is_stmt 1 view -0
 297              		.cfi_startproc
 298              		@ args = 0, pretend = 0, frame = 0
 299              		@ frame_needed = 0, uses_anonymous_args = 0
 229:.\freertos/timers.c **** 
 300              		.loc 1 229 1 view .LVU52
 301              	.LVL19:
 235:.\freertos/timers.c **** 
 302              		.loc 1 235 2 view .LVU53
 303              	@ .\freertos\timers.c:228: {
 228:.\freertos/timers.c **** BaseType_t xReturn = pdFAIL;
 304              		.loc 1 228 1 is_stmt 0 view .LVU54
 305 0074 07B5     		push	{r0, r1, r2, lr}	@
 306              	.LCFI3:
 307              		.cfi_def_cfa_offset 16
ARM GAS  C:\Users\skey\AppData\Local\Temp\cceKeKCB.s 			page 24


 308              		.cfi_offset 14, -4
 309              	@ .\freertos\timers.c:235: 	prvCheckForValidListAndQueue();
 235:.\freertos/timers.c **** 
 310              		.loc 1 235 2 view .LVU55
 311 0076 FFF7C3FF 		bl	prvCheckForValidListAndQueue		@
 312              	.LVL20:
 237:.\freertos/timers.c **** 	{
 313              		.loc 1 237 2 is_stmt 1 view .LVU56
 314              	@ .\freertos\timers.c:237: 	if( xTimerQueue != NULL )
 237:.\freertos/timers.c **** 	{
 315              		.loc 1 237 18 is_stmt 0 view .LVU57
 316 007a 084B     		ldr	r3, .L17	@ tmp112,
 317              	@ .\freertos\timers.c:237: 	if( xTimerQueue != NULL )
 237:.\freertos/timers.c **** 	{
 318              		.loc 1 237 4 view .LVU58
 319 007c 1868     		ldr	r0, [r3]	@ xTimerQueue, xTimerQueue
 320 007e 48B1     		cbz	r0, .L14	@ xTimerQueue,
 261:.\freertos/timers.c **** 									configTIMER_SERVICE_TASK_NAME,
 321              		.loc 1 261 4 is_stmt 1 view .LVU59
 322              	@ .\freertos\timers.c:261: 			xReturn = xTaskCreate(	prvTimerTask,
 261:.\freertos/timers.c **** 									configTIMER_SERVICE_TASK_NAME,
 323              		.loc 1 261 14 is_stmt 0 view .LVU60
 324 0080 3433     		adds	r3, r3, #52	@ tmp117, tmp112,
 325 0082 0193     		str	r3, [sp, #4]	@ tmp117,
 326 0084 0123     		movs	r3, #1	@ tmp118,
 327 0086 F022     		movs	r2, #240	@,
 328 0088 0093     		str	r3, [sp]	@ tmp118,
 329 008a 0549     		ldr	r1, .L17+4	@,
 330 008c 0023     		movs	r3, #0	@,
 331 008e 0548     		ldr	r0, .L17+8	@,
 332 0090 FFF7FEFF 		bl	xTaskCreate		@
 333              	.LVL21:
 334              	.L14:
 335              	@ .\freertos\timers.c:277: }
 277:.\freertos/timers.c **** /*-----------------------------------------------------------*/
 336              		.loc 1 277 1 view .LVU61
 337 0094 03B0     		add	sp, sp, #12	@,,
 338              	.LCFI4:
 339              		.cfi_def_cfa_offset 4
 340              		@ sp needed	@
 341 0096 5DF804FB 		ldr	pc, [sp], #4	@
 342              	.L18:
 343 009a 00BF     		.align	2
 344              	.L17:
 345 009c 00000000 		.word	.LANCHOR0
 346 00a0 00000000 		.word	.LC0
 347 00a4 00000000 		.word	prvTimerTask
 348              		.cfi_endproc
 349              	.LFE34:
 350              		.size	xTimerCreateTimerTask, .-xTimerCreateTimerTask
 351              		.align	1
 352              		.global	xTimerCreate
 353              		.syntax unified
 354              		.thumb
 355              		.thumb_func
 356              		.fpu softvfp
 357              		.type	xTimerCreate, %function
ARM GAS  C:\Users\skey\AppData\Local\Temp\cceKeKCB.s 			page 25


 358              	xTimerCreate:
 359              	.LVL22:
 360              	.LFB35:
 287:.\freertos/timers.c **** 	Timer_t *pxNewTimer;
 361              		.loc 1 287 2 is_stmt 1 view -0
 362              		.cfi_startproc
 363              		@ args = 4, pretend = 0, frame = 0
 364              		@ frame_needed = 0, uses_anonymous_args = 0
 288:.\freertos/timers.c **** 
 365              		.loc 1 288 2 view .LVU63
 290:.\freertos/timers.c **** 
 366              		.loc 1 290 3 view .LVU64
 367              	@ .\freertos\timers.c:287: 	{
 287:.\freertos/timers.c **** 	Timer_t *pxNewTimer;
 368              		.loc 1 287 2 is_stmt 0 view .LVU65
 369 00a8 2DE9F041 		push	{r4, r5, r6, r7, r8, lr}	@
 370              	.LCFI5:
 371              		.cfi_def_cfa_offset 24
 372              		.cfi_offset 4, -24
 373              		.cfi_offset 5, -20
 374              		.cfi_offset 6, -16
 375              		.cfi_offset 7, -12
 376              		.cfi_offset 8, -8
 377              		.cfi_offset 14, -4
 378              	@ .\freertos\timers.c:287: 	{
 287:.\freertos/timers.c **** 	Timer_t *pxNewTimer;
 379              		.loc 1 287 2 view .LVU66
 380 00ac 8046     		mov	r8, r0	@ pcTimerName, tmp127
 381              	@ .\freertos\timers.c:290: 		pxNewTimer = ( Timer_t * ) pvPortMalloc( sizeof( Timer_t ) ); /*lint !
 290:.\freertos/timers.c **** 
 382              		.loc 1 290 30 view .LVU67
 383 00ae 2C20     		movs	r0, #44	@,
 384              	.LVL23:
 385              	@ .\freertos\timers.c:287: 	{
 287:.\freertos/timers.c **** 	Timer_t *pxNewTimer;
 386              		.loc 1 287 2 view .LVU68
 387 00b0 0F46     		mov	r7, r1	@ xTimerPeriodInTicks, tmp128
 388 00b2 1546     		mov	r5, r2	@ uxAutoReload, tmp129
 389 00b4 1E46     		mov	r6, r3	@ pvTimerID, tmp130
 390              	@ .\freertos\timers.c:290: 		pxNewTimer = ( Timer_t * ) pvPortMalloc( sizeof( Timer_t ) ); /*lint !
 290:.\freertos/timers.c **** 
 391              		.loc 1 290 30 view .LVU69
 392 00b6 FFF7FEFF 		bl	pvPortMalloc		@
 393              	.LVL24:
 292:.\freertos/timers.c **** 		{
 394              		.loc 1 292 3 is_stmt 1 view .LVU70
 395              	@ .\freertos\timers.c:292: 		if( pxNewTimer != NULL )
 292:.\freertos/timers.c **** 		{
 396              		.loc 1 292 5 is_stmt 0 view .LVU71
 397 00ba 0446     		mov	r4, r0	@ <retval>, tmp131
 398 00bc A0B1     		cbz	r0, .L19	@ <retval>,
 297:.\freertos/timers.c **** 			prvInitialiseNewTimer( pcTimerName, xTimerPeriodInTicks, uxAutoReload, pvTimerID, pxCallbackFunc
 399              		.loc 1 297 4 is_stmt 1 view .LVU72
 400              	@ .\freertos\timers.c:297: 			pxNewTimer->ucStatus = 0x00;
 297:.\freertos/timers.c **** 			prvInitialiseNewTimer( pcTimerName, xTimerPeriodInTicks, uxAutoReload, pvTimerID, pxCallbackFunc
 401              		.loc 1 297 25 is_stmt 0 view .LVU73
 402 00be 0023     		movs	r3, #0	@ tmp119,
ARM GAS  C:\Users\skey\AppData\Local\Temp\cceKeKCB.s 			page 26


 403 00c0 80F82830 		strb	r3, [r0, #40]	@ tmp119, pxNewTimer_4->ucStatus
 298:.\freertos/timers.c **** 		}
 404              		.loc 1 298 4 is_stmt 1 view .LVU74
 405              	.LVL25:
 406              	.LBB8:
 407              	.LBI8:
 349:.\freertos/timers.c **** 									const TickType_t xTimerPeriodInTicks,
 408              		.loc 1 349 13 view .LVU75
 409              	.LBB9:
 357:.\freertos/timers.c **** 
 410              		.loc 1 357 45 view .LVU76
 359:.\freertos/timers.c **** 	{
 411              		.loc 1 359 2 view .LVU77
 363:.\freertos/timers.c **** 
 412              		.loc 1 363 3 view .LVU78
 413 00c4 FFF79CFF 		bl	prvCheckForValidListAndQueue		@
 414              	.LVL26:
 367:.\freertos/timers.c **** 		pxNewTimer->xTimerPeriodInTicks = xTimerPeriodInTicks;
 415              		.loc 1 367 3 view .LVU79
 416              	@ .\freertos\timers.c:370: 		pxNewTimer->pxCallbackFunction = pxCallbackFunction;
 370:.\freertos/timers.c **** 		vListInitialiseItem( &( pxNewTimer->xTimerListItem ) );
 417              		.loc 1 370 34 is_stmt 0 view .LVU80
 418 00c8 069B     		ldr	r3, [sp, #24]	@ pxCallbackFunction, pxCallbackFunction
 419              	@ .\freertos\timers.c:369: 		pxNewTimer->pvTimerID = pvTimerID;
 369:.\freertos/timers.c **** 		pxNewTimer->pxCallbackFunction = pxCallbackFunction;
 420              		.loc 1 369 25 view .LVU81
 421 00ca C4E90676 		strd	r7, r6, [r4, #24]	@ xTimerPeriodInTicks, pvTimerID, <retval>,
 422              	@ .\freertos\timers.c:367: 		pxNewTimer->pcTimerName = pcTimerName;
 367:.\freertos/timers.c **** 		pxNewTimer->xTimerPeriodInTicks = xTimerPeriodInTicks;
 423              		.loc 1 367 27 view .LVU82
 424 00ce C4F80080 		str	r8, [r4]	@ pcTimerName, pxNewTimer_4->pcTimerName
 368:.\freertos/timers.c **** 		pxNewTimer->pvTimerID = pvTimerID;
 425              		.loc 1 368 3 is_stmt 1 view .LVU83
 370:.\freertos/timers.c **** 		vListInitialiseItem( &( pxNewTimer->xTimerListItem ) );
 426              		.loc 1 370 3 view .LVU84
 427              	@ .\freertos\timers.c:370: 		pxNewTimer->pxCallbackFunction = pxCallbackFunction;
 370:.\freertos/timers.c **** 		vListInitialiseItem( &( pxNewTimer->xTimerListItem ) );
 428              		.loc 1 370 34 is_stmt 0 view .LVU85
 429 00d2 2362     		str	r3, [r4, #32]	@ pxCallbackFunction, pxNewTimer_4->pxCallbackFunction
 371:.\freertos/timers.c **** 		if( uxAutoReload != pdFALSE )
 430              		.loc 1 371 3 is_stmt 1 view .LVU86
 431 00d4 201D     		adds	r0, r4, #4	@, <retval>,
 432 00d6 FFF7FEFF 		bl	vListInitialiseItem		@
 433              	.LVL27:
 372:.\freertos/timers.c **** 		{
 434              		.loc 1 372 3 view .LVU87
 435              	@ .\freertos\timers.c:372: 		if( uxAutoReload != pdFALSE )
 372:.\freertos/timers.c **** 		{
 436              		.loc 1 372 5 is_stmt 0 view .LVU88
 437 00da 2DB1     		cbz	r5, .L19	@ uxAutoReload,
 374:.\freertos/timers.c **** 		}
 438              		.loc 1 374 4 is_stmt 1 view .LVU89
 439              	@ .\freertos\timers.c:374: 			pxNewTimer->ucStatus |= tmrSTATUS_IS_AUTORELOAD;
 374:.\freertos/timers.c **** 		}
 440              		.loc 1 374 25 is_stmt 0 view .LVU90
 441 00dc 94F82830 		ldrb	r3, [r4, #40]	@ zero_extendqisi2	@ pxNewTimer_4->ucStatus, pxNewTimer_4->ucStatus
 442 00e0 43F00403 		orr	r3, r3, #4	@ tmp124, pxNewTimer_4->ucStatus,
ARM GAS  C:\Users\skey\AppData\Local\Temp\cceKeKCB.s 			page 27


 443 00e4 84F82830 		strb	r3, [r4, #40]	@ tmp124, pxNewTimer_4->ucStatus
 444              	.LVL28:
 374:.\freertos/timers.c **** 		}
 445              		.loc 1 374 25 view .LVU91
 446              	.LBE9:
 447              	.LBE8:
 301:.\freertos/timers.c **** 	}
 448              		.loc 1 301 3 is_stmt 1 view .LVU92
 449              	.L19:
 450              	@ .\freertos\timers.c:302: 	}
 302:.\freertos/timers.c **** 
 451              		.loc 1 302 2 is_stmt 0 view .LVU93
 452 00e8 2046     		mov	r0, r4	@, <retval>
 453 00ea BDE8F081 		pop	{r4, r5, r6, r7, r8, pc}	@
 302:.\freertos/timers.c **** 
 454              		.loc 1 302 2 view .LVU94
 455              		.cfi_endproc
 456              	.LFE35:
 457              		.size	xTimerCreate, .-xTimerCreate
 458              		.align	1
 459              		.global	xTimerGenericCommand
 460              		.syntax unified
 461              		.thumb
 462              		.thumb_func
 463              		.fpu softvfp
 464              		.type	xTimerGenericCommand, %function
 465              	xTimerGenericCommand:
 466              	.LVL29:
 467              	.LFB37:
 382:.\freertos/timers.c **** BaseType_t xReturn = pdFAIL;
 468              		.loc 1 382 1 is_stmt 1 view -0
 469              		.cfi_startproc
 470              		@ args = 4, pretend = 0, frame = 16
 471              		@ frame_needed = 0, uses_anonymous_args = 0
 383:.\freertos/timers.c **** DaemonTaskMessage_t xMessage;
 472              		.loc 1 383 1 view .LVU96
 384:.\freertos/timers.c **** 
 473              		.loc 1 384 1 view .LVU97
 386:.\freertos/timers.c **** 
 474              		.loc 1 386 24 view .LVU98
 390:.\freertos/timers.c **** 	{
 475              		.loc 1 390 2 view .LVU99
 476              	@ .\freertos\timers.c:382: {
 382:.\freertos/timers.c **** BaseType_t xReturn = pdFAIL;
 477              		.loc 1 382 1 is_stmt 0 view .LVU100
 478 00ee 7FB5     		push	{r0, r1, r2, r3, r4, r5, r6, lr}	@
 479              	.LCFI6:
 480              		.cfi_def_cfa_offset 32
 481              		.cfi_offset 4, -16
 482              		.cfi_offset 5, -12
 483              		.cfi_offset 6, -8
 484              		.cfi_offset 14, -4
 485              	@ .\freertos\timers.c:390: 	if( xTimerQueue != NULL )
 390:.\freertos/timers.c **** 	{
 486              		.loc 1 390 18 view .LVU101
 487 00f0 0E4C     		ldr	r4, .L32	@ tmp120,
 488              	@ .\freertos\timers.c:382: {
ARM GAS  C:\Users\skey\AppData\Local\Temp\cceKeKCB.s 			page 28


 382:.\freertos/timers.c **** BaseType_t xReturn = pdFAIL;
 489              		.loc 1 382 1 view .LVU102
 490 00f2 0546     		mov	r5, r0	@ xTimer, tmp128
 491              	@ .\freertos\timers.c:390: 	if( xTimerQueue != NULL )
 390:.\freertos/timers.c **** 	{
 492              		.loc 1 390 18 view .LVU103
 493 00f4 2068     		ldr	r0, [r4]	@ xTimerQueue.20_1, xTimerQueue
 494              	.LVL30:
 495              	@ .\freertos\timers.c:382: {
 382:.\freertos/timers.c **** BaseType_t xReturn = pdFAIL;
 496              		.loc 1 382 1 view .LVU104
 497 00f6 1646     		mov	r6, r2	@ xOptionalValue, tmp130
 498 00f8 1A46     		mov	r2, r3	@ pxHigherPriorityTaskWoken, tmp131
 499              	.LVL31:
 500              	@ .\freertos\timers.c:390: 	if( xTimerQueue != NULL )
 390:.\freertos/timers.c **** 	{
 501              		.loc 1 390 4 view .LVU105
 502 00fa 78B1     		cbz	r0, .L26	@ xTimerQueue.20_1,
 393:.\freertos/timers.c **** 		xMessage.u.xTimerParameters.xMessageValue = xOptionalValue;
 503              		.loc 1 393 3 is_stmt 1 view .LVU106
 504              	@ .\freertos\timers.c:397: 		if( xCommandID < tmrFIRST_FROM_ISR_COMMAND )
 397:.\freertos/timers.c **** 		{
 505              		.loc 1 397 5 is_stmt 0 view .LVU107
 506 00fc 0529     		cmp	r1, #5	@ xCommandID,
 507              	@ .\freertos\timers.c:394: 		xMessage.u.xTimerParameters.xMessageValue = xOptionalValue;
 394:.\freertos/timers.c **** 		xMessage.u.xTimerParameters.pxTimer = xTimer;
 508              		.loc 1 394 45 view .LVU108
 509 00fe CDE90116 		strd	r1, r6, [sp, #4]	@ xCommandID, xOptionalValue,,
 395:.\freertos/timers.c **** 
 510              		.loc 1 395 3 is_stmt 1 view .LVU109
 511              	@ .\freertos\timers.c:395: 		xMessage.u.xTimerParameters.pxTimer = xTimer;
 395:.\freertos/timers.c **** 
 512              		.loc 1 395 39 is_stmt 0 view .LVU110
 513 0102 0395     		str	r5, [sp, #12]	@ xTimer, xMessage.u.xTimerParameters.pxTimer
 397:.\freertos/timers.c **** 		{
 514              		.loc 1 397 3 is_stmt 1 view .LVU111
 515              	@ .\freertos\timers.c:397: 		if( xCommandID < tmrFIRST_FROM_ISR_COMMAND )
 397:.\freertos/timers.c **** 		{
 516              		.loc 1 397 5 is_stmt 0 view .LVU112
 517 0104 0CDC     		bgt	.L28		@,
 399:.\freertos/timers.c **** 			{
 518              		.loc 1 399 4 is_stmt 1 view .LVU113
 519              	@ .\freertos\timers.c:399: 			if( xTaskGetSchedulerState() == taskSCHEDULER_RUNNING )
 399:.\freertos/timers.c **** 			{
 520              		.loc 1 399 8 is_stmt 0 view .LVU114
 521 0106 FFF7FEFF 		bl	xTaskGetSchedulerState		@
 522              	.LVL32:
 523              	@ .\freertos\timers.c:401: 				xReturn = xQueueSendToBack( xTimerQueue, &xMessage, xTicksToWait );
 401:.\freertos/timers.c **** 			}
 524              		.loc 1 401 15 view .LVU115
 525 010a 0023     		movs	r3, #0	@,
 526              	@ .\freertos\timers.c:399: 			if( xTaskGetSchedulerState() == taskSCHEDULER_RUNNING )
 399:.\freertos/timers.c **** 			{
 527              		.loc 1 399 6 view .LVU116
 528 010c 0228     		cmp	r0, #2	@ tmp132,
 401:.\freertos/timers.c **** 			}
 529              		.loc 1 401 5 is_stmt 1 view .LVU117
ARM GAS  C:\Users\skey\AppData\Local\Temp\cceKeKCB.s 			page 29


 530              	@ .\freertos\timers.c:405: 				xReturn = xQueueSendToBack( xTimerQueue, &xMessage, tmrNO_DELAY );
 405:.\freertos/timers.c **** 			}
 531              		.loc 1 405 15 is_stmt 0 view .LVU118
 532 010e 14BF     		ite	ne
 533 0110 1A46     		movne	r2, r3	@,
 534              	@ .\freertos\timers.c:401: 				xReturn = xQueueSendToBack( xTimerQueue, &xMessage, xTicksToWait );
 401:.\freertos/timers.c **** 			}
 535              		.loc 1 401 15 view .LVU119
 536 0112 089A     		ldreq	r2, [sp, #32]	@, xTicksToWait
 405:.\freertos/timers.c **** 			}
 537              		.loc 1 405 5 is_stmt 1 view .LVU120
 538              	@ .\freertos\timers.c:405: 				xReturn = xQueueSendToBack( xTimerQueue, &xMessage, tmrNO_DELAY );
 405:.\freertos/timers.c **** 			}
 539              		.loc 1 405 15 is_stmt 0 view .LVU121
 540 0114 2068     		ldr	r0, [r4]	@, xTimerQueue
 541 0116 01A9     		add	r1, sp, #4	@ tmp137,,
 542 0118 FFF7FEFF 		bl	xQueueGenericSend		@
 543              	.LVL33:
 544              	.L26:
 545              	@ .\freertos\timers.c:421: }
 421:.\freertos/timers.c **** /*-----------------------------------------------------------*/
 546              		.loc 1 421 1 view .LVU122
 547 011c 04B0     		add	sp, sp, #16	@,,
 548              	.LCFI7:
 549              		.cfi_remember_state
 550              		.cfi_def_cfa_offset 16
 551              		@ sp needed	@
 552 011e 70BD     		pop	{r4, r5, r6, pc}	@
 553              	.LVL34:
 554              	.L28:
 555              	.LCFI8:
 556              		.cfi_restore_state
 410:.\freertos/timers.c **** 		}
 557              		.loc 1 410 4 is_stmt 1 view .LVU123
 558              	@ .\freertos\timers.c:410: 			xReturn = xQueueSendToBackFromISR( xTimerQueue, &xMessage, pxHigherPr
 410:.\freertos/timers.c **** 		}
 559              		.loc 1 410 14 is_stmt 0 view .LVU124
 560 0120 0023     		movs	r3, #0	@,
 561 0122 01A9     		add	r1, sp, #4	@ tmp138,,
 562              	.LVL35:
 410:.\freertos/timers.c **** 		}
 563              		.loc 1 410 14 view .LVU125
 564 0124 FFF7FEFF 		bl	xQueueGenericSendFromISR		@
 565              	.LVL36:
 410:.\freertos/timers.c **** 		}
 566              		.loc 1 410 14 view .LVU126
 567 0128 F8E7     		b	.L26		@
 568              	.L33:
 569 012a 00BF     		.align	2
 570              	.L32:
 571 012c 00000000 		.word	.LANCHOR0
 572              		.cfi_endproc
 573              	.LFE37:
 574              		.size	xTimerGenericCommand, .-xTimerGenericCommand
 575              		.align	1
 576              		.syntax unified
 577              		.thumb
ARM GAS  C:\Users\skey\AppData\Local\Temp\cceKeKCB.s 			page 30


 578              		.thumb_func
 579              		.fpu softvfp
 580              		.type	prvSwitchTimerLists, %function
 581              	prvSwitchTimerLists:
 582              	.LFB50:
 858:.\freertos/timers.c **** TickType_t xNextExpireTime, xReloadTime;
 583              		.loc 1 858 1 is_stmt 1 view -0
 584              		.cfi_startproc
 585              		@ args = 0, pretend = 0, frame = 0
 586              		@ frame_needed = 0, uses_anonymous_args = 0
 859:.\freertos/timers.c **** List_t *pxTemp;
 587              		.loc 1 859 1 view .LVU128
 860:.\freertos/timers.c **** Timer_t *pxTimer;
 588              		.loc 1 860 1 view .LVU129
 861:.\freertos/timers.c **** BaseType_t xResult;
 589              		.loc 1 861 1 view .LVU130
 862:.\freertos/timers.c **** 
 590              		.loc 1 862 1 view .LVU131
 868:.\freertos/timers.c **** 	{
 591              		.loc 1 868 2 view .LVU132
 592              	@ .\freertos\timers.c:858: {
 858:.\freertos/timers.c **** TickType_t xNextExpireTime, xReloadTime;
 593              		.loc 1 858 1 is_stmt 0 view .LVU133
 594 0130 2DE9F341 		push	{r0, r1, r4, r5, r6, r7, r8, lr}	@
 595              	.LCFI9:
 596              		.cfi_def_cfa_offset 32
 597              		.cfi_offset 4, -24
 598              		.cfi_offset 5, -20
 599              		.cfi_offset 6, -16
 600              		.cfi_offset 7, -12
 601              		.cfi_offset 8, -8
 602              		.cfi_offset 14, -4
 603              	@ .\freertos\timers.c:899: 				xResult = xTimerGenericCommand( pxTimer, tmrCOMMAND_START_DONT_TRACE
 899:.\freertos/timers.c **** 				configASSERT( xResult );
 604              		.loc 1 899 15 view .LVU134
 605 0134 4FF00008 		mov	r8, #0	@ tmp137,
 606              	@ .\freertos\timers.c:868: 	while( listLIST_IS_EMPTY( pxCurrentTimerList ) == pdFALSE )
 868:.\freertos/timers.c **** 	{
 607              		.loc 1 868 9 view .LVU135
 608 0138 154D     		ldr	r5, .L42	@ tmp132,
 609              	.L36:
 906:.\freertos/timers.c **** 		}
 610              		.loc 1 906 28 is_stmt 1 view .LVU136
 868:.\freertos/timers.c **** 	{
 611              		.loc 1 868 7 view .LVU137
 612              	@ .\freertos\timers.c:868: 	while( listLIST_IS_EMPTY( pxCurrentTimerList ) == pdFALSE )
 868:.\freertos/timers.c **** 	{
 613              		.loc 1 868 9 is_stmt 0 view .LVU138
 614 013a EB6A     		ldr	r3, [r5, #44]	@ pxCurrentTimerList.13_11, pxCurrentTimerList
 615 013c 1A68     		ldr	r2, [r3]	@ _12, pxCurrentTimerList.13_11->uxNumberOfItems
 616              	@ .\freertos\timers.c:868: 	while( listLIST_IS_EMPTY( pxCurrentTimerList ) == pdFALSE )
 868:.\freertos/timers.c **** 	{
 617              		.loc 1 868 7 view .LVU139
 618 013e 2AB9     		cbnz	r2, .L39	@ _12,
 910:.\freertos/timers.c **** 	pxCurrentTimerList = pxOverflowTimerList;
 619              		.loc 1 910 2 is_stmt 1 view .LVU140
 620              	.LVL37:
ARM GAS  C:\Users\skey\AppData\Local\Temp\cceKeKCB.s 			page 31


 911:.\freertos/timers.c **** 	pxOverflowTimerList = pxTemp;
 621              		.loc 1 911 2 view .LVU141
 622              	@ .\freertos\timers.c:911: 	pxCurrentTimerList = pxOverflowTimerList;
 911:.\freertos/timers.c **** 	pxOverflowTimerList = pxTemp;
 623              		.loc 1 911 21 is_stmt 0 view .LVU142
 624 0140 2A6B     		ldr	r2, [r5, #48]	@ pxOverflowTimerList, pxOverflowTimerList
 625              	@ .\freertos\timers.c:912: 	pxOverflowTimerList = pxTemp;
 912:.\freertos/timers.c **** }
 626              		.loc 1 912 22 view .LVU143
 627 0142 C5E90B23 		strd	r2, r3, [r5, #44]	@ pxOverflowTimerList, pxCurrentTimerList.13_11, tmp132,
 628              	@ .\freertos\timers.c:913: }
 913:.\freertos/timers.c **** /*-----------------------------------------------------------*/
 629              		.loc 1 913 1 view .LVU144
 630 0146 02B0     		add	sp, sp, #8	@,,
 631              	.LCFI10:
 632              		.cfi_remember_state
 633              		.cfi_def_cfa_offset 24
 634              		@ sp needed	@
 635 0148 BDE8F081 		pop	{r4, r5, r6, r7, r8, pc}	@
 636              	.LVL38:
 637              	.L39:
 638              	.LCFI11:
 639              		.cfi_restore_state
 870:.\freertos/timers.c **** 
 640              		.loc 1 870 3 is_stmt 1 view .LVU145
 641              	@ .\freertos\timers.c:870: 		xNextExpireTime = listGET_ITEM_VALUE_OF_HEAD_ENTRY( pxCurrentTimerList
 870:.\freertos/timers.c **** 
 642              		.loc 1 870 21 is_stmt 0 view .LVU146
 643 014c DB68     		ldr	r3, [r3, #12]	@ _2, pxCurrentTimerList.13_11->xListEnd.pxNext
 644              	@ .\freertos\timers.c:873: 		pxTimer = ( Timer_t * ) listGET_OWNER_OF_HEAD_ENTRY( pxCurrentTimerLis
 873:.\freertos/timers.c **** 		( void ) uxListRemove( &( pxTimer->xTimerListItem ) );
 645              		.loc 1 873 11 view .LVU147
 646 014e DC68     		ldr	r4, [r3, #12]	@ pxTimer, _2->pvOwner
 647              	@ .\freertos\timers.c:870: 		xNextExpireTime = listGET_ITEM_VALUE_OF_HEAD_ENTRY( pxCurrentTimerList
 870:.\freertos/timers.c **** 
 648              		.loc 1 870 19 view .LVU148
 649 0150 1E68     		ldr	r6, [r3]	@ xNextExpireTime, _2->xItemValue
 650              	.LVL39:
 873:.\freertos/timers.c **** 		( void ) uxListRemove( &( pxTimer->xTimerListItem ) );
 651              		.loc 1 873 3 is_stmt 1 view .LVU149
 874:.\freertos/timers.c **** 		traceTIMER_EXPIRED( pxTimer );
 652              		.loc 1 874 3 view .LVU150
 653              	@ .\freertos\timers.c:874: 		( void ) uxListRemove( &( pxTimer->xTimerListItem ) );
 874:.\freertos/timers.c **** 		traceTIMER_EXPIRED( pxTimer );
 654              		.loc 1 874 12 is_stmt 0 view .LVU151
 655 0152 271D     		adds	r7, r4, #4	@ _5, pxTimer,
 656 0154 3846     		mov	r0, r7	@, _5
 657 0156 FFF7FEFF 		bl	uxListRemove		@
 658              	.LVL40:
 875:.\freertos/timers.c **** 
 659              		.loc 1 875 32 is_stmt 1 view .LVU152
 880:.\freertos/timers.c **** 
 660              		.loc 1 880 3 view .LVU153
 661 015a 236A     		ldr	r3, [r4, #32]	@ pxTimer_20->pxCallbackFunction, pxTimer_20->pxCallbackFunction
 662 015c 2046     		mov	r0, r4	@, pxTimer
 663 015e 9847     		blx	r3		@ pxTimer_20->pxCallbackFunction
 664              	.LVL41:
ARM GAS  C:\Users\skey\AppData\Local\Temp\cceKeKCB.s 			page 32


 882:.\freertos/timers.c **** 		{
 665              		.loc 1 882 3 view .LVU154
 666              	@ .\freertos\timers.c:882: 		if( ( pxTimer->ucStatus & tmrSTATUS_IS_AUTORELOAD ) != 0 )
 882:.\freertos/timers.c **** 		{
 667              		.loc 1 882 5 is_stmt 0 view .LVU155
 668 0160 94F82830 		ldrb	r3, [r4, #40]	@ zero_extendqisi2	@ pxTimer_20->ucStatus, pxTimer_20->ucStatus
 669 0164 5B07     		lsls	r3, r3, #29	@, pxTimer_20->ucStatus,
 670 0166 E8D5     		bpl	.L36		@,
 890:.\freertos/timers.c **** 			if( xReloadTime > xNextExpireTime )
 671              		.loc 1 890 4 is_stmt 1 view .LVU156
 672              	@ .\freertos\timers.c:890: 			xReloadTime = ( xNextExpireTime + pxTimer->xTimerPeriodInTicks );
 890:.\freertos/timers.c **** 			if( xReloadTime > xNextExpireTime )
 673              		.loc 1 890 16 is_stmt 0 view .LVU157
 674 0168 A369     		ldr	r3, [r4, #24]	@ pxTimer_20->xTimerPeriodInTicks, pxTimer_20->xTimerPeriodInTicks
 675 016a 3344     		add	r3, r3, r6	@ xReloadTime, xNextExpireTime
 676              	.LVL42:
 891:.\freertos/timers.c **** 			{
 677              		.loc 1 891 4 is_stmt 1 view .LVU158
 678              	@ .\freertos\timers.c:891: 			if( xReloadTime > xNextExpireTime )
 891:.\freertos/timers.c **** 			{
 679              		.loc 1 891 6 is_stmt 0 view .LVU159
 680 016c 9E42     		cmp	r6, r3	@ xNextExpireTime, xReloadTime
 681 016e 06D2     		bcs	.L37		@,
 893:.\freertos/timers.c **** 				listSET_LIST_ITEM_OWNER( &( pxTimer->xTimerListItem ), pxTimer );
 682              		.loc 1 893 5 is_stmt 1 view .LVU160
 683              	@ .\freertos\timers.c:895: 				vListInsert( pxCurrentTimerList, &( pxTimer->xTimerListItem ) );
 895:.\freertos/timers.c **** 			}
 684              		.loc 1 895 5 is_stmt 0 view .LVU161
 685 0170 3946     		mov	r1, r7	@, _5
 686 0172 E86A     		ldr	r0, [r5, #44]	@, pxCurrentTimerList
 687              	@ .\freertos\timers.c:893: 				listSET_LIST_ITEM_VALUE( &( pxTimer->xTimerListItem ), xReloadTime )
 893:.\freertos/timers.c **** 				listSET_LIST_ITEM_OWNER( &( pxTimer->xTimerListItem ), pxTimer );
 688              		.loc 1 893 5 view .LVU162
 689 0174 6360     		str	r3, [r4, #4]	@ xReloadTime, pxTimer_20->xTimerListItem.xItemValue
 894:.\freertos/timers.c **** 				vListInsert( pxCurrentTimerList, &( pxTimer->xTimerListItem ) );
 690              		.loc 1 894 5 is_stmt 1 view .LVU163
 691 0176 2461     		str	r4, [r4, #16]	@ pxTimer, pxTimer_20->xTimerListItem.pvOwner
 895:.\freertos/timers.c **** 			}
 692              		.loc 1 895 5 view .LVU164
 693 0178 FFF7FEFF 		bl	vListInsert		@
 694              	.LVL43:
 895:.\freertos/timers.c **** 			}
 695              		.loc 1 895 5 is_stmt 0 view .LVU165
 696 017c DDE7     		b	.L36		@
 697              	.LVL44:
 698              	.L37:
 899:.\freertos/timers.c **** 				configASSERT( xResult );
 699              		.loc 1 899 5 is_stmt 1 view .LVU166
 700              	@ .\freertos\timers.c:899: 				xResult = xTimerGenericCommand( pxTimer, tmrCOMMAND_START_DONT_TRACE
 899:.\freertos/timers.c **** 				configASSERT( xResult );
 701              		.loc 1 899 15 is_stmt 0 view .LVU167
 702 017e 0023     		movs	r3, #0	@,
 703              	.LVL45:
 899:.\freertos/timers.c **** 				configASSERT( xResult );
 704              		.loc 1 899 15 view .LVU168
 705 0180 3246     		mov	r2, r6	@, xNextExpireTime
 706 0182 1946     		mov	r1, r3	@,
ARM GAS  C:\Users\skey\AppData\Local\Temp\cceKeKCB.s 			page 33


 707 0184 2046     		mov	r0, r4	@, pxTimer
 708 0186 CDF80080 		str	r8, [sp]	@ tmp137,
 709              	.LVL46:
 899:.\freertos/timers.c **** 				configASSERT( xResult );
 710              		.loc 1 899 15 view .LVU169
 711 018a FFF7FEFF 		bl	xTimerGenericCommand		@
 712              	.LVL47:
 713 018e D4E7     		b	.L36		@
 714              	.L43:
 715              		.align	2
 716              	.L42:
 717 0190 00000000 		.word	.LANCHOR0
 718              		.cfi_endproc
 719              	.LFE50:
 720              		.size	prvSwitchTimerLists, .-prvSwitchTimerLists
 721              		.align	1
 722              		.syntax unified
 723              		.thumb
 724              		.thumb_func
 725              		.fpu softvfp
 726              		.type	prvTimerTask, %function
 727              	prvTimerTask:
 728              	.LVL48:
 729              	.LFB44:
 524:.\freertos/timers.c **** TickType_t xNextExpireTime;
 730              		.loc 1 524 1 is_stmt 1 view -0
 731              		.cfi_startproc
 732              		@ args = 0, pretend = 0, frame = 16
 733              		@ frame_needed = 0, uses_anonymous_args = 0
 524:.\freertos/timers.c **** TickType_t xNextExpireTime;
 734              		.loc 1 524 1 is_stmt 0 view .LVU171
 735 0194 2DE9F047 		push	{r4, r5, r6, r7, r8, r9, r10, lr}	@
 736              	.LCFI12:
 737              		.cfi_def_cfa_offset 32
 738              		.cfi_offset 4, -32
 739              		.cfi_offset 5, -28
 740              		.cfi_offset 6, -24
 741              		.cfi_offset 7, -20
 742              		.cfi_offset 8, -16
 743              		.cfi_offset 9, -12
 744              		.cfi_offset 10, -8
 745              		.cfi_offset 14, -4
 746              	.LBB22:
 747              	.LBB23:
 748              	@ .\freertos\timers.c:630: 	*pxListWasEmpty = listLIST_IS_EMPTY( pxCurrentTimerList );
 630:.\freertos/timers.c **** 	if( *pxListWasEmpty == pdFALSE )
 749              		.loc 1 630 20 view .LVU172
 750 0198 684F     		ldr	r7, .L84	@ tmp164,
 751              	.LBE23:
 752              	.LBE22:
 753              	.LBB26:
 754              	.LBB27:
 755              	@ .\freertos\timers.c:603: 					portYIELD_WITHIN_API();
 603:.\freertos/timers.c **** 				}
 756              		.loc 1 603 6 view .LVU173
 757 019a DFF8A481 		ldr	r8, .L84+4	@ tmp231,
 758 019e 3D46     		mov	r5, r7	@ tmp229, tmp164
ARM GAS  C:\Users\skey\AppData\Local\Temp\cceKeKCB.s 			page 34


 759              	.LBE27:
 760              	.LBE26:
 761              	@ .\freertos\timers.c:524: {
 524:.\freertos/timers.c **** TickType_t xNextExpireTime;
 762              		.loc 1 524 1 view .LVU174
 763 01a0 86B0     		sub	sp, sp, #24	@,,
 764              	.LCFI13:
 765              		.cfi_def_cfa_offset 56
 766              	.LVL49:
 767              	.L67:
 525:.\freertos/timers.c **** BaseType_t xListWasEmpty;
 768              		.loc 1 525 1 is_stmt 1 discriminator 1 view .LVU175
 526:.\freertos/timers.c **** 
 769              		.loc 1 526 1 discriminator 1 view .LVU176
 529:.\freertos/timers.c **** 
 770              		.loc 1 529 2 discriminator 1 view .LVU177
 543:.\freertos/timers.c **** 	{
 771              		.loc 1 543 2 discriminator 1 view .LVU178
 547:.\freertos/timers.c **** 
 772              		.loc 1 547 3 discriminator 1 view .LVU179
 773              	.LBB37:
 774              	.LBI22:
 619:.\freertos/timers.c **** {
 775              		.loc 1 619 19 discriminator 1 view .LVU180
 776              	.LBB24:
 621:.\freertos/timers.c **** 
 777              		.loc 1 621 1 discriminator 1 view .LVU181
 630:.\freertos/timers.c **** 	if( *pxListWasEmpty == pdFALSE )
 778              		.loc 1 630 2 discriminator 1 view .LVU182
 779              	@ .\freertos\timers.c:630: 	*pxListWasEmpty = listLIST_IS_EMPTY( pxCurrentTimerList );
 630:.\freertos/timers.c **** 	if( *pxListWasEmpty == pdFALSE )
 780              		.loc 1 630 20 is_stmt 0 discriminator 1 view .LVU183
 781 01a2 FB6A     		ldr	r3, [r7, #44]	@ pxCurrentTimerList.3_51, pxCurrentTimerList
 782 01a4 1E68     		ldr	r6, [r3]	@ xNextExpireTime, pxCurrentTimerList.3_51->uxNumberOfItems
 783 01a6 1EB3     		cbz	r6, .L68	@ xNextExpireTime,
 784              	.LVL50:
 631:.\freertos/timers.c **** 	{
 785              		.loc 1 631 2 is_stmt 1 view .LVU184
 633:.\freertos/timers.c **** 	}
 786              		.loc 1 633 3 view .LVU185
 787              	@ .\freertos\timers.c:630: 	*pxListWasEmpty = listLIST_IS_EMPTY( pxCurrentTimerList );
 630:.\freertos/timers.c **** 	if( *pxListWasEmpty == pdFALSE )
 788              		.loc 1 630 20 is_stmt 0 view .LVU186
 789 01a8 0024     		movs	r4, #0	@ xListWasEmpty,
 790              	@ .\freertos\timers.c:633: 		xNextExpireTime = listGET_ITEM_VALUE_OF_HEAD_ENTRY( pxCurrentTimerList
 633:.\freertos/timers.c **** 	}
 791              		.loc 1 633 19 view .LVU187
 792 01aa DB68     		ldr	r3, [r3, #12]	@ pxCurrentTimerList.3_51->xListEnd.pxNext, pxCurrentTimerList.3_51->xListEnd.px
 793 01ac 1E68     		ldr	r6, [r3]	@ xNextExpireTime, _54->xItemValue
 794              	.LVL51:
 795              	.L45:
 641:.\freertos/timers.c **** }
 796              		.loc 1 641 2 is_stmt 1 view .LVU188
 641:.\freertos/timers.c **** }
 797              		.loc 1 641 2 is_stmt 0 view .LVU189
 798              	.LBE24:
 799              	.LBE37:
ARM GAS  C:\Users\skey\AppData\Local\Temp\cceKeKCB.s 			page 35


 551:.\freertos/timers.c **** 
 800              		.loc 1 551 3 is_stmt 1 view .LVU190
 801              	.LBB38:
 802              	.LBI26:
 559:.\freertos/timers.c **** {
 803              		.loc 1 559 13 view .LVU191
 804              	.LBB34:
 561:.\freertos/timers.c **** BaseType_t xTimerListsWereSwitched;
 805              		.loc 1 561 1 view .LVU192
 562:.\freertos/timers.c **** 
 806              		.loc 1 562 1 view .LVU193
 564:.\freertos/timers.c **** 	{
 807              		.loc 1 564 2 view .LVU194
 808 01ae FFF7FEFF 		bl	vTaskSuspendAll		@
 809              	.LVL52:
 571:.\freertos/timers.c **** 		if( xTimerListsWereSwitched == pdFALSE )
 810              		.loc 1 571 3 view .LVU195
 811              	.LBB28:
 812              	.LBI28:
 645:.\freertos/timers.c **** {
 813              		.loc 1 645 19 view .LVU196
 814              	.LBB29:
 647:.\freertos/timers.c **** PRIVILEGED_DATA static TickType_t xLastTime = ( TickType_t ) 0U; /*lint !e956 Variable is only acce
 815              		.loc 1 647 1 view .LVU197
 648:.\freertos/timers.c **** 
 816              		.loc 1 648 17 view .LVU198
 650:.\freertos/timers.c **** 
 817              		.loc 1 650 2 view .LVU199
 818              	@ .\freertos\timers.c:650: 	xTimeNow = xTaskGetTickCount();
 650:.\freertos/timers.c **** 
 819              		.loc 1 650 13 is_stmt 0 view .LVU200
 820 01b2 FFF7FEFF 		bl	xTaskGetTickCount		@
 821              	.LVL53:
 822              	@ .\freertos\timers.c:652: 	if( xTimeNow < xLastTime )
 652:.\freertos/timers.c **** 	{
 823              		.loc 1 652 4 view .LVU201
 824 01b6 AB6B     		ldr	r3, [r5, #56]	@ xLastTime, xLastTime
 825              	@ .\freertos\timers.c:650: 	xTimeNow = xTaskGetTickCount();
 650:.\freertos/timers.c **** 
 826              		.loc 1 650 13 view .LVU202
 827 01b8 8246     		mov	r10, r0	@ xTimeNow, tmp232
 828              	.LVL54:
 652:.\freertos/timers.c **** 	{
 829              		.loc 1 652 2 is_stmt 1 view .LVU203
 830              	@ .\freertos\timers.c:652: 	if( xTimeNow < xLastTime )
 652:.\freertos/timers.c **** 	{
 831              		.loc 1 652 4 is_stmt 0 view .LVU204
 832 01ba 9842     		cmp	r0, r3	@ xTimeNow, xLastTime
 833 01bc 1AD3     		bcc	.L46		@,
 834              	.LVL55:
 662:.\freertos/timers.c **** 
 835              		.loc 1 662 2 is_stmt 1 view .LVU205
 836              	@ .\freertos\timers.c:662: 	xLastTime = xTimeNow;
 662:.\freertos/timers.c **** 
 837              		.loc 1 662 12 is_stmt 0 view .LVU206
 838 01be A863     		str	r0, [r5, #56]	@ xTimeNow, xLastTime
 664:.\freertos/timers.c **** }
ARM GAS  C:\Users\skey\AppData\Local\Temp\cceKeKCB.s 			page 36


 839              		.loc 1 664 2 is_stmt 1 view .LVU207
 840              	.LVL56:
 664:.\freertos/timers.c **** }
 841              		.loc 1 664 2 is_stmt 0 view .LVU208
 842              	.LBE29:
 843              	.LBE28:
 572:.\freertos/timers.c **** 		{
 844              		.loc 1 572 3 is_stmt 1 view .LVU209
 575:.\freertos/timers.c **** 			{
 845              		.loc 1 575 4 view .LVU210
 846              	@ .\freertos\timers.c:575: 			if( ( xListWasEmpty == pdFALSE ) && ( xNextExpireTime <= xTimeNow ) )
 575:.\freertos/timers.c **** 			{
 847              		.loc 1 575 6 is_stmt 0 view .LVU211
 848 01c0 0CB3     		cbz	r4, .L47	@ xListWasEmpty,
 588:.\freertos/timers.c **** 				{
 849              		.loc 1 588 5 is_stmt 1 view .LVU212
 592:.\freertos/timers.c **** 				}
 850              		.loc 1 592 6 view .LVU213
 851              	@ .\freertos\timers.c:592: 					xListWasEmpty = listLIST_IS_EMPTY( pxOverflowTimerList );
 592:.\freertos/timers.c **** 				}
 852              		.loc 1 592 22 is_stmt 0 view .LVU214
 853 01c2 2B6B     		ldr	r3, [r5, #48]	@ pxOverflowTimerList.7_45, pxOverflowTimerList
 854 01c4 1C68     		ldr	r4, [r3]	@ _46, pxOverflowTimerList.7_45->uxNumberOfItems
 855              	.LVL57:
 592:.\freertos/timers.c **** 				}
 856              		.loc 1 592 22 view .LVU215
 857 01c6 B4FA84F4 		clz	r4, r4	@ xListWasEmpty, _46
 858 01ca 6409     		lsrs	r4, r4, #5	@ xListWasEmpty, xListWasEmpty,
 859              	.L50:
 860              	.LVL58:
 595:.\freertos/timers.c **** 
 861              		.loc 1 595 5 is_stmt 1 view .LVU216
 862 01cc 2246     		mov	r2, r4	@, xListWasEmpty
 863 01ce 2868     		ldr	r0, [r5]	@, xTimerQueue
 864              	.LVL59:
 595:.\freertos/timers.c **** 
 865              		.loc 1 595 5 is_stmt 0 view .LVU217
 866 01d0 A6EB0A01 		sub	r1, r6, r10	@, xNextExpireTime, xTimeNow
 867 01d4 FFF7FEFF 		bl	vQueueWaitForMessageRestricted		@
 868              	.LVL60:
 597:.\freertos/timers.c **** 				{
 869              		.loc 1 597 5 is_stmt 1 view .LVU218
 870              	@ .\freertos\timers.c:597: 				if( xTaskResumeAll() == pdFALSE )
 597:.\freertos/timers.c **** 				{
 871              		.loc 1 597 9 is_stmt 0 view .LVU219
 872 01d8 FFF7FEFF 		bl	xTaskResumeAll		@
 873              	.LVL61:
 874              	@ .\freertos\timers.c:597: 				if( xTaskResumeAll() == pdFALSE )
 597:.\freertos/timers.c **** 				{
 875              		.loc 1 597 7 view .LVU220
 876 01dc 80B9     		cbnz	r0, .L49	@ tmp234,
 603:.\freertos/timers.c **** 				}
 877              		.loc 1 603 6 is_stmt 1 view .LVU221
 878 01de 4FF08053 		mov	r3, #268435456	@ tmp189,
 879 01e2 C8F80030 		str	r3, [r8]	@ tmp189, MEM[(volatile uint32_t *)3758157060B]
 603:.\freertos/timers.c **** 				}
 880              		.loc 1 603 6 view .LVU222
ARM GAS  C:\Users\skey\AppData\Local\Temp\cceKeKCB.s 			page 37


 881              		.syntax unified
 882              	@ 603 ".\freertos\timers.c" 1
 883 01e6 BFF34F8F 		dsb	
 884              	@ 0 "" 2
 603:.\freertos/timers.c **** 				}
 885              		.loc 1 603 6 view .LVU223
 886              	@ 603 ".\freertos\timers.c" 1
 887 01ea BFF36F8F 		isb
 888              	@ 0 "" 2
 603:.\freertos/timers.c **** 				}
 889              		.loc 1 603 28 view .LVU224
 890              		.thumb
 891              		.syntax unified
 892 01ee 07E0     		b	.L49		@
 893              	.LVL62:
 894              	.L68:
 603:.\freertos/timers.c **** 				}
 895              		.loc 1 603 28 is_stmt 0 view .LVU225
 896              	.LBE34:
 897              	.LBE38:
 898              	.LBB39:
 899              	.LBB25:
 900              	@ .\freertos\timers.c:630: 	*pxListWasEmpty = listLIST_IS_EMPTY( pxCurrentTimerList );
 630:.\freertos/timers.c **** 	if( *pxListWasEmpty == pdFALSE )
 901              		.loc 1 630 20 view .LVU226
 902 01f0 0124     		movs	r4, #1	@ xListWasEmpty,
 903 01f2 DCE7     		b	.L45		@
 904              	.LVL63:
 905              	.L46:
 630:.\freertos/timers.c **** 	if( *pxListWasEmpty == pdFALSE )
 906              		.loc 1 630 20 view .LVU227
 907              	.LBE25:
 908              	.LBE39:
 909              	.LBB40:
 910              	.LBB35:
 911              	.LBB31:
 912              	.LBB30:
 654:.\freertos/timers.c **** 		*pxTimerListsWereSwitched = pdTRUE;
 913              		.loc 1 654 3 is_stmt 1 view .LVU228
 914 01f4 FFF79CFF 		bl	prvSwitchTimerLists		@
 915              	.LVL64:
 655:.\freertos/timers.c **** 	}
 916              		.loc 1 655 3 view .LVU229
 662:.\freertos/timers.c **** 
 917              		.loc 1 662 2 view .LVU230
 918              	@ .\freertos\timers.c:662: 	xLastTime = xTimeNow;
 662:.\freertos/timers.c **** 
 919              		.loc 1 662 12 is_stmt 0 view .LVU231
 920 01f8 C5F838A0 		str	r10, [r5, #56]	@ xTimeNow, xLastTime
 664:.\freertos/timers.c **** }
 921              		.loc 1 664 2 is_stmt 1 view .LVU232
 922              	.LVL65:
 664:.\freertos/timers.c **** }
 923              		.loc 1 664 2 is_stmt 0 view .LVU233
 924              	.LBE30:
 925              	.LBE31:
 572:.\freertos/timers.c **** 		{
ARM GAS  C:\Users\skey\AppData\Local\Temp\cceKeKCB.s 			page 38


 926              		.loc 1 572 3 is_stmt 1 view .LVU234
 613:.\freertos/timers.c **** 		}
 927              		.loc 1 613 4 view .LVU235
 928              	@ .\freertos\timers.c:613: 			( void ) xTaskResumeAll();
 613:.\freertos/timers.c **** 		}
 929              		.loc 1 613 13 is_stmt 0 view .LVU236
 930 01fc FFF7FEFF 		bl	xTaskResumeAll		@
 931              	.LVL66:
 932              	.L49:
 613:.\freertos/timers.c **** 		}
 933              		.loc 1 613 13 view .LVU237
 934              	.LBE35:
 935              	.LBE40:
 936              	.LBB41:
 937              	.LBB42:
 938              	@ .\freertos\timers.c:716: 	while( xQueueReceive( xTimerQueue, &xMessage, tmrNO_DELAY ) != pdFAIL )
 716:.\freertos/timers.c **** 	{
 939              		.loc 1 716 9 view .LVU238
 940 0200 4FF00009 		mov	r9, #0	@ tmp230,
 941              	.LVL67:
 716:.\freertos/timers.c **** 	{
 942              		.loc 1 716 9 view .LVU239
 943 0204 48E0     		b	.L53		@
 944              	.LVL68:
 945              	.L47:
 716:.\freertos/timers.c **** 	{
 946              		.loc 1 716 9 view .LVU240
 947              	.LBE42:
 948              	.LBE41:
 949              	.LBB46:
 950              	.LBB36:
 951              	@ .\freertos\timers.c:575: 			if( ( xListWasEmpty == pdFALSE ) && ( xNextExpireTime <= xTimeNow ) )
 575:.\freertos/timers.c **** 			{
 952              		.loc 1 575 37 view .LVU241
 953 0206 8642     		cmp	r6, r0	@ xNextExpireTime, xTimeNow
 954 0208 E0D8     		bhi	.L50		@,
 577:.\freertos/timers.c **** 				prvProcessExpiredTimer( xNextExpireTime, xTimeNow );
 955              		.loc 1 577 5 is_stmt 1 view .LVU242
 956              	@ .\freertos\timers.c:577: 				( void ) xTaskResumeAll();
 577:.\freertos/timers.c **** 				prvProcessExpiredTimer( xNextExpireTime, xTimeNow );
 957              		.loc 1 577 14 is_stmt 0 view .LVU243
 958 020a FFF7FEFF 		bl	xTaskResumeAll		@
 959              	.LVL69:
 578:.\freertos/timers.c **** 			}
 960              		.loc 1 578 5 is_stmt 1 view .LVU244
 961              	.LBB32:
 962              	.LBI32:
 482:.\freertos/timers.c **** {
 963              		.loc 1 482 13 view .LVU245
 964              	.LBB33:
 484:.\freertos/timers.c **** Timer_t * const pxTimer = ( Timer_t * ) listGET_OWNER_OF_HEAD_ENTRY( pxCurrentTimerList ); /*lint !
 965              		.loc 1 484 1 view .LVU246
 485:.\freertos/timers.c **** 
 966              		.loc 1 485 1 view .LVU247
 967              	@ .\freertos\timers.c:485: Timer_t * const pxTimer = ( Timer_t * ) listGET_OWNER_OF_HEAD_ENTRY( pxC
 485:.\freertos/timers.c **** 
 968              		.loc 1 485 41 is_stmt 0 view .LVU248
ARM GAS  C:\Users\skey\AppData\Local\Temp\cceKeKCB.s 			page 39


 969 020e EB6A     		ldr	r3, [r5, #44]	@ pxCurrentTimerList, pxCurrentTimerList
 970              	@ .\freertos\timers.c:485: Timer_t * const pxTimer = ( Timer_t * ) listGET_OWNER_OF_HEAD_ENTRY( pxC
 485:.\freertos/timers.c **** 
 971              		.loc 1 485 17 view .LVU249
 972 0210 DB68     		ldr	r3, [r3, #12]	@ pxCurrentTimerList.15_59->xListEnd.pxNext, pxCurrentTimerList.15_59->xListEnd.
 973 0212 D3F80C90 		ldr	r9, [r3, #12]	@ pxTimer, _60->pvOwner
 974              	.LVL70:
 489:.\freertos/timers.c **** 	traceTIMER_EXPIRED( pxTimer );
 975              		.loc 1 489 2 is_stmt 1 view .LVU250
 976              	@ .\freertos\timers.c:489: 	( void ) uxListRemove( &( pxTimer->xTimerListItem ) );
 489:.\freertos/timers.c **** 	traceTIMER_EXPIRED( pxTimer );
 977              		.loc 1 489 11 is_stmt 0 view .LVU251
 978 0216 09F10400 		add	r0, r9, #4	@, pxTimer,
 979 021a FFF7FEFF 		bl	uxListRemove		@
 980              	.LVL71:
 490:.\freertos/timers.c **** 
 981              		.loc 1 490 31 is_stmt 1 view .LVU252
 494:.\freertos/timers.c **** 	{
 982              		.loc 1 494 2 view .LVU253
 983              	@ .\freertos\timers.c:494: 	if( ( pxTimer->ucStatus & tmrSTATUS_IS_AUTORELOAD ) != 0 )
 494:.\freertos/timers.c **** 	{
 984              		.loc 1 494 15 is_stmt 0 view .LVU254
 985 021e 99F82830 		ldrb	r3, [r9, #40]	@ zero_extendqisi2	@ _63, pxTimer_61->ucStatus
 986              	@ .\freertos\timers.c:494: 	if( ( pxTimer->ucStatus & tmrSTATUS_IS_AUTORELOAD ) != 0 )
 494:.\freertos/timers.c **** 	{
 987              		.loc 1 494 4 view .LVU255
 988 0222 5807     		lsls	r0, r3, #29	@, _63,
 989 0224 14D5     		bpl	.L51		@,
 499:.\freertos/timers.c **** 		{
 990              		.loc 1 499 3 is_stmt 1 view .LVU256
 991              	@ .\freertos\timers.c:499: 		if( prvInsertTimerInActiveList( pxTimer, ( xNextExpireTime + pxTimer->
 499:.\freertos/timers.c **** 		{
 992              		.loc 1 499 7 is_stmt 0 view .LVU257
 993 0226 D9F81810 		ldr	r1, [r9, #24]	@ pxTimer_61->xTimerPeriodInTicks, pxTimer_61->xTimerPeriodInTicks
 994 022a 3346     		mov	r3, r6	@, xNextExpireTime
 995 022c 5246     		mov	r2, r10	@, xTimeNow
 996 022e 4846     		mov	r0, r9	@, pxTimer
 997 0230 3144     		add	r1, r1, r6	@, xNextExpireTime
 998 0232 FFF703FF 		bl	prvInsertTimerInActiveList		@
 999              	.LVL72:
 1000              	@ .\freertos\timers.c:499: 		if( prvInsertTimerInActiveList( pxTimer, ( xNextExpireTime + pxTimer->
 499:.\freertos/timers.c **** 		{
 1001              		.loc 1 499 5 view .LVU258
 1002 0236 30B1     		cbz	r0, .L52	@ tmp233,
 503:.\freertos/timers.c **** 			configASSERT( xResult );
 1003              		.loc 1 503 4 is_stmt 1 view .LVU259
 1004              	@ .\freertos\timers.c:503: 			xResult = xTimerGenericCommand( pxTimer, tmrCOMMAND_START_DONT_TRACE,
 503:.\freertos/timers.c **** 			configASSERT( xResult );
 1005              		.loc 1 503 14 is_stmt 0 view .LVU260
 1006 0238 2346     		mov	r3, r4	@, xListWasEmpty
 1007 023a 3246     		mov	r2, r6	@, xNextExpireTime
 1008 023c 2146     		mov	r1, r4	@, tmp3
 1009 023e 4846     		mov	r0, r9	@, pxTimer
 1010 0240 0094     		str	r4, [sp]	@ xListWasEmpty,
 1011 0242 FFF7FEFF 		bl	xTimerGenericCommand		@
 1012              	.LVL73:
 504:.\freertos/timers.c **** 			( void ) xResult;
ARM GAS  C:\Users\skey\AppData\Local\Temp\cceKeKCB.s 			page 40


 1013              		.loc 1 504 27 is_stmt 1 view .LVU261
 505:.\freertos/timers.c **** 		}
 1014              		.loc 1 505 4 view .LVU262
 1015              	.L52:
 515:.\freertos/timers.c **** 	}
 1016              		.loc 1 515 27 view .LVU263
 519:.\freertos/timers.c **** }
 1017              		.loc 1 519 2 view .LVU264
 1018 0246 4846     		mov	r0, r9	@, pxTimer
 1019 0248 D9F82030 		ldr	r3, [r9, #32]	@ pxTimer_61->pxCallbackFunction, pxTimer_61->pxCallbackFunction
 1020 024c 9847     		blx	r3		@ pxTimer_61->pxCallbackFunction
 1021              	.LVL74:
 1022              	@ .\freertos\timers.c:520: }
 520:.\freertos/timers.c **** /*-----------------------------------------------------------*/
 1023              		.loc 1 520 1 is_stmt 0 view .LVU265
 1024 024e D7E7     		b	.L49		@
 1025              	.L51:
 514:.\freertos/timers.c **** 		mtCOVERAGE_TEST_MARKER();
 1026              		.loc 1 514 3 is_stmt 1 view .LVU266
 1027              	@ .\freertos\timers.c:514: 		pxTimer->ucStatus &= ~tmrSTATUS_IS_ACTIVE;
 514:.\freertos/timers.c **** 		mtCOVERAGE_TEST_MARKER();
 1028              		.loc 1 514 21 is_stmt 0 view .LVU267
 1029 0250 23F00103 		bic	r3, r3, #1	@ tmp180, _63,
 1030 0254 89F82830 		strb	r3, [r9, #40]	@ tmp180, pxTimer_61->ucStatus
 1031 0258 F5E7     		b	.L52		@
 1032              	.LVL75:
 1033              	.L60:
 514:.\freertos/timers.c **** 		mtCOVERAGE_TEST_MARKER();
 1034              		.loc 1 514 21 view .LVU268
 1035              	.LBE33:
 1036              	.LBE32:
 1037              	.LBE36:
 1038              	.LBE46:
 1039              	.LBB47:
 1040              	.LBB45:
 776:.\freertos/timers.c **** 					if( prvInsertTimerInActiveList( pxTimer,  xMessage.u.xTimerParameters.xMessageValue + pxTimer-
 1041              		.loc 1 776 6 is_stmt 1 view .LVU269
 1042              	@ .\freertos\timers.c:776: 					pxTimer->ucStatus |= tmrSTATUS_IS_ACTIVE;
 776:.\freertos/timers.c **** 					if( prvInsertTimerInActiveList( pxTimer,  xMessage.u.xTimerParameters.xMessageValue + pxTimer-
 1043              		.loc 1 776 24 is_stmt 0 view .LVU270
 1044 025a 94F82830 		ldrb	r3, [r4, #40]	@ zero_extendqisi2	@ pxTimer_9->ucStatus, pxTimer_9->ucStatus
 1045              	@ .\freertos\timers.c:777: 					if( prvInsertTimerInActiveList( pxTimer,  xMessage.u.xTimerParamete
 777:.\freertos/timers.c **** 					{
 1046              		.loc 1 777 10 view .LVU271
 1047 025e A169     		ldr	r1, [r4, #24]	@ pxTimer_9->xTimerPeriodInTicks, pxTimer_9->xTimerPeriodInTicks
 1048              	@ .\freertos\timers.c:776: 					pxTimer->ucStatus |= tmrSTATUS_IS_ACTIVE;
 776:.\freertos/timers.c **** 					if( prvInsertTimerInActiveList( pxTimer,  xMessage.u.xTimerParameters.xMessageValue + pxTimer-
 1049              		.loc 1 776 24 view .LVU272
 1050 0260 43F00103 		orr	r3, r3, #1	@ tmp199, pxTimer_9->ucStatus,
 1051 0264 84F82830 		strb	r3, [r4, #40]	@ tmp199, pxTimer_9->ucStatus
 777:.\freertos/timers.c **** 					{
 1052              		.loc 1 777 6 is_stmt 1 view .LVU273
 1053              	@ .\freertos\timers.c:777: 					if( prvInsertTimerInActiveList( pxTimer,  xMessage.u.xTimerParamete
 777:.\freertos/timers.c **** 					{
 1054              		.loc 1 777 10 is_stmt 0 view .LVU274
 1055 0268 049B     		ldr	r3, [sp, #16]	@, xMessage.u.xTimerParameters.xMessageValue
 1056 026a 3246     		mov	r2, r6	@, xTimeNow
ARM GAS  C:\Users\skey\AppData\Local\Temp\cceKeKCB.s 			page 41


 1057 026c 2046     		mov	r0, r4	@, pxTimer
 1058 026e 1944     		add	r1, r1, r3	@,
 1059 0270 FFF7E4FE 		bl	prvInsertTimerInActiveList		@
 1060              	.LVL76:
 1061              	@ .\freertos\timers.c:777: 					if( prvInsertTimerInActiveList( pxTimer,  xMessage.u.xTimerParamete
 777:.\freertos/timers.c **** 					{
 1062              		.loc 1 777 8 view .LVU275
 1063 0274 80B1     		cbz	r0, .L53	@ tmp236,
 781:.\freertos/timers.c **** 						traceTIMER_EXPIRED( pxTimer );
 1064              		.loc 1 781 7 is_stmt 1 view .LVU276
 1065 0276 236A     		ldr	r3, [r4, #32]	@ pxTimer_9->pxCallbackFunction, pxTimer_9->pxCallbackFunction
 1066 0278 2046     		mov	r0, r4	@, pxTimer
 1067 027a 9847     		blx	r3		@ pxTimer_9->pxCallbackFunction
 1068              	.LVL77:
 782:.\freertos/timers.c **** 
 1069              		.loc 1 782 36 view .LVU277
 784:.\freertos/timers.c **** 						{
 1070              		.loc 1 784 7 view .LVU278
 1071              	@ .\freertos\timers.c:784: 						if( ( pxTimer->ucStatus & tmrSTATUS_IS_AUTORELOAD ) != 0 )
 784:.\freertos/timers.c **** 						{
 1072              		.loc 1 784 9 is_stmt 0 view .LVU279
 1073 027c 94F82830 		ldrb	r3, [r4, #40]	@ zero_extendqisi2	@ pxTimer_9->ucStatus, pxTimer_9->ucStatus
 1074 0280 5907     		lsls	r1, r3, #29	@, pxTimer_9->ucStatus,
 1075 0282 09D5     		bpl	.L53		@,
 786:.\freertos/timers.c **** 							configASSERT( xResult );
 1076              		.loc 1 786 8 is_stmt 1 view .LVU280
 1077              	@ .\freertos\timers.c:786: 							xResult = xTimerGenericCommand( pxTimer, tmrCOMMAND_START_DONT_TR
 786:.\freertos/timers.c **** 							configASSERT( xResult );
 1078              		.loc 1 786 18 is_stmt 0 view .LVU281
 1079 0284 0023     		movs	r3, #0	@,
 1080 0286 A269     		ldr	r2, [r4, #24]	@ pxTimer_9->xTimerPeriodInTicks, pxTimer_9->xTimerPeriodInTicks
 1081 0288 0499     		ldr	r1, [sp, #16]	@ xMessage.u.xTimerParameters.xMessageValue, xMessage.u.xTimerParameters.xMessag
 1082 028a 2046     		mov	r0, r4	@, pxTimer
 1083 028c 0A44     		add	r2, r2, r1	@, xMessage.u.xTimerParameters.xMessageValue
 1084 028e CDF80090 		str	r9, [sp]	@ tmp230,
 1085 0292 1946     		mov	r1, r3	@,
 1086 0294 FFF7FEFF 		bl	xTimerGenericCommand		@
 1087              	.LVL78:
 787:.\freertos/timers.c **** 							( void ) xResult;
 1088              		.loc 1 787 31 is_stmt 1 view .LVU282
 788:.\freertos/timers.c **** 						}
 1089              		.loc 1 788 8 view .LVU283
 1090              	.L53:
 716:.\freertos/timers.c **** 	{
 1091              		.loc 1 716 7 view .LVU284
 1092              	@ .\freertos\timers.c:716: 	while( xQueueReceive( xTimerQueue, &xMessage, tmrNO_DELAY ) != pdFAIL )
 716:.\freertos/timers.c **** 	{
 1093              		.loc 1 716 9 is_stmt 0 view .LVU285
 1094 0298 0022     		movs	r2, #0	@,
 1095 029a 2868     		ldr	r0, [r5]	@, xTimerQueue
 1096 029c 03A9     		add	r1, sp, #12	@ tmp239,,
 1097 029e FFF7FEFF 		bl	xQueueReceive		@
 1098              	.LVL79:
 1099              	@ .\freertos\timers.c:716: 	while( xQueueReceive( xTimerQueue, &xMessage, tmrNO_DELAY ) != pdFAIL )
 716:.\freertos/timers.c **** 	{
 1100              		.loc 1 716 7 view .LVU286
 1101 02a2 0028     		cmp	r0, #0	@ tmp237
ARM GAS  C:\Users\skey\AppData\Local\Temp\cceKeKCB.s 			page 42


 1102 02a4 3FF47DAF 		beq	.L67	@
 742:.\freertos/timers.c **** 		{
 1103              		.loc 1 742 3 is_stmt 1 view .LVU287
 1104              	@ .\freertos\timers.c:742: 		if( xMessage.xMessageID >= ( BaseType_t ) 0 )
 742:.\freertos/timers.c **** 		{
 1105              		.loc 1 742 5 is_stmt 0 view .LVU288
 1106 02a8 039B     		ldr	r3, [sp, #12]	@ xMessage.xMessageID, xMessage.xMessageID
 1107 02aa 002B     		cmp	r3, #0	@ xMessage.xMessageID,
 1108 02ac F4DB     		blt	.L53		@,
 746:.\freertos/timers.c **** 
 1109              		.loc 1 746 4 is_stmt 1 view .LVU289
 1110              	@ .\freertos\timers.c:746: 			pxTimer = xMessage.u.xTimerParameters.pxTimer;
 746:.\freertos/timers.c **** 
 1111              		.loc 1 746 12 is_stmt 0 view .LVU290
 1112 02ae 059C     		ldr	r4, [sp, #20]	@ pxTimer, xMessage.u.xTimerParameters.pxTimer
 1113              	.LVL80:
 748:.\freertos/timers.c **** 			{
 1114              		.loc 1 748 4 is_stmt 1 view .LVU291
 1115              	@ .\freertos\timers.c:748: 			if( listIS_CONTAINED_WITHIN( NULL, &( pxTimer->xTimerListItem ) ) == 
 748:.\freertos/timers.c **** 			{
 1116              		.loc 1 748 6 is_stmt 0 view .LVU292
 1117 02b0 6369     		ldr	r3, [r4, #20]	@ pxTimer_9->xTimerListItem.pvContainer, pxTimer_9->xTimerListItem.pvContainer
 1118 02b2 13B1     		cbz	r3, .L54	@ pxTimer_9->xTimerListItem.pvContainer,
 751:.\freertos/timers.c **** 			}
 1119              		.loc 1 751 5 is_stmt 1 view .LVU293
 1120              	@ .\freertos\timers.c:751: 				( void ) uxListRemove( &( pxTimer->xTimerListItem ) );
 751:.\freertos/timers.c **** 			}
 1121              		.loc 1 751 14 is_stmt 0 view .LVU294
 1122 02b4 201D     		adds	r0, r4, #4	@, pxTimer,
 1123 02b6 FFF7FEFF 		bl	uxListRemove		@
 1124              	.LVL81:
 1125              	.L54:
 755:.\freertos/timers.c **** 			}
 1126              		.loc 1 755 29 is_stmt 1 view .LVU295
 758:.\freertos/timers.c **** 
 1127              		.loc 1 758 106 view .LVU296
 766:.\freertos/timers.c **** 
 1128              		.loc 1 766 4 view .LVU297
 1129              	.LBB43:
 1130              	.LBI43:
 645:.\freertos/timers.c **** {
 1131              		.loc 1 645 19 view .LVU298
 1132              	.LBB44:
 647:.\freertos/timers.c **** PRIVILEGED_DATA static TickType_t xLastTime = ( TickType_t ) 0U; /*lint !e956 Variable is only acce
 1133              		.loc 1 647 1 view .LVU299
 648:.\freertos/timers.c **** 
 1134              		.loc 1 648 17 view .LVU300
 650:.\freertos/timers.c **** 
 1135              		.loc 1 650 2 view .LVU301
 1136              	@ .\freertos\timers.c:650: 	xTimeNow = xTaskGetTickCount();
 650:.\freertos/timers.c **** 
 1137              		.loc 1 650 13 is_stmt 0 view .LVU302
 1138 02ba FFF7FEFF 		bl	xTaskGetTickCount		@
 1139              	.LVL82:
 1140              	@ .\freertos\timers.c:652: 	if( xTimeNow < xLastTime )
 652:.\freertos/timers.c **** 	{
 1141              		.loc 1 652 4 view .LVU303
ARM GAS  C:\Users\skey\AppData\Local\Temp\cceKeKCB.s 			page 43


 1142 02be AB6B     		ldr	r3, [r5, #56]	@ xLastTime, xLastTime
 1143              	@ .\freertos\timers.c:650: 	xTimeNow = xTaskGetTickCount();
 650:.\freertos/timers.c **** 
 1144              		.loc 1 650 13 view .LVU304
 1145 02c0 0646     		mov	r6, r0	@ xTimeNow, tmp235
 1146              	.LVL83:
 652:.\freertos/timers.c **** 	{
 1147              		.loc 1 652 2 is_stmt 1 view .LVU305
 1148              	@ .\freertos\timers.c:652: 	if( xTimeNow < xLastTime )
 652:.\freertos/timers.c **** 	{
 1149              		.loc 1 652 4 is_stmt 0 view .LVU306
 1150 02c2 9842     		cmp	r0, r3	@ xTimeNow, xLastTime
 1151 02c4 01D2     		bcs	.L55		@,
 654:.\freertos/timers.c **** 		*pxTimerListsWereSwitched = pdTRUE;
 1152              		.loc 1 654 3 is_stmt 1 view .LVU307
 1153 02c6 FFF733FF 		bl	prvSwitchTimerLists		@
 1154              	.LVL84:
 655:.\freertos/timers.c **** 	}
 1155              		.loc 1 655 3 view .LVU308
 1156              	.L55:
 662:.\freertos/timers.c **** 
 1157              		.loc 1 662 2 view .LVU309
 1158 02ca 039B     		ldr	r3, [sp, #12]	@ xMessage.xMessageID, xMessage.xMessageID
 1159              	@ .\freertos\timers.c:662: 	xLastTime = xTimeNow;
 662:.\freertos/timers.c **** 
 1160              		.loc 1 662 12 is_stmt 0 view .LVU310
 1161 02cc AE63     		str	r6, [r5, #56]	@ xTimeNow, xLastTime
 664:.\freertos/timers.c **** }
 1162              		.loc 1 664 2 is_stmt 1 view .LVU311
 1163              	.LVL85:
 664:.\freertos/timers.c **** }
 1164              		.loc 1 664 2 is_stmt 0 view .LVU312
 1165              	.LBE44:
 1166              	.LBE43:
 768:.\freertos/timers.c **** 			{
 1167              		.loc 1 768 4 is_stmt 1 view .LVU313
 1168 02ce 092B     		cmp	r3, #9	@ xMessage.xMessageID,
 1169 02d0 E2D8     		bhi	.L53		@
 1170 02d2 01A2     		adr	r2, .L58	@ tmp238,
 1171 02d4 52F823F0 		ldr	pc, [r2, r3, lsl #2]	@ tmp238, xMessage.xMessageID
 1172              		.p2align 2
 1173              	.L58:
 1174 02d8 5B020000 		.word	.L60+1
 1175 02dc 5B020000 		.word	.L60+1
 1176 02e0 5B020000 		.word	.L60+1
 1177 02e4 01030000 		.word	.L59+1
 1178 02e8 0F030000 		.word	.L57+1
 1179 02ec 2D030000 		.word	.L61+1
 1180 02f0 5B020000 		.word	.L60+1
 1181 02f4 5B020000 		.word	.L60+1
 1182 02f8 01030000 		.word	.L59+1
 1183 02fc 0F030000 		.word	.L57+1
 1184              	.LVL86:
 1185              		.p2align 1
 1186              	.L59:
 804:.\freertos/timers.c **** 					break;
 1187              		.loc 1 804 6 view .LVU314
ARM GAS  C:\Users\skey\AppData\Local\Temp\cceKeKCB.s 			page 44


 1188              	@ .\freertos\timers.c:804: 					pxTimer->ucStatus &= ~tmrSTATUS_IS_ACTIVE;
 804:.\freertos/timers.c **** 					break;
 1189              		.loc 1 804 24 is_stmt 0 view .LVU315
 1190 0300 94F82830 		ldrb	r3, [r4, #40]	@ zero_extendqisi2	@ pxTimer_9->ucStatus, pxTimer_9->ucStatus
 1191              	.L64:
 834:.\freertos/timers.c **** 						}
 1192              		.loc 1 834 8 is_stmt 1 view .LVU316
 1193              	@ .\freertos\timers.c:834: 							pxTimer->ucStatus &= ~tmrSTATUS_IS_ACTIVE;
 834:.\freertos/timers.c **** 						}
 1194              		.loc 1 834 26 is_stmt 0 view .LVU317
 1195 0304 23F00103 		bic	r3, r3, #1	@ tmp225, _38,
 1196 0308 84F82830 		strb	r3, [r4, #40]	@ tmp225, pxTimer_9->ucStatus
 1197 030c C4E7     		b	.L53		@
 1198              	.L57:
 809:.\freertos/timers.c **** 					pxTimer->xTimerPeriodInTicks = xMessage.u.xTimerParameters.xMessageValue;
 1199              		.loc 1 809 6 is_stmt 1 view .LVU318
 1200              	@ .\freertos\timers.c:809: 					pxTimer->ucStatus |= tmrSTATUS_IS_ACTIVE;
 809:.\freertos/timers.c **** 					pxTimer->xTimerPeriodInTicks = xMessage.u.xTimerParameters.xMessageValue;
 1201              		.loc 1 809 24 is_stmt 0 view .LVU319
 1202 030e 94F82830 		ldrb	r3, [r4, #40]	@ zero_extendqisi2	@ pxTimer_9->ucStatus, pxTimer_9->ucStatus
 1203              	@ .\freertos\timers.c:810: 					pxTimer->xTimerPeriodInTicks = xMessage.u.xTimerParameters.xMessage
 810:.\freertos/timers.c **** 					configASSERT( ( pxTimer->xTimerPeriodInTicks > 0 ) );
 1204              		.loc 1 810 64 view .LVU320
 1205 0312 0499     		ldr	r1, [sp, #16]	@ _34, xMessage.u.xTimerParameters.xMessageValue
 1206              	@ .\freertos\timers.c:809: 					pxTimer->ucStatus |= tmrSTATUS_IS_ACTIVE;
 809:.\freertos/timers.c **** 					pxTimer->xTimerPeriodInTicks = xMessage.u.xTimerParameters.xMessageValue;
 1207              		.loc 1 809 24 view .LVU321
 1208 0314 43F00103 		orr	r3, r3, #1	@ tmp219, pxTimer_9->ucStatus,
 1209 0318 84F82830 		strb	r3, [r4, #40]	@ tmp219, pxTimer_9->ucStatus
 810:.\freertos/timers.c **** 					configASSERT( ( pxTimer->xTimerPeriodInTicks > 0 ) );
 1210              		.loc 1 810 6 is_stmt 1 view .LVU322
 1211              	@ .\freertos\timers.c:810: 					pxTimer->xTimerPeriodInTicks = xMessage.u.xTimerParameters.xMessage
 810:.\freertos/timers.c **** 					configASSERT( ( pxTimer->xTimerPeriodInTicks > 0 ) );
 1212              		.loc 1 810 35 is_stmt 0 view .LVU323
 1213 031c A161     		str	r1, [r4, #24]	@ _34, pxTimer_9->xTimerPeriodInTicks
 811:.\freertos/timers.c **** 
 1214              		.loc 1 811 58 is_stmt 1 view .LVU324
 819:.\freertos/timers.c **** 					break;
 1215              		.loc 1 819 6 view .LVU325
 1216              	@ .\freertos\timers.c:819: 					( void ) prvInsertTimerInActiveList( pxTimer, ( xTimeNow + pxTimer-
 819:.\freertos/timers.c **** 					break;
 1217              		.loc 1 819 15 is_stmt 0 view .LVU326
 1218 031e 3346     		mov	r3, r6	@, xTimeNow
 1219 0320 3246     		mov	r2, r6	@, tmp3
 1220 0322 2046     		mov	r0, r4	@, pxTimer
 1221 0324 3144     		add	r1, r1, r6	@, tmp3
 1222 0326 FFF789FE 		bl	prvInsertTimerInActiveList		@
 1223              	.LVL87:
 820:.\freertos/timers.c **** 
 1224              		.loc 1 820 6 is_stmt 1 view .LVU327
 1225 032a B5E7     		b	.L53		@
 1226              	.L61:
 828:.\freertos/timers.c **** 						{
 1227              		.loc 1 828 7 view .LVU328
 1228              	@ .\freertos\timers.c:828: 						if( ( pxTimer->ucStatus & tmrSTATUS_IS_STATICALLY_ALLOCATED ) == (
 828:.\freertos/timers.c **** 						{
 1229              		.loc 1 828 20 is_stmt 0 view .LVU329
ARM GAS  C:\Users\skey\AppData\Local\Temp\cceKeKCB.s 			page 45


 1230 032c 94F82830 		ldrb	r3, [r4, #40]	@ zero_extendqisi2	@ _38, pxTimer_9->ucStatus
 1231              	@ .\freertos\timers.c:828: 						if( ( pxTimer->ucStatus & tmrSTATUS_IS_STATICALLY_ALLOCATED ) == (
 828:.\freertos/timers.c **** 						{
 1232              		.loc 1 828 9 view .LVU330
 1233 0330 9A07     		lsls	r2, r3, #30	@, _38,
 1234 0332 E7D4     		bmi	.L64		@,
 830:.\freertos/timers.c **** 						}
 1235              		.loc 1 830 8 is_stmt 1 view .LVU331
 1236 0334 2046     		mov	r0, r4	@, pxTimer
 1237 0336 FFF7FEFF 		bl	vPortFree		@
 1238              	.LVL88:
 1239 033a ADE7     		b	.L53		@
 1240              	.L85:
 1241              		.align	2
 1242              	.L84:
 1243 033c 00000000 		.word	.LANCHOR0
 1244 0340 04ED00E0 		.word	-536810236
 1245              	.LBE45:
 1246              	.LBE47:
 1247              		.cfi_endproc
 1248              	.LFE44:
 1249              		.size	prvTimerTask, .-prvTimerTask
 1250              		.align	1
 1251              		.global	xTimerGetTimerDaemonTaskHandle
 1252              		.syntax unified
 1253              		.thumb
 1254              		.thumb_func
 1255              		.fpu softvfp
 1256              		.type	xTimerGetTimerDaemonTaskHandle, %function
 1257              	xTimerGetTimerDaemonTaskHandle:
 1258              	.LFB38:
 425:.\freertos/timers.c **** 	/* If xTimerGetTimerDaemonTaskHandle() is called before the scheduler has been
 1259              		.loc 1 425 1 view -0
 1260              		.cfi_startproc
 1261              		@ args = 0, pretend = 0, frame = 0
 1262              		@ frame_needed = 0, uses_anonymous_args = 0
 1263              		@ link register save eliminated.
 428:.\freertos/timers.c **** 	return xTimerTaskHandle;
 1264              		.loc 1 428 46 view .LVU333
 429:.\freertos/timers.c **** }
 1265              		.loc 1 429 2 view .LVU334
 1266              	@ .\freertos\timers.c:430: }
 430:.\freertos/timers.c **** /*-----------------------------------------------------------*/
 1267              		.loc 1 430 1 is_stmt 0 view .LVU335
 1268 0344 014B     		ldr	r3, .L87	@ tmp112,
 1269 0346 586B     		ldr	r0, [r3, #52]	@, xTimerTaskHandle
 1270 0348 7047     		bx	lr	@
 1271              	.L88:
 1272 034a 00BF     		.align	2
 1273              	.L87:
 1274 034c 00000000 		.word	.LANCHOR0
 1275              		.cfi_endproc
 1276              	.LFE38:
 1277              		.size	xTimerGetTimerDaemonTaskHandle, .-xTimerGetTimerDaemonTaskHandle
 1278              		.align	1
 1279              		.global	xTimerGetPeriod
 1280              		.syntax unified
ARM GAS  C:\Users\skey\AppData\Local\Temp\cceKeKCB.s 			page 46


 1281              		.thumb
 1282              		.thumb_func
 1283              		.fpu softvfp
 1284              		.type	xTimerGetPeriod, %function
 1285              	xTimerGetPeriod:
 1286              	.LVL89:
 1287              	.LFB39:
 434:.\freertos/timers.c **** Timer_t *pxTimer = xTimer;
 1288              		.loc 1 434 1 is_stmt 1 view -0
 1289              		.cfi_startproc
 1290              		@ args = 0, pretend = 0, frame = 0
 1291              		@ frame_needed = 0, uses_anonymous_args = 0
 1292              		@ link register save eliminated.
 435:.\freertos/timers.c **** 
 1293              		.loc 1 435 1 view .LVU337
 437:.\freertos/timers.c **** 	return pxTimer->xTimerPeriodInTicks;
 1294              		.loc 1 437 24 view .LVU338
 438:.\freertos/timers.c **** }
 1295              		.loc 1 438 2 view .LVU339
 1296              	@ .\freertos\timers.c:439: }
 439:.\freertos/timers.c **** /*-----------------------------------------------------------*/
 1297              		.loc 1 439 1 is_stmt 0 view .LVU340
 1298 0350 8069     		ldr	r0, [r0, #24]	@, MEM[(struct Timer_t *)xTimer_1(D)].xTimerPeriodInTicks
 1299              	.LVL90:
 439:.\freertos/timers.c **** /*-----------------------------------------------------------*/
 1300              		.loc 1 439 1 view .LVU341
 1301 0352 7047     		bx	lr	@
 1302              		.cfi_endproc
 1303              	.LFE39:
 1304              		.size	xTimerGetPeriod, .-xTimerGetPeriod
 1305              		.align	1
 1306              		.global	vTimerSetReloadMode
 1307              		.syntax unified
 1308              		.thumb
 1309              		.thumb_func
 1310              		.fpu softvfp
 1311              		.type	vTimerSetReloadMode, %function
 1312              	vTimerSetReloadMode:
 1313              	.LVL91:
 1314              	.LFB40:
 443:.\freertos/timers.c **** Timer_t * pxTimer =  xTimer;
 1315              		.loc 1 443 1 is_stmt 1 view -0
 1316              		.cfi_startproc
 1317              		@ args = 0, pretend = 0, frame = 0
 1318              		@ frame_needed = 0, uses_anonymous_args = 0
 444:.\freertos/timers.c **** 
 1319              		.loc 1 444 1 view .LVU343
 1320              	@ .\freertos\timers.c:443: {
 443:.\freertos/timers.c **** Timer_t * pxTimer =  xTimer;
 1321              		.loc 1 443 1 is_stmt 0 view .LVU344
 1322 0354 38B5     		push	{r3, r4, r5, lr}	@
 1323              	.LCFI14:
 1324              		.cfi_def_cfa_offset 16
 1325              		.cfi_offset 3, -16
 1326              		.cfi_offset 4, -12
 1327              		.cfi_offset 5, -8
 1328              		.cfi_offset 14, -4
ARM GAS  C:\Users\skey\AppData\Local\Temp\cceKeKCB.s 			page 47


 1329              	@ .\freertos\timers.c:443: {
 443:.\freertos/timers.c **** Timer_t * pxTimer =  xTimer;
 1330              		.loc 1 443 1 view .LVU345
 1331 0356 0446     		mov	r4, r0	@ xTimer, tmp123
 1332              	.LVL92:
 446:.\freertos/timers.c **** 	taskENTER_CRITICAL();
 1333              		.loc 1 446 24 is_stmt 1 view .LVU346
 447:.\freertos/timers.c **** 	{
 1334              		.loc 1 447 2 view .LVU347
 1335              	@ .\freertos\timers.c:443: {
 443:.\freertos/timers.c **** Timer_t * pxTimer =  xTimer;
 1336              		.loc 1 443 1 is_stmt 0 view .LVU348
 1337 0358 0D46     		mov	r5, r1	@ uxAutoReload, tmp124
 1338              	@ .\freertos\timers.c:447: 	taskENTER_CRITICAL();
 447:.\freertos/timers.c **** 	{
 1339              		.loc 1 447 2 view .LVU349
 1340 035a FFF7FEFF 		bl	vPortEnterCritical		@
 1341              	.LVL93:
 449:.\freertos/timers.c **** 		{
 1342              		.loc 1 449 3 is_stmt 1 view .LVU350
 1343 035e 94F82830 		ldrb	r3, [r4, #40]	@ zero_extendqisi2	@ MEM[(struct Timer_t *)xTimer_6(D)].ucStatus, MEM[(struct T
 1344              	@ .\freertos\timers.c:449: 		if( uxAutoReload != pdFALSE )
 449:.\freertos/timers.c **** 		{
 1345              		.loc 1 449 5 is_stmt 0 view .LVU351
 1346 0362 3DB1     		cbz	r5, .L91	@ uxAutoReload,
 451:.\freertos/timers.c **** 		}
 1347              		.loc 1 451 4 is_stmt 1 view .LVU352
 1348              	@ .\freertos\timers.c:451: 			pxTimer->ucStatus |= tmrSTATUS_IS_AUTORELOAD;
 451:.\freertos/timers.c **** 		}
 1349              		.loc 1 451 22 is_stmt 0 view .LVU353
 1350 0364 43F00403 		orr	r3, r3, #4	@ cstore_14, MEM[(struct Timer_t *)xTimer_6(D)].ucStatus,
 1351              	.L92:
 1352 0368 84F82830 		strb	r3, [r4, #40]	@ cstore_14, MEM[(struct Timer_t *)xTimer_6(D)].ucStatus
 458:.\freertos/timers.c **** }
 1353              		.loc 1 458 2 is_stmt 1 view .LVU354
 1354              	@ .\freertos\timers.c:459: }
 459:.\freertos/timers.c **** /*-----------------------------------------------------------*/
 1355              		.loc 1 459 1 is_stmt 0 view .LVU355
 1356 036c BDE83840 		pop	{r3, r4, r5, lr}	@
 1357              	.LCFI15:
 1358              		.cfi_remember_state
 1359              		.cfi_restore 14
 1360              		.cfi_restore 5
 1361              		.cfi_restore 4
 1362              		.cfi_restore 3
 1363              		.cfi_def_cfa_offset 0
 1364              	.LVL94:
 1365              	@ .\freertos\timers.c:458: 	taskEXIT_CRITICAL();
 458:.\freertos/timers.c **** }
 1366              		.loc 1 458 2 view .LVU356
 1367 0370 FFF7FEBF 		b	vPortExitCritical		@
 1368              	.LVL95:
 1369              	.L91:
 1370              	.LCFI16:
 1371              		.cfi_restore_state
 455:.\freertos/timers.c **** 		}
 1372              		.loc 1 455 4 is_stmt 1 view .LVU357
ARM GAS  C:\Users\skey\AppData\Local\Temp\cceKeKCB.s 			page 48


 1373              	@ .\freertos\timers.c:455: 			pxTimer->ucStatus &= ~tmrSTATUS_IS_AUTORELOAD;
 455:.\freertos/timers.c **** 		}
 1374              		.loc 1 455 22 is_stmt 0 view .LVU358
 1375 0374 03F0FB03 		and	r3, r3, #251	@ cstore_14, MEM[(struct Timer_t *)xTimer_6(D)].ucStatus,
 1376 0378 F6E7     		b	.L92		@
 1377              		.cfi_endproc
 1378              	.LFE40:
 1379              		.size	vTimerSetReloadMode, .-vTimerSetReloadMode
 1380              		.align	1
 1381              		.global	xTimerGetExpiryTime
 1382              		.syntax unified
 1383              		.thumb
 1384              		.thumb_func
 1385              		.fpu softvfp
 1386              		.type	xTimerGetExpiryTime, %function
 1387              	xTimerGetExpiryTime:
 1388              	.LVL96:
 1389              	.LFB41:
 463:.\freertos/timers.c **** Timer_t * pxTimer =  xTimer;
 1390              		.loc 1 463 1 is_stmt 1 view -0
 1391              		.cfi_startproc
 1392              		@ args = 0, pretend = 0, frame = 0
 1393              		@ frame_needed = 0, uses_anonymous_args = 0
 1394              		@ link register save eliminated.
 464:.\freertos/timers.c **** TickType_t xReturn;
 1395              		.loc 1 464 1 view .LVU360
 465:.\freertos/timers.c **** 
 1396              		.loc 1 465 1 view .LVU361
 467:.\freertos/timers.c **** 	xReturn = listGET_LIST_ITEM_VALUE( &( pxTimer->xTimerListItem ) );
 1397              		.loc 1 467 24 view .LVU362
 468:.\freertos/timers.c **** 	return xReturn;
 1398              		.loc 1 468 2 view .LVU363
 469:.\freertos/timers.c **** }
 1399              		.loc 1 469 2 view .LVU364
 1400              	@ .\freertos\timers.c:470: }
 470:.\freertos/timers.c **** /*-----------------------------------------------------------*/
 1401              		.loc 1 470 1 is_stmt 0 view .LVU365
 1402 037a 4068     		ldr	r0, [r0, #4]	@, MEM[(struct Timer_t *)xTimer_1(D)].xTimerListItem.xItemValue
 1403              	.LVL97:
 470:.\freertos/timers.c **** /*-----------------------------------------------------------*/
 1404              		.loc 1 470 1 view .LVU366
 1405 037c 7047     		bx	lr	@
 1406              		.cfi_endproc
 1407              	.LFE41:
 1408              		.size	xTimerGetExpiryTime, .-xTimerGetExpiryTime
 1409              		.align	1
 1410              		.global	pcTimerGetName
 1411              		.syntax unified
 1412              		.thumb
 1413              		.thumb_func
 1414              		.fpu softvfp
 1415              		.type	pcTimerGetName, %function
 1416              	pcTimerGetName:
 1417              	.LVL98:
 1418              	.LFB42:
 474:.\freertos/timers.c **** Timer_t *pxTimer = xTimer;
 1419              		.loc 1 474 1 is_stmt 1 view -0
ARM GAS  C:\Users\skey\AppData\Local\Temp\cceKeKCB.s 			page 49


 1420              		.cfi_startproc
 1421              		@ args = 0, pretend = 0, frame = 0
 1422              		@ frame_needed = 0, uses_anonymous_args = 0
 1423              		@ link register save eliminated.
 475:.\freertos/timers.c **** 
 1424              		.loc 1 475 1 view .LVU368
 477:.\freertos/timers.c **** 	return pxTimer->pcTimerName;
 1425              		.loc 1 477 24 view .LVU369
 478:.\freertos/timers.c **** }
 1426              		.loc 1 478 2 view .LVU370
 1427              	@ .\freertos\timers.c:479: }
 479:.\freertos/timers.c **** /*-----------------------------------------------------------*/
 1428              		.loc 1 479 1 is_stmt 0 view .LVU371
 1429 037e 0068     		ldr	r0, [r0]	@, MEM[(struct Timer_t *)xTimer_1(D)].pcTimerName
 1430              	.LVL99:
 479:.\freertos/timers.c **** /*-----------------------------------------------------------*/
 1431              		.loc 1 479 1 view .LVU372
 1432 0380 7047     		bx	lr	@
 1433              		.cfi_endproc
 1434              	.LFE42:
 1435              		.size	pcTimerGetName, .-pcTimerGetName
 1436              		.align	1
 1437              		.global	xTimerIsTimerActive
 1438              		.syntax unified
 1439              		.thumb
 1440              		.thumb_func
 1441              		.fpu softvfp
 1442              		.type	xTimerIsTimerActive, %function
 1443              	xTimerIsTimerActive:
 1444              	.LVL100:
 1445              	.LFB52:
 965:.\freertos/timers.c **** /*-----------------------------------------------------------*/
 966:.\freertos/timers.c **** 
 967:.\freertos/timers.c **** BaseType_t xTimerIsTimerActive( TimerHandle_t xTimer )
 968:.\freertos/timers.c **** {
 1446              		.loc 1 968 1 is_stmt 1 view -0
 1447              		.cfi_startproc
 1448              		@ args = 0, pretend = 0, frame = 0
 1449              		@ frame_needed = 0, uses_anonymous_args = 0
 969:.\freertos/timers.c **** BaseType_t xReturn;
 1450              		.loc 1 969 1 view .LVU374
 970:.\freertos/timers.c **** Timer_t *pxTimer = xTimer;
 1451              		.loc 1 970 1 view .LVU375
 1452              	@ .\freertos\timers.c:968: {
 968:.\freertos/timers.c **** BaseType_t xReturn;
 1453              		.loc 1 968 1 is_stmt 0 view .LVU376
 1454 0382 10B5     		push	{r4, lr}	@
 1455              	.LCFI17:
 1456              		.cfi_def_cfa_offset 8
 1457              		.cfi_offset 4, -8
 1458              		.cfi_offset 14, -4
 1459              	@ .\freertos\timers.c:968: {
 968:.\freertos/timers.c **** BaseType_t xReturn;
 1460              		.loc 1 968 1 view .LVU377
 1461 0384 0446     		mov	r4, r0	@ xTimer, tmp118
 1462              	.LVL101:
 971:.\freertos/timers.c **** 
ARM GAS  C:\Users\skey\AppData\Local\Temp\cceKeKCB.s 			page 50


 972:.\freertos/timers.c **** 	configASSERT( xTimer );
 1463              		.loc 1 972 24 is_stmt 1 view .LVU378
 973:.\freertos/timers.c **** 
 974:.\freertos/timers.c **** 	/* Is the timer in the list of active timers? */
 975:.\freertos/timers.c **** 	taskENTER_CRITICAL();
 1464              		.loc 1 975 2 view .LVU379
 1465 0386 FFF7FEFF 		bl	vPortEnterCritical		@
 1466              	.LVL102:
 976:.\freertos/timers.c **** 	{
 977:.\freertos/timers.c **** 		if( ( pxTimer->ucStatus & tmrSTATUS_IS_ACTIVE ) == 0 )
 1467              		.loc 1 977 3 view .LVU380
 1468              	@ .\freertos\timers.c:977: 		if( ( pxTimer->ucStatus & tmrSTATUS_IS_ACTIVE ) == 0 )
 1469              		.loc 1 977 5 is_stmt 0 view .LVU381
 1470 038a 94F82840 		ldrb	r4, [r4, #40]	@ zero_extendqisi2	@ MEM[(struct Timer_t *)xTimer_3(D)].ucStatus, MEM[(struct T
 1471              	.LVL103:
 1472              	@ .\freertos\timers.c:986: 	taskEXIT_CRITICAL();
 978:.\freertos/timers.c **** 		{
 979:.\freertos/timers.c **** 			xReturn = pdFALSE;
 980:.\freertos/timers.c **** 		}
 981:.\freertos/timers.c **** 		else
 982:.\freertos/timers.c **** 		{
 983:.\freertos/timers.c **** 			xReturn = pdTRUE;
 984:.\freertos/timers.c **** 		}
 985:.\freertos/timers.c **** 	}
 986:.\freertos/timers.c **** 	taskEXIT_CRITICAL();
 1473              		.loc 1 986 2 view .LVU382
 1474 038e FFF7FEFF 		bl	vPortExitCritical		@
 1475              	.LVL104:
 1476              	@ .\freertos\timers.c:977: 		if( ( pxTimer->ucStatus & tmrSTATUS_IS_ACTIVE ) == 0 )
 977:.\freertos/timers.c **** 		{
 1477              		.loc 1 977 5 view .LVU383
 1478 0392 04F00104 		and	r4, r4, #1	@ <retval>, MEM[(struct Timer_t *)xTimer_3(D)].ucStatus,
 1479              	.LVL105:
 1480              		.loc 1 986 2 is_stmt 1 view .LVU384
 987:.\freertos/timers.c **** 
 988:.\freertos/timers.c **** 	return xReturn;
 1481              		.loc 1 988 2 view .LVU385
 1482              	@ .\freertos\timers.c:989: } /*lint !e818 Can't be pointer to const due to the typedef. */
 989:.\freertos/timers.c **** } /*lint !e818 Can't be pointer to const due to the typedef. */
 1483              		.loc 1 989 1 is_stmt 0 view .LVU386
 1484 0396 2046     		mov	r0, r4	@, <retval>
 1485 0398 10BD     		pop	{r4, pc}	@
 1486              		.loc 1 989 1 view .LVU387
 1487              		.cfi_endproc
 1488              	.LFE52:
 1489              		.size	xTimerIsTimerActive, .-xTimerIsTimerActive
 1490              		.align	1
 1491              		.global	pvTimerGetTimerID
 1492              		.syntax unified
 1493              		.thumb
 1494              		.thumb_func
 1495              		.fpu softvfp
 1496              		.type	pvTimerGetTimerID, %function
 1497              	pvTimerGetTimerID:
 1498              	.LVL106:
 1499              	.LFB53:
 990:.\freertos/timers.c **** /*-----------------------------------------------------------*/
ARM GAS  C:\Users\skey\AppData\Local\Temp\cceKeKCB.s 			page 51


 991:.\freertos/timers.c **** 
 992:.\freertos/timers.c **** void *pvTimerGetTimerID( const TimerHandle_t xTimer )
 993:.\freertos/timers.c **** {
 1500              		.loc 1 993 1 is_stmt 1 view -0
 1501              		.cfi_startproc
 1502              		@ args = 0, pretend = 0, frame = 0
 1503              		@ frame_needed = 0, uses_anonymous_args = 0
 994:.\freertos/timers.c **** Timer_t * const pxTimer = xTimer;
 1504              		.loc 1 994 1 view .LVU389
 1505              	@ .\freertos\timers.c:993: {
 993:.\freertos/timers.c **** Timer_t * const pxTimer = xTimer;
 1506              		.loc 1 993 1 is_stmt 0 view .LVU390
 1507 039a 10B5     		push	{r4, lr}	@
 1508              	.LCFI18:
 1509              		.cfi_def_cfa_offset 8
 1510              		.cfi_offset 4, -8
 1511              		.cfi_offset 14, -4
 1512              	@ .\freertos\timers.c:993: {
 993:.\freertos/timers.c **** Timer_t * const pxTimer = xTimer;
 1513              		.loc 1 993 1 view .LVU391
 1514 039c 0446     		mov	r4, r0	@ xTimer, tmp113
 1515              	.LVL107:
 995:.\freertos/timers.c **** void *pvReturn;
 1516              		.loc 1 995 1 is_stmt 1 view .LVU392
 996:.\freertos/timers.c **** 
 997:.\freertos/timers.c **** 	configASSERT( xTimer );
 1517              		.loc 1 997 24 view .LVU393
 998:.\freertos/timers.c **** 
 999:.\freertos/timers.c **** 	taskENTER_CRITICAL();
 1518              		.loc 1 999 2 view .LVU394
 1519 039e FFF7FEFF 		bl	vPortEnterCritical		@
 1520              	.LVL108:
1000:.\freertos/timers.c **** 	{
1001:.\freertos/timers.c **** 		pvReturn = pxTimer->pvTimerID;
 1521              		.loc 1 1001 3 view .LVU395
 1522              	@ .\freertos\timers.c:1001: 		pvReturn = pxTimer->pvTimerID;
 1523              		.loc 1 1001 12 is_stmt 0 view .LVU396
 1524 03a2 E469     		ldr	r4, [r4, #28]	@ <retval>, MEM[(struct Timer_t *)xTimer_1(D)].pvTimerID
 1525              	.LVL109:
1002:.\freertos/timers.c **** 	}
1003:.\freertos/timers.c **** 	taskEXIT_CRITICAL();
 1526              		.loc 1 1003 2 is_stmt 1 view .LVU397
 1527 03a4 FFF7FEFF 		bl	vPortExitCritical		@
 1528              	.LVL110:
1004:.\freertos/timers.c **** 
1005:.\freertos/timers.c **** 	return pvReturn;
 1529              		.loc 1 1005 2 view .LVU398
 1530              	@ .\freertos\timers.c:1006: }
1006:.\freertos/timers.c **** }
 1531              		.loc 1 1006 1 is_stmt 0 view .LVU399
 1532 03a8 2046     		mov	r0, r4	@, <retval>
 1533 03aa 10BD     		pop	{r4, pc}	@
 1534              		.loc 1 1006 1 view .LVU400
 1535              		.cfi_endproc
 1536              	.LFE53:
 1537              		.size	pvTimerGetTimerID, .-pvTimerGetTimerID
 1538              		.align	1
ARM GAS  C:\Users\skey\AppData\Local\Temp\cceKeKCB.s 			page 52


 1539              		.global	vTimerSetTimerID
 1540              		.syntax unified
 1541              		.thumb
 1542              		.thumb_func
 1543              		.fpu softvfp
 1544              		.type	vTimerSetTimerID, %function
 1545              	vTimerSetTimerID:
 1546              	.LVL111:
 1547              	.LFB54:
1007:.\freertos/timers.c **** /*-----------------------------------------------------------*/
1008:.\freertos/timers.c **** 
1009:.\freertos/timers.c **** void vTimerSetTimerID( TimerHandle_t xTimer, void *pvNewID )
1010:.\freertos/timers.c **** {
 1548              		.loc 1 1010 1 is_stmt 1 view -0
 1549              		.cfi_startproc
 1550              		@ args = 0, pretend = 0, frame = 0
 1551              		@ frame_needed = 0, uses_anonymous_args = 0
1011:.\freertos/timers.c **** Timer_t * const pxTimer = xTimer;
 1552              		.loc 1 1011 1 view .LVU402
 1553              	@ .\freertos\timers.c:1010: {
1010:.\freertos/timers.c **** Timer_t * const pxTimer = xTimer;
 1554              		.loc 1 1010 1 is_stmt 0 view .LVU403
 1555 03ac 38B5     		push	{r3, r4, r5, lr}	@
 1556              	.LCFI19:
 1557              		.cfi_def_cfa_offset 16
 1558              		.cfi_offset 3, -16
 1559              		.cfi_offset 4, -12
 1560              		.cfi_offset 5, -8
 1561              		.cfi_offset 14, -4
 1562              	@ .\freertos\timers.c:1010: {
1010:.\freertos/timers.c **** Timer_t * const pxTimer = xTimer;
 1563              		.loc 1 1010 1 view .LVU404
 1564 03ae 0446     		mov	r4, r0	@ xTimer, tmp112
 1565              	.LVL112:
1012:.\freertos/timers.c **** 
1013:.\freertos/timers.c **** 	configASSERT( xTimer );
 1566              		.loc 1 1013 24 is_stmt 1 view .LVU405
1014:.\freertos/timers.c **** 
1015:.\freertos/timers.c **** 	taskENTER_CRITICAL();
 1567              		.loc 1 1015 2 view .LVU406
 1568              	@ .\freertos\timers.c:1010: {
1010:.\freertos/timers.c **** Timer_t * const pxTimer = xTimer;
 1569              		.loc 1 1010 1 is_stmt 0 view .LVU407
 1570 03b0 0D46     		mov	r5, r1	@ pvNewID, tmp113
 1571              	@ .\freertos\timers.c:1015: 	taskENTER_CRITICAL();
 1572              		.loc 1 1015 2 view .LVU408
 1573 03b2 FFF7FEFF 		bl	vPortEnterCritical		@
 1574              	.LVL113:
1016:.\freertos/timers.c **** 	{
1017:.\freertos/timers.c **** 		pxTimer->pvTimerID = pvNewID;
 1575              		.loc 1 1017 3 is_stmt 1 view .LVU409
 1576              	@ .\freertos\timers.c:1017: 		pxTimer->pvTimerID = pvNewID;
 1577              		.loc 1 1017 22 is_stmt 0 view .LVU410
 1578 03b6 E561     		str	r5, [r4, #28]	@ pvNewID, MEM[(struct Timer_t *)xTimer_1(D)].pvTimerID
1018:.\freertos/timers.c **** 	}
1019:.\freertos/timers.c **** 	taskEXIT_CRITICAL();
 1579              		.loc 1 1019 2 is_stmt 1 view .LVU411
ARM GAS  C:\Users\skey\AppData\Local\Temp\cceKeKCB.s 			page 53


 1580              	@ .\freertos\timers.c:1020: }
1020:.\freertos/timers.c **** }
 1581              		.loc 1 1020 1 is_stmt 0 view .LVU412
 1582 03b8 BDE83840 		pop	{r3, r4, r5, lr}	@
 1583              	.LCFI20:
 1584              		.cfi_restore 14
 1585              		.cfi_restore 5
 1586              		.cfi_restore 4
 1587              		.cfi_restore 3
 1588              		.cfi_def_cfa_offset 0
 1589              	.LVL114:
 1590              	@ .\freertos\timers.c:1019: 	taskEXIT_CRITICAL();
1019:.\freertos/timers.c **** }
 1591              		.loc 1 1019 2 view .LVU413
 1592 03bc FFF7FEBF 		b	vPortExitCritical		@
 1593              	.LVL115:
1019:.\freertos/timers.c **** }
 1594              		.loc 1 1019 2 view .LVU414
 1595              		.cfi_endproc
 1596              	.LFE54:
 1597              		.size	vTimerSetTimerID, .-vTimerSetTimerID
 1598              		.align	1
 1599              		.global	uxTimerGetTimerNumber
 1600              		.syntax unified
 1601              		.thumb
 1602              		.thumb_func
 1603              		.fpu softvfp
 1604              		.type	uxTimerGetTimerNumber, %function
 1605              	uxTimerGetTimerNumber:
 1606              	.LVL116:
 1607              	.LFB55:
1021:.\freertos/timers.c **** /*-----------------------------------------------------------*/
1022:.\freertos/timers.c **** 
1023:.\freertos/timers.c **** #if( INCLUDE_xTimerPendFunctionCall == 1 )
1024:.\freertos/timers.c **** 
1025:.\freertos/timers.c **** 	BaseType_t xTimerPendFunctionCallFromISR( PendedFunction_t xFunctionToPend, void *pvParameter1, ui
1026:.\freertos/timers.c **** 	{
1027:.\freertos/timers.c **** 	DaemonTaskMessage_t xMessage;
1028:.\freertos/timers.c **** 	BaseType_t xReturn;
1029:.\freertos/timers.c **** 
1030:.\freertos/timers.c **** 		/* Complete the message with the function parameters and post it to the
1031:.\freertos/timers.c **** 		daemon task. */
1032:.\freertos/timers.c **** 		xMessage.xMessageID = tmrCOMMAND_EXECUTE_CALLBACK_FROM_ISR;
1033:.\freertos/timers.c **** 		xMessage.u.xCallbackParameters.pxCallbackFunction = xFunctionToPend;
1034:.\freertos/timers.c **** 		xMessage.u.xCallbackParameters.pvParameter1 = pvParameter1;
1035:.\freertos/timers.c **** 		xMessage.u.xCallbackParameters.ulParameter2 = ulParameter2;
1036:.\freertos/timers.c **** 
1037:.\freertos/timers.c **** 		xReturn = xQueueSendFromISR( xTimerQueue, &xMessage, pxHigherPriorityTaskWoken );
1038:.\freertos/timers.c **** 
1039:.\freertos/timers.c **** 		tracePEND_FUNC_CALL_FROM_ISR( xFunctionToPend, pvParameter1, ulParameter2, xReturn );
1040:.\freertos/timers.c **** 
1041:.\freertos/timers.c **** 		return xReturn;
1042:.\freertos/timers.c **** 	}
1043:.\freertos/timers.c **** 
1044:.\freertos/timers.c **** #endif /* INCLUDE_xTimerPendFunctionCall */
1045:.\freertos/timers.c **** /*-----------------------------------------------------------*/
1046:.\freertos/timers.c **** 
ARM GAS  C:\Users\skey\AppData\Local\Temp\cceKeKCB.s 			page 54


1047:.\freertos/timers.c **** #if( INCLUDE_xTimerPendFunctionCall == 1 )
1048:.\freertos/timers.c **** 
1049:.\freertos/timers.c **** 	BaseType_t xTimerPendFunctionCall( PendedFunction_t xFunctionToPend, void *pvParameter1, uint32_t 
1050:.\freertos/timers.c **** 	{
1051:.\freertos/timers.c **** 	DaemonTaskMessage_t xMessage;
1052:.\freertos/timers.c **** 	BaseType_t xReturn;
1053:.\freertos/timers.c **** 
1054:.\freertos/timers.c **** 		/* This function can only be called after a timer has been created or
1055:.\freertos/timers.c **** 		after the scheduler has been started because, until then, the timer
1056:.\freertos/timers.c **** 		queue does not exist. */
1057:.\freertos/timers.c **** 		configASSERT( xTimerQueue );
1058:.\freertos/timers.c **** 
1059:.\freertos/timers.c **** 		/* Complete the message with the function parameters and post it to the
1060:.\freertos/timers.c **** 		daemon task. */
1061:.\freertos/timers.c **** 		xMessage.xMessageID = tmrCOMMAND_EXECUTE_CALLBACK;
1062:.\freertos/timers.c **** 		xMessage.u.xCallbackParameters.pxCallbackFunction = xFunctionToPend;
1063:.\freertos/timers.c **** 		xMessage.u.xCallbackParameters.pvParameter1 = pvParameter1;
1064:.\freertos/timers.c **** 		xMessage.u.xCallbackParameters.ulParameter2 = ulParameter2;
1065:.\freertos/timers.c **** 
1066:.\freertos/timers.c **** 		xReturn = xQueueSendToBack( xTimerQueue, &xMessage, xTicksToWait );
1067:.\freertos/timers.c **** 
1068:.\freertos/timers.c **** 		tracePEND_FUNC_CALL( xFunctionToPend, pvParameter1, ulParameter2, xReturn );
1069:.\freertos/timers.c **** 
1070:.\freertos/timers.c **** 		return xReturn;
1071:.\freertos/timers.c **** 	}
1072:.\freertos/timers.c **** 
1073:.\freertos/timers.c **** #endif /* INCLUDE_xTimerPendFunctionCall */
1074:.\freertos/timers.c **** /*-----------------------------------------------------------*/
1075:.\freertos/timers.c **** 
1076:.\freertos/timers.c **** #if ( configUSE_TRACE_FACILITY == 1 )
1077:.\freertos/timers.c **** 
1078:.\freertos/timers.c **** 	UBaseType_t uxTimerGetTimerNumber( TimerHandle_t xTimer )
1079:.\freertos/timers.c **** 	{
 1608              		.loc 1 1079 2 is_stmt 1 view -0
 1609              		.cfi_startproc
 1610              		@ args = 0, pretend = 0, frame = 0
 1611              		@ frame_needed = 0, uses_anonymous_args = 0
 1612              		@ link register save eliminated.
1080:.\freertos/timers.c **** 		return ( ( Timer_t * ) xTimer )->uxTimerNumber;
 1613              		.loc 1 1080 3 view .LVU416
 1614              	@ .\freertos\timers.c:1081: 	}
1081:.\freertos/timers.c **** 	}
 1615              		.loc 1 1081 2 is_stmt 0 view .LVU417
 1616 03c0 406A     		ldr	r0, [r0, #36]	@, MEM[(struct Timer_t *)xTimer_2(D)].uxTimerNumber
 1617              	.LVL117:
 1618              		.loc 1 1081 2 view .LVU418
 1619 03c2 7047     		bx	lr	@
 1620              		.cfi_endproc
 1621              	.LFE55:
 1622              		.size	uxTimerGetTimerNumber, .-uxTimerGetTimerNumber
 1623              		.align	1
 1624              		.global	vTimerSetTimerNumber
 1625              		.syntax unified
 1626              		.thumb
 1627              		.thumb_func
 1628              		.fpu softvfp
 1629              		.type	vTimerSetTimerNumber, %function
ARM GAS  C:\Users\skey\AppData\Local\Temp\cceKeKCB.s 			page 55


 1630              	vTimerSetTimerNumber:
 1631              	.LVL118:
 1632              	.LFB56:
1082:.\freertos/timers.c **** 
1083:.\freertos/timers.c **** #endif /* configUSE_TRACE_FACILITY */
1084:.\freertos/timers.c **** /*-----------------------------------------------------------*/
1085:.\freertos/timers.c **** 
1086:.\freertos/timers.c **** #if ( configUSE_TRACE_FACILITY == 1 )
1087:.\freertos/timers.c **** 
1088:.\freertos/timers.c **** 	void vTimerSetTimerNumber( TimerHandle_t xTimer, UBaseType_t uxTimerNumber )
1089:.\freertos/timers.c **** 	{
 1633              		.loc 1 1089 2 is_stmt 1 view -0
 1634              		.cfi_startproc
 1635              		@ args = 0, pretend = 0, frame = 0
 1636              		@ frame_needed = 0, uses_anonymous_args = 0
 1637              		@ link register save eliminated.
1090:.\freertos/timers.c **** 		( ( Timer_t * ) xTimer )->uxTimerNumber = uxTimerNumber;
 1638              		.loc 1 1090 3 view .LVU420
 1639              	@ .\freertos\timers.c:1090: 		( ( Timer_t * ) xTimer )->uxTimerNumber = uxTimerNumber;
 1640              		.loc 1 1090 43 is_stmt 0 view .LVU421
 1641 03c4 4162     		str	r1, [r0, #36]	@ tmp113, MEM[(struct Timer_t *)xTimer_2(D)].uxTimerNumber
 1642              	@ .\freertos\timers.c:1091: 	}
1091:.\freertos/timers.c **** 	}
 1643              		.loc 1 1091 2 view .LVU422
 1644 03c6 7047     		bx	lr	@
 1645              		.cfi_endproc
 1646              	.LFE56:
 1647              		.size	vTimerSetTimerNumber, .-vTimerSetTimerNumber
 1648              		.bss
 1649              		.align	2
 1650              		.set	.LANCHOR0,. + 0
 1651              		.type	xTimerQueue, %object
 1652              		.size	xTimerQueue, 4
 1653              	xTimerQueue:
 1654 0000 00000000 		.space	4
 1655              		.type	xActiveTimerList1, %object
 1656              		.size	xActiveTimerList1, 20
 1657              	xActiveTimerList1:
 1658 0004 00000000 		.space	20
 1658      00000000 
 1658      00000000 
 1658      00000000 
 1658      00000000 
 1659              		.type	xActiveTimerList2, %object
 1660              		.size	xActiveTimerList2, 20
 1661              	xActiveTimerList2:
 1662 0018 00000000 		.space	20
 1662      00000000 
 1662      00000000 
 1662      00000000 
 1662      00000000 
 1663              		.type	pxCurrentTimerList, %object
 1664              		.size	pxCurrentTimerList, 4
 1665              	pxCurrentTimerList:
 1666 002c 00000000 		.space	4
 1667              		.type	pxOverflowTimerList, %object
 1668              		.size	pxOverflowTimerList, 4
ARM GAS  C:\Users\skey\AppData\Local\Temp\cceKeKCB.s 			page 56


 1669              	pxOverflowTimerList:
 1670 0030 00000000 		.space	4
 1671              		.type	xTimerTaskHandle, %object
 1672              		.size	xTimerTaskHandle, 4
 1673              	xTimerTaskHandle:
 1674 0034 00000000 		.space	4
 1675              		.type	xLastTime.7797, %object
 1676              		.size	xLastTime.7797, 4
 1677              	xLastTime.7797:
 1678 0038 00000000 		.space	4
 1679              		.text
 1680              	.Letext0:
 1681              		.file 2 "c:\\program files (x86)\\gnu tools arm embedded\\9 2019-q4-major\\arm-none-eabi\\include\
 1682              		.file 3 "c:\\program files (x86)\\gnu tools arm embedded\\9 2019-q4-major\\arm-none-eabi\\include\
 1683              		.file 4 "c:\\program files (x86)\\gnu tools arm embedded\\9 2019-q4-major\\arm-none-eabi\\include\
 1684              		.file 5 "c:\\program files (x86)\\gnu tools arm embedded\\9 2019-q4-major\\lib\\gcc\\arm-none-eabi
 1685              		.file 6 "c:\\program files (x86)\\gnu tools arm embedded\\9 2019-q4-major\\arm-none-eabi\\include\
 1686              		.file 7 "c:\\program files (x86)\\gnu tools arm embedded\\9 2019-q4-major\\arm-none-eabi\\include\
 1687              		.file 8 "c:\\program files (x86)\\gnu tools arm embedded\\9 2019-q4-major\\arm-none-eabi\\include\
 1688              		.file 9 ".\\stlib\\CMSIS\\CM3\\CoreSupport/core_cm3.h"
 1689              		.file 10 ".\\stlib\\CMSIS\\CM3\\DeviceSupport\\ST\\STM32F10x/system_stm32f10x.h"
 1690              		.file 11 ".\\freertos\\portable\\GCC\\ARM_CM3/portmacro.h"
 1691              		.file 12 ".\\freertos\\include/list.h"
 1692              		.file 13 ".\\freertos\\include/task.h"
 1693              		.file 14 ".\\freertos\\include/queue.h"
 1694              		.file 15 ".\\freertos\\include/timers.h"
 1695              		.file 16 ".\\freertos\\include/portable.h"